ARM GAS  /tmp/cclMtiRJ.s 			page 1


   1              		.cpu cortex-a9
   2              		.eabi_attribute 28, 1
   3              		.eabi_attribute 20, 1
   4              		.eabi_attribute 21, 1
   5              		.eabi_attribute 23, 3
   6              		.eabi_attribute 24, 1
   7              		.eabi_attribute 25, 1
   8              		.eabi_attribute 26, 2
   9              		.eabi_attribute 30, 6
  10              		.eabi_attribute 34, 1
  11              		.eabi_attribute 18, 4
  12              		.file	"BinFuncs.c"
  13              		.text
  14              	.Ltext0:
  15              		.cfi_sections	.debug_frame
  16              		.align	2
  17              		.global	u32ChecksumBlock
  18              		.arch armv7-a
  19              		.arch_extension mp
  20              		.arch_extension sec
  21              		.syntax unified
  22              		.arm
  23              		.fpu vfpv3
  25              	u32ChecksumBlock:
  26              	.LFB1:
  27              		.file 1 "/home/hkh/git/eapidk-code-r76-trunk/apps/EeePProg/linux/../BinFuncs.c"
   1:/home/hkh/git/eapidk-code-r76-trunk/apps/EeePProg/linux/../BinFuncs.c **** /*
   2:/home/hkh/git/eapidk-code-r76-trunk/apps/EeePProg/linux/../BinFuncs.c ****  *<KHeader>
   3:/home/hkh/git/eapidk-code-r76-trunk/apps/EeePProg/linux/../BinFuncs.c ****  *+=========================================================================
   4:/home/hkh/git/eapidk-code-r76-trunk/apps/EeePProg/linux/../BinFuncs.c ****  *I  Project Name: EApiDK Embedded Application Development Kit
   5:/home/hkh/git/eapidk-code-r76-trunk/apps/EeePProg/linux/../BinFuncs.c ****  *+=========================================================================
   6:/home/hkh/git/eapidk-code-r76-trunk/apps/EeePProg/linux/../BinFuncs.c ****  *I  $HeadURL: file:///svn/p/eapidk/code/trunk/apps/EeePProg/BinFuncs.c $
   7:/home/hkh/git/eapidk-code-r76-trunk/apps/EeePProg/linux/../BinFuncs.c ****  *+=========================================================================
   8:/home/hkh/git/eapidk-code-r76-trunk/apps/EeePProg/linux/../BinFuncs.c ****  *I   Copyright: Copyright (c) 2002-2010, Kontron Embedded Modules GmbH
   9:/home/hkh/git/eapidk-code-r76-trunk/apps/EeePProg/linux/../BinFuncs.c ****  *I      Author: John Kearney,                  John.Kearney@kontron.com
  10:/home/hkh/git/eapidk-code-r76-trunk/apps/EeePProg/linux/../BinFuncs.c ****  *I
  11:/home/hkh/git/eapidk-code-r76-trunk/apps/EeePProg/linux/../BinFuncs.c ****  *I     License: This program contains proprietary and confidential 
  12:/home/hkh/git/eapidk-code-r76-trunk/apps/EeePProg/linux/../BinFuncs.c ****  *I              information. All rights reserved except as may be 
  13:/home/hkh/git/eapidk-code-r76-trunk/apps/EeePProg/linux/../BinFuncs.c ****  *I              permitted by prior written consent.
  14:/home/hkh/git/eapidk-code-r76-trunk/apps/EeePProg/linux/../BinFuncs.c ****  *I
  15:/home/hkh/git/eapidk-code-r76-trunk/apps/EeePProg/linux/../BinFuncs.c ****  *I Description: Auto Created for sprintf.c
  16:/home/hkh/git/eapidk-code-r76-trunk/apps/EeePProg/linux/../BinFuncs.c ****  *I
  17:/home/hkh/git/eapidk-code-r76-trunk/apps/EeePProg/linux/../BinFuncs.c ****  *+-------------------------------------------------------------------------
  18:/home/hkh/git/eapidk-code-r76-trunk/apps/EeePProg/linux/../BinFuncs.c ****  *I
  19:/home/hkh/git/eapidk-code-r76-trunk/apps/EeePProg/linux/../BinFuncs.c ****  *I  File Name            : BinFuncs.c
  20:/home/hkh/git/eapidk-code-r76-trunk/apps/EeePProg/linux/../BinFuncs.c ****  *I  File Location        : apps\EeePProg
  21:/home/hkh/git/eapidk-code-r76-trunk/apps/EeePProg/linux/../BinFuncs.c ****  *I  Last committed       : $Revision: 75 $
  22:/home/hkh/git/eapidk-code-r76-trunk/apps/EeePProg/linux/../BinFuncs.c ****  *I  Last changed by      : $Author: dethrophes $
  23:/home/hkh/git/eapidk-code-r76-trunk/apps/EeePProg/linux/../BinFuncs.c ****  *I  Last changed date    : $Date: 2010-06-28 23:50:38 +0000 (Mon, 28 Jun 2010) $
  24:/home/hkh/git/eapidk-code-r76-trunk/apps/EeePProg/linux/../BinFuncs.c ****  *I  ID                   : $Id: BinFuncs.c 75 2010-06-28 23:50:38Z dethrophes $
  25:/home/hkh/git/eapidk-code-r76-trunk/apps/EeePProg/linux/../BinFuncs.c ****  *I
  26:/home/hkh/git/eapidk-code-r76-trunk/apps/EeePProg/linux/../BinFuncs.c ****  *+=========================================================================
  27:/home/hkh/git/eapidk-code-r76-trunk/apps/EeePProg/linux/../BinFuncs.c ****  *</KHeader>
  28:/home/hkh/git/eapidk-code-r76-trunk/apps/EeePProg/linux/../BinFuncs.c ****  */
  29:/home/hkh/git/eapidk-code-r76-trunk/apps/EeePProg/linux/../BinFuncs.c **** 
  30:/home/hkh/git/eapidk-code-r76-trunk/apps/EeePProg/linux/../BinFuncs.c **** #include <EeePApp.h>
  31:/home/hkh/git/eapidk-code-r76-trunk/apps/EeePProg/linux/../BinFuncs.c **** 
ARM GAS  /tmp/cclMtiRJ.s 			page 2


  32:/home/hkh/git/eapidk-code-r76-trunk/apps/EeePProg/linux/../BinFuncs.c **** /*
  33:/home/hkh/git/eapidk-code-r76-trunk/apps/EeePProg/linux/../BinFuncs.c ****  *
  34:/home/hkh/git/eapidk-code-r76-trunk/apps/EeePProg/linux/../BinFuncs.c ****  *
  35:/home/hkh/git/eapidk-code-r76-trunk/apps/EeePProg/linux/../BinFuncs.c ****  *
  36:/home/hkh/git/eapidk-code-r76-trunk/apps/EeePProg/linux/../BinFuncs.c ****  *  Ckecksum
  37:/home/hkh/git/eapidk-code-r76-trunk/apps/EeePProg/linux/../BinFuncs.c ****  *
  38:/home/hkh/git/eapidk-code-r76-trunk/apps/EeePProg/linux/../BinFuncs.c ****  *
  39:/home/hkh/git/eapidk-code-r76-trunk/apps/EeePProg/linux/../BinFuncs.c ****  *
  40:/home/hkh/git/eapidk-code-r76-trunk/apps/EeePProg/linux/../BinFuncs.c ****  */
  41:/home/hkh/git/eapidk-code-r76-trunk/apps/EeePProg/linux/../BinFuncs.c **** uint32_t 
  42:/home/hkh/git/eapidk-code-r76-trunk/apps/EeePProg/linux/../BinFuncs.c **** u32ChecksumBlock(
  43:/home/hkh/git/eapidk-code-r76-trunk/apps/EeePProg/linux/../BinFuncs.c **** 	const void *pcvBuffer, 
  44:/home/hkh/git/eapidk-code-r76-trunk/apps/EeePProg/linux/../BinFuncs.c **** 	size_t  	  stLength
  45:/home/hkh/git/eapidk-code-r76-trunk/apps/EeePProg/linux/../BinFuncs.c **** 	)
  46:/home/hkh/git/eapidk-code-r76-trunk/apps/EeePProg/linux/../BinFuncs.c **** {
  28              		.loc 1 46 1
  29              		.cfi_startproc
  30              		@ args = 0, pretend = 0, frame = 16
  31              		@ frame_needed = 1, uses_anonymous_args = 0
  32              		@ link register save eliminated.
  33 0000 04B02DE5 		str	fp, [sp, #-4]!
  34              		.cfi_def_cfa_offset 4
  35              		.cfi_offset 11, -4
  36 0004 00B08DE2 		add	fp, sp, #0
  37              		.cfi_def_cfa_register 11
  38 0008 14D04DE2 		sub	sp, sp, #20
  39 000c 10000BE5 		str	r0, [fp, #-16]
  40 0010 14100BE5 		str	r1, [fp, #-20]
  47:/home/hkh/git/eapidk-code-r76-trunk/apps/EeePProg/linux/../BinFuncs.c ****   uint32_t ChkSum=0;
  41              		.loc 1 47 12
  42 0014 0030A0E3 		mov	r3, #0
  43 0018 08300BE5 		str	r3, [fp, #-8]
  48:/home/hkh/git/eapidk-code-r76-trunk/apps/EeePProg/linux/../BinFuncs.c ****   while(stLength--){
  44              		.loc 1 48 8
  45 001c 080000EA 		b	.L2
  46              	.L3:
  49:/home/hkh/git/eapidk-code-r76-trunk/apps/EeePProg/linux/../BinFuncs.c ****     ChkSum+=(uint32_t)(*((uint8_t*)pcvBuffer));
  47              		.loc 1 49 24
  48 0020 10301BE5 		ldr	r3, [fp, #-16]
  49 0024 0030D3E5 		ldrb	r3, [r3]	@ zero_extendqisi2
  50              		.loc 1 49 13
  51 0028 0320A0E1 		mov	r2, r3
  52              		.loc 1 49 11
  53 002c 08301BE5 		ldr	r3, [fp, #-8]
  54 0030 023083E0 		add	r3, r3, r2
  55 0034 08300BE5 		str	r3, [fp, #-8]
  50:/home/hkh/git/eapidk-code-r76-trunk/apps/EeePProg/linux/../BinFuncs.c ****     pcvBuffer=((uint8_t*)pcvBuffer)+1;
  56              		.loc 1 50 14
  57 0038 10301BE5 		ldr	r3, [fp, #-16]
  58 003c 013083E2 		add	r3, r3, #1
  59 0040 10300BE5 		str	r3, [fp, #-16]
  60              	.L2:
  48:/home/hkh/git/eapidk-code-r76-trunk/apps/EeePProg/linux/../BinFuncs.c ****   while(stLength--){
  61              		.loc 1 48 17
  62 0044 14301BE5 		ldr	r3, [fp, #-20]
  63 0048 012043E2 		sub	r2, r3, #1
  64 004c 14200BE5 		str	r2, [fp, #-20]
ARM GAS  /tmp/cclMtiRJ.s 			page 3


  48:/home/hkh/git/eapidk-code-r76-trunk/apps/EeePProg/linux/../BinFuncs.c ****   while(stLength--){
  65              		.loc 1 48 9
  66 0050 000053E3 		cmp	r3, #0
  67 0054 F1FFFF1A 		bne	.L3
  51:/home/hkh/git/eapidk-code-r76-trunk/apps/EeePProg/linux/../BinFuncs.c ****   }
  52:/home/hkh/git/eapidk-code-r76-trunk/apps/EeePProg/linux/../BinFuncs.c ****   return ChkSum;
  68              		.loc 1 52 10
  69 0058 08301BE5 		ldr	r3, [fp, #-8]
  53:/home/hkh/git/eapidk-code-r76-trunk/apps/EeePProg/linux/../BinFuncs.c **** }
  70              		.loc 1 53 1
  71 005c 0300A0E1 		mov	r0, r3
  72 0060 00D08BE2 		add	sp, fp, #0
  73              		.cfi_def_cfa_register 13
  74              		@ sp needed
  75 0064 04B09DE4 		ldr	fp, [sp], #4
  76              		.cfi_restore 11
  77              		.cfi_def_cfa_offset 0
  78 0068 1EFF2FE1 		bx	lr
  79              		.cfi_endproc
  80              	.LFE1:
  82              		.align	2
  83              		.global	u16ChecksumBlock
  84              		.syntax unified
  85              		.arm
  86              		.fpu vfpv3
  88              	u16ChecksumBlock:
  89              	.LFB2:
  54:/home/hkh/git/eapidk-code-r76-trunk/apps/EeePProg/linux/../BinFuncs.c **** uint16_t 
  55:/home/hkh/git/eapidk-code-r76-trunk/apps/EeePProg/linux/../BinFuncs.c **** u16ChecksumBlock(
  56:/home/hkh/git/eapidk-code-r76-trunk/apps/EeePProg/linux/../BinFuncs.c **** 	const void * pcvBuffer, 
  57:/home/hkh/git/eapidk-code-r76-trunk/apps/EeePProg/linux/../BinFuncs.c **** 	size_t   	   stLength
  58:/home/hkh/git/eapidk-code-r76-trunk/apps/EeePProg/linux/../BinFuncs.c **** 	)
  59:/home/hkh/git/eapidk-code-r76-trunk/apps/EeePProg/linux/../BinFuncs.c **** {
  90              		.loc 1 59 1
  91              		.cfi_startproc
  92              		@ args = 0, pretend = 0, frame = 8
  93              		@ frame_needed = 1, uses_anonymous_args = 0
  94 006c 00482DE9 		push	{fp, lr}
  95              		.cfi_def_cfa_offset 8
  96              		.cfi_offset 11, -8
  97              		.cfi_offset 14, -4
  98 0070 04B08DE2 		add	fp, sp, #4
  99              		.cfi_def_cfa 11, 4
 100 0074 08D04DE2 		sub	sp, sp, #8
 101 0078 08000BE5 		str	r0, [fp, #-8]
 102 007c 0C100BE5 		str	r1, [fp, #-12]
  60:/home/hkh/git/eapidk-code-r76-trunk/apps/EeePProg/linux/../BinFuncs.c ****   return EEEP_LO_UINT16(u32ChecksumBlock(pcvBuffer, stLength));
 103              		.loc 1 60 10
 104 0080 0C101BE5 		ldr	r1, [fp, #-12]
 105 0084 08001BE5 		ldr	r0, [fp, #-8]
 106 0088 FEFFFFEB 		bl	u32ChecksumBlock(PLT)
 107 008c 0030A0E1 		mov	r3, r0
 108 0090 7330FFE6 		uxth	r3, r3
  61:/home/hkh/git/eapidk-code-r76-trunk/apps/EeePProg/linux/../BinFuncs.c **** }
 109              		.loc 1 61 1
 110 0094 0300A0E1 		mov	r0, r3
 111 0098 04D04BE2 		sub	sp, fp, #4
ARM GAS  /tmp/cclMtiRJ.s 			page 4


 112              		.cfi_def_cfa 13, 8
 113              		@ sp needed
 114 009c 0088BDE8 		pop	{fp, pc}
 115              		.cfi_endproc
 116              	.LFE2:
 118              		.align	2
 119              		.global	u8ChecksumBlock
 120              		.syntax unified
 121              		.arm
 122              		.fpu vfpv3
 124              	u8ChecksumBlock:
 125              	.LFB3:
  62:/home/hkh/git/eapidk-code-r76-trunk/apps/EeePProg/linux/../BinFuncs.c **** uint8_t  
  63:/home/hkh/git/eapidk-code-r76-trunk/apps/EeePProg/linux/../BinFuncs.c **** u8ChecksumBlock (
  64:/home/hkh/git/eapidk-code-r76-trunk/apps/EeePProg/linux/../BinFuncs.c **** 	const void * pcvBuffer, 
  65:/home/hkh/git/eapidk-code-r76-trunk/apps/EeePProg/linux/../BinFuncs.c **** 	size_t   	   stLength
  66:/home/hkh/git/eapidk-code-r76-trunk/apps/EeePProg/linux/../BinFuncs.c **** 	)
  67:/home/hkh/git/eapidk-code-r76-trunk/apps/EeePProg/linux/../BinFuncs.c **** {
 126              		.loc 1 67 1
 127              		.cfi_startproc
 128              		@ args = 0, pretend = 0, frame = 8
 129              		@ frame_needed = 1, uses_anonymous_args = 0
 130 00a0 00482DE9 		push	{fp, lr}
 131              		.cfi_def_cfa_offset 8
 132              		.cfi_offset 11, -8
 133              		.cfi_offset 14, -4
 134 00a4 04B08DE2 		add	fp, sp, #4
 135              		.cfi_def_cfa 11, 4
 136 00a8 08D04DE2 		sub	sp, sp, #8
 137 00ac 08000BE5 		str	r0, [fp, #-8]
 138 00b0 0C100BE5 		str	r1, [fp, #-12]
  68:/home/hkh/git/eapidk-code-r76-trunk/apps/EeePProg/linux/../BinFuncs.c ****   return EEEP_LO_UINT8(u32ChecksumBlock(pcvBuffer, stLength));
 139              		.loc 1 68 10
 140 00b4 0C101BE5 		ldr	r1, [fp, #-12]
 141 00b8 08001BE5 		ldr	r0, [fp, #-8]
 142 00bc FEFFFFEB 		bl	u32ChecksumBlock(PLT)
 143 00c0 0030A0E1 		mov	r3, r0
 144 00c4 7330EFE6 		uxtb	r3, r3
  69:/home/hkh/git/eapidk-code-r76-trunk/apps/EeePProg/linux/../BinFuncs.c **** }
 145              		.loc 1 69 1
 146 00c8 0300A0E1 		mov	r0, r3
 147 00cc 04D04BE2 		sub	sp, fp, #4
 148              		.cfi_def_cfa 13, 8
 149              		@ sp needed
 150 00d0 0088BDE8 		pop	{fp, pc}
 151              		.cfi_endproc
 152              	.LFE3:
 154              		.section	.rodata
 155              		.align	2
 156              	.LC0:
 157 0000 75313643 		.ascii	"u16CRC_CCITT_init\000"
 157      52435F43 
 157      43495454 
 157      5F696E69 
 157      7400
 158 0012 0000     		.align	2
 159              	.LC1:
ARM GAS  /tmp/cclMtiRJ.s 			page 5


 160 0014 2F686F6D 		.ascii	"/home/hkh/git/eapidk-code-r76-trunk/apps/EeePProg/l"
 160      652F686B 
 160      682F6769 
 160      742F6561 
 160      7069646B 
 161 0047 696E7578 		.ascii	"inux/../BinFuncs.c\000"
 161      2F2E2E2F 
 161      42696E46 
 161      756E6373 
 161      2E6300
 162 005a 0000     		.align	2
 163              	.LC2:
 164 005c 2870436F 		.ascii	"(pContext==NULL)\000"
 164      6E746578 
 164      743D3D4E 
 164      554C4C29 
 164      00
 165 006d 000000   		.align	2
 166              	.LC3:
 167 0070 25730A00 		.ascii	"%s\012\000"
 168              		.align	2
 169              	.LC4:
 170 0074 28704352 		.ascii	"(pCRC==NULL)\000"
 170      433D3D4E 
 170      554C4C29 
 170      00
 171              		.text
 172              		.align	2
 173              		.global	u16CRC_CCITT_init
 174              		.syntax unified
 175              		.arm
 176              		.fpu vfpv3
 178              	u16CRC_CCITT_init:
 179              	.LFB4:
  70:/home/hkh/git/eapidk-code-r76-trunk/apps/EeePProg/linux/../BinFuncs.c **** 
  71:/home/hkh/git/eapidk-code-r76-trunk/apps/EeePProg/linux/../BinFuncs.c **** typedef struct CRC_State_s{
  72:/home/hkh/git/eapidk-code-r76-trunk/apps/EeePProg/linux/../BinFuncs.c ****   unsigned   CRC;
  73:/home/hkh/git/eapidk-code-r76-trunk/apps/EeePProg/linux/../BinFuncs.c ****   size_t     Cnt;
  74:/home/hkh/git/eapidk-code-r76-trunk/apps/EeePProg/linux/../BinFuncs.c **** }CRC_State_t;
  75:/home/hkh/git/eapidk-code-r76-trunk/apps/EeePProg/linux/../BinFuncs.c **** 
  76:/home/hkh/git/eapidk-code-r76-trunk/apps/EeePProg/linux/../BinFuncs.c **** EApiStatus_t
  77:/home/hkh/git/eapidk-code-r76-trunk/apps/EeePProg/linux/../BinFuncs.c **** u16CRC_CCITT_init (
  78:/home/hkh/git/eapidk-code-r76-trunk/apps/EeePProg/linux/../BinFuncs.c ****     void**pContext
  79:/home/hkh/git/eapidk-code-r76-trunk/apps/EeePProg/linux/../BinFuncs.c ****     )
  80:/home/hkh/git/eapidk-code-r76-trunk/apps/EeePProg/linux/../BinFuncs.c **** {
 180              		.loc 1 80 1
 181              		.cfi_startproc
 182              		@ args = 0, pretend = 0, frame = 16
 183              		@ frame_needed = 1, uses_anonymous_args = 0
 184 00d4 00482DE9 		push	{fp, lr}
 185              		.cfi_def_cfa_offset 8
 186              		.cfi_offset 11, -8
 187              		.cfi_offset 14, -4
 188 00d8 04B08DE2 		add	fp, sp, #4
 189              		.cfi_def_cfa 11, 4
 190 00dc 20D04DE2 		sub	sp, sp, #32
 191 00e0 10000BE5 		str	r0, [fp, #-16]
ARM GAS  /tmp/cclMtiRJ.s 			page 6


  81:/home/hkh/git/eapidk-code-r76-trunk/apps/EeePProg/linux/../BinFuncs.c ****   EApiStatus_t StatusCode=EAPI_STATUS_SUCCESS;
 192              		.loc 1 81 16
 193 00e4 0030A0E3 		mov	r3, #0
 194 00e8 0C300BE5 		str	r3, [fp, #-12]
  82:/home/hkh/git/eapidk-code-r76-trunk/apps/EeePProg/linux/../BinFuncs.c ****   CRC_State_t * pCRC;
  83:/home/hkh/git/eapidk-code-r76-trunk/apps/EeePProg/linux/../BinFuncs.c ****   EAPI_APP_ASSERT_PARAMATER_NULL(
 195              		.loc 1 83 3
 196 00ec 10301BE5 		ldr	r3, [fp, #-16]
 197 00f0 000053E3 		cmp	r3, #0
 198 00f4 1100001A 		bne	.L10
 199              		.loc 1 83 3 is_stmt 0 discriminator 1
 200 00f8 D8309FE5 		ldr	r3, .L14
 201              	.LPIC0:
 202 00fc 03308FE0 		add	r3, pc, r3
 203 0100 08308DE5 		str	r3, [sp, #8]
 204 0104 D0309FE5 		ldr	r3, .L14+4
 205              	.LPIC1:
 206 0108 03308FE0 		add	r3, pc, r3
 207 010c 04308DE5 		str	r3, [sp, #4]
 208 0110 013CE0E3 		mvn	r3, #256
 209 0114 00308DE5 		str	r3, [sp]
 210 0118 5330A0E3 		mov	r3, #83
 211 011c BC209FE5 		ldr	r2, .L14+8
 212              	.LPIC2:
 213 0120 02208FE0 		add	r2, pc, r2
 214 0124 B8109FE5 		ldr	r1, .L14+12
 215              	.LPIC3:
 216 0128 01108FE0 		add	r1, pc, r1
 217 012c 4500A0E3 		mov	r0, #69
 218 0130 FEFFFFEB 		bl	siFormattedMessage_SC(PLT)
 219 0134 013CE0E3 		mvn	r3, #256
 220 0138 0C300BE5 		str	r3, [fp, #-12]
 221 013c 210000EA 		b	.L11
 222              	.L10:
  84:/home/hkh/git/eapidk-code-r76-trunk/apps/EeePProg/linux/../BinFuncs.c ****       u16CRC_CCITT_init,
  85:/home/hkh/git/eapidk-code-r76-trunk/apps/EeePProg/linux/../BinFuncs.c ****       EAPI_STATUS_INVALID_PARAMETER,
  86:/home/hkh/git/eapidk-code-r76-trunk/apps/EeePProg/linux/../BinFuncs.c ****       pContext
  87:/home/hkh/git/eapidk-code-r76-trunk/apps/EeePProg/linux/../BinFuncs.c ****       );
  88:/home/hkh/git/eapidk-code-r76-trunk/apps/EeePProg/linux/../BinFuncs.c ****   *pContext=pCRC=malloc(sizeof(CRC_State_t));
 223              		.loc 1 88 18 is_stmt 1
 224 0140 0800A0E3 		mov	r0, #8
 225 0144 FEFFFFEB 		bl	malloc(PLT)
 226 0148 0030A0E1 		mov	r3, r0
 227 014c 08300BE5 		str	r3, [fp, #-8]
 228              		.loc 1 88 12
 229 0150 10301BE5 		ldr	r3, [fp, #-16]
 230 0154 08201BE5 		ldr	r2, [fp, #-8]
 231 0158 002083E5 		str	r2, [r3]
  89:/home/hkh/git/eapidk-code-r76-trunk/apps/EeePProg/linux/../BinFuncs.c ****   EAPI_APP_ASSERT_PARAMATER_NULL(
 232              		.loc 1 89 3
 233 015c 08301BE5 		ldr	r3, [fp, #-8]
 234 0160 000053E3 		cmp	r3, #0
 235 0164 1100001A 		bne	.L12
 236              		.loc 1 89 3 is_stmt 0 discriminator 1
 237 0168 78309FE5 		ldr	r3, .L14+16
 238              	.LPIC4:
 239 016c 03308FE0 		add	r3, pc, r3
ARM GAS  /tmp/cclMtiRJ.s 			page 7


 240 0170 08308DE5 		str	r3, [sp, #8]
 241 0174 70309FE5 		ldr	r3, .L14+20
 242              	.LPIC5:
 243 0178 03308FE0 		add	r3, pc, r3
 244 017c 04308DE5 		str	r3, [sp, #4]
 245 0180 0230E0E3 		mvn	r3, #2
 246 0184 00308DE5 		str	r3, [sp]
 247 0188 5930A0E3 		mov	r3, #89
 248 018c 5C209FE5 		ldr	r2, .L14+24
 249              	.LPIC6:
 250 0190 02208FE0 		add	r2, pc, r2
 251 0194 58109FE5 		ldr	r1, .L14+28
 252              	.LPIC7:
 253 0198 01108FE0 		add	r1, pc, r1
 254 019c 4500A0E3 		mov	r0, #69
 255 01a0 FEFFFFEB 		bl	siFormattedMessage_SC(PLT)
 256 01a4 0230E0E3 		mvn	r3, #2
 257 01a8 0C300BE5 		str	r3, [fp, #-12]
 258 01ac 050000EA 		b	.L11
 259              	.L12:
  90:/home/hkh/git/eapidk-code-r76-trunk/apps/EeePProg/linux/../BinFuncs.c ****       u16CRC_CCITT_init,
  91:/home/hkh/git/eapidk-code-r76-trunk/apps/EeePProg/linux/../BinFuncs.c ****       EAPI_STATUS_ALLOC_ERROR,
  92:/home/hkh/git/eapidk-code-r76-trunk/apps/EeePProg/linux/../BinFuncs.c ****       pCRC
  93:/home/hkh/git/eapidk-code-r76-trunk/apps/EeePProg/linux/../BinFuncs.c ****       );
  94:/home/hkh/git/eapidk-code-r76-trunk/apps/EeePProg/linux/../BinFuncs.c ****   pCRC->CRC=0;
 260              		.loc 1 94 12 is_stmt 1
 261 01b0 08301BE5 		ldr	r3, [fp, #-8]
 262 01b4 0020A0E3 		mov	r2, #0
 263 01b8 002083E5 		str	r2, [r3]
  95:/home/hkh/git/eapidk-code-r76-trunk/apps/EeePProg/linux/../BinFuncs.c ****   pCRC->Cnt=0;
 264              		.loc 1 95 12
 265 01bc 08301BE5 		ldr	r3, [fp, #-8]
 266 01c0 0020A0E3 		mov	r2, #0
 267 01c4 042083E5 		str	r2, [r3, #4]
 268              	.L11:
  96:/home/hkh/git/eapidk-code-r76-trunk/apps/EeePProg/linux/../BinFuncs.c **** 
  97:/home/hkh/git/eapidk-code-r76-trunk/apps/EeePProg/linux/../BinFuncs.c **** EAPI_APP_ASSERT_EXIT
  98:/home/hkh/git/eapidk-code-r76-trunk/apps/EeePProg/linux/../BinFuncs.c ****   return StatusCode;
 269              		.loc 1 98 10
 270 01c8 0C301BE5 		ldr	r3, [fp, #-12]
  99:/home/hkh/git/eapidk-code-r76-trunk/apps/EeePProg/linux/../BinFuncs.c **** }
 271              		.loc 1 99 1
 272 01cc 0300A0E1 		mov	r0, r3
 273 01d0 04D04BE2 		sub	sp, fp, #4
 274              		.cfi_def_cfa 13, 8
 275              		@ sp needed
 276 01d4 0088BDE8 		pop	{fp, pc}
 277              	.L15:
 278              		.align	2
 279              	.L14:
 280 01d8 30010000 		.word	.LC2-(.LPIC0+8)
 281 01dc 3C010000 		.word	.LC3-(.LPIC1+8)
 282 01e0 B8000000 		.word	.LC0-(.LPIC2+8)
 283 01e4 C8000000 		.word	.LC1-(.LPIC3+8)
 284 01e8 E8000000 		.word	.LC4-(.LPIC4+8)
 285 01ec DC000000 		.word	.LC3-(.LPIC5+8)
 286 01f0 58000000 		.word	.LC0-(.LPIC6+8)
ARM GAS  /tmp/cclMtiRJ.s 			page 8


 287 01f4 68000000 		.word	.LC1-(.LPIC7+8)
 288              		.cfi_endproc
 289              	.LFE4:
 291              		.section	.rodata
 292 0081 000000   		.align	2
 293              	.LC5:
 294 0084 75313643 		.ascii	"u16CRC_CCITT_bytes\000"
 294      52435F43 
 294      43495454 
 294      5F627974 
 294      657300
 295 0097 00       		.align	2
 296              	.LC6:
 297 0098 28706376 		.ascii	"(pcvBuffer==NULL)\000"
 297      42756666 
 297      65723D3D 
 297      4E554C4C 
 297      2900
 298              		.text
 299              		.align	2
 300              		.global	u16CRC_CCITT_bytes
 301              		.syntax unified
 302              		.arm
 303              		.fpu vfpv3
 305              	u16CRC_CCITT_bytes:
 306              	.LFB5:
 100:/home/hkh/git/eapidk-code-r76-trunk/apps/EeePProg/linux/../BinFuncs.c **** 
 101:/home/hkh/git/eapidk-code-r76-trunk/apps/EeePProg/linux/../BinFuncs.c **** /*
 102:/home/hkh/git/eapidk-code-r76-trunk/apps/EeePProg/linux/../BinFuncs.c ****  *
 103:/home/hkh/git/eapidk-code-r76-trunk/apps/EeePProg/linux/../BinFuncs.c ****  *
 104:/home/hkh/git/eapidk-code-r76-trunk/apps/EeePProg/linux/../BinFuncs.c ****  *
 105:/home/hkh/git/eapidk-code-r76-trunk/apps/EeePProg/linux/../BinFuncs.c ****  *  CRC_CCITT
 106:/home/hkh/git/eapidk-code-r76-trunk/apps/EeePProg/linux/../BinFuncs.c ****  *
 107:/home/hkh/git/eapidk-code-r76-trunk/apps/EeePProg/linux/../BinFuncs.c ****  *
 108:/home/hkh/git/eapidk-code-r76-trunk/apps/EeePProg/linux/../BinFuncs.c ****  *
 109:/home/hkh/git/eapidk-code-r76-trunk/apps/EeePProg/linux/../BinFuncs.c ****  */
 110:/home/hkh/git/eapidk-code-r76-trunk/apps/EeePProg/linux/../BinFuncs.c **** EApiStatus_t
 111:/home/hkh/git/eapidk-code-r76-trunk/apps/EeePProg/linux/../BinFuncs.c **** u16CRC_CCITT_bytes (
 112:/home/hkh/git/eapidk-code-r76-trunk/apps/EeePProg/linux/../BinFuncs.c ****     __IN       void *pContext , /* CRC Context       */
 113:/home/hkh/git/eapidk-code-r76-trunk/apps/EeePProg/linux/../BinFuncs.c ****     __IN const void *pcvBuffer, /* Pointer to Buffer */
 114:/home/hkh/git/eapidk-code-r76-trunk/apps/EeePProg/linux/../BinFuncs.c ****     __IN size_t      stCount    /* Num bytes to CRC */
 115:/home/hkh/git/eapidk-code-r76-trunk/apps/EeePProg/linux/../BinFuncs.c ****   )
 116:/home/hkh/git/eapidk-code-r76-trunk/apps/EeePProg/linux/../BinFuncs.c **** { 
 307              		.loc 1 116 1
 308              		.cfi_startproc
 309              		@ args = 0, pretend = 0, frame = 40
 310              		@ frame_needed = 1, uses_anonymous_args = 0
 311 01f8 00482DE9 		push	{fp, lr}
 312              		.cfi_def_cfa_offset 8
 313              		.cfi_offset 11, -8
 314              		.cfi_offset 14, -4
 315 01fc 04B08DE2 		add	fp, sp, #4
 316              		.cfi_def_cfa 11, 4
 317 0200 38D04DE2 		sub	sp, sp, #56
 318 0204 20000BE5 		str	r0, [fp, #-32]
 319 0208 24100BE5 		str	r1, [fp, #-36]
 320 020c 28200BE5 		str	r2, [fp, #-40]
ARM GAS  /tmp/cclMtiRJ.s 			page 9


 117:/home/hkh/git/eapidk-code-r76-trunk/apps/EeePProg/linux/../BinFuncs.c ****   EApiStatus_t StatusCode=EAPI_STATUS_SUCCESS;
 321              		.loc 1 117 16
 322 0210 0030A0E3 		mov	r3, #0
 323 0214 18300BE5 		str	r3, [fp, #-24]
 118:/home/hkh/git/eapidk-code-r76-trunk/apps/EeePProg/linux/../BinFuncs.c ****   const uint8_t *pcu8Buffer     =pcvBuffer; 
 324              		.loc 1 118 18
 325 0218 24301BE5 		ldr	r3, [fp, #-36]
 326 021c 14300BE5 		str	r3, [fp, #-20]
 119:/home/hkh/git/eapidk-code-r76-trunk/apps/EeePProg/linux/../BinFuncs.c ****   CRC_State_t   *pCRC           =pContext ;
 327              		.loc 1 119 18
 328 0220 20301BE5 		ldr	r3, [fp, #-32]
 329 0224 08300BE5 		str	r3, [fp, #-8]
 120:/home/hkh/git/eapidk-code-r76-trunk/apps/EeePProg/linux/../BinFuncs.c ****   unsigned       CRC            =pCRC->CRC;
 330              		.loc 1 120 18
 331 0228 08301BE5 		ldr	r3, [fp, #-8]
 332 022c 003093E5 		ldr	r3, [r3]
 333 0230 10300BE5 		str	r3, [fp, #-16]
 121:/home/hkh/git/eapidk-code-r76-trunk/apps/EeePProg/linux/../BinFuncs.c ****   unsigned       i; 
 122:/home/hkh/git/eapidk-code-r76-trunk/apps/EeePProg/linux/../BinFuncs.c ****   EAPI_APP_ASSERT_PARAMATER_NULL(
 334              		.loc 1 122 3
 335 0234 24301BE5 		ldr	r3, [fp, #-36]
 336 0238 000053E3 		cmp	r3, #0
 337 023c 1100001A 		bne	.L17
 338              		.loc 1 122 3 is_stmt 0 discriminator 1
 339 0240 10319FE5 		ldr	r3, .L26
 340              	.LPIC8:
 341 0244 03308FE0 		add	r3, pc, r3
 342 0248 08308DE5 		str	r3, [sp, #8]
 343 024c 08319FE5 		ldr	r3, .L26+4
 344              	.LPIC9:
 345 0250 03308FE0 		add	r3, pc, r3
 346 0254 04308DE5 		str	r3, [sp, #4]
 347 0258 013CE0E3 		mvn	r3, #256
 348 025c 00308DE5 		str	r3, [sp]
 349 0260 7A30A0E3 		mov	r3, #122
 350 0264 F4209FE5 		ldr	r2, .L26+8
 351              	.LPIC10:
 352 0268 02208FE0 		add	r2, pc, r2
 353 026c F0109FE5 		ldr	r1, .L26+12
 354              	.LPIC11:
 355 0270 01108FE0 		add	r1, pc, r1
 356 0274 4500A0E3 		mov	r0, #69
 357 0278 FEFFFFEB 		bl	siFormattedMessage_SC(PLT)
 358 027c 013CE0E3 		mvn	r3, #256
 359 0280 18300BE5 		str	r3, [fp, #-24]
 360 0284 2F0000EA 		b	.L18
 361              	.L17:
 123:/home/hkh/git/eapidk-code-r76-trunk/apps/EeePProg/linux/../BinFuncs.c ****       u16CRC_CCITT_bytes,
 124:/home/hkh/git/eapidk-code-r76-trunk/apps/EeePProg/linux/../BinFuncs.c ****       EAPI_STATUS_INVALID_PARAMETER,
 125:/home/hkh/git/eapidk-code-r76-trunk/apps/EeePProg/linux/../BinFuncs.c ****       pcvBuffer
 126:/home/hkh/git/eapidk-code-r76-trunk/apps/EeePProg/linux/../BinFuncs.c ****       );
 127:/home/hkh/git/eapidk-code-r76-trunk/apps/EeePProg/linux/../BinFuncs.c **** 
 128:/home/hkh/git/eapidk-code-r76-trunk/apps/EeePProg/linux/../BinFuncs.c **** 
 129:/home/hkh/git/eapidk-code-r76-trunk/apps/EeePProg/linux/../BinFuncs.c **** /*   printf("L%04i 0x%04X 0x%04lX\n", __LINE__, CRC&0xFFFF, (unsigned long)pCRC->Cnt); */
 130:/home/hkh/git/eapidk-code-r76-trunk/apps/EeePProg/linux/../BinFuncs.c **** /*   PrintHexAsciiTable(pcvBuffer, stCount, pcu8Buffer - pCRC->Cnt, NULL); */
 131:/home/hkh/git/eapidk-code-r76-trunk/apps/EeePProg/linux/../BinFuncs.c ****   pCRC->Cnt+=stCount;
 362              		.loc 1 131 12 is_stmt 1
ARM GAS  /tmp/cclMtiRJ.s 			page 10


 363 0288 08301BE5 		ldr	r3, [fp, #-8]
 364 028c 042093E5 		ldr	r2, [r3, #4]
 365 0290 28301BE5 		ldr	r3, [fp, #-40]
 366 0294 032082E0 		add	r2, r2, r3
 367 0298 08301BE5 		ldr	r3, [fp, #-8]
 368 029c 042083E5 		str	r2, [r3, #4]
 132:/home/hkh/git/eapidk-code-r76-trunk/apps/EeePProg/linux/../BinFuncs.c ****   while (stCount --) { 
 369              		.loc 1 132 9
 370 02a0 200000EA 		b	.L19
 371              	.L24:
 133:/home/hkh/git/eapidk-code-r76-trunk/apps/EeePProg/linux/../BinFuncs.c ****     CRC^= *pcu8Buffer++ << 8; 
 372              		.loc 1 133 22
 373 02a4 14301BE5 		ldr	r3, [fp, #-20]
 374 02a8 012083E2 		add	r2, r3, #1
 375 02ac 14200BE5 		str	r2, [fp, #-20]
 376              		.loc 1 133 11
 377 02b0 0030D3E5 		ldrb	r3, [r3]	@ zero_extendqisi2
 378              		.loc 1 133 25
 379 02b4 0334A0E1 		lsl	r3, r3, #8
 380 02b8 0320A0E1 		mov	r2, r3
 381              		.loc 1 133 8
 382 02bc 10301BE5 		ldr	r3, [fp, #-16]
 383 02c0 023023E0 		eor	r3, r3, r2
 384 02c4 10300BE5 		str	r3, [fp, #-16]
 134:/home/hkh/git/eapidk-code-r76-trunk/apps/EeePProg/linux/../BinFuncs.c ****     for (i = 8; i ; i --){ 
 385              		.loc 1 134 12
 386 02c8 0830A0E3 		mov	r3, #8
 387 02cc 0C300BE5 		str	r3, [fp, #-12]
 388              		.loc 1 134 5
 389 02d0 110000EA 		b	.L20
 390              	.L23:
 135:/home/hkh/git/eapidk-code-r76-trunk/apps/EeePProg/linux/../BinFuncs.c ****       if (CRC & 0x8000){ 
 391              		.loc 1 135 15
 392 02d4 10301BE5 		ldr	r3, [fp, #-16]
 393 02d8 023903E2 		and	r3, r3, #32768
 394              		.loc 1 135 10
 395 02dc 000053E3 		cmp	r3, #0
 396 02e0 0700000A 		beq	.L21
 136:/home/hkh/git/eapidk-code-r76-trunk/apps/EeePProg/linux/../BinFuncs.c ****         CRC+=CRC; 
 397              		.loc 1 136 12
 398 02e4 10301BE5 		ldr	r3, [fp, #-16]
 399 02e8 8330A0E1 		lsl	r3, r3, #1
 400 02ec 10300BE5 		str	r3, [fp, #-16]
 137:/home/hkh/git/eapidk-code-r76-trunk/apps/EeePProg/linux/../BinFuncs.c ****         CRC^=0x1021; 
 401              		.loc 1 137 12
 402 02f0 10301BE5 		ldr	r3, [fp, #-16]
 403 02f4 013A23E2 		eor	r3, r3, #4096
 404 02f8 213023E2 		eor	r3, r3, #33
 405 02fc 10300BE5 		str	r3, [fp, #-16]
 406 0300 020000EA 		b	.L22
 407              	.L21:
 138:/home/hkh/git/eapidk-code-r76-trunk/apps/EeePProg/linux/../BinFuncs.c ****       }else{ 
 139:/home/hkh/git/eapidk-code-r76-trunk/apps/EeePProg/linux/../BinFuncs.c ****         CRC+=CRC; 
 408              		.loc 1 139 12
 409 0304 10301BE5 		ldr	r3, [fp, #-16]
 410 0308 8330A0E1 		lsl	r3, r3, #1
 411 030c 10300BE5 		str	r3, [fp, #-16]
ARM GAS  /tmp/cclMtiRJ.s 			page 11


 412              	.L22:
 134:/home/hkh/git/eapidk-code-r76-trunk/apps/EeePProg/linux/../BinFuncs.c ****       if (CRC & 0x8000){ 
 413              		.loc 1 134 23 discriminator 2
 414 0310 0C301BE5 		ldr	r3, [fp, #-12]
 415 0314 013043E2 		sub	r3, r3, #1
 416 0318 0C300BE5 		str	r3, [fp, #-12]
 417              	.L20:
 134:/home/hkh/git/eapidk-code-r76-trunk/apps/EeePProg/linux/../BinFuncs.c ****       if (CRC & 0x8000){ 
 418              		.loc 1 134 17 discriminator 1
 419 031c 0C301BE5 		ldr	r3, [fp, #-12]
 420 0320 000053E3 		cmp	r3, #0
 421 0324 EAFFFF1A 		bne	.L23
 422              	.L19:
 132:/home/hkh/git/eapidk-code-r76-trunk/apps/EeePProg/linux/../BinFuncs.c ****     CRC^= *pcu8Buffer++ << 8; 
 423              		.loc 1 132 18
 424 0328 28301BE5 		ldr	r3, [fp, #-40]
 425 032c 012043E2 		sub	r2, r3, #1
 426 0330 28200BE5 		str	r2, [fp, #-40]
 132:/home/hkh/git/eapidk-code-r76-trunk/apps/EeePProg/linux/../BinFuncs.c ****     CRC^= *pcu8Buffer++ << 8; 
 427              		.loc 1 132 10
 428 0334 000053E3 		cmp	r3, #0
 429 0338 D9FFFF1A 		bne	.L24
 140:/home/hkh/git/eapidk-code-r76-trunk/apps/EeePProg/linux/../BinFuncs.c ****       }
 141:/home/hkh/git/eapidk-code-r76-trunk/apps/EeePProg/linux/../BinFuncs.c ****     }
 142:/home/hkh/git/eapidk-code-r76-trunk/apps/EeePProg/linux/../BinFuncs.c ****   }
 143:/home/hkh/git/eapidk-code-r76-trunk/apps/EeePProg/linux/../BinFuncs.c ****   pCRC->CRC=CRC;
 430              		.loc 1 143 12
 431 033c 08301BE5 		ldr	r3, [fp, #-8]
 432 0340 10201BE5 		ldr	r2, [fp, #-16]
 433 0344 002083E5 		str	r2, [r3]
 434              	.L18:
 144:/home/hkh/git/eapidk-code-r76-trunk/apps/EeePProg/linux/../BinFuncs.c **** 
 145:/home/hkh/git/eapidk-code-r76-trunk/apps/EeePProg/linux/../BinFuncs.c **** EAPI_APP_ASSERT_EXIT
 146:/home/hkh/git/eapidk-code-r76-trunk/apps/EeePProg/linux/../BinFuncs.c ****   return StatusCode;
 435              		.loc 1 146 10
 436 0348 18301BE5 		ldr	r3, [fp, #-24]
 147:/home/hkh/git/eapidk-code-r76-trunk/apps/EeePProg/linux/../BinFuncs.c **** }
 437              		.loc 1 147 1
 438 034c 0300A0E1 		mov	r0, r3
 439 0350 04D04BE2 		sub	sp, fp, #4
 440              		.cfi_def_cfa 13, 8
 441              		@ sp needed
 442 0354 0088BDE8 		pop	{fp, pc}
 443              	.L27:
 444              		.align	2
 445              	.L26:
 446 0358 A4010000 		.word	.LC6-(.LPIC8+8)
 447 035c 74010000 		.word	.LC3-(.LPIC9+8)
 448 0360 74010000 		.word	.LC5-(.LPIC10+8)
 449 0364 00010000 		.word	.LC1-(.LPIC11+8)
 450              		.cfi_endproc
 451              	.LFE5:
 453              		.section	.rodata
 454 00aa 0000     		.align	2
 455              	.LC7:
 456 00ac 75313643 		.ascii	"u16CRC_CCITT_fini\000"
 456      52435F43 
ARM GAS  /tmp/cclMtiRJ.s 			page 12


 456      43495454 
 456      5F66696E 
 456      6900
 457 00be 0000     		.align	2
 458              	.LC8:
 459 00c0 28707644 		.ascii	"(pvDigest==NULL)\000"
 459      69676573 
 459      743D3D4E 
 459      554C4C29 
 459      00
 460              		.text
 461              		.align	2
 462              		.global	u16CRC_CCITT_fini
 463              		.syntax unified
 464              		.arm
 465              		.fpu vfpv3
 467              	u16CRC_CCITT_fini:
 468              	.LFB6:
 148:/home/hkh/git/eapidk-code-r76-trunk/apps/EeePProg/linux/../BinFuncs.c **** EApiStatus_t
 149:/home/hkh/git/eapidk-code-r76-trunk/apps/EeePProg/linux/../BinFuncs.c **** u16CRC_CCITT_fini  (
 150:/home/hkh/git/eapidk-code-r76-trunk/apps/EeePProg/linux/../BinFuncs.c ****     __IN      void **pContext,  /* CRC Context       */
 151:/home/hkh/git/eapidk-code-r76-trunk/apps/EeePProg/linux/../BinFuncs.c ****     __OUT     void  *pvDigest   /* Pointer to Buffer */
 152:/home/hkh/git/eapidk-code-r76-trunk/apps/EeePProg/linux/../BinFuncs.c ****   )
 153:/home/hkh/git/eapidk-code-r76-trunk/apps/EeePProg/linux/../BinFuncs.c **** {
 469              		.loc 1 153 1
 470              		.cfi_startproc
 471              		@ args = 0, pretend = 0, frame = 24
 472              		@ frame_needed = 1, uses_anonymous_args = 0
 473 0368 00482DE9 		push	{fp, lr}
 474              		.cfi_def_cfa_offset 8
 475              		.cfi_offset 11, -8
 476              		.cfi_offset 14, -4
 477 036c 04B08DE2 		add	fp, sp, #4
 478              		.cfi_def_cfa 11, 4
 479 0370 28D04DE2 		sub	sp, sp, #40
 480 0374 18000BE5 		str	r0, [fp, #-24]
 481 0378 1C100BE5 		str	r1, [fp, #-28]
 154:/home/hkh/git/eapidk-code-r76-trunk/apps/EeePProg/linux/../BinFuncs.c ****   EApiStatus_t StatusCode=EAPI_STATUS_SUCCESS;
 482              		.loc 1 154 16
 483 037c 0030A0E3 		mov	r3, #0
 484 0380 10300BE5 		str	r3, [fp, #-16]
 155:/home/hkh/git/eapidk-code-r76-trunk/apps/EeePProg/linux/../BinFuncs.c ****   CRC_State_t * pCRC=*pContext;
 485              		.loc 1 155 17
 486 0384 18301BE5 		ldr	r3, [fp, #-24]
 487 0388 003093E5 		ldr	r3, [r3]
 488 038c 0C300BE5 		str	r3, [fp, #-12]
 156:/home/hkh/git/eapidk-code-r76-trunk/apps/EeePProg/linux/../BinFuncs.c ****   unsigned      CRC=pCRC->CRC;
 489              		.loc 1 156 17
 490 0390 0C301BE5 		ldr	r3, [fp, #-12]
 491 0394 003093E5 		ldr	r3, [r3]
 492 0398 08300BE5 		str	r3, [fp, #-8]
 157:/home/hkh/git/eapidk-code-r76-trunk/apps/EeePProg/linux/../BinFuncs.c ****   EAPI_APP_ASSERT_PARAMATER_NULL(
 493              		.loc 1 157 3
 494 039c 1C301BE5 		ldr	r3, [fp, #-28]
 495 03a0 000053E3 		cmp	r3, #0
 496 03a4 1100001A 		bne	.L29
 497              		.loc 1 157 3 is_stmt 0 discriminator 1
ARM GAS  /tmp/cclMtiRJ.s 			page 13


 498 03a8 80309FE5 		ldr	r3, .L32
 499              	.LPIC12:
 500 03ac 03308FE0 		add	r3, pc, r3
 501 03b0 08308DE5 		str	r3, [sp, #8]
 502 03b4 78309FE5 		ldr	r3, .L32+4
 503              	.LPIC13:
 504 03b8 03308FE0 		add	r3, pc, r3
 505 03bc 04308DE5 		str	r3, [sp, #4]
 506 03c0 013CE0E3 		mvn	r3, #256
 507 03c4 00308DE5 		str	r3, [sp]
 508 03c8 9D30A0E3 		mov	r3, #157
 509 03cc 64209FE5 		ldr	r2, .L32+8
 510              	.LPIC14:
 511 03d0 02208FE0 		add	r2, pc, r2
 512 03d4 60109FE5 		ldr	r1, .L32+12
 513              	.LPIC15:
 514 03d8 01108FE0 		add	r1, pc, r1
 515 03dc 4500A0E3 		mov	r0, #69
 516 03e0 FEFFFFEB 		bl	siFormattedMessage_SC(PLT)
 517 03e4 013CE0E3 		mvn	r3, #256
 518 03e8 10300BE5 		str	r3, [fp, #-16]
 519 03ec 0B0000EA 		b	.L30
 520              	.L29:
 158:/home/hkh/git/eapidk-code-r76-trunk/apps/EeePProg/linux/../BinFuncs.c ****       u16CRC_CCITT_fini,
 159:/home/hkh/git/eapidk-code-r76-trunk/apps/EeePProg/linux/../BinFuncs.c ****       EAPI_STATUS_INVALID_PARAMETER,
 160:/home/hkh/git/eapidk-code-r76-trunk/apps/EeePProg/linux/../BinFuncs.c ****       pvDigest
 161:/home/hkh/git/eapidk-code-r76-trunk/apps/EeePProg/linux/../BinFuncs.c ****       );
 162:/home/hkh/git/eapidk-code-r76-trunk/apps/EeePProg/linux/../BinFuncs.c **** /*   printf("L%04i 0x%04X 0x%04lX\n", __LINE__, pCRC->CRC&0xFFFF, (unsigned long)pCRC->Cnt); */
 163:/home/hkh/git/eapidk-code-r76-trunk/apps/EeePProg/linux/../BinFuncs.c ****   free(*pContext);
 521              		.loc 1 163 3 is_stmt 1
 522 03f0 18301BE5 		ldr	r3, [fp, #-24]
 523 03f4 003093E5 		ldr	r3, [r3]
 524 03f8 0300A0E1 		mov	r0, r3
 525 03fc FEFFFFEB 		bl	free(PLT)
 164:/home/hkh/git/eapidk-code-r76-trunk/apps/EeePProg/linux/../BinFuncs.c ****   *pContext=NULL;
 526              		.loc 1 164 12
 527 0400 18301BE5 		ldr	r3, [fp, #-24]
 528 0404 0020A0E3 		mov	r2, #0
 529 0408 002083E5 		str	r2, [r3]
 165:/home/hkh/git/eapidk-code-r76-trunk/apps/EeePProg/linux/../BinFuncs.c **** 
 166:/home/hkh/git/eapidk-code-r76-trunk/apps/EeePProg/linux/../BinFuncs.c ****   EeeP_Set16BitValue_BE(pvDigest, EEEP_LO_UINT16(CRC));
 530              		.loc 1 166 3
 531 040c 08301BE5 		ldr	r3, [fp, #-8]
 532 0410 7330FFE6 		uxth	r3, r3
 533 0414 0310A0E1 		mov	r1, r3
 534 0418 1C001BE5 		ldr	r0, [fp, #-28]
 535 041c FEFFFFEB 		bl	EeeP_Set16BitValue_BE(PLT)
 536              	.L30:
 167:/home/hkh/git/eapidk-code-r76-trunk/apps/EeePProg/linux/../BinFuncs.c **** EAPI_APP_ASSERT_EXIT
 168:/home/hkh/git/eapidk-code-r76-trunk/apps/EeePProg/linux/../BinFuncs.c ****   return StatusCode;
 537              		.loc 1 168 10
 538 0420 10301BE5 		ldr	r3, [fp, #-16]
 169:/home/hkh/git/eapidk-code-r76-trunk/apps/EeePProg/linux/../BinFuncs.c **** }
 539              		.loc 1 169 1
 540 0424 0300A0E1 		mov	r0, r3
 541 0428 04D04BE2 		sub	sp, fp, #4
 542              		.cfi_def_cfa 13, 8
ARM GAS  /tmp/cclMtiRJ.s 			page 14


 543              		@ sp needed
 544 042c 0088BDE8 		pop	{fp, pc}
 545              	.L33:
 546              		.align	2
 547              	.L32:
 548 0430 3C010000 		.word	.LC8-(.LPIC12+8)
 549 0434 E4000000 		.word	.LC3-(.LPIC13+8)
 550 0438 0C010000 		.word	.LC7-(.LPIC14+8)
 551 043c 70000000 		.word	.LC1-(.LPIC15+8)
 552              		.cfi_endproc
 553              	.LFE6:
 555              		.section	.rodata
 556 00d1 000000   		.align	2
 557              	.LC9:
 558 00d4 54422000 		.ascii	"TB \000"
 559              		.align	2
 560              	.LC10:
 561 00d8 75313643 		.ascii	"u16CRC_CCITT_fini(pContext, Digest)\000"
 561      52435F43 
 561      43495454 
 561      5F66696E 
 561      69287043 
 562              		.align	2
 563              	.LC11:
 564 00fc 75313643 		.ascii	"u16CRC_CCITT_verify\000"
 564      52435F43 
 564      43495454 
 564      5F766572 
 564      69667900 
 565              		.align	2
 566              	.LC12:
 567 0110 496E7661 		.ascii	"Invalid CRC CCITT\000"
 567      6C696420 
 567      43524320 
 567      43434954 
 567      5400
 568              		.text
 569              		.align	2
 570              		.global	u16CRC_CCITT_verify
 571              		.syntax unified
 572              		.arm
 573              		.fpu vfpv3
 575              	u16CRC_CCITT_verify:
 576              	.LFB7:
 170:/home/hkh/git/eapidk-code-r76-trunk/apps/EeePProg/linux/../BinFuncs.c **** EApiStatus_t
 171:/home/hkh/git/eapidk-code-r76-trunk/apps/EeePProg/linux/../BinFuncs.c **** u16CRC_CCITT_verify  (
 172:/home/hkh/git/eapidk-code-r76-trunk/apps/EeePProg/linux/../BinFuncs.c ****     __IN       void**pContext,  /* CRC Context       */
 173:/home/hkh/git/eapidk-code-r76-trunk/apps/EeePProg/linux/../BinFuncs.c ****     __OUT      void *pvDigest   /* Pointer to Buffer */
 174:/home/hkh/git/eapidk-code-r76-trunk/apps/EeePProg/linux/../BinFuncs.c ****   )
 175:/home/hkh/git/eapidk-code-r76-trunk/apps/EeePProg/linux/../BinFuncs.c **** {
 577              		.loc 1 175 1
 578              		.cfi_startproc
 579              		@ args = 0, pretend = 0, frame = 24
 580              		@ frame_needed = 1, uses_anonymous_args = 0
 581 0440 00482DE9 		push	{fp, lr}
 582              		.cfi_def_cfa_offset 8
 583              		.cfi_offset 11, -8
ARM GAS  /tmp/cclMtiRJ.s 			page 15


 584              		.cfi_offset 14, -4
 585 0444 04B08DE2 		add	fp, sp, #4
 586              		.cfi_def_cfa 11, 4
 587 0448 28D04DE2 		sub	sp, sp, #40
 588 044c 18000BE5 		str	r0, [fp, #-24]
 589 0450 1C100BE5 		str	r1, [fp, #-28]
 590              		.loc 1 175 1
 591 0454 20219FE5 		ldr	r2, .L40
 592              	.LPIC24:
 593 0458 02208FE0 		add	r2, pc, r2
 594 045c 1C319FE5 		ldr	r3, .L40+4
 595 0460 033092E7 		ldr	r3, [r2, r3]
 596 0464 003093E5 		ldr	r3, [r3]
 597 0468 08300BE5 		str	r3, [fp, #-8]
 598 046c 0030A0E3 		mov	r3, #0
 176:/home/hkh/git/eapidk-code-r76-trunk/apps/EeePProg/linux/../BinFuncs.c ****   EApiStatus_t StatusCode=EAPI_STATUS_SUCCESS;
 599              		.loc 1 176 16
 600 0470 0030A0E3 		mov	r3, #0
 601 0474 10300BE5 		str	r3, [fp, #-16]
 177:/home/hkh/git/eapidk-code-r76-trunk/apps/EeePProg/linux/../BinFuncs.c ****   uint8_t Digest[2];
 178:/home/hkh/git/eapidk-code-r76-trunk/apps/EeePProg/linux/../BinFuncs.c **** 
 179:/home/hkh/git/eapidk-code-r76-trunk/apps/EeePProg/linux/../BinFuncs.c ****   DO(u16CRC_CCITT_fini(pContext, Digest));
 602              		.loc 1 179 3
 603 0478 0C304BE2 		sub	r3, fp, #12
 604 047c 0310A0E1 		mov	r1, r3
 605 0480 18001BE5 		ldr	r0, [fp, #-24]
 606 0484 FEFFFFEB 		bl	u16CRC_CCITT_fini(PLT)
 607 0488 10000BE5 		str	r0, [fp, #-16]
 608 048c 10301BE5 		ldr	r3, [fp, #-16]
 609 0490 000053E3 		cmp	r3, #0
 610 0494 0F00000A 		beq	.L35
 611              		.loc 1 179 3 is_stmt 0 discriminator 1
 612 0498 E4309FE5 		ldr	r3, .L40+8
 613              	.LPIC16:
 614 049c 03308FE0 		add	r3, pc, r3
 615 04a0 08308DE5 		str	r3, [sp, #8]
 616 04a4 DC309FE5 		ldr	r3, .L40+12
 617              	.LPIC17:
 618 04a8 03308FE0 		add	r3, pc, r3
 619 04ac 04308DE5 		str	r3, [sp, #4]
 620 04b0 10301BE5 		ldr	r3, [fp, #-16]
 621 04b4 00308DE5 		str	r3, [sp]
 622 04b8 B330A0E3 		mov	r3, #179
 623 04bc C8209FE5 		ldr	r2, .L40+16
 624              	.LPIC18:
 625 04c0 02208FE0 		add	r2, pc, r2
 626 04c4 C4109FE5 		ldr	r1, .L40+20
 627              	.LPIC19:
 628 04c8 01108FE0 		add	r1, pc, r1
 629 04cc 4500A0E3 		mov	r0, #69
 630 04d0 FEFFFFEB 		bl	siFormattedMessage_SC(PLT)
 631 04d4 1A0000EA 		b	.L36
 632              	.L35:
 180:/home/hkh/git/eapidk-code-r76-trunk/apps/EeePProg/linux/../BinFuncs.c **** 
 181:/home/hkh/git/eapidk-code-r76-trunk/apps/EeePProg/linux/../BinFuncs.c ****   EAPI_APP_RETURN_ERROR_IF(
 633              		.loc 1 181 3 is_stmt 1
 634 04d8 0C304BE2 		sub	r3, fp, #12
ARM GAS  /tmp/cclMtiRJ.s 			page 16


 635 04dc 0220A0E3 		mov	r2, #2
 636 04e0 1C101BE5 		ldr	r1, [fp, #-28]
 637 04e4 0300A0E1 		mov	r0, r3
 638 04e8 FEFFFFEB 		bl	memcmp(PLT)
 639 04ec 0030A0E1 		mov	r3, r0
 640 04f0 000053E3 		cmp	r3, #0
 641 04f4 1100000A 		beq	.L39
 642              		.loc 1 181 3 is_stmt 0 discriminator 1
 643 04f8 94309FE5 		ldr	r3, .L40+24
 644              	.LPIC20:
 645 04fc 03308FE0 		add	r3, pc, r3
 646 0500 08308DE5 		str	r3, [sp, #8]
 647 0504 8C309FE5 		ldr	r3, .L40+28
 648              	.LPIC21:
 649 0508 03308FE0 		add	r3, pc, r3
 650 050c 04308DE5 		str	r3, [sp, #4]
 651 0510 0F3CE0E3 		mvn	r3, #3840
 652 0514 00308DE5 		str	r3, [sp]
 653 0518 B530A0E3 		mov	r3, #181
 654 051c 78209FE5 		ldr	r2, .L40+32
 655              	.LPIC22:
 656 0520 02208FE0 		add	r2, pc, r2
 657 0524 74109FE5 		ldr	r1, .L40+36
 658              	.LPIC23:
 659 0528 01108FE0 		add	r1, pc, r1
 660 052c 4500A0E3 		mov	r0, #69
 661 0530 FEFFFFEB 		bl	siFormattedMessage_SC(PLT)
 662 0534 0F3CE0E3 		mvn	r3, #3840
 663 0538 10300BE5 		str	r3, [fp, #-16]
 664 053c 000000EA 		b	.L36
 665              	.L39:
 182:/home/hkh/git/eapidk-code-r76-trunk/apps/EeePProg/linux/../BinFuncs.c ****       u16CRC_CCITT_verify,
 183:/home/hkh/git/eapidk-code-r76-trunk/apps/EeePProg/linux/../BinFuncs.c ****       memcmp(Digest, pvDigest, sizeof(Digest)),
 184:/home/hkh/git/eapidk-code-r76-trunk/apps/EeePProg/linux/../BinFuncs.c ****       EAPI_STATUS_ERROR,
 185:/home/hkh/git/eapidk-code-r76-trunk/apps/EeePProg/linux/../BinFuncs.c ****       "Invalid CRC CCITT"
 186:/home/hkh/git/eapidk-code-r76-trunk/apps/EeePProg/linux/../BinFuncs.c ****       );
 187:/home/hkh/git/eapidk-code-r76-trunk/apps/EeePProg/linux/../BinFuncs.c **** 
 188:/home/hkh/git/eapidk-code-r76-trunk/apps/EeePProg/linux/../BinFuncs.c **** EAPI_APP_ASSERT_EXIT
 666              		.loc 1 188 1 is_stmt 1
 667 0540 00F020E3 		nop
 668              	.L36:
 189:/home/hkh/git/eapidk-code-r76-trunk/apps/EeePProg/linux/../BinFuncs.c ****   return StatusCode;
 669              		.loc 1 189 10
 670 0544 10301BE5 		ldr	r3, [fp, #-16]
 175:/home/hkh/git/eapidk-code-r76-trunk/apps/EeePProg/linux/../BinFuncs.c ****   EApiStatus_t StatusCode=EAPI_STATUS_SUCCESS;
 671              		.loc 1 175 1
 672 0548 54109FE5 		ldr	r1, .L40+40
 673              	.LPIC25:
 674 054c 01108FE0 		add	r1, pc, r1
 190:/home/hkh/git/eapidk-code-r76-trunk/apps/EeePProg/linux/../BinFuncs.c **** }
 675              		.loc 1 190 1
 676 0550 28209FE5 		ldr	r2, .L40+4
 677 0554 022091E7 		ldr	r2, [r1, r2]
 678 0558 001092E5 		ldr	r1, [r2]
 679 055c 08201BE5 		ldr	r2, [fp, #-8]
 680 0560 011032E0 		eors	r1, r2, r1
 681 0564 0020A0E3 		mov	r2, #0
ARM GAS  /tmp/cclMtiRJ.s 			page 17


 682 0568 0000000A 		beq	.L38
 683 056c FEFFFFEB 		bl	__stack_chk_fail(PLT)
 684              	.L38:
 685 0570 0300A0E1 		mov	r0, r3
 686 0574 04D04BE2 		sub	sp, fp, #4
 687              		.cfi_def_cfa 13, 8
 688              		@ sp needed
 689 0578 0088BDE8 		pop	{fp, pc}
 690              	.L41:
 691              		.align	2
 692              	.L40:
 693 057c 1C010000 		.word	_GLOBAL_OFFSET_TABLE_-(.LPIC24+8)
 694 0580 00000000 		.word	__stack_chk_guard(GOT)
 695 0584 B8010000 		.word	.LC10-(.LPIC16+8)
 696 0588 48010000 		.word	.LC3-(.LPIC17+8)
 697 058c 98010000 		.word	.LC9-(.LPIC18+8)
 698 0590 D4000000 		.word	.LC1-(.LPIC19+8)
 699 0594 A0010000 		.word	.LC12-(.LPIC20+8)
 700 0598 F8000000 		.word	.LC3-(.LPIC21+8)
 701 059c 70010000 		.word	.LC11-(.LPIC22+8)
 702 05a0 84000000 		.word	.LC1-(.LPIC23+8)
 703 05a4 50000000 		.word	_GLOBAL_OFFSET_TABLE_-(.LPIC25+8)
 704              		.cfi_endproc
 705              	.LFE7:
 707              		.section	.rodata
 708 0122 0000     		.align	2
 709              	.LC13:
 710 0124 75313643 		.ascii	"u16CRC_CCITT_init(&pContext)\000"
 710      52435F43 
 710      43495454 
 710      5F696E69 
 710      74282670 
 711 0141 000000   		.align	2
 712              	.LC14:
 713 0144 75313643 		.ascii	"u16CRC_CCITT_bytes(pContext, pcvBuffer, stCount)\000"
 713      52435F43 
 713      43495454 
 713      5F627974 
 713      65732870 
 714 0175 000000   		.align	2
 715              	.LC15:
 716 0178 75313643 		.ascii	"u16CRC_CCITT_fini(&pContext, pvDigest)\000"
 716      52435F43 
 716      43495454 
 716      5F66696E 
 716      69282670 
 717              		.text
 718              		.align	2
 719              		.global	u16CRC_CCITT
 720              		.syntax unified
 721              		.arm
 722              		.fpu vfpv3
 724              	u16CRC_CCITT:
 725              	.LFB8:
 191:/home/hkh/git/eapidk-code-r76-trunk/apps/EeePProg/linux/../BinFuncs.c **** 
 192:/home/hkh/git/eapidk-code-r76-trunk/apps/EeePProg/linux/../BinFuncs.c **** EApiStatus_t
 193:/home/hkh/git/eapidk-code-r76-trunk/apps/EeePProg/linux/../BinFuncs.c **** u16CRC_CCITT (
ARM GAS  /tmp/cclMtiRJ.s 			page 18


 194:/home/hkh/git/eapidk-code-r76-trunk/apps/EeePProg/linux/../BinFuncs.c ****     __IN const void    *pcvBuffer, /* Pointer to Buffer */
 195:/home/hkh/git/eapidk-code-r76-trunk/apps/EeePProg/linux/../BinFuncs.c ****     __IN       size_t   stCount  , /* Num bytes to CRC  */
 196:/home/hkh/git/eapidk-code-r76-trunk/apps/EeePProg/linux/../BinFuncs.c ****     __OUT      void    *pvDigest   /* Pointer to Buffer */
 197:/home/hkh/git/eapidk-code-r76-trunk/apps/EeePProg/linux/../BinFuncs.c ****   )
 198:/home/hkh/git/eapidk-code-r76-trunk/apps/EeePProg/linux/../BinFuncs.c **** { 
 726              		.loc 1 198 1
 727              		.cfi_startproc
 728              		@ args = 0, pretend = 0, frame = 32
 729              		@ frame_needed = 1, uses_anonymous_args = 0
 730 05a8 00482DE9 		push	{fp, lr}
 731              		.cfi_def_cfa_offset 8
 732              		.cfi_offset 11, -8
 733              		.cfi_offset 14, -4
 734 05ac 04B08DE2 		add	fp, sp, #4
 735              		.cfi_def_cfa 11, 4
 736 05b0 30D04DE2 		sub	sp, sp, #48
 737 05b4 18000BE5 		str	r0, [fp, #-24]
 738 05b8 1C100BE5 		str	r1, [fp, #-28]
 739 05bc 20200BE5 		str	r2, [fp, #-32]
 740              		.loc 1 198 1
 741 05c0 78219FE5 		ldr	r2, .L49
 742              	.LPIC38:
 743 05c4 02208FE0 		add	r2, pc, r2
 744 05c8 74319FE5 		ldr	r3, .L49+4
 745 05cc 033092E7 		ldr	r3, [r2, r3]
 746 05d0 003093E5 		ldr	r3, [r3]
 747 05d4 08300BE5 		str	r3, [fp, #-8]
 748 05d8 0030A0E3 		mov	r3, #0
 199:/home/hkh/git/eapidk-code-r76-trunk/apps/EeePProg/linux/../BinFuncs.c ****   EApiStatus_t StatusCode=EAPI_STATUS_SUCCESS;
 749              		.loc 1 199 16
 750 05dc 0030A0E3 		mov	r3, #0
 751 05e0 0C300BE5 		str	r3, [fp, #-12]
 200:/home/hkh/git/eapidk-code-r76-trunk/apps/EeePProg/linux/../BinFuncs.c ****   void * pContext;
 201:/home/hkh/git/eapidk-code-r76-trunk/apps/EeePProg/linux/../BinFuncs.c ****   DO(u16CRC_CCITT_init(&pContext));
 752              		.loc 1 201 3
 753 05e4 10304BE2 		sub	r3, fp, #16
 754 05e8 0300A0E1 		mov	r0, r3
 755 05ec FEFFFFEB 		bl	u16CRC_CCITT_init(PLT)
 756 05f0 0C000BE5 		str	r0, [fp, #-12]
 757 05f4 0C301BE5 		ldr	r3, [fp, #-12]
 758 05f8 000053E3 		cmp	r3, #0
 759 05fc 0F00000A 		beq	.L43
 760              		.loc 1 201 3 is_stmt 0 discriminator 1
 761 0600 40319FE5 		ldr	r3, .L49+8
 762              	.LPIC26:
 763 0604 03308FE0 		add	r3, pc, r3
 764 0608 08308DE5 		str	r3, [sp, #8]
 765 060c 38319FE5 		ldr	r3, .L49+12
 766              	.LPIC27:
 767 0610 03308FE0 		add	r3, pc, r3
 768 0614 04308DE5 		str	r3, [sp, #4]
 769 0618 0C301BE5 		ldr	r3, [fp, #-12]
 770 061c 00308DE5 		str	r3, [sp]
 771 0620 C930A0E3 		mov	r3, #201
 772 0624 24219FE5 		ldr	r2, .L49+16
 773              	.LPIC28:
 774 0628 02208FE0 		add	r2, pc, r2
ARM GAS  /tmp/cclMtiRJ.s 			page 19


 775 062c 20119FE5 		ldr	r1, .L49+20
 776              	.LPIC29:
 777 0630 01108FE0 		add	r1, pc, r1
 778 0634 4500A0E3 		mov	r0, #69
 779 0638 FEFFFFEB 		bl	siFormattedMessage_SC(PLT)
 780 063c 310000EA 		b	.L44
 781              	.L43:
 202:/home/hkh/git/eapidk-code-r76-trunk/apps/EeePProg/linux/../BinFuncs.c ****   DO(u16CRC_CCITT_bytes(pContext, pcvBuffer, stCount));
 782              		.loc 1 202 3 is_stmt 1
 783 0640 10301BE5 		ldr	r3, [fp, #-16]
 784 0644 1C201BE5 		ldr	r2, [fp, #-28]
 785 0648 18101BE5 		ldr	r1, [fp, #-24]
 786 064c 0300A0E1 		mov	r0, r3
 787 0650 FEFFFFEB 		bl	u16CRC_CCITT_bytes(PLT)
 788 0654 0C000BE5 		str	r0, [fp, #-12]
 789 0658 0C301BE5 		ldr	r3, [fp, #-12]
 790 065c 000053E3 		cmp	r3, #0
 791 0660 0F00000A 		beq	.L45
 792              		.loc 1 202 3 is_stmt 0 discriminator 1
 793 0664 EC309FE5 		ldr	r3, .L49+24
 794              	.LPIC30:
 795 0668 03308FE0 		add	r3, pc, r3
 796 066c 08308DE5 		str	r3, [sp, #8]
 797 0670 E4309FE5 		ldr	r3, .L49+28
 798              	.LPIC31:
 799 0674 03308FE0 		add	r3, pc, r3
 800 0678 04308DE5 		str	r3, [sp, #4]
 801 067c 0C301BE5 		ldr	r3, [fp, #-12]
 802 0680 00308DE5 		str	r3, [sp]
 803 0684 CA30A0E3 		mov	r3, #202
 804 0688 D0209FE5 		ldr	r2, .L49+32
 805              	.LPIC32:
 806 068c 02208FE0 		add	r2, pc, r2
 807 0690 CC109FE5 		ldr	r1, .L49+36
 808              	.LPIC33:
 809 0694 01108FE0 		add	r1, pc, r1
 810 0698 4500A0E3 		mov	r0, #69
 811 069c FEFFFFEB 		bl	siFormattedMessage_SC(PLT)
 812 06a0 180000EA 		b	.L44
 813              	.L45:
 203:/home/hkh/git/eapidk-code-r76-trunk/apps/EeePProg/linux/../BinFuncs.c ****   DO(u16CRC_CCITT_fini(&pContext, pvDigest));
 814              		.loc 1 203 3 is_stmt 1
 815 06a4 10304BE2 		sub	r3, fp, #16
 816 06a8 20101BE5 		ldr	r1, [fp, #-32]
 817 06ac 0300A0E1 		mov	r0, r3
 818 06b0 FEFFFFEB 		bl	u16CRC_CCITT_fini(PLT)
 819 06b4 0C000BE5 		str	r0, [fp, #-12]
 820 06b8 0C301BE5 		ldr	r3, [fp, #-12]
 821 06bc 000053E3 		cmp	r3, #0
 822 06c0 0F00000A 		beq	.L48
 823              		.loc 1 203 3 is_stmt 0 discriminator 1
 824 06c4 9C309FE5 		ldr	r3, .L49+40
 825              	.LPIC34:
 826 06c8 03308FE0 		add	r3, pc, r3
 827 06cc 08308DE5 		str	r3, [sp, #8]
 828 06d0 94309FE5 		ldr	r3, .L49+44
 829              	.LPIC35:
ARM GAS  /tmp/cclMtiRJ.s 			page 20


 830 06d4 03308FE0 		add	r3, pc, r3
 831 06d8 04308DE5 		str	r3, [sp, #4]
 832 06dc 0C301BE5 		ldr	r3, [fp, #-12]
 833 06e0 00308DE5 		str	r3, [sp]
 834 06e4 CB30A0E3 		mov	r3, #203
 835 06e8 80209FE5 		ldr	r2, .L49+48
 836              	.LPIC36:
 837 06ec 02208FE0 		add	r2, pc, r2
 838 06f0 7C109FE5 		ldr	r1, .L49+52
 839              	.LPIC37:
 840 06f4 01108FE0 		add	r1, pc, r1
 841 06f8 4500A0E3 		mov	r0, #69
 842 06fc FEFFFFEB 		bl	siFormattedMessage_SC(PLT)
 843 0700 000000EA 		b	.L44
 844              	.L48:
 204:/home/hkh/git/eapidk-code-r76-trunk/apps/EeePProg/linux/../BinFuncs.c **** EAPI_APP_ASSERT_EXIT
 845              		.loc 1 204 1 is_stmt 1
 846 0704 00F020E3 		nop
 847              	.L44:
 205:/home/hkh/git/eapidk-code-r76-trunk/apps/EeePProg/linux/../BinFuncs.c ****   return StatusCode;
 848              		.loc 1 205 10
 849 0708 0C301BE5 		ldr	r3, [fp, #-12]
 198:/home/hkh/git/eapidk-code-r76-trunk/apps/EeePProg/linux/../BinFuncs.c ****   EApiStatus_t StatusCode=EAPI_STATUS_SUCCESS;
 850              		.loc 1 198 1
 851 070c 64109FE5 		ldr	r1, .L49+56
 852              	.LPIC39:
 853 0710 01108FE0 		add	r1, pc, r1
 206:/home/hkh/git/eapidk-code-r76-trunk/apps/EeePProg/linux/../BinFuncs.c **** }
 854              		.loc 1 206 1
 855 0714 28209FE5 		ldr	r2, .L49+4
 856 0718 022091E7 		ldr	r2, [r1, r2]
 857 071c 001092E5 		ldr	r1, [r2]
 858 0720 08201BE5 		ldr	r2, [fp, #-8]
 859 0724 011032E0 		eors	r1, r2, r1
 860 0728 0020A0E3 		mov	r2, #0
 861 072c 0000000A 		beq	.L47
 862 0730 FEFFFFEB 		bl	__stack_chk_fail(PLT)
 863              	.L47:
 864 0734 0300A0E1 		mov	r0, r3
 865 0738 04D04BE2 		sub	sp, fp, #4
 866              		.cfi_def_cfa 13, 8
 867              		@ sp needed
 868 073c 0088BDE8 		pop	{fp, pc}
 869              	.L50:
 870              		.align	2
 871              	.L49:
 872 0740 74010000 		.word	_GLOBAL_OFFSET_TABLE_-(.LPIC38+8)
 873 0744 00000000 		.word	__stack_chk_guard(GOT)
 874 0748 60020000 		.word	.LC13-(.LPIC26+8)
 875 074c A4010000 		.word	.LC3-(.LPIC27+8)
 876 0750 F4010000 		.word	.LC9-(.LPIC28+8)
 877 0754 30010000 		.word	.LC1-(.LPIC29+8)
 878 0758 2C020000 		.word	.LC14-(.LPIC30+8)
 879 075c 50010000 		.word	.LC3-(.LPIC31+8)
 880 0760 A0010000 		.word	.LC9-(.LPIC32+8)
 881 0764 DC000000 		.word	.LC1-(.LPIC33+8)
 882 0768 10020000 		.word	.LC15-(.LPIC34+8)
ARM GAS  /tmp/cclMtiRJ.s 			page 21


 883 076c 00010000 		.word	.LC3-(.LPIC35+8)
 884 0770 50010000 		.word	.LC9-(.LPIC36+8)
 885 0774 8C000000 		.word	.LC1-(.LPIC37+8)
 886 0778 60000000 		.word	_GLOBAL_OFFSET_TABLE_-(.LPIC39+8)
 887              		.cfi_endproc
 888              	.LFE8:
 890              		.global	CRC_CCITT
 891              		.section	.data.rel.local,"aw"
 892              		.align	2
 895              	CRC_CCITT:
 896 0000 00000000 		.word	u16CRC_CCITT_init
 897 0004 00000000 		.word	u16CRC_CCITT_bytes
 898 0008 00000000 		.word	u16CRC_CCITT_fini
 899 000c 00000000 		.word	u16CRC_CCITT_verify
 900 0010 02000000 		.word	2
 901              		.text
 902              		.align	2
 903              		.global	cBin2Ascii
 904              		.syntax unified
 905              		.arm
 906              		.fpu vfpv3
 908              	cBin2Ascii:
 909              	.LFB9:
 207:/home/hkh/git/eapidk-code-r76-trunk/apps/EeePProg/linux/../BinFuncs.c **** HashFunc_t CRC_CCITT={
 208:/home/hkh/git/eapidk-code-r76-trunk/apps/EeePProg/linux/../BinFuncs.c ****     u16CRC_CCITT_init   ,
 209:/home/hkh/git/eapidk-code-r76-trunk/apps/EeePProg/linux/../BinFuncs.c ****     u16CRC_CCITT_bytes  ,
 210:/home/hkh/git/eapidk-code-r76-trunk/apps/EeePProg/linux/../BinFuncs.c ****     u16CRC_CCITT_fini   ,
 211:/home/hkh/git/eapidk-code-r76-trunk/apps/EeePProg/linux/../BinFuncs.c ****     u16CRC_CCITT_verify ,
 212:/home/hkh/git/eapidk-code-r76-trunk/apps/EeePProg/linux/../BinFuncs.c ****     sizeof(uint16_t)
 213:/home/hkh/git/eapidk-code-r76-trunk/apps/EeePProg/linux/../BinFuncs.c **** };
 214:/home/hkh/git/eapidk-code-r76-trunk/apps/EeePProg/linux/../BinFuncs.c **** 
 215:/home/hkh/git/eapidk-code-r76-trunk/apps/EeePProg/linux/../BinFuncs.c **** /*
 216:/home/hkh/git/eapidk-code-r76-trunk/apps/EeePProg/linux/../BinFuncs.c ****  *
 217:/home/hkh/git/eapidk-code-r76-trunk/apps/EeePProg/linux/../BinFuncs.c ****  *
 218:/home/hkh/git/eapidk-code-r76-trunk/apps/EeePProg/linux/../BinFuncs.c ****  *
 219:/home/hkh/git/eapidk-code-r76-trunk/apps/EeePProg/linux/../BinFuncs.c ****  *  PrintHexTable
 220:/home/hkh/git/eapidk-code-r76-trunk/apps/EeePProg/linux/../BinFuncs.c ****  *
 221:/home/hkh/git/eapidk-code-r76-trunk/apps/EeePProg/linux/../BinFuncs.c ****  *
 222:/home/hkh/git/eapidk-code-r76-trunk/apps/EeePProg/linux/../BinFuncs.c ****  *
 223:/home/hkh/git/eapidk-code-r76-trunk/apps/EeePProg/linux/../BinFuncs.c ****  */
 224:/home/hkh/git/eapidk-code-r76-trunk/apps/EeePProg/linux/../BinFuncs.c **** TCHAR
 225:/home/hkh/git/eapidk-code-r76-trunk/apps/EeePProg/linux/../BinFuncs.c **** cBin2Ascii(
 226:/home/hkh/git/eapidk-code-r76-trunk/apps/EeePProg/linux/../BinFuncs.c ****     __IN  unsigned int uiValue
 227:/home/hkh/git/eapidk-code-r76-trunk/apps/EeePProg/linux/../BinFuncs.c ****   )
 228:/home/hkh/git/eapidk-code-r76-trunk/apps/EeePProg/linux/../BinFuncs.c **** {
 910              		.loc 1 228 1
 911              		.cfi_startproc
 912              		@ args = 0, pretend = 0, frame = 8
 913              		@ frame_needed = 1, uses_anonymous_args = 0
 914              		@ link register save eliminated.
 915 077c 04B02DE5 		str	fp, [sp, #-4]!
 916              		.cfi_def_cfa_offset 4
 917              		.cfi_offset 11, -4
 918 0780 00B08DE2 		add	fp, sp, #0
 919              		.cfi_def_cfa_register 11
 920 0784 0CD04DE2 		sub	sp, sp, #12
 921 0788 08000BE5 		str	r0, [fp, #-8]
ARM GAS  /tmp/cclMtiRJ.s 			page 22


 229:/home/hkh/git/eapidk-code-r76-trunk/apps/EeePProg/linux/../BinFuncs.c ****   if(uiValue>=0x20&&uiValue<=0x7F){
 922              		.loc 1 229 5
 923 078c 08301BE5 		ldr	r3, [fp, #-8]
 924 0790 1F0053E3 		cmp	r3, #31
 925 0794 0500009A 		bls	.L52
 926              		.loc 1 229 19 discriminator 1
 927 0798 08301BE5 		ldr	r3, [fp, #-8]
 928 079c 7F0053E3 		cmp	r3, #127
 929 07a0 0200008A 		bhi	.L52
 230:/home/hkh/git/eapidk-code-r76-trunk/apps/EeePProg/linux/../BinFuncs.c ****     return (char)(uiValue);
 930              		.loc 1 230 12
 931 07a4 08301BE5 		ldr	r3, [fp, #-8]
 932 07a8 7330EFE6 		uxtb	r3, r3
 933 07ac 000000EA 		b	.L53
 934              	.L52:
 231:/home/hkh/git/eapidk-code-r76-trunk/apps/EeePProg/linux/../BinFuncs.c ****   }else{
 232:/home/hkh/git/eapidk-code-r76-trunk/apps/EeePProg/linux/../BinFuncs.c ****     return '.';
 935              		.loc 1 232 12
 936 07b0 2E30A0E3 		mov	r3, #46
 937              	.L53:
 233:/home/hkh/git/eapidk-code-r76-trunk/apps/EeePProg/linux/../BinFuncs.c ****   }
 234:/home/hkh/git/eapidk-code-r76-trunk/apps/EeePProg/linux/../BinFuncs.c **** }
 938              		.loc 1 234 1
 939 07b4 0300A0E1 		mov	r0, r3
 940 07b8 00D08BE2 		add	sp, fp, #0
 941              		.cfi_def_cfa_register 13
 942              		@ sp needed
 943 07bc 04B09DE4 		ldr	fp, [sp], #4
 944              		.cfi_restore 11
 945              		.cfi_def_cfa_offset 0
 946 07c0 1EFF2FE1 		bx	lr
 947              		.cfi_endproc
 948              	.LFE9:
 950              		.section	.rodata
 951 019f 00       		.align	2
 952              	.LC16:
 953 01a0 25303258 		.ascii	"%02X\000"
 953      00
 954              		.text
 955              		.align	2
 956              		.global	siBin2Ascii
 957              		.syntax unified
 958              		.arm
 959              		.fpu vfpv3
 961              	siBin2Ascii:
 962              	.LFB10:
 235:/home/hkh/git/eapidk-code-r76-trunk/apps/EeePProg/linux/../BinFuncs.c **** signed int
 236:/home/hkh/git/eapidk-code-r76-trunk/apps/EeePProg/linux/../BinFuncs.c **** siBin2Ascii(
 237:/home/hkh/git/eapidk-code-r76-trunk/apps/EeePProg/linux/../BinFuncs.c ****     __OUT TCHAR          *pszString ,
 238:/home/hkh/git/eapidk-code-r76-trunk/apps/EeePProg/linux/../BinFuncs.c ****     __IN  size_t          BufLength ,
 239:/home/hkh/git/eapidk-code-r76-trunk/apps/EeePProg/linux/../BinFuncs.c ****     __IN  const uint8_t  *pcu8Value ,
 240:/home/hkh/git/eapidk-code-r76-trunk/apps/EeePProg/linux/../BinFuncs.c ****     __IN  size_t          VarSize   ,
 241:/home/hkh/git/eapidk-code-r76-trunk/apps/EeePProg/linux/../BinFuncs.c ****     __IN  const unsigned  cFlags
 242:/home/hkh/git/eapidk-code-r76-trunk/apps/EeePProg/linux/../BinFuncs.c ****   )
 243:/home/hkh/git/eapidk-code-r76-trunk/apps/EeePProg/linux/../BinFuncs.c **** {
 963              		.loc 1 243 1
 964              		.cfi_startproc
ARM GAS  /tmp/cclMtiRJ.s 			page 23


 965              		@ args = 4, pretend = 0, frame = 24
 966              		@ frame_needed = 1, uses_anonymous_args = 0
 967 07c4 00482DE9 		push	{fp, lr}
 968              		.cfi_def_cfa_offset 8
 969              		.cfi_offset 11, -8
 970              		.cfi_offset 14, -4
 971 07c8 04B08DE2 		add	fp, sp, #4
 972              		.cfi_def_cfa 11, 4
 973 07cc 18D04DE2 		sub	sp, sp, #24
 974 07d0 10000BE5 		str	r0, [fp, #-16]
 975 07d4 14100BE5 		str	r1, [fp, #-20]
 976 07d8 18200BE5 		str	r2, [fp, #-24]
 977 07dc 1C300BE5 		str	r3, [fp, #-28]
 244:/home/hkh/git/eapidk-code-r76-trunk/apps/EeePProg/linux/../BinFuncs.c ****     signed int StringPos=0;
 978              		.loc 1 244 16
 979 07e0 0030A0E3 		mov	r3, #0
 980 07e4 0C300BE5 		str	r3, [fp, #-12]
 245:/home/hkh/git/eapidk-code-r76-trunk/apps/EeePProg/linux/../BinFuncs.c ****     size_t Bufpos;
 246:/home/hkh/git/eapidk-code-r76-trunk/apps/EeePProg/linux/../BinFuncs.c ****     for(Bufpos=0;Bufpos<VarSize;Bufpos++){
 981              		.loc 1 246 15
 982 07e8 0030A0E3 		mov	r3, #0
 983 07ec 08300BE5 		str	r3, [fp, #-8]
 984              		.loc 1 246 5
 985 07f0 2C0000EA 		b	.L55
 986              	.L58:
 247:/home/hkh/git/eapidk-code-r76-trunk/apps/EeePProg/linux/../BinFuncs.c ****       if(cFlags&HEXTBL_BIG_ENDIAN){
 987              		.loc 1 247 16
 988 07f4 04309BE5 		ldr	r3, [fp, #4]
 989 07f8 013C03E2 		and	r3, r3, #256
 990              		.loc 1 247 9
 991 07fc 000053E3 		cmp	r3, #0
 992 0800 1400000A 		beq	.L56
 248:/home/hkh/git/eapidk-code-r76-trunk/apps/EeePProg/linux/../BinFuncs.c ****         StringPos+=EApiSprintf(
 993              		.loc 1 248 20
 994 0804 0C301BE5 		ldr	r3, [fp, #-12]
 995 0808 10201BE5 		ldr	r2, [fp, #-16]
 996 080c 030082E0 		add	r0, r2, r3
 997 0810 0C301BE5 		ldr	r3, [fp, #-12]
 998 0814 14201BE5 		ldr	r2, [fp, #-20]
 999 0818 031042E0 		sub	r1, r2, r3
 249:/home/hkh/git/eapidk-code-r76-trunk/apps/EeePProg/linux/../BinFuncs.c ****             pszString+StringPos   ,
 250:/home/hkh/git/eapidk-code-r76-trunk/apps/EeePProg/linux/../BinFuncs.c ****             BufLength - StringPos , 
 251:/home/hkh/git/eapidk-code-r76-trunk/apps/EeePProg/linux/../BinFuncs.c ****             TEXT("%02X")                , 
 252:/home/hkh/git/eapidk-code-r76-trunk/apps/EeePProg/linux/../BinFuncs.c ****             pcu8Value[VarSize - 1 - Bufpos]
 1000              		.loc 1 252 35
 1001 081c 1C201BE5 		ldr	r2, [fp, #-28]
 1002 0820 08301BE5 		ldr	r3, [fp, #-8]
 1003 0824 033042E0 		sub	r3, r2, r3
 1004 0828 013043E2 		sub	r3, r3, #1
 1005              		.loc 1 252 22
 1006 082c 18201BE5 		ldr	r2, [fp, #-24]
 1007 0830 033082E0 		add	r3, r2, r3
 1008 0834 0030D3E5 		ldrb	r3, [r3]	@ zero_extendqisi2
 248:/home/hkh/git/eapidk-code-r76-trunk/apps/EeePProg/linux/../BinFuncs.c ****         StringPos+=EApiSprintf(
 1009              		.loc 1 248 20
 1010 0838 88209FE5 		ldr	r2, .L60
 1011              	.LPIC40:
ARM GAS  /tmp/cclMtiRJ.s 			page 24


 1012 083c 02208FE0 		add	r2, pc, r2
 1013 0840 FEFFFFEB 		bl	EApiSprintf(PLT)
 1014 0844 0020A0E1 		mov	r2, r0
 248:/home/hkh/git/eapidk-code-r76-trunk/apps/EeePProg/linux/../BinFuncs.c ****         StringPos+=EApiSprintf(
 1015              		.loc 1 248 18
 1016 0848 0C301BE5 		ldr	r3, [fp, #-12]
 1017 084c 023083E0 		add	r3, r3, r2
 1018 0850 0C300BE5 		str	r3, [fp, #-12]
 1019 0854 100000EA 		b	.L57
 1020              	.L56:
 253:/home/hkh/git/eapidk-code-r76-trunk/apps/EeePProg/linux/../BinFuncs.c ****           );
 254:/home/hkh/git/eapidk-code-r76-trunk/apps/EeePProg/linux/../BinFuncs.c ****       }else{
 255:/home/hkh/git/eapidk-code-r76-trunk/apps/EeePProg/linux/../BinFuncs.c ****         StringPos+=EApiSprintf(
 1021              		.loc 1 255 20
 1022 0858 0C301BE5 		ldr	r3, [fp, #-12]
 1023 085c 10201BE5 		ldr	r2, [fp, #-16]
 1024 0860 030082E0 		add	r0, r2, r3
 1025 0864 0C301BE5 		ldr	r3, [fp, #-12]
 1026 0868 14201BE5 		ldr	r2, [fp, #-20]
 1027 086c 031042E0 		sub	r1, r2, r3
 256:/home/hkh/git/eapidk-code-r76-trunk/apps/EeePProg/linux/../BinFuncs.c ****             pszString+StringPos   , 
 257:/home/hkh/git/eapidk-code-r76-trunk/apps/EeePProg/linux/../BinFuncs.c ****             BufLength - StringPos , 
 258:/home/hkh/git/eapidk-code-r76-trunk/apps/EeePProg/linux/../BinFuncs.c ****             TEXT("%02X")                , 
 259:/home/hkh/git/eapidk-code-r76-trunk/apps/EeePProg/linux/../BinFuncs.c ****             pcu8Value[Bufpos]
 1028              		.loc 1 259 22
 1029 0870 18201BE5 		ldr	r2, [fp, #-24]
 1030 0874 08301BE5 		ldr	r3, [fp, #-8]
 1031 0878 033082E0 		add	r3, r2, r3
 1032 087c 0030D3E5 		ldrb	r3, [r3]	@ zero_extendqisi2
 255:/home/hkh/git/eapidk-code-r76-trunk/apps/EeePProg/linux/../BinFuncs.c ****             pszString+StringPos   , 
 1033              		.loc 1 255 20
 1034 0880 44209FE5 		ldr	r2, .L60+4
 1035              	.LPIC41:
 1036 0884 02208FE0 		add	r2, pc, r2
 1037 0888 FEFFFFEB 		bl	EApiSprintf(PLT)
 1038 088c 0020A0E1 		mov	r2, r0
 255:/home/hkh/git/eapidk-code-r76-trunk/apps/EeePProg/linux/../BinFuncs.c ****             pszString+StringPos   , 
 1039              		.loc 1 255 18
 1040 0890 0C301BE5 		ldr	r3, [fp, #-12]
 1041 0894 023083E0 		add	r3, r3, r2
 1042 0898 0C300BE5 		str	r3, [fp, #-12]
 1043              	.L57:
 246:/home/hkh/git/eapidk-code-r76-trunk/apps/EeePProg/linux/../BinFuncs.c ****       if(cFlags&HEXTBL_BIG_ENDIAN){
 1044              		.loc 1 246 39 discriminator 2
 1045 089c 08301BE5 		ldr	r3, [fp, #-8]
 1046 08a0 013083E2 		add	r3, r3, #1
 1047 08a4 08300BE5 		str	r3, [fp, #-8]
 1048              	.L55:
 246:/home/hkh/git/eapidk-code-r76-trunk/apps/EeePProg/linux/../BinFuncs.c ****       if(cFlags&HEXTBL_BIG_ENDIAN){
 1049              		.loc 1 246 24 discriminator 1
 1050 08a8 08201BE5 		ldr	r2, [fp, #-8]
 1051 08ac 1C301BE5 		ldr	r3, [fp, #-28]
 1052 08b0 030052E1 		cmp	r2, r3
 1053 08b4 CEFFFF3A 		bcc	.L58
 260:/home/hkh/git/eapidk-code-r76-trunk/apps/EeePProg/linux/../BinFuncs.c ****           );
 261:/home/hkh/git/eapidk-code-r76-trunk/apps/EeePProg/linux/../BinFuncs.c ****       }
 262:/home/hkh/git/eapidk-code-r76-trunk/apps/EeePProg/linux/../BinFuncs.c ****     }
ARM GAS  /tmp/cclMtiRJ.s 			page 25


 263:/home/hkh/git/eapidk-code-r76-trunk/apps/EeePProg/linux/../BinFuncs.c ****     return StringPos;
 1054              		.loc 1 263 12
 1055 08b8 0C301BE5 		ldr	r3, [fp, #-12]
 264:/home/hkh/git/eapidk-code-r76-trunk/apps/EeePProg/linux/../BinFuncs.c **** }
 1056              		.loc 1 264 1
 1057 08bc 0300A0E1 		mov	r0, r3
 1058 08c0 04D04BE2 		sub	sp, fp, #4
 1059              		.cfi_def_cfa 13, 8
 1060              		@ sp needed
 1061 08c4 0088BDE8 		pop	{fp, pc}
 1062              	.L61:
 1063              		.align	2
 1064              	.L60:
 1065 08c8 24020000 		.word	.LC16-(.LPIC40+8)
 1066 08cc E0010000 		.word	.LC16-(.LPIC41+8)
 1067              		.cfi_endproc
 1068              	.LFE10:
 1070              		.section	.rodata
 1071 01a5 000000   		.align	2
 1072              	.LC17:
 1073 01a8 5072696E 		.ascii	"PrintHexAsciiTableEx\000"
 1073      74486578 
 1073      41736369 
 1073      69546162 
 1073      6C654578 
 1074 01bd 000000   		.align	2
 1075              	.LC18:
 1076 01c0 0A25730A 		.ascii	"\012%s\012\000"
 1076      00
 1077 01c5 000000   		.align	2
 1078              	.LC19:
 1079 01c8 0A094F46 		.ascii	"\012\011OFFSET = 0x%08lX, LENGTH = 0x%08lX\012\000"
 1079      46534554 
 1079      203D2030 
 1079      78253038 
 1079      6C582C20 
 1080              		.global	__aeabi_uidivmod
 1081 01ee 0000     		.align	2
 1082              	.LC20:
 1083 01f0 20202020 		.ascii	"         \000"
 1083      20202020 
 1083      2000
 1084 01fa 0000     		.align	2
 1085              	.LC21:
 1086 01fc 25302A6C 		.ascii	"%0*lX \000"
 1086      582000
 1087 0203 00       		.align	2
 1088              	.LC22:
 1089 0204 256C5800 		.ascii	"%lX\000"
 1090              		.align	2
 1091              	.LC23:
 1092 0208 2530386C 		.ascii	"%08lX \000"
 1092      582000
 1093 020f 00       		.align	2
 1094              	.LC24:
 1095 0210 25732000 		.ascii	"%s \000"
 1096              		.align	2
ARM GAS  /tmp/cclMtiRJ.s 			page 26


 1097              	.LC25:
 1098 0214 00       		.ascii	"\000"
 1099 0215 000000   		.align	2
 1100              	.LC26:
 1101 0218 252A7320 		.ascii	"%*s \000"
 1101      00
 1102              		.text
 1103              		.align	2
 1104              		.global	PrintHexAsciiTableEx
 1105              		.syntax unified
 1106              		.arm
 1107              		.fpu vfpv3
 1109              	PrintHexAsciiTableEx:
 1110              	.LFB11:
 265:/home/hkh/git/eapidk-code-r76-trunk/apps/EeePProg/linux/../BinFuncs.c **** 
 266:/home/hkh/git/eapidk-code-r76-trunk/apps/EeePProg/linux/../BinFuncs.c **** EApiStatus_t
 267:/home/hkh/git/eapidk-code-r76-trunk/apps/EeePProg/linux/../BinFuncs.c **** PrintHexAsciiTableEx(
 268:/home/hkh/git/eapidk-code-r76-trunk/apps/EeePProg/linux/../BinFuncs.c **** 	const void *   pcvBuffer	,
 269:/home/hkh/git/eapidk-code-r76-trunk/apps/EeePProg/linux/../BinFuncs.c **** 	const size_t   stBufSize	,
 270:/home/hkh/git/eapidk-code-r76-trunk/apps/EeePProg/linux/../BinFuncs.c **** 	const void *   pcvBase		,
 271:/home/hkh/git/eapidk-code-r76-trunk/apps/EeePProg/linux/../BinFuncs.c **** 	const TCHAR *  pcszDescription,
 272:/home/hkh/git/eapidk-code-r76-trunk/apps/EeePProg/linux/../BinFuncs.c **** 	const unsigned cuiFlags
 273:/home/hkh/git/eapidk-code-r76-trunk/apps/EeePProg/linux/../BinFuncs.c **** 	)
 274:/home/hkh/git/eapidk-code-r76-trunk/apps/EeePProg/linux/../BinFuncs.c **** {
 1111              		.loc 1 274 1
 1112              		.cfi_startproc
 1113              		@ args = 4, pretend = 0, frame = 152
 1114              		@ frame_needed = 1, uses_anonymous_args = 0
 1115 08d0 00482DE9 		push	{fp, lr}
 1116              		.cfi_def_cfa_offset 8
 1117              		.cfi_offset 11, -8
 1118              		.cfi_offset 14, -4
 1119 08d4 04B08DE2 		add	fp, sp, #4
 1120              		.cfi_def_cfa 11, 4
 1121 08d8 A8D04DE2 		sub	sp, sp, #168
 1122 08dc 90000BE5 		str	r0, [fp, #-144]
 1123 08e0 94100BE5 		str	r1, [fp, #-148]
 1124 08e4 98200BE5 		str	r2, [fp, #-152]
 1125 08e8 9C300BE5 		str	r3, [fp, #-156]
 1126              		.loc 1 274 1
 1127 08ec 7C249FE5 		ldr	r2, .L92
 1128              	.LPIC55:
 1129 08f0 02208FE0 		add	r2, pc, r2
 1130 08f4 78349FE5 		ldr	r3, .L92+4
 1131 08f8 033092E7 		ldr	r3, [r2, r3]
 1132 08fc 003093E5 		ldr	r3, [r3]
 1133 0900 08300BE5 		str	r3, [fp, #-8]
 1134 0904 0030A0E3 		mov	r3, #0
 275:/home/hkh/git/eapidk-code-r76-trunk/apps/EeePProg/linux/../BinFuncs.c ****   EApiStatus_t StatusCode=EAPI_STATUS_SUCCESS;
 1135              		.loc 1 275 16
 1136 0908 0030A0E3 		mov	r3, #0
 1137 090c 8C300BE5 		str	r3, [fp, #-140]
 276:/home/hkh/git/eapidk-code-r76-trunk/apps/EeePProg/linux/../BinFuncs.c ****     size_t        stOffset;
 277:/home/hkh/git/eapidk-code-r76-trunk/apps/EeePProg/linux/../BinFuncs.c ****     size_t        stOffsetBase;
 278:/home/hkh/git/eapidk-code-r76-trunk/apps/EeePProg/linux/../BinFuncs.c ****     const uint8_t *pcu8Mem;
 279:/home/hkh/git/eapidk-code-r76-trunk/apps/EeePProg/linux/../BinFuncs.c ****     const uint8_t *pcu8PageEnd;
 280:/home/hkh/git/eapidk-code-r76-trunk/apps/EeePProg/linux/../BinFuncs.c ****     size_t        stElementSize;
ARM GAS  /tmp/cclMtiRJ.s 			page 27


 281:/home/hkh/git/eapidk-code-r76-trunk/apps/EeePProg/linux/../BinFuncs.c ****     size_t        stElementCount;
 282:/home/hkh/git/eapidk-code-r76-trunk/apps/EeePProg/linux/../BinFuncs.c ****     size_t        stRowSize;
 283:/home/hkh/git/eapidk-code-r76-trunk/apps/EeePProg/linux/../BinFuncs.c ****     TCHAR  szAsciiBufer[100];
 284:/home/hkh/git/eapidk-code-r76-trunk/apps/EeePProg/linux/../BinFuncs.c **** 
 285:/home/hkh/git/eapidk-code-r76-trunk/apps/EeePProg/linux/../BinFuncs.c **** 
 286:/home/hkh/git/eapidk-code-r76-trunk/apps/EeePProg/linux/../BinFuncs.c ****     EAPI_APP_ASSERT_PARAMATER_NULL(
 1138              		.loc 1 286 5
 1139 0910 90301BE5 		ldr	r3, [fp, #-144]
 1140 0914 000053E3 		cmp	r3, #0
 1141 0918 1100001A 		bne	.L63
 1142              		.loc 1 286 5 is_stmt 0 discriminator 1
 1143 091c 54349FE5 		ldr	r3, .L92+8
 1144              	.LPIC42:
 1145 0920 03308FE0 		add	r3, pc, r3
 1146 0924 08308DE5 		str	r3, [sp, #8]
 1147 0928 4C349FE5 		ldr	r3, .L92+12
 1148              	.LPIC43:
 1149 092c 03308FE0 		add	r3, pc, r3
 1150 0930 04308DE5 		str	r3, [sp, #4]
 1151 0934 013CE0E3 		mvn	r3, #256
 1152 0938 00308DE5 		str	r3, [sp]
 1153 093c 1E3100E3 		movw	r3, #286
 1154 0940 38249FE5 		ldr	r2, .L92+16
 1155              	.LPIC44:
 1156 0944 02208FE0 		add	r2, pc, r2
 1157 0948 34149FE5 		ldr	r1, .L92+20
 1158              	.LPIC45:
 1159 094c 01108FE0 		add	r1, pc, r1
 1160 0950 4500A0E3 		mov	r0, #69
 1161 0954 FEFFFFEB 		bl	siFormattedMessage_SC(PLT)
 1162 0958 013CE0E3 		mvn	r3, #256
 1163 095c 8C300BE5 		str	r3, [fp, #-140]
 1164 0960 F40000EA 		b	.L64
 1165              	.L63:
 287:/home/hkh/git/eapidk-code-r76-trunk/apps/EeePProg/linux/../BinFuncs.c ****         PrintHexAsciiTableEx,
 288:/home/hkh/git/eapidk-code-r76-trunk/apps/EeePProg/linux/../BinFuncs.c ****         EAPI_STATUS_INVALID_PARAMETER,
 289:/home/hkh/git/eapidk-code-r76-trunk/apps/EeePProg/linux/../BinFuncs.c ****          pcvBuffer
 290:/home/hkh/git/eapidk-code-r76-trunk/apps/EeePProg/linux/../BinFuncs.c ****         );
 291:/home/hkh/git/eapidk-code-r76-trunk/apps/EeePProg/linux/../BinFuncs.c ****     if(pcvBase==NULL)
 1166              		.loc 1 291 7 is_stmt 1
 1167 0964 98301BE5 		ldr	r3, [fp, #-152]
 1168 0968 000053E3 		cmp	r3, #0
 1169 096c 0100001A 		bne	.L65
 292:/home/hkh/git/eapidk-code-r76-trunk/apps/EeePProg/linux/../BinFuncs.c ****       pcvBase=pcvBuffer;
 1170              		.loc 1 292 14
 1171 0970 90301BE5 		ldr	r3, [fp, #-144]
 1172 0974 98300BE5 		str	r3, [fp, #-152]
 1173              	.L65:
 293:/home/hkh/git/eapidk-code-r76-trunk/apps/EeePProg/linux/../BinFuncs.c **** 
 294:/home/hkh/git/eapidk-code-r76-trunk/apps/EeePProg/linux/../BinFuncs.c ****     pcu8Mem=pcvBase;
 1174              		.loc 1 294 12
 1175 0978 98301BE5 		ldr	r3, [fp, #-152]
 1176 097c 84300BE5 		str	r3, [fp, #-132]
 295:/home/hkh/git/eapidk-code-r76-trunk/apps/EeePProg/linux/../BinFuncs.c **** 
 296:/home/hkh/git/eapidk-code-r76-trunk/apps/EeePProg/linux/../BinFuncs.c ****     stElementSize=1<<((cuiFlags&HEXTBL_WIDTH_MASK)>>12);
 1177              		.loc 1 296 51
 1178 0980 04309BE5 		ldr	r3, [fp, #4]
ARM GAS  /tmp/cclMtiRJ.s 			page 28


 1179 0984 2336A0E1 		lsr	r3, r3, #12
 1180 0988 073003E2 		and	r3, r3, #7
 1181              		.loc 1 296 20
 1182 098c 0120A0E3 		mov	r2, #1
 1183 0990 1233A0E1 		lsl	r3, r2, r3
 1184              		.loc 1 296 18
 1185 0994 80300BE5 		str	r3, [fp, #-128]
 297:/home/hkh/git/eapidk-code-r76-trunk/apps/EeePProg/linux/../BinFuncs.c ****     stElementCount=cuiFlags&HEXTBL_COUNT_MASK;
 1186              		.loc 1 297 19
 1187 0998 04309BE5 		ldr	r3, [fp, #4]
 1188 099c 3F3003E2 		and	r3, r3, #63
 1189 09a0 7C300BE5 		str	r3, [fp, #-124]
 298:/home/hkh/git/eapidk-code-r76-trunk/apps/EeePProg/linux/../BinFuncs.c ****     stRowSize=stElementCount*stElementSize;
 1190              		.loc 1 298 14
 1191 09a4 7C301BE5 		ldr	r3, [fp, #-124]
 1192 09a8 80201BE5 		ldr	r2, [fp, #-128]
 1193 09ac 920303E0 		mul	r3, r2, r3
 1194 09b0 78300BE5 		str	r3, [fp, #-120]
 299:/home/hkh/git/eapidk-code-r76-trunk/apps/EeePProg/linux/../BinFuncs.c ****     pcu8PageEnd=((const uint8_t *)pcvBuffer)+stBufSize;
 1195              		.loc 1 299 16
 1196 09b4 90201BE5 		ldr	r2, [fp, #-144]
 1197 09b8 94301BE5 		ldr	r3, [fp, #-148]
 1198 09bc 033082E0 		add	r3, r2, r3
 1199 09c0 74300BE5 		str	r3, [fp, #-116]
 300:/home/hkh/git/eapidk-code-r76-trunk/apps/EeePProg/linux/../BinFuncs.c **** 
 301:/home/hkh/git/eapidk-code-r76-trunk/apps/EeePProg/linux/../BinFuncs.c ****     if(pcszDescription!=NULL)
 1200              		.loc 1 301 7
 1201 09c4 9C301BE5 		ldr	r3, [fp, #-156]
 1202 09c8 000053E3 		cmp	r3, #0
 1203 09cc 0400000A 		beq	.L66
 302:/home/hkh/git/eapidk-code-r76-trunk/apps/EeePProg/linux/../BinFuncs.c ****       EAPI_printf(TEXT("\n%s\n"), pcszDescription);
 1204              		.loc 1 302 7
 1205 09d0 9C101BE5 		ldr	r1, [fp, #-156]
 1206 09d4 AC339FE5 		ldr	r3, .L92+24
 1207              	.LPIC46:
 1208 09d8 03308FE0 		add	r3, pc, r3
 1209 09dc 0300A0E1 		mov	r0, r3
 1210 09e0 FEFFFFEB 		bl	printf(PLT)
 1211              	.L66:
 303:/home/hkh/git/eapidk-code-r76-trunk/apps/EeePProg/linux/../BinFuncs.c ****     stOffset=((uint8_t*)pcvBuffer)- pcu8Mem;
 1212              		.loc 1 303 35
 1213 09e4 90201BE5 		ldr	r2, [fp, #-144]
 1214 09e8 84301BE5 		ldr	r3, [fp, #-132]
 1215 09ec 033042E0 		sub	r3, r2, r3
 1216              		.loc 1 303 13
 1217 09f0 88300BE5 		str	r3, [fp, #-136]
 304:/home/hkh/git/eapidk-code-r76-trunk/apps/EeePProg/linux/../BinFuncs.c **** 
 305:/home/hkh/git/eapidk-code-r76-trunk/apps/EeePProg/linux/../BinFuncs.c ****     if(cuiFlags&HEXTBL_OFFSET_TITLE)
 1218              		.loc 1 305 16
 1219 09f4 04309BE5 		ldr	r3, [fp, #4]
 1220 09f8 403003E2 		and	r3, r3, #64
 1221              		.loc 1 305 7
 1222 09fc 000053E3 		cmp	r3, #0
 1223 0a00 0500000A 		beq	.L67
 306:/home/hkh/git/eapidk-code-r76-trunk/apps/EeePProg/linux/../BinFuncs.c ****       EAPI_printf(TEXT("\n\tOFFSET = 0x%08lX, LENGTH = 0x%08lX\n"), (unsigned long)stOffset, (unsig
 1224              		.loc 1 306 7
 1225 0a04 94201BE5 		ldr	r2, [fp, #-148]
ARM GAS  /tmp/cclMtiRJ.s 			page 29


 1226 0a08 88101BE5 		ldr	r1, [fp, #-136]
 1227 0a0c 78339FE5 		ldr	r3, .L92+28
 1228              	.LPIC47:
 1229 0a10 03308FE0 		add	r3, pc, r3
 1230 0a14 0300A0E1 		mov	r0, r3
 1231 0a18 FEFFFFEB 		bl	printf(PLT)
 1232              	.L67:
 307:/home/hkh/git/eapidk-code-r76-trunk/apps/EeePProg/linux/../BinFuncs.c **** 
 308:/home/hkh/git/eapidk-code-r76-trunk/apps/EeePProg/linux/../BinFuncs.c ****     if(stBufSize==0) EAPI_APP_EXIT;
 1233              		.loc 1 308 7
 1234 0a1c 94301BE5 		ldr	r3, [fp, #-148]
 1235 0a20 000053E3 		cmp	r3, #0
 1236 0a24 C200000A 		beq	.L91
 309:/home/hkh/git/eapidk-code-r76-trunk/apps/EeePProg/linux/../BinFuncs.c **** 
 310:/home/hkh/git/eapidk-code-r76-trunk/apps/EeePProg/linux/../BinFuncs.c ****     pcu8Mem=((uint8_t*)pcvBuffer) - (stOffset%stRowSize);
 1237              		.loc 1 310 46
 1238 0a28 88301BE5 		ldr	r3, [fp, #-136]
 1239 0a2c 78101BE5 		ldr	r1, [fp, #-120]
 1240 0a30 0300A0E1 		mov	r0, r3
 1241 0a34 FEFFFFEB 		bl	__aeabi_uidivmod(PLT)
 1242 0a38 0130A0E1 		mov	r3, r1
 1243              		.loc 1 310 35
 1244 0a3c 003063E2 		rsb	r3, r3, #0
 1245              		.loc 1 310 12
 1246 0a40 90201BE5 		ldr	r2, [fp, #-144]
 1247 0a44 033082E0 		add	r3, r2, r3
 1248 0a48 84300BE5 		str	r3, [fp, #-132]
 311:/home/hkh/git/eapidk-code-r76-trunk/apps/EeePProg/linux/../BinFuncs.c **** 
 312:/home/hkh/git/eapidk-code-r76-trunk/apps/EeePProg/linux/../BinFuncs.c ****     stOffsetBase=pcu8Mem - (uint8_t*)pcvBase;
 1249              		.loc 1 312 26
 1250 0a4c 84201BE5 		ldr	r2, [fp, #-132]
 1251 0a50 98301BE5 		ldr	r3, [fp, #-152]
 1252 0a54 033042E0 		sub	r3, r2, r3
 1253              		.loc 1 312 17
 1254 0a58 70300BE5 		str	r3, [fp, #-112]
 313:/home/hkh/git/eapidk-code-r76-trunk/apps/EeePProg/linux/../BinFuncs.c ****     while(pcu8Mem<pcu8PageEnd)
 1255              		.loc 1 313 10
 1256 0a5c AF0000EA 		b	.L69
 1257              	.L88:
 314:/home/hkh/git/eapidk-code-r76-trunk/apps/EeePProg/linux/../BinFuncs.c ****     {
 315:/home/hkh/git/eapidk-code-r76-trunk/apps/EeePProg/linux/../BinFuncs.c ****       stOffset=pcu8Mem - (uint8_t*)pcvBase;
 1258              		.loc 1 315 24
 1259 0a60 84201BE5 		ldr	r2, [fp, #-132]
 1260 0a64 98301BE5 		ldr	r3, [fp, #-152]
 1261 0a68 033042E0 		sub	r3, r2, r3
 1262              		.loc 1 315 15
 1263 0a6c 88300BE5 		str	r3, [fp, #-136]
 316:/home/hkh/git/eapidk-code-r76-trunk/apps/EeePProg/linux/../BinFuncs.c ****       if(!((stOffset - stOffsetBase)%(stRowSize*16))){
 1264              		.loc 1 316 22
 1265 0a70 88201BE5 		ldr	r2, [fp, #-136]
 1266 0a74 70301BE5 		ldr	r3, [fp, #-112]
 1267 0a78 032042E0 		sub	r2, r2, r3
 1268              		.loc 1 316 48
 1269 0a7c 78301BE5 		ldr	r3, [fp, #-120]
 1270 0a80 0332A0E1 		lsl	r3, r3, #4
 1271              		.loc 1 316 37
 1272 0a84 0310A0E1 		mov	r1, r3
ARM GAS  /tmp/cclMtiRJ.s 			page 30


 1273 0a88 0200A0E1 		mov	r0, r2
 1274 0a8c FEFFFFEB 		bl	__aeabi_uidivmod(PLT)
 1275 0a90 0130A0E1 		mov	r3, r1
 1276              		.loc 1 316 9
 1277 0a94 000053E3 		cmp	r3, #0
 1278 0a98 3A00001A 		bne	.L70
 317:/home/hkh/git/eapidk-code-r76-trunk/apps/EeePProg/linux/../BinFuncs.c ****         /*
 318:/home/hkh/git/eapidk-code-r76-trunk/apps/EeePProg/linux/../BinFuncs.c ****          * Print Block Header
 319:/home/hkh/git/eapidk-code-r76-trunk/apps/EeePProg/linux/../BinFuncs.c ****          */
 320:/home/hkh/git/eapidk-code-r76-trunk/apps/EeePProg/linux/../BinFuncs.c ****         EAPI_printf(TEXT("\n"));
 1279              		.loc 1 320 9
 1280 0a9c 0A00A0E3 		mov	r0, #10
 1281 0aa0 FEFFFFEB 		bl	putchar(PLT)
 321:/home/hkh/git/eapidk-code-r76-trunk/apps/EeePProg/linux/../BinFuncs.c ****         if(cuiFlags&HEXTBL_OFFSET_BAR)
 1282              		.loc 1 321 20
 1283 0aa4 04309BE5 		ldr	r3, [fp, #4]
 1284 0aa8 023B03E2 		and	r3, r3, #2048
 1285              		.loc 1 321 11
 1286 0aac 000053E3 		cmp	r3, #0
 1287 0ab0 0300000A 		beq	.L71
 322:/home/hkh/git/eapidk-code-r76-trunk/apps/EeePProg/linux/../BinFuncs.c ****           EAPI_printf(TEXT("         "));
 1288              		.loc 1 322 11
 1289 0ab4 D4329FE5 		ldr	r3, .L92+32
 1290              	.LPIC48:
 1291 0ab8 03308FE0 		add	r3, pc, r3
 1292 0abc 0300A0E1 		mov	r0, r3
 1293 0ac0 FEFFFFEB 		bl	printf(PLT)
 1294              	.L71:
 323:/home/hkh/git/eapidk-code-r76-trunk/apps/EeePProg/linux/../BinFuncs.c ****         if(cuiFlags&HEXTBL_OFFSET_COUNT){
 1295              		.loc 1 323 20
 1296 0ac4 04309BE5 		ldr	r3, [fp, #4]
 1297 0ac8 803003E2 		and	r3, r3, #128
 1298              		.loc 1 323 11
 1299 0acc 000053E3 		cmp	r3, #0
 1300 0ad0 2800000A 		beq	.L72
 324:/home/hkh/git/eapidk-code-r76-trunk/apps/EeePProg/linux/../BinFuncs.c ****           for(stOffset=0;stOffset<stElementCount;stOffset++){
 1301              		.loc 1 324 23
 1302 0ad4 0030A0E3 		mov	r3, #0
 1303 0ad8 88300BE5 		str	r3, [fp, #-136]
 1304              		.loc 1 324 11
 1305 0adc 0A0000EA 		b	.L73
 1306              	.L74:
 325:/home/hkh/git/eapidk-code-r76-trunk/apps/EeePProg/linux/../BinFuncs.c ****             EAPI_printf(TEXT("%0*lX "), (int)(2*stElementSize), (unsigned long)stOffset);
 1307              		.loc 1 325 48 discriminator 3
 1308 0ae0 80301BE5 		ldr	r3, [fp, #-128]
 1309 0ae4 8330A0E1 		lsl	r3, r3, #1
 1310              		.loc 1 325 13 discriminator 3
 1311 0ae8 88201BE5 		ldr	r2, [fp, #-136]
 1312 0aec 0310A0E1 		mov	r1, r3
 1313 0af0 9C329FE5 		ldr	r3, .L92+36
 1314              	.LPIC49:
 1315 0af4 03308FE0 		add	r3, pc, r3
 1316 0af8 0300A0E1 		mov	r0, r3
 1317 0afc FEFFFFEB 		bl	printf(PLT)
 324:/home/hkh/git/eapidk-code-r76-trunk/apps/EeePProg/linux/../BinFuncs.c ****           for(stOffset=0;stOffset<stElementCount;stOffset++){
 1318              		.loc 1 324 58 discriminator 3
 1319 0b00 88301BE5 		ldr	r3, [fp, #-136]
ARM GAS  /tmp/cclMtiRJ.s 			page 31


 1320 0b04 013083E2 		add	r3, r3, #1
 1321 0b08 88300BE5 		str	r3, [fp, #-136]
 1322              	.L73:
 324:/home/hkh/git/eapidk-code-r76-trunk/apps/EeePProg/linux/../BinFuncs.c ****           for(stOffset=0;stOffset<stElementCount;stOffset++){
 1323              		.loc 1 324 34 discriminator 1
 1324 0b0c 88201BE5 		ldr	r2, [fp, #-136]
 1325 0b10 7C301BE5 		ldr	r3, [fp, #-124]
 1326 0b14 030052E1 		cmp	r2, r3
 1327 0b18 F0FFFF3A 		bcc	.L74
 326:/home/hkh/git/eapidk-code-r76-trunk/apps/EeePProg/linux/../BinFuncs.c ****           }
 327:/home/hkh/git/eapidk-code-r76-trunk/apps/EeePProg/linux/../BinFuncs.c ****           if(cuiFlags&HEXTBL_ASCII_MASK){
 1328              		.loc 1 327 22
 1329 0b1c 04309BE5 		ldr	r3, [fp, #4]
 1330 0b20 063C03E2 		and	r3, r3, #1536
 1331              		.loc 1 327 13
 1332 0b24 000053E3 		cmp	r3, #0
 1333 0b28 1000000A 		beq	.L75
 328:/home/hkh/git/eapidk-code-r76-trunk/apps/EeePProg/linux/../BinFuncs.c ****             for(stOffset=0;stOffset<(stRowSize);stOffset++){
 1334              		.loc 1 328 25
 1335 0b2c 0030A0E3 		mov	r3, #0
 1336 0b30 88300BE5 		str	r3, [fp, #-136]
 1337              		.loc 1 328 13
 1338 0b34 090000EA 		b	.L76
 1339              	.L77:
 329:/home/hkh/git/eapidk-code-r76-trunk/apps/EeePProg/linux/../BinFuncs.c ****               EAPI_printf(TEXT("%lX"), (((unsigned long)stOffset)&0xF));
 1340              		.loc 1 329 15 discriminator 3
 1341 0b38 88301BE5 		ldr	r3, [fp, #-136]
 1342 0b3c 0F3003E2 		and	r3, r3, #15
 1343 0b40 0310A0E1 		mov	r1, r3
 1344 0b44 4C329FE5 		ldr	r3, .L92+40
 1345              	.LPIC50:
 1346 0b48 03308FE0 		add	r3, pc, r3
 1347 0b4c 0300A0E1 		mov	r0, r3
 1348 0b50 FEFFFFEB 		bl	printf(PLT)
 328:/home/hkh/git/eapidk-code-r76-trunk/apps/EeePProg/linux/../BinFuncs.c ****             for(stOffset=0;stOffset<(stRowSize);stOffset++){
 1349              		.loc 1 328 57 discriminator 3
 1350 0b54 88301BE5 		ldr	r3, [fp, #-136]
 1351 0b58 013083E2 		add	r3, r3, #1
 1352 0b5c 88300BE5 		str	r3, [fp, #-136]
 1353              	.L76:
 328:/home/hkh/git/eapidk-code-r76-trunk/apps/EeePProg/linux/../BinFuncs.c ****             for(stOffset=0;stOffset<(stRowSize);stOffset++){
 1354              		.loc 1 328 36 discriminator 1
 1355 0b60 88201BE5 		ldr	r2, [fp, #-136]
 1356 0b64 78301BE5 		ldr	r3, [fp, #-120]
 1357 0b68 030052E1 		cmp	r2, r3
 1358 0b6c F1FFFF3A 		bcc	.L77
 1359              	.L75:
 330:/home/hkh/git/eapidk-code-r76-trunk/apps/EeePProg/linux/../BinFuncs.c ****             }
 331:/home/hkh/git/eapidk-code-r76-trunk/apps/EeePProg/linux/../BinFuncs.c ****           }
 332:/home/hkh/git/eapidk-code-r76-trunk/apps/EeePProg/linux/../BinFuncs.c ****           EAPI_printf(TEXT("\n"));
 1360              		.loc 1 332 11
 1361 0b70 0A00A0E3 		mov	r0, #10
 1362 0b74 FEFFFFEB 		bl	putchar(PLT)
 1363              	.L72:
 333:/home/hkh/git/eapidk-code-r76-trunk/apps/EeePProg/linux/../BinFuncs.c ****         }
 334:/home/hkh/git/eapidk-code-r76-trunk/apps/EeePProg/linux/../BinFuncs.c ****         stOffset=pcu8Mem - (uint8_t*)pcvBase;
 1364              		.loc 1 334 26
ARM GAS  /tmp/cclMtiRJ.s 			page 32


 1365 0b78 84201BE5 		ldr	r2, [fp, #-132]
 1366 0b7c 98301BE5 		ldr	r3, [fp, #-152]
 1367 0b80 033042E0 		sub	r3, r2, r3
 1368              		.loc 1 334 17
 1369 0b84 88300BE5 		str	r3, [fp, #-136]
 1370              	.L70:
 335:/home/hkh/git/eapidk-code-r76-trunk/apps/EeePProg/linux/../BinFuncs.c ****       }
 336:/home/hkh/git/eapidk-code-r76-trunk/apps/EeePProg/linux/../BinFuncs.c ****       if(cuiFlags&HEXTBL_OFFSET_BAR)
 1371              		.loc 1 336 18
 1372 0b88 04309BE5 		ldr	r3, [fp, #4]
 1373 0b8c 023B03E2 		and	r3, r3, #2048
 1374              		.loc 1 336 9
 1375 0b90 000053E3 		cmp	r3, #0
 1376 0b94 0400000A 		beq	.L78
 337:/home/hkh/git/eapidk-code-r76-trunk/apps/EeePProg/linux/../BinFuncs.c ****         EAPI_printf(TEXT("%08lX ") , (unsigned long)stOffset);
 1377              		.loc 1 337 9
 1378 0b98 88101BE5 		ldr	r1, [fp, #-136]
 1379 0b9c F8319FE5 		ldr	r3, .L92+44
 1380              	.LPIC51:
 1381 0ba0 03308FE0 		add	r3, pc, r3
 1382 0ba4 0300A0E1 		mov	r0, r3
 1383 0ba8 FEFFFFEB 		bl	printf(PLT)
 1384              	.L78:
 338:/home/hkh/git/eapidk-code-r76-trunk/apps/EeePProg/linux/../BinFuncs.c **** 
 339:/home/hkh/git/eapidk-code-r76-trunk/apps/EeePProg/linux/../BinFuncs.c ****         /*
 340:/home/hkh/git/eapidk-code-r76-trunk/apps/EeePProg/linux/../BinFuncs.c ****          * Print Binary Hex Data
 341:/home/hkh/git/eapidk-code-r76-trunk/apps/EeePProg/linux/../BinFuncs.c ****          */
 342:/home/hkh/git/eapidk-code-r76-trunk/apps/EeePProg/linux/../BinFuncs.c ****       for(stOffset=0; stOffset<stRowSize; stOffset+=stElementSize)
 1385              		.loc 1 342 19
 1386 0bac 0030A0E3 		mov	r3, #0
 1387 0bb0 88300BE5 		str	r3, [fp, #-136]
 1388              		.loc 1 342 7
 1389 0bb4 290000EA 		b	.L79
 1390              	.L82:
 343:/home/hkh/git/eapidk-code-r76-trunk/apps/EeePProg/linux/../BinFuncs.c ****       {
 344:/home/hkh/git/eapidk-code-r76-trunk/apps/EeePProg/linux/../BinFuncs.c ****         if((pcu8PageEnd>(pcu8Mem+stOffset))&&((stOffset+pcu8Mem)>=((uint8_t *)pcvBuffer))){
 1391              		.loc 1 344 33
 1392 0bb8 84201BE5 		ldr	r2, [fp, #-132]
 1393 0bbc 88301BE5 		ldr	r3, [fp, #-136]
 1394 0bc0 033082E0 		add	r3, r2, r3
 1395              		.loc 1 344 11
 1396 0bc4 74201BE5 		ldr	r2, [fp, #-116]
 1397 0bc8 030052E1 		cmp	r2, r3
 1398 0bcc 1500009A 		bls	.L80
 1399              		.loc 1 344 56 discriminator 1
 1400 0bd0 84201BE5 		ldr	r2, [fp, #-132]
 1401 0bd4 88301BE5 		ldr	r3, [fp, #-136]
 1402 0bd8 033082E0 		add	r3, r2, r3
 1403              		.loc 1 344 44 discriminator 1
 1404 0bdc 90201BE5 		ldr	r2, [fp, #-144]
 1405 0be0 030052E1 		cmp	r2, r3
 1406 0be4 0F00008A 		bhi	.L80
 345:/home/hkh/git/eapidk-code-r76-trunk/apps/EeePProg/linux/../BinFuncs.c ****           siBin2Ascii(
 1407              		.loc 1 345 11
 1408 0be8 84201BE5 		ldr	r2, [fp, #-132]
 1409 0bec 88301BE5 		ldr	r3, [fp, #-136]
 1410 0bf0 032082E0 		add	r2, r2, r3
ARM GAS  /tmp/cclMtiRJ.s 			page 33


 1411 0bf4 6C004BE2 		sub	r0, fp, #108
 1412 0bf8 04309BE5 		ldr	r3, [fp, #4]
 1413 0bfc 00308DE5 		str	r3, [sp]
 1414 0c00 80301BE5 		ldr	r3, [fp, #-128]
 1415 0c04 6410A0E3 		mov	r1, #100
 1416 0c08 FEFFFFEB 		bl	siBin2Ascii(PLT)
 346:/home/hkh/git/eapidk-code-r76-trunk/apps/EeePProg/linux/../BinFuncs.c ****               szAsciiBufer            , 
 347:/home/hkh/git/eapidk-code-r76-trunk/apps/EeePProg/linux/../BinFuncs.c ****               ARRAY_SIZE(szAsciiBufer), 
 348:/home/hkh/git/eapidk-code-r76-trunk/apps/EeePProg/linux/../BinFuncs.c ****               pcu8Mem+stOffset        , 
 349:/home/hkh/git/eapidk-code-r76-trunk/apps/EeePProg/linux/../BinFuncs.c ****               stElementSize           , 
 350:/home/hkh/git/eapidk-code-r76-trunk/apps/EeePProg/linux/../BinFuncs.c ****               cuiFlags
 351:/home/hkh/git/eapidk-code-r76-trunk/apps/EeePProg/linux/../BinFuncs.c ****             );
 352:/home/hkh/git/eapidk-code-r76-trunk/apps/EeePProg/linux/../BinFuncs.c ****           EAPI_printf(TEXT("%s "), szAsciiBufer);
 1417              		.loc 1 352 11
 1418 0c0c 6C304BE2 		sub	r3, fp, #108
 1419 0c10 0310A0E1 		mov	r1, r3
 1420 0c14 84319FE5 		ldr	r3, .L92+48
 1421              	.LPIC52:
 1422 0c18 03308FE0 		add	r3, pc, r3
 1423 0c1c 0300A0E1 		mov	r0, r3
 1424 0c20 FEFFFFEB 		bl	printf(PLT)
 1425 0c24 090000EA 		b	.L81
 1426              	.L80:
 353:/home/hkh/git/eapidk-code-r76-trunk/apps/EeePProg/linux/../BinFuncs.c ****         }else{
 354:/home/hkh/git/eapidk-code-r76-trunk/apps/EeePProg/linux/../BinFuncs.c ****           EAPI_printf(TEXT("%*s "), (int)(2*stElementSize), TEXT(""));
 1427              		.loc 1 354 44
 1428 0c28 80301BE5 		ldr	r3, [fp, #-128]
 1429 0c2c 8330A0E1 		lsl	r3, r3, #1
 1430              		.loc 1 354 11
 1431 0c30 0310A0E1 		mov	r1, r3
 1432 0c34 68319FE5 		ldr	r3, .L92+52
 1433              	.LPIC53:
 1434 0c38 03308FE0 		add	r3, pc, r3
 1435 0c3c 0320A0E1 		mov	r2, r3
 1436 0c40 60319FE5 		ldr	r3, .L92+56
 1437              	.LPIC54:
 1438 0c44 03308FE0 		add	r3, pc, r3
 1439 0c48 0300A0E1 		mov	r0, r3
 1440 0c4c FEFFFFEB 		bl	printf(PLT)
 1441              	.L81:
 342:/home/hkh/git/eapidk-code-r76-trunk/apps/EeePProg/linux/../BinFuncs.c ****       {
 1442              		.loc 1 342 51 discriminator 2
 1443 0c50 88201BE5 		ldr	r2, [fp, #-136]
 1444 0c54 80301BE5 		ldr	r3, [fp, #-128]
 1445 0c58 033082E0 		add	r3, r2, r3
 1446 0c5c 88300BE5 		str	r3, [fp, #-136]
 1447              	.L79:
 342:/home/hkh/git/eapidk-code-r76-trunk/apps/EeePProg/linux/../BinFuncs.c ****       {
 1448              		.loc 1 342 31 discriminator 1
 1449 0c60 88201BE5 		ldr	r2, [fp, #-136]
 1450 0c64 78301BE5 		ldr	r3, [fp, #-120]
 1451 0c68 030052E1 		cmp	r2, r3
 1452 0c6c D1FFFF3A 		bcc	.L82
 355:/home/hkh/git/eapidk-code-r76-trunk/apps/EeePProg/linux/../BinFuncs.c ****         }
 356:/home/hkh/git/eapidk-code-r76-trunk/apps/EeePProg/linux/../BinFuncs.c ****       }
 357:/home/hkh/git/eapidk-code-r76-trunk/apps/EeePProg/linux/../BinFuncs.c ****       if(cuiFlags&HEXTBL_ASCII_MASK){
 1453              		.loc 1 357 18
ARM GAS  /tmp/cclMtiRJ.s 			page 34


 1454 0c70 04309BE5 		ldr	r3, [fp, #4]
 1455 0c74 063C03E2 		and	r3, r3, #1536
 1456              		.loc 1 357 9
 1457 0c78 000053E3 		cmp	r3, #0
 1458 0c7c 2100000A 		beq	.L83
 358:/home/hkh/git/eapidk-code-r76-trunk/apps/EeePProg/linux/../BinFuncs.c ****         /*
 359:/home/hkh/git/eapidk-code-r76-trunk/apps/EeePProg/linux/../BinFuncs.c ****          * Print ASCII Characters
 360:/home/hkh/git/eapidk-code-r76-trunk/apps/EeePProg/linux/../BinFuncs.c ****          */
 361:/home/hkh/git/eapidk-code-r76-trunk/apps/EeePProg/linux/../BinFuncs.c ****         for(stOffset=0;stOffset<stRowSize;stOffset++)
 1459              		.loc 1 361 21
 1460 0c80 0030A0E3 		mov	r3, #0
 1461 0c84 88300BE5 		str	r3, [fp, #-136]
 1462              		.loc 1 361 9
 1463 0c88 1A0000EA 		b	.L84
 1464              	.L87:
 362:/home/hkh/git/eapidk-code-r76-trunk/apps/EeePProg/linux/../BinFuncs.c ****         {
 363:/home/hkh/git/eapidk-code-r76-trunk/apps/EeePProg/linux/../BinFuncs.c ****           if((pcu8PageEnd>(pcu8Mem+stOffset))&&((stOffset+pcu8Mem)>=((uint8_t *)pcvBuffer))){
 1465              		.loc 1 363 35
 1466 0c8c 84201BE5 		ldr	r2, [fp, #-132]
 1467 0c90 88301BE5 		ldr	r3, [fp, #-136]
 1468 0c94 033082E0 		add	r3, r2, r3
 1469              		.loc 1 363 13
 1470 0c98 74201BE5 		ldr	r2, [fp, #-116]
 1471 0c9c 030052E1 		cmp	r2, r3
 1472 0ca0 0F00009A 		bls	.L85
 1473              		.loc 1 363 58 discriminator 1
 1474 0ca4 84201BE5 		ldr	r2, [fp, #-132]
 1475 0ca8 88301BE5 		ldr	r3, [fp, #-136]
 1476 0cac 033082E0 		add	r3, r2, r3
 1477              		.loc 1 363 46 discriminator 1
 1478 0cb0 90201BE5 		ldr	r2, [fp, #-144]
 1479 0cb4 030052E1 		cmp	r2, r3
 1480 0cb8 0900008A 		bhi	.L85
 364:/home/hkh/git/eapidk-code-r76-trunk/apps/EeePProg/linux/../BinFuncs.c ****             EAPI_printf(TEXT("%c"), cBin2Ascii(pcu8Mem[stOffset]));
 1481              		.loc 1 364 55
 1482 0cbc 84201BE5 		ldr	r2, [fp, #-132]
 1483 0cc0 88301BE5 		ldr	r3, [fp, #-136]
 1484 0cc4 033082E0 		add	r3, r2, r3
 1485 0cc8 0030D3E5 		ldrb	r3, [r3]	@ zero_extendqisi2
 1486              		.loc 1 364 37
 1487 0ccc 0300A0E1 		mov	r0, r3
 1488 0cd0 FEFFFFEB 		bl	cBin2Ascii(PLT)
 1489 0cd4 0030A0E1 		mov	r3, r0
 1490              		.loc 1 364 13
 1491 0cd8 0300A0E1 		mov	r0, r3
 1492 0cdc FEFFFFEB 		bl	putchar(PLT)
 1493 0ce0 010000EA 		b	.L86
 1494              	.L85:
 365:/home/hkh/git/eapidk-code-r76-trunk/apps/EeePProg/linux/../BinFuncs.c ****           }else{
 366:/home/hkh/git/eapidk-code-r76-trunk/apps/EeePProg/linux/../BinFuncs.c ****             EAPI_printf(TEXT(" "));
 1495              		.loc 1 366 13
 1496 0ce4 2000A0E3 		mov	r0, #32
 1497 0ce8 FEFFFFEB 		bl	putchar(PLT)
 1498              	.L86:
 361:/home/hkh/git/eapidk-code-r76-trunk/apps/EeePProg/linux/../BinFuncs.c ****         {
 1499              		.loc 1 361 51 discriminator 2
 1500 0cec 88301BE5 		ldr	r3, [fp, #-136]
ARM GAS  /tmp/cclMtiRJ.s 			page 35


 1501 0cf0 013083E2 		add	r3, r3, #1
 1502 0cf4 88300BE5 		str	r3, [fp, #-136]
 1503              	.L84:
 361:/home/hkh/git/eapidk-code-r76-trunk/apps/EeePProg/linux/../BinFuncs.c ****         {
 1504              		.loc 1 361 32 discriminator 1
 1505 0cf8 88201BE5 		ldr	r2, [fp, #-136]
 1506 0cfc 78301BE5 		ldr	r3, [fp, #-120]
 1507 0d00 030052E1 		cmp	r2, r3
 1508 0d04 E0FFFF3A 		bcc	.L87
 1509              	.L83:
 367:/home/hkh/git/eapidk-code-r76-trunk/apps/EeePProg/linux/../BinFuncs.c ****           }
 368:/home/hkh/git/eapidk-code-r76-trunk/apps/EeePProg/linux/../BinFuncs.c ****         }
 369:/home/hkh/git/eapidk-code-r76-trunk/apps/EeePProg/linux/../BinFuncs.c ****       }
 370:/home/hkh/git/eapidk-code-r76-trunk/apps/EeePProg/linux/../BinFuncs.c ****       pcu8Mem+=stRowSize;
 1510              		.loc 1 370 14
 1511 0d08 84201BE5 		ldr	r2, [fp, #-132]
 1512 0d0c 78301BE5 		ldr	r3, [fp, #-120]
 1513 0d10 033082E0 		add	r3, r2, r3
 1514 0d14 84300BE5 		str	r3, [fp, #-132]
 371:/home/hkh/git/eapidk-code-r76-trunk/apps/EeePProg/linux/../BinFuncs.c ****       EAPI_printf(TEXT("\n"));
 1515              		.loc 1 371 7
 1516 0d18 0A00A0E3 		mov	r0, #10
 1517 0d1c FEFFFFEB 		bl	putchar(PLT)
 1518              	.L69:
 313:/home/hkh/git/eapidk-code-r76-trunk/apps/EeePProg/linux/../BinFuncs.c ****     {
 1519              		.loc 1 313 18
 1520 0d20 84201BE5 		ldr	r2, [fp, #-132]
 1521 0d24 74301BE5 		ldr	r3, [fp, #-116]
 1522 0d28 030052E1 		cmp	r2, r3
 1523 0d2c 4BFFFF3A 		bcc	.L88
 372:/home/hkh/git/eapidk-code-r76-trunk/apps/EeePProg/linux/../BinFuncs.c ****     }
 373:/home/hkh/git/eapidk-code-r76-trunk/apps/EeePProg/linux/../BinFuncs.c **** EAPI_APP_ASSERT_EXIT
 1524              		.loc 1 373 1
 1525 0d30 000000EA 		b	.L64
 1526              	.L91:
 308:/home/hkh/git/eapidk-code-r76-trunk/apps/EeePProg/linux/../BinFuncs.c **** 
 1527              		.loc 1 308 22
 1528 0d34 00F020E3 		nop
 1529              	.L64:
 374:/home/hkh/git/eapidk-code-r76-trunk/apps/EeePProg/linux/../BinFuncs.c ****   return StatusCode;
 1530              		.loc 1 374 10
 1531 0d38 8C301BE5 		ldr	r3, [fp, #-140]
 274:/home/hkh/git/eapidk-code-r76-trunk/apps/EeePProg/linux/../BinFuncs.c ****   EApiStatus_t StatusCode=EAPI_STATUS_SUCCESS;
 1532              		.loc 1 274 1
 1533 0d3c 68109FE5 		ldr	r1, .L92+60
 1534              	.LPIC56:
 1535 0d40 01108FE0 		add	r1, pc, r1
 375:/home/hkh/git/eapidk-code-r76-trunk/apps/EeePProg/linux/../BinFuncs.c **** }
 1536              		.loc 1 375 1
 1537 0d44 28209FE5 		ldr	r2, .L92+4
 1538 0d48 022091E7 		ldr	r2, [r1, r2]
 1539 0d4c 001092E5 		ldr	r1, [r2]
 1540 0d50 08201BE5 		ldr	r2, [fp, #-8]
 1541 0d54 011032E0 		eors	r1, r2, r1
 1542 0d58 0020A0E3 		mov	r2, #0
 1543 0d5c 0000000A 		beq	.L90
 1544 0d60 FEFFFFEB 		bl	__stack_chk_fail(PLT)
ARM GAS  /tmp/cclMtiRJ.s 			page 36


 1545              	.L90:
 1546 0d64 0300A0E1 		mov	r0, r3
 1547 0d68 04D04BE2 		sub	sp, fp, #4
 1548              		.cfi_def_cfa 13, 8
 1549              		@ sp needed
 1550 0d6c 0088BDE8 		pop	{fp, pc}
 1551              	.L93:
 1552              		.align	2
 1553              	.L92:
 1554 0d70 78040000 		.word	_GLOBAL_OFFSET_TABLE_-(.LPIC55+8)
 1555 0d74 00000000 		.word	__stack_chk_guard(GOT)
 1556 0d78 E8040000 		.word	.LC6-(.LPIC42+8)
 1557 0d7c B8040000 		.word	.LC3-(.LPIC43+8)
 1558 0d80 DC050000 		.word	.LC17-(.LPIC44+8)
 1559 0d84 44040000 		.word	.LC1-(.LPIC45+8)
 1560 0d88 68050000 		.word	.LC18-(.LPIC46+8)
 1561 0d8c 3C050000 		.word	.LC19-(.LPIC47+8)
 1562 0d90 C0040000 		.word	.LC20-(.LPIC48+8)
 1563 0d94 94040000 		.word	.LC21-(.LPIC49+8)
 1564 0d98 4C040000 		.word	.LC22-(.LPIC50+8)
 1565 0d9c FC030000 		.word	.LC23-(.LPIC51+8)
 1566 0da0 90030000 		.word	.LC24-(.LPIC52+8)
 1567 0da4 78030000 		.word	.LC25-(.LPIC53+8)
 1568 0da8 74030000 		.word	.LC26-(.LPIC54+8)
 1569 0dac 64000000 		.word	_GLOBAL_OFFSET_TABLE_-(.LPIC56+8)
 1570              		.cfi_endproc
 1571              	.LFE11:
 1573              		.align	2
 1574              		.global	PrintHexAsciiTable
 1575              		.syntax unified
 1576              		.arm
 1577              		.fpu vfpv3
 1579              	PrintHexAsciiTable:
 1580              	.LFB12:
 376:/home/hkh/git/eapidk-code-r76-trunk/apps/EeePProg/linux/../BinFuncs.c **** 
 377:/home/hkh/git/eapidk-code-r76-trunk/apps/EeePProg/linux/../BinFuncs.c **** void 
 378:/home/hkh/git/eapidk-code-r76-trunk/apps/EeePProg/linux/../BinFuncs.c **** PrintHexAsciiTable(
 379:/home/hkh/git/eapidk-code-r76-trunk/apps/EeePProg/linux/../BinFuncs.c **** 	__IN    const void *const pcvBuffer             ,
 380:/home/hkh/git/eapidk-code-r76-trunk/apps/EeePProg/linux/../BinFuncs.c **** 	__IN    const size_t      cstBufSize	        ,
 381:/home/hkh/git/eapidk-code-r76-trunk/apps/EeePProg/linux/../BinFuncs.c **** 	__IN    const void *const pcvBase		,
 382:/home/hkh/git/eapidk-code-r76-trunk/apps/EeePProg/linux/../BinFuncs.c **** 	__IN    const TCHAR *const pcszDescription
 383:/home/hkh/git/eapidk-code-r76-trunk/apps/EeePProg/linux/../BinFuncs.c **** 	)
 384:/home/hkh/git/eapidk-code-r76-trunk/apps/EeePProg/linux/../BinFuncs.c **** {
 1581              		.loc 1 384 1
 1582              		.cfi_startproc
 1583              		@ args = 0, pretend = 0, frame = 16
 1584              		@ frame_needed = 1, uses_anonymous_args = 0
 1585 0db0 00482DE9 		push	{fp, lr}
 1586              		.cfi_def_cfa_offset 8
 1587              		.cfi_offset 11, -8
 1588              		.cfi_offset 14, -4
 1589 0db4 04B08DE2 		add	fp, sp, #4
 1590              		.cfi_def_cfa 11, 4
 1591 0db8 18D04DE2 		sub	sp, sp, #24
 1592 0dbc 08000BE5 		str	r0, [fp, #-8]
 1593 0dc0 0C100BE5 		str	r1, [fp, #-12]
 1594 0dc4 10200BE5 		str	r2, [fp, #-16]
ARM GAS  /tmp/cclMtiRJ.s 			page 37


 1595 0dc8 14300BE5 		str	r3, [fp, #-20]
 385:/home/hkh/git/eapidk-code-r76-trunk/apps/EeePProg/linux/../BinFuncs.c ****   PrintHexAsciiTableEx(
 1596              		.loc 1 385 3
 1597 0dcc BD3EA0E3 		mov	r3, #3024
 1598 0dd0 00308DE5 		str	r3, [sp]
 1599 0dd4 14301BE5 		ldr	r3, [fp, #-20]
 1600 0dd8 10201BE5 		ldr	r2, [fp, #-16]
 1601 0ddc 0C101BE5 		ldr	r1, [fp, #-12]
 1602 0de0 08001BE5 		ldr	r0, [fp, #-8]
 1603 0de4 FEFFFFEB 		bl	PrintHexAsciiTableEx(PLT)
 386:/home/hkh/git/eapidk-code-r76-trunk/apps/EeePProg/linux/../BinFuncs.c ****       pcvBuffer           ,
 387:/home/hkh/git/eapidk-code-r76-trunk/apps/EeePProg/linux/../BinFuncs.c ****       cstBufSize          ,
 388:/home/hkh/git/eapidk-code-r76-trunk/apps/EeePProg/linux/../BinFuncs.c ****       pcvBase             ,
 389:/home/hkh/git/eapidk-code-r76-trunk/apps/EeePProg/linux/../BinFuncs.c ****       pcszDescription     ,
 390:/home/hkh/git/eapidk-code-r76-trunk/apps/EeePProg/linux/../BinFuncs.c ****       HEXTBL_NORM8_ATTRIB
 391:/home/hkh/git/eapidk-code-r76-trunk/apps/EeePProg/linux/../BinFuncs.c ****     );
 392:/home/hkh/git/eapidk-code-r76-trunk/apps/EeePProg/linux/../BinFuncs.c **** }
 1604              		.loc 1 392 1
 1605 0de8 00F020E3 		nop
 1606 0dec 04D04BE2 		sub	sp, fp, #4
 1607              		.cfi_def_cfa 13, 8
 1608              		@ sp needed
 1609 0df0 0088BDE8 		pop	{fp, pc}
 1610              		.cfi_endproc
 1611              	.LFE12:
 1613              		.section	.rodata
 1614 021d 000000   		.align	2
 1615              	.LC27:
 1616 0220 4C636C57 		.ascii	"LclWriteFile\000"
 1616      72697465 
 1616      46696C65 
 1616      00
 1617 022d 000000   		.align	2
 1618              	.LC28:
 1619 0230 2863737A 		.ascii	"(cszFilename==NULL)\000"
 1619      46696C65 
 1619      6E616D65 
 1619      3D3D4E55 
 1619      4C4C2900 
 1620              		.align	2
 1621              	.LC29:
 1622 0244 28737457 		.ascii	"(stWriteBCnt==0)\000"
 1622      72697465 
 1622      42436E74 
 1622      3D3D3029 
 1622      00
 1623 0255 000000   		.align	2
 1624              	.LC30:
 1625 0258 4F70656E 		.ascii	"Opening File %s(%s)\012\000"
 1625      696E6720 
 1625      46696C65 
 1625      20257328 
 1625      2573290A 
 1626 026d 000000   		.align	2
 1627              	.LC31:
 1628 0270 28737457 		.ascii	"(stWriteBCnt!=fwrite(pcvBuffer, sizeof(uint8_t), st"
 1628      72697465 
ARM GAS  /tmp/cclMtiRJ.s 			page 38


 1628      42436E74 
 1628      213D6677 
 1628      72697465 
 1629 02a3 57726974 		.ascii	"WriteBCnt, LclFilePtr))\000"
 1629      6542436E 
 1629      742C204C 
 1629      636C4669 
 1629      6C655074 
 1630              		.text
 1631              		.align	2
 1632              		.global	LclWriteFile
 1633              		.syntax unified
 1634              		.arm
 1635              		.fpu vfpv3
 1637              	LclWriteFile:
 1638              	.LFB13:
 393:/home/hkh/git/eapidk-code-r76-trunk/apps/EeePProg/linux/../BinFuncs.c **** 
 394:/home/hkh/git/eapidk-code-r76-trunk/apps/EeePProg/linux/../BinFuncs.c **** 
 395:/home/hkh/git/eapidk-code-r76-trunk/apps/EeePProg/linux/../BinFuncs.c **** 
 396:/home/hkh/git/eapidk-code-r76-trunk/apps/EeePProg/linux/../BinFuncs.c **** /*
 397:/home/hkh/git/eapidk-code-r76-trunk/apps/EeePProg/linux/../BinFuncs.c ****  *
 398:/home/hkh/git/eapidk-code-r76-trunk/apps/EeePProg/linux/../BinFuncs.c ****  *
 399:/home/hkh/git/eapidk-code-r76-trunk/apps/EeePProg/linux/../BinFuncs.c ****  *
 400:/home/hkh/git/eapidk-code-r76-trunk/apps/EeePProg/linux/../BinFuncs.c ****  *  File Access Routines
 401:/home/hkh/git/eapidk-code-r76-trunk/apps/EeePProg/linux/../BinFuncs.c ****  *
 402:/home/hkh/git/eapidk-code-r76-trunk/apps/EeePProg/linux/../BinFuncs.c ****  *
 403:/home/hkh/git/eapidk-code-r76-trunk/apps/EeePProg/linux/../BinFuncs.c ****  *
 404:/home/hkh/git/eapidk-code-r76-trunk/apps/EeePProg/linux/../BinFuncs.c ****  */
 405:/home/hkh/git/eapidk-code-r76-trunk/apps/EeePProg/linux/../BinFuncs.c **** EApiStatus_t 
 406:/home/hkh/git/eapidk-code-r76-trunk/apps/EeePProg/linux/../BinFuncs.c **** LclWriteFile(
 407:/home/hkh/git/eapidk-code-r76-trunk/apps/EeePProg/linux/../BinFuncs.c ****     __IN const char *cszFilename, 
 408:/home/hkh/git/eapidk-code-r76-trunk/apps/EeePProg/linux/../BinFuncs.c ****     __IN const void *pcvBuffer  , 
 409:/home/hkh/git/eapidk-code-r76-trunk/apps/EeePProg/linux/../BinFuncs.c ****     __IN size_t      stWriteBCnt,
 410:/home/hkh/git/eapidk-code-r76-trunk/apps/EeePProg/linux/../BinFuncs.c ****     __IN const char *cszWriteType
 411:/home/hkh/git/eapidk-code-r76-trunk/apps/EeePProg/linux/../BinFuncs.c ****   )
 412:/home/hkh/git/eapidk-code-r76-trunk/apps/EeePProg/linux/../BinFuncs.c **** {
 1639              		.loc 1 412 1
 1640              		.cfi_startproc
 1641              		@ args = 0, pretend = 0, frame = 24
 1642              		@ frame_needed = 1, uses_anonymous_args = 0
 1643 0df4 00482DE9 		push	{fp, lr}
 1644              		.cfi_def_cfa_offset 8
 1645              		.cfi_offset 11, -8
 1646              		.cfi_offset 14, -4
 1647 0df8 04B08DE2 		add	fp, sp, #4
 1648              		.cfi_def_cfa 11, 4
 1649 0dfc 28D04DE2 		sub	sp, sp, #40
 1650 0e00 10000BE5 		str	r0, [fp, #-16]
 1651 0e04 14100BE5 		str	r1, [fp, #-20]
 1652 0e08 18200BE5 		str	r2, [fp, #-24]
 1653 0e0c 1C300BE5 		str	r3, [fp, #-28]
 413:/home/hkh/git/eapidk-code-r76-trunk/apps/EeePProg/linux/../BinFuncs.c ****   EApiStatus_t StatusCode=EAPI_STATUS_SUCCESS;
 1654              		.loc 1 413 16
 1655 0e10 0030A0E3 		mov	r3, #0
 1656 0e14 0C300BE5 		str	r3, [fp, #-12]
 414:/home/hkh/git/eapidk-code-r76-trunk/apps/EeePProg/linux/../BinFuncs.c ****   FILE *LclFilePtr;
 415:/home/hkh/git/eapidk-code-r76-trunk/apps/EeePProg/linux/../BinFuncs.c ****   EAPI_APP_ASSERT_PARAMATER_NULL(
ARM GAS  /tmp/cclMtiRJ.s 			page 39


 1657              		.loc 1 415 3
 1658 0e18 10301BE5 		ldr	r3, [fp, #-16]
 1659 0e1c 000053E3 		cmp	r3, #0
 1660 0e20 1100001A 		bne	.L96
 1661              		.loc 1 415 3 is_stmt 0 discriminator 1
 1662 0e24 E0319FE5 		ldr	r3, .L103
 1663              	.LPIC57:
 1664 0e28 03308FE0 		add	r3, pc, r3
 1665 0e2c 08308DE5 		str	r3, [sp, #8]
 1666 0e30 D8319FE5 		ldr	r3, .L103+4
 1667              	.LPIC58:
 1668 0e34 03308FE0 		add	r3, pc, r3
 1669 0e38 04308DE5 		str	r3, [sp, #4]
 1670 0e3c 013CE0E3 		mvn	r3, #256
 1671 0e40 00308DE5 		str	r3, [sp]
 1672 0e44 9F3100E3 		movw	r3, #415
 1673 0e48 C4219FE5 		ldr	r2, .L103+8
 1674              	.LPIC59:
 1675 0e4c 02208FE0 		add	r2, pc, r2
 1676 0e50 C0119FE5 		ldr	r1, .L103+12
 1677              	.LPIC60:
 1678 0e54 01108FE0 		add	r1, pc, r1
 1679 0e58 4500A0E3 		mov	r0, #69
 1680 0e5c FEFFFFEB 		bl	siFormattedMessage_SC(PLT)
 1681 0e60 013CE0E3 		mvn	r3, #256
 1682 0e64 0C300BE5 		str	r3, [fp, #-12]
 1683 0e68 630000EA 		b	.L97
 1684              	.L96:
 416:/home/hkh/git/eapidk-code-r76-trunk/apps/EeePProg/linux/../BinFuncs.c ****       LclWriteFile,
 417:/home/hkh/git/eapidk-code-r76-trunk/apps/EeePProg/linux/../BinFuncs.c ****       EAPI_STATUS_INVALID_PARAMETER,
 418:/home/hkh/git/eapidk-code-r76-trunk/apps/EeePProg/linux/../BinFuncs.c ****       cszFilename
 419:/home/hkh/git/eapidk-code-r76-trunk/apps/EeePProg/linux/../BinFuncs.c ****     );
 420:/home/hkh/git/eapidk-code-r76-trunk/apps/EeePProg/linux/../BinFuncs.c ****   EAPI_APP_ASSERT_PARAMATER_NULL(
 1685              		.loc 1 420 3 is_stmt 1
 1686 0e6c 14301BE5 		ldr	r3, [fp, #-20]
 1687 0e70 000053E3 		cmp	r3, #0
 1688 0e74 1100001A 		bne	.L98
 1689              		.loc 1 420 3 is_stmt 0 discriminator 1
 1690 0e78 9C319FE5 		ldr	r3, .L103+16
 1691              	.LPIC61:
 1692 0e7c 03308FE0 		add	r3, pc, r3
 1693 0e80 08308DE5 		str	r3, [sp, #8]
 1694 0e84 94319FE5 		ldr	r3, .L103+20
 1695              	.LPIC62:
 1696 0e88 03308FE0 		add	r3, pc, r3
 1697 0e8c 04308DE5 		str	r3, [sp, #4]
 1698 0e90 013CE0E3 		mvn	r3, #256
 1699 0e94 00308DE5 		str	r3, [sp]
 1700 0e98 693FA0E3 		mov	r3, #420
 1701 0e9c 80219FE5 		ldr	r2, .L103+24
 1702              	.LPIC63:
 1703 0ea0 02208FE0 		add	r2, pc, r2
 1704 0ea4 7C119FE5 		ldr	r1, .L103+28
 1705              	.LPIC64:
 1706 0ea8 01108FE0 		add	r1, pc, r1
 1707 0eac 4500A0E3 		mov	r0, #69
 1708 0eb0 FEFFFFEB 		bl	siFormattedMessage_SC(PLT)
ARM GAS  /tmp/cclMtiRJ.s 			page 40


 1709 0eb4 013CE0E3 		mvn	r3, #256
 1710 0eb8 0C300BE5 		str	r3, [fp, #-12]
 1711 0ebc 4E0000EA 		b	.L97
 1712              	.L98:
 421:/home/hkh/git/eapidk-code-r76-trunk/apps/EeePProg/linux/../BinFuncs.c ****       LclWriteFile,
 422:/home/hkh/git/eapidk-code-r76-trunk/apps/EeePProg/linux/../BinFuncs.c ****       EAPI_STATUS_INVALID_PARAMETER,
 423:/home/hkh/git/eapidk-code-r76-trunk/apps/EeePProg/linux/../BinFuncs.c ****       pcvBuffer
 424:/home/hkh/git/eapidk-code-r76-trunk/apps/EeePProg/linux/../BinFuncs.c ****     );
 425:/home/hkh/git/eapidk-code-r76-trunk/apps/EeePProg/linux/../BinFuncs.c ****   EAPI_APP_ASSERT_PARAMATER_ZERO(
 1713              		.loc 1 425 3 is_stmt 1
 1714 0ec0 18301BE5 		ldr	r3, [fp, #-24]
 1715 0ec4 000053E3 		cmp	r3, #0
 1716 0ec8 1100001A 		bne	.L99
 1717              		.loc 1 425 3 is_stmt 0 discriminator 1
 1718 0ecc 58319FE5 		ldr	r3, .L103+32
 1719              	.LPIC65:
 1720 0ed0 03308FE0 		add	r3, pc, r3
 1721 0ed4 08308DE5 		str	r3, [sp, #8]
 1722 0ed8 50319FE5 		ldr	r3, .L103+36
 1723              	.LPIC66:
 1724 0edc 03308FE0 		add	r3, pc, r3
 1725 0ee0 04308DE5 		str	r3, [sp, #4]
 1726 0ee4 013CE0E3 		mvn	r3, #256
 1727 0ee8 00308DE5 		str	r3, [sp]
 1728 0eec A93100E3 		movw	r3, #425
 1729 0ef0 3C219FE5 		ldr	r2, .L103+40
 1730              	.LPIC67:
 1731 0ef4 02208FE0 		add	r2, pc, r2
 1732 0ef8 38119FE5 		ldr	r1, .L103+44
 1733              	.LPIC68:
 1734 0efc 01108FE0 		add	r1, pc, r1
 1735 0f00 4500A0E3 		mov	r0, #69
 1736 0f04 FEFFFFEB 		bl	siFormattedMessage_SC(PLT)
 1737 0f08 013CE0E3 		mvn	r3, #256
 1738 0f0c 0C300BE5 		str	r3, [fp, #-12]
 1739 0f10 390000EA 		b	.L97
 1740              	.L99:
 426:/home/hkh/git/eapidk-code-r76-trunk/apps/EeePProg/linux/../BinFuncs.c ****       LclWriteFile,
 427:/home/hkh/git/eapidk-code-r76-trunk/apps/EeePProg/linux/../BinFuncs.c ****       EAPI_STATUS_INVALID_PARAMETER,
 428:/home/hkh/git/eapidk-code-r76-trunk/apps/EeePProg/linux/../BinFuncs.c ****       stWriteBCnt
 429:/home/hkh/git/eapidk-code-r76-trunk/apps/EeePProg/linux/../BinFuncs.c ****     );
 430:/home/hkh/git/eapidk-code-r76-trunk/apps/EeePProg/linux/../BinFuncs.c **** 
 431:/home/hkh/git/eapidk-code-r76-trunk/apps/EeePProg/linux/../BinFuncs.c ****   LclFilePtr=fopen(cszFilename, cszWriteType);
 1741              		.loc 1 431 14 is_stmt 1
 1742 0f14 1C101BE5 		ldr	r1, [fp, #-28]
 1743 0f18 10001BE5 		ldr	r0, [fp, #-16]
 1744 0f1c FEFFFFEB 		bl	fopen(PLT)
 1745 0f20 08000BE5 		str	r0, [fp, #-8]
 432:/home/hkh/git/eapidk-code-r76-trunk/apps/EeePProg/linux/../BinFuncs.c ****   if(LclFilePtr==NULL){
 1746              		.loc 1 432 5
 1747 0f24 08301BE5 		ldr	r3, [fp, #-8]
 1748 0f28 000053E3 		cmp	r3, #0
 1749 0f2c 1300001A 		bne	.L100
 433:/home/hkh/git/eapidk-code-r76-trunk/apps/EeePProg/linux/../BinFuncs.c ****     StatusCode=EAPI_STATUS_WRITE_ERROR;
 1750              		.loc 1 433 15
 1751 0f30 FE3A0FE3 		movw	r3, #64254
 1752 0f34 FF3F4FE3 		movt	r3, 65535
ARM GAS  /tmp/cclMtiRJ.s 			page 41


 1753 0f38 0C300BE5 		str	r3, [fp, #-12]
 434:/home/hkh/git/eapidk-code-r76-trunk/apps/EeePProg/linux/../BinFuncs.c ****     siFormattedMessage_SC('L', __FILE__, "LclWriteFile", __LINE__, StatusCode,
 1754              		.loc 1 434 5
 1755 0f3c 1C301BE5 		ldr	r3, [fp, #-28]
 1756 0f40 0C308DE5 		str	r3, [sp, #12]
 1757 0f44 10301BE5 		ldr	r3, [fp, #-16]
 1758 0f48 08308DE5 		str	r3, [sp, #8]
 1759 0f4c E8309FE5 		ldr	r3, .L103+48
 1760              	.LPIC69:
 1761 0f50 03308FE0 		add	r3, pc, r3
 1762 0f54 04308DE5 		str	r3, [sp, #4]
 1763 0f58 0C301BE5 		ldr	r3, [fp, #-12]
 1764 0f5c 00308DE5 		str	r3, [sp]
 1765 0f60 B23100E3 		movw	r3, #434
 1766 0f64 D4209FE5 		ldr	r2, .L103+52
 1767              	.LPIC70:
 1768 0f68 02208FE0 		add	r2, pc, r2
 1769 0f6c D0109FE5 		ldr	r1, .L103+56
 1770              	.LPIC71:
 1771 0f70 01108FE0 		add	r1, pc, r1
 1772 0f74 4C00A0E3 		mov	r0, #76
 1773 0f78 FEFFFFEB 		bl	siFormattedMessage_SC(PLT)
 435:/home/hkh/git/eapidk-code-r76-trunk/apps/EeePProg/linux/../BinFuncs.c ****         "Opening File %s(%s)\n", cszFilename, cszWriteType);
 436:/home/hkh/git/eapidk-code-r76-trunk/apps/EeePProg/linux/../BinFuncs.c ****     EAPI_APP_EXIT;
 1774              		.loc 1 436 5
 1775 0f7c 1E0000EA 		b	.L97
 1776              	.L100:
 437:/home/hkh/git/eapidk-code-r76-trunk/apps/EeePProg/linux/../BinFuncs.c ****   }
 438:/home/hkh/git/eapidk-code-r76-trunk/apps/EeePProg/linux/../BinFuncs.c ****   EAPI_APP_RETURN_ERROR_IF_S(
 1777              		.loc 1 438 3
 1778 0f80 08301BE5 		ldr	r3, [fp, #-8]
 1779 0f84 18201BE5 		ldr	r2, [fp, #-24]
 1780 0f88 0110A0E3 		mov	r1, #1
 1781 0f8c 14001BE5 		ldr	r0, [fp, #-20]
 1782 0f90 FEFFFFEB 		bl	fwrite(PLT)
 1783 0f94 0020A0E1 		mov	r2, r0
 1784 0f98 18301BE5 		ldr	r3, [fp, #-24]
 1785 0f9c 020053E1 		cmp	r3, r2
 1786 0fa0 1300000A 		beq	.L101
 1787              		.loc 1 438 3 is_stmt 0 discriminator 1
 1788 0fa4 9C309FE5 		ldr	r3, .L103+60
 1789              	.LPIC72:
 1790 0fa8 03308FE0 		add	r3, pc, r3
 1791 0fac 08308DE5 		str	r3, [sp, #8]
 1792 0fb0 94309FE5 		ldr	r3, .L103+64
 1793              	.LPIC73:
 1794 0fb4 03308FE0 		add	r3, pc, r3
 1795 0fb8 04308DE5 		str	r3, [sp, #4]
 1796 0fbc FE3A0FE3 		movw	r3, #64254
 1797 0fc0 FF3F4FE3 		movt	r3, 65535
 1798 0fc4 00308DE5 		str	r3, [sp]
 1799 0fc8 B63100E3 		movw	r3, #438
 1800 0fcc 7C209FE5 		ldr	r2, .L103+68
 1801              	.LPIC74:
 1802 0fd0 02208FE0 		add	r2, pc, r2
 1803 0fd4 78109FE5 		ldr	r1, .L103+72
 1804              	.LPIC75:
ARM GAS  /tmp/cclMtiRJ.s 			page 42


 1805 0fd8 01108FE0 		add	r1, pc, r1
 1806 0fdc 4500A0E3 		mov	r0, #69
 1807 0fe0 FEFFFFEB 		bl	siFormattedMessage_SC(PLT)
 1808 0fe4 FE3A0FE3 		movw	r3, #64254
 1809 0fe8 FF3F4FE3 		movt	r3, 65535
 1810 0fec 0C300BE5 		str	r3, [fp, #-12]
 1811 0ff0 010000EA 		b	.L97
 1812              	.L101:
 439:/home/hkh/git/eapidk-code-r76-trunk/apps/EeePProg/linux/../BinFuncs.c ****       LclWriteFile,
 440:/home/hkh/git/eapidk-code-r76-trunk/apps/EeePProg/linux/../BinFuncs.c ****       (stWriteBCnt!=fwrite(pcvBuffer, sizeof(uint8_t), stWriteBCnt, LclFilePtr)),
 441:/home/hkh/git/eapidk-code-r76-trunk/apps/EeePProg/linux/../BinFuncs.c ****       EAPI_STATUS_WRITE_ERROR
 442:/home/hkh/git/eapidk-code-r76-trunk/apps/EeePProg/linux/../BinFuncs.c ****     );
 443:/home/hkh/git/eapidk-code-r76-trunk/apps/EeePProg/linux/../BinFuncs.c ****   fclose(LclFilePtr);
 1813              		.loc 1 443 3 is_stmt 1
 1814 0ff4 08001BE5 		ldr	r0, [fp, #-8]
 1815 0ff8 FEFFFFEB 		bl	fclose(PLT)
 1816              	.L97:
 444:/home/hkh/git/eapidk-code-r76-trunk/apps/EeePProg/linux/../BinFuncs.c **** EAPI_APP_ASSERT_EXIT
 445:/home/hkh/git/eapidk-code-r76-trunk/apps/EeePProg/linux/../BinFuncs.c ****   return StatusCode;
 1817              		.loc 1 445 10
 1818 0ffc 0C301BE5 		ldr	r3, [fp, #-12]
 446:/home/hkh/git/eapidk-code-r76-trunk/apps/EeePProg/linux/../BinFuncs.c **** }
 1819              		.loc 1 446 1
 1820 1000 0300A0E1 		mov	r0, r3
 1821 1004 04D04BE2 		sub	sp, fp, #4
 1822              		.cfi_def_cfa 13, 8
 1823              		@ sp needed
 1824 1008 0088BDE8 		pop	{fp, pc}
 1825              	.L104:
 1826              		.align	2
 1827              	.L103:
 1828 100c 0C040000 		.word	.LC28-(.LPIC57+8)
 1829 1010 44020000 		.word	.LC3-(.LPIC58+8)
 1830 1014 E0030000 		.word	.LC27-(.LPIC59+8)
 1831 1018 D0010000 		.word	.LC1-(.LPIC60+8)
 1832 101c 30020000 		.word	.LC6-(.LPIC61+8)
 1833 1020 00020000 		.word	.LC3-(.LPIC62+8)
 1834 1024 9C030000 		.word	.LC27-(.LPIC63+8)
 1835 1028 8C010000 		.word	.LC1-(.LPIC64+8)
 1836 102c 98030000 		.word	.LC29-(.LPIC65+8)
 1837 1030 BC010000 		.word	.LC3-(.LPIC66+8)
 1838 1034 58030000 		.word	.LC27-(.LPIC67+8)
 1839 1038 48010000 		.word	.LC1-(.LPIC68+8)
 1840 103c 3C030000 		.word	.LC30-(.LPIC69+8)
 1841 1040 F0020000 		.word	.LC27-(.LPIC70+8)
 1842 1044 E0000000 		.word	.LC1-(.LPIC71+8)
 1843 1048 08030000 		.word	.LC31-(.LPIC72+8)
 1844 104c 00010000 		.word	.LC3-(.LPIC73+8)
 1845 1050 98020000 		.word	.LC27-(.LPIC74+8)
 1846 1054 88000000 		.word	.LC1-(.LPIC75+8)
 1847              		.cfi_endproc
 1848              	.LFE13:
 1850              		.section	.rodata
 1851 02bb 00       		.align	2
 1852              	.LC32:
 1853 02bc 4C636C52 		.ascii	"LclReadFile\000"
 1853      65616446 
ARM GAS  /tmp/cclMtiRJ.s 			page 43


 1853      696C6500 
 1854              		.align	2
 1855              	.LC33:
 1856 02c8 28707642 		.ascii	"(pvBuffer==NULL)\000"
 1856      75666665 
 1856      723D3D4E 
 1856      554C4C29 
 1856      00
 1857 02d9 000000   		.align	2
 1858              	.LC34:
 1859 02dc 28707374 		.ascii	"(pstReadBCnt==NULL)\000"
 1859      52656164 
 1859      42436E74 
 1859      3D3D4E55 
 1859      4C4C2900 
 1860              		.align	2
 1861              	.LC35:
 1862 02f0 282A7076 		.ascii	"(*pvBuffer==NULL)\000"
 1862      42756666 
 1862      65723D3D 
 1862      4E554C4C 
 1862      2900
 1863              		.text
 1864              		.align	2
 1865              		.global	LclReadFile
 1866              		.syntax unified
 1867              		.arm
 1868              		.fpu vfpv3
 1870              	LclReadFile:
 1871              	.LFB14:
 447:/home/hkh/git/eapidk-code-r76-trunk/apps/EeePProg/linux/../BinFuncs.c **** 
 448:/home/hkh/git/eapidk-code-r76-trunk/apps/EeePProg/linux/../BinFuncs.c **** EApiStatus_t
 449:/home/hkh/git/eapidk-code-r76-trunk/apps/EeePProg/linux/../BinFuncs.c **** LclReadFile(
 450:/home/hkh/git/eapidk-code-r76-trunk/apps/EeePProg/linux/../BinFuncs.c ****     __IN  const char *cszFilename, 
 451:/home/hkh/git/eapidk-code-r76-trunk/apps/EeePProg/linux/../BinFuncs.c ****     __OUT void      **pvBuffer, 
 452:/home/hkh/git/eapidk-code-r76-trunk/apps/EeePProg/linux/../BinFuncs.c ****     __OUT size_t     *pstReadBCnt,
 453:/home/hkh/git/eapidk-code-r76-trunk/apps/EeePProg/linux/../BinFuncs.c ****     __IN  const char *cszReadType 
 454:/home/hkh/git/eapidk-code-r76-trunk/apps/EeePProg/linux/../BinFuncs.c ****   )
 455:/home/hkh/git/eapidk-code-r76-trunk/apps/EeePProg/linux/../BinFuncs.c **** {
 1872              		.loc 1 455 1
 1873              		.cfi_startproc
 1874              		@ args = 0, pretend = 0, frame = 32
 1875              		@ frame_needed = 1, uses_anonymous_args = 0
 1876 1058 00482DE9 		push	{fp, lr}
 1877              		.cfi_def_cfa_offset 8
 1878              		.cfi_offset 11, -8
 1879              		.cfi_offset 14, -4
 1880 105c 04B08DE2 		add	fp, sp, #4
 1881              		.cfi_def_cfa 11, 4
 1882 1060 30D04DE2 		sub	sp, sp, #48
 1883 1064 18000BE5 		str	r0, [fp, #-24]
 1884 1068 1C100BE5 		str	r1, [fp, #-28]
 1885 106c 20200BE5 		str	r2, [fp, #-32]
 1886 1070 24300BE5 		str	r3, [fp, #-36]
 456:/home/hkh/git/eapidk-code-r76-trunk/apps/EeePProg/linux/../BinFuncs.c ****   EApiStatus_t StatusCode=EAPI_STATUS_SUCCESS;
 1887              		.loc 1 456 16
 1888 1074 0030A0E3 		mov	r3, #0
ARM GAS  /tmp/cclMtiRJ.s 			page 44


 1889 1078 10300BE5 		str	r3, [fp, #-16]
 457:/home/hkh/git/eapidk-code-r76-trunk/apps/EeePProg/linux/../BinFuncs.c ****   FILE *LclFilePtr;
 458:/home/hkh/git/eapidk-code-r76-trunk/apps/EeePProg/linux/../BinFuncs.c ****   size_t stFileLen;
 459:/home/hkh/git/eapidk-code-r76-trunk/apps/EeePProg/linux/../BinFuncs.c ****   EAPI_APP_ASSERT_PARAMATER_NULL(
 1890              		.loc 1 459 3
 1891 107c 18301BE5 		ldr	r3, [fp, #-24]
 1892 1080 000053E3 		cmp	r3, #0
 1893 1084 1100001A 		bne	.L106
 1894              		.loc 1 459 3 is_stmt 0 discriminator 1
 1895 1088 40329FE5 		ldr	r3, .L113
 1896              	.LPIC76:
 1897 108c 03308FE0 		add	r3, pc, r3
 1898 1090 08308DE5 		str	r3, [sp, #8]
 1899 1094 38329FE5 		ldr	r3, .L113+4
 1900              	.LPIC77:
 1901 1098 03308FE0 		add	r3, pc, r3
 1902 109c 04308DE5 		str	r3, [sp, #4]
 1903 10a0 013CE0E3 		mvn	r3, #256
 1904 10a4 00308DE5 		str	r3, [sp]
 1905 10a8 CB3100E3 		movw	r3, #459
 1906 10ac 24229FE5 		ldr	r2, .L113+8
 1907              	.LPIC78:
 1908 10b0 02208FE0 		add	r2, pc, r2
 1909 10b4 20129FE5 		ldr	r1, .L113+12
 1910              	.LPIC79:
 1911 10b8 01108FE0 		add	r1, pc, r1
 1912 10bc 4500A0E3 		mov	r0, #69
 1913 10c0 FEFFFFEB 		bl	siFormattedMessage_SC(PLT)
 1914 10c4 013CE0E3 		mvn	r3, #256
 1915 10c8 10300BE5 		str	r3, [fp, #-16]
 1916 10cc 7B0000EA 		b	.L107
 1917              	.L106:
 460:/home/hkh/git/eapidk-code-r76-trunk/apps/EeePProg/linux/../BinFuncs.c ****       LclReadFile,
 461:/home/hkh/git/eapidk-code-r76-trunk/apps/EeePProg/linux/../BinFuncs.c ****       EAPI_STATUS_INVALID_PARAMETER,
 462:/home/hkh/git/eapidk-code-r76-trunk/apps/EeePProg/linux/../BinFuncs.c ****       cszFilename
 463:/home/hkh/git/eapidk-code-r76-trunk/apps/EeePProg/linux/../BinFuncs.c ****     );
 464:/home/hkh/git/eapidk-code-r76-trunk/apps/EeePProg/linux/../BinFuncs.c ****   EAPI_APP_ASSERT_PARAMATER_NULL(
 1918              		.loc 1 464 3 is_stmt 1
 1919 10d0 1C301BE5 		ldr	r3, [fp, #-28]
 1920 10d4 000053E3 		cmp	r3, #0
 1921 10d8 1100001A 		bne	.L108
 1922              		.loc 1 464 3 is_stmt 0 discriminator 1
 1923 10dc FC319FE5 		ldr	r3, .L113+16
 1924              	.LPIC80:
 1925 10e0 03308FE0 		add	r3, pc, r3
 1926 10e4 08308DE5 		str	r3, [sp, #8]
 1927 10e8 F4319FE5 		ldr	r3, .L113+20
 1928              	.LPIC81:
 1929 10ec 03308FE0 		add	r3, pc, r3
 1930 10f0 04308DE5 		str	r3, [sp, #4]
 1931 10f4 013CE0E3 		mvn	r3, #256
 1932 10f8 00308DE5 		str	r3, [sp]
 1933 10fc 1D3EA0E3 		mov	r3, #464
 1934 1100 E0219FE5 		ldr	r2, .L113+24
 1935              	.LPIC82:
 1936 1104 02208FE0 		add	r2, pc, r2
 1937 1108 DC119FE5 		ldr	r1, .L113+28
ARM GAS  /tmp/cclMtiRJ.s 			page 45


 1938              	.LPIC83:
 1939 110c 01108FE0 		add	r1, pc, r1
 1940 1110 4500A0E3 		mov	r0, #69
 1941 1114 FEFFFFEB 		bl	siFormattedMessage_SC(PLT)
 1942 1118 013CE0E3 		mvn	r3, #256
 1943 111c 10300BE5 		str	r3, [fp, #-16]
 1944 1120 660000EA 		b	.L107
 1945              	.L108:
 465:/home/hkh/git/eapidk-code-r76-trunk/apps/EeePProg/linux/../BinFuncs.c ****       LclReadFile,
 466:/home/hkh/git/eapidk-code-r76-trunk/apps/EeePProg/linux/../BinFuncs.c ****       EAPI_STATUS_INVALID_PARAMETER,
 467:/home/hkh/git/eapidk-code-r76-trunk/apps/EeePProg/linux/../BinFuncs.c ****       pvBuffer
 468:/home/hkh/git/eapidk-code-r76-trunk/apps/EeePProg/linux/../BinFuncs.c ****     );
 469:/home/hkh/git/eapidk-code-r76-trunk/apps/EeePProg/linux/../BinFuncs.c ****   EAPI_APP_ASSERT_PARAMATER_NULL(
 1946              		.loc 1 469 3 is_stmt 1
 1947 1124 20301BE5 		ldr	r3, [fp, #-32]
 1948 1128 000053E3 		cmp	r3, #0
 1949 112c 1100001A 		bne	.L109
 1950              		.loc 1 469 3 is_stmt 0 discriminator 1
 1951 1130 B8319FE5 		ldr	r3, .L113+32
 1952              	.LPIC84:
 1953 1134 03308FE0 		add	r3, pc, r3
 1954 1138 08308DE5 		str	r3, [sp, #8]
 1955 113c B0319FE5 		ldr	r3, .L113+36
 1956              	.LPIC85:
 1957 1140 03308FE0 		add	r3, pc, r3
 1958 1144 04308DE5 		str	r3, [sp, #4]
 1959 1148 013CE0E3 		mvn	r3, #256
 1960 114c 00308DE5 		str	r3, [sp]
 1961 1150 D53100E3 		movw	r3, #469
 1962 1154 9C219FE5 		ldr	r2, .L113+40
 1963              	.LPIC86:
 1964 1158 02208FE0 		add	r2, pc, r2
 1965 115c 98119FE5 		ldr	r1, .L113+44
 1966              	.LPIC87:
 1967 1160 01108FE0 		add	r1, pc, r1
 1968 1164 4500A0E3 		mov	r0, #69
 1969 1168 FEFFFFEB 		bl	siFormattedMessage_SC(PLT)
 1970 116c 013CE0E3 		mvn	r3, #256
 1971 1170 10300BE5 		str	r3, [fp, #-16]
 1972 1174 510000EA 		b	.L107
 1973              	.L109:
 470:/home/hkh/git/eapidk-code-r76-trunk/apps/EeePProg/linux/../BinFuncs.c ****       LclReadFile,
 471:/home/hkh/git/eapidk-code-r76-trunk/apps/EeePProg/linux/../BinFuncs.c ****       EAPI_STATUS_INVALID_PARAMETER,
 472:/home/hkh/git/eapidk-code-r76-trunk/apps/EeePProg/linux/../BinFuncs.c ****       pstReadBCnt
 473:/home/hkh/git/eapidk-code-r76-trunk/apps/EeePProg/linux/../BinFuncs.c ****     );
 474:/home/hkh/git/eapidk-code-r76-trunk/apps/EeePProg/linux/../BinFuncs.c ****   *pstReadBCnt=0;
 1974              		.loc 1 474 15 is_stmt 1
 1975 1178 20301BE5 		ldr	r3, [fp, #-32]
 1976 117c 0020A0E3 		mov	r2, #0
 1977 1180 002083E5 		str	r2, [r3]
 475:/home/hkh/git/eapidk-code-r76-trunk/apps/EeePProg/linux/../BinFuncs.c ****   LclFilePtr=fopen(cszFilename, cszReadType);
 1978              		.loc 1 475 14
 1979 1184 24101BE5 		ldr	r1, [fp, #-36]
 1980 1188 18001BE5 		ldr	r0, [fp, #-24]
 1981 118c FEFFFFEB 		bl	fopen(PLT)
 1982 1190 0C000BE5 		str	r0, [fp, #-12]
 476:/home/hkh/git/eapidk-code-r76-trunk/apps/EeePProg/linux/../BinFuncs.c ****   if(LclFilePtr==NULL){
ARM GAS  /tmp/cclMtiRJ.s 			page 46


 1983              		.loc 1 476 5
 1984 1194 0C301BE5 		ldr	r3, [fp, #-12]
 1985 1198 000053E3 		cmp	r3, #0
 1986 119c 1200001A 		bne	.L110
 477:/home/hkh/git/eapidk-code-r76-trunk/apps/EeePProg/linux/../BinFuncs.c ****     StatusCode=EAPI_STATUS_READ_ERROR;
 1987              		.loc 1 477 15
 1988 11a0 053CE0E3 		mvn	r3, #1280
 1989 11a4 10300BE5 		str	r3, [fp, #-16]
 478:/home/hkh/git/eapidk-code-r76-trunk/apps/EeePProg/linux/../BinFuncs.c ****     siFormattedMessage_SC('L', __FILE__, "LclReadFile", __LINE__, StatusCode,
 1990              		.loc 1 478 5
 1991 11a8 24301BE5 		ldr	r3, [fp, #-36]
 1992 11ac 0C308DE5 		str	r3, [sp, #12]
 1993 11b0 18301BE5 		ldr	r3, [fp, #-24]
 1994 11b4 08308DE5 		str	r3, [sp, #8]
 1995 11b8 40319FE5 		ldr	r3, .L113+48
 1996              	.LPIC88:
 1997 11bc 03308FE0 		add	r3, pc, r3
 1998 11c0 04308DE5 		str	r3, [sp, #4]
 1999 11c4 10301BE5 		ldr	r3, [fp, #-16]
 2000 11c8 00308DE5 		str	r3, [sp]
 2001 11cc DE3100E3 		movw	r3, #478
 2002 11d0 2C219FE5 		ldr	r2, .L113+52
 2003              	.LPIC89:
 2004 11d4 02208FE0 		add	r2, pc, r2
 2005 11d8 28119FE5 		ldr	r1, .L113+56
 2006              	.LPIC90:
 2007 11dc 01108FE0 		add	r1, pc, r1
 2008 11e0 4C00A0E3 		mov	r0, #76
 2009 11e4 FEFFFFEB 		bl	siFormattedMessage_SC(PLT)
 479:/home/hkh/git/eapidk-code-r76-trunk/apps/EeePProg/linux/../BinFuncs.c ****         "Opening File %s(%s)\n", cszFilename, cszReadType);
 480:/home/hkh/git/eapidk-code-r76-trunk/apps/EeePProg/linux/../BinFuncs.c ****     EAPI_APP_EXIT;
 2010              		.loc 1 480 5
 2011 11e8 340000EA 		b	.L107
 2012              	.L110:
 481:/home/hkh/git/eapidk-code-r76-trunk/apps/EeePProg/linux/../BinFuncs.c ****   }
 482:/home/hkh/git/eapidk-code-r76-trunk/apps/EeePProg/linux/../BinFuncs.c **** 
 483:/home/hkh/git/eapidk-code-r76-trunk/apps/EeePProg/linux/../BinFuncs.c ****   fseek(LclFilePtr, 0, SEEK_END);
 2013              		.loc 1 483 3
 2014 11ec 0220A0E3 		mov	r2, #2
 2015 11f0 0010A0E3 		mov	r1, #0
 2016 11f4 0C001BE5 		ldr	r0, [fp, #-12]
 2017 11f8 FEFFFFEB 		bl	fseek(PLT)
 484:/home/hkh/git/eapidk-code-r76-trunk/apps/EeePProg/linux/../BinFuncs.c ****   stFileLen=ftell(LclFilePtr);
 2018              		.loc 1 484 13
 2019 11fc 0C001BE5 		ldr	r0, [fp, #-12]
 2020 1200 FEFFFFEB 		bl	ftell(PLT)
 2021 1204 0030A0E1 		mov	r3, r0
 2022              		.loc 1 484 12
 2023 1208 08300BE5 		str	r3, [fp, #-8]
 485:/home/hkh/git/eapidk-code-r76-trunk/apps/EeePProg/linux/../BinFuncs.c ****   *pvBuffer=malloc(stFileLen);
 2024              		.loc 1 485 13
 2025 120c 08001BE5 		ldr	r0, [fp, #-8]
 2026 1210 FEFFFFEB 		bl	malloc(PLT)
 2027 1214 0030A0E1 		mov	r3, r0
 2028 1218 0320A0E1 		mov	r2, r3
 2029              		.loc 1 485 12
 2030 121c 1C301BE5 		ldr	r3, [fp, #-28]
ARM GAS  /tmp/cclMtiRJ.s 			page 47


 2031 1220 002083E5 		str	r2, [r3]
 486:/home/hkh/git/eapidk-code-r76-trunk/apps/EeePProg/linux/../BinFuncs.c ****   EAPI_APP_ASSERT_PARAMATER_NULL(
 2032              		.loc 1 486 3
 2033 1224 1C301BE5 		ldr	r3, [fp, #-28]
 2034 1228 003093E5 		ldr	r3, [r3]
 2035 122c 000053E3 		cmp	r3, #0
 2036 1230 1100001A 		bne	.L111
 2037              		.loc 1 486 3 is_stmt 0 discriminator 1
 2038 1234 D0309FE5 		ldr	r3, .L113+60
 2039              	.LPIC91:
 2040 1238 03308FE0 		add	r3, pc, r3
 2041 123c 08308DE5 		str	r3, [sp, #8]
 2042 1240 C8309FE5 		ldr	r3, .L113+64
 2043              	.LPIC92:
 2044 1244 03308FE0 		add	r3, pc, r3
 2045 1248 04308DE5 		str	r3, [sp, #4]
 2046 124c 0230E0E3 		mvn	r3, #2
 2047 1250 00308DE5 		str	r3, [sp]
 2048 1254 E63100E3 		movw	r3, #486
 2049 1258 B4209FE5 		ldr	r2, .L113+68
 2050              	.LPIC93:
 2051 125c 02208FE0 		add	r2, pc, r2
 2052 1260 B0109FE5 		ldr	r1, .L113+72
 2053              	.LPIC94:
 2054 1264 01108FE0 		add	r1, pc, r1
 2055 1268 4500A0E3 		mov	r0, #69
 2056 126c FEFFFFEB 		bl	siFormattedMessage_SC(PLT)
 2057 1270 0230E0E3 		mvn	r3, #2
 2058 1274 10300BE5 		str	r3, [fp, #-16]
 2059 1278 100000EA 		b	.L107
 2060              	.L111:
 487:/home/hkh/git/eapidk-code-r76-trunk/apps/EeePProg/linux/../BinFuncs.c ****       LclReadFile,
 488:/home/hkh/git/eapidk-code-r76-trunk/apps/EeePProg/linux/../BinFuncs.c ****       EAPI_STATUS_ALLOC_ERROR,
 489:/home/hkh/git/eapidk-code-r76-trunk/apps/EeePProg/linux/../BinFuncs.c ****       *pvBuffer
 490:/home/hkh/git/eapidk-code-r76-trunk/apps/EeePProg/linux/../BinFuncs.c ****     );
 491:/home/hkh/git/eapidk-code-r76-trunk/apps/EeePProg/linux/../BinFuncs.c **** 
 492:/home/hkh/git/eapidk-code-r76-trunk/apps/EeePProg/linux/../BinFuncs.c ****   rewind(LclFilePtr);
 2061              		.loc 1 492 3 is_stmt 1
 2062 127c 0C001BE5 		ldr	r0, [fp, #-12]
 2063 1280 FEFFFFEB 		bl	rewind(PLT)
 493:/home/hkh/git/eapidk-code-r76-trunk/apps/EeePProg/linux/../BinFuncs.c ****   *pstReadBCnt=stFileLen;
 2064              		.loc 1 493 15
 2065 1284 20301BE5 		ldr	r3, [fp, #-32]
 2066 1288 08201BE5 		ldr	r2, [fp, #-8]
 2067 128c 002083E5 		str	r2, [r3]
 494:/home/hkh/git/eapidk-code-r76-trunk/apps/EeePProg/linux/../BinFuncs.c **** #if 0
 495:/home/hkh/git/eapidk-code-r76-trunk/apps/EeePProg/linux/../BinFuncs.c ****   if(stFileLen!=fread(*pvBuffer, sizeof(uint8_t), stFileLen, LclFilePtr)){
 496:/home/hkh/git/eapidk-code-r76-trunk/apps/EeePProg/linux/../BinFuncs.c ****     free(*pvBuffer);
 497:/home/hkh/git/eapidk-code-r76-trunk/apps/EeePProg/linux/../BinFuncs.c ****     *pvBuffer=NULL;
 498:/home/hkh/git/eapidk-code-r76-trunk/apps/EeePProg/linux/../BinFuncs.c ****     EAPI_APP_RETURN_ERROR(
 499:/home/hkh/git/eapidk-code-r76-trunk/apps/EeePProg/linux/../BinFuncs.c ****         LclReadFile,
 500:/home/hkh/git/eapidk-code-r76-trunk/apps/EeePProg/linux/../BinFuncs.c ****         EAPI_STATUS_READ_ERROR,
 501:/home/hkh/git/eapidk-code-r76-trunk/apps/EeePProg/linux/../BinFuncs.c ****         TEXT("(stFileLen!=fread(*pvBuffer, sizeof(uint8_t), stFileLen, LclFilePtr))")
 502:/home/hkh/git/eapidk-code-r76-trunk/apps/EeePProg/linux/../BinFuncs.c ****       );
 503:/home/hkh/git/eapidk-code-r76-trunk/apps/EeePProg/linux/../BinFuncs.c ****   }
 504:/home/hkh/git/eapidk-code-r76-trunk/apps/EeePProg/linux/../BinFuncs.c **** #else
 505:/home/hkh/git/eapidk-code-r76-trunk/apps/EeePProg/linux/../BinFuncs.c ****   stFileLen=fread(*pvBuffer, sizeof(uint8_t), stFileLen, LclFilePtr);
ARM GAS  /tmp/cclMtiRJ.s 			page 48


 2068              		.loc 1 505 13
 2069 1290 1C301BE5 		ldr	r3, [fp, #-28]
 2070 1294 000093E5 		ldr	r0, [r3]
 2071 1298 0C301BE5 		ldr	r3, [fp, #-12]
 2072 129c 08201BE5 		ldr	r2, [fp, #-8]
 2073 12a0 0110A0E3 		mov	r1, #1
 2074 12a4 FEFFFFEB 		bl	fread(PLT)
 2075 12a8 08000BE5 		str	r0, [fp, #-8]
 506:/home/hkh/git/eapidk-code-r76-trunk/apps/EeePProg/linux/../BinFuncs.c **** #endif
 507:/home/hkh/git/eapidk-code-r76-trunk/apps/EeePProg/linux/../BinFuncs.c ****   *pstReadBCnt=stFileLen;
 2076              		.loc 1 507 15
 2077 12ac 20301BE5 		ldr	r3, [fp, #-32]
 2078 12b0 08201BE5 		ldr	r2, [fp, #-8]
 2079 12b4 002083E5 		str	r2, [r3]
 508:/home/hkh/git/eapidk-code-r76-trunk/apps/EeePProg/linux/../BinFuncs.c ****   fclose(LclFilePtr);
 2080              		.loc 1 508 3
 2081 12b8 0C001BE5 		ldr	r0, [fp, #-12]
 2082 12bc FEFFFFEB 		bl	fclose(PLT)
 2083              	.L107:
 509:/home/hkh/git/eapidk-code-r76-trunk/apps/EeePProg/linux/../BinFuncs.c **** 
 510:/home/hkh/git/eapidk-code-r76-trunk/apps/EeePProg/linux/../BinFuncs.c **** EAPI_APP_ASSERT_EXIT
 511:/home/hkh/git/eapidk-code-r76-trunk/apps/EeePProg/linux/../BinFuncs.c ****   return StatusCode;
 2084              		.loc 1 511 10
 2085 12c0 10301BE5 		ldr	r3, [fp, #-16]
 512:/home/hkh/git/eapidk-code-r76-trunk/apps/EeePProg/linux/../BinFuncs.c **** }
 2086              		.loc 1 512 1
 2087 12c4 0300A0E1 		mov	r0, r3
 2088 12c8 04D04BE2 		sub	sp, fp, #4
 2089              		.cfi_def_cfa 13, 8
 2090              		@ sp needed
 2091 12cc 0088BDE8 		pop	{fp, pc}
 2092              	.L114:
 2093              		.align	2
 2094              	.L113:
 2095 12d0 6C040000 		.word	.LC28-(.LPIC76+8)
 2096 12d4 A4020000 		.word	.LC3-(.LPIC77+8)
 2097 12d8 DC040000 		.word	.LC32-(.LPIC78+8)
 2098 12dc 30020000 		.word	.LC1-(.LPIC79+8)
 2099 12e0 C0040000 		.word	.LC33-(.LPIC80+8)
 2100 12e4 60020000 		.word	.LC3-(.LPIC81+8)
 2101 12e8 98040000 		.word	.LC32-(.LPIC82+8)
 2102 12ec EC010000 		.word	.LC1-(.LPIC83+8)
 2103 12f0 90040000 		.word	.LC34-(.LPIC84+8)
 2104 12f4 1C020000 		.word	.LC3-(.LPIC85+8)
 2105 12f8 54040000 		.word	.LC32-(.LPIC86+8)
 2106 12fc A8010000 		.word	.LC1-(.LPIC87+8)
 2107 1300 94030000 		.word	.LC30-(.LPIC88+8)
 2108 1304 E4030000 		.word	.LC32-(.LPIC89+8)
 2109 1308 38010000 		.word	.LC1-(.LPIC90+8)
 2110 130c BC030000 		.word	.LC35-(.LPIC91+8)
 2111 1310 34010000 		.word	.LC3-(.LPIC92+8)
 2112 1314 6C030000 		.word	.LC32-(.LPIC93+8)
 2113 1318 C0000000 		.word	.LC1-(.LPIC94+8)
 2114              		.cfi_endproc
 2115              	.LFE14:
 2117              		.section	.rodata
 2118 0302 0000     		.align	2
ARM GAS  /tmp/cclMtiRJ.s 			page 49


 2119              	.LC36:
 2120 0304 776200   		.ascii	"wb\000"
 2121              		.text
 2122              		.align	2
 2123              		.global	WriteBinaryFile
 2124              		.syntax unified
 2125              		.arm
 2126              		.fpu vfpv3
 2128              	WriteBinaryFile:
 2129              	.LFB15:
 513:/home/hkh/git/eapidk-code-r76-trunk/apps/EeePProg/linux/../BinFuncs.c **** 
 514:/home/hkh/git/eapidk-code-r76-trunk/apps/EeePProg/linux/../BinFuncs.c **** EApiStatus_t 
 515:/home/hkh/git/eapidk-code-r76-trunk/apps/EeePProg/linux/../BinFuncs.c **** WriteBinaryFile(
 516:/home/hkh/git/eapidk-code-r76-trunk/apps/EeePProg/linux/../BinFuncs.c ****     __IN const char *cszFilename, 
 517:/home/hkh/git/eapidk-code-r76-trunk/apps/EeePProg/linux/../BinFuncs.c ****     __IN const void *pcvBuffer   , 
 518:/home/hkh/git/eapidk-code-r76-trunk/apps/EeePProg/linux/../BinFuncs.c ****     __IN size_t      stWriteBCnt
 519:/home/hkh/git/eapidk-code-r76-trunk/apps/EeePProg/linux/../BinFuncs.c ****   )
 520:/home/hkh/git/eapidk-code-r76-trunk/apps/EeePProg/linux/../BinFuncs.c **** {
 2130              		.loc 1 520 1
 2131              		.cfi_startproc
 2132              		@ args = 0, pretend = 0, frame = 16
 2133              		@ frame_needed = 1, uses_anonymous_args = 0
 2134 131c 00482DE9 		push	{fp, lr}
 2135              		.cfi_def_cfa_offset 8
 2136              		.cfi_offset 11, -8
 2137              		.cfi_offset 14, -4
 2138 1320 04B08DE2 		add	fp, sp, #4
 2139              		.cfi_def_cfa 11, 4
 2140 1324 10D04DE2 		sub	sp, sp, #16
 2141 1328 08000BE5 		str	r0, [fp, #-8]
 2142 132c 0C100BE5 		str	r1, [fp, #-12]
 2143 1330 10200BE5 		str	r2, [fp, #-16]
 521:/home/hkh/git/eapidk-code-r76-trunk/apps/EeePProg/linux/../BinFuncs.c ****   return LclWriteFile(cszFilename, pcvBuffer, stWriteBCnt, "wb");
 2144              		.loc 1 521 10
 2145 1334 20309FE5 		ldr	r3, .L117
 2146              	.LPIC95:
 2147 1338 03308FE0 		add	r3, pc, r3
 2148 133c 10201BE5 		ldr	r2, [fp, #-16]
 2149 1340 0C101BE5 		ldr	r1, [fp, #-12]
 2150 1344 08001BE5 		ldr	r0, [fp, #-8]
 2151 1348 FEFFFFEB 		bl	LclWriteFile(PLT)
 2152 134c 0030A0E1 		mov	r3, r0
 522:/home/hkh/git/eapidk-code-r76-trunk/apps/EeePProg/linux/../BinFuncs.c **** }
 2153              		.loc 1 522 1
 2154 1350 0300A0E1 		mov	r0, r3
 2155 1354 04D04BE2 		sub	sp, fp, #4
 2156              		.cfi_def_cfa 13, 8
 2157              		@ sp needed
 2158 1358 0088BDE8 		pop	{fp, pc}
 2159              	.L118:
 2160              		.align	2
 2161              	.L117:
 2162 135c 20030000 		.word	.LC36-(.LPIC95+8)
 2163              		.cfi_endproc
 2164              	.LFE15:
 2166              		.section	.rodata
 2167 0307 00       		.align	2
ARM GAS  /tmp/cclMtiRJ.s 			page 50


 2168              	.LC37:
 2169 0308 726200   		.ascii	"rb\000"
 2170              		.text
 2171              		.align	2
 2172              		.global	ReadBinaryFile
 2173              		.syntax unified
 2174              		.arm
 2175              		.fpu vfpv3
 2177              	ReadBinaryFile:
 2178              	.LFB16:
 523:/home/hkh/git/eapidk-code-r76-trunk/apps/EeePProg/linux/../BinFuncs.c **** 
 524:/home/hkh/git/eapidk-code-r76-trunk/apps/EeePProg/linux/../BinFuncs.c **** EApiStatus_t
 525:/home/hkh/git/eapidk-code-r76-trunk/apps/EeePProg/linux/../BinFuncs.c **** ReadBinaryFile(
 526:/home/hkh/git/eapidk-code-r76-trunk/apps/EeePProg/linux/../BinFuncs.c ****     __IN  const char *cszFilename, 
 527:/home/hkh/git/eapidk-code-r76-trunk/apps/EeePProg/linux/../BinFuncs.c ****     __OUT void      **pvBuffer, 
 528:/home/hkh/git/eapidk-code-r76-trunk/apps/EeePProg/linux/../BinFuncs.c ****     __OUT size_t     *pstReadBCnt
 529:/home/hkh/git/eapidk-code-r76-trunk/apps/EeePProg/linux/../BinFuncs.c ****   )
 530:/home/hkh/git/eapidk-code-r76-trunk/apps/EeePProg/linux/../BinFuncs.c **** {
 2179              		.loc 1 530 1
 2180              		.cfi_startproc
 2181              		@ args = 0, pretend = 0, frame = 16
 2182              		@ frame_needed = 1, uses_anonymous_args = 0
 2183 1360 00482DE9 		push	{fp, lr}
 2184              		.cfi_def_cfa_offset 8
 2185              		.cfi_offset 11, -8
 2186              		.cfi_offset 14, -4
 2187 1364 04B08DE2 		add	fp, sp, #4
 2188              		.cfi_def_cfa 11, 4
 2189 1368 10D04DE2 		sub	sp, sp, #16
 2190 136c 08000BE5 		str	r0, [fp, #-8]
 2191 1370 0C100BE5 		str	r1, [fp, #-12]
 2192 1374 10200BE5 		str	r2, [fp, #-16]
 531:/home/hkh/git/eapidk-code-r76-trunk/apps/EeePProg/linux/../BinFuncs.c ****   return LclReadFile(cszFilename, pvBuffer, pstReadBCnt, "rb");
 2193              		.loc 1 531 10
 2194 1378 20309FE5 		ldr	r3, .L121
 2195              	.LPIC96:
 2196 137c 03308FE0 		add	r3, pc, r3
 2197 1380 10201BE5 		ldr	r2, [fp, #-16]
 2198 1384 0C101BE5 		ldr	r1, [fp, #-12]
 2199 1388 08001BE5 		ldr	r0, [fp, #-8]
 2200 138c FEFFFFEB 		bl	LclReadFile(PLT)
 2201 1390 0030A0E1 		mov	r3, r0
 532:/home/hkh/git/eapidk-code-r76-trunk/apps/EeePProg/linux/../BinFuncs.c **** }
 2202              		.loc 1 532 1
 2203 1394 0300A0E1 		mov	r0, r3
 2204 1398 04D04BE2 		sub	sp, fp, #4
 2205              		.cfi_def_cfa 13, 8
 2206              		@ sp needed
 2207 139c 0088BDE8 		pop	{fp, pc}
 2208              	.L122:
 2209              		.align	2
 2210              	.L121:
 2211 13a0 24030000 		.word	.LC37-(.LPIC96+8)
 2212              		.cfi_endproc
 2213              	.LFE16:
 2215              		.section	.rodata
 2216 030b 00       		.align	2
ARM GAS  /tmp/cclMtiRJ.s 			page 51


 2217              	.LC38:
 2218 030c 7700     		.ascii	"w\000"
 2219              		.text
 2220              		.align	2
 2221              		.global	WriteTextFile
 2222              		.syntax unified
 2223              		.arm
 2224              		.fpu vfpv3
 2226              	WriteTextFile:
 2227              	.LFB17:
 533:/home/hkh/git/eapidk-code-r76-trunk/apps/EeePProg/linux/../BinFuncs.c **** EApiStatus_t 
 534:/home/hkh/git/eapidk-code-r76-trunk/apps/EeePProg/linux/../BinFuncs.c **** WriteTextFile(
 535:/home/hkh/git/eapidk-code-r76-trunk/apps/EeePProg/linux/../BinFuncs.c ****     __IN const char *cszFilename, 
 536:/home/hkh/git/eapidk-code-r76-trunk/apps/EeePProg/linux/../BinFuncs.c ****     __IN const void *pcvBuffer   , 
 537:/home/hkh/git/eapidk-code-r76-trunk/apps/EeePProg/linux/../BinFuncs.c ****     __IN size_t      stWriteBCnt
 538:/home/hkh/git/eapidk-code-r76-trunk/apps/EeePProg/linux/../BinFuncs.c ****   )
 539:/home/hkh/git/eapidk-code-r76-trunk/apps/EeePProg/linux/../BinFuncs.c **** {
 2228              		.loc 1 539 1
 2229              		.cfi_startproc
 2230              		@ args = 0, pretend = 0, frame = 16
 2231              		@ frame_needed = 1, uses_anonymous_args = 0
 2232 13a4 00482DE9 		push	{fp, lr}
 2233              		.cfi_def_cfa_offset 8
 2234              		.cfi_offset 11, -8
 2235              		.cfi_offset 14, -4
 2236 13a8 04B08DE2 		add	fp, sp, #4
 2237              		.cfi_def_cfa 11, 4
 2238 13ac 10D04DE2 		sub	sp, sp, #16
 2239 13b0 08000BE5 		str	r0, [fp, #-8]
 2240 13b4 0C100BE5 		str	r1, [fp, #-12]
 2241 13b8 10200BE5 		str	r2, [fp, #-16]
 540:/home/hkh/git/eapidk-code-r76-trunk/apps/EeePProg/linux/../BinFuncs.c ****   return LclWriteFile(cszFilename, pcvBuffer, stWriteBCnt, "w");
 2242              		.loc 1 540 10
 2243 13bc 20309FE5 		ldr	r3, .L125
 2244              	.LPIC97:
 2245 13c0 03308FE0 		add	r3, pc, r3
 2246 13c4 10201BE5 		ldr	r2, [fp, #-16]
 2247 13c8 0C101BE5 		ldr	r1, [fp, #-12]
 2248 13cc 08001BE5 		ldr	r0, [fp, #-8]
 2249 13d0 FEFFFFEB 		bl	LclWriteFile(PLT)
 2250 13d4 0030A0E1 		mov	r3, r0
 541:/home/hkh/git/eapidk-code-r76-trunk/apps/EeePProg/linux/../BinFuncs.c **** }
 2251              		.loc 1 541 1
 2252 13d8 0300A0E1 		mov	r0, r3
 2253 13dc 04D04BE2 		sub	sp, fp, #4
 2254              		.cfi_def_cfa 13, 8
 2255              		@ sp needed
 2256 13e0 0088BDE8 		pop	{fp, pc}
 2257              	.L126:
 2258              		.align	2
 2259              	.L125:
 2260 13e4 28030000 		.word	.LC38-(.LPIC97+8)
 2261              		.cfi_endproc
 2262              	.LFE17:
 2264              		.section	.rodata
 2265 030e 0000     		.align	2
 2266              	.LC39:
ARM GAS  /tmp/cclMtiRJ.s 			page 52


 2267 0310 7200     		.ascii	"r\000"
 2268              		.text
 2269              		.align	2
 2270              		.global	ReadTextFile
 2271              		.syntax unified
 2272              		.arm
 2273              		.fpu vfpv3
 2275              	ReadTextFile:
 2276              	.LFB18:
 542:/home/hkh/git/eapidk-code-r76-trunk/apps/EeePProg/linux/../BinFuncs.c **** 
 543:/home/hkh/git/eapidk-code-r76-trunk/apps/EeePProg/linux/../BinFuncs.c **** EApiStatus_t
 544:/home/hkh/git/eapidk-code-r76-trunk/apps/EeePProg/linux/../BinFuncs.c **** ReadTextFile(
 545:/home/hkh/git/eapidk-code-r76-trunk/apps/EeePProg/linux/../BinFuncs.c ****     __IN  const char *cszFilename, 
 546:/home/hkh/git/eapidk-code-r76-trunk/apps/EeePProg/linux/../BinFuncs.c ****     __OUT void      **pvBuffer, 
 547:/home/hkh/git/eapidk-code-r76-trunk/apps/EeePProg/linux/../BinFuncs.c ****     __OUT size_t     *pstReadBCnt
 548:/home/hkh/git/eapidk-code-r76-trunk/apps/EeePProg/linux/../BinFuncs.c ****   )
 549:/home/hkh/git/eapidk-code-r76-trunk/apps/EeePProg/linux/../BinFuncs.c **** {
 2277              		.loc 1 549 1
 2278              		.cfi_startproc
 2279              		@ args = 0, pretend = 0, frame = 16
 2280              		@ frame_needed = 1, uses_anonymous_args = 0
 2281 13e8 00482DE9 		push	{fp, lr}
 2282              		.cfi_def_cfa_offset 8
 2283              		.cfi_offset 11, -8
 2284              		.cfi_offset 14, -4
 2285 13ec 04B08DE2 		add	fp, sp, #4
 2286              		.cfi_def_cfa 11, 4
 2287 13f0 10D04DE2 		sub	sp, sp, #16
 2288 13f4 08000BE5 		str	r0, [fp, #-8]
 2289 13f8 0C100BE5 		str	r1, [fp, #-12]
 2290 13fc 10200BE5 		str	r2, [fp, #-16]
 550:/home/hkh/git/eapidk-code-r76-trunk/apps/EeePProg/linux/../BinFuncs.c ****   return LclReadFile(cszFilename, pvBuffer, pstReadBCnt, "r");
 2291              		.loc 1 550 10
 2292 1400 20309FE5 		ldr	r3, .L129
 2293              	.LPIC98:
 2294 1404 03308FE0 		add	r3, pc, r3
 2295 1408 10201BE5 		ldr	r2, [fp, #-16]
 2296 140c 0C101BE5 		ldr	r1, [fp, #-12]
 2297 1410 08001BE5 		ldr	r0, [fp, #-8]
 2298 1414 FEFFFFEB 		bl	LclReadFile(PLT)
 2299 1418 0030A0E1 		mov	r3, r0
 551:/home/hkh/git/eapidk-code-r76-trunk/apps/EeePProg/linux/../BinFuncs.c **** }
 2300              		.loc 1 551 1
 2301 141c 0300A0E1 		mov	r0, r3
 2302 1420 04D04BE2 		sub	sp, fp, #4
 2303              		.cfi_def_cfa 13, 8
 2304              		@ sp needed
 2305 1424 0088BDE8 		pop	{fp, pc}
 2306              	.L130:
 2307              		.align	2
 2308              	.L129:
 2309 1428 2C030000 		.word	.LC39-(.LPIC98+8)
 2310              		.cfi_endproc
 2311              	.LFE18:
 2313              		.align	2
 2314              		.global	EeeP_Set16BitValue_BE
 2315              		.syntax unified
ARM GAS  /tmp/cclMtiRJ.s 			page 53


 2316              		.arm
 2317              		.fpu vfpv3
 2319              	EeeP_Set16BitValue_BE:
 2320              	.LFB19:
 552:/home/hkh/git/eapidk-code-r76-trunk/apps/EeePProg/linux/../BinFuncs.c **** 
 553:/home/hkh/git/eapidk-code-r76-trunk/apps/EeePProg/linux/../BinFuncs.c **** /*
 554:/home/hkh/git/eapidk-code-r76-trunk/apps/EeePProg/linux/../BinFuncs.c ****  *
 555:/home/hkh/git/eapidk-code-r76-trunk/apps/EeePProg/linux/../BinFuncs.c ****  *
 556:/home/hkh/git/eapidk-code-r76-trunk/apps/EeePProg/linux/../BinFuncs.c ****  *
 557:/home/hkh/git/eapidk-code-r76-trunk/apps/EeePProg/linux/../BinFuncs.c ****  *  Machine Independant Endian Access
 558:/home/hkh/git/eapidk-code-r76-trunk/apps/EeePProg/linux/../BinFuncs.c ****  *
 559:/home/hkh/git/eapidk-code-r76-trunk/apps/EeePProg/linux/../BinFuncs.c ****  *
 560:/home/hkh/git/eapidk-code-r76-trunk/apps/EeePProg/linux/../BinFuncs.c ****  *
 561:/home/hkh/git/eapidk-code-r76-trunk/apps/EeePProg/linux/../BinFuncs.c ****  */
 562:/home/hkh/git/eapidk-code-r76-trunk/apps/EeePProg/linux/../BinFuncs.c **** /*
 563:/home/hkh/git/eapidk-code-r76-trunk/apps/EeePProg/linux/../BinFuncs.c ****  * CPU Independent Multi Byte 
 564:/home/hkh/git/eapidk-code-r76-trunk/apps/EeePProg/linux/../BinFuncs.c ****  * Big Endian Memory Access
 565:/home/hkh/git/eapidk-code-r76-trunk/apps/EeePProg/linux/../BinFuncs.c ****  */
 566:/home/hkh/git/eapidk-code-r76-trunk/apps/EeePProg/linux/../BinFuncs.c **** void
 567:/home/hkh/git/eapidk-code-r76-trunk/apps/EeePProg/linux/../BinFuncs.c **** EeeP_Set16BitValue_BE(
 568:/home/hkh/git/eapidk-code-r76-trunk/apps/EeePProg/linux/../BinFuncs.c ****     uint8_t *pBuffer,
 569:/home/hkh/git/eapidk-code-r76-trunk/apps/EeePProg/linux/../BinFuncs.c ****     uint16_t Value
 570:/home/hkh/git/eapidk-code-r76-trunk/apps/EeePProg/linux/../BinFuncs.c ****      )
 571:/home/hkh/git/eapidk-code-r76-trunk/apps/EeePProg/linux/../BinFuncs.c **** {
 2321              		.loc 1 571 1
 2322              		.cfi_startproc
 2323              		@ args = 0, pretend = 0, frame = 8
 2324              		@ frame_needed = 1, uses_anonymous_args = 0
 2325              		@ link register save eliminated.
 2326 142c 04B02DE5 		str	fp, [sp, #-4]!
 2327              		.cfi_def_cfa_offset 4
 2328              		.cfi_offset 11, -4
 2329 1430 00B08DE2 		add	fp, sp, #0
 2330              		.cfi_def_cfa_register 11
 2331 1434 0CD04DE2 		sub	sp, sp, #12
 2332 1438 08000BE5 		str	r0, [fp, #-8]
 2333 143c 0130A0E1 		mov	r3, r1
 2334 1440 BA304BE1 		strh	r3, [fp, #-10]	@ movhi
 572:/home/hkh/git/eapidk-code-r76-trunk/apps/EeePProg/linux/../BinFuncs.c ****   pBuffer[1]=EEEP_LO_UINT8(Value       );
 2335              		.loc 1 572 10
 2336 1444 08301BE5 		ldr	r3, [fp, #-8]
 2337 1448 013083E2 		add	r3, r3, #1
 2338              		.loc 1 572 14
 2339 144c BA205BE1 		ldrh	r2, [fp, #-10]	@ movhi
 2340 1450 7220EFE6 		uxtb	r2, r2
 2341              		.loc 1 572 13
 2342 1454 0020C3E5 		strb	r2, [r3]
 573:/home/hkh/git/eapidk-code-r76-trunk/apps/EeePProg/linux/../BinFuncs.c ****   pBuffer[0]=EEEP_LO_UINT8(Value>>(8*1));
 2343              		.loc 1 573 14
 2344 1458 BA305BE1 		ldrh	r3, [fp, #-10]
 2345 145c 2334A0E1 		lsr	r3, r3, #8
 2346 1460 7330FFE6 		uxth	r3, r3
 2347 1464 7320EFE6 		uxtb	r2, r3
 2348              		.loc 1 573 13
 2349 1468 08301BE5 		ldr	r3, [fp, #-8]
 2350 146c 0020C3E5 		strb	r2, [r3]
 574:/home/hkh/git/eapidk-code-r76-trunk/apps/EeePProg/linux/../BinFuncs.c **** }
ARM GAS  /tmp/cclMtiRJ.s 			page 54


 2351              		.loc 1 574 1
 2352 1470 00F020E3 		nop
 2353 1474 00D08BE2 		add	sp, fp, #0
 2354              		.cfi_def_cfa_register 13
 2355              		@ sp needed
 2356 1478 04B09DE4 		ldr	fp, [sp], #4
 2357              		.cfi_restore 11
 2358              		.cfi_def_cfa_offset 0
 2359 147c 1EFF2FE1 		bx	lr
 2360              		.cfi_endproc
 2361              	.LFE19:
 2363              		.align	2
 2364              		.global	EeeP_Get16BitValue_BE
 2365              		.syntax unified
 2366              		.arm
 2367              		.fpu vfpv3
 2369              	EeeP_Get16BitValue_BE:
 2370              	.LFB20:
 575:/home/hkh/git/eapidk-code-r76-trunk/apps/EeePProg/linux/../BinFuncs.c **** uint16_t
 576:/home/hkh/git/eapidk-code-r76-trunk/apps/EeePProg/linux/../BinFuncs.c **** EeeP_Get16BitValue_BE(
 577:/home/hkh/git/eapidk-code-r76-trunk/apps/EeePProg/linux/../BinFuncs.c ****     const uint8_t *pBuffer
 578:/home/hkh/git/eapidk-code-r76-trunk/apps/EeePProg/linux/../BinFuncs.c ****      )
 579:/home/hkh/git/eapidk-code-r76-trunk/apps/EeePProg/linux/../BinFuncs.c **** {
 2371              		.loc 1 579 1
 2372              		.cfi_startproc
 2373              		@ args = 0, pretend = 0, frame = 8
 2374              		@ frame_needed = 1, uses_anonymous_args = 0
 2375              		@ link register save eliminated.
 2376 1480 04B02DE5 		str	fp, [sp, #-4]!
 2377              		.cfi_def_cfa_offset 4
 2378              		.cfi_offset 11, -4
 2379 1484 00B08DE2 		add	fp, sp, #0
 2380              		.cfi_def_cfa_register 11
 2381 1488 0CD04DE2 		sub	sp, sp, #12
 2382 148c 08000BE5 		str	r0, [fp, #-8]
 580:/home/hkh/git/eapidk-code-r76-trunk/apps/EeePProg/linux/../BinFuncs.c ****   return (pBuffer[1]       ) |
 2383              		.loc 1 580 18
 2384 1490 08301BE5 		ldr	r3, [fp, #-8]
 2385 1494 013083E2 		add	r3, r3, #1
 2386 1498 0030D3E5 		ldrb	r3, [r3]	@ zero_extendqisi2
 2387 149c 7320BFE6 		sxth	r2, r3
 581:/home/hkh/git/eapidk-code-r76-trunk/apps/EeePProg/linux/../BinFuncs.c ****          (pBuffer[0]<<(8*1)) ;
 2388              		.loc 1 581 18
 2389 14a0 08301BE5 		ldr	r3, [fp, #-8]
 2390 14a4 0030D3E5 		ldrb	r3, [r3]	@ zero_extendqisi2
 2391              		.loc 1 581 21
 2392 14a8 0334A0E1 		lsl	r3, r3, #8
 580:/home/hkh/git/eapidk-code-r76-trunk/apps/EeePProg/linux/../BinFuncs.c ****   return (pBuffer[1]       ) |
 2393              		.loc 1 580 30
 2394 14ac 7330BFE6 		sxth	r3, r3
 2395 14b0 033082E1 		orr	r3, r2, r3
 2396 14b4 7330BFE6 		sxth	r3, r3
 2397 14b8 7330FFE6 		uxth	r3, r3
 582:/home/hkh/git/eapidk-code-r76-trunk/apps/EeePProg/linux/../BinFuncs.c **** }
 2398              		.loc 1 582 1
 2399 14bc 0300A0E1 		mov	r0, r3
 2400 14c0 00D08BE2 		add	sp, fp, #0
ARM GAS  /tmp/cclMtiRJ.s 			page 55


 2401              		.cfi_def_cfa_register 13
 2402              		@ sp needed
 2403 14c4 04B09DE4 		ldr	fp, [sp], #4
 2404              		.cfi_restore 11
 2405              		.cfi_def_cfa_offset 0
 2406 14c8 1EFF2FE1 		bx	lr
 2407              		.cfi_endproc
 2408              	.LFE20:
 2410              		.align	2
 2411              		.global	EeeP_Set32BitValue_BE
 2412              		.syntax unified
 2413              		.arm
 2414              		.fpu vfpv3
 2416              	EeeP_Set32BitValue_BE:
 2417              	.LFB21:
 583:/home/hkh/git/eapidk-code-r76-trunk/apps/EeePProg/linux/../BinFuncs.c **** void
 584:/home/hkh/git/eapidk-code-r76-trunk/apps/EeePProg/linux/../BinFuncs.c **** EeeP_Set32BitValue_BE(
 585:/home/hkh/git/eapidk-code-r76-trunk/apps/EeePProg/linux/../BinFuncs.c ****     uint8_t *pBuffer,
 586:/home/hkh/git/eapidk-code-r76-trunk/apps/EeePProg/linux/../BinFuncs.c ****     uint32_t Value
 587:/home/hkh/git/eapidk-code-r76-trunk/apps/EeePProg/linux/../BinFuncs.c ****      )
 588:/home/hkh/git/eapidk-code-r76-trunk/apps/EeePProg/linux/../BinFuncs.c **** {
 2418              		.loc 1 588 1
 2419              		.cfi_startproc
 2420              		@ args = 0, pretend = 0, frame = 8
 2421              		@ frame_needed = 1, uses_anonymous_args = 0
 2422              		@ link register save eliminated.
 2423 14cc 04B02DE5 		str	fp, [sp, #-4]!
 2424              		.cfi_def_cfa_offset 4
 2425              		.cfi_offset 11, -4
 2426 14d0 00B08DE2 		add	fp, sp, #0
 2427              		.cfi_def_cfa_register 11
 2428 14d4 0CD04DE2 		sub	sp, sp, #12
 2429 14d8 08000BE5 		str	r0, [fp, #-8]
 2430 14dc 0C100BE5 		str	r1, [fp, #-12]
 589:/home/hkh/git/eapidk-code-r76-trunk/apps/EeePProg/linux/../BinFuncs.c ****   pBuffer[3]=EEEP_LO_UINT8(Value       );
 2431              		.loc 1 589 10
 2432 14e0 08301BE5 		ldr	r3, [fp, #-8]
 2433 14e4 033083E2 		add	r3, r3, #3
 2434              		.loc 1 589 14
 2435 14e8 0C201BE5 		ldr	r2, [fp, #-12]
 2436 14ec 7220EFE6 		uxtb	r2, r2
 2437              		.loc 1 589 13
 2438 14f0 0020C3E5 		strb	r2, [r3]
 590:/home/hkh/git/eapidk-code-r76-trunk/apps/EeePProg/linux/../BinFuncs.c ****   pBuffer[2]=EEEP_LO_UINT8(Value>>(8*1));
 2439              		.loc 1 590 14
 2440 14f4 0C301BE5 		ldr	r3, [fp, #-12]
 2441 14f8 2324A0E1 		lsr	r2, r3, #8
 2442              		.loc 1 590 10
 2443 14fc 08301BE5 		ldr	r3, [fp, #-8]
 2444 1500 023083E2 		add	r3, r3, #2
 2445              		.loc 1 590 14
 2446 1504 7220EFE6 		uxtb	r2, r2
 2447              		.loc 1 590 13
 2448 1508 0020C3E5 		strb	r2, [r3]
 591:/home/hkh/git/eapidk-code-r76-trunk/apps/EeePProg/linux/../BinFuncs.c ****   pBuffer[1]=EEEP_LO_UINT8(Value>>(8*2));
 2449              		.loc 1 591 14
 2450 150c 0C301BE5 		ldr	r3, [fp, #-12]
ARM GAS  /tmp/cclMtiRJ.s 			page 56


 2451 1510 2328A0E1 		lsr	r2, r3, #16
 2452              		.loc 1 591 10
 2453 1514 08301BE5 		ldr	r3, [fp, #-8]
 2454 1518 013083E2 		add	r3, r3, #1
 2455              		.loc 1 591 14
 2456 151c 7220EFE6 		uxtb	r2, r2
 2457              		.loc 1 591 13
 2458 1520 0020C3E5 		strb	r2, [r3]
 592:/home/hkh/git/eapidk-code-r76-trunk/apps/EeePProg/linux/../BinFuncs.c ****   pBuffer[0]=EEEP_LO_UINT8(Value>>(8*3));
 2459              		.loc 1 592 14
 2460 1524 0C301BE5 		ldr	r3, [fp, #-12]
 2461 1528 233CA0E1 		lsr	r3, r3, #24
 2462 152c 7320EFE6 		uxtb	r2, r3
 2463              		.loc 1 592 13
 2464 1530 08301BE5 		ldr	r3, [fp, #-8]
 2465 1534 0020C3E5 		strb	r2, [r3]
 593:/home/hkh/git/eapidk-code-r76-trunk/apps/EeePProg/linux/../BinFuncs.c **** }
 2466              		.loc 1 593 1
 2467 1538 00F020E3 		nop
 2468 153c 00D08BE2 		add	sp, fp, #0
 2469              		.cfi_def_cfa_register 13
 2470              		@ sp needed
 2471 1540 04B09DE4 		ldr	fp, [sp], #4
 2472              		.cfi_restore 11
 2473              		.cfi_def_cfa_offset 0
 2474 1544 1EFF2FE1 		bx	lr
 2475              		.cfi_endproc
 2476              	.LFE21:
 2478              		.align	2
 2479              		.global	EeeP_Get32BitValue_BE
 2480              		.syntax unified
 2481              		.arm
 2482              		.fpu vfpv3
 2484              	EeeP_Get32BitValue_BE:
 2485              	.LFB22:
 594:/home/hkh/git/eapidk-code-r76-trunk/apps/EeePProg/linux/../BinFuncs.c **** uint32_t
 595:/home/hkh/git/eapidk-code-r76-trunk/apps/EeePProg/linux/../BinFuncs.c **** EeeP_Get32BitValue_BE(
 596:/home/hkh/git/eapidk-code-r76-trunk/apps/EeePProg/linux/../BinFuncs.c ****     const uint8_t *pBuffer
 597:/home/hkh/git/eapidk-code-r76-trunk/apps/EeePProg/linux/../BinFuncs.c ****      )
 598:/home/hkh/git/eapidk-code-r76-trunk/apps/EeePProg/linux/../BinFuncs.c **** {
 2486              		.loc 1 598 1
 2487              		.cfi_startproc
 2488              		@ args = 0, pretend = 0, frame = 8
 2489              		@ frame_needed = 1, uses_anonymous_args = 0
 2490              		@ link register save eliminated.
 2491 1548 04B02DE5 		str	fp, [sp, #-4]!
 2492              		.cfi_def_cfa_offset 4
 2493              		.cfi_offset 11, -4
 2494 154c 00B08DE2 		add	fp, sp, #0
 2495              		.cfi_def_cfa_register 11
 2496 1550 0CD04DE2 		sub	sp, sp, #12
 2497 1554 08000BE5 		str	r0, [fp, #-8]
 599:/home/hkh/git/eapidk-code-r76-trunk/apps/EeePProg/linux/../BinFuncs.c ****   return (pBuffer[3]       ) |
 2498              		.loc 1 599 18
 2499 1558 08301BE5 		ldr	r3, [fp, #-8]
 2500 155c 033083E2 		add	r3, r3, #3
 2501 1560 0030D3E5 		ldrb	r3, [r3]	@ zero_extendqisi2
ARM GAS  /tmp/cclMtiRJ.s 			page 57


 2502 1564 0320A0E1 		mov	r2, r3
 600:/home/hkh/git/eapidk-code-r76-trunk/apps/EeePProg/linux/../BinFuncs.c ****          (pBuffer[2]<<(8*1)) |
 2503              		.loc 1 600 18
 2504 1568 08301BE5 		ldr	r3, [fp, #-8]
 2505 156c 023083E2 		add	r3, r3, #2
 2506 1570 0030D3E5 		ldrb	r3, [r3]	@ zero_extendqisi2
 2507              		.loc 1 600 21
 2508 1574 0334A0E1 		lsl	r3, r3, #8
 599:/home/hkh/git/eapidk-code-r76-trunk/apps/EeePProg/linux/../BinFuncs.c ****   return (pBuffer[3]       ) |
 2509              		.loc 1 599 30
 2510 1578 032082E1 		orr	r2, r2, r3
 601:/home/hkh/git/eapidk-code-r76-trunk/apps/EeePProg/linux/../BinFuncs.c ****          (pBuffer[1]<<(8*2)) |
 2511              		.loc 1 601 18
 2512 157c 08301BE5 		ldr	r3, [fp, #-8]
 2513 1580 013083E2 		add	r3, r3, #1
 2514 1584 0030D3E5 		ldrb	r3, [r3]	@ zero_extendqisi2
 2515              		.loc 1 601 21
 2516 1588 0338A0E1 		lsl	r3, r3, #16
 600:/home/hkh/git/eapidk-code-r76-trunk/apps/EeePProg/linux/../BinFuncs.c ****          (pBuffer[2]<<(8*1)) |
 2517              		.loc 1 600 30
 2518 158c 032082E1 		orr	r2, r2, r3
 602:/home/hkh/git/eapidk-code-r76-trunk/apps/EeePProg/linux/../BinFuncs.c ****          (pBuffer[0]<<(8*3)) ;
 2519              		.loc 1 602 18
 2520 1590 08301BE5 		ldr	r3, [fp, #-8]
 2521 1594 0030D3E5 		ldrb	r3, [r3]	@ zero_extendqisi2
 2522              		.loc 1 602 21
 2523 1598 033CA0E1 		lsl	r3, r3, #24
 601:/home/hkh/git/eapidk-code-r76-trunk/apps/EeePProg/linux/../BinFuncs.c ****          (pBuffer[1]<<(8*2)) |
 2524              		.loc 1 601 30
 2525 159c 033082E1 		orr	r3, r2, r3
 603:/home/hkh/git/eapidk-code-r76-trunk/apps/EeePProg/linux/../BinFuncs.c **** }
 2526              		.loc 1 603 1
 2527 15a0 0300A0E1 		mov	r0, r3
 2528 15a4 00D08BE2 		add	sp, fp, #0
 2529              		.cfi_def_cfa_register 13
 2530              		@ sp needed
 2531 15a8 04B09DE4 		ldr	fp, [sp], #4
 2532              		.cfi_restore 11
 2533              		.cfi_def_cfa_offset 0
 2534 15ac 1EFF2FE1 		bx	lr
 2535              		.cfi_endproc
 2536              	.LFE22:
 2538              		.align	2
 2539              		.global	EeeP_Set64BitValue_BE
 2540              		.syntax unified
 2541              		.arm
 2542              		.fpu vfpv3
 2544              	EeeP_Set64BitValue_BE:
 2545              	.LFB23:
 604:/home/hkh/git/eapidk-code-r76-trunk/apps/EeePProg/linux/../BinFuncs.c **** void
 605:/home/hkh/git/eapidk-code-r76-trunk/apps/EeePProg/linux/../BinFuncs.c **** EeeP_Set64BitValue_BE(
 606:/home/hkh/git/eapidk-code-r76-trunk/apps/EeePProg/linux/../BinFuncs.c ****     uint8_t *pBuffer,
 607:/home/hkh/git/eapidk-code-r76-trunk/apps/EeePProg/linux/../BinFuncs.c ****     uint64_t Value
 608:/home/hkh/git/eapidk-code-r76-trunk/apps/EeePProg/linux/../BinFuncs.c ****      )
 609:/home/hkh/git/eapidk-code-r76-trunk/apps/EeePProg/linux/../BinFuncs.c **** {
 2546              		.loc 1 609 1
 2547              		.cfi_startproc
ARM GAS  /tmp/cclMtiRJ.s 			page 58


 2548              		@ args = 0, pretend = 0, frame = 16
 2549              		@ frame_needed = 1, uses_anonymous_args = 0
 2550              		@ link register save eliminated.
 2551 15b0 04B02DE5 		str	fp, [sp, #-4]!
 2552              		.cfi_def_cfa_offset 4
 2553              		.cfi_offset 11, -4
 2554 15b4 00B08DE2 		add	fp, sp, #0
 2555              		.cfi_def_cfa_register 11
 2556 15b8 14D04DE2 		sub	sp, sp, #20
 2557 15bc 08000BE5 		str	r0, [fp, #-8]
 2558 15c0 F4214BE1 		strd	r2, [fp, #-20]
 610:/home/hkh/git/eapidk-code-r76-trunk/apps/EeePProg/linux/../BinFuncs.c ****   pBuffer[7]=EEEP_LO_UINT8(Value       );
 2559              		.loc 1 610 10
 2560 15c4 08301BE5 		ldr	r3, [fp, #-8]
 2561 15c8 073083E2 		add	r3, r3, #7
 2562              		.loc 1 610 14
 2563 15cc 14205BE5 		ldrb	r2, [fp, #-20]	@ zero_extendqisi2
 2564              		.loc 1 610 13
 2565 15d0 0020C3E5 		strb	r2, [r3]
 611:/home/hkh/git/eapidk-code-r76-trunk/apps/EeePProg/linux/../BinFuncs.c ****   pBuffer[6]=EEEP_LO_UINT8(Value>>(8*1));
 2566              		.loc 1 611 14
 2567 15d4 D4014BE1 		ldrd	r0, [fp, #-20]
 2568 15d8 0020A0E3 		mov	r2, #0
 2569 15dc 0030A0E3 		mov	r3, #0
 2570 15e0 2024A0E1 		lsr	r2, r0, #8
 2571 15e4 012C82E1 		orr	r2, r2, r1, lsl #24
 2572 15e8 2134A0E1 		lsr	r3, r1, #8
 2573              		.loc 1 611 10
 2574 15ec 08101BE5 		ldr	r1, [fp, #-8]
 2575 15f0 061081E2 		add	r1, r1, #6
 2576              		.loc 1 611 14
 2577 15f4 7230EFE6 		uxtb	r3, r2
 2578              		.loc 1 611 13
 2579 15f8 0030C1E5 		strb	r3, [r1]
 612:/home/hkh/git/eapidk-code-r76-trunk/apps/EeePProg/linux/../BinFuncs.c ****   pBuffer[5]=EEEP_LO_UINT8(Value>>(8*2));
 2580              		.loc 1 612 14
 2581 15fc D4014BE1 		ldrd	r0, [fp, #-20]
 2582 1600 0020A0E3 		mov	r2, #0
 2583 1604 0030A0E3 		mov	r3, #0
 2584 1608 2028A0E1 		lsr	r2, r0, #16
 2585 160c 012882E1 		orr	r2, r2, r1, lsl #16
 2586 1610 2138A0E1 		lsr	r3, r1, #16
 2587              		.loc 1 612 10
 2588 1614 08101BE5 		ldr	r1, [fp, #-8]
 2589 1618 051081E2 		add	r1, r1, #5
 2590              		.loc 1 612 14
 2591 161c 7230EFE6 		uxtb	r3, r2
 2592              		.loc 1 612 13
 2593 1620 0030C1E5 		strb	r3, [r1]
 613:/home/hkh/git/eapidk-code-r76-trunk/apps/EeePProg/linux/../BinFuncs.c ****   pBuffer[4]=EEEP_LO_UINT8(Value>>(8*3));
 2594              		.loc 1 613 14
 2595 1624 D4014BE1 		ldrd	r0, [fp, #-20]
 2596 1628 0020A0E3 		mov	r2, #0
 2597 162c 0030A0E3 		mov	r3, #0
 2598 1630 202CA0E1 		lsr	r2, r0, #24
 2599 1634 012482E1 		orr	r2, r2, r1, lsl #8
 2600 1638 213CA0E1 		lsr	r3, r1, #24
ARM GAS  /tmp/cclMtiRJ.s 			page 59


 2601              		.loc 1 613 10
 2602 163c 08101BE5 		ldr	r1, [fp, #-8]
 2603 1640 041081E2 		add	r1, r1, #4
 2604              		.loc 1 613 14
 2605 1644 7230EFE6 		uxtb	r3, r2
 2606              		.loc 1 613 13
 2607 1648 0030C1E5 		strb	r3, [r1]
 614:/home/hkh/git/eapidk-code-r76-trunk/apps/EeePProg/linux/../BinFuncs.c ****   pBuffer[3]=EEEP_LO_UINT8(Value>>(8*4));
 2608              		.loc 1 614 14
 2609 164c D4014BE1 		ldrd	r0, [fp, #-20]
 2610 1650 0020A0E3 		mov	r2, #0
 2611 1654 0030A0E3 		mov	r3, #0
 2612 1658 0120A0E1 		mov	r2, r1
 2613 165c 0030A0E3 		mov	r3, #0
 2614              		.loc 1 614 10
 2615 1660 08101BE5 		ldr	r1, [fp, #-8]
 2616 1664 031081E2 		add	r1, r1, #3
 2617              		.loc 1 614 14
 2618 1668 7230EFE6 		uxtb	r3, r2
 2619              		.loc 1 614 13
 2620 166c 0030C1E5 		strb	r3, [r1]
 615:/home/hkh/git/eapidk-code-r76-trunk/apps/EeePProg/linux/../BinFuncs.c ****   pBuffer[2]=EEEP_LO_UINT8(Value>>(8*5));
 2621              		.loc 1 615 14
 2622 1670 D4014BE1 		ldrd	r0, [fp, #-20]
 2623 1674 0020A0E3 		mov	r2, #0
 2624 1678 0030A0E3 		mov	r3, #0
 2625 167c 2124A0E1 		lsr	r2, r1, #8
 2626 1680 0030A0E3 		mov	r3, #0
 2627              		.loc 1 615 10
 2628 1684 08101BE5 		ldr	r1, [fp, #-8]
 2629 1688 021081E2 		add	r1, r1, #2
 2630              		.loc 1 615 14
 2631 168c 7230EFE6 		uxtb	r3, r2
 2632              		.loc 1 615 13
 2633 1690 0030C1E5 		strb	r3, [r1]
 616:/home/hkh/git/eapidk-code-r76-trunk/apps/EeePProg/linux/../BinFuncs.c ****   pBuffer[1]=EEEP_LO_UINT8(Value>>(8*6));
 2634              		.loc 1 616 14
 2635 1694 D4014BE1 		ldrd	r0, [fp, #-20]
 2636 1698 0020A0E3 		mov	r2, #0
 2637 169c 0030A0E3 		mov	r3, #0
 2638 16a0 2128A0E1 		lsr	r2, r1, #16
 2639 16a4 0030A0E3 		mov	r3, #0
 2640              		.loc 1 616 10
 2641 16a8 08101BE5 		ldr	r1, [fp, #-8]
 2642 16ac 011081E2 		add	r1, r1, #1
 2643              		.loc 1 616 14
 2644 16b0 7230EFE6 		uxtb	r3, r2
 2645              		.loc 1 616 13
 2646 16b4 0030C1E5 		strb	r3, [r1]
 617:/home/hkh/git/eapidk-code-r76-trunk/apps/EeePProg/linux/../BinFuncs.c ****   pBuffer[0]=EEEP_LO_UINT8(Value>>(8*7));
 2647              		.loc 1 617 14
 2648 16b8 D4014BE1 		ldrd	r0, [fp, #-20]
 2649 16bc 0020A0E3 		mov	r2, #0
 2650 16c0 0030A0E3 		mov	r3, #0
 2651 16c4 212CA0E1 		lsr	r2, r1, #24
 2652 16c8 0030A0E3 		mov	r3, #0
 2653 16cc 7220EFE6 		uxtb	r2, r2
ARM GAS  /tmp/cclMtiRJ.s 			page 60


 2654              		.loc 1 617 13
 2655 16d0 08301BE5 		ldr	r3, [fp, #-8]
 2656 16d4 0020C3E5 		strb	r2, [r3]
 618:/home/hkh/git/eapidk-code-r76-trunk/apps/EeePProg/linux/../BinFuncs.c **** }
 2657              		.loc 1 618 1
 2658 16d8 00F020E3 		nop
 2659 16dc 00D08BE2 		add	sp, fp, #0
 2660              		.cfi_def_cfa_register 13
 2661              		@ sp needed
 2662 16e0 04B09DE4 		ldr	fp, [sp], #4
 2663              		.cfi_restore 11
 2664              		.cfi_def_cfa_offset 0
 2665 16e4 1EFF2FE1 		bx	lr
 2666              		.cfi_endproc
 2667              	.LFE23:
 2669              		.align	2
 2670              		.global	EeeP_Get64BitValue_BE
 2671              		.syntax unified
 2672              		.arm
 2673              		.fpu vfpv3
 2675              	EeeP_Get64BitValue_BE:
 2676              	.LFB24:
 619:/home/hkh/git/eapidk-code-r76-trunk/apps/EeePProg/linux/../BinFuncs.c **** uint64_t
 620:/home/hkh/git/eapidk-code-r76-trunk/apps/EeePProg/linux/../BinFuncs.c **** EeeP_Get64BitValue_BE(
 621:/home/hkh/git/eapidk-code-r76-trunk/apps/EeePProg/linux/../BinFuncs.c ****     const uint8_t *pBuffer
 622:/home/hkh/git/eapidk-code-r76-trunk/apps/EeePProg/linux/../BinFuncs.c ****      )
 623:/home/hkh/git/eapidk-code-r76-trunk/apps/EeePProg/linux/../BinFuncs.c **** {
 2677              		.loc 1 623 1
 2678              		.cfi_startproc
 2679              		@ args = 0, pretend = 0, frame = 56
 2680              		@ frame_needed = 1, uses_anonymous_args = 0
 2681              		@ link register save eliminated.
 2682 16e8 F00B2DE9 		push	{r4, r5, r6, r7, r8, r9, fp}
 2683              		.cfi_def_cfa_offset 28
 2684              		.cfi_offset 4, -28
 2685              		.cfi_offset 5, -24
 2686              		.cfi_offset 6, -20
 2687              		.cfi_offset 7, -16
 2688              		.cfi_offset 8, -12
 2689              		.cfi_offset 9, -8
 2690              		.cfi_offset 11, -4
 2691 16ec 18B08DE2 		add	fp, sp, #24
 2692              		.cfi_def_cfa 11, 4
 2693 16f0 3CD04DE2 		sub	sp, sp, #60
 2694 16f4 20000BE5 		str	r0, [fp, #-32]
 624:/home/hkh/git/eapidk-code-r76-trunk/apps/EeePProg/linux/../BinFuncs.c ****   return (pBuffer[7]       ) |
 2695              		.loc 1 624 18
 2696 16f8 20301BE5 		ldr	r3, [fp, #-32]
 2697 16fc 073083E2 		add	r3, r3, #7
 2698 1700 0030D3E5 		ldrb	r3, [r3]	@ zero_extendqisi2
 2699 1704 0320A0E1 		mov	r2, r3
 625:/home/hkh/git/eapidk-code-r76-trunk/apps/EeePProg/linux/../BinFuncs.c ****          (pBuffer[6]<<(8*1)) |
 2700              		.loc 1 625 18
 2701 1708 20301BE5 		ldr	r3, [fp, #-32]
 2702 170c 063083E2 		add	r3, r3, #6
 2703 1710 0030D3E5 		ldrb	r3, [r3]	@ zero_extendqisi2
 2704              		.loc 1 625 21
ARM GAS  /tmp/cclMtiRJ.s 			page 61


 2705 1714 0334A0E1 		lsl	r3, r3, #8
 624:/home/hkh/git/eapidk-code-r76-trunk/apps/EeePProg/linux/../BinFuncs.c ****   return (pBuffer[7]       ) |
 2706              		.loc 1 624 30
 2707 1718 032082E1 		orr	r2, r2, r3
 626:/home/hkh/git/eapidk-code-r76-trunk/apps/EeePProg/linux/../BinFuncs.c ****          (pBuffer[5]<<(8*2)) |
 2708              		.loc 1 626 18
 2709 171c 20301BE5 		ldr	r3, [fp, #-32]
 2710 1720 053083E2 		add	r3, r3, #5
 2711 1724 0030D3E5 		ldrb	r3, [r3]	@ zero_extendqisi2
 2712              		.loc 1 626 21
 2713 1728 0338A0E1 		lsl	r3, r3, #16
 625:/home/hkh/git/eapidk-code-r76-trunk/apps/EeePProg/linux/../BinFuncs.c ****          (pBuffer[6]<<(8*1)) |
 2714              		.loc 1 625 30
 2715 172c 032082E1 		orr	r2, r2, r3
 627:/home/hkh/git/eapidk-code-r76-trunk/apps/EeePProg/linux/../BinFuncs.c ****          (pBuffer[4]<<(8*3)) |
 2716              		.loc 1 627 18
 2717 1730 20301BE5 		ldr	r3, [fp, #-32]
 2718 1734 043083E2 		add	r3, r3, #4
 2719 1738 0030D3E5 		ldrb	r3, [r3]	@ zero_extendqisi2
 2720              		.loc 1 627 21
 2721 173c 033CA0E1 		lsl	r3, r3, #24
 626:/home/hkh/git/eapidk-code-r76-trunk/apps/EeePProg/linux/../BinFuncs.c ****          (pBuffer[5]<<(8*2)) |
 2722              		.loc 1 626 30
 2723 1740 033082E1 		orr	r3, r2, r3
 2724 1744 C32FA0E1 		asr	r2, r3, #31
 2725 1748 2C300BE5 		str	r3, [fp, #-44]
 2726 174c 28200BE5 		str	r2, [fp, #-40]
 628:/home/hkh/git/eapidk-code-r76-trunk/apps/EeePProg/linux/../BinFuncs.c ****          ((uint64_t)pBuffer[3]<<(8*4)) |
 2727              		.loc 1 628 28
 2728 1750 20301BE5 		ldr	r3, [fp, #-32]
 2729 1754 033083E2 		add	r3, r3, #3
 2730 1758 0030D3E5 		ldrb	r3, [r3]	@ zero_extendqisi2
 2731              		.loc 1 628 11
 2732 175c 7330EFE6 		uxtb	r3, r3
 2733 1760 0020A0E3 		mov	r2, #0
 2734 1764 34300BE5 		str	r3, [fp, #-52]
 2735 1768 30200BE5 		str	r2, [fp, #-48]
 2736              		.loc 1 628 31
 2737 176c 0020A0E3 		mov	r2, #0
 2738 1770 0030A0E3 		mov	r3, #0
 2739 1774 34101BE5 		ldr	r1, [fp, #-52]
 2740 1778 0130A0E1 		mov	r3, r1
 2741 177c 0020A0E3 		mov	r2, #0
 627:/home/hkh/git/eapidk-code-r76-trunk/apps/EeePProg/linux/../BinFuncs.c ****          (pBuffer[4]<<(8*3)) |
 2742              		.loc 1 627 30
 2743 1780 DC024BE1 		ldrd	r0, [fp, #-44]
 2744 1784 00C0A0E1 		mov	ip, r0
 2745 1788 02808CE1 		orr	r8, ip, r2
 2746 178c 039081E1 		orr	r9, r1, r3
 629:/home/hkh/git/eapidk-code-r76-trunk/apps/EeePProg/linux/../BinFuncs.c ****          ((uint64_t)pBuffer[2]<<(8*5)) |
 2747              		.loc 1 629 28
 2748 1790 20301BE5 		ldr	r3, [fp, #-32]
 2749 1794 023083E2 		add	r3, r3, #2
 2750 1798 0030D3E5 		ldrb	r3, [r3]	@ zero_extendqisi2
 2751              		.loc 1 629 11
 2752 179c 7330EFE6 		uxtb	r3, r3
 2753 17a0 0020A0E3 		mov	r2, #0
ARM GAS  /tmp/cclMtiRJ.s 			page 62


 2754 17a4 3C300BE5 		str	r3, [fp, #-60]
 2755 17a8 38200BE5 		str	r2, [fp, #-56]
 2756              		.loc 1 629 31
 2757 17ac 0020A0E3 		mov	r2, #0
 2758 17b0 0030A0E3 		mov	r3, #0
 2759 17b4 3C101BE5 		ldr	r1, [fp, #-60]
 2760 17b8 0134A0E1 		lsl	r3, r1, #8
 2761 17bc 0020A0E3 		mov	r2, #0
 628:/home/hkh/git/eapidk-code-r76-trunk/apps/EeePProg/linux/../BinFuncs.c ****          ((uint64_t)pBuffer[3]<<(8*4)) |
 2762              		.loc 1 628 40
 2763 17c0 026088E1 		orr	r6, r8, r2
 2764 17c4 037089E1 		orr	r7, r9, r3
 630:/home/hkh/git/eapidk-code-r76-trunk/apps/EeePProg/linux/../BinFuncs.c ****          ((uint64_t)pBuffer[1]<<(8*6)) |
 2765              		.loc 1 630 28
 2766 17c8 20301BE5 		ldr	r3, [fp, #-32]
 2767 17cc 013083E2 		add	r3, r3, #1
 2768 17d0 0030D3E5 		ldrb	r3, [r3]	@ zero_extendqisi2
 2769              		.loc 1 630 11
 2770 17d4 7330EFE6 		uxtb	r3, r3
 2771 17d8 0020A0E3 		mov	r2, #0
 2772 17dc 44300BE5 		str	r3, [fp, #-68]
 2773 17e0 40200BE5 		str	r2, [fp, #-64]
 2774              		.loc 1 630 31
 2775 17e4 0020A0E3 		mov	r2, #0
 2776 17e8 0030A0E3 		mov	r3, #0
 2777 17ec 44101BE5 		ldr	r1, [fp, #-68]
 2778 17f0 0138A0E1 		lsl	r3, r1, #16
 2779 17f4 0020A0E3 		mov	r2, #0
 629:/home/hkh/git/eapidk-code-r76-trunk/apps/EeePProg/linux/../BinFuncs.c ****          ((uint64_t)pBuffer[2]<<(8*5)) |
 2780              		.loc 1 629 40
 2781 17f8 024086E1 		orr	r4, r6, r2
 2782 17fc 035087E1 		orr	r5, r7, r3
 631:/home/hkh/git/eapidk-code-r76-trunk/apps/EeePProg/linux/../BinFuncs.c ****          ((uint64_t)pBuffer[0]<<(8*7)) ;
 2783              		.loc 1 631 28
 2784 1800 20301BE5 		ldr	r3, [fp, #-32]
 2785 1804 0030D3E5 		ldrb	r3, [r3]	@ zero_extendqisi2
 2786              		.loc 1 631 11
 2787 1808 7330EFE6 		uxtb	r3, r3
 2788 180c 0020A0E3 		mov	r2, #0
 2789 1810 4C300BE5 		str	r3, [fp, #-76]
 2790 1814 48200BE5 		str	r2, [fp, #-72]
 2791              		.loc 1 631 31
 2792 1818 0020A0E3 		mov	r2, #0
 2793 181c 0030A0E3 		mov	r3, #0
 2794 1820 4C101BE5 		ldr	r1, [fp, #-76]
 2795 1824 013CA0E1 		lsl	r3, r1, #24
 2796 1828 0020A0E3 		mov	r2, #0
 630:/home/hkh/git/eapidk-code-r76-trunk/apps/EeePProg/linux/../BinFuncs.c ****          ((uint64_t)pBuffer[1]<<(8*6)) |
 2797              		.loc 1 630 40
 2798 182c 021084E1 		orr	r1, r4, r2
 2799 1830 54100BE5 		str	r1, [fp, #-84]
 2800 1834 033085E1 		orr	r3, r5, r3
 2801 1838 50300BE5 		str	r3, [fp, #-80]
 2802 183c D4254BE1 		ldrd	r2, [fp, #-84]
 632:/home/hkh/git/eapidk-code-r76-trunk/apps/EeePProg/linux/../BinFuncs.c **** }
 2803              		.loc 1 632 1
 2804 1840 0200A0E1 		mov	r0, r2
ARM GAS  /tmp/cclMtiRJ.s 			page 63


 2805 1844 0310A0E1 		mov	r1, r3
 2806 1848 18D04BE2 		sub	sp, fp, #24
 2807              		.cfi_def_cfa 13, 28
 2808              		@ sp needed
 2809 184c F00BBDE8 		pop	{r4, r5, r6, r7, r8, r9, fp}
 2810              		.cfi_restore 11
 2811              		.cfi_restore 9
 2812              		.cfi_restore 8
 2813              		.cfi_restore 7
 2814              		.cfi_restore 6
 2815              		.cfi_restore 5
 2816              		.cfi_restore 4
 2817              		.cfi_def_cfa_offset 0
 2818 1850 1EFF2FE1 		bx	lr
 2819              		.cfi_endproc
 2820              	.LFE24:
 2822              		.align	2
 2823              		.global	EeeP_Set16BitValue_LE
 2824              		.syntax unified
 2825              		.arm
 2826              		.fpu vfpv3
 2828              	EeeP_Set16BitValue_LE:
 2829              	.LFB25:
 633:/home/hkh/git/eapidk-code-r76-trunk/apps/EeePProg/linux/../BinFuncs.c **** /*
 634:/home/hkh/git/eapidk-code-r76-trunk/apps/EeePProg/linux/../BinFuncs.c ****  * CPU Independent Multi Byte 
 635:/home/hkh/git/eapidk-code-r76-trunk/apps/EeePProg/linux/../BinFuncs.c ****  * Little Endian Memory Access
 636:/home/hkh/git/eapidk-code-r76-trunk/apps/EeePProg/linux/../BinFuncs.c ****  */
 637:/home/hkh/git/eapidk-code-r76-trunk/apps/EeePProg/linux/../BinFuncs.c **** void
 638:/home/hkh/git/eapidk-code-r76-trunk/apps/EeePProg/linux/../BinFuncs.c **** EeeP_Set16BitValue_LE(
 639:/home/hkh/git/eapidk-code-r76-trunk/apps/EeePProg/linux/../BinFuncs.c ****     uint8_t *pBuffer,
 640:/home/hkh/git/eapidk-code-r76-trunk/apps/EeePProg/linux/../BinFuncs.c ****     uint16_t Value
 641:/home/hkh/git/eapidk-code-r76-trunk/apps/EeePProg/linux/../BinFuncs.c ****      )
 642:/home/hkh/git/eapidk-code-r76-trunk/apps/EeePProg/linux/../BinFuncs.c **** {
 2830              		.loc 1 642 1
 2831              		.cfi_startproc
 2832              		@ args = 0, pretend = 0, frame = 8
 2833              		@ frame_needed = 1, uses_anonymous_args = 0
 2834              		@ link register save eliminated.
 2835 1854 04B02DE5 		str	fp, [sp, #-4]!
 2836              		.cfi_def_cfa_offset 4
 2837              		.cfi_offset 11, -4
 2838 1858 00B08DE2 		add	fp, sp, #0
 2839              		.cfi_def_cfa_register 11
 2840 185c 0CD04DE2 		sub	sp, sp, #12
 2841 1860 08000BE5 		str	r0, [fp, #-8]
 2842 1864 0130A0E1 		mov	r3, r1
 2843 1868 BA304BE1 		strh	r3, [fp, #-10]	@ movhi
 643:/home/hkh/git/eapidk-code-r76-trunk/apps/EeePProg/linux/../BinFuncs.c ****   pBuffer[0]=EEEP_LO_UINT8(Value       );
 2844              		.loc 1 643 14
 2845 186c BA305BE1 		ldrh	r3, [fp, #-10]	@ movhi
 2846 1870 7320EFE6 		uxtb	r2, r3
 2847              		.loc 1 643 13
 2848 1874 08301BE5 		ldr	r3, [fp, #-8]
 2849 1878 0020C3E5 		strb	r2, [r3]
 644:/home/hkh/git/eapidk-code-r76-trunk/apps/EeePProg/linux/../BinFuncs.c ****   pBuffer[1]=EEEP_LO_UINT8(Value>>(8*1));
 2850              		.loc 1 644 14
 2851 187c BA305BE1 		ldrh	r3, [fp, #-10]
ARM GAS  /tmp/cclMtiRJ.s 			page 64


 2852 1880 2334A0E1 		lsr	r3, r3, #8
 2853 1884 7320FFE6 		uxth	r2, r3
 2854              		.loc 1 644 10
 2855 1888 08301BE5 		ldr	r3, [fp, #-8]
 2856 188c 013083E2 		add	r3, r3, #1
 2857              		.loc 1 644 14
 2858 1890 7220EFE6 		uxtb	r2, r2
 2859              		.loc 1 644 13
 2860 1894 0020C3E5 		strb	r2, [r3]
 645:/home/hkh/git/eapidk-code-r76-trunk/apps/EeePProg/linux/../BinFuncs.c **** }
 2861              		.loc 1 645 1
 2862 1898 00F020E3 		nop
 2863 189c 00D08BE2 		add	sp, fp, #0
 2864              		.cfi_def_cfa_register 13
 2865              		@ sp needed
 2866 18a0 04B09DE4 		ldr	fp, [sp], #4
 2867              		.cfi_restore 11
 2868              		.cfi_def_cfa_offset 0
 2869 18a4 1EFF2FE1 		bx	lr
 2870              		.cfi_endproc
 2871              	.LFE25:
 2873              		.align	2
 2874              		.global	EeeP_Get16BitValue_LE
 2875              		.syntax unified
 2876              		.arm
 2877              		.fpu vfpv3
 2879              	EeeP_Get16BitValue_LE:
 2880              	.LFB26:
 646:/home/hkh/git/eapidk-code-r76-trunk/apps/EeePProg/linux/../BinFuncs.c **** uint16_t
 647:/home/hkh/git/eapidk-code-r76-trunk/apps/EeePProg/linux/../BinFuncs.c **** EeeP_Get16BitValue_LE(
 648:/home/hkh/git/eapidk-code-r76-trunk/apps/EeePProg/linux/../BinFuncs.c ****     const uint8_t *pBuffer
 649:/home/hkh/git/eapidk-code-r76-trunk/apps/EeePProg/linux/../BinFuncs.c ****      )
 650:/home/hkh/git/eapidk-code-r76-trunk/apps/EeePProg/linux/../BinFuncs.c **** {
 2881              		.loc 1 650 1
 2882              		.cfi_startproc
 2883              		@ args = 0, pretend = 0, frame = 8
 2884              		@ frame_needed = 1, uses_anonymous_args = 0
 2885              		@ link register save eliminated.
 2886 18a8 04B02DE5 		str	fp, [sp, #-4]!
 2887              		.cfi_def_cfa_offset 4
 2888              		.cfi_offset 11, -4
 2889 18ac 00B08DE2 		add	fp, sp, #0
 2890              		.cfi_def_cfa_register 11
 2891 18b0 0CD04DE2 		sub	sp, sp, #12
 2892 18b4 08000BE5 		str	r0, [fp, #-8]
 651:/home/hkh/git/eapidk-code-r76-trunk/apps/EeePProg/linux/../BinFuncs.c ****   return (pBuffer[0]       ) |
 2893              		.loc 1 651 18
 2894 18b8 08301BE5 		ldr	r3, [fp, #-8]
 2895 18bc 0030D3E5 		ldrb	r3, [r3]	@ zero_extendqisi2
 2896 18c0 7320BFE6 		sxth	r2, r3
 652:/home/hkh/git/eapidk-code-r76-trunk/apps/EeePProg/linux/../BinFuncs.c ****          (pBuffer[1]<<(8*1)) ;
 2897              		.loc 1 652 18
 2898 18c4 08301BE5 		ldr	r3, [fp, #-8]
 2899 18c8 013083E2 		add	r3, r3, #1
 2900 18cc 0030D3E5 		ldrb	r3, [r3]	@ zero_extendqisi2
 2901              		.loc 1 652 21
 2902 18d0 0334A0E1 		lsl	r3, r3, #8
ARM GAS  /tmp/cclMtiRJ.s 			page 65


 651:/home/hkh/git/eapidk-code-r76-trunk/apps/EeePProg/linux/../BinFuncs.c ****   return (pBuffer[0]       ) |
 2903              		.loc 1 651 30
 2904 18d4 7330BFE6 		sxth	r3, r3
 2905 18d8 033082E1 		orr	r3, r2, r3
 2906 18dc 7330BFE6 		sxth	r3, r3
 2907 18e0 7330FFE6 		uxth	r3, r3
 653:/home/hkh/git/eapidk-code-r76-trunk/apps/EeePProg/linux/../BinFuncs.c **** }
 2908              		.loc 1 653 1
 2909 18e4 0300A0E1 		mov	r0, r3
 2910 18e8 00D08BE2 		add	sp, fp, #0
 2911              		.cfi_def_cfa_register 13
 2912              		@ sp needed
 2913 18ec 04B09DE4 		ldr	fp, [sp], #4
 2914              		.cfi_restore 11
 2915              		.cfi_def_cfa_offset 0
 2916 18f0 1EFF2FE1 		bx	lr
 2917              		.cfi_endproc
 2918              	.LFE26:
 2920              		.align	2
 2921              		.global	EeeP_Set32BitValue_LE
 2922              		.syntax unified
 2923              		.arm
 2924              		.fpu vfpv3
 2926              	EeeP_Set32BitValue_LE:
 2927              	.LFB27:
 654:/home/hkh/git/eapidk-code-r76-trunk/apps/EeePProg/linux/../BinFuncs.c **** void
 655:/home/hkh/git/eapidk-code-r76-trunk/apps/EeePProg/linux/../BinFuncs.c **** EeeP_Set32BitValue_LE(
 656:/home/hkh/git/eapidk-code-r76-trunk/apps/EeePProg/linux/../BinFuncs.c ****     uint8_t *pBuffer,
 657:/home/hkh/git/eapidk-code-r76-trunk/apps/EeePProg/linux/../BinFuncs.c ****     uint32_t Value
 658:/home/hkh/git/eapidk-code-r76-trunk/apps/EeePProg/linux/../BinFuncs.c ****      )
 659:/home/hkh/git/eapidk-code-r76-trunk/apps/EeePProg/linux/../BinFuncs.c **** {
 2928              		.loc 1 659 1
 2929              		.cfi_startproc
 2930              		@ args = 0, pretend = 0, frame = 8
 2931              		@ frame_needed = 1, uses_anonymous_args = 0
 2932              		@ link register save eliminated.
 2933 18f4 04B02DE5 		str	fp, [sp, #-4]!
 2934              		.cfi_def_cfa_offset 4
 2935              		.cfi_offset 11, -4
 2936 18f8 00B08DE2 		add	fp, sp, #0
 2937              		.cfi_def_cfa_register 11
 2938 18fc 0CD04DE2 		sub	sp, sp, #12
 2939 1900 08000BE5 		str	r0, [fp, #-8]
 2940 1904 0C100BE5 		str	r1, [fp, #-12]
 660:/home/hkh/git/eapidk-code-r76-trunk/apps/EeePProg/linux/../BinFuncs.c ****   pBuffer[0]=EEEP_LO_UINT8(Value       );
 2941              		.loc 1 660 14
 2942 1908 0C301BE5 		ldr	r3, [fp, #-12]
 2943 190c 7320EFE6 		uxtb	r2, r3
 2944              		.loc 1 660 13
 2945 1910 08301BE5 		ldr	r3, [fp, #-8]
 2946 1914 0020C3E5 		strb	r2, [r3]
 661:/home/hkh/git/eapidk-code-r76-trunk/apps/EeePProg/linux/../BinFuncs.c ****   pBuffer[1]=EEEP_LO_UINT8(Value>>(8*1));
 2947              		.loc 1 661 14
 2948 1918 0C301BE5 		ldr	r3, [fp, #-12]
 2949 191c 2324A0E1 		lsr	r2, r3, #8
 2950              		.loc 1 661 10
 2951 1920 08301BE5 		ldr	r3, [fp, #-8]
ARM GAS  /tmp/cclMtiRJ.s 			page 66


 2952 1924 013083E2 		add	r3, r3, #1
 2953              		.loc 1 661 14
 2954 1928 7220EFE6 		uxtb	r2, r2
 2955              		.loc 1 661 13
 2956 192c 0020C3E5 		strb	r2, [r3]
 662:/home/hkh/git/eapidk-code-r76-trunk/apps/EeePProg/linux/../BinFuncs.c ****   pBuffer[2]=EEEP_LO_UINT8(Value>>(8*2));
 2957              		.loc 1 662 14
 2958 1930 0C301BE5 		ldr	r3, [fp, #-12]
 2959 1934 2328A0E1 		lsr	r2, r3, #16
 2960              		.loc 1 662 10
 2961 1938 08301BE5 		ldr	r3, [fp, #-8]
 2962 193c 023083E2 		add	r3, r3, #2
 2963              		.loc 1 662 14
 2964 1940 7220EFE6 		uxtb	r2, r2
 2965              		.loc 1 662 13
 2966 1944 0020C3E5 		strb	r2, [r3]
 663:/home/hkh/git/eapidk-code-r76-trunk/apps/EeePProg/linux/../BinFuncs.c ****   pBuffer[3]=EEEP_LO_UINT8(Value>>(8*3));
 2967              		.loc 1 663 14
 2968 1948 0C301BE5 		ldr	r3, [fp, #-12]
 2969 194c 232CA0E1 		lsr	r2, r3, #24
 2970              		.loc 1 663 10
 2971 1950 08301BE5 		ldr	r3, [fp, #-8]
 2972 1954 033083E2 		add	r3, r3, #3
 2973              		.loc 1 663 14
 2974 1958 7220EFE6 		uxtb	r2, r2
 2975              		.loc 1 663 13
 2976 195c 0020C3E5 		strb	r2, [r3]
 664:/home/hkh/git/eapidk-code-r76-trunk/apps/EeePProg/linux/../BinFuncs.c **** }
 2977              		.loc 1 664 1
 2978 1960 00F020E3 		nop
 2979 1964 00D08BE2 		add	sp, fp, #0
 2980              		.cfi_def_cfa_register 13
 2981              		@ sp needed
 2982 1968 04B09DE4 		ldr	fp, [sp], #4
 2983              		.cfi_restore 11
 2984              		.cfi_def_cfa_offset 0
 2985 196c 1EFF2FE1 		bx	lr
 2986              		.cfi_endproc
 2987              	.LFE27:
 2989              		.align	2
 2990              		.global	EeeP_Get32BitValue_LE
 2991              		.syntax unified
 2992              		.arm
 2993              		.fpu vfpv3
 2995              	EeeP_Get32BitValue_LE:
 2996              	.LFB28:
 665:/home/hkh/git/eapidk-code-r76-trunk/apps/EeePProg/linux/../BinFuncs.c **** uint32_t
 666:/home/hkh/git/eapidk-code-r76-trunk/apps/EeePProg/linux/../BinFuncs.c **** EeeP_Get32BitValue_LE(
 667:/home/hkh/git/eapidk-code-r76-trunk/apps/EeePProg/linux/../BinFuncs.c ****     const uint8_t *pBuffer
 668:/home/hkh/git/eapidk-code-r76-trunk/apps/EeePProg/linux/../BinFuncs.c ****      )
 669:/home/hkh/git/eapidk-code-r76-trunk/apps/EeePProg/linux/../BinFuncs.c **** {
 2997              		.loc 1 669 1
 2998              		.cfi_startproc
 2999              		@ args = 0, pretend = 0, frame = 8
 3000              		@ frame_needed = 1, uses_anonymous_args = 0
 3001              		@ link register save eliminated.
 3002 1970 04B02DE5 		str	fp, [sp, #-4]!
ARM GAS  /tmp/cclMtiRJ.s 			page 67


 3003              		.cfi_def_cfa_offset 4
 3004              		.cfi_offset 11, -4
 3005 1974 00B08DE2 		add	fp, sp, #0
 3006              		.cfi_def_cfa_register 11
 3007 1978 0CD04DE2 		sub	sp, sp, #12
 3008 197c 08000BE5 		str	r0, [fp, #-8]
 670:/home/hkh/git/eapidk-code-r76-trunk/apps/EeePProg/linux/../BinFuncs.c ****   return (pBuffer[0]       ) |
 3009              		.loc 1 670 18
 3010 1980 08301BE5 		ldr	r3, [fp, #-8]
 3011 1984 0030D3E5 		ldrb	r3, [r3]	@ zero_extendqisi2
 3012 1988 0320A0E1 		mov	r2, r3
 671:/home/hkh/git/eapidk-code-r76-trunk/apps/EeePProg/linux/../BinFuncs.c ****          (pBuffer[1]<<(8*1)) |
 3013              		.loc 1 671 18
 3014 198c 08301BE5 		ldr	r3, [fp, #-8]
 3015 1990 013083E2 		add	r3, r3, #1
 3016 1994 0030D3E5 		ldrb	r3, [r3]	@ zero_extendqisi2
 3017              		.loc 1 671 21
 3018 1998 0334A0E1 		lsl	r3, r3, #8
 670:/home/hkh/git/eapidk-code-r76-trunk/apps/EeePProg/linux/../BinFuncs.c ****   return (pBuffer[0]       ) |
 3019              		.loc 1 670 30
 3020 199c 032082E1 		orr	r2, r2, r3
 672:/home/hkh/git/eapidk-code-r76-trunk/apps/EeePProg/linux/../BinFuncs.c ****          (pBuffer[2]<<(8*2)) |
 3021              		.loc 1 672 18
 3022 19a0 08301BE5 		ldr	r3, [fp, #-8]
 3023 19a4 023083E2 		add	r3, r3, #2
 3024 19a8 0030D3E5 		ldrb	r3, [r3]	@ zero_extendqisi2
 3025              		.loc 1 672 21
 3026 19ac 0338A0E1 		lsl	r3, r3, #16
 671:/home/hkh/git/eapidk-code-r76-trunk/apps/EeePProg/linux/../BinFuncs.c ****          (pBuffer[1]<<(8*1)) |
 3027              		.loc 1 671 30
 3028 19b0 032082E1 		orr	r2, r2, r3
 673:/home/hkh/git/eapidk-code-r76-trunk/apps/EeePProg/linux/../BinFuncs.c ****          (pBuffer[3]<<(8*3)) ;
 3029              		.loc 1 673 18
 3030 19b4 08301BE5 		ldr	r3, [fp, #-8]
 3031 19b8 033083E2 		add	r3, r3, #3
 3032 19bc 0030D3E5 		ldrb	r3, [r3]	@ zero_extendqisi2
 3033              		.loc 1 673 21
 3034 19c0 033CA0E1 		lsl	r3, r3, #24
 672:/home/hkh/git/eapidk-code-r76-trunk/apps/EeePProg/linux/../BinFuncs.c ****          (pBuffer[2]<<(8*2)) |
 3035              		.loc 1 672 30
 3036 19c4 033082E1 		orr	r3, r2, r3
 674:/home/hkh/git/eapidk-code-r76-trunk/apps/EeePProg/linux/../BinFuncs.c **** }
 3037              		.loc 1 674 1
 3038 19c8 0300A0E1 		mov	r0, r3
 3039 19cc 00D08BE2 		add	sp, fp, #0
 3040              		.cfi_def_cfa_register 13
 3041              		@ sp needed
 3042 19d0 04B09DE4 		ldr	fp, [sp], #4
 3043              		.cfi_restore 11
 3044              		.cfi_def_cfa_offset 0
 3045 19d4 1EFF2FE1 		bx	lr
 3046              		.cfi_endproc
 3047              	.LFE28:
 3049              		.align	2
 3050              		.global	EeeP_Set64BitValue_LE
 3051              		.syntax unified
 3052              		.arm
ARM GAS  /tmp/cclMtiRJ.s 			page 68


 3053              		.fpu vfpv3
 3055              	EeeP_Set64BitValue_LE:
 3056              	.LFB29:
 675:/home/hkh/git/eapidk-code-r76-trunk/apps/EeePProg/linux/../BinFuncs.c **** void
 676:/home/hkh/git/eapidk-code-r76-trunk/apps/EeePProg/linux/../BinFuncs.c **** EeeP_Set64BitValue_LE(
 677:/home/hkh/git/eapidk-code-r76-trunk/apps/EeePProg/linux/../BinFuncs.c ****     uint8_t *pBuffer,
 678:/home/hkh/git/eapidk-code-r76-trunk/apps/EeePProg/linux/../BinFuncs.c ****     uint64_t Value
 679:/home/hkh/git/eapidk-code-r76-trunk/apps/EeePProg/linux/../BinFuncs.c ****      )
 680:/home/hkh/git/eapidk-code-r76-trunk/apps/EeePProg/linux/../BinFuncs.c **** {
 3057              		.loc 1 680 1
 3058              		.cfi_startproc
 3059              		@ args = 0, pretend = 0, frame = 16
 3060              		@ frame_needed = 1, uses_anonymous_args = 0
 3061              		@ link register save eliminated.
 3062 19d8 04B02DE5 		str	fp, [sp, #-4]!
 3063              		.cfi_def_cfa_offset 4
 3064              		.cfi_offset 11, -4
 3065 19dc 00B08DE2 		add	fp, sp, #0
 3066              		.cfi_def_cfa_register 11
 3067 19e0 14D04DE2 		sub	sp, sp, #20
 3068 19e4 08000BE5 		str	r0, [fp, #-8]
 3069 19e8 F4214BE1 		strd	r2, [fp, #-20]
 681:/home/hkh/git/eapidk-code-r76-trunk/apps/EeePProg/linux/../BinFuncs.c ****   pBuffer[0]=EEEP_LO_UINT8(Value       );
 3070              		.loc 1 681 14
 3071 19ec 14205BE5 		ldrb	r2, [fp, #-20]	@ zero_extendqisi2
 3072              		.loc 1 681 13
 3073 19f0 08301BE5 		ldr	r3, [fp, #-8]
 3074 19f4 0020C3E5 		strb	r2, [r3]
 682:/home/hkh/git/eapidk-code-r76-trunk/apps/EeePProg/linux/../BinFuncs.c ****   pBuffer[1]=EEEP_LO_UINT8(Value>>(8*1));
 3075              		.loc 1 682 14
 3076 19f8 D4014BE1 		ldrd	r0, [fp, #-20]
 3077 19fc 0020A0E3 		mov	r2, #0
 3078 1a00 0030A0E3 		mov	r3, #0
 3079 1a04 2024A0E1 		lsr	r2, r0, #8
 3080 1a08 012C82E1 		orr	r2, r2, r1, lsl #24
 3081 1a0c 2134A0E1 		lsr	r3, r1, #8
 3082              		.loc 1 682 10
 3083 1a10 08101BE5 		ldr	r1, [fp, #-8]
 3084 1a14 011081E2 		add	r1, r1, #1
 3085              		.loc 1 682 14
 3086 1a18 7230EFE6 		uxtb	r3, r2
 3087              		.loc 1 682 13
 3088 1a1c 0030C1E5 		strb	r3, [r1]
 683:/home/hkh/git/eapidk-code-r76-trunk/apps/EeePProg/linux/../BinFuncs.c ****   pBuffer[2]=EEEP_LO_UINT8(Value>>(8*2));
 3089              		.loc 1 683 14
 3090 1a20 D4014BE1 		ldrd	r0, [fp, #-20]
 3091 1a24 0020A0E3 		mov	r2, #0
 3092 1a28 0030A0E3 		mov	r3, #0
 3093 1a2c 2028A0E1 		lsr	r2, r0, #16
 3094 1a30 012882E1 		orr	r2, r2, r1, lsl #16
 3095 1a34 2138A0E1 		lsr	r3, r1, #16
 3096              		.loc 1 683 10
 3097 1a38 08101BE5 		ldr	r1, [fp, #-8]
 3098 1a3c 021081E2 		add	r1, r1, #2
 3099              		.loc 1 683 14
 3100 1a40 7230EFE6 		uxtb	r3, r2
 3101              		.loc 1 683 13
ARM GAS  /tmp/cclMtiRJ.s 			page 69


 3102 1a44 0030C1E5 		strb	r3, [r1]
 684:/home/hkh/git/eapidk-code-r76-trunk/apps/EeePProg/linux/../BinFuncs.c ****   pBuffer[3]=EEEP_LO_UINT8(Value>>(8*3));
 3103              		.loc 1 684 14
 3104 1a48 D4014BE1 		ldrd	r0, [fp, #-20]
 3105 1a4c 0020A0E3 		mov	r2, #0
 3106 1a50 0030A0E3 		mov	r3, #0
 3107 1a54 202CA0E1 		lsr	r2, r0, #24
 3108 1a58 012482E1 		orr	r2, r2, r1, lsl #8
 3109 1a5c 213CA0E1 		lsr	r3, r1, #24
 3110              		.loc 1 684 10
 3111 1a60 08101BE5 		ldr	r1, [fp, #-8]
 3112 1a64 031081E2 		add	r1, r1, #3
 3113              		.loc 1 684 14
 3114 1a68 7230EFE6 		uxtb	r3, r2
 3115              		.loc 1 684 13
 3116 1a6c 0030C1E5 		strb	r3, [r1]
 685:/home/hkh/git/eapidk-code-r76-trunk/apps/EeePProg/linux/../BinFuncs.c ****   pBuffer[4]=EEEP_LO_UINT8(Value>>(8*4));
 3117              		.loc 1 685 14
 3118 1a70 D4014BE1 		ldrd	r0, [fp, #-20]
 3119 1a74 0020A0E3 		mov	r2, #0
 3120 1a78 0030A0E3 		mov	r3, #0
 3121 1a7c 0120A0E1 		mov	r2, r1
 3122 1a80 0030A0E3 		mov	r3, #0
 3123              		.loc 1 685 10
 3124 1a84 08101BE5 		ldr	r1, [fp, #-8]
 3125 1a88 041081E2 		add	r1, r1, #4
 3126              		.loc 1 685 14
 3127 1a8c 7230EFE6 		uxtb	r3, r2
 3128              		.loc 1 685 13
 3129 1a90 0030C1E5 		strb	r3, [r1]
 686:/home/hkh/git/eapidk-code-r76-trunk/apps/EeePProg/linux/../BinFuncs.c ****   pBuffer[5]=EEEP_LO_UINT8(Value>>(8*5));
 3130              		.loc 1 686 14
 3131 1a94 D4014BE1 		ldrd	r0, [fp, #-20]
 3132 1a98 0020A0E3 		mov	r2, #0
 3133 1a9c 0030A0E3 		mov	r3, #0
 3134 1aa0 2124A0E1 		lsr	r2, r1, #8
 3135 1aa4 0030A0E3 		mov	r3, #0
 3136              		.loc 1 686 10
 3137 1aa8 08101BE5 		ldr	r1, [fp, #-8]
 3138 1aac 051081E2 		add	r1, r1, #5
 3139              		.loc 1 686 14
 3140 1ab0 7230EFE6 		uxtb	r3, r2
 3141              		.loc 1 686 13
 3142 1ab4 0030C1E5 		strb	r3, [r1]
 687:/home/hkh/git/eapidk-code-r76-trunk/apps/EeePProg/linux/../BinFuncs.c ****   pBuffer[6]=EEEP_LO_UINT8(Value>>(8*6));
 3143              		.loc 1 687 14
 3144 1ab8 D4014BE1 		ldrd	r0, [fp, #-20]
 3145 1abc 0020A0E3 		mov	r2, #0
 3146 1ac0 0030A0E3 		mov	r3, #0
 3147 1ac4 2128A0E1 		lsr	r2, r1, #16
 3148 1ac8 0030A0E3 		mov	r3, #0
 3149              		.loc 1 687 10
 3150 1acc 08101BE5 		ldr	r1, [fp, #-8]
 3151 1ad0 061081E2 		add	r1, r1, #6
 3152              		.loc 1 687 14
 3153 1ad4 7230EFE6 		uxtb	r3, r2
 3154              		.loc 1 687 13
ARM GAS  /tmp/cclMtiRJ.s 			page 70


 3155 1ad8 0030C1E5 		strb	r3, [r1]
 688:/home/hkh/git/eapidk-code-r76-trunk/apps/EeePProg/linux/../BinFuncs.c ****   pBuffer[7]=EEEP_LO_UINT8(Value>>(8*7));
 3156              		.loc 1 688 14
 3157 1adc D4014BE1 		ldrd	r0, [fp, #-20]
 3158 1ae0 0020A0E3 		mov	r2, #0
 3159 1ae4 0030A0E3 		mov	r3, #0
 3160 1ae8 212CA0E1 		lsr	r2, r1, #24
 3161 1aec 0030A0E3 		mov	r3, #0
 3162              		.loc 1 688 10
 3163 1af0 08101BE5 		ldr	r1, [fp, #-8]
 3164 1af4 071081E2 		add	r1, r1, #7
 3165              		.loc 1 688 14
 3166 1af8 7230EFE6 		uxtb	r3, r2
 3167              		.loc 1 688 13
 3168 1afc 0030C1E5 		strb	r3, [r1]
 689:/home/hkh/git/eapidk-code-r76-trunk/apps/EeePProg/linux/../BinFuncs.c **** }
 3169              		.loc 1 689 1
 3170 1b00 00F020E3 		nop
 3171 1b04 00D08BE2 		add	sp, fp, #0
 3172              		.cfi_def_cfa_register 13
 3173              		@ sp needed
 3174 1b08 04B09DE4 		ldr	fp, [sp], #4
 3175              		.cfi_restore 11
 3176              		.cfi_def_cfa_offset 0
 3177 1b0c 1EFF2FE1 		bx	lr
 3178              		.cfi_endproc
 3179              	.LFE29:
 3181              		.align	2
 3182              		.global	EeeP_Get64BitValue_LE
 3183              		.syntax unified
 3184              		.arm
 3185              		.fpu vfpv3
 3187              	EeeP_Get64BitValue_LE:
 3188              	.LFB30:
 690:/home/hkh/git/eapidk-code-r76-trunk/apps/EeePProg/linux/../BinFuncs.c **** uint64_t
 691:/home/hkh/git/eapidk-code-r76-trunk/apps/EeePProg/linux/../BinFuncs.c **** EeeP_Get64BitValue_LE(
 692:/home/hkh/git/eapidk-code-r76-trunk/apps/EeePProg/linux/../BinFuncs.c ****     const uint8_t *pBuffer
 693:/home/hkh/git/eapidk-code-r76-trunk/apps/EeePProg/linux/../BinFuncs.c ****      )
 694:/home/hkh/git/eapidk-code-r76-trunk/apps/EeePProg/linux/../BinFuncs.c **** {
 3189              		.loc 1 694 1
 3190              		.cfi_startproc
 3191              		@ args = 0, pretend = 0, frame = 56
 3192              		@ frame_needed = 1, uses_anonymous_args = 0
 3193              		@ link register save eliminated.
 3194 1b10 F00B2DE9 		push	{r4, r5, r6, r7, r8, r9, fp}
 3195              		.cfi_def_cfa_offset 28
 3196              		.cfi_offset 4, -28
 3197              		.cfi_offset 5, -24
 3198              		.cfi_offset 6, -20
 3199              		.cfi_offset 7, -16
 3200              		.cfi_offset 8, -12
 3201              		.cfi_offset 9, -8
 3202              		.cfi_offset 11, -4
 3203 1b14 18B08DE2 		add	fp, sp, #24
 3204              		.cfi_def_cfa 11, 4
 3205 1b18 3CD04DE2 		sub	sp, sp, #60
 3206 1b1c 20000BE5 		str	r0, [fp, #-32]
ARM GAS  /tmp/cclMtiRJ.s 			page 71


 695:/home/hkh/git/eapidk-code-r76-trunk/apps/EeePProg/linux/../BinFuncs.c ****   return (pBuffer[0]       ) |
 3207              		.loc 1 695 18
 3208 1b20 20301BE5 		ldr	r3, [fp, #-32]
 3209 1b24 0030D3E5 		ldrb	r3, [r3]	@ zero_extendqisi2
 3210 1b28 0320A0E1 		mov	r2, r3
 696:/home/hkh/git/eapidk-code-r76-trunk/apps/EeePProg/linux/../BinFuncs.c ****          (pBuffer[1]<<(8*1)) |
 3211              		.loc 1 696 18
 3212 1b2c 20301BE5 		ldr	r3, [fp, #-32]
 3213 1b30 013083E2 		add	r3, r3, #1
 3214 1b34 0030D3E5 		ldrb	r3, [r3]	@ zero_extendqisi2
 3215              		.loc 1 696 21
 3216 1b38 0334A0E1 		lsl	r3, r3, #8
 695:/home/hkh/git/eapidk-code-r76-trunk/apps/EeePProg/linux/../BinFuncs.c ****   return (pBuffer[0]       ) |
 3217              		.loc 1 695 30
 3218 1b3c 032082E1 		orr	r2, r2, r3
 697:/home/hkh/git/eapidk-code-r76-trunk/apps/EeePProg/linux/../BinFuncs.c ****          (pBuffer[2]<<(8*2)) |
 3219              		.loc 1 697 18
 3220 1b40 20301BE5 		ldr	r3, [fp, #-32]
 3221 1b44 023083E2 		add	r3, r3, #2
 3222 1b48 0030D3E5 		ldrb	r3, [r3]	@ zero_extendqisi2
 3223              		.loc 1 697 21
 3224 1b4c 0338A0E1 		lsl	r3, r3, #16
 696:/home/hkh/git/eapidk-code-r76-trunk/apps/EeePProg/linux/../BinFuncs.c ****          (pBuffer[1]<<(8*1)) |
 3225              		.loc 1 696 30
 3226 1b50 032082E1 		orr	r2, r2, r3
 698:/home/hkh/git/eapidk-code-r76-trunk/apps/EeePProg/linux/../BinFuncs.c ****          (pBuffer[3]<<(8*3)) |
 3227              		.loc 1 698 18
 3228 1b54 20301BE5 		ldr	r3, [fp, #-32]
 3229 1b58 033083E2 		add	r3, r3, #3
 3230 1b5c 0030D3E5 		ldrb	r3, [r3]	@ zero_extendqisi2
 3231              		.loc 1 698 21
 3232 1b60 033CA0E1 		lsl	r3, r3, #24
 697:/home/hkh/git/eapidk-code-r76-trunk/apps/EeePProg/linux/../BinFuncs.c ****          (pBuffer[2]<<(8*2)) |
 3233              		.loc 1 697 30
 3234 1b64 033082E1 		orr	r3, r2, r3
 3235 1b68 C32FA0E1 		asr	r2, r3, #31
 3236 1b6c 2C300BE5 		str	r3, [fp, #-44]
 3237 1b70 28200BE5 		str	r2, [fp, #-40]
 699:/home/hkh/git/eapidk-code-r76-trunk/apps/EeePProg/linux/../BinFuncs.c ****          ((uint64_t)pBuffer[4]<<(8*4)) |
 3238              		.loc 1 699 28
 3239 1b74 20301BE5 		ldr	r3, [fp, #-32]
 3240 1b78 043083E2 		add	r3, r3, #4
 3241 1b7c 0030D3E5 		ldrb	r3, [r3]	@ zero_extendqisi2
 3242              		.loc 1 699 11
 3243 1b80 7330EFE6 		uxtb	r3, r3
 3244 1b84 0020A0E3 		mov	r2, #0
 3245 1b88 34300BE5 		str	r3, [fp, #-52]
 3246 1b8c 30200BE5 		str	r2, [fp, #-48]
 3247              		.loc 1 699 31
 3248 1b90 0020A0E3 		mov	r2, #0
 3249 1b94 0030A0E3 		mov	r3, #0
 3250 1b98 34101BE5 		ldr	r1, [fp, #-52]
 3251 1b9c 0130A0E1 		mov	r3, r1
 3252 1ba0 0020A0E3 		mov	r2, #0
 698:/home/hkh/git/eapidk-code-r76-trunk/apps/EeePProg/linux/../BinFuncs.c ****          (pBuffer[3]<<(8*3)) |
 3253              		.loc 1 698 30
 3254 1ba4 DC024BE1 		ldrd	r0, [fp, #-44]
ARM GAS  /tmp/cclMtiRJ.s 			page 72


 3255 1ba8 00C0A0E1 		mov	ip, r0
 3256 1bac 02808CE1 		orr	r8, ip, r2
 3257 1bb0 039081E1 		orr	r9, r1, r3
 700:/home/hkh/git/eapidk-code-r76-trunk/apps/EeePProg/linux/../BinFuncs.c ****          ((uint64_t)pBuffer[5]<<(8*5)) |
 3258              		.loc 1 700 28
 3259 1bb4 20301BE5 		ldr	r3, [fp, #-32]
 3260 1bb8 053083E2 		add	r3, r3, #5
 3261 1bbc 0030D3E5 		ldrb	r3, [r3]	@ zero_extendqisi2
 3262              		.loc 1 700 11
 3263 1bc0 7330EFE6 		uxtb	r3, r3
 3264 1bc4 0020A0E3 		mov	r2, #0
 3265 1bc8 3C300BE5 		str	r3, [fp, #-60]
 3266 1bcc 38200BE5 		str	r2, [fp, #-56]
 3267              		.loc 1 700 31
 3268 1bd0 0020A0E3 		mov	r2, #0
 3269 1bd4 0030A0E3 		mov	r3, #0
 3270 1bd8 3C101BE5 		ldr	r1, [fp, #-60]
 3271 1bdc 0134A0E1 		lsl	r3, r1, #8
 3272 1be0 0020A0E3 		mov	r2, #0
 699:/home/hkh/git/eapidk-code-r76-trunk/apps/EeePProg/linux/../BinFuncs.c ****          ((uint64_t)pBuffer[4]<<(8*4)) |
 3273              		.loc 1 699 40
 3274 1be4 026088E1 		orr	r6, r8, r2
 3275 1be8 037089E1 		orr	r7, r9, r3
 701:/home/hkh/git/eapidk-code-r76-trunk/apps/EeePProg/linux/../BinFuncs.c ****          ((uint64_t)pBuffer[6]<<(8*6)) |
 3276              		.loc 1 701 28
 3277 1bec 20301BE5 		ldr	r3, [fp, #-32]
 3278 1bf0 063083E2 		add	r3, r3, #6
 3279 1bf4 0030D3E5 		ldrb	r3, [r3]	@ zero_extendqisi2
 3280              		.loc 1 701 11
 3281 1bf8 7330EFE6 		uxtb	r3, r3
 3282 1bfc 0020A0E3 		mov	r2, #0
 3283 1c00 44300BE5 		str	r3, [fp, #-68]
 3284 1c04 40200BE5 		str	r2, [fp, #-64]
 3285              		.loc 1 701 31
 3286 1c08 0020A0E3 		mov	r2, #0
 3287 1c0c 0030A0E3 		mov	r3, #0
 3288 1c10 44101BE5 		ldr	r1, [fp, #-68]
 3289 1c14 0138A0E1 		lsl	r3, r1, #16
 3290 1c18 0020A0E3 		mov	r2, #0
 700:/home/hkh/git/eapidk-code-r76-trunk/apps/EeePProg/linux/../BinFuncs.c ****          ((uint64_t)pBuffer[5]<<(8*5)) |
 3291              		.loc 1 700 40
 3292 1c1c 024086E1 		orr	r4, r6, r2
 3293 1c20 035087E1 		orr	r5, r7, r3
 702:/home/hkh/git/eapidk-code-r76-trunk/apps/EeePProg/linux/../BinFuncs.c ****          ((uint64_t)pBuffer[7]<<(8*7)) ;
 3294              		.loc 1 702 28
 3295 1c24 20301BE5 		ldr	r3, [fp, #-32]
 3296 1c28 073083E2 		add	r3, r3, #7
 3297 1c2c 0030D3E5 		ldrb	r3, [r3]	@ zero_extendqisi2
 3298              		.loc 1 702 11
 3299 1c30 7330EFE6 		uxtb	r3, r3
 3300 1c34 0020A0E3 		mov	r2, #0
 3301 1c38 4C300BE5 		str	r3, [fp, #-76]
 3302 1c3c 48200BE5 		str	r2, [fp, #-72]
 3303              		.loc 1 702 31
 3304 1c40 0020A0E3 		mov	r2, #0
 3305 1c44 0030A0E3 		mov	r3, #0
 3306 1c48 4C101BE5 		ldr	r1, [fp, #-76]
ARM GAS  /tmp/cclMtiRJ.s 			page 73


 3307 1c4c 013CA0E1 		lsl	r3, r1, #24
 3308 1c50 0020A0E3 		mov	r2, #0
 701:/home/hkh/git/eapidk-code-r76-trunk/apps/EeePProg/linux/../BinFuncs.c ****          ((uint64_t)pBuffer[6]<<(8*6)) |
 3309              		.loc 1 701 40
 3310 1c54 021084E1 		orr	r1, r4, r2
 3311 1c58 54100BE5 		str	r1, [fp, #-84]
 3312 1c5c 033085E1 		orr	r3, r5, r3
 3313 1c60 50300BE5 		str	r3, [fp, #-80]
 3314 1c64 D4254BE1 		ldrd	r2, [fp, #-84]
 703:/home/hkh/git/eapidk-code-r76-trunk/apps/EeePProg/linux/../BinFuncs.c **** }
 3315              		.loc 1 703 1
 3316 1c68 0200A0E1 		mov	r0, r2
 3317 1c6c 0310A0E1 		mov	r1, r3
 3318 1c70 18D04BE2 		sub	sp, fp, #24
 3319              		.cfi_def_cfa 13, 28
 3320              		@ sp needed
 3321 1c74 F00BBDE8 		pop	{r4, r5, r6, r7, r8, r9, fp}
 3322              		.cfi_restore 11
 3323              		.cfi_restore 9
 3324              		.cfi_restore 8
 3325              		.cfi_restore 7
 3326              		.cfi_restore 6
 3327              		.cfi_restore 5
 3328              		.cfi_restore 4
 3329              		.cfi_def_cfa_offset 0
 3330 1c78 1EFF2FE1 		bx	lr
 3331              		.cfi_endproc
 3332              	.LFE30:
 3334              	.Letext0:
 3335              		.file 2 "/home/hkh/buildroot-2022.02/output/host/arm-buildroot-linux-musleabihf/sysroot/usr/includ
 3336              		.file 3 "../../../include/EApi.h"
 3337              		.file 4 "../BinFuncs.h"
 3338              		.file 5 "/home/hkh/buildroot-2022.02/output/host/arm-buildroot-linux-musleabihf/sysroot/usr/includ
 3339              		.file 6 "../../include/EApiAHStr.h"
 3340              		.file 7 "/home/hkh/buildroot-2022.02/output/host/arm-buildroot-linux-musleabihf/sysroot/usr/includ
 3341              		.file 8 "/home/hkh/buildroot-2022.02/output/host/arm-buildroot-linux-musleabihf/sysroot/usr/includ
 3342              		.file 9 "../../include/DbgChk.h"
ARM GAS  /tmp/cclMtiRJ.s 			page 74

