ARM GAS  /tmp/cc9qaG1x.s 			page 1


   1              		.cpu cortex-a9
   2              		.eabi_attribute 28, 1
   3              		.eabi_attribute 20, 1
   4              		.eabi_attribute 21, 1
   5              		.eabi_attribute 23, 3
   6              		.eabi_attribute 24, 1
   7              		.eabi_attribute 25, 1
   8              		.eabi_attribute 26, 2
   9              		.eabi_attribute 30, 6
  10              		.eabi_attribute 34, 1
  11              		.eabi_attribute 18, 4
  12              		.file	"CfgPHelper.c"
  13              		.text
  14              	.Ltext0:
  15              		.cfi_sections	.debug_frame
  16              		.global	String_Element_funcs
  17              		.section	.data.rel.local,"aw"
  18              		.align	2
  21              	String_Element_funcs:
  22 0000 00000000 		.word	String_Element
  23 0004 00000000 		.word	Dealloc_Element
  24 0008 00000000 		.word	String_Help
  25 000c 00000000 		.word	No_Default_Txt
  26              		.global	Number_Element_funcs
  27              		.align	2
  30              	Number_Element_funcs:
  31 0010 00000000 		.word	Number_Element
  32 0014 00000000 		.word	GenClear_Element
  33 0018 00000000 		.word	Range_List_Help
  34 001c 00000000 		.word	Range_Default_Txt
  35              		.global	Size_Element_funcs
  36              		.align	2
  39              	Size_Element_funcs:
  40 0020 00000000 		.word	Size_Element
  41 0024 00000000 		.word	GenClear_Element
  42 0028 00000000 		.word	Range_List_Help
  43 002c 00000000 		.word	Range_Default_Txt
  44              		.global	TokenNum_Element_funcs
  45              		.align	2
  48              	TokenNum_Element_funcs:
  49 0030 00000000 		.word	TokenNum_Element
  50 0034 00000000 		.word	GenClear_Element
  51 0038 00000000 		.word	TokenNum_List_Help
  52 003c 00000000 		.word	TokenNum_List_Default
  53              		.global	Token_Element_funcs
  54              		.align	2
  57              	Token_Element_funcs:
  58 0040 00000000 		.word	Token_Element
  59 0044 00000000 		.word	GenClear_Element
  60 0048 00000000 		.word	Token_List_Help
  61 004c 00000000 		.word	Token_List_Default
  62              		.global	SpecRev_Element_funcs
  63              		.align	2
  66              	SpecRev_Element_funcs:
  67 0050 00000000 		.word	SpecRev_Element
  68 0054 00000000 		.word	GenClear_Element
  69 0058 00000000 		.word	SpecRev_Help
ARM GAS  /tmp/cc9qaG1x.s 			page 2


  70 005c 00000000 		.word	No_Default_Txt
  71              		.global	PNPID_Element_funcs
  72              		.align	2
  75              	PNPID_Element_funcs:
  76 0060 00000000 		.word	PNPID_Element
  77 0064 00000000 		.word	GenClear_Element
  78 0068 00000000 		.word	PNPID_Help
  79 006c 00000000 		.word	No_Default_Txt
  80              		.global	I2C_EEPROM_Addr_funcs
  81              		.align	2
  84              	I2C_EEPROM_Addr_funcs:
  85 0070 00000000 		.word	I2C_EEPROM_Addr
  86 0074 00000000 		.word	GenClear_Element
  87 0078 00000000 		.word	I2C_EEPROM_Help
  88 007c 00000000 		.word	No_Default_Txt
  89              		.global	GUID_Element_funcs
  90              		.align	2
  93              	GUID_Element_funcs:
  94 0080 00000000 		.word	GUID_Element
  95 0084 00000000 		.word	GenClear_Element
  96 0088 00000000 		.word	GUID_Help
  97 008c 00000000 		.word	GUID_Default
  98              		.text
  99              		.align	2
 100              		.global	No_Default_Txt
 101              		.arch armv7-a
 102              		.arch_extension mp
 103              		.arch_extension sec
 104              		.syntax unified
 105              		.arm
 106              		.fpu vfpv3
 108              	No_Default_Txt:
 109              	.LFB1:
 110              		.file 1 "/home/hkh/git/eapidk-code-r76-trunk/apps/EeePProg/linux/../CfgPHelper.c"
   1:/home/hkh/git/eapidk-code-r76-trunk/apps/EeePProg/linux/../CfgPHelper.c **** /*
   2:/home/hkh/git/eapidk-code-r76-trunk/apps/EeePProg/linux/../CfgPHelper.c ****  *<KHeader>
   3:/home/hkh/git/eapidk-code-r76-trunk/apps/EeePProg/linux/../CfgPHelper.c ****  *+=========================================================================
   4:/home/hkh/git/eapidk-code-r76-trunk/apps/EeePProg/linux/../CfgPHelper.c ****  *I  Project Name: EApiDK Embedded Application Development Kit
   5:/home/hkh/git/eapidk-code-r76-trunk/apps/EeePProg/linux/../CfgPHelper.c ****  *+=========================================================================
   6:/home/hkh/git/eapidk-code-r76-trunk/apps/EeePProg/linux/../CfgPHelper.c ****  *I  $HeadURL: file:///svn/p/eapidk/code/trunk/apps/EeePProg/CfgPHelper.c $
   7:/home/hkh/git/eapidk-code-r76-trunk/apps/EeePProg/linux/../CfgPHelper.c ****  *+=========================================================================
   8:/home/hkh/git/eapidk-code-r76-trunk/apps/EeePProg/linux/../CfgPHelper.c ****  *I   Copyright: Copyright (c) 2002-2010, Kontron Embedded Modules GmbH
   9:/home/hkh/git/eapidk-code-r76-trunk/apps/EeePProg/linux/../CfgPHelper.c ****  *I      Author: John Kearney,                  John.Kearney@kontron.com
  10:/home/hkh/git/eapidk-code-r76-trunk/apps/EeePProg/linux/../CfgPHelper.c ****  *I
  11:/home/hkh/git/eapidk-code-r76-trunk/apps/EeePProg/linux/../CfgPHelper.c ****  *I     License: All rights reserved. This program and the accompanying 
  12:/home/hkh/git/eapidk-code-r76-trunk/apps/EeePProg/linux/../CfgPHelper.c ****  *I              materials are licensed and made available under the 
  13:/home/hkh/git/eapidk-code-r76-trunk/apps/EeePProg/linux/../CfgPHelper.c ****  *I              terms and conditions of the BSD License which 
  14:/home/hkh/git/eapidk-code-r76-trunk/apps/EeePProg/linux/../CfgPHelper.c ****  *I              accompanies this distribution. The full text of the 
  15:/home/hkh/git/eapidk-code-r76-trunk/apps/EeePProg/linux/../CfgPHelper.c ****  *I              license may be found at 
  16:/home/hkh/git/eapidk-code-r76-trunk/apps/EeePProg/linux/../CfgPHelper.c ****  *I              http://opensource.org/licenses/bsd-license.php
  17:/home/hkh/git/eapidk-code-r76-trunk/apps/EeePProg/linux/../CfgPHelper.c ****  *I              
  18:/home/hkh/git/eapidk-code-r76-trunk/apps/EeePProg/linux/../CfgPHelper.c ****  *I              THE PROGRAM IS DISTRIBUTED UNDER THE BSD LICENSE ON AN "
  19:/home/hkh/git/eapidk-code-r76-trunk/apps/EeePProg/linux/../CfgPHelper.c ****  *I              AS IS" BASIS, WITHOUT WARRANTIES OR REPRESENTATIONS OF 
  20:/home/hkh/git/eapidk-code-r76-trunk/apps/EeePProg/linux/../CfgPHelper.c ****  *I              ANY KIND, EITHER EXPRESS OR IMPLIED.
  21:/home/hkh/git/eapidk-code-r76-trunk/apps/EeePProg/linux/../CfgPHelper.c ****  *I
  22:/home/hkh/git/eapidk-code-r76-trunk/apps/EeePProg/linux/../CfgPHelper.c ****  *I Description: Auto Created for EApiValidateAPI.c
  23:/home/hkh/git/eapidk-code-r76-trunk/apps/EeePProg/linux/../CfgPHelper.c ****  *I
ARM GAS  /tmp/cc9qaG1x.s 			page 3


  24:/home/hkh/git/eapidk-code-r76-trunk/apps/EeePProg/linux/../CfgPHelper.c ****  *+-------------------------------------------------------------------------
  25:/home/hkh/git/eapidk-code-r76-trunk/apps/EeePProg/linux/../CfgPHelper.c ****  *I
  26:/home/hkh/git/eapidk-code-r76-trunk/apps/EeePProg/linux/../CfgPHelper.c ****  *I  File Name            : CfgPHelper.c
  27:/home/hkh/git/eapidk-code-r76-trunk/apps/EeePProg/linux/../CfgPHelper.c ****  *I  File Location        : apps\EeePProg
  28:/home/hkh/git/eapidk-code-r76-trunk/apps/EeePProg/linux/../CfgPHelper.c ****  *I  Last committed       : $Revision: 75 $
  29:/home/hkh/git/eapidk-code-r76-trunk/apps/EeePProg/linux/../CfgPHelper.c ****  *I  Last changed by      : $Author: dethrophes $
  30:/home/hkh/git/eapidk-code-r76-trunk/apps/EeePProg/linux/../CfgPHelper.c ****  *I  Last changed date    : $Date: 2010-06-28 23:50:38 +0000 (Mon, 28 Jun 2010) $
  31:/home/hkh/git/eapidk-code-r76-trunk/apps/EeePProg/linux/../CfgPHelper.c ****  *I  ID                   : $Id: CfgPHelper.c 75 2010-06-28 23:50:38Z dethrophes $
  32:/home/hkh/git/eapidk-code-r76-trunk/apps/EeePProg/linux/../CfgPHelper.c ****  *I
  33:/home/hkh/git/eapidk-code-r76-trunk/apps/EeePProg/linux/../CfgPHelper.c ****  *+=========================================================================
  34:/home/hkh/git/eapidk-code-r76-trunk/apps/EeePProg/linux/../CfgPHelper.c ****  *</KHeader>
  35:/home/hkh/git/eapidk-code-r76-trunk/apps/EeePProg/linux/../CfgPHelper.c ****  */
  36:/home/hkh/git/eapidk-code-r76-trunk/apps/EeePProg/linux/../CfgPHelper.c ****   #include <EeePApp.h>
  37:/home/hkh/git/eapidk-code-r76-trunk/apps/EeePProg/linux/../CfgPHelper.c **** 
  38:/home/hkh/git/eapidk-code-r76-trunk/apps/EeePProg/linux/../CfgPHelper.c **** /*  */
  39:/home/hkh/git/eapidk-code-r76-trunk/apps/EeePProg/linux/../CfgPHelper.c **** 
  40:/home/hkh/git/eapidk-code-r76-trunk/apps/EeePProg/linux/../CfgPHelper.c **** Handlers_t  String_Element_funcs  ={ String_Element  , Dealloc_Element  , String_Help       , No_De
  41:/home/hkh/git/eapidk-code-r76-trunk/apps/EeePProg/linux/../CfgPHelper.c **** Handlers_t  Number_Element_funcs  ={ Number_Element  , GenClear_Element , Range_List_Help   , Range
  42:/home/hkh/git/eapidk-code-r76-trunk/apps/EeePProg/linux/../CfgPHelper.c **** Handlers_t  Size_Element_funcs    ={ Size_Element    , GenClear_Element , Range_List_Help   , Range
  43:/home/hkh/git/eapidk-code-r76-trunk/apps/EeePProg/linux/../CfgPHelper.c **** Handlers_t  TokenNum_Element_funcs={ TokenNum_Element, GenClear_Element , TokenNum_List_Help, Token
  44:/home/hkh/git/eapidk-code-r76-trunk/apps/EeePProg/linux/../CfgPHelper.c **** Handlers_t  Token_Element_funcs   ={ Token_Element   , GenClear_Element , Token_List_Help   , Token
  45:/home/hkh/git/eapidk-code-r76-trunk/apps/EeePProg/linux/../CfgPHelper.c **** Handlers_t  SpecRev_Element_funcs ={ SpecRev_Element , GenClear_Element , SpecRev_Help      , No_De
  46:/home/hkh/git/eapidk-code-r76-trunk/apps/EeePProg/linux/../CfgPHelper.c **** Handlers_t  PNPID_Element_funcs   ={ PNPID_Element   , GenClear_Element , PNPID_Help        , No_De
  47:/home/hkh/git/eapidk-code-r76-trunk/apps/EeePProg/linux/../CfgPHelper.c **** Handlers_t  I2C_EEPROM_Addr_funcs ={ I2C_EEPROM_Addr , GenClear_Element , I2C_EEPROM_Help   , No_De
  48:/home/hkh/git/eapidk-code-r76-trunk/apps/EeePProg/linux/../CfgPHelper.c **** Handlers_t  GUID_Element_funcs    ={ GUID_Element    , GenClear_Element , GUID_Help         , GUID_
  49:/home/hkh/git/eapidk-code-r76-trunk/apps/EeePProg/linux/../CfgPHelper.c **** 
  50:/home/hkh/git/eapidk-code-r76-trunk/apps/EeePProg/linux/../CfgPHelper.c **** /*
  51:/home/hkh/git/eapidk-code-r76-trunk/apps/EeePProg/linux/../CfgPHelper.c ****  *
  52:/home/hkh/git/eapidk-code-r76-trunk/apps/EeePProg/linux/../CfgPHelper.c ****  *  Default Text Functions
  53:/home/hkh/git/eapidk-code-r76-trunk/apps/EeePProg/linux/../CfgPHelper.c ****  *
  54:/home/hkh/git/eapidk-code-r76-trunk/apps/EeePProg/linux/../CfgPHelper.c ****  *
  55:/home/hkh/git/eapidk-code-r76-trunk/apps/EeePProg/linux/../CfgPHelper.c ****  */
  56:/home/hkh/git/eapidk-code-r76-trunk/apps/EeePProg/linux/../CfgPHelper.c **** EApiStatus_t                                    
  57:/home/hkh/git/eapidk-code-r76-trunk/apps/EeePProg/linux/../CfgPHelper.c **** No_Default_Txt(
  58:/home/hkh/git/eapidk-code-r76-trunk/apps/EeePProg/linux/../CfgPHelper.c ****     struct  CfgElementDesc_s *pElementDesc,
  59:/home/hkh/git/eapidk-code-r76-trunk/apps/EeePProg/linux/../CfgPHelper.c ****     FILE * stream ,
  60:/home/hkh/git/eapidk-code-r76-trunk/apps/EeePProg/linux/../CfgPHelper.c ****     __IN  unsigned int uiCount
  61:/home/hkh/git/eapidk-code-r76-trunk/apps/EeePProg/linux/../CfgPHelper.c ****   )
  62:/home/hkh/git/eapidk-code-r76-trunk/apps/EeePProg/linux/../CfgPHelper.c **** { 
 111              		.loc 1 62 1
 112              		.cfi_startproc
 113              		@ args = 0, pretend = 0, frame = 16
 114              		@ frame_needed = 1, uses_anonymous_args = 0
 115              		@ link register save eliminated.
 116 0000 04B02DE5 		str	fp, [sp, #-4]!
 117              		.cfi_def_cfa_offset 4
 118              		.cfi_offset 11, -4
 119 0004 00B08DE2 		add	fp, sp, #0
 120              		.cfi_def_cfa_register 11
 121 0008 14D04DE2 		sub	sp, sp, #20
 122 000c 08000BE5 		str	r0, [fp, #-8]
 123 0010 0C100BE5 		str	r1, [fp, #-12]
 124 0014 10200BE5 		str	r2, [fp, #-16]
  63:/home/hkh/git/eapidk-code-r76-trunk/apps/EeePProg/linux/../CfgPHelper.c ****   pElementDesc=pElementDesc;
  64:/home/hkh/git/eapidk-code-r76-trunk/apps/EeePProg/linux/../CfgPHelper.c ****   stream=stream;
  65:/home/hkh/git/eapidk-code-r76-trunk/apps/EeePProg/linux/../CfgPHelper.c ****   uiCount=uiCount;
  66:/home/hkh/git/eapidk-code-r76-trunk/apps/EeePProg/linux/../CfgPHelper.c ****   return EAPI_STATUS_SUCCESS;
ARM GAS  /tmp/cc9qaG1x.s 			page 4


 125              		.loc 1 66 10
 126 0018 0030A0E3 		mov	r3, #0
  67:/home/hkh/git/eapidk-code-r76-trunk/apps/EeePProg/linux/../CfgPHelper.c **** }
 127              		.loc 1 67 1
 128 001c 0300A0E1 		mov	r0, r3
 129 0020 00D08BE2 		add	sp, fp, #0
 130              		.cfi_def_cfa_register 13
 131              		@ sp needed
 132 0024 04B09DE4 		ldr	fp, [sp], #4
 133              		.cfi_restore 11
 134              		.cfi_def_cfa_offset 0
 135 0028 1EFF2FE1 		bx	lr
 136              		.cfi_endproc
 137              	.LFE1:
 139              		.section	.rodata
 140              		.align	2
 141              	.LC0:
 142 0000 54422000 		.ascii	"TB \000"
 143              		.align	2
 144              	.LC1:
 145 0004 2F686F6D 		.ascii	"/home/hkh/git/eapidk-code-r76-trunk/apps/EeePProg/l"
 145      652F686B 
 145      682F6769 
 145      742F6561 
 145      7069646B 
 146 0037 696E7578 		.ascii	"inux/../CfgPHelper.c\000"
 146      2F2E2E2F 
 146      43666750 
 146      48656C70 
 146      65722E63 
 147              		.align	2
 148              	.LC2:
 149 004c 546F6B65 		.ascii	"Token_List_Default(&LclElementDesc, stream, uiCount"
 149      6E5F4C69 
 149      73745F44 
 149      65666175 
 149      6C742826 
 150 007f 2900     		.ascii	")\000"
 151 0081 000000   		.align	2
 152              	.LC3:
 153 0084 25730A00 		.ascii	"%s\012\000"
 154              		.align	2
 155              	.LC4:
 156 0088 52616E67 		.ascii	"Range_Default_Txt(&LclElementDesc, stream, uiCount)"
 156      655F4465 
 156      6661756C 
 156      745F5478 
 156      7428264C 
 157 00bb 00       		.ascii	"\000"
 158              		.text
 159              		.align	2
 160              		.global	TokenNum_List_Default
 161              		.syntax unified
 162              		.arm
 163              		.fpu vfpv3
 165              	TokenNum_List_Default:
 166              	.LFB2:
ARM GAS  /tmp/cc9qaG1x.s 			page 5


  68:/home/hkh/git/eapidk-code-r76-trunk/apps/EeePProg/linux/../CfgPHelper.c **** 
  69:/home/hkh/git/eapidk-code-r76-trunk/apps/EeePProg/linux/../CfgPHelper.c **** 
  70:/home/hkh/git/eapidk-code-r76-trunk/apps/EeePProg/linux/../CfgPHelper.c **** EApiStatus_t                                    
  71:/home/hkh/git/eapidk-code-r76-trunk/apps/EeePProg/linux/../CfgPHelper.c **** TokenNum_List_Default(
  72:/home/hkh/git/eapidk-code-r76-trunk/apps/EeePProg/linux/../CfgPHelper.c ****     __IN  struct  CfgElementDesc_s *pElementDesc,
  73:/home/hkh/git/eapidk-code-r76-trunk/apps/EeePProg/linux/../CfgPHelper.c ****     __IN  FILE * stream ,
  74:/home/hkh/git/eapidk-code-r76-trunk/apps/EeePProg/linux/../CfgPHelper.c ****     __IN  unsigned int uiCount
  75:/home/hkh/git/eapidk-code-r76-trunk/apps/EeePProg/linux/../CfgPHelper.c ****   )
  76:/home/hkh/git/eapidk-code-r76-trunk/apps/EeePProg/linux/../CfgPHelper.c **** { 
 167              		.loc 1 76 1
 168              		.cfi_startproc
 169              		@ args = 0, pretend = 0, frame = 80
 170              		@ frame_needed = 1, uses_anonymous_args = 0
 171 002c 00482DE9 		push	{fp, lr}
 172              		.cfi_def_cfa_offset 8
 173              		.cfi_offset 11, -8
 174              		.cfi_offset 14, -4
 175 0030 04B08DE2 		add	fp, sp, #4
 176              		.cfi_def_cfa 11, 4
 177 0034 60D04DE2 		sub	sp, sp, #96
 178 0038 48000BE5 		str	r0, [fp, #-72]
 179 003c 4C100BE5 		str	r1, [fp, #-76]
 180 0040 50200BE5 		str	r2, [fp, #-80]
 181              		.loc 1 76 1
 182 0044 80219FE5 		ldr	r2, .L9
 183              	.LPIC8:
 184 0048 02208FE0 		add	r2, pc, r2
 185 004c 7C319FE5 		ldr	r3, .L9+4
 186 0050 033092E7 		ldr	r3, [r2, r3]
 187 0054 003093E5 		ldr	r3, [r3]
 188 0058 08300BE5 		str	r3, [fp, #-8]
 189 005c 0030A0E3 		mov	r3, #0
  77:/home/hkh/git/eapidk-code-r76-trunk/apps/EeePProg/linux/../CfgPHelper.c ****   EApiStatus_t StatusCode=EAPI_STATUS_SUCCESS;
 190              		.loc 1 77 16
 191 0060 0030A0E3 		mov	r3, #0
 192 0064 44300BE5 		str	r3, [fp, #-68]
  78:/home/hkh/git/eapidk-code-r76-trunk/apps/EeePProg/linux/../CfgPHelper.c ****   struct  CfgElementDesc_s LclElementDesc=*pElementDesc;
 193              		.loc 1 78 28
 194 0068 48301BE5 		ldr	r3, [fp, #-72]
 195 006c 40C04BE2 		sub	ip, fp, #64
 196 0070 03E0A0E1 		mov	lr, r3
 197 0074 0F00BEE8 		ldmia	lr!, {r0, r1, r2, r3}
 198 0078 0F00ACE8 		stmia	ip!, {r0, r1, r2, r3}
 199 007c 0F00BEE8 		ldmia	lr!, {r0, r1, r2, r3}
 200 0080 0F00ACE8 		stmia	ip!, {r0, r1, r2, r3}
 201 0084 0F00BEE8 		ldmia	lr!, {r0, r1, r2, r3}
 202 0088 0F00ACE8 		stmia	ip!, {r0, r1, r2, r3}
 203 008c 03009EE8 		ldm	lr, {r0, r1}
 204 0090 03008CE8 		stm	ip, {r0, r1}
  79:/home/hkh/git/eapidk-code-r76-trunk/apps/EeePProg/linux/../CfgPHelper.c **** 
  80:/home/hkh/git/eapidk-code-r76-trunk/apps/EeePProg/linux/../CfgPHelper.c ****   if(((TokenNumDesc_t*)pElementDesc->pExtraInfo)->pTokens){
 205              		.loc 1 80 36
 206 0094 48301BE5 		ldr	r3, [fp, #-72]
 207 0098 343093E5 		ldr	r3, [r3, #52]
 208              		.loc 1 80 49
 209 009c 003093E5 		ldr	r3, [r3]
 210              		.loc 1 80 5
ARM GAS  /tmp/cc9qaG1x.s 			page 6


 211 00a0 000053E3 		cmp	r3, #0
 212 00a4 1C00000A 		beq	.L4
  81:/home/hkh/git/eapidk-code-r76-trunk/apps/EeePProg/linux/../CfgPHelper.c ****     LclElementDesc.pExtraInfo=((TokenNumDesc_t*)pElementDesc->pExtraInfo)->pTokens;
 213              		.loc 1 81 61
 214 00a8 48301BE5 		ldr	r3, [fp, #-72]
 215 00ac 343093E5 		ldr	r3, [r3, #52]
 216              		.loc 1 81 74
 217 00b0 003093E5 		ldr	r3, [r3]
 218              		.loc 1 81 30
 219 00b4 0C300BE5 		str	r3, [fp, #-12]
  82:/home/hkh/git/eapidk-code-r76-trunk/apps/EeePProg/linux/../CfgPHelper.c ****     DO(Token_List_Default(&LclElementDesc, stream, uiCount));
 220              		.loc 1 82 5
 221 00b8 40304BE2 		sub	r3, fp, #64
 222 00bc 50201BE5 		ldr	r2, [fp, #-80]
 223 00c0 4C101BE5 		ldr	r1, [fp, #-76]
 224 00c4 0300A0E1 		mov	r0, r3
 225 00c8 FEFFFFEB 		bl	Token_List_Default(PLT)
 226 00cc 44000BE5 		str	r0, [fp, #-68]
 227 00d0 44301BE5 		ldr	r3, [fp, #-68]
 228 00d4 000053E3 		cmp	r3, #0
 229 00d8 2D00000A 		beq	.L5
 230              		.loc 1 82 5 is_stmt 0 discriminator 1
 231 00dc F0309FE5 		ldr	r3, .L9+8
 232              	.LPIC0:
 233 00e0 03308FE0 		add	r3, pc, r3
 234 00e4 08308DE5 		str	r3, [sp, #8]
 235 00e8 E8309FE5 		ldr	r3, .L9+12
 236              	.LPIC1:
 237 00ec 03308FE0 		add	r3, pc, r3
 238 00f0 04308DE5 		str	r3, [sp, #4]
 239 00f4 44301BE5 		ldr	r3, [fp, #-68]
 240 00f8 00308DE5 		str	r3, [sp]
 241 00fc 5230A0E3 		mov	r3, #82
 242 0100 D4209FE5 		ldr	r2, .L9+16
 243              	.LPIC2:
 244 0104 02208FE0 		add	r2, pc, r2
 245 0108 D0109FE5 		ldr	r1, .L9+20
 246              	.LPIC3:
 247 010c 01108FE0 		add	r1, pc, r1
 248 0110 4500A0E3 		mov	r0, #69
 249 0114 FEFFFFEB 		bl	siFormattedMessage_SC(PLT)
 250 0118 1D0000EA 		b	.L5
 251              	.L4:
  83:/home/hkh/git/eapidk-code-r76-trunk/apps/EeePProg/linux/../CfgPHelper.c ****   }else{
  84:/home/hkh/git/eapidk-code-r76-trunk/apps/EeePProg/linux/../CfgPHelper.c ****     LclElementDesc.pExtraInfo=((TokenNumDesc_t*)pElementDesc->pExtraInfo)->pRange;
 252              		.loc 1 84 61 is_stmt 1
 253 011c 48301BE5 		ldr	r3, [fp, #-72]
 254 0120 343093E5 		ldr	r3, [r3, #52]
 255              		.loc 1 84 74
 256 0124 043093E5 		ldr	r3, [r3, #4]
 257              		.loc 1 84 30
 258 0128 0C300BE5 		str	r3, [fp, #-12]
  85:/home/hkh/git/eapidk-code-r76-trunk/apps/EeePProg/linux/../CfgPHelper.c ****     DO(Range_Default_Txt(&LclElementDesc, stream, uiCount));
 259              		.loc 1 85 5
 260 012c 40304BE2 		sub	r3, fp, #64
 261 0130 50201BE5 		ldr	r2, [fp, #-80]
 262 0134 4C101BE5 		ldr	r1, [fp, #-76]
ARM GAS  /tmp/cc9qaG1x.s 			page 7


 263 0138 0300A0E1 		mov	r0, r3
 264 013c FEFFFFEB 		bl	Range_Default_Txt(PLT)
 265 0140 44000BE5 		str	r0, [fp, #-68]
 266 0144 44301BE5 		ldr	r3, [fp, #-68]
 267 0148 000053E3 		cmp	r3, #0
 268 014c 0F00000A 		beq	.L8
 269              		.loc 1 85 5 is_stmt 0 discriminator 1
 270 0150 8C309FE5 		ldr	r3, .L9+24
 271              	.LPIC4:
 272 0154 03308FE0 		add	r3, pc, r3
 273 0158 08308DE5 		str	r3, [sp, #8]
 274 015c 84309FE5 		ldr	r3, .L9+28
 275              	.LPIC5:
 276 0160 03308FE0 		add	r3, pc, r3
 277 0164 04308DE5 		str	r3, [sp, #4]
 278 0168 44301BE5 		ldr	r3, [fp, #-68]
 279 016c 00308DE5 		str	r3, [sp]
 280 0170 5530A0E3 		mov	r3, #85
 281 0174 70209FE5 		ldr	r2, .L9+32
 282              	.LPIC6:
 283 0178 02208FE0 		add	r2, pc, r2
 284 017c 6C109FE5 		ldr	r1, .L9+36
 285              	.LPIC7:
 286 0180 01108FE0 		add	r1, pc, r1
 287 0184 4500A0E3 		mov	r0, #69
 288 0188 FEFFFFEB 		bl	siFormattedMessage_SC(PLT)
 289 018c 000000EA 		b	.L5
 290              	.L8:
  86:/home/hkh/git/eapidk-code-r76-trunk/apps/EeePProg/linux/../CfgPHelper.c ****   }
  87:/home/hkh/git/eapidk-code-r76-trunk/apps/EeePProg/linux/../CfgPHelper.c **** EAPI_APP_ASSERT_EXIT
 291              		.loc 1 87 1 is_stmt 1
 292 0190 00F020E3 		nop
 293              	.L5:
  88:/home/hkh/git/eapidk-code-r76-trunk/apps/EeePProg/linux/../CfgPHelper.c ****   return StatusCode;
 294              		.loc 1 88 10
 295 0194 44301BE5 		ldr	r3, [fp, #-68]
  76:/home/hkh/git/eapidk-code-r76-trunk/apps/EeePProg/linux/../CfgPHelper.c ****   EApiStatus_t StatusCode=EAPI_STATUS_SUCCESS;
 296              		.loc 1 76 1
 297 0198 54109FE5 		ldr	r1, .L9+40
 298              	.LPIC9:
 299 019c 01108FE0 		add	r1, pc, r1
  89:/home/hkh/git/eapidk-code-r76-trunk/apps/EeePProg/linux/../CfgPHelper.c **** }
 300              		.loc 1 89 1
 301 01a0 28209FE5 		ldr	r2, .L9+4
 302 01a4 022091E7 		ldr	r2, [r1, r2]
 303 01a8 001092E5 		ldr	r1, [r2]
 304 01ac 08201BE5 		ldr	r2, [fp, #-8]
 305 01b0 011032E0 		eors	r1, r2, r1
 306 01b4 0020A0E3 		mov	r2, #0
 307 01b8 0000000A 		beq	.L7
 308 01bc FEFFFFEB 		bl	__stack_chk_fail(PLT)
 309              	.L7:
 310 01c0 0300A0E1 		mov	r0, r3
 311 01c4 04D04BE2 		sub	sp, fp, #4
 312              		.cfi_def_cfa 13, 8
 313              		@ sp needed
 314 01c8 0088BDE8 		pop	{fp, pc}
ARM GAS  /tmp/cc9qaG1x.s 			page 8


 315              	.L10:
 316              		.align	2
 317              	.L9:
 318 01cc 7C010000 		.word	_GLOBAL_OFFSET_TABLE_-(.LPIC8+8)
 319 01d0 00000000 		.word	__stack_chk_guard(GOT)
 320 01d4 38010000 		.word	.LC2-(.LPIC0+8)
 321 01d8 68010000 		.word	.LC3-(.LPIC1+8)
 322 01dc D0000000 		.word	.LC0-(.LPIC2+8)
 323 01e0 D0000000 		.word	.LC1-(.LPIC3+8)
 324 01e4 10010000 		.word	.LC4-(.LPIC4+8)
 325 01e8 04010000 		.word	.LC3-(.LPIC5+8)
 326 01ec 6C000000 		.word	.LC0-(.LPIC6+8)
 327 01f0 6C000000 		.word	.LC1-(.LPIC7+8)
 328 01f4 50000000 		.word	_GLOBAL_OFFSET_TABLE_-(.LPIC9+8)
 329              		.cfi_endproc
 330              	.LFE2:
 332              		.align	2
 333              		.global	Token_List_Default
 334              		.syntax unified
 335              		.arm
 336              		.fpu vfpv3
 338              	Token_List_Default:
 339              	.LFB3:
  90:/home/hkh/git/eapidk-code-r76-trunk/apps/EeePProg/linux/../CfgPHelper.c **** EApiStatus_t                                    
  91:/home/hkh/git/eapidk-code-r76-trunk/apps/EeePProg/linux/../CfgPHelper.c **** Token_List_Default(
  92:/home/hkh/git/eapidk-code-r76-trunk/apps/EeePProg/linux/../CfgPHelper.c ****     struct  CfgElementDesc_s *pElementDesc,
  93:/home/hkh/git/eapidk-code-r76-trunk/apps/EeePProg/linux/../CfgPHelper.c ****     FILE * stream ,
  94:/home/hkh/git/eapidk-code-r76-trunk/apps/EeePProg/linux/../CfgPHelper.c ****     __IN  unsigned int uiCount
  95:/home/hkh/git/eapidk-code-r76-trunk/apps/EeePProg/linux/../CfgPHelper.c ****   )
  96:/home/hkh/git/eapidk-code-r76-trunk/apps/EeePProg/linux/../CfgPHelper.c **** { 
 340              		.loc 1 96 1
 341              		.cfi_startproc
 342              		@ args = 0, pretend = 0, frame = 24
 343              		@ frame_needed = 1, uses_anonymous_args = 0
 344 01f8 00482DE9 		push	{fp, lr}
 345              		.cfi_def_cfa_offset 8
 346              		.cfi_offset 11, -8
 347              		.cfi_offset 14, -4
 348 01fc 04B08DE2 		add	fp, sp, #4
 349              		.cfi_def_cfa 11, 4
 350 0200 18D04DE2 		sub	sp, sp, #24
 351 0204 10000BE5 		str	r0, [fp, #-16]
 352 0208 14100BE5 		str	r1, [fp, #-20]
 353 020c 18200BE5 		str	r2, [fp, #-24]
  97:/home/hkh/git/eapidk-code-r76-trunk/apps/EeePProg/linux/../CfgPHelper.c ****   TokenDesc_t *pTokens;
  98:/home/hkh/git/eapidk-code-r76-trunk/apps/EeePProg/linux/../CfgPHelper.c ****   uiCount=uiCount;
  99:/home/hkh/git/eapidk-code-r76-trunk/apps/EeePProg/linux/../CfgPHelper.c ****   pTokens=((TokenListDesc_t*)pElementDesc->pExtraInfo)->pTokenList; 
 354              		.loc 1 99 42
 355 0210 10301BE5 		ldr	r3, [fp, #-16]
 356 0214 343093E5 		ldr	r3, [r3, #52]
 357              		.loc 1 99 10
 358 0218 043093E5 		ldr	r3, [r3, #4]
 359 021c 08300BE5 		str	r3, [fp, #-8]
 100:/home/hkh/git/eapidk-code-r76-trunk/apps/EeePProg/linux/../CfgPHelper.c ****   fprintf(stream, "%s", pTokens->pszTokenList);
 360              		.loc 1 100 3
 361 0220 08301BE5 		ldr	r3, [fp, #-8]
 362 0224 003093E5 		ldr	r3, [r3]
ARM GAS  /tmp/cc9qaG1x.s 			page 9


 363 0228 14101BE5 		ldr	r1, [fp, #-20]
 364 022c 0300A0E1 		mov	r0, r3
 365 0230 FEFFFFEB 		bl	fputs(PLT)
 101:/home/hkh/git/eapidk-code-r76-trunk/apps/EeePProg/linux/../CfgPHelper.c ****   return EAPI_STATUS_SUCCESS;
 366              		.loc 1 101 10
 367 0234 0030A0E3 		mov	r3, #0
 102:/home/hkh/git/eapidk-code-r76-trunk/apps/EeePProg/linux/../CfgPHelper.c **** }
 368              		.loc 1 102 1
 369 0238 0300A0E1 		mov	r0, r3
 370 023c 04D04BE2 		sub	sp, fp, #4
 371              		.cfi_def_cfa 13, 8
 372              		@ sp needed
 373 0240 0088BDE8 		pop	{fp, pc}
 374              		.cfi_endproc
 375              	.LFE3:
 377              		.section	.rodata
 378              		.align	2
 379              	.LC5:
 380 00bc 30782530 		.ascii	"0x%02X\000"
 380      325800
 381              		.text
 382              		.align	2
 383              		.global	Range_Default_Txt
 384              		.syntax unified
 385              		.arm
 386              		.fpu vfpv3
 388              	Range_Default_Txt:
 389              	.LFB4:
 103:/home/hkh/git/eapidk-code-r76-trunk/apps/EeePProg/linux/../CfgPHelper.c **** 
 104:/home/hkh/git/eapidk-code-r76-trunk/apps/EeePProg/linux/../CfgPHelper.c **** 
 105:/home/hkh/git/eapidk-code-r76-trunk/apps/EeePProg/linux/../CfgPHelper.c **** EApiStatus_t                                    
 106:/home/hkh/git/eapidk-code-r76-trunk/apps/EeePProg/linux/../CfgPHelper.c **** Range_Default_Txt(
 107:/home/hkh/git/eapidk-code-r76-trunk/apps/EeePProg/linux/../CfgPHelper.c ****     struct  CfgElementDesc_s *pElementDesc,
 108:/home/hkh/git/eapidk-code-r76-trunk/apps/EeePProg/linux/../CfgPHelper.c ****     FILE * stream ,
 109:/home/hkh/git/eapidk-code-r76-trunk/apps/EeePProg/linux/../CfgPHelper.c ****     __IN  unsigned int uiCount
 110:/home/hkh/git/eapidk-code-r76-trunk/apps/EeePProg/linux/../CfgPHelper.c ****   )
 111:/home/hkh/git/eapidk-code-r76-trunk/apps/EeePProg/linux/../CfgPHelper.c **** { 
 390              		.loc 1 111 1
 391              		.cfi_startproc
 392              		@ args = 0, pretend = 0, frame = 24
 393              		@ frame_needed = 1, uses_anonymous_args = 0
 394 0244 00482DE9 		push	{fp, lr}
 395              		.cfi_def_cfa_offset 8
 396              		.cfi_offset 11, -8
 397              		.cfi_offset 14, -4
 398 0248 04B08DE2 		add	fp, sp, #4
 399              		.cfi_def_cfa 11, 4
 400 024c 18D04DE2 		sub	sp, sp, #24
 401 0250 10000BE5 		str	r0, [fp, #-16]
 402 0254 14100BE5 		str	r1, [fp, #-20]
 403 0258 18200BE5 		str	r2, [fp, #-24]
 112:/home/hkh/git/eapidk-code-r76-trunk/apps/EeePProg/linux/../CfgPHelper.c ****   NumberRangeDesc_t *pRange=pElementDesc->pExtraInfo;
 404              		.loc 1 112 22
 405 025c 10301BE5 		ldr	r3, [fp, #-16]
 406 0260 343093E5 		ldr	r3, [r3, #52]
 407 0264 08300BE5 		str	r3, [fp, #-8]
 113:/home/hkh/git/eapidk-code-r76-trunk/apps/EeePProg/linux/../CfgPHelper.c ****   uiCount=uiCount;
ARM GAS  /tmp/cc9qaG1x.s 			page 10


 114:/home/hkh/git/eapidk-code-r76-trunk/apps/EeePProg/linux/../CfgPHelper.c ****   fprintf(
 115:/home/hkh/git/eapidk-code-r76-trunk/apps/EeePProg/linux/../CfgPHelper.c ****       stream, 
 116:/home/hkh/git/eapidk-code-r76-trunk/apps/EeePProg/linux/../CfgPHelper.c ****       "0x%02X", 
 117:/home/hkh/git/eapidk-code-r76-trunk/apps/EeePProg/linux/../CfgPHelper.c ****       pRange->pNumberRange->uiLowerLimit
 408              		.loc 1 117 13
 409 0268 08301BE5 		ldr	r3, [fp, #-8]
 410 026c 043093E5 		ldr	r3, [r3, #4]
 114:/home/hkh/git/eapidk-code-r76-trunk/apps/EeePProg/linux/../CfgPHelper.c ****       stream, 
 411              		.loc 1 114 3
 412 0270 003093E5 		ldr	r3, [r3]
 413 0274 0320A0E1 		mov	r2, r3
 414 0278 1C309FE5 		ldr	r3, .L15
 415              	.LPIC10:
 416 027c 03308FE0 		add	r3, pc, r3
 417 0280 0310A0E1 		mov	r1, r3
 418 0284 14001BE5 		ldr	r0, [fp, #-20]
 419 0288 FEFFFFEB 		bl	fprintf(PLT)
 118:/home/hkh/git/eapidk-code-r76-trunk/apps/EeePProg/linux/../CfgPHelper.c ****     );
 119:/home/hkh/git/eapidk-code-r76-trunk/apps/EeePProg/linux/../CfgPHelper.c ****   return EAPI_STATUS_SUCCESS;
 420              		.loc 1 119 10
 421 028c 0030A0E3 		mov	r3, #0
 120:/home/hkh/git/eapidk-code-r76-trunk/apps/EeePProg/linux/../CfgPHelper.c **** }
 422              		.loc 1 120 1
 423 0290 0300A0E1 		mov	r0, r3
 424 0294 04D04BE2 		sub	sp, fp, #4
 425              		.cfi_def_cfa 13, 8
 426              		@ sp needed
 427 0298 0088BDE8 		pop	{fp, pc}
 428              	.L16:
 429              		.align	2
 430              	.L15:
 431 029c D4000000 		.word	.LC5-(.LPIC10+8)
 432              		.cfi_endproc
 433              	.LFE4:
 435              		.section	.rodata
 436 00c3 00       		.align	2
 437              	.LC6:
 438 00c4 46464646 		.ascii	"FFFFFFFF-FFFF-FFFF-FFFF-FFFFFFFFFFFF\000"
 438      46464646 
 438      2D464646 
 438      462D4646 
 438      46462D46 
 439              		.text
 440              		.align	2
 441              		.global	GUID_Default
 442              		.syntax unified
 443              		.arm
 444              		.fpu vfpv3
 446              	GUID_Default:
 447              	.LFB5:
 121:/home/hkh/git/eapidk-code-r76-trunk/apps/EeePProg/linux/../CfgPHelper.c **** 
 122:/home/hkh/git/eapidk-code-r76-trunk/apps/EeePProg/linux/../CfgPHelper.c **** EApiStatus_t                                    
 123:/home/hkh/git/eapidk-code-r76-trunk/apps/EeePProg/linux/../CfgPHelper.c **** GUID_Default(
 124:/home/hkh/git/eapidk-code-r76-trunk/apps/EeePProg/linux/../CfgPHelper.c ****     struct  CfgElementDesc_s *pElementDesc,
 125:/home/hkh/git/eapidk-code-r76-trunk/apps/EeePProg/linux/../CfgPHelper.c ****     FILE * stream ,
 126:/home/hkh/git/eapidk-code-r76-trunk/apps/EeePProg/linux/../CfgPHelper.c ****     __IN  unsigned int uiCount
 127:/home/hkh/git/eapidk-code-r76-trunk/apps/EeePProg/linux/../CfgPHelper.c ****   )
ARM GAS  /tmp/cc9qaG1x.s 			page 11


 128:/home/hkh/git/eapidk-code-r76-trunk/apps/EeePProg/linux/../CfgPHelper.c **** { 
 448              		.loc 1 128 1
 449              		.cfi_startproc
 450              		@ args = 0, pretend = 0, frame = 16
 451              		@ frame_needed = 1, uses_anonymous_args = 0
 452 02a0 00482DE9 		push	{fp, lr}
 453              		.cfi_def_cfa_offset 8
 454              		.cfi_offset 11, -8
 455              		.cfi_offset 14, -4
 456 02a4 04B08DE2 		add	fp, sp, #4
 457              		.cfi_def_cfa 11, 4
 458 02a8 10D04DE2 		sub	sp, sp, #16
 459 02ac 08000BE5 		str	r0, [fp, #-8]
 460 02b0 0C100BE5 		str	r1, [fp, #-12]
 461 02b4 10200BE5 		str	r2, [fp, #-16]
 129:/home/hkh/git/eapidk-code-r76-trunk/apps/EeePProg/linux/../CfgPHelper.c ****   uiCount=uiCount;
 130:/home/hkh/git/eapidk-code-r76-trunk/apps/EeePProg/linux/../CfgPHelper.c ****   pElementDesc=pElementDesc;
 131:/home/hkh/git/eapidk-code-r76-trunk/apps/EeePProg/linux/../CfgPHelper.c ****   fprintf(stream, "FFFFFFFF-FFFF-FFFF-FFFF-FFFFFFFFFFFF");
 462              		.loc 1 131 3
 463 02b8 0C301BE5 		ldr	r3, [fp, #-12]
 464 02bc 2420A0E3 		mov	r2, #36
 465 02c0 0110A0E3 		mov	r1, #1
 466 02c4 14009FE5 		ldr	r0, .L19
 467              	.LPIC11:
 468 02c8 00008FE0 		add	r0, pc, r0
 469 02cc FEFFFFEB 		bl	fwrite(PLT)
 132:/home/hkh/git/eapidk-code-r76-trunk/apps/EeePProg/linux/../CfgPHelper.c ****   return EAPI_STATUS_SUCCESS;
 470              		.loc 1 132 10
 471 02d0 0030A0E3 		mov	r3, #0
 133:/home/hkh/git/eapidk-code-r76-trunk/apps/EeePProg/linux/../CfgPHelper.c **** }
 472              		.loc 1 133 1
 473 02d4 0300A0E1 		mov	r0, r3
 474 02d8 04D04BE2 		sub	sp, fp, #4
 475              		.cfi_def_cfa 13, 8
 476              		@ sp needed
 477 02dc 0088BDE8 		pop	{fp, pc}
 478              	.L20:
 479              		.align	2
 480              	.L19:
 481 02e0 D4000000 		.word	.LC6-(.LPIC11+8)
 482              		.cfi_endproc
 483              	.LFE5:
 485              		.global	DeletePreserve
 486              		.section	.rodata
 487 00e9 000000   		.align	2
 488              	.LC7:
 489 00ec 44656C65 		.ascii	"Deleted\000"
 489      74656400 
 490              		.align	2
 491              	.LC8:
 492 00f4 50726573 		.ascii	"Preserved\000"
 492      65727665 
 492      6400
 493              		.section	.data.rel.local
 494              		.align	2
 497              	DeletePreserve:
 498 0090 EC000000 		.word	.LC7
ARM GAS  /tmp/cc9qaG1x.s 			page 12


 499 0094 F4000000 		.word	.LC8
 500              		.section	.rodata
 501 00fe 0000     		.align	2
 502              	.LC9:
 503 0100 47656E65 		.ascii	"Generic String\000"
 503      72696320 
 503      53747269 
 503      6E6700
 504 010f 00       		.align	2
 505              	.LC10:
 506 0110 2020204D 		.ascii	"   Max Length %u\012\000"
 506      6178204C 
 506      656E6774 
 506      68202575 
 506      0A00
 507 0122 0000     		.align	2
 508              	.LC11:
 509 0124 2020204D 		.ascii	"   Min Length %u\012\000"
 509      696E204C 
 509      656E6774 
 509      68202575 
 509      0A00
 510 0136 0000     		.align	2
 511              	.LC12:
 512 0138 20202054 		.ascii	"   Trailing spaces %s\012\000"
 512      7261696C 
 512      696E6720 
 512      73706163 
 512      65732025 
 513              		.text
 514              		.align	2
 515              		.global	String_Help
 516              		.syntax unified
 517              		.arm
 518              		.fpu vfpv3
 520              	String_Help:
 521              	.LFB6:
 134:/home/hkh/git/eapidk-code-r76-trunk/apps/EeePProg/linux/../CfgPHelper.c **** 
 135:/home/hkh/git/eapidk-code-r76-trunk/apps/EeePProg/linux/../CfgPHelper.c **** /*
 136:/home/hkh/git/eapidk-code-r76-trunk/apps/EeePProg/linux/../CfgPHelper.c ****  *
 137:/home/hkh/git/eapidk-code-r76-trunk/apps/EeePProg/linux/../CfgPHelper.c ****  *  HELP Functions
 138:/home/hkh/git/eapidk-code-r76-trunk/apps/EeePProg/linux/../CfgPHelper.c ****  *
 139:/home/hkh/git/eapidk-code-r76-trunk/apps/EeePProg/linux/../CfgPHelper.c ****  *
 140:/home/hkh/git/eapidk-code-r76-trunk/apps/EeePProg/linux/../CfgPHelper.c ****  */
 141:/home/hkh/git/eapidk-code-r76-trunk/apps/EeePProg/linux/../CfgPHelper.c **** const char *DeletePreserve[]={
 142:/home/hkh/git/eapidk-code-r76-trunk/apps/EeePProg/linux/../CfgPHelper.c ****   "Deleted",
 143:/home/hkh/git/eapidk-code-r76-trunk/apps/EeePProg/linux/../CfgPHelper.c ****   "Preserved"
 144:/home/hkh/git/eapidk-code-r76-trunk/apps/EeePProg/linux/../CfgPHelper.c **** };
 145:/home/hkh/git/eapidk-code-r76-trunk/apps/EeePProg/linux/../CfgPHelper.c **** EApiStatus_t                                    
 146:/home/hkh/git/eapidk-code-r76-trunk/apps/EeePProg/linux/../CfgPHelper.c **** String_Help(
 147:/home/hkh/git/eapidk-code-r76-trunk/apps/EeePProg/linux/../CfgPHelper.c ****     __IN  struct CfgElementDesc_s *pElementDesc, 
 148:/home/hkh/git/eapidk-code-r76-trunk/apps/EeePProg/linux/../CfgPHelper.c ****     __OUT char *szHelpBuf, 
 149:/home/hkh/git/eapidk-code-r76-trunk/apps/EeePProg/linux/../CfgPHelper.c ****     __IN  size_t stHBufLen 
 150:/home/hkh/git/eapidk-code-r76-trunk/apps/EeePProg/linux/../CfgPHelper.c ****   )
 151:/home/hkh/git/eapidk-code-r76-trunk/apps/EeePProg/linux/../CfgPHelper.c **** { 
 522              		.loc 1 151 1
 523              		.cfi_startproc
ARM GAS  /tmp/cc9qaG1x.s 			page 13


 524              		@ args = 0, pretend = 0, frame = 24
 525              		@ frame_needed = 1, uses_anonymous_args = 0
 526 02e4 00482DE9 		push	{fp, lr}
 527              		.cfi_def_cfa_offset 8
 528              		.cfi_offset 11, -8
 529              		.cfi_offset 14, -4
 530 02e8 04B08DE2 		add	fp, sp, #4
 531              		.cfi_def_cfa 11, 4
 532 02ec 18D04DE2 		sub	sp, sp, #24
 533 02f0 10000BE5 		str	r0, [fp, #-16]
 534 02f4 14100BE5 		str	r1, [fp, #-20]
 535 02f8 18200BE5 		str	r2, [fp, #-24]
 152:/home/hkh/git/eapidk-code-r76-trunk/apps/EeePProg/linux/../CfgPHelper.c ****   StringDesc_t *pStringDesc=pElementDesc->pExtraInfo; 
 536              		.loc 1 152 17
 537 02fc 10301BE5 		ldr	r3, [fp, #-16]
 538 0300 343093E5 		ldr	r3, [r3, #52]
 539 0304 08300BE5 		str	r3, [fp, #-8]
 153:/home/hkh/git/eapidk-code-r76-trunk/apps/EeePProg/linux/../CfgPHelper.c ****   int len=0;
 540              		.loc 1 153 7
 541 0308 0030A0E3 		mov	r3, #0
 542 030c 0C300BE5 		str	r3, [fp, #-12]
 154:/home/hkh/git/eapidk-code-r76-trunk/apps/EeePProg/linux/../CfgPHelper.c ****   len+=EApiSprintfA(szHelpBuf + len, stHBufLen - len, 
 543              		.loc 1 154 8
 544 0310 0C301BE5 		ldr	r3, [fp, #-12]
 545 0314 14201BE5 		ldr	r2, [fp, #-20]
 546 0318 030082E0 		add	r0, r2, r3
 547 031c 0C301BE5 		ldr	r3, [fp, #-12]
 548 0320 18201BE5 		ldr	r2, [fp, #-24]
 549 0324 031042E0 		sub	r1, r2, r3
 550 0328 18319FE5 		ldr	r3, .L26
 551              	.LPIC12:
 552 032c 03308FE0 		add	r3, pc, r3
 553 0330 14219FE5 		ldr	r2, .L26+4
 554              	.LPIC13:
 555 0334 02208FE0 		add	r2, pc, r2
 556 0338 FEFFFFEB 		bl	EApiSprintfA(PLT)
 557 033c 0020A0E1 		mov	r2, r0
 558              		.loc 1 154 6
 559 0340 0C301BE5 		ldr	r3, [fp, #-12]
 560 0344 023083E0 		add	r3, r3, r2
 561 0348 0C300BE5 		str	r3, [fp, #-12]
 155:/home/hkh/git/eapidk-code-r76-trunk/apps/EeePProg/linux/../CfgPHelper.c **** 		  "%s\n", "Generic String");
 156:/home/hkh/git/eapidk-code-r76-trunk/apps/EeePProg/linux/../CfgPHelper.c ****   if(pStringDesc!=NULL){
 562              		.loc 1 156 5
 563 034c 08301BE5 		ldr	r3, [fp, #-8]
 564 0350 000053E3 		cmp	r3, #0
 565 0354 3700000A 		beq	.L22
 157:/home/hkh/git/eapidk-code-r76-trunk/apps/EeePProg/linux/../CfgPHelper.c ****     if(pStringDesc->uiMaxLength){
 566              		.loc 1 157 19
 567 0358 08301BE5 		ldr	r3, [fp, #-8]
 568 035c 043093E5 		ldr	r3, [r3, #4]
 569              		.loc 1 157 7
 570 0360 000053E3 		cmp	r3, #0
 571 0364 0E00000A 		beq	.L23
 158:/home/hkh/git/eapidk-code-r76-trunk/apps/EeePProg/linux/../CfgPHelper.c **** 	len+=EApiSprintfA(szHelpBuf + len, stHBufLen - len, 
 572              		.loc 1 158 7
 573 0368 0C301BE5 		ldr	r3, [fp, #-12]
ARM GAS  /tmp/cc9qaG1x.s 			page 14


 574 036c 14201BE5 		ldr	r2, [fp, #-20]
 575 0370 030082E0 		add	r0, r2, r3
 576 0374 0C301BE5 		ldr	r3, [fp, #-12]
 577 0378 18201BE5 		ldr	r2, [fp, #-24]
 578 037c 031042E0 		sub	r1, r2, r3
 579 0380 08301BE5 		ldr	r3, [fp, #-8]
 580 0384 043093E5 		ldr	r3, [r3, #4]
 581 0388 C0209FE5 		ldr	r2, .L26+8
 582              	.LPIC14:
 583 038c 02208FE0 		add	r2, pc, r2
 584 0390 FEFFFFEB 		bl	EApiSprintfA(PLT)
 585 0394 0020A0E1 		mov	r2, r0
 586              		.loc 1 158 5
 587 0398 0C301BE5 		ldr	r3, [fp, #-12]
 588 039c 023083E0 		add	r3, r3, r2
 589 03a0 0C300BE5 		str	r3, [fp, #-12]
 590              	.L23:
 159:/home/hkh/git/eapidk-code-r76-trunk/apps/EeePProg/linux/../CfgPHelper.c **** 			"   Max Length %u\n", pStringDesc->uiMaxLength);
 160:/home/hkh/git/eapidk-code-r76-trunk/apps/EeePProg/linux/../CfgPHelper.c ****     }
 161:/home/hkh/git/eapidk-code-r76-trunk/apps/EeePProg/linux/../CfgPHelper.c ****     if(pStringDesc->uiMinLength){
 591              		.loc 1 161 19
 592 03a4 08301BE5 		ldr	r3, [fp, #-8]
 593 03a8 003093E5 		ldr	r3, [r3]
 594              		.loc 1 161 7
 595 03ac 000053E3 		cmp	r3, #0
 596 03b0 0E00000A 		beq	.L24
 162:/home/hkh/git/eapidk-code-r76-trunk/apps/EeePProg/linux/../CfgPHelper.c **** 	len+=EApiSprintfA(szHelpBuf + len, stHBufLen - len, 
 597              		.loc 1 162 7
 598 03b4 0C301BE5 		ldr	r3, [fp, #-12]
 599 03b8 14201BE5 		ldr	r2, [fp, #-20]
 600 03bc 030082E0 		add	r0, r2, r3
 601 03c0 0C301BE5 		ldr	r3, [fp, #-12]
 602 03c4 18201BE5 		ldr	r2, [fp, #-24]
 603 03c8 031042E0 		sub	r1, r2, r3
 604 03cc 08301BE5 		ldr	r3, [fp, #-8]
 605 03d0 003093E5 		ldr	r3, [r3]
 606 03d4 78209FE5 		ldr	r2, .L26+12
 607              	.LPIC15:
 608 03d8 02208FE0 		add	r2, pc, r2
 609 03dc FEFFFFEB 		bl	EApiSprintfA(PLT)
 610 03e0 0020A0E1 		mov	r2, r0
 611              		.loc 1 162 5
 612 03e4 0C301BE5 		ldr	r3, [fp, #-12]
 613 03e8 023083E0 		add	r3, r3, r2
 614 03ec 0C300BE5 		str	r3, [fp, #-12]
 615              	.L24:
 163:/home/hkh/git/eapidk-code-r76-trunk/apps/EeePProg/linux/../CfgPHelper.c **** 		"   Min Length %u\n", pStringDesc->uiMinLength);
 164:/home/hkh/git/eapidk-code-r76-trunk/apps/EeePProg/linux/../CfgPHelper.c ****     }
 165:/home/hkh/git/eapidk-code-r76-trunk/apps/EeePProg/linux/../CfgPHelper.c ****     len+=EApiSprintfA(szHelpBuf + len, stHBufLen - len, 
 616              		.loc 1 165 10
 617 03f0 0C301BE5 		ldr	r3, [fp, #-12]
 618 03f4 14201BE5 		ldr	r2, [fp, #-20]
 619 03f8 030082E0 		add	r0, r2, r3
 620 03fc 0C301BE5 		ldr	r3, [fp, #-12]
 621 0400 18201BE5 		ldr	r2, [fp, #-24]
 622 0404 031042E0 		sub	r1, r2, r3
 166:/home/hkh/git/eapidk-code-r76-trunk/apps/EeePProg/linux/../CfgPHelper.c **** 		"   Trailing spaces %s\n", DeletePreserve[pStringDesc->uiPreserveTrailingSpaces]);
ARM GAS  /tmp/cc9qaG1x.s 			page 15


 623              		.loc 1 166 56
 624 0408 08301BE5 		ldr	r3, [fp, #-8]
 625 040c 082093E5 		ldr	r2, [r3, #8]
 165:/home/hkh/git/eapidk-code-r76-trunk/apps/EeePProg/linux/../CfgPHelper.c **** 		"   Trailing spaces %s\n", DeletePreserve[pStringDesc->uiPreserveTrailingSpaces]);
 626              		.loc 1 165 10
 627 0410 40309FE5 		ldr	r3, .L26+16
 628              	.LPIC16:
 629 0414 03308FE0 		add	r3, pc, r3
 630 0418 023193E7 		ldr	r3, [r3, r2, lsl #2]
 631 041c 38209FE5 		ldr	r2, .L26+20
 632              	.LPIC17:
 633 0420 02208FE0 		add	r2, pc, r2
 634 0424 FEFFFFEB 		bl	EApiSprintfA(PLT)
 635 0428 0020A0E1 		mov	r2, r0
 165:/home/hkh/git/eapidk-code-r76-trunk/apps/EeePProg/linux/../CfgPHelper.c **** 		"   Trailing spaces %s\n", DeletePreserve[pStringDesc->uiPreserveTrailingSpaces]);
 636              		.loc 1 165 8
 637 042c 0C301BE5 		ldr	r3, [fp, #-12]
 638 0430 023083E0 		add	r3, r3, r2
 639 0434 0C300BE5 		str	r3, [fp, #-12]
 640              	.L22:
 167:/home/hkh/git/eapidk-code-r76-trunk/apps/EeePProg/linux/../CfgPHelper.c ****   }
 168:/home/hkh/git/eapidk-code-r76-trunk/apps/EeePProg/linux/../CfgPHelper.c ****   return EAPI_STATUS_SUCCESS;
 641              		.loc 1 168 10
 642 0438 0030A0E3 		mov	r3, #0
 169:/home/hkh/git/eapidk-code-r76-trunk/apps/EeePProg/linux/../CfgPHelper.c **** }
 643              		.loc 1 169 1
 644 043c 0300A0E1 		mov	r0, r3
 645 0440 04D04BE2 		sub	sp, fp, #4
 646              		.cfi_def_cfa 13, 8
 647              		@ sp needed
 648 0444 0088BDE8 		pop	{fp, pc}
 649              	.L27:
 650              		.align	2
 651              	.L26:
 652 0448 14020000 		.word	.LC9-(.LPIC12+8)
 653 044c 94010000 		.word	.LC3-(.LPIC13+8)
 654 0450 CC010000 		.word	.LC10-(.LPIC14+8)
 655 0454 98010000 		.word	.LC11-(.LPIC15+8)
 656 0458 3C000000 		.word	DeletePreserve-(.LPIC16+8)
 657 045c 6C010000 		.word	.LC12-(.LPIC17+8)
 658              		.cfi_endproc
 659              	.LFE6:
 661              		.section	.rodata
 662 014f 00       		.align	2
 663              	.LC13:
 664 0150 47656E65 		.ascii	"Generic Number\000"
 664      72696320 
 664      4E756D62 
 664      657200
 665 015f 00       		.align	2
 666              	.LC14:
 667 0160 4D656574 		.ascii	"Meeting one of the following conditions\000"
 667      696E6720 
 667      6F6E6520 
 667      6F662074 
 667      68652066 
 668              		.align	2
ARM GAS  /tmp/cc9qaG1x.s 			page 16


 669              	.LC15:
 670 0188 4D656574 		.ascii	"Meeting the following condition\000"
 670      696E6720 
 670      74686520 
 670      666F6C6C 
 670      6F77696E 
 671              		.align	2
 672              	.LC16:
 673 01a8 09204E75 		.ascii	"\011 Number == %8u(0x%04X)\012\000"
 673      6D626572 
 673      203D3D20 
 673      25387528 
 673      30782530 
 674 01c1 000000   		.align	2
 675              	.LC17:
 676 01c4 09202538 		.ascii	"\011 %8u(0x%04X) <= Number <= %8u(0x%04X)\012\000"
 676      75283078 
 676      25303458 
 676      29203C3D 
 676      204E756D 
 677              		.align	2
 678              	.LC18:
 679 01ec 09204E75 		.ascii	"\011 Number < %8u(0x%04X) || %8u(0x%04X) < Number\012"
 679      6D626572 
 679      203C2025 
 679      38752830 
 679      78253034 
 680 021b 00       		.ascii	"\000"
 681              		.text
 682              		.align	2
 683              		.global	Range_List_Help
 684              		.syntax unified
 685              		.arm
 686              		.fpu vfpv3
 688              	Range_List_Help:
 689              	.LFB7:
 170:/home/hkh/git/eapidk-code-r76-trunk/apps/EeePProg/linux/../CfgPHelper.c **** EApiStatus_t
 171:/home/hkh/git/eapidk-code-r76-trunk/apps/EeePProg/linux/../CfgPHelper.c **** Range_List_Help(
 172:/home/hkh/git/eapidk-code-r76-trunk/apps/EeePProg/linux/../CfgPHelper.c ****     __IN  struct CfgElementDesc_s *pElementDesc, 
 173:/home/hkh/git/eapidk-code-r76-trunk/apps/EeePProg/linux/../CfgPHelper.c ****     __OUT char *szHelpBuf, 
 174:/home/hkh/git/eapidk-code-r76-trunk/apps/EeePProg/linux/../CfgPHelper.c ****     __IN  size_t stHBufLen 
 175:/home/hkh/git/eapidk-code-r76-trunk/apps/EeePProg/linux/../CfgPHelper.c ****   )
 176:/home/hkh/git/eapidk-code-r76-trunk/apps/EeePProg/linux/../CfgPHelper.c **** { 
 690              		.loc 1 176 1
 691              		.cfi_startproc
 692              		@ args = 0, pretend = 0, frame = 32
 693              		@ frame_needed = 1, uses_anonymous_args = 0
 694 0460 00482DE9 		push	{fp, lr}
 695              		.cfi_def_cfa_offset 8
 696              		.cfi_offset 11, -8
 697              		.cfi_offset 14, -4
 698 0464 04B08DE2 		add	fp, sp, #4
 699              		.cfi_def_cfa 11, 4
 700 0468 30D04DE2 		sub	sp, sp, #48
 701 046c 18000BE5 		str	r0, [fp, #-24]
 702 0470 1C100BE5 		str	r1, [fp, #-28]
 703 0474 20200BE5 		str	r2, [fp, #-32]
ARM GAS  /tmp/cc9qaG1x.s 			page 17


 177:/home/hkh/git/eapidk-code-r76-trunk/apps/EeePProg/linux/../CfgPHelper.c ****   NumberRange_t *pNumRange;
 178:/home/hkh/git/eapidk-code-r76-trunk/apps/EeePProg/linux/../CfgPHelper.c ****   size_t stRangeCnt;
 179:/home/hkh/git/eapidk-code-r76-trunk/apps/EeePProg/linux/../CfgPHelper.c ****   int len=0;
 704              		.loc 1 179 7
 705 0478 0030A0E3 		mov	r3, #0
 706 047c 08300BE5 		str	r3, [fp, #-8]
 180:/home/hkh/git/eapidk-code-r76-trunk/apps/EeePProg/linux/../CfgPHelper.c ****   len=EApiSprintfA(szHelpBuf + len, stHBufLen - len, 
 707              		.loc 1 180 7
 708 0480 08301BE5 		ldr	r3, [fp, #-8]
 709 0484 1C201BE5 		ldr	r2, [fp, #-28]
 710 0488 030082E0 		add	r0, r2, r3
 711 048c 08301BE5 		ldr	r3, [fp, #-8]
 712 0490 20201BE5 		ldr	r2, [fp, #-32]
 713 0494 031042E0 		sub	r1, r2, r3
 714 0498 60329FE5 		ldr	r3, .L41
 715              	.LPIC18:
 716 049c 03308FE0 		add	r3, pc, r3
 717 04a0 5C229FE5 		ldr	r2, .L41+4
 718              	.LPIC19:
 719 04a4 02208FE0 		add	r2, pc, r2
 720 04a8 FEFFFFEB 		bl	EApiSprintfA(PLT)
 721 04ac 08000BE5 		str	r0, [fp, #-8]
 181:/home/hkh/git/eapidk-code-r76-trunk/apps/EeePProg/linux/../CfgPHelper.c **** 	"%s\n", "Generic Number");
 182:/home/hkh/git/eapidk-code-r76-trunk/apps/EeePProg/linux/../CfgPHelper.c ****   if(pElementDesc->pExtraInfo==NULL) return EAPI_STATUS_SUCCESS;
 722              		.loc 1 182 18
 723 04b0 18301BE5 		ldr	r3, [fp, #-24]
 724 04b4 343093E5 		ldr	r3, [r3, #52]
 725              		.loc 1 182 5
 726 04b8 000053E3 		cmp	r3, #0
 727 04bc 0100001A 		bne	.L29
 728              		.loc 1 182 45 discriminator 1
 729 04c0 0030A0E3 		mov	r3, #0
 730 04c4 8A0000EA 		b	.L30
 731              	.L29:
 183:/home/hkh/git/eapidk-code-r76-trunk/apps/EeePProg/linux/../CfgPHelper.c ****   pNumRange=((NumberRangeDesc_t*)pElementDesc->pExtraInfo)->pNumberRange; 
 732              		.loc 1 183 46
 733 04c8 18301BE5 		ldr	r3, [fp, #-24]
 734 04cc 343093E5 		ldr	r3, [r3, #52]
 735              		.loc 1 183 12
 736 04d0 043093E5 		ldr	r3, [r3, #4]
 737 04d4 10300BE5 		str	r3, [fp, #-16]
 184:/home/hkh/git/eapidk-code-r76-trunk/apps/EeePProg/linux/../CfgPHelper.c ****   stRangeCnt=((NumberRangeDesc_t*)pElementDesc->pExtraInfo)->stRangeCount; 
 738              		.loc 1 184 47
 739 04d8 18301BE5 		ldr	r3, [fp, #-24]
 740 04dc 343093E5 		ldr	r3, [r3, #52]
 741              		.loc 1 184 13
 742 04e0 003093E5 		ldr	r3, [r3]
 743 04e4 0C300BE5 		str	r3, [fp, #-12]
 185:/home/hkh/git/eapidk-code-r76-trunk/apps/EeePProg/linux/../CfgPHelper.c ****   if(stRangeCnt>1)
 744              		.loc 1 185 5
 745 04e8 0C301BE5 		ldr	r3, [fp, #-12]
 746 04ec 010053E3 		cmp	r3, #1
 747 04f0 0F00009A 		bls	.L31
 186:/home/hkh/git/eapidk-code-r76-trunk/apps/EeePProg/linux/../CfgPHelper.c ****     len+=EApiSprintfA(szHelpBuf + len, stHBufLen - len, 
 748              		.loc 1 186 10
 749 04f4 08301BE5 		ldr	r3, [fp, #-8]
 750 04f8 1C201BE5 		ldr	r2, [fp, #-28]
ARM GAS  /tmp/cc9qaG1x.s 			page 18


 751 04fc 030082E0 		add	r0, r2, r3
 752 0500 08301BE5 		ldr	r3, [fp, #-8]
 753 0504 20201BE5 		ldr	r2, [fp, #-32]
 754 0508 031042E0 		sub	r1, r2, r3
 755 050c F4319FE5 		ldr	r3, .L41+8
 756              	.LPIC20:
 757 0510 03308FE0 		add	r3, pc, r3
 758 0514 F0219FE5 		ldr	r2, .L41+12
 759              	.LPIC21:
 760 0518 02208FE0 		add	r2, pc, r2
 761 051c FEFFFFEB 		bl	EApiSprintfA(PLT)
 762 0520 0020A0E1 		mov	r2, r0
 763              		.loc 1 186 8
 764 0524 08301BE5 		ldr	r3, [fp, #-8]
 765 0528 023083E0 		add	r3, r3, r2
 766 052c 08300BE5 		str	r3, [fp, #-8]
 767 0530 690000EA 		b	.L33
 768              	.L31:
 187:/home/hkh/git/eapidk-code-r76-trunk/apps/EeePProg/linux/../CfgPHelper.c **** 	"%s\n", "Meeting one of the following conditions");
 188:/home/hkh/git/eapidk-code-r76-trunk/apps/EeePProg/linux/../CfgPHelper.c ****   else
 189:/home/hkh/git/eapidk-code-r76-trunk/apps/EeePProg/linux/../CfgPHelper.c ****     len+=EApiSprintfA(szHelpBuf + len, stHBufLen - len, 
 769              		.loc 1 189 10
 770 0534 08301BE5 		ldr	r3, [fp, #-8]
 771 0538 1C201BE5 		ldr	r2, [fp, #-28]
 772 053c 030082E0 		add	r0, r2, r3
 773 0540 08301BE5 		ldr	r3, [fp, #-8]
 774 0544 20201BE5 		ldr	r2, [fp, #-32]
 775 0548 031042E0 		sub	r1, r2, r3
 776 054c BC319FE5 		ldr	r3, .L41+16
 777              	.LPIC22:
 778 0550 03308FE0 		add	r3, pc, r3
 779 0554 B8219FE5 		ldr	r2, .L41+20
 780              	.LPIC23:
 781 0558 02208FE0 		add	r2, pc, r2
 782 055c FEFFFFEB 		bl	EApiSprintfA(PLT)
 783 0560 0020A0E1 		mov	r2, r0
 784              		.loc 1 189 8
 785 0564 08301BE5 		ldr	r3, [fp, #-8]
 786 0568 023083E0 		add	r3, r3, r2
 787 056c 08300BE5 		str	r3, [fp, #-8]
 190:/home/hkh/git/eapidk-code-r76-trunk/apps/EeePProg/linux/../CfgPHelper.c **** 	"%s\n", "Meeting the following condition");
 191:/home/hkh/git/eapidk-code-r76-trunk/apps/EeePProg/linux/../CfgPHelper.c ****   while(stRangeCnt--){
 788              		.loc 1 191 8
 789 0570 590000EA 		b	.L33
 790              	.L39:
 192:/home/hkh/git/eapidk-code-r76-trunk/apps/EeePProg/linux/../CfgPHelper.c ****     switch(pNumRange->uiType){
 791              		.loc 1 192 21
 792 0574 10301BE5 		ldr	r3, [fp, #-16]
 793 0578 083093E5 		ldr	r3, [r3, #8]
 794              		.loc 1 192 5
 795 057c 000053E3 		cmp	r3, #0
 796 0580 3600000A 		beq	.L34
 797 0584 010053E3 		cmp	r3, #1
 798 0588 4F00001A 		bne	.L40
 193:/home/hkh/git/eapidk-code-r76-trunk/apps/EeePProg/linux/../CfgPHelper.c ****       case RANGE_INCLUSIVE:
 194:/home/hkh/git/eapidk-code-r76-trunk/apps/EeePProg/linux/../CfgPHelper.c ****         if(pNumRange->uiLowerLimit==pNumRange->uiUpperLimit)
 799              		.loc 1 194 21
ARM GAS  /tmp/cc9qaG1x.s 			page 19


 800 058c 10301BE5 		ldr	r3, [fp, #-16]
 801 0590 002093E5 		ldr	r2, [r3]
 802              		.loc 1 194 46
 803 0594 10301BE5 		ldr	r3, [fp, #-16]
 804 0598 043093E5 		ldr	r3, [r3, #4]
 805              		.loc 1 194 11
 806 059c 030052E1 		cmp	r2, r3
 807 05a0 1300001A 		bne	.L36
 195:/home/hkh/git/eapidk-code-r76-trunk/apps/EeePProg/linux/../CfgPHelper.c **** 	  len+=EApiSprintfA(szHelpBuf + len, stHBufLen - len, 
 808              		.loc 1 195 9
 809 05a4 08301BE5 		ldr	r3, [fp, #-8]
 810 05a8 1C201BE5 		ldr	r2, [fp, #-28]
 811 05ac 030082E0 		add	r0, r2, r3
 812 05b0 08301BE5 		ldr	r3, [fp, #-8]
 813 05b4 20201BE5 		ldr	r2, [fp, #-32]
 814 05b8 031042E0 		sub	r1, r2, r3
 815 05bc 10301BE5 		ldr	r3, [fp, #-16]
 816 05c0 002093E5 		ldr	r2, [r3]
 817 05c4 10301BE5 		ldr	r3, [fp, #-16]
 818 05c8 003093E5 		ldr	r3, [r3]
 819 05cc 00308DE5 		str	r3, [sp]
 820 05d0 0230A0E1 		mov	r3, r2
 821 05d4 3C219FE5 		ldr	r2, .L41+24
 822              	.LPIC24:
 823 05d8 02208FE0 		add	r2, pc, r2
 824 05dc FEFFFFEB 		bl	EApiSprintfA(PLT)
 825 05e0 0020A0E1 		mov	r2, r0
 826              		.loc 1 195 7
 827 05e4 08301BE5 		ldr	r3, [fp, #-8]
 828 05e8 023083E0 		add	r3, r3, r2
 829 05ec 08300BE5 		str	r3, [fp, #-8]
 196:/home/hkh/git/eapidk-code-r76-trunk/apps/EeePProg/linux/../CfgPHelper.c ****               "\t Number == %8u(0x%04X)\n",
 197:/home/hkh/git/eapidk-code-r76-trunk/apps/EeePProg/linux/../CfgPHelper.c ****               pNumRange->uiLowerLimit, 
 198:/home/hkh/git/eapidk-code-r76-trunk/apps/EeePProg/linux/../CfgPHelper.c ****               pNumRange->uiLowerLimit 
 199:/home/hkh/git/eapidk-code-r76-trunk/apps/EeePProg/linux/../CfgPHelper.c ****             );
 200:/home/hkh/git/eapidk-code-r76-trunk/apps/EeePProg/linux/../CfgPHelper.c ****         else
 201:/home/hkh/git/eapidk-code-r76-trunk/apps/EeePProg/linux/../CfgPHelper.c **** 	  len+=EApiSprintfA(szHelpBuf + len, stHBufLen - len, 
 202:/home/hkh/git/eapidk-code-r76-trunk/apps/EeePProg/linux/../CfgPHelper.c ****               "\t %8u(0x%04X) <= Number <= %8u(0x%04X)\n", 
 203:/home/hkh/git/eapidk-code-r76-trunk/apps/EeePProg/linux/../CfgPHelper.c ****               pNumRange->uiLowerLimit, 
 204:/home/hkh/git/eapidk-code-r76-trunk/apps/EeePProg/linux/../CfgPHelper.c ****               pNumRange->uiLowerLimit, 
 205:/home/hkh/git/eapidk-code-r76-trunk/apps/EeePProg/linux/../CfgPHelper.c ****               pNumRange->uiUpperLimit, 
 206:/home/hkh/git/eapidk-code-r76-trunk/apps/EeePProg/linux/../CfgPHelper.c ****               pNumRange->uiUpperLimit
 207:/home/hkh/git/eapidk-code-r76-trunk/apps/EeePProg/linux/../CfgPHelper.c ****             );
 208:/home/hkh/git/eapidk-code-r76-trunk/apps/EeePProg/linux/../CfgPHelper.c ****         break;
 830              		.loc 1 208 9
 831 05f0 360000EA 		b	.L38
 832              	.L36:
 201:/home/hkh/git/eapidk-code-r76-trunk/apps/EeePProg/linux/../CfgPHelper.c ****               "\t %8u(0x%04X) <= Number <= %8u(0x%04X)\n", 
 833              		.loc 1 201 9
 834 05f4 08301BE5 		ldr	r3, [fp, #-8]
 835 05f8 1C201BE5 		ldr	r2, [fp, #-28]
 836 05fc 030082E0 		add	r0, r2, r3
 837 0600 08301BE5 		ldr	r3, [fp, #-8]
 838 0604 20201BE5 		ldr	r2, [fp, #-32]
 839 0608 03C042E0 		sub	ip, r2, r3
 840 060c 10301BE5 		ldr	r3, [fp, #-16]
 841 0610 00E093E5 		ldr	lr, [r3]
ARM GAS  /tmp/cc9qaG1x.s 			page 20


 842 0614 10301BE5 		ldr	r3, [fp, #-16]
 843 0618 003093E5 		ldr	r3, [r3]
 844 061c 10201BE5 		ldr	r2, [fp, #-16]
 845 0620 042092E5 		ldr	r2, [r2, #4]
 846 0624 10101BE5 		ldr	r1, [fp, #-16]
 847 0628 041091E5 		ldr	r1, [r1, #4]
 848 062c 08108DE5 		str	r1, [sp, #8]
 849 0630 04208DE5 		str	r2, [sp, #4]
 850 0634 00308DE5 		str	r3, [sp]
 851 0638 0E30A0E1 		mov	r3, lr
 852 063c D8209FE5 		ldr	r2, .L41+28
 853              	.LPIC25:
 854 0640 02208FE0 		add	r2, pc, r2
 855 0644 0C10A0E1 		mov	r1, ip
 856 0648 FEFFFFEB 		bl	EApiSprintfA(PLT)
 857 064c 0020A0E1 		mov	r2, r0
 201:/home/hkh/git/eapidk-code-r76-trunk/apps/EeePProg/linux/../CfgPHelper.c ****               "\t %8u(0x%04X) <= Number <= %8u(0x%04X)\n", 
 858              		.loc 1 201 7
 859 0650 08301BE5 		ldr	r3, [fp, #-8]
 860 0654 023083E0 		add	r3, r3, r2
 861 0658 08300BE5 		str	r3, [fp, #-8]
 862              		.loc 1 208 9
 863 065c 1B0000EA 		b	.L38
 864              	.L34:
 209:/home/hkh/git/eapidk-code-r76-trunk/apps/EeePProg/linux/../CfgPHelper.c ****       case RANGE_EXCLUSIVE:
 210:/home/hkh/git/eapidk-code-r76-trunk/apps/EeePProg/linux/../CfgPHelper.c **** 	len+=EApiSprintfA(szHelpBuf + len, stHBufLen - len, 
 865              		.loc 1 210 7
 866 0660 08301BE5 		ldr	r3, [fp, #-8]
 867 0664 1C201BE5 		ldr	r2, [fp, #-28]
 868 0668 030082E0 		add	r0, r2, r3
 869 066c 08301BE5 		ldr	r3, [fp, #-8]
 870 0670 20201BE5 		ldr	r2, [fp, #-32]
 871 0674 03C042E0 		sub	ip, r2, r3
 872 0678 10301BE5 		ldr	r3, [fp, #-16]
 873 067c 00E093E5 		ldr	lr, [r3]
 874 0680 10301BE5 		ldr	r3, [fp, #-16]
 875 0684 003093E5 		ldr	r3, [r3]
 876 0688 10201BE5 		ldr	r2, [fp, #-16]
 877 068c 042092E5 		ldr	r2, [r2, #4]
 878 0690 10101BE5 		ldr	r1, [fp, #-16]
 879 0694 041091E5 		ldr	r1, [r1, #4]
 880 0698 08108DE5 		str	r1, [sp, #8]
 881 069c 04208DE5 		str	r2, [sp, #4]
 882 06a0 00308DE5 		str	r3, [sp]
 883 06a4 0E30A0E1 		mov	r3, lr
 884 06a8 70209FE5 		ldr	r2, .L41+32
 885              	.LPIC26:
 886 06ac 02208FE0 		add	r2, pc, r2
 887 06b0 0C10A0E1 		mov	r1, ip
 888 06b4 FEFFFFEB 		bl	EApiSprintfA(PLT)
 889 06b8 0020A0E1 		mov	r2, r0
 890              		.loc 1 210 5
 891 06bc 08301BE5 		ldr	r3, [fp, #-8]
 892 06c0 023083E0 		add	r3, r3, r2
 893 06c4 08300BE5 		str	r3, [fp, #-8]
 211:/home/hkh/git/eapidk-code-r76-trunk/apps/EeePProg/linux/../CfgPHelper.c ****               "\t Number < %8u(0x%04X) || %8u(0x%04X) < Number\n",
 212:/home/hkh/git/eapidk-code-r76-trunk/apps/EeePProg/linux/../CfgPHelper.c ****               pNumRange->uiLowerLimit, 
ARM GAS  /tmp/cc9qaG1x.s 			page 21


 213:/home/hkh/git/eapidk-code-r76-trunk/apps/EeePProg/linux/../CfgPHelper.c ****               pNumRange->uiLowerLimit, 
 214:/home/hkh/git/eapidk-code-r76-trunk/apps/EeePProg/linux/../CfgPHelper.c ****               pNumRange->uiUpperLimit, 
 215:/home/hkh/git/eapidk-code-r76-trunk/apps/EeePProg/linux/../CfgPHelper.c ****               pNumRange->uiUpperLimit
 216:/home/hkh/git/eapidk-code-r76-trunk/apps/EeePProg/linux/../CfgPHelper.c ****             );
 217:/home/hkh/git/eapidk-code-r76-trunk/apps/EeePProg/linux/../CfgPHelper.c ****         break;
 894              		.loc 1 217 9
 895 06c8 000000EA 		b	.L38
 896              	.L40:
 218:/home/hkh/git/eapidk-code-r76-trunk/apps/EeePProg/linux/../CfgPHelper.c ****       default:
 219:/home/hkh/git/eapidk-code-r76-trunk/apps/EeePProg/linux/../CfgPHelper.c ****         break;
 897              		.loc 1 219 9
 898 06cc 00F020E3 		nop
 899              	.L38:
 220:/home/hkh/git/eapidk-code-r76-trunk/apps/EeePProg/linux/../CfgPHelper.c ****     }
 221:/home/hkh/git/eapidk-code-r76-trunk/apps/EeePProg/linux/../CfgPHelper.c ****     pNumRange++;
 900              		.loc 1 221 14
 901 06d0 10301BE5 		ldr	r3, [fp, #-16]
 902 06d4 0C3083E2 		add	r3, r3, #12
 903 06d8 10300BE5 		str	r3, [fp, #-16]
 904              	.L33:
 191:/home/hkh/git/eapidk-code-r76-trunk/apps/EeePProg/linux/../CfgPHelper.c ****     switch(pNumRange->uiType){
 905              		.loc 1 191 19
 906 06dc 0C301BE5 		ldr	r3, [fp, #-12]
 907 06e0 012043E2 		sub	r2, r3, #1
 908 06e4 0C200BE5 		str	r2, [fp, #-12]
 191:/home/hkh/git/eapidk-code-r76-trunk/apps/EeePProg/linux/../CfgPHelper.c ****     switch(pNumRange->uiType){
 909              		.loc 1 191 9
 910 06e8 000053E3 		cmp	r3, #0
 911 06ec A0FFFF1A 		bne	.L39
 222:/home/hkh/git/eapidk-code-r76-trunk/apps/EeePProg/linux/../CfgPHelper.c ****   }
 223:/home/hkh/git/eapidk-code-r76-trunk/apps/EeePProg/linux/../CfgPHelper.c ****   return EAPI_STATUS_SUCCESS;
 912              		.loc 1 223 10
 913 06f0 0030A0E3 		mov	r3, #0
 914              	.L30:
 224:/home/hkh/git/eapidk-code-r76-trunk/apps/EeePProg/linux/../CfgPHelper.c **** }
 915              		.loc 1 224 1
 916 06f4 0300A0E1 		mov	r0, r3
 917 06f8 04D04BE2 		sub	sp, fp, #4
 918              		.cfi_def_cfa 13, 8
 919              		@ sp needed
 920 06fc 0088BDE8 		pop	{fp, pc}
 921              	.L42:
 922              		.align	2
 923              	.L41:
 924 0700 AC030000 		.word	.LC13-(.LPIC18+8)
 925 0704 DC020000 		.word	.LC3-(.LPIC19+8)
 926 0708 50030000 		.word	.LC14-(.LPIC20+8)
 927 070c 70020000 		.word	.LC3-(.LPIC21+8)
 928 0710 40030000 		.word	.LC15-(.LPIC22+8)
 929 0714 38020000 		.word	.LC3-(.LPIC23+8)
 930 0718 E0020000 		.word	.LC16-(.LPIC24+8)
 931 071c 98020000 		.word	.LC17-(.LPIC25+8)
 932 0720 58020000 		.word	.LC18-(.LPIC26+8)
 933              		.cfi_endproc
 934              	.LFE7:
 936              		.section	.rodata
 937              		.align	2
ARM GAS  /tmp/cc9qaG1x.s 			page 22


 938              	.LC19:
 939 021c 546F6B65 		.ascii	"Token_List_Help(&LclElementDesc, szHelpBuf, stHBufL"
 939      6E5F4C69 
 939      73745F48 
 939      656C7028 
 939      264C636C 
 940 024f 656E2900 		.ascii	"en)\000"
 941 0253 00       		.align	2
 942              	.LC20:
 943 0254 4F722061 		.ascii	"Or a \012\000"
 943      200A00
 944 025b 00       		.align	2
 945              	.LC21:
 946 025c 52616E67 		.ascii	"Range_List_Help(&LclElementDesc, szHelpBuf + len, s"
 946      655F4C69 
 946      73745F48 
 946      656C7028 
 946      264C636C 
 947 028f 74484275 		.ascii	"tHBufLen - len)\000"
 947      664C656E 
 947      202D206C 
 947      656E2900 
 948              		.text
 949              		.align	2
 950              		.global	TokenNum_List_Help
 951              		.syntax unified
 952              		.arm
 953              		.fpu vfpv3
 955              	TokenNum_List_Help:
 956              	.LFB8:
 225:/home/hkh/git/eapidk-code-r76-trunk/apps/EeePProg/linux/../CfgPHelper.c **** EApiStatus_t                                    
 226:/home/hkh/git/eapidk-code-r76-trunk/apps/EeePProg/linux/../CfgPHelper.c **** TokenNum_List_Help(
 227:/home/hkh/git/eapidk-code-r76-trunk/apps/EeePProg/linux/../CfgPHelper.c ****     __IN  struct CfgElementDesc_s *pElementDesc, 
 228:/home/hkh/git/eapidk-code-r76-trunk/apps/EeePProg/linux/../CfgPHelper.c ****     __OUT char *szHelpBuf, 
 229:/home/hkh/git/eapidk-code-r76-trunk/apps/EeePProg/linux/../CfgPHelper.c ****     __IN  size_t stHBufLen 
 230:/home/hkh/git/eapidk-code-r76-trunk/apps/EeePProg/linux/../CfgPHelper.c ****   )
 231:/home/hkh/git/eapidk-code-r76-trunk/apps/EeePProg/linux/../CfgPHelper.c **** { 
 957              		.loc 1 231 1
 958              		.cfi_startproc
 959              		@ args = 0, pretend = 0, frame = 88
 960              		@ frame_needed = 1, uses_anonymous_args = 0
 961 0724 00482DE9 		push	{fp, lr}
 962              		.cfi_def_cfa_offset 8
 963              		.cfi_offset 11, -8
 964              		.cfi_offset 14, -4
 965 0728 04B08DE2 		add	fp, sp, #4
 966              		.cfi_def_cfa 11, 4
 967 072c 68D04DE2 		sub	sp, sp, #104
 968 0730 50000BE5 		str	r0, [fp, #-80]
 969 0734 54100BE5 		str	r1, [fp, #-84]
 970 0738 58200BE5 		str	r2, [fp, #-88]
 971              		.loc 1 231 1
 972 073c C4219FE5 		ldr	r2, .L49
 973              	.LPIC36:
 974 0740 02208FE0 		add	r2, pc, r2
 975 0744 C0319FE5 		ldr	r3, .L49+4
 976 0748 033092E7 		ldr	r3, [r2, r3]
ARM GAS  /tmp/cc9qaG1x.s 			page 23


 977 074c 003093E5 		ldr	r3, [r3]
 978 0750 08300BE5 		str	r3, [fp, #-8]
 979 0754 0030A0E3 		mov	r3, #0
 232:/home/hkh/git/eapidk-code-r76-trunk/apps/EeePProg/linux/../CfgPHelper.c ****   EApiStatus_t StatusCode=EAPI_STATUS_SUCCESS;
 980              		.loc 1 232 16
 981 0758 0030A0E3 		mov	r3, #0
 982 075c 48300BE5 		str	r3, [fp, #-72]
 233:/home/hkh/git/eapidk-code-r76-trunk/apps/EeePProg/linux/../CfgPHelper.c ****   struct  CfgElementDesc_s LclElementDesc=*pElementDesc;
 983              		.loc 1 233 28
 984 0760 50301BE5 		ldr	r3, [fp, #-80]
 985 0764 40C04BE2 		sub	ip, fp, #64
 986 0768 03E0A0E1 		mov	lr, r3
 987 076c 0F00BEE8 		ldmia	lr!, {r0, r1, r2, r3}
 988 0770 0F00ACE8 		stmia	ip!, {r0, r1, r2, r3}
 989 0774 0F00BEE8 		ldmia	lr!, {r0, r1, r2, r3}
 990 0778 0F00ACE8 		stmia	ip!, {r0, r1, r2, r3}
 991 077c 0F00BEE8 		ldmia	lr!, {r0, r1, r2, r3}
 992 0780 0F00ACE8 		stmia	ip!, {r0, r1, r2, r3}
 993 0784 03009EE8 		ldm	lr, {r0, r1}
 994 0788 03008CE8 		stm	ip, {r0, r1}
 234:/home/hkh/git/eapidk-code-r76-trunk/apps/EeePProg/linux/../CfgPHelper.c ****   int len;
 235:/home/hkh/git/eapidk-code-r76-trunk/apps/EeePProg/linux/../CfgPHelper.c **** 
 236:/home/hkh/git/eapidk-code-r76-trunk/apps/EeePProg/linux/../CfgPHelper.c ****   LclElementDesc.pExtraInfo=((TokenNumDesc_t*)pElementDesc->pExtraInfo)->pTokens;
 995              		.loc 1 236 59
 996 078c 50301BE5 		ldr	r3, [fp, #-80]
 997 0790 343093E5 		ldr	r3, [r3, #52]
 998              		.loc 1 236 72
 999 0794 003093E5 		ldr	r3, [r3]
 1000              		.loc 1 236 28
 1001 0798 0C300BE5 		str	r3, [fp, #-12]
 237:/home/hkh/git/eapidk-code-r76-trunk/apps/EeePProg/linux/../CfgPHelper.c ****   DO(Token_List_Help(&LclElementDesc, szHelpBuf, stHBufLen));
 1002              		.loc 1 237 3
 1003 079c 40304BE2 		sub	r3, fp, #64
 1004 07a0 58201BE5 		ldr	r2, [fp, #-88]
 1005 07a4 54101BE5 		ldr	r1, [fp, #-84]
 1006 07a8 0300A0E1 		mov	r0, r3
 1007 07ac FEFFFFEB 		bl	Token_List_Help(PLT)
 1008 07b0 48000BE5 		str	r0, [fp, #-72]
 1009 07b4 48301BE5 		ldr	r3, [fp, #-72]
 1010 07b8 000053E3 		cmp	r3, #0
 1011 07bc 0F00000A 		beq	.L44
 1012              		.loc 1 237 3 is_stmt 0 discriminator 1
 1013 07c0 48319FE5 		ldr	r3, .L49+8
 1014              	.LPIC27:
 1015 07c4 03308FE0 		add	r3, pc, r3
 1016 07c8 08308DE5 		str	r3, [sp, #8]
 1017 07cc 40319FE5 		ldr	r3, .L49+12
 1018              	.LPIC28:
 1019 07d0 03308FE0 		add	r3, pc, r3
 1020 07d4 04308DE5 		str	r3, [sp, #4]
 1021 07d8 48301BE5 		ldr	r3, [fp, #-72]
 1022 07dc 00308DE5 		str	r3, [sp]
 1023 07e0 ED30A0E3 		mov	r3, #237
 1024 07e4 2C219FE5 		ldr	r2, .L49+16
 1025              	.LPIC29:
 1026 07e8 02208FE0 		add	r2, pc, r2
 1027 07ec 28119FE5 		ldr	r1, .L49+20
ARM GAS  /tmp/cc9qaG1x.s 			page 24


 1028              	.LPIC30:
 1029 07f0 01108FE0 		add	r1, pc, r1
 1030 07f4 4500A0E3 		mov	r0, #69
 1031 07f8 FEFFFFEB 		bl	siFormattedMessage_SC(PLT)
 1032 07fc 330000EA 		b	.L45
 1033              	.L44:
 238:/home/hkh/git/eapidk-code-r76-trunk/apps/EeePProg/linux/../CfgPHelper.c ****   len=(signed)strlen(szHelpBuf);
 1034              		.loc 1 238 15 is_stmt 1
 1035 0800 54001BE5 		ldr	r0, [fp, #-84]
 1036 0804 FEFFFFEB 		bl	strlen(PLT)
 1037 0808 0030A0E1 		mov	r3, r0
 1038              		.loc 1 238 6
 1039 080c 44300BE5 		str	r3, [fp, #-68]
 239:/home/hkh/git/eapidk-code-r76-trunk/apps/EeePProg/linux/../CfgPHelper.c ****   len+=EApiSprintfA(szHelpBuf + len, stHBufLen - len, "Or a \n");
 1040              		.loc 1 239 8
 1041 0810 44301BE5 		ldr	r3, [fp, #-68]
 1042 0814 54201BE5 		ldr	r2, [fp, #-84]
 1043 0818 030082E0 		add	r0, r2, r3
 1044 081c 44301BE5 		ldr	r3, [fp, #-68]
 1045 0820 58201BE5 		ldr	r2, [fp, #-88]
 1046 0824 033042E0 		sub	r3, r2, r3
 1047 0828 F0209FE5 		ldr	r2, .L49+24
 1048              	.LPIC31:
 1049 082c 02208FE0 		add	r2, pc, r2
 1050 0830 0310A0E1 		mov	r1, r3
 1051 0834 FEFFFFEB 		bl	EApiSprintfA(PLT)
 1052 0838 0020A0E1 		mov	r2, r0
 1053              		.loc 1 239 6
 1054 083c 44301BE5 		ldr	r3, [fp, #-68]
 1055 0840 023083E0 		add	r3, r3, r2
 1056 0844 44300BE5 		str	r3, [fp, #-68]
 240:/home/hkh/git/eapidk-code-r76-trunk/apps/EeePProg/linux/../CfgPHelper.c ****   LclElementDesc.pExtraInfo=((TokenNumDesc_t*)pElementDesc->pExtraInfo)->pRange;
 1057              		.loc 1 240 59
 1058 0848 50301BE5 		ldr	r3, [fp, #-80]
 1059 084c 343093E5 		ldr	r3, [r3, #52]
 1060              		.loc 1 240 72
 1061 0850 043093E5 		ldr	r3, [r3, #4]
 1062              		.loc 1 240 28
 1063 0854 0C300BE5 		str	r3, [fp, #-12]
 241:/home/hkh/git/eapidk-code-r76-trunk/apps/EeePProg/linux/../CfgPHelper.c ****   DO(Range_List_Help(&LclElementDesc, szHelpBuf + len, stHBufLen - len));
 1064              		.loc 1 241 3
 1065 0858 44301BE5 		ldr	r3, [fp, #-68]
 1066 085c 54201BE5 		ldr	r2, [fp, #-84]
 1067 0860 031082E0 		add	r1, r2, r3
 1068 0864 44301BE5 		ldr	r3, [fp, #-68]
 1069 0868 58201BE5 		ldr	r2, [fp, #-88]
 1070 086c 032042E0 		sub	r2, r2, r3
 1071 0870 40304BE2 		sub	r3, fp, #64
 1072 0874 0300A0E1 		mov	r0, r3
 1073 0878 FEFFFFEB 		bl	Range_List_Help(PLT)
 1074 087c 48000BE5 		str	r0, [fp, #-72]
 1075 0880 48301BE5 		ldr	r3, [fp, #-72]
 1076 0884 000053E3 		cmp	r3, #0
 1077 0888 0F00000A 		beq	.L48
 1078              		.loc 1 241 3 is_stmt 0 discriminator 1
 1079 088c 90309FE5 		ldr	r3, .L49+28
 1080              	.LPIC32:
ARM GAS  /tmp/cc9qaG1x.s 			page 25


 1081 0890 03308FE0 		add	r3, pc, r3
 1082 0894 08308DE5 		str	r3, [sp, #8]
 1083 0898 88309FE5 		ldr	r3, .L49+32
 1084              	.LPIC33:
 1085 089c 03308FE0 		add	r3, pc, r3
 1086 08a0 04308DE5 		str	r3, [sp, #4]
 1087 08a4 48301BE5 		ldr	r3, [fp, #-72]
 1088 08a8 00308DE5 		str	r3, [sp]
 1089 08ac F130A0E3 		mov	r3, #241
 1090 08b0 74209FE5 		ldr	r2, .L49+36
 1091              	.LPIC34:
 1092 08b4 02208FE0 		add	r2, pc, r2
 1093 08b8 70109FE5 		ldr	r1, .L49+40
 1094              	.LPIC35:
 1095 08bc 01108FE0 		add	r1, pc, r1
 1096 08c0 4500A0E3 		mov	r0, #69
 1097 08c4 FEFFFFEB 		bl	siFormattedMessage_SC(PLT)
 1098 08c8 000000EA 		b	.L45
 1099              	.L48:
 242:/home/hkh/git/eapidk-code-r76-trunk/apps/EeePProg/linux/../CfgPHelper.c **** EAPI_APP_ASSERT_EXIT
 1100              		.loc 1 242 1 is_stmt 1
 1101 08cc 00F020E3 		nop
 1102              	.L45:
 243:/home/hkh/git/eapidk-code-r76-trunk/apps/EeePProg/linux/../CfgPHelper.c ****   return StatusCode;
 1103              		.loc 1 243 10
 1104 08d0 48301BE5 		ldr	r3, [fp, #-72]
 231:/home/hkh/git/eapidk-code-r76-trunk/apps/EeePProg/linux/../CfgPHelper.c ****   EApiStatus_t StatusCode=EAPI_STATUS_SUCCESS;
 1105              		.loc 1 231 1
 1106 08d4 58109FE5 		ldr	r1, .L49+44
 1107              	.LPIC37:
 1108 08d8 01108FE0 		add	r1, pc, r1
 244:/home/hkh/git/eapidk-code-r76-trunk/apps/EeePProg/linux/../CfgPHelper.c **** }
 1109              		.loc 1 244 1
 1110 08dc 28209FE5 		ldr	r2, .L49+4
 1111 08e0 022091E7 		ldr	r2, [r1, r2]
 1112 08e4 001092E5 		ldr	r1, [r2]
 1113 08e8 08201BE5 		ldr	r2, [fp, #-8]
 1114 08ec 011032E0 		eors	r1, r2, r1
 1115 08f0 0020A0E3 		mov	r2, #0
 1116 08f4 0000000A 		beq	.L47
 1117 08f8 FEFFFFEB 		bl	__stack_chk_fail(PLT)
 1118              	.L47:
 1119 08fc 0300A0E1 		mov	r0, r3
 1120 0900 04D04BE2 		sub	sp, fp, #4
 1121              		.cfi_def_cfa 13, 8
 1122              		@ sp needed
 1123 0904 0088BDE8 		pop	{fp, pc}
 1124              	.L50:
 1125              		.align	2
 1126              	.L49:
 1127 0908 C0010000 		.word	_GLOBAL_OFFSET_TABLE_-(.LPIC36+8)
 1128 090c 00000000 		.word	__stack_chk_guard(GOT)
 1129 0910 60030000 		.word	.LC19-(.LPIC27+8)
 1130 0914 C0010000 		.word	.LC3-(.LPIC28+8)
 1131 0918 28010000 		.word	.LC0-(.LPIC29+8)
 1132 091c 28010000 		.word	.LC1-(.LPIC30+8)
 1133 0920 40030000 		.word	.LC20-(.LPIC31+8)
ARM GAS  /tmp/cc9qaG1x.s 			page 26


 1134 0924 E8020000 		.word	.LC21-(.LPIC32+8)
 1135 0928 08010000 		.word	.LC3-(.LPIC33+8)
 1136 092c 70000000 		.word	.LC0-(.LPIC34+8)
 1137 0930 70000000 		.word	.LC1-(.LPIC35+8)
 1138 0934 54000000 		.word	_GLOBAL_OFFSET_TABLE_-(.LPIC37+8)
 1139              		.cfi_endproc
 1140              	.LFE8:
 1142              		.section	.rodata
 1143 029f 00       		.align	2
 1144              	.LC22:
 1145 02a0 53757070 		.ascii	"Supported Options\000"
 1145      6F727465 
 1145      64204F70 
 1145      74696F6E 
 1145      7300
 1146 02b2 0000     		.align	2
 1147              	.LC23:
 1148 02b4 09202573 		.ascii	"\011 %s\012\000"
 1148      0A00
 1149              		.text
 1150              		.align	2
 1151              		.global	Token_List_Help
 1152              		.syntax unified
 1153              		.arm
 1154              		.fpu vfpv3
 1156              	Token_List_Help:
 1157              	.LFB9:
 245:/home/hkh/git/eapidk-code-r76-trunk/apps/EeePProg/linux/../CfgPHelper.c **** EApiStatus_t
 246:/home/hkh/git/eapidk-code-r76-trunk/apps/EeePProg/linux/../CfgPHelper.c **** Token_List_Help(
 247:/home/hkh/git/eapidk-code-r76-trunk/apps/EeePProg/linux/../CfgPHelper.c ****     __IN  struct CfgElementDesc_s *pElementDesc, 
 248:/home/hkh/git/eapidk-code-r76-trunk/apps/EeePProg/linux/../CfgPHelper.c ****     __OUT char *szHelpBuf, 
 249:/home/hkh/git/eapidk-code-r76-trunk/apps/EeePProg/linux/../CfgPHelper.c ****     __IN  size_t stHBufLen 
 250:/home/hkh/git/eapidk-code-r76-trunk/apps/EeePProg/linux/../CfgPHelper.c ****   )
 251:/home/hkh/git/eapidk-code-r76-trunk/apps/EeePProg/linux/../CfgPHelper.c **** { 
 1158              		.loc 1 251 1
 1159              		.cfi_startproc
 1160              		@ args = 0, pretend = 0, frame = 32
 1161              		@ frame_needed = 1, uses_anonymous_args = 0
 1162 0938 00482DE9 		push	{fp, lr}
 1163              		.cfi_def_cfa_offset 8
 1164              		.cfi_offset 11, -8
 1165              		.cfi_offset 14, -4
 1166 093c 04B08DE2 		add	fp, sp, #4
 1167              		.cfi_def_cfa 11, 4
 1168 0940 20D04DE2 		sub	sp, sp, #32
 1169 0944 18000BE5 		str	r0, [fp, #-24]
 1170 0948 1C100BE5 		str	r1, [fp, #-28]
 1171 094c 20200BE5 		str	r2, [fp, #-32]
 252:/home/hkh/git/eapidk-code-r76-trunk/apps/EeePProg/linux/../CfgPHelper.c ****   TokenDesc_t *pTokens;
 253:/home/hkh/git/eapidk-code-r76-trunk/apps/EeePProg/linux/../CfgPHelper.c ****   size_t stTokenCount;
 254:/home/hkh/git/eapidk-code-r76-trunk/apps/EeePProg/linux/../CfgPHelper.c ****   int len;
 255:/home/hkh/git/eapidk-code-r76-trunk/apps/EeePProg/linux/../CfgPHelper.c ****   len=EApiSprintfA(szHelpBuf, stHBufLen, 
 1172              		.loc 1 255 7
 1173 0950 A8309FE5 		ldr	r3, .L55
 1174              	.LPIC38:
 1175 0954 03308FE0 		add	r3, pc, r3
 1176 0958 A4209FE5 		ldr	r2, .L55+4
ARM GAS  /tmp/cc9qaG1x.s 			page 27


 1177              	.LPIC39:
 1178 095c 02208FE0 		add	r2, pc, r2
 1179 0960 20101BE5 		ldr	r1, [fp, #-32]
 1180 0964 1C001BE5 		ldr	r0, [fp, #-28]
 1181 0968 FEFFFFEB 		bl	EApiSprintfA(PLT)
 1182 096c 08000BE5 		str	r0, [fp, #-8]
 256:/home/hkh/git/eapidk-code-r76-trunk/apps/EeePProg/linux/../CfgPHelper.c **** 	"%s\n", "Supported Options");
 257:/home/hkh/git/eapidk-code-r76-trunk/apps/EeePProg/linux/../CfgPHelper.c ****   pTokens=((TokenListDesc_t*)pElementDesc->pExtraInfo)->pTokenList; 
 1183              		.loc 1 257 42
 1184 0970 18301BE5 		ldr	r3, [fp, #-24]
 1185 0974 343093E5 		ldr	r3, [r3, #52]
 1186              		.loc 1 257 10
 1187 0978 043093E5 		ldr	r3, [r3, #4]
 1188 097c 10300BE5 		str	r3, [fp, #-16]
 258:/home/hkh/git/eapidk-code-r76-trunk/apps/EeePProg/linux/../CfgPHelper.c ****   stTokenCount=((TokenListDesc_t*)pElementDesc->pExtraInfo)->uiTokenCount; 
 1189              		.loc 1 258 47
 1190 0980 18301BE5 		ldr	r3, [fp, #-24]
 1191 0984 343093E5 		ldr	r3, [r3, #52]
 1192              		.loc 1 258 15
 1193 0988 003093E5 		ldr	r3, [r3]
 1194 098c 0C300BE5 		str	r3, [fp, #-12]
 259:/home/hkh/git/eapidk-code-r76-trunk/apps/EeePProg/linux/../CfgPHelper.c ****   while(stTokenCount--){
 1195              		.loc 1 259 8
 1196 0990 110000EA 		b	.L52
 1197              	.L53:
 260:/home/hkh/git/eapidk-code-r76-trunk/apps/EeePProg/linux/../CfgPHelper.c **** 	len+=EApiSprintfA(szHelpBuf + len, stHBufLen - len,
 1198              		.loc 1 260 7
 1199 0994 08301BE5 		ldr	r3, [fp, #-8]
 1200 0998 1C201BE5 		ldr	r2, [fp, #-28]
 1201 099c 030082E0 		add	r0, r2, r3
 1202 09a0 08301BE5 		ldr	r3, [fp, #-8]
 1203 09a4 20201BE5 		ldr	r2, [fp, #-32]
 1204 09a8 031042E0 		sub	r1, r2, r3
 1205 09ac 10301BE5 		ldr	r3, [fp, #-16]
 1206 09b0 003093E5 		ldr	r3, [r3]
 1207 09b4 4C209FE5 		ldr	r2, .L55+8
 1208              	.LPIC40:
 1209 09b8 02208FE0 		add	r2, pc, r2
 1210 09bc FEFFFFEB 		bl	EApiSprintfA(PLT)
 1211 09c0 0020A0E1 		mov	r2, r0
 1212              		.loc 1 260 5
 1213 09c4 08301BE5 		ldr	r3, [fp, #-8]
 1214 09c8 023083E0 		add	r3, r3, r2
 1215 09cc 08300BE5 		str	r3, [fp, #-8]
 261:/home/hkh/git/eapidk-code-r76-trunk/apps/EeePProg/linux/../CfgPHelper.c **** 		"\t %s\n", pTokens->pszTokenList);
 262:/home/hkh/git/eapidk-code-r76-trunk/apps/EeePProg/linux/../CfgPHelper.c ****     pTokens++;
 1216              		.loc 1 262 12
 1217 09d0 10301BE5 		ldr	r3, [fp, #-16]
 1218 09d4 083083E2 		add	r3, r3, #8
 1219 09d8 10300BE5 		str	r3, [fp, #-16]
 1220              	.L52:
 259:/home/hkh/git/eapidk-code-r76-trunk/apps/EeePProg/linux/../CfgPHelper.c **** 	len+=EApiSprintfA(szHelpBuf + len, stHBufLen - len,
 1221              		.loc 1 259 21
 1222 09dc 0C301BE5 		ldr	r3, [fp, #-12]
 1223 09e0 012043E2 		sub	r2, r3, #1
 1224 09e4 0C200BE5 		str	r2, [fp, #-12]
 259:/home/hkh/git/eapidk-code-r76-trunk/apps/EeePProg/linux/../CfgPHelper.c **** 	len+=EApiSprintfA(szHelpBuf + len, stHBufLen - len,
ARM GAS  /tmp/cc9qaG1x.s 			page 28


 1225              		.loc 1 259 9
 1226 09e8 000053E3 		cmp	r3, #0
 1227 09ec E8FFFF1A 		bne	.L53
 263:/home/hkh/git/eapidk-code-r76-trunk/apps/EeePProg/linux/../CfgPHelper.c ****   }
 264:/home/hkh/git/eapidk-code-r76-trunk/apps/EeePProg/linux/../CfgPHelper.c ****   return EAPI_STATUS_SUCCESS;
 1228              		.loc 1 264 10
 1229 09f0 0030A0E3 		mov	r3, #0
 265:/home/hkh/git/eapidk-code-r76-trunk/apps/EeePProg/linux/../CfgPHelper.c **** }
 1230              		.loc 1 265 1
 1231 09f4 0300A0E1 		mov	r0, r3
 1232 09f8 04D04BE2 		sub	sp, fp, #4
 1233              		.cfi_def_cfa 13, 8
 1234              		@ sp needed
 1235 09fc 0088BDE8 		pop	{fp, pc}
 1236              	.L56:
 1237              		.align	2
 1238              	.L55:
 1239 0a00 44030000 		.word	.LC22-(.LPIC38+8)
 1240 0a04 24010000 		.word	.LC3-(.LPIC39+8)
 1241 0a08 FC020000 		.word	.LC23-(.LPIC40+8)
 1242              		.cfi_endproc
 1243              	.LFE9:
 1245              		.section	.rodata
 1246 02ba 0000     		.align	2
 1247              	.LC24:
 1248 02bc 47554944 		.ascii	"GUID in the Format F9168C5E-CEB2-4faa-B6BF-329BF39F"
 1248      20696E20 
 1248      74686520 
 1248      466F726D 
 1248      61742046 
 1249 02ef 41314534 		.ascii	"A1E4\012  Means Not Supported 00000000-0000-0000-00"
 1249      0A20204D 
 1249      65616E73 
 1249      204E6F74 
 1249      20537570 
 1250 031f 30302D30 		.ascii	"00-000000000000\012  Means Setable       FFFFFFFF-F"
 1250      30303030 
 1250      30303030 
 1250      3030300A 
 1250      20204D65 
 1251 034f 4646462D 		.ascii	"FFF-FFFF-FFFF-FFFFFFFFFFFF\012\000"
 1251      46464646 
 1251      2D464646 
 1251      462D4646 
 1251      46464646 
 1252              		.text
 1253              		.align	2
 1254              		.global	GUID_Help
 1255              		.syntax unified
 1256              		.arm
 1257              		.fpu vfpv3
 1259              	GUID_Help:
 1260              	.LFB10:
 266:/home/hkh/git/eapidk-code-r76-trunk/apps/EeePProg/linux/../CfgPHelper.c **** EApiStatus_t
 267:/home/hkh/git/eapidk-code-r76-trunk/apps/EeePProg/linux/../CfgPHelper.c **** GUID_Help(
 268:/home/hkh/git/eapidk-code-r76-trunk/apps/EeePProg/linux/../CfgPHelper.c ****     __IN  struct CfgElementDesc_s *pElementDesc, 
 269:/home/hkh/git/eapidk-code-r76-trunk/apps/EeePProg/linux/../CfgPHelper.c ****     __OUT char *szHelpBuf, 
ARM GAS  /tmp/cc9qaG1x.s 			page 29


 270:/home/hkh/git/eapidk-code-r76-trunk/apps/EeePProg/linux/../CfgPHelper.c ****     __IN  size_t stHBufLen 
 271:/home/hkh/git/eapidk-code-r76-trunk/apps/EeePProg/linux/../CfgPHelper.c ****   )
 272:/home/hkh/git/eapidk-code-r76-trunk/apps/EeePProg/linux/../CfgPHelper.c **** { 
 1261              		.loc 1 272 1
 1262              		.cfi_startproc
 1263              		@ args = 0, pretend = 0, frame = 16
 1264              		@ frame_needed = 1, uses_anonymous_args = 0
 1265 0a0c 00482DE9 		push	{fp, lr}
 1266              		.cfi_def_cfa_offset 8
 1267              		.cfi_offset 11, -8
 1268              		.cfi_offset 14, -4
 1269 0a10 04B08DE2 		add	fp, sp, #4
 1270              		.cfi_def_cfa 11, 4
 1271 0a14 10D04DE2 		sub	sp, sp, #16
 1272 0a18 08000BE5 		str	r0, [fp, #-8]
 1273 0a1c 0C100BE5 		str	r1, [fp, #-12]
 1274 0a20 10200BE5 		str	r2, [fp, #-16]
 273:/home/hkh/git/eapidk-code-r76-trunk/apps/EeePProg/linux/../CfgPHelper.c ****   pElementDesc=pElementDesc;
 274:/home/hkh/git/eapidk-code-r76-trunk/apps/EeePProg/linux/../CfgPHelper.c ****   EApiSprintfA(szHelpBuf , stHBufLen , 
 1275              		.loc 1 274 3
 1276 0a24 20309FE5 		ldr	r3, .L59
 1277              	.LPIC41:
 1278 0a28 03308FE0 		add	r3, pc, r3
 1279 0a2c 0320A0E1 		mov	r2, r3
 1280 0a30 10101BE5 		ldr	r1, [fp, #-16]
 1281 0a34 0C001BE5 		ldr	r0, [fp, #-12]
 1282 0a38 FEFFFFEB 		bl	EApiSprintfA(PLT)
 275:/home/hkh/git/eapidk-code-r76-trunk/apps/EeePProg/linux/../CfgPHelper.c **** 		"GUID in the Format F9168C5E-CEB2-4faa-B6BF-329BF39FA1E4\n"
 276:/home/hkh/git/eapidk-code-r76-trunk/apps/EeePProg/linux/../CfgPHelper.c **** 		"  Means Not Supported 00000000-0000-0000-0000-000000000000\n"
 277:/home/hkh/git/eapidk-code-r76-trunk/apps/EeePProg/linux/../CfgPHelper.c **** 		"  Means Setable       FFFFFFFF-FFFF-FFFF-FFFF-FFFFFFFFFFFF\n"
 278:/home/hkh/git/eapidk-code-r76-trunk/apps/EeePProg/linux/../CfgPHelper.c **** 		  );
 279:/home/hkh/git/eapidk-code-r76-trunk/apps/EeePProg/linux/../CfgPHelper.c ****   return EAPI_STATUS_SUCCESS;
 1283              		.loc 1 279 10
 1284 0a3c 0030A0E3 		mov	r3, #0
 280:/home/hkh/git/eapidk-code-r76-trunk/apps/EeePProg/linux/../CfgPHelper.c **** }
 1285              		.loc 1 280 1
 1286 0a40 0300A0E1 		mov	r0, r3
 1287 0a44 04D04BE2 		sub	sp, fp, #4
 1288              		.cfi_def_cfa 13, 8
 1289              		@ sp needed
 1290 0a48 0088BDE8 		pop	{fp, pc}
 1291              	.L60:
 1292              		.align	2
 1293              	.L59:
 1294 0a4c D8020000 		.word	.LC24-(.LPIC41+8)
 1295              		.cfi_endproc
 1296              	.LFE10:
 1298              		.section	.rodata
 1299 036b 00       		.align	2
 1300              	.LC25:
 1301 036c 322E300A 		.ascii	"2.0\012\000"
 1301      00
 1302              		.text
 1303              		.align	2
 1304              		.global	SpecRev_Help
 1305              		.syntax unified
 1306              		.arm
ARM GAS  /tmp/cc9qaG1x.s 			page 30


 1307              		.fpu vfpv3
 1309              	SpecRev_Help:
 1310              	.LFB11:
 281:/home/hkh/git/eapidk-code-r76-trunk/apps/EeePProg/linux/../CfgPHelper.c **** EApiStatus_t
 282:/home/hkh/git/eapidk-code-r76-trunk/apps/EeePProg/linux/../CfgPHelper.c **** SpecRev_Help(
 283:/home/hkh/git/eapidk-code-r76-trunk/apps/EeePProg/linux/../CfgPHelper.c ****     __IN  struct CfgElementDesc_s *pElementDesc, 
 284:/home/hkh/git/eapidk-code-r76-trunk/apps/EeePProg/linux/../CfgPHelper.c ****     __OUT char *szHelpBuf, 
 285:/home/hkh/git/eapidk-code-r76-trunk/apps/EeePProg/linux/../CfgPHelper.c ****     __IN  size_t stHBufLen 
 286:/home/hkh/git/eapidk-code-r76-trunk/apps/EeePProg/linux/../CfgPHelper.c ****   )
 287:/home/hkh/git/eapidk-code-r76-trunk/apps/EeePProg/linux/../CfgPHelper.c **** { 
 1311              		.loc 1 287 1
 1312              		.cfi_startproc
 1313              		@ args = 0, pretend = 0, frame = 16
 1314              		@ frame_needed = 1, uses_anonymous_args = 0
 1315 0a50 00482DE9 		push	{fp, lr}
 1316              		.cfi_def_cfa_offset 8
 1317              		.cfi_offset 11, -8
 1318              		.cfi_offset 14, -4
 1319 0a54 04B08DE2 		add	fp, sp, #4
 1320              		.cfi_def_cfa 11, 4
 1321 0a58 10D04DE2 		sub	sp, sp, #16
 1322 0a5c 08000BE5 		str	r0, [fp, #-8]
 1323 0a60 0C100BE5 		str	r1, [fp, #-12]
 1324 0a64 10200BE5 		str	r2, [fp, #-16]
 288:/home/hkh/git/eapidk-code-r76-trunk/apps/EeePProg/linux/../CfgPHelper.c ****   pElementDesc=pElementDesc;
 289:/home/hkh/git/eapidk-code-r76-trunk/apps/EeePProg/linux/../CfgPHelper.c ****   EApiSprintfA(szHelpBuf , stHBufLen , "2.0\n");
 1325              		.loc 1 289 3
 1326 0a68 20309FE5 		ldr	r3, .L63
 1327              	.LPIC42:
 1328 0a6c 03308FE0 		add	r3, pc, r3
 1329 0a70 0320A0E1 		mov	r2, r3
 1330 0a74 10101BE5 		ldr	r1, [fp, #-16]
 1331 0a78 0C001BE5 		ldr	r0, [fp, #-12]
 1332 0a7c FEFFFFEB 		bl	EApiSprintfA(PLT)
 290:/home/hkh/git/eapidk-code-r76-trunk/apps/EeePProg/linux/../CfgPHelper.c ****   return EAPI_STATUS_SUCCESS;
 1333              		.loc 1 290 10
 1334 0a80 0030A0E3 		mov	r3, #0
 291:/home/hkh/git/eapidk-code-r76-trunk/apps/EeePProg/linux/../CfgPHelper.c **** }
 1335              		.loc 1 291 1
 1336 0a84 0300A0E1 		mov	r0, r3
 1337 0a88 04D04BE2 		sub	sp, fp, #4
 1338              		.cfi_def_cfa 13, 8
 1339              		@ sp needed
 1340 0a8c 0088BDE8 		pop	{fp, pc}
 1341              	.L64:
 1342              		.align	2
 1343              	.L63:
 1344 0a90 88030000 		.word	.LC25-(.LPIC42+8)
 1345              		.cfi_endproc
 1346              	.LFE11:
 1348              		.section	.rodata
 1349 0371 000000   		.align	2
 1350              	.LC26:
 1351 0374 33204C65 		.ascii	"3 Letter PNPID e.g. PMG,KEM\000"
 1351      74746572 
 1351      20504E50 
 1351      49442065 
ARM GAS  /tmp/cc9qaG1x.s 			page 31


 1351      2E672E20 
 1352              		.text
 1353              		.align	2
 1354              		.global	PNPID_Help
 1355              		.syntax unified
 1356              		.arm
 1357              		.fpu vfpv3
 1359              	PNPID_Help:
 1360              	.LFB12:
 292:/home/hkh/git/eapidk-code-r76-trunk/apps/EeePProg/linux/../CfgPHelper.c **** EApiStatus_t
 293:/home/hkh/git/eapidk-code-r76-trunk/apps/EeePProg/linux/../CfgPHelper.c **** PNPID_Help(
 294:/home/hkh/git/eapidk-code-r76-trunk/apps/EeePProg/linux/../CfgPHelper.c ****     __IN  struct CfgElementDesc_s *pElementDesc, 
 295:/home/hkh/git/eapidk-code-r76-trunk/apps/EeePProg/linux/../CfgPHelper.c ****     __OUT char *szHelpBuf, 
 296:/home/hkh/git/eapidk-code-r76-trunk/apps/EeePProg/linux/../CfgPHelper.c ****     __IN  size_t stHBufLen 
 297:/home/hkh/git/eapidk-code-r76-trunk/apps/EeePProg/linux/../CfgPHelper.c ****   )
 298:/home/hkh/git/eapidk-code-r76-trunk/apps/EeePProg/linux/../CfgPHelper.c **** { 
 1361              		.loc 1 298 1
 1362              		.cfi_startproc
 1363              		@ args = 0, pretend = 0, frame = 16
 1364              		@ frame_needed = 1, uses_anonymous_args = 0
 1365 0a94 00482DE9 		push	{fp, lr}
 1366              		.cfi_def_cfa_offset 8
 1367              		.cfi_offset 11, -8
 1368              		.cfi_offset 14, -4
 1369 0a98 04B08DE2 		add	fp, sp, #4
 1370              		.cfi_def_cfa 11, 4
 1371 0a9c 10D04DE2 		sub	sp, sp, #16
 1372 0aa0 08000BE5 		str	r0, [fp, #-8]
 1373 0aa4 0C100BE5 		str	r1, [fp, #-12]
 1374 0aa8 10200BE5 		str	r2, [fp, #-16]
 299:/home/hkh/git/eapidk-code-r76-trunk/apps/EeePProg/linux/../CfgPHelper.c ****   pElementDesc=pElementDesc;
 300:/home/hkh/git/eapidk-code-r76-trunk/apps/EeePProg/linux/../CfgPHelper.c ****   EApiSprintfA(szHelpBuf , stHBufLen , "3 Letter PNPID e.g. PMG,KEM");
 1375              		.loc 1 300 3
 1376 0aac 20309FE5 		ldr	r3, .L67
 1377              	.LPIC43:
 1378 0ab0 03308FE0 		add	r3, pc, r3
 1379 0ab4 0320A0E1 		mov	r2, r3
 1380 0ab8 10101BE5 		ldr	r1, [fp, #-16]
 1381 0abc 0C001BE5 		ldr	r0, [fp, #-12]
 1382 0ac0 FEFFFFEB 		bl	EApiSprintfA(PLT)
 301:/home/hkh/git/eapidk-code-r76-trunk/apps/EeePProg/linux/../CfgPHelper.c ****   return EAPI_STATUS_SUCCESS;
 1383              		.loc 1 301 10
 1384 0ac4 0030A0E3 		mov	r3, #0
 302:/home/hkh/git/eapidk-code-r76-trunk/apps/EeePProg/linux/../CfgPHelper.c **** }
 1385              		.loc 1 302 1
 1386 0ac8 0300A0E1 		mov	r0, r3
 1387 0acc 04D04BE2 		sub	sp, fp, #4
 1388              		.cfi_def_cfa 13, 8
 1389              		@ sp needed
 1390 0ad0 0088BDE8 		pop	{fp, pc}
 1391              	.L68:
 1392              		.align	2
 1393              	.L67:
 1394 0ad4 90030000 		.word	.LC26-(.LPIC43+8)
 1395              		.cfi_endproc
 1396              	.LFE12:
 1398              		.section	.rodata
ARM GAS  /tmp/cc9qaG1x.s 			page 32


 1399              		.align	2
 1400              	.LC27:
 1401 0390 456E636F 		.ascii	"Encodded I2C EEPROM Device Selector Address 0xA0,0x"
 1401      64646564 
 1401      20493243 
 1401      20454550 
 1401      524F4D20 
 1402 03c3 41322C30 		.ascii	"A2,0xA4,0xA6,0xA8,0xAA,0xAC,0xAE\012\000"
 1402      7841342C 
 1402      30784136 
 1402      2C307841 
 1402      382C3078 
 1403              		.text
 1404              		.align	2
 1405              		.global	I2C_EEPROM_Help
 1406              		.syntax unified
 1407              		.arm
 1408              		.fpu vfpv3
 1410              	I2C_EEPROM_Help:
 1411              	.LFB13:
 303:/home/hkh/git/eapidk-code-r76-trunk/apps/EeePProg/linux/../CfgPHelper.c **** EApiStatus_t
 304:/home/hkh/git/eapidk-code-r76-trunk/apps/EeePProg/linux/../CfgPHelper.c **** I2C_EEPROM_Help(
 305:/home/hkh/git/eapidk-code-r76-trunk/apps/EeePProg/linux/../CfgPHelper.c ****     __IN  struct CfgElementDesc_s *pElementDesc, 
 306:/home/hkh/git/eapidk-code-r76-trunk/apps/EeePProg/linux/../CfgPHelper.c ****     __OUT char *szHelpBuf, 
 307:/home/hkh/git/eapidk-code-r76-trunk/apps/EeePProg/linux/../CfgPHelper.c ****     __IN  size_t stHBufLen 
 308:/home/hkh/git/eapidk-code-r76-trunk/apps/EeePProg/linux/../CfgPHelper.c ****   )
 309:/home/hkh/git/eapidk-code-r76-trunk/apps/EeePProg/linux/../CfgPHelper.c **** { 
 1412              		.loc 1 309 1
 1413              		.cfi_startproc
 1414              		@ args = 0, pretend = 0, frame = 16
 1415              		@ frame_needed = 1, uses_anonymous_args = 0
 1416 0ad8 00482DE9 		push	{fp, lr}
 1417              		.cfi_def_cfa_offset 8
 1418              		.cfi_offset 11, -8
 1419              		.cfi_offset 14, -4
 1420 0adc 04B08DE2 		add	fp, sp, #4
 1421              		.cfi_def_cfa 11, 4
 1422 0ae0 10D04DE2 		sub	sp, sp, #16
 1423 0ae4 08000BE5 		str	r0, [fp, #-8]
 1424 0ae8 0C100BE5 		str	r1, [fp, #-12]
 1425 0aec 10200BE5 		str	r2, [fp, #-16]
 310:/home/hkh/git/eapidk-code-r76-trunk/apps/EeePProg/linux/../CfgPHelper.c ****   pElementDesc=pElementDesc;
 311:/home/hkh/git/eapidk-code-r76-trunk/apps/EeePProg/linux/../CfgPHelper.c ****   EApiSprintfA(szHelpBuf , stHBufLen , 
 1426              		.loc 1 311 3
 1427 0af0 20309FE5 		ldr	r3, .L71
 1428              	.LPIC44:
 1429 0af4 03308FE0 		add	r3, pc, r3
 1430 0af8 0320A0E1 		mov	r2, r3
 1431 0afc 10101BE5 		ldr	r1, [fp, #-16]
 1432 0b00 0C001BE5 		ldr	r0, [fp, #-12]
 1433 0b04 FEFFFFEB 		bl	EApiSprintfA(PLT)
 312:/home/hkh/git/eapidk-code-r76-trunk/apps/EeePProg/linux/../CfgPHelper.c **** 		  "Encodded I2C EEPROM Device Selector Address 0xA0,0xA2,0xA4,0xA6,0xA8,0xAA,0xAC,0xAE\n");
 313:/home/hkh/git/eapidk-code-r76-trunk/apps/EeePProg/linux/../CfgPHelper.c ****   return EAPI_STATUS_SUCCESS;
 1434              		.loc 1 313 10
 1435 0b08 0030A0E3 		mov	r3, #0
 314:/home/hkh/git/eapidk-code-r76-trunk/apps/EeePProg/linux/../CfgPHelper.c **** }
 1436              		.loc 1 314 1
ARM GAS  /tmp/cc9qaG1x.s 			page 33


 1437 0b0c 0300A0E1 		mov	r0, r3
 1438 0b10 04D04BE2 		sub	sp, fp, #4
 1439              		.cfi_def_cfa 13, 8
 1440              		@ sp needed
 1441 0b14 0088BDE8 		pop	{fp, pc}
 1442              	.L72:
 1443              		.align	2
 1444              	.L71:
 1445 0b18 AC030000 		.word	.LC27-(.LPIC44+8)
 1446              		.cfi_endproc
 1447              	.LFE13:
 1449              		.section	.rodata
 1450 03e5 000000   		.align	2
 1451              	.LC28:
 1452 03e8 4465616C 		.ascii	"Dealloc_Element\000"
 1452      6C6F635F 
 1452      456C656D 
 1452      656E7400 
 1453              		.align	2
 1454              	.LC29:
 1455 03f8 70456C65 		.ascii	"pElementDesc->stBitOffset != 0\000"
 1455      6D656E74 
 1455      44657363 
 1455      2D3E7374 
 1455      4269744F 
 1456 0417 00       		.align	2
 1457              	.LC30:
 1458 0418 70456C65 		.ascii	"pElementDesc->stBitLength != 8*sizeof(char*)\000"
 1458      6D656E74 
 1458      44657363 
 1458      2D3E7374 
 1458      4269744C 
 1459 0445 000000   		.align	2
 1460              	.LC31:
 1461 0448 70456C65 		.ascii	"pElementDesc->Instances.stElementSize != sizeof(cha"
 1461      6D656E74 
 1461      44657363 
 1461      2D3E496E 
 1461      7374616E 
 1462 047b 722A2900 		.ascii	"r*)\000"
 1463              		.text
 1464              		.align	2
 1465              		.global	Dealloc_Element
 1466              		.syntax unified
 1467              		.arm
 1468              		.fpu vfpv3
 1470              	Dealloc_Element:
 1471              	.LFB14:
 315:/home/hkh/git/eapidk-code-r76-trunk/apps/EeePProg/linux/../CfgPHelper.c **** 
 316:/home/hkh/git/eapidk-code-r76-trunk/apps/EeePProg/linux/../CfgPHelper.c **** /*
 317:/home/hkh/git/eapidk-code-r76-trunk/apps/EeePProg/linux/../CfgPHelper.c ****  *
 318:/home/hkh/git/eapidk-code-r76-trunk/apps/EeePProg/linux/../CfgPHelper.c ****  *  Clean Functions
 319:/home/hkh/git/eapidk-code-r76-trunk/apps/EeePProg/linux/../CfgPHelper.c ****  *
 320:/home/hkh/git/eapidk-code-r76-trunk/apps/EeePProg/linux/../CfgPHelper.c ****  *
 321:/home/hkh/git/eapidk-code-r76-trunk/apps/EeePProg/linux/../CfgPHelper.c ****  */
 322:/home/hkh/git/eapidk-code-r76-trunk/apps/EeePProg/linux/../CfgPHelper.c **** EApiStatus_t
 323:/home/hkh/git/eapidk-code-r76-trunk/apps/EeePProg/linux/../CfgPHelper.c **** Dealloc_Element(
ARM GAS  /tmp/cc9qaG1x.s 			page 34


 324:/home/hkh/git/eapidk-code-r76-trunk/apps/EeePProg/linux/../CfgPHelper.c ****     __IN    struct  CfgElementDesc_s *pElementDesc, 
 325:/home/hkh/git/eapidk-code-r76-trunk/apps/EeePProg/linux/../CfgPHelper.c ****     __INOUT void   *pCurElement
 326:/home/hkh/git/eapidk-code-r76-trunk/apps/EeePProg/linux/../CfgPHelper.c ****   )
 327:/home/hkh/git/eapidk-code-r76-trunk/apps/EeePProg/linux/../CfgPHelper.c **** { 
 1472              		.loc 1 327 1
 1473              		.cfi_startproc
 1474              		@ args = 0, pretend = 0, frame = 16
 1475              		@ frame_needed = 1, uses_anonymous_args = 0
 1476 0b1c 00482DE9 		push	{fp, lr}
 1477              		.cfi_def_cfa_offset 8
 1478              		.cfi_offset 11, -8
 1479              		.cfi_offset 14, -4
 1480 0b20 04B08DE2 		add	fp, sp, #4
 1481              		.cfi_def_cfa 11, 4
 1482 0b24 20D04DE2 		sub	sp, sp, #32
 1483 0b28 10000BE5 		str	r0, [fp, #-16]
 1484 0b2c 14100BE5 		str	r1, [fp, #-20]
 328:/home/hkh/git/eapidk-code-r76-trunk/apps/EeePProg/linux/../CfgPHelper.c ****   EApiStatus_t StatusCode=EAPI_STATUS_SUCCESS;
 1485              		.loc 1 328 16
 1486 0b30 0030A0E3 		mov	r3, #0
 1487 0b34 08300BE5 		str	r3, [fp, #-8]
 329:/home/hkh/git/eapidk-code-r76-trunk/apps/EeePProg/linux/../CfgPHelper.c ****   EAPI_APP_ASSERT_PARAMATER_CHECK_S(
 1488              		.loc 1 329 3
 1489 0b38 10301BE5 		ldr	r3, [fp, #-16]
 1490 0b3c 283093E5 		ldr	r3, [r3, #40]
 1491 0b40 000053E3 		cmp	r3, #0
 1492 0b44 1100000A 		beq	.L74
 1493              		.loc 1 329 3 is_stmt 0 discriminator 1
 1494 0b48 34319FE5 		ldr	r3, .L80
 1495              	.LPIC45:
 1496 0b4c 03308FE0 		add	r3, pc, r3
 1497 0b50 08308DE5 		str	r3, [sp, #8]
 1498 0b54 2C319FE5 		ldr	r3, .L80+4
 1499              	.LPIC46:
 1500 0b58 03308FE0 		add	r3, pc, r3
 1501 0b5c 04308DE5 		str	r3, [sp, #4]
 1502 0b60 013CE0E3 		mvn	r3, #256
 1503 0b64 00308DE5 		str	r3, [sp]
 1504 0b68 493100E3 		movw	r3, #329
 1505 0b6c 18219FE5 		ldr	r2, .L80+8
 1506              	.LPIC47:
 1507 0b70 02208FE0 		add	r2, pc, r2
 1508 0b74 14119FE5 		ldr	r1, .L80+12
 1509              	.LPIC48:
 1510 0b78 01108FE0 		add	r1, pc, r1
 1511 0b7c 4500A0E3 		mov	r0, #69
 1512 0b80 FEFFFFEB 		bl	siFormattedMessage_SC(PLT)
 1513 0b84 013CE0E3 		mvn	r3, #256
 1514 0b88 08300BE5 		str	r3, [fp, #-8]
 1515 0b8c 380000EA 		b	.L75
 1516              	.L74:
 330:/home/hkh/git/eapidk-code-r76-trunk/apps/EeePProg/linux/../CfgPHelper.c ****                 Dealloc_Element,
 331:/home/hkh/git/eapidk-code-r76-trunk/apps/EeePProg/linux/../CfgPHelper.c ****                 EAPI_STATUS_INVALID_PARAMETER,
 332:/home/hkh/git/eapidk-code-r76-trunk/apps/EeePProg/linux/../CfgPHelper.c ****                 pElementDesc->stBitOffset != 0
 333:/home/hkh/git/eapidk-code-r76-trunk/apps/EeePProg/linux/../CfgPHelper.c ****         );
 334:/home/hkh/git/eapidk-code-r76-trunk/apps/EeePProg/linux/../CfgPHelper.c ****   EAPI_APP_ASSERT_PARAMATER_CHECK_S(
 1517              		.loc 1 334 3 is_stmt 1
ARM GAS  /tmp/cc9qaG1x.s 			page 35


 1518 0b90 10301BE5 		ldr	r3, [fp, #-16]
 1519 0b94 2C3093E5 		ldr	r3, [r3, #44]
 1520 0b98 200053E3 		cmp	r3, #32
 1521 0b9c 1100000A 		beq	.L76
 1522              		.loc 1 334 3 is_stmt 0 discriminator 1
 1523 0ba0 EC309FE5 		ldr	r3, .L80+16
 1524              	.LPIC49:
 1525 0ba4 03308FE0 		add	r3, pc, r3
 1526 0ba8 08308DE5 		str	r3, [sp, #8]
 1527 0bac E4309FE5 		ldr	r3, .L80+20
 1528              	.LPIC50:
 1529 0bb0 03308FE0 		add	r3, pc, r3
 1530 0bb4 04308DE5 		str	r3, [sp, #4]
 1531 0bb8 013CE0E3 		mvn	r3, #256
 1532 0bbc 00308DE5 		str	r3, [sp]
 1533 0bc0 4E3100E3 		movw	r3, #334
 1534 0bc4 D0209FE5 		ldr	r2, .L80+24
 1535              	.LPIC51:
 1536 0bc8 02208FE0 		add	r2, pc, r2
 1537 0bcc CC109FE5 		ldr	r1, .L80+28
 1538              	.LPIC52:
 1539 0bd0 01108FE0 		add	r1, pc, r1
 1540 0bd4 4500A0E3 		mov	r0, #69
 1541 0bd8 FEFFFFEB 		bl	siFormattedMessage_SC(PLT)
 1542 0bdc 013CE0E3 		mvn	r3, #256
 1543 0be0 08300BE5 		str	r3, [fp, #-8]
 1544 0be4 220000EA 		b	.L75
 1545              	.L76:
 335:/home/hkh/git/eapidk-code-r76-trunk/apps/EeePProg/linux/../CfgPHelper.c ****                 Dealloc_Element,
 336:/home/hkh/git/eapidk-code-r76-trunk/apps/EeePProg/linux/../CfgPHelper.c ****                 EAPI_STATUS_INVALID_PARAMETER,
 337:/home/hkh/git/eapidk-code-r76-trunk/apps/EeePProg/linux/../CfgPHelper.c ****                 pElementDesc->stBitLength != 8*sizeof(char*)
 338:/home/hkh/git/eapidk-code-r76-trunk/apps/EeePProg/linux/../CfgPHelper.c ****         );
 339:/home/hkh/git/eapidk-code-r76-trunk/apps/EeePProg/linux/../CfgPHelper.c ****   EAPI_APP_ASSERT_PARAMATER_CHECK_S(
 1546              		.loc 1 339 3 is_stmt 1
 1547 0be8 10301BE5 		ldr	r3, [fp, #-16]
 1548 0bec 143093E5 		ldr	r3, [r3, #20]
 1549 0bf0 040053E3 		cmp	r3, #4
 1550 0bf4 1100000A 		beq	.L77
 1551              		.loc 1 339 3 is_stmt 0 discriminator 1
 1552 0bf8 A4309FE5 		ldr	r3, .L80+32
 1553              	.LPIC53:
 1554 0bfc 03308FE0 		add	r3, pc, r3
 1555 0c00 08308DE5 		str	r3, [sp, #8]
 1556 0c04 9C309FE5 		ldr	r3, .L80+36
 1557              	.LPIC54:
 1558 0c08 03308FE0 		add	r3, pc, r3
 1559 0c0c 04308DE5 		str	r3, [sp, #4]
 1560 0c10 013CE0E3 		mvn	r3, #256
 1561 0c14 00308DE5 		str	r3, [sp]
 1562 0c18 533100E3 		movw	r3, #339
 1563 0c1c 88209FE5 		ldr	r2, .L80+40
 1564              	.LPIC55:
 1565 0c20 02208FE0 		add	r2, pc, r2
 1566 0c24 84109FE5 		ldr	r1, .L80+44
 1567              	.LPIC56:
 1568 0c28 01108FE0 		add	r1, pc, r1
 1569 0c2c 4500A0E3 		mov	r0, #69
ARM GAS  /tmp/cc9qaG1x.s 			page 36


 1570 0c30 FEFFFFEB 		bl	siFormattedMessage_SC(PLT)
 1571 0c34 013CE0E3 		mvn	r3, #256
 1572 0c38 08300BE5 		str	r3, [fp, #-8]
 1573 0c3c 0C0000EA 		b	.L75
 1574              	.L77:
 340:/home/hkh/git/eapidk-code-r76-trunk/apps/EeePProg/linux/../CfgPHelper.c ****                 Dealloc_Element,
 341:/home/hkh/git/eapidk-code-r76-trunk/apps/EeePProg/linux/../CfgPHelper.c ****                 EAPI_STATUS_INVALID_PARAMETER,
 342:/home/hkh/git/eapidk-code-r76-trunk/apps/EeePProg/linux/../CfgPHelper.c ****                 pElementDesc->Instances.stElementSize != sizeof(char*)
 343:/home/hkh/git/eapidk-code-r76-trunk/apps/EeePProg/linux/../CfgPHelper.c ****         );
 344:/home/hkh/git/eapidk-code-r76-trunk/apps/EeePProg/linux/../CfgPHelper.c ****   if(*(char**)pCurElement!=NULL){
 1575              		.loc 1 344 6 is_stmt 1
 1576 0c40 14301BE5 		ldr	r3, [fp, #-20]
 1577 0c44 003093E5 		ldr	r3, [r3]
 1578              		.loc 1 344 5
 1579 0c48 000053E3 		cmp	r3, #0
 1580 0c4c 0700000A 		beq	.L79
 345:/home/hkh/git/eapidk-code-r76-trunk/apps/EeePProg/linux/../CfgPHelper.c ****     free(*(char**)pCurElement);
 1581              		.loc 1 345 5
 1582 0c50 14301BE5 		ldr	r3, [fp, #-20]
 1583 0c54 003093E5 		ldr	r3, [r3]
 1584 0c58 0300A0E1 		mov	r0, r3
 1585 0c5c FEFFFFEB 		bl	free(PLT)
 346:/home/hkh/git/eapidk-code-r76-trunk/apps/EeePProg/linux/../CfgPHelper.c ****     *(char**)pCurElement=NULL;
 1586              		.loc 1 346 25
 1587 0c60 14301BE5 		ldr	r3, [fp, #-20]
 1588 0c64 0020A0E3 		mov	r2, #0
 1589 0c68 002083E5 		str	r2, [r3]
 1590 0c6c 000000EA 		b	.L75
 1591              	.L79:
 347:/home/hkh/git/eapidk-code-r76-trunk/apps/EeePProg/linux/../CfgPHelper.c ****   }
 348:/home/hkh/git/eapidk-code-r76-trunk/apps/EeePProg/linux/../CfgPHelper.c **** EAPI_APP_ASSERT_EXIT
 1592              		.loc 1 348 1
 1593 0c70 00F020E3 		nop
 1594              	.L75:
 349:/home/hkh/git/eapidk-code-r76-trunk/apps/EeePProg/linux/../CfgPHelper.c ****   return EAPI_STATUS_SUCCESS;
 1595              		.loc 1 349 10
 1596 0c74 0030A0E3 		mov	r3, #0
 350:/home/hkh/git/eapidk-code-r76-trunk/apps/EeePProg/linux/../CfgPHelper.c **** }
 1597              		.loc 1 350 1
 1598 0c78 0300A0E1 		mov	r0, r3
 1599 0c7c 04D04BE2 		sub	sp, fp, #4
 1600              		.cfi_def_cfa 13, 8
 1601              		@ sp needed
 1602 0c80 0088BDE8 		pop	{fp, pc}
 1603              	.L81:
 1604              		.align	2
 1605              	.L80:
 1606 0c84 28050000 		.word	.LC29-(.LPIC45+8)
 1607 0c88 AC010000 		.word	.LC3-(.LPIC46+8)
 1608 0c8c FC040000 		.word	.LC28-(.LPIC47+8)
 1609 0c90 14010000 		.word	.LC1-(.LPIC48+8)
 1610 0c94 00050000 		.word	.LC30-(.LPIC49+8)
 1611 0c98 64010000 		.word	.LC3-(.LPIC50+8)
 1612 0c9c B4040000 		.word	.LC28-(.LPIC51+8)
 1613 0ca0 CC000000 		.word	.LC1-(.LPIC52+8)
 1614 0ca4 E8040000 		.word	.LC31-(.LPIC53+8)
 1615 0ca8 1C010000 		.word	.LC3-(.LPIC54+8)
ARM GAS  /tmp/cc9qaG1x.s 			page 37


 1616 0cac 6C040000 		.word	.LC28-(.LPIC55+8)
 1617 0cb0 84000000 		.word	.LC1-(.LPIC56+8)
 1618              		.cfi_endproc
 1619              	.LFE14:
 1621              		.section	.rodata
 1622 047f 00       		.align	2
 1623              	.LC32:
 1624 0480 70456C65 		.ascii	"pElementDesc->stBitLength+ pElementDesc->stBitOffse"
 1624      6D656E74 
 1624      44657363 
 1624      2D3E7374 
 1624      4269744C 
 1625 04b3 743E2070 		.ascii	"t> pElementDesc->Instances.stElementSize*8\000"
 1625      456C656D 
 1625      656E7444 
 1625      6573632D 
 1625      3E496E73 
 1626              		.text
 1627              		.align	2
 1628              		.global	GenClear_Element
 1629              		.syntax unified
 1630              		.arm
 1631              		.fpu vfpv3
 1633              	GenClear_Element:
 1634              	.LFB15:
 351:/home/hkh/git/eapidk-code-r76-trunk/apps/EeePProg/linux/../CfgPHelper.c **** 
 352:/home/hkh/git/eapidk-code-r76-trunk/apps/EeePProg/linux/../CfgPHelper.c **** EApiStatus_t
 353:/home/hkh/git/eapidk-code-r76-trunk/apps/EeePProg/linux/../CfgPHelper.c **** GenClear_Element(
 354:/home/hkh/git/eapidk-code-r76-trunk/apps/EeePProg/linux/../CfgPHelper.c ****     struct  CfgElementDesc_s *pElementDesc, 
 355:/home/hkh/git/eapidk-code-r76-trunk/apps/EeePProg/linux/../CfgPHelper.c ****     __OUT void    *pvCurElement                 
 356:/home/hkh/git/eapidk-code-r76-trunk/apps/EeePProg/linux/../CfgPHelper.c ****   )
 357:/home/hkh/git/eapidk-code-r76-trunk/apps/EeePProg/linux/../CfgPHelper.c **** { 
 1635              		.loc 1 357 1
 1636              		.cfi_startproc
 1637              		@ args = 0, pretend = 0, frame = 32
 1638              		@ frame_needed = 1, uses_anonymous_args = 0
 1639 0cb4 00482DE9 		push	{fp, lr}
 1640              		.cfi_def_cfa_offset 8
 1641              		.cfi_offset 11, -8
 1642              		.cfi_offset 14, -4
 1643 0cb8 04B08DE2 		add	fp, sp, #4
 1644              		.cfi_def_cfa 11, 4
 1645 0cbc 30D04DE2 		sub	sp, sp, #48
 1646 0cc0 20000BE5 		str	r0, [fp, #-32]
 1647 0cc4 24100BE5 		str	r1, [fp, #-36]
 358:/home/hkh/git/eapidk-code-r76-trunk/apps/EeePProg/linux/../CfgPHelper.c ****   EApiStatus_t StatusCode=EAPI_STATUS_SUCCESS;
 1648              		.loc 1 358 16
 1649 0cc8 0030A0E3 		mov	r3, #0
 1650 0ccc 18300BE5 		str	r3, [fp, #-24]
 359:/home/hkh/git/eapidk-code-r76-trunk/apps/EeePProg/linux/../CfgPHelper.c ****   uint8_t *pu8CurElement=pvCurElement;
 1651              		.loc 1 359 12
 1652 0cd0 24301BE5 		ldr	r3, [fp, #-36]
 1653 0cd4 14300BE5 		str	r3, [fp, #-20]
 360:/home/hkh/git/eapidk-code-r76-trunk/apps/EeePProg/linux/../CfgPHelper.c ****   size_t stByteOffset=pElementDesc->stBitOffset/8;
 1654              		.loc 1 360 35
 1655 0cd8 20301BE5 		ldr	r3, [fp, #-32]
 1656 0cdc 283093E5 		ldr	r3, [r3, #40]
ARM GAS  /tmp/cc9qaG1x.s 			page 38


 1657              		.loc 1 360 10
 1658 0ce0 A331A0E1 		lsr	r3, r3, #3
 1659 0ce4 1C300BE5 		str	r3, [fp, #-28]
 361:/home/hkh/git/eapidk-code-r76-trunk/apps/EeePProg/linux/../CfgPHelper.c ****   size_t stBitOffset =pElementDesc->stBitOffset%8;
 1660              		.loc 1 361 35
 1661 0ce8 20301BE5 		ldr	r3, [fp, #-32]
 1662 0cec 283093E5 		ldr	r3, [r3, #40]
 1663              		.loc 1 361 10
 1664 0cf0 073003E2 		and	r3, r3, #7
 1665 0cf4 10300BE5 		str	r3, [fp, #-16]
 362:/home/hkh/git/eapidk-code-r76-trunk/apps/EeePProg/linux/../CfgPHelper.c ****   size_t stByteLen   =((pElementDesc->stBitLength + stBitOffset)/8) ;
 1666              		.loc 1 362 37
 1667 0cf8 20301BE5 		ldr	r3, [fp, #-32]
 1668 0cfc 2C2093E5 		ldr	r2, [r3, #44]
 1669              		.loc 1 362 51
 1670 0d00 10301BE5 		ldr	r3, [fp, #-16]
 1671 0d04 033082E0 		add	r3, r2, r3
 1672              		.loc 1 362 10
 1673 0d08 A331A0E1 		lsr	r3, r3, #3
 1674 0d0c 0C300BE5 		str	r3, [fp, #-12]
 363:/home/hkh/git/eapidk-code-r76-trunk/apps/EeePProg/linux/../CfgPHelper.c ****   size_t stBitLen    =(pElementDesc->stBitLength + stBitOffset - 8)%8;
 1675              		.loc 1 363 36
 1676 0d10 20301BE5 		ldr	r3, [fp, #-32]
 1677 0d14 2C2093E5 		ldr	r2, [r3, #44]
 1678              		.loc 1 363 50
 1679 0d18 10301BE5 		ldr	r3, [fp, #-16]
 1680 0d1c 033082E0 		add	r3, r2, r3
 1681              		.loc 1 363 10
 1682 0d20 073003E2 		and	r3, r3, #7
 1683 0d24 08300BE5 		str	r3, [fp, #-8]
 364:/home/hkh/git/eapidk-code-r76-trunk/apps/EeePProg/linux/../CfgPHelper.c ****   EAPI_APP_ASSERT_PARAMATER_CHECK_S(
 1684              		.loc 1 364 3
 1685 0d28 20301BE5 		ldr	r3, [fp, #-32]
 1686 0d2c 2C2093E5 		ldr	r2, [r3, #44]
 1687 0d30 20301BE5 		ldr	r3, [fp, #-32]
 1688 0d34 283093E5 		ldr	r3, [r3, #40]
 1689 0d38 032082E0 		add	r2, r2, r3
 1690 0d3c 20301BE5 		ldr	r3, [fp, #-32]
 1691 0d40 143093E5 		ldr	r3, [r3, #20]
 1692 0d44 8331A0E1 		lsl	r3, r3, #3
 1693 0d48 030052E1 		cmp	r2, r3
 1694 0d4c 1100009A 		bls	.L83
 1695              		.loc 1 364 3 is_stmt 0 discriminator 1
 1696 0d50 40319FE5 		ldr	r3, .L88
 1697              	.LPIC57:
 1698 0d54 03308FE0 		add	r3, pc, r3
 1699 0d58 08308DE5 		str	r3, [sp, #8]
 1700 0d5c 38319FE5 		ldr	r3, .L88+4
 1701              	.LPIC58:
 1702 0d60 03308FE0 		add	r3, pc, r3
 1703 0d64 04308DE5 		str	r3, [sp, #4]
 1704 0d68 013CE0E3 		mvn	r3, #256
 1705 0d6c 00308DE5 		str	r3, [sp]
 1706 0d70 5B3FA0E3 		mov	r3, #364
 1707 0d74 24219FE5 		ldr	r2, .L88+8
 1708              	.LPIC59:
 1709 0d78 02208FE0 		add	r2, pc, r2
ARM GAS  /tmp/cc9qaG1x.s 			page 39


 1710 0d7c 20119FE5 		ldr	r1, .L88+12
 1711              	.LPIC60:
 1712 0d80 01108FE0 		add	r1, pc, r1
 1713 0d84 4500A0E3 		mov	r0, #69
 1714 0d88 FEFFFFEB 		bl	siFormattedMessage_SC(PLT)
 1715 0d8c 013CE0E3 		mvn	r3, #256
 1716 0d90 18300BE5 		str	r3, [fp, #-24]
 1717 0d94 3B0000EA 		b	.L84
 1718              	.L83:
 365:/home/hkh/git/eapidk-code-r76-trunk/apps/EeePProg/linux/../CfgPHelper.c ****                 Dealloc_Element,
 366:/home/hkh/git/eapidk-code-r76-trunk/apps/EeePProg/linux/../CfgPHelper.c ****                 EAPI_STATUS_INVALID_PARAMETER,
 367:/home/hkh/git/eapidk-code-r76-trunk/apps/EeePProg/linux/../CfgPHelper.c ****                 pElementDesc->stBitLength+ pElementDesc->stBitOffset> pElementDesc->Instances.stEle
 368:/home/hkh/git/eapidk-code-r76-trunk/apps/EeePProg/linux/../CfgPHelper.c ****         );
 369:/home/hkh/git/eapidk-code-r76-trunk/apps/EeePProg/linux/../CfgPHelper.c ****   if(stBitOffset){
 1719              		.loc 1 369 5 is_stmt 1
 1720 0d98 10301BE5 		ldr	r3, [fp, #-16]
 1721 0d9c 000053E3 		cmp	r3, #0
 1722 0da0 1500000A 		beq	.L85
 370:/home/hkh/git/eapidk-code-r76-trunk/apps/EeePProg/linux/../CfgPHelper.c ****     *(pu8CurElement+stByteOffset)=(uint8_t)(*(pu8CurElement+stByteOffset)&((1<<stBitOffset)-1));
 1723              		.loc 1 370 60
 1724 0da4 14201BE5 		ldr	r2, [fp, #-20]
 1725 0da8 1C301BE5 		ldr	r3, [fp, #-28]
 1726 0dac 033082E0 		add	r3, r2, r3
 1727              		.loc 1 370 45
 1728 0db0 0030D3E5 		ldrb	r3, [r3]	@ zero_extendqisi2
 1729 0db4 7320AFE6 		sxtb	r2, r3
 1730              		.loc 1 370 78
 1731 0db8 0110A0E3 		mov	r1, #1
 1732 0dbc 10301BE5 		ldr	r3, [fp, #-16]
 1733 0dc0 1133A0E1 		lsl	r3, r1, r3
 1734              		.loc 1 370 92
 1735 0dc4 7330EFE6 		uxtb	r3, r3
 1736 0dc8 013043E2 		sub	r3, r3, #1
 1737 0dcc 7330EFE6 		uxtb	r3, r3
 1738 0dd0 7330AFE6 		sxtb	r3, r3
 1739              		.loc 1 370 74
 1740 0dd4 023003E0 		and	r3, r3, r2
 1741 0dd8 7310AFE6 		sxtb	r1, r3
 1742              		.loc 1 370 20
 1743 0ddc 14201BE5 		ldr	r2, [fp, #-20]
 1744 0de0 1C301BE5 		ldr	r3, [fp, #-28]
 1745 0de4 033082E0 		add	r3, r2, r3
 1746              		.loc 1 370 35
 1747 0de8 7120EFE6 		uxtb	r2, r1
 1748              		.loc 1 370 34
 1749 0dec 0020C3E5 		strb	r2, [r3]
 371:/home/hkh/git/eapidk-code-r76-trunk/apps/EeePProg/linux/../CfgPHelper.c ****     ++stByteOffset;
 1750              		.loc 1 371 5
 1751 0df0 1C301BE5 		ldr	r3, [fp, #-28]
 1752 0df4 013083E2 		add	r3, r3, #1
 1753 0df8 1C300BE5 		str	r3, [fp, #-28]
 1754              	.L85:
 372:/home/hkh/git/eapidk-code-r76-trunk/apps/EeePProg/linux/../CfgPHelper.c ****   }
 373:/home/hkh/git/eapidk-code-r76-trunk/apps/EeePProg/linux/../CfgPHelper.c ****   if(stByteLen){
 1755              		.loc 1 373 5
 1756 0dfc 0C301BE5 		ldr	r3, [fp, #-12]
 1757 0e00 000053E3 		cmp	r3, #0
ARM GAS  /tmp/cc9qaG1x.s 			page 40


 1758 0e04 1E00000A 		beq	.L87
 374:/home/hkh/git/eapidk-code-r76-trunk/apps/EeePProg/linux/../CfgPHelper.c ****     memset(pu8CurElement+stByteOffset, 0x00, stByteLen);
 1759              		.loc 1 374 25
 1760 0e08 14201BE5 		ldr	r2, [fp, #-20]
 1761 0e0c 1C301BE5 		ldr	r3, [fp, #-28]
 1762 0e10 033082E0 		add	r3, r2, r3
 1763              		.loc 1 374 5
 1764 0e14 0C201BE5 		ldr	r2, [fp, #-12]
 1765 0e18 0010A0E3 		mov	r1, #0
 1766 0e1c 0300A0E1 		mov	r0, r3
 1767 0e20 FEFFFFEB 		bl	memset(PLT)
 375:/home/hkh/git/eapidk-code-r76-trunk/apps/EeePProg/linux/../CfgPHelper.c ****     stByteOffset+=stByteLen;
 1768              		.loc 1 375 17
 1769 0e24 1C201BE5 		ldr	r2, [fp, #-28]
 1770 0e28 0C301BE5 		ldr	r3, [fp, #-12]
 1771 0e2c 033082E0 		add	r3, r2, r3
 1772 0e30 1C300BE5 		str	r3, [fp, #-28]
 376:/home/hkh/git/eapidk-code-r76-trunk/apps/EeePProg/linux/../CfgPHelper.c ****     if(stBitLen){
 1773              		.loc 1 376 7
 1774 0e34 08301BE5 		ldr	r3, [fp, #-8]
 1775 0e38 000053E3 		cmp	r3, #0
 1776 0e3c 1000000A 		beq	.L87
 377:/home/hkh/git/eapidk-code-r76-trunk/apps/EeePProg/linux/../CfgPHelper.c ****       *(pu8CurElement+stByteOffset)=(uint8_t)(*(pu8CurElement+stByteOffset)&(UINT8_MAX<<stBitLen));
 1777              		.loc 1 377 62
 1778 0e40 14201BE5 		ldr	r2, [fp, #-20]
 1779 0e44 1C301BE5 		ldr	r3, [fp, #-28]
 1780 0e48 033082E0 		add	r3, r2, r3
 1781              		.loc 1 377 47
 1782 0e4c 0030D3E5 		ldrb	r3, [r3]	@ zero_extendqisi2
 1783 0e50 7320AFE6 		sxtb	r2, r3
 1784              		.loc 1 377 87
 1785 0e54 FF10A0E3 		mov	r1, #255
 1786 0e58 08301BE5 		ldr	r3, [fp, #-8]
 1787 0e5c 1133A0E1 		lsl	r3, r1, r3
 1788              		.loc 1 377 76
 1789 0e60 7330AFE6 		sxtb	r3, r3
 1790 0e64 023003E0 		and	r3, r3, r2
 1791 0e68 7310AFE6 		sxtb	r1, r3
 1792              		.loc 1 377 22
 1793 0e6c 14201BE5 		ldr	r2, [fp, #-20]
 1794 0e70 1C301BE5 		ldr	r3, [fp, #-28]
 1795 0e74 033082E0 		add	r3, r2, r3
 1796              		.loc 1 377 37
 1797 0e78 7120EFE6 		uxtb	r2, r1
 1798              		.loc 1 377 36
 1799 0e7c 0020C3E5 		strb	r2, [r3]
 1800 0e80 000000EA 		b	.L84
 1801              	.L87:
 378:/home/hkh/git/eapidk-code-r76-trunk/apps/EeePProg/linux/../CfgPHelper.c ****     }
 379:/home/hkh/git/eapidk-code-r76-trunk/apps/EeePProg/linux/../CfgPHelper.c ****   }
 380:/home/hkh/git/eapidk-code-r76-trunk/apps/EeePProg/linux/../CfgPHelper.c **** EAPI_APP_ASSERT_EXIT
 1802              		.loc 1 380 1
 1803 0e84 00F020E3 		nop
 1804              	.L84:
 381:/home/hkh/git/eapidk-code-r76-trunk/apps/EeePProg/linux/../CfgPHelper.c ****   return EAPI_STATUS_SUCCESS;
 1805              		.loc 1 381 10
 1806 0e88 0030A0E3 		mov	r3, #0
ARM GAS  /tmp/cc9qaG1x.s 			page 41


 382:/home/hkh/git/eapidk-code-r76-trunk/apps/EeePProg/linux/../CfgPHelper.c **** }
 1807              		.loc 1 382 1
 1808 0e8c 0300A0E1 		mov	r0, r3
 1809 0e90 04D04BE2 		sub	sp, fp, #4
 1810              		.cfi_def_cfa 13, 8
 1811              		@ sp needed
 1812 0e94 0088BDE8 		pop	{fp, pc}
 1813              	.L89:
 1814              		.align	2
 1815              	.L88:
 1816 0e98 BC050000 		.word	.LC32-(.LPIC57+8)
 1817 0e9c B8010000 		.word	.LC3-(.LPIC58+8)
 1818 0ea0 08050000 		.word	.LC28-(.LPIC59+8)
 1819 0ea4 20010000 		.word	.LC1-(.LPIC60+8)
 1820              		.cfi_endproc
 1821              	.LFE15:
 1823              		.section	.rodata
 1824 04de 0000     		.align	2
 1825              	.LC33:
 1826 04e0 53747269 		.ascii	"String_Element\000"
 1826      6E675F45 
 1826      6C656D65 
 1826      6E7400
 1827 04ef 00       		.align	2
 1828              	.LC34:
 1829 04f0 09537472 		.ascii	"\011String_Element = String Too Short, %s\012\000"
 1829      696E675F 
 1829      456C656D 
 1829      656E7420 
 1829      3D205374 
 1830              		.align	2
 1831              	.LC35:
 1832 0518 09537472 		.ascii	"\011String_Element = String Too Long, %s\012\000"
 1832      696E675F 
 1832      456C656D 
 1832      656E7420 
 1832      3D205374 
 1833              		.text
 1834              		.align	2
 1835              		.global	String_Element
 1836              		.syntax unified
 1837              		.arm
 1838              		.fpu vfpv3
 1840              	String_Element:
 1841              	.LFB16:
 383:/home/hkh/git/eapidk-code-r76-trunk/apps/EeePProg/linux/../CfgPHelper.c **** 
 384:/home/hkh/git/eapidk-code-r76-trunk/apps/EeePProg/linux/../CfgPHelper.c **** /*
 385:/home/hkh/git/eapidk-code-r76-trunk/apps/EeePProg/linux/../CfgPHelper.c ****  *
 386:/home/hkh/git/eapidk-code-r76-trunk/apps/EeePProg/linux/../CfgPHelper.c ****  *  Parse Functions
 387:/home/hkh/git/eapidk-code-r76-trunk/apps/EeePProg/linux/../CfgPHelper.c ****  *
 388:/home/hkh/git/eapidk-code-r76-trunk/apps/EeePProg/linux/../CfgPHelper.c ****  *
 389:/home/hkh/git/eapidk-code-r76-trunk/apps/EeePProg/linux/../CfgPHelper.c ****  */
 390:/home/hkh/git/eapidk-code-r76-trunk/apps/EeePProg/linux/../CfgPHelper.c **** EApiStatus_t
 391:/home/hkh/git/eapidk-code-r76-trunk/apps/EeePProg/linux/../CfgPHelper.c **** String_Element(
 392:/home/hkh/git/eapidk-code-r76-trunk/apps/EeePProg/linux/../CfgPHelper.c ****     struct  CfgElementDesc_s *pElementDesc, 
 393:/home/hkh/git/eapidk-code-r76-trunk/apps/EeePProg/linux/../CfgPHelper.c ****     void  *pCurElement, 
 394:/home/hkh/git/eapidk-code-r76-trunk/apps/EeePProg/linux/../CfgPHelper.c ****     char   *szValue
ARM GAS  /tmp/cc9qaG1x.s 			page 42


 395:/home/hkh/git/eapidk-code-r76-trunk/apps/EeePProg/linux/../CfgPHelper.c ****   )
 396:/home/hkh/git/eapidk-code-r76-trunk/apps/EeePProg/linux/../CfgPHelper.c **** { 
 1842              		.loc 1 396 1
 1843              		.cfi_startproc
 1844              		@ args = 0, pretend = 0, frame = 32
 1845              		@ frame_needed = 1, uses_anonymous_args = 0
 1846 0ea8 00482DE9 		push	{fp, lr}
 1847              		.cfi_def_cfa_offset 8
 1848              		.cfi_offset 11, -8
 1849              		.cfi_offset 14, -4
 1850 0eac 04B08DE2 		add	fp, sp, #4
 1851              		.cfi_def_cfa 11, 4
 1852 0eb0 30D04DE2 		sub	sp, sp, #48
 1853 0eb4 18000BE5 		str	r0, [fp, #-24]
 1854 0eb8 1C100BE5 		str	r1, [fp, #-28]
 1855 0ebc 20200BE5 		str	r2, [fp, #-32]
 397:/home/hkh/git/eapidk-code-r76-trunk/apps/EeePProg/linux/../CfgPHelper.c ****   EApiStatus_t StatusCode=EAPI_STATUS_SUCCESS;
 1856              		.loc 1 397 16
 1857 0ec0 0030A0E3 		mov	r3, #0
 1858 0ec4 10300BE5 		str	r3, [fp, #-16]
 398:/home/hkh/git/eapidk-code-r76-trunk/apps/EeePProg/linux/../CfgPHelper.c ****   StringDesc_t *pStringDesc=pElementDesc->pExtraInfo; 
 1859              		.loc 1 398 17
 1860 0ec8 18301BE5 		ldr	r3, [fp, #-24]
 1861 0ecc 343093E5 		ldr	r3, [r3, #52]
 1862 0ed0 0C300BE5 		str	r3, [fp, #-12]
 399:/home/hkh/git/eapidk-code-r76-trunk/apps/EeePProg/linux/../CfgPHelper.c ****   size_t stStrLength;
 400:/home/hkh/git/eapidk-code-r76-trunk/apps/EeePProg/linux/../CfgPHelper.c ****   EAPI_APP_ASSERT_PARAMATER_CHECK_S(
 1863              		.loc 1 400 3
 1864 0ed4 18301BE5 		ldr	r3, [fp, #-24]
 1865 0ed8 283093E5 		ldr	r3, [r3, #40]
 1866 0edc 000053E3 		cmp	r3, #0
 1867 0ee0 1100000A 		beq	.L91
 1868              		.loc 1 400 3 is_stmt 0 discriminator 1
 1869 0ee4 B8319FE5 		ldr	r3, .L99
 1870              	.LPIC61:
 1871 0ee8 03308FE0 		add	r3, pc, r3
 1872 0eec 08308DE5 		str	r3, [sp, #8]
 1873 0ef0 B0319FE5 		ldr	r3, .L99+4
 1874              	.LPIC62:
 1875 0ef4 03308FE0 		add	r3, pc, r3
 1876 0ef8 04308DE5 		str	r3, [sp, #4]
 1877 0efc 013CE0E3 		mvn	r3, #256
 1878 0f00 00308DE5 		str	r3, [sp]
 1879 0f04 193EA0E3 		mov	r3, #400
 1880 0f08 9C219FE5 		ldr	r2, .L99+8
 1881              	.LPIC63:
 1882 0f0c 02208FE0 		add	r2, pc, r2
 1883 0f10 98119FE5 		ldr	r1, .L99+12
 1884              	.LPIC64:
 1885 0f14 01108FE0 		add	r1, pc, r1
 1886 0f18 4500A0E3 		mov	r0, #69
 1887 0f1c FEFFFFEB 		bl	siFormattedMessage_SC(PLT)
 1888 0f20 013CE0E3 		mvn	r3, #256
 1889 0f24 10300BE5 		str	r3, [fp, #-16]
 1890 0f28 590000EA 		b	.L92
 1891              	.L91:
 401:/home/hkh/git/eapidk-code-r76-trunk/apps/EeePProg/linux/../CfgPHelper.c ****                 String_Element,
ARM GAS  /tmp/cc9qaG1x.s 			page 43


 402:/home/hkh/git/eapidk-code-r76-trunk/apps/EeePProg/linux/../CfgPHelper.c ****                 EAPI_STATUS_INVALID_PARAMETER,
 403:/home/hkh/git/eapidk-code-r76-trunk/apps/EeePProg/linux/../CfgPHelper.c ****                 pElementDesc->stBitOffset != 0
 404:/home/hkh/git/eapidk-code-r76-trunk/apps/EeePProg/linux/../CfgPHelper.c ****         );
 405:/home/hkh/git/eapidk-code-r76-trunk/apps/EeePProg/linux/../CfgPHelper.c ****   EAPI_APP_ASSERT_PARAMATER_CHECK_S(
 1892              		.loc 1 405 3 is_stmt 1
 1893 0f2c 18301BE5 		ldr	r3, [fp, #-24]
 1894 0f30 2C3093E5 		ldr	r3, [r3, #44]
 1895 0f34 200053E3 		cmp	r3, #32
 1896 0f38 1100000A 		beq	.L93
 1897              		.loc 1 405 3 is_stmt 0 discriminator 1
 1898 0f3c 70319FE5 		ldr	r3, .L99+16
 1899              	.LPIC65:
 1900 0f40 03308FE0 		add	r3, pc, r3
 1901 0f44 08308DE5 		str	r3, [sp, #8]
 1902 0f48 68319FE5 		ldr	r3, .L99+20
 1903              	.LPIC66:
 1904 0f4c 03308FE0 		add	r3, pc, r3
 1905 0f50 04308DE5 		str	r3, [sp, #4]
 1906 0f54 013CE0E3 		mvn	r3, #256
 1907 0f58 00308DE5 		str	r3, [sp]
 1908 0f5c 953100E3 		movw	r3, #405
 1909 0f60 54219FE5 		ldr	r2, .L99+24
 1910              	.LPIC67:
 1911 0f64 02208FE0 		add	r2, pc, r2
 1912 0f68 50119FE5 		ldr	r1, .L99+28
 1913              	.LPIC68:
 1914 0f6c 01108FE0 		add	r1, pc, r1
 1915 0f70 4500A0E3 		mov	r0, #69
 1916 0f74 FEFFFFEB 		bl	siFormattedMessage_SC(PLT)
 1917 0f78 013CE0E3 		mvn	r3, #256
 1918 0f7c 10300BE5 		str	r3, [fp, #-16]
 1919 0f80 430000EA 		b	.L92
 1920              	.L93:
 406:/home/hkh/git/eapidk-code-r76-trunk/apps/EeePProg/linux/../CfgPHelper.c ****                 String_Element,
 407:/home/hkh/git/eapidk-code-r76-trunk/apps/EeePProg/linux/../CfgPHelper.c ****                 EAPI_STATUS_INVALID_PARAMETER,
 408:/home/hkh/git/eapidk-code-r76-trunk/apps/EeePProg/linux/../CfgPHelper.c ****                 pElementDesc->stBitLength != 8*sizeof(char*)
 409:/home/hkh/git/eapidk-code-r76-trunk/apps/EeePProg/linux/../CfgPHelper.c ****         );
 410:/home/hkh/git/eapidk-code-r76-trunk/apps/EeePProg/linux/../CfgPHelper.c ****   EAPI_APP_ASSERT_PARAMATER_CHECK_S(
 1921              		.loc 1 410 3 is_stmt 1
 1922 0f84 18301BE5 		ldr	r3, [fp, #-24]
 1923 0f88 143093E5 		ldr	r3, [r3, #20]
 1924 0f8c 040053E3 		cmp	r3, #4
 1925 0f90 1100000A 		beq	.L94
 1926              		.loc 1 410 3 is_stmt 0 discriminator 1
 1927 0f94 28319FE5 		ldr	r3, .L99+32
 1928              	.LPIC69:
 1929 0f98 03308FE0 		add	r3, pc, r3
 1930 0f9c 08308DE5 		str	r3, [sp, #8]
 1931 0fa0 20319FE5 		ldr	r3, .L99+36
 1932              	.LPIC70:
 1933 0fa4 03308FE0 		add	r3, pc, r3
 1934 0fa8 04308DE5 		str	r3, [sp, #4]
 1935 0fac 013CE0E3 		mvn	r3, #256
 1936 0fb0 00308DE5 		str	r3, [sp]
 1937 0fb4 9A3100E3 		movw	r3, #410
 1938 0fb8 0C219FE5 		ldr	r2, .L99+40
 1939              	.LPIC71:
ARM GAS  /tmp/cc9qaG1x.s 			page 44


 1940 0fbc 02208FE0 		add	r2, pc, r2
 1941 0fc0 08119FE5 		ldr	r1, .L99+44
 1942              	.LPIC72:
 1943 0fc4 01108FE0 		add	r1, pc, r1
 1944 0fc8 4500A0E3 		mov	r0, #69
 1945 0fcc FEFFFFEB 		bl	siFormattedMessage_SC(PLT)
 1946 0fd0 013CE0E3 		mvn	r3, #256
 1947 0fd4 10300BE5 		str	r3, [fp, #-16]
 1948 0fd8 2D0000EA 		b	.L92
 1949              	.L94:
 411:/home/hkh/git/eapidk-code-r76-trunk/apps/EeePProg/linux/../CfgPHelper.c ****                 String_Element,
 412:/home/hkh/git/eapidk-code-r76-trunk/apps/EeePProg/linux/../CfgPHelper.c ****                 EAPI_STATUS_INVALID_PARAMETER,
 413:/home/hkh/git/eapidk-code-r76-trunk/apps/EeePProg/linux/../CfgPHelper.c ****                 pElementDesc->Instances.stElementSize != sizeof(char*)
 414:/home/hkh/git/eapidk-code-r76-trunk/apps/EeePProg/linux/../CfgPHelper.c ****         );
 415:/home/hkh/git/eapidk-code-r76-trunk/apps/EeePProg/linux/../CfgPHelper.c ****   if(pStringDesc!=NULL){
 1950              		.loc 1 415 5 is_stmt 1
 1951 0fdc 0C301BE5 		ldr	r3, [fp, #-12]
 1952 0fe0 000053E3 		cmp	r3, #0
 1953 0fe4 2400000A 		beq	.L95
 416:/home/hkh/git/eapidk-code-r76-trunk/apps/EeePProg/linux/../CfgPHelper.c ****     if(!pStringDesc->uiPreserveTrailingSpaces){
 1954              		.loc 1 416 20
 1955 0fe8 0C301BE5 		ldr	r3, [fp, #-12]
 1956 0fec 083093E5 		ldr	r3, [r3, #8]
 1957              		.loc 1 416 7
 1958 0ff0 000053E3 		cmp	r3, #0
 1959 0ff4 0100001A 		bne	.L96
 417:/home/hkh/git/eapidk-code-r76-trunk/apps/EeePProg/linux/../CfgPHelper.c ****       stripWhiteSpaces(szValue);
 1960              		.loc 1 417 7
 1961 0ff8 20001BE5 		ldr	r0, [fp, #-32]
 1962 0ffc FEFFFFEB 		bl	stripWhiteSpaces(PLT)
 1963              	.L96:
 418:/home/hkh/git/eapidk-code-r76-trunk/apps/EeePProg/linux/../CfgPHelper.c ****     }
 419:/home/hkh/git/eapidk-code-r76-trunk/apps/EeePProg/linux/../CfgPHelper.c ****     stStrLength=strlen(szValue);
 1964              		.loc 1 419 17
 1965 1000 20001BE5 		ldr	r0, [fp, #-32]
 1966 1004 FEFFFFEB 		bl	strlen(PLT)
 1967 1008 08000BE5 		str	r0, [fp, #-8]
 420:/home/hkh/git/eapidk-code-r76-trunk/apps/EeePProg/linux/../CfgPHelper.c ****     if(pStringDesc->uiMinLength){
 1968              		.loc 1 420 19
 1969 100c 0C301BE5 		ldr	r3, [fp, #-12]
 1970 1010 003093E5 		ldr	r3, [r3]
 1971              		.loc 1 420 7
 1972 1014 000053E3 		cmp	r3, #0
 1973 1018 0900000A 		beq	.L97
 421:/home/hkh/git/eapidk-code-r76-trunk/apps/EeePProg/linux/../CfgPHelper.c ****       if(pStringDesc->uiMinLength>stStrLength){
 1974              		.loc 1 421 21
 1975 101c 0C301BE5 		ldr	r3, [fp, #-12]
 1976 1020 003093E5 		ldr	r3, [r3]
 1977              		.loc 1 421 9
 1978 1024 08201BE5 		ldr	r2, [fp, #-8]
 1979 1028 030052E1 		cmp	r2, r3
 1980 102c 0400002A 		bcs	.L97
 422:/home/hkh/git/eapidk-code-r76-trunk/apps/EeePProg/linux/../CfgPHelper.c ****         printf("\tString_Element = String Too Short, %s\n", szValue);
 1981              		.loc 1 422 9
 1982 1030 20101BE5 		ldr	r1, [fp, #-32]
 1983 1034 98309FE5 		ldr	r3, .L99+48
 1984              	.LPIC73:
ARM GAS  /tmp/cc9qaG1x.s 			page 45


 1985 1038 03308FE0 		add	r3, pc, r3
 1986 103c 0300A0E1 		mov	r0, r3
 1987 1040 FEFFFFEB 		bl	printf(PLT)
 1988              	.L97:
 423:/home/hkh/git/eapidk-code-r76-trunk/apps/EeePProg/linux/../CfgPHelper.c ****       }
 424:/home/hkh/git/eapidk-code-r76-trunk/apps/EeePProg/linux/../CfgPHelper.c ****     }
 425:/home/hkh/git/eapidk-code-r76-trunk/apps/EeePProg/linux/../CfgPHelper.c ****     if(pStringDesc->uiMaxLength){
 1989              		.loc 1 425 19
 1990 1044 0C301BE5 		ldr	r3, [fp, #-12]
 1991 1048 043093E5 		ldr	r3, [r3, #4]
 1992              		.loc 1 425 7
 1993 104c 000053E3 		cmp	r3, #0
 1994 1050 0900000A 		beq	.L95
 426:/home/hkh/git/eapidk-code-r76-trunk/apps/EeePProg/linux/../CfgPHelper.c ****       if(pStringDesc->uiMaxLength<stStrLength){
 1995              		.loc 1 426 21
 1996 1054 0C301BE5 		ldr	r3, [fp, #-12]
 1997 1058 043093E5 		ldr	r3, [r3, #4]
 1998              		.loc 1 426 9
 1999 105c 08201BE5 		ldr	r2, [fp, #-8]
 2000 1060 030052E1 		cmp	r2, r3
 2001 1064 0400009A 		bls	.L95
 427:/home/hkh/git/eapidk-code-r76-trunk/apps/EeePProg/linux/../CfgPHelper.c ****         printf("\tString_Element = String Too Long, %s\n", szValue);
 2002              		.loc 1 427 9
 2003 1068 20101BE5 		ldr	r1, [fp, #-32]
 2004 106c 64309FE5 		ldr	r3, .L99+52
 2005              	.LPIC74:
 2006 1070 03308FE0 		add	r3, pc, r3
 2007 1074 0300A0E1 		mov	r0, r3
 2008 1078 FEFFFFEB 		bl	printf(PLT)
 2009              	.L95:
 428:/home/hkh/git/eapidk-code-r76-trunk/apps/EeePProg/linux/../CfgPHelper.c ****       }
 429:/home/hkh/git/eapidk-code-r76-trunk/apps/EeePProg/linux/../CfgPHelper.c ****     }
 430:/home/hkh/git/eapidk-code-r76-trunk/apps/EeePProg/linux/../CfgPHelper.c ****   }
 431:/home/hkh/git/eapidk-code-r76-trunk/apps/EeePProg/linux/../CfgPHelper.c ****   *(char **)pCurElement=EAPI_strdup(szValue);
 2010              		.loc 1 431 25
 2011 107c 20001BE5 		ldr	r0, [fp, #-32]
 2012 1080 FEFFFFEB 		bl	strdup(PLT)
 2013 1084 0030A0E1 		mov	r3, r0
 2014 1088 0320A0E1 		mov	r2, r3
 2015              		.loc 1 431 24
 2016 108c 1C301BE5 		ldr	r3, [fp, #-28]
 2017 1090 002083E5 		str	r2, [r3]
 2018              	.L92:
 432:/home/hkh/git/eapidk-code-r76-trunk/apps/EeePProg/linux/../CfgPHelper.c **** #if TEST_EEPCFG
 433:/home/hkh/git/eapidk-code-r76-trunk/apps/EeePProg/linux/../CfgPHelper.c **** /*   printf("\tString_Element = %s, %s\n", *(char**)pCurElement, szValue); */
 434:/home/hkh/git/eapidk-code-r76-trunk/apps/EeePProg/linux/../CfgPHelper.c **** #endif
 435:/home/hkh/git/eapidk-code-r76-trunk/apps/EeePProg/linux/../CfgPHelper.c **** EAPI_APP_ASSERT_EXIT
 436:/home/hkh/git/eapidk-code-r76-trunk/apps/EeePProg/linux/../CfgPHelper.c ****   return EAPI_STATUS_SUCCESS;
 2019              		.loc 1 436 10
 2020 1094 0030A0E3 		mov	r3, #0
 437:/home/hkh/git/eapidk-code-r76-trunk/apps/EeePProg/linux/../CfgPHelper.c **** }
 2021              		.loc 1 437 1
 2022 1098 0300A0E1 		mov	r0, r3
 2023 109c 04D04BE2 		sub	sp, fp, #4
 2024              		.cfi_def_cfa 13, 8
 2025              		@ sp needed
 2026 10a0 0088BDE8 		pop	{fp, pc}
ARM GAS  /tmp/cc9qaG1x.s 			page 46


 2027              	.L100:
 2028              		.align	2
 2029              	.L99:
 2030 10a4 AC050000 		.word	.LC29-(.LPIC61+8)
 2031 10a8 30020000 		.word	.LC3-(.LPIC62+8)
 2032 10ac 78060000 		.word	.LC33-(.LPIC63+8)
 2033 10b0 98010000 		.word	.LC1-(.LPIC64+8)
 2034 10b4 84050000 		.word	.LC30-(.LPIC65+8)
 2035 10b8 E8010000 		.word	.LC3-(.LPIC66+8)
 2036 10bc 30060000 		.word	.LC33-(.LPIC67+8)
 2037 10c0 50010000 		.word	.LC1-(.LPIC68+8)
 2038 10c4 6C050000 		.word	.LC31-(.LPIC69+8)
 2039 10c8 A0010000 		.word	.LC3-(.LPIC70+8)
 2040 10cc E8050000 		.word	.LC33-(.LPIC71+8)
 2041 10d0 08010000 		.word	.LC1-(.LPIC72+8)
 2042 10d4 84050000 		.word	.LC34-(.LPIC73+8)
 2043 10d8 78050000 		.word	.LC35-(.LPIC74+8)
 2044              		.cfi_endproc
 2045              	.LFE16:
 2047              		.section	.rodata
 2048 053f 00       		.align	2
 2049              	.LC36:
 2050 0540 47554944 		.ascii	"GUID_Element\000"
 2050      5F456C65 
 2050      6D656E74 
 2050      00
 2051 054d 000000   		.align	2
 2052              	.LC37:
 2053 0550 70456C65 		.ascii	"pElementDesc->Instances.stElementSize != sizeof(*pG"
 2053      6D656E74 
 2053      44657363 
 2053      2D3E496E 
 2053      7374616E 
 2054 0583 55494429 		.ascii	"UID)\000"
 2054      00
 2055              		.align	2
 2056              	.LC38:
 2057 0588 09537472 		.ascii	"\011String_Element = Invalid Format, %s\012\000"
 2057      696E675F 
 2057      456C656D 
 2057      656E7420 
 2057      3D20496E 
 2058              		.text
 2059              		.align	2
 2060              		.global	GUID_Element
 2061              		.syntax unified
 2062              		.arm
 2063              		.fpu vfpv3
 2065              	GUID_Element:
 2066              	.LFB17:
 438:/home/hkh/git/eapidk-code-r76-trunk/apps/EeePProg/linux/../CfgPHelper.c **** EApiStatus_t
 439:/home/hkh/git/eapidk-code-r76-trunk/apps/EeePProg/linux/../CfgPHelper.c **** GUID_Element(
 440:/home/hkh/git/eapidk-code-r76-trunk/apps/EeePProg/linux/../CfgPHelper.c ****     struct  CfgElementDesc_s *pElementDesc, 
 441:/home/hkh/git/eapidk-code-r76-trunk/apps/EeePProg/linux/../CfgPHelper.c ****     void    *pCurElement, 
 442:/home/hkh/git/eapidk-code-r76-trunk/apps/EeePProg/linux/../CfgPHelper.c ****     char   *szValue
 443:/home/hkh/git/eapidk-code-r76-trunk/apps/EeePProg/linux/../CfgPHelper.c ****   )
 444:/home/hkh/git/eapidk-code-r76-trunk/apps/EeePProg/linux/../CfgPHelper.c **** { 
ARM GAS  /tmp/cc9qaG1x.s 			page 47


 2067              		.loc 1 444 1
 2068              		.cfi_startproc
 2069              		@ args = 0, pretend = 0, frame = 40
 2070              		@ frame_needed = 1, uses_anonymous_args = 0
 2071 10dc 10482DE9 		push	{r4, fp, lr}
 2072              		.cfi_def_cfa_offset 12
 2073              		.cfi_offset 4, -12
 2074              		.cfi_offset 11, -8
 2075              		.cfi_offset 14, -4
 2076 10e0 08B08DE2 		add	fp, sp, #8
 2077              		.cfi_def_cfa 11, 4
 2078 10e4 3CD04DE2 		sub	sp, sp, #60
 2079 10e8 28000BE5 		str	r0, [fp, #-40]
 2080 10ec 2C100BE5 		str	r1, [fp, #-44]
 2081 10f0 30200BE5 		str	r2, [fp, #-48]
 2082              		.loc 1 444 1
 2083 10f4 30239FE5 		ldr	r2, .L114
 2084              	.LPIC84:
 2085 10f8 02208FE0 		add	r2, pc, r2
 2086 10fc 2C339FE5 		ldr	r3, .L114+4
 2087 1100 033092E7 		ldr	r3, [r2, r3]
 2088 1104 003093E5 		ldr	r3, [r3]
 2089 1108 10300BE5 		str	r3, [fp, #-16]
 2090 110c 0030A0E3 		mov	r3, #0
 445:/home/hkh/git/eapidk-code-r76-trunk/apps/EeePProg/linux/../CfgPHelper.c ****   EApiStatus_t StatusCode=EAPI_STATUS_SUCCESS;
 2091              		.loc 1 445 16
 2092 1110 0030A0E3 		mov	r3, #0
 2093 1114 20300BE5 		str	r3, [fp, #-32]
 446:/home/hkh/git/eapidk-code-r76-trunk/apps/EeePProg/linux/../CfgPHelper.c ****   unsigned int i;
 447:/home/hkh/git/eapidk-code-r76-trunk/apps/EeePProg/linux/../CfgPHelper.c ****   char    *szEnd;
 448:/home/hkh/git/eapidk-code-r76-trunk/apps/EeePProg/linux/../CfgPHelper.c ****   char     Short[3];
 449:/home/hkh/git/eapidk-code-r76-trunk/apps/EeePProg/linux/../CfgPHelper.c ****   EeePGUID_t *pGUID=pCurElement;
 2094              		.loc 1 449 15
 2095 1118 2C301BE5 		ldr	r3, [fp, #-44]
 2096 111c 18300BE5 		str	r3, [fp, #-24]
 450:/home/hkh/git/eapidk-code-r76-trunk/apps/EeePProg/linux/../CfgPHelper.c ****   EAPI_APP_ASSERT_PARAMATER_CHECK_S(
 2097              		.loc 1 450 3
 2098 1120 28301BE5 		ldr	r3, [fp, #-40]
 2099 1124 283093E5 		ldr	r3, [r3, #40]
 2100 1128 000053E3 		cmp	r3, #0
 2101 112c 1100000A 		beq	.L102
 2102              		.loc 1 450 3 is_stmt 0 discriminator 1
 2103 1130 FC329FE5 		ldr	r3, .L114+8
 2104              	.LPIC75:
 2105 1134 03308FE0 		add	r3, pc, r3
 2106 1138 08308DE5 		str	r3, [sp, #8]
 2107 113c F4329FE5 		ldr	r3, .L114+12
 2108              	.LPIC76:
 2109 1140 03308FE0 		add	r3, pc, r3
 2110 1144 04308DE5 		str	r3, [sp, #4]
 2111 1148 013CE0E3 		mvn	r3, #256
 2112 114c 00308DE5 		str	r3, [sp]
 2113 1150 C23100E3 		movw	r3, #450
 2114 1154 E0229FE5 		ldr	r2, .L114+16
 2115              	.LPIC77:
 2116 1158 02208FE0 		add	r2, pc, r2
 2117 115c DC129FE5 		ldr	r1, .L114+20
ARM GAS  /tmp/cc9qaG1x.s 			page 48


 2118              	.LPIC78:
 2119 1160 01108FE0 		add	r1, pc, r1
 2120 1164 4500A0E3 		mov	r0, #69
 2121 1168 FEFFFFEB 		bl	siFormattedMessage_SC(PLT)
 2122 116c 013CE0E3 		mvn	r3, #256
 2123 1170 20300BE5 		str	r3, [fp, #-32]
 2124 1174 9E0000EA 		b	.L103
 2125              	.L102:
 451:/home/hkh/git/eapidk-code-r76-trunk/apps/EeePProg/linux/../CfgPHelper.c ****                 GUID_Element,
 452:/home/hkh/git/eapidk-code-r76-trunk/apps/EeePProg/linux/../CfgPHelper.c ****                 EAPI_STATUS_INVALID_PARAMETER,
 453:/home/hkh/git/eapidk-code-r76-trunk/apps/EeePProg/linux/../CfgPHelper.c ****                 pElementDesc->stBitOffset != 0
 454:/home/hkh/git/eapidk-code-r76-trunk/apps/EeePProg/linux/../CfgPHelper.c ****         );
 455:/home/hkh/git/eapidk-code-r76-trunk/apps/EeePProg/linux/../CfgPHelper.c ****   EAPI_APP_ASSERT_PARAMATER_CHECK_S(
 2126              		.loc 1 455 3 is_stmt 1
 2127 1178 28301BE5 		ldr	r3, [fp, #-40]
 2128 117c 143093E5 		ldr	r3, [r3, #20]
 2129 1180 100053E3 		cmp	r3, #16
 2130 1184 1100000A 		beq	.L104
 2131              		.loc 1 455 3 is_stmt 0 discriminator 1
 2132 1188 B4329FE5 		ldr	r3, .L114+24
 2133              	.LPIC79:
 2134 118c 03308FE0 		add	r3, pc, r3
 2135 1190 08308DE5 		str	r3, [sp, #8]
 2136 1194 AC329FE5 		ldr	r3, .L114+28
 2137              	.LPIC80:
 2138 1198 03308FE0 		add	r3, pc, r3
 2139 119c 04308DE5 		str	r3, [sp, #4]
 2140 11a0 013CE0E3 		mvn	r3, #256
 2141 11a4 00308DE5 		str	r3, [sp]
 2142 11a8 C73100E3 		movw	r3, #455
 2143 11ac 98229FE5 		ldr	r2, .L114+32
 2144              	.LPIC81:
 2145 11b0 02208FE0 		add	r2, pc, r2
 2146 11b4 94129FE5 		ldr	r1, .L114+36
 2147              	.LPIC82:
 2148 11b8 01108FE0 		add	r1, pc, r1
 2149 11bc 4500A0E3 		mov	r0, #69
 2150 11c0 FEFFFFEB 		bl	siFormattedMessage_SC(PLT)
 2151 11c4 013CE0E3 		mvn	r3, #256
 2152 11c8 20300BE5 		str	r3, [fp, #-32]
 2153 11cc 880000EA 		b	.L103
 2154              	.L104:
 456:/home/hkh/git/eapidk-code-r76-trunk/apps/EeePProg/linux/../CfgPHelper.c ****                 GUID_Element,
 457:/home/hkh/git/eapidk-code-r76-trunk/apps/EeePProg/linux/../CfgPHelper.c ****                 EAPI_STATUS_INVALID_PARAMETER,
 458:/home/hkh/git/eapidk-code-r76-trunk/apps/EeePProg/linux/../CfgPHelper.c ****                 pElementDesc->Instances.stElementSize != sizeof(*pGUID)
 459:/home/hkh/git/eapidk-code-r76-trunk/apps/EeePProg/linux/../CfgPHelper.c ****         );
 460:/home/hkh/git/eapidk-code-r76-trunk/apps/EeePProg/linux/../CfgPHelper.c ****   szValue=skipWhiteSpaces(szValue);
 2155              		.loc 1 460 11 is_stmt 1
 2156 11d0 30001BE5 		ldr	r0, [fp, #-48]
 2157 11d4 FEFFFFEB 		bl	skipWhiteSpaces(PLT)
 2158 11d8 30000BE5 		str	r0, [fp, #-48]
 461:/home/hkh/git/eapidk-code-r76-trunk/apps/EeePProg/linux/../CfgPHelper.c ****   stripWhiteSpaces(szValue);
 2159              		.loc 1 461 3
 2160 11dc 30001BE5 		ldr	r0, [fp, #-48]
 2161 11e0 FEFFFFEB 		bl	stripWhiteSpaces(PLT)
 462:/home/hkh/git/eapidk-code-r76-trunk/apps/EeePProg/linux/../CfgPHelper.c ****   /*0000000000111111111122222222223333333333
 463:/home/hkh/git/eapidk-code-r76-trunk/apps/EeePProg/linux/../CfgPHelper.c ****    *0123456789012345678901234567890123456789
ARM GAS  /tmp/cc9qaG1x.s 			page 49


 464:/home/hkh/git/eapidk-code-r76-trunk/apps/EeePProg/linux/../CfgPHelper.c ****    *F9168C5E-CEB2-4faa-B6BF-329BF39FA1E4
 465:/home/hkh/git/eapidk-code-r76-trunk/apps/EeePProg/linux/../CfgPHelper.c ****    */
 466:/home/hkh/git/eapidk-code-r76-trunk/apps/EeePProg/linux/../CfgPHelper.c ****   if( szValue[ 8]!='-'||
 2162              		.loc 1 466 14
 2163 11e4 30301BE5 		ldr	r3, [fp, #-48]
 2164 11e8 083083E2 		add	r3, r3, #8
 2165 11ec 0030D3E5 		ldrb	r3, [r3]	@ zero_extendqisi2
 2166              		.loc 1 466 5
 2167 11f0 2D0053E3 		cmp	r3, #45
 2168 11f4 1300001A 		bne	.L105
 467:/home/hkh/git/eapidk-code-r76-trunk/apps/EeePProg/linux/../CfgPHelper.c ****       szValue[13]!='-'||
 2169              		.loc 1 467 14 discriminator 1
 2170 11f8 30301BE5 		ldr	r3, [fp, #-48]
 2171 11fc 0D3083E2 		add	r3, r3, #13
 2172 1200 0030D3E5 		ldrb	r3, [r3]	@ zero_extendqisi2
 466:/home/hkh/git/eapidk-code-r76-trunk/apps/EeePProg/linux/../CfgPHelper.c ****       szValue[13]!='-'||
 2173              		.loc 1 466 23 discriminator 1
 2174 1204 2D0053E3 		cmp	r3, #45
 2175 1208 0E00001A 		bne	.L105
 468:/home/hkh/git/eapidk-code-r76-trunk/apps/EeePProg/linux/../CfgPHelper.c ****       szValue[18]!='-'||
 2176              		.loc 1 468 14
 2177 120c 30301BE5 		ldr	r3, [fp, #-48]
 2178 1210 123083E2 		add	r3, r3, #18
 2179 1214 0030D3E5 		ldrb	r3, [r3]	@ zero_extendqisi2
 467:/home/hkh/git/eapidk-code-r76-trunk/apps/EeePProg/linux/../CfgPHelper.c ****       szValue[13]!='-'||
 2180              		.loc 1 467 23
 2181 1218 2D0053E3 		cmp	r3, #45
 2182 121c 0900001A 		bne	.L105
 469:/home/hkh/git/eapidk-code-r76-trunk/apps/EeePProg/linux/../CfgPHelper.c ****       szValue[23]!='-'||
 2183              		.loc 1 469 14
 2184 1220 30301BE5 		ldr	r3, [fp, #-48]
 2185 1224 173083E2 		add	r3, r3, #23
 2186 1228 0030D3E5 		ldrb	r3, [r3]	@ zero_extendqisi2
 468:/home/hkh/git/eapidk-code-r76-trunk/apps/EeePProg/linux/../CfgPHelper.c ****       szValue[18]!='-'||
 2187              		.loc 1 468 23
 2188 122c 2D0053E3 		cmp	r3, #45
 2189 1230 0400001A 		bne	.L105
 470:/home/hkh/git/eapidk-code-r76-trunk/apps/EeePProg/linux/../CfgPHelper.c ****       szValue[36]!='\0'
 2190              		.loc 1 470 14
 2191 1234 30301BE5 		ldr	r3, [fp, #-48]
 2192 1238 243083E2 		add	r3, r3, #36
 2193 123c 0030D3E5 		ldrb	r3, [r3]	@ zero_extendqisi2
 469:/home/hkh/git/eapidk-code-r76-trunk/apps/EeePProg/linux/../CfgPHelper.c ****       szValue[23]!='-'||
 2194              		.loc 1 469 23
 2195 1240 000053E3 		cmp	r3, #0
 2196 1244 0600000A 		beq	.L106
 2197              	.L105:
 471:/home/hkh/git/eapidk-code-r76-trunk/apps/EeePProg/linux/../CfgPHelper.c ****     )
 472:/home/hkh/git/eapidk-code-r76-trunk/apps/EeePProg/linux/../CfgPHelper.c ****   {
 473:/home/hkh/git/eapidk-code-r76-trunk/apps/EeePProg/linux/../CfgPHelper.c ****     printf("\tString_Element = Invalid Format, %s\n", szValue);
 2198              		.loc 1 473 5
 2199 1248 30101BE5 		ldr	r1, [fp, #-48]
 2200 124c 00329FE5 		ldr	r3, .L114+40
 2201              	.LPIC83:
 2202 1250 03308FE0 		add	r3, pc, r3
 2203 1254 0300A0E1 		mov	r0, r3
 2204 1258 FEFFFFEB 		bl	printf(PLT)
ARM GAS  /tmp/cc9qaG1x.s 			page 50


 474:/home/hkh/git/eapidk-code-r76-trunk/apps/EeePProg/linux/../CfgPHelper.c ****     return EAPI_STATUS_ERROR;
 2205              		.loc 1 474 12
 2206 125c 0F3CE0E3 		mvn	r3, #3840
 2207 1260 640000EA 		b	.L112
 2208              	.L106:
 475:/home/hkh/git/eapidk-code-r76-trunk/apps/EeePProg/linux/../CfgPHelper.c ****   }
 476:/home/hkh/git/eapidk-code-r76-trunk/apps/EeePProg/linux/../CfgPHelper.c ****   EeeP_Set32BitValue_BE(pGUID->a.b, strtoul(szValue+0, &szEnd, 16));
 2209              		.loc 1 476 33
 2210 1264 18401BE5 		ldr	r4, [fp, #-24]
 2211              		.loc 1 476 37
 2212 1268 24304BE2 		sub	r3, fp, #36
 2213 126c 1020A0E3 		mov	r2, #16
 2214 1270 0310A0E1 		mov	r1, r3
 2215 1274 30001BE5 		ldr	r0, [fp, #-48]
 2216 1278 FEFFFFEB 		bl	strtoul(PLT)
 2217 127c 0030A0E1 		mov	r3, r0
 2218              		.loc 1 476 3
 2219 1280 0310A0E1 		mov	r1, r3
 2220 1284 0400A0E1 		mov	r0, r4
 2221 1288 FEFFFFEB 		bl	EeeP_Set32BitValue_BE(PLT)
 477:/home/hkh/git/eapidk-code-r76-trunk/apps/EeePProg/linux/../CfgPHelper.c ****   EeeP_Set16BitValue_BE(pGUID->b[0].b, (uint16_t)strtoul(szValue+ 9, &szEnd, 16));
 2222              		.loc 1 477 36
 2223 128c 18301BE5 		ldr	r3, [fp, #-24]
 2224 1290 044083E2 		add	r4, r3, #4
 2225              		.loc 1 477 65
 2226 1294 30301BE5 		ldr	r3, [fp, #-48]
 2227 1298 093083E2 		add	r3, r3, #9
 2228              		.loc 1 477 50
 2229 129c 24104BE2 		sub	r1, fp, #36
 2230 12a0 1020A0E3 		mov	r2, #16
 2231 12a4 0300A0E1 		mov	r0, r3
 2232 12a8 FEFFFFEB 		bl	strtoul(PLT)
 2233 12ac 0030A0E1 		mov	r3, r0
 2234              		.loc 1 477 3
 2235 12b0 7330FFE6 		uxth	r3, r3
 2236 12b4 0310A0E1 		mov	r1, r3
 2237 12b8 0400A0E1 		mov	r0, r4
 2238 12bc FEFFFFEB 		bl	EeeP_Set16BitValue_BE(PLT)
 478:/home/hkh/git/eapidk-code-r76-trunk/apps/EeePProg/linux/../CfgPHelper.c ****   EeeP_Set16BitValue_BE(pGUID->b[1].b, (uint16_t)strtoul(szValue+14, &szEnd, 16));
 2239              		.loc 1 478 36
 2240 12c0 18301BE5 		ldr	r3, [fp, #-24]
 2241 12c4 064083E2 		add	r4, r3, #6
 2242              		.loc 1 478 65
 2243 12c8 30301BE5 		ldr	r3, [fp, #-48]
 2244 12cc 0E3083E2 		add	r3, r3, #14
 2245              		.loc 1 478 50
 2246 12d0 24104BE2 		sub	r1, fp, #36
 2247 12d4 1020A0E3 		mov	r2, #16
 2248 12d8 0300A0E1 		mov	r0, r3
 2249 12dc FEFFFFEB 		bl	strtoul(PLT)
 2250 12e0 0030A0E1 		mov	r3, r0
 2251              		.loc 1 478 3
 2252 12e4 7330FFE6 		uxth	r3, r3
 2253 12e8 0310A0E1 		mov	r1, r3
 2254 12ec 0400A0E1 		mov	r0, r4
 2255 12f0 FEFFFFEB 		bl	EeeP_Set16BitValue_BE(PLT)
 479:/home/hkh/git/eapidk-code-r76-trunk/apps/EeePProg/linux/../CfgPHelper.c ****   for(i=19;i<22;i+=2){
ARM GAS  /tmp/cc9qaG1x.s 			page 51


 2256              		.loc 1 479 8
 2257 12f4 1330A0E3 		mov	r3, #19
 2258 12f8 1C300BE5 		str	r3, [fp, #-28]
 2259              		.loc 1 479 3
 2260 12fc 180000EA 		b	.L108
 2261              	.L109:
 480:/home/hkh/git/eapidk-code-r76-trunk/apps/EeePProg/linux/../CfgPHelper.c ****     memcpy(Short, szValue+i, 2);
 2262              		.loc 1 480 26 discriminator 3
 2263 1300 30201BE5 		ldr	r2, [fp, #-48]
 2264 1304 1C301BE5 		ldr	r3, [fp, #-28]
 2265 1308 033082E0 		add	r3, r2, r3
 2266 130c B030D3E1 		ldrh	r3, [r3]	@ unaligned
 2267 1310 7330FFE6 		uxth	r3, r3
 2268              		.loc 1 480 5 discriminator 3
 2269 1314 B4314BE1 		strh	r3, [fp, #-20]	@ movhi
 481:/home/hkh/git/eapidk-code-r76-trunk/apps/EeePProg/linux/../CfgPHelper.c ****     Short[2]='\0';
 2270              		.loc 1 481 13 discriminator 3
 2271 1318 0030A0E3 		mov	r3, #0
 2272 131c 12304BE5 		strb	r3, [fp, #-18]
 482:/home/hkh/git/eapidk-code-r76-trunk/apps/EeePProg/linux/../CfgPHelper.c ****     pGUID->c[0 + ((i - 19)/2)]=(uint8_t)strtoul(Short, &szEnd, 16);
 2273              		.loc 1 482 41 discriminator 3
 2274 1320 24104BE2 		sub	r1, fp, #36
 2275 1324 14304BE2 		sub	r3, fp, #20
 2276 1328 1020A0E3 		mov	r2, #16
 2277 132c 0300A0E1 		mov	r0, r3
 2278 1330 FEFFFFEB 		bl	strtoul(PLT)
 2279 1334 0020A0E1 		mov	r2, r0
 2280              		.loc 1 482 22 discriminator 3
 2281 1338 1C301BE5 		ldr	r3, [fp, #-28]
 2282 133c 133043E2 		sub	r3, r3, #19
 2283              		.loc 1 482 16 discriminator 3
 2284 1340 A330A0E1 		lsr	r3, r3, #1
 2285              		.loc 1 482 32 discriminator 3
 2286 1344 7210EFE6 		uxtb	r1, r2
 2287              		.loc 1 482 31 discriminator 3
 2288 1348 18201BE5 		ldr	r2, [fp, #-24]
 2289 134c 033082E0 		add	r3, r2, r3
 2290 1350 0120A0E1 		mov	r2, r1
 2291 1354 0820C3E5 		strb	r2, [r3, #8]
 479:/home/hkh/git/eapidk-code-r76-trunk/apps/EeePProg/linux/../CfgPHelper.c ****     memcpy(Short, szValue+i, 2);
 2292              		.loc 1 479 18 discriminator 3
 2293 1358 1C301BE5 		ldr	r3, [fp, #-28]
 2294 135c 023083E2 		add	r3, r3, #2
 2295 1360 1C300BE5 		str	r3, [fp, #-28]
 2296              	.L108:
 479:/home/hkh/git/eapidk-code-r76-trunk/apps/EeePProg/linux/../CfgPHelper.c ****     memcpy(Short, szValue+i, 2);
 2297              		.loc 1 479 13 discriminator 1
 2298 1364 1C301BE5 		ldr	r3, [fp, #-28]
 2299 1368 150053E3 		cmp	r3, #21
 2300 136c E3FFFF9A 		bls	.L109
 483:/home/hkh/git/eapidk-code-r76-trunk/apps/EeePProg/linux/../CfgPHelper.c ****   }
 484:/home/hkh/git/eapidk-code-r76-trunk/apps/EeePProg/linux/../CfgPHelper.c ****   for(i=24;i<35;i+=2){
 2301              		.loc 1 484 8
 2302 1370 1830A0E3 		mov	r3, #24
 2303 1374 1C300BE5 		str	r3, [fp, #-28]
 2304              		.loc 1 484 3
 2305 1378 190000EA 		b	.L110
ARM GAS  /tmp/cc9qaG1x.s 			page 52


 2306              	.L111:
 485:/home/hkh/git/eapidk-code-r76-trunk/apps/EeePProg/linux/../CfgPHelper.c ****     memcpy(Short, szValue+i, 2);
 2307              		.loc 1 485 26 discriminator 3
 2308 137c 30201BE5 		ldr	r2, [fp, #-48]
 2309 1380 1C301BE5 		ldr	r3, [fp, #-28]
 2310 1384 033082E0 		add	r3, r2, r3
 2311 1388 B030D3E1 		ldrh	r3, [r3]	@ unaligned
 2312 138c 7330FFE6 		uxth	r3, r3
 2313              		.loc 1 485 5 discriminator 3
 2314 1390 B4314BE1 		strh	r3, [fp, #-20]	@ movhi
 486:/home/hkh/git/eapidk-code-r76-trunk/apps/EeePProg/linux/../CfgPHelper.c ****     Short[2]='\0';
 2315              		.loc 1 486 13 discriminator 3
 2316 1394 0030A0E3 		mov	r3, #0
 2317 1398 12304BE5 		strb	r3, [fp, #-18]
 487:/home/hkh/git/eapidk-code-r76-trunk/apps/EeePProg/linux/../CfgPHelper.c ****     pGUID->c[2 + ((i - 24)/2)]=(uint8_t)strtoul(Short, &szEnd, 16);
 2318              		.loc 1 487 41 discriminator 3
 2319 139c 24104BE2 		sub	r1, fp, #36
 2320 13a0 14304BE2 		sub	r3, fp, #20
 2321 13a4 1020A0E3 		mov	r2, #16
 2322 13a8 0300A0E1 		mov	r0, r3
 2323 13ac FEFFFFEB 		bl	strtoul(PLT)
 2324 13b0 0020A0E1 		mov	r2, r0
 2325              		.loc 1 487 22 discriminator 3
 2326 13b4 1C301BE5 		ldr	r3, [fp, #-28]
 2327 13b8 183043E2 		sub	r3, r3, #24
 2328              		.loc 1 487 27 discriminator 3
 2329 13bc A330A0E1 		lsr	r3, r3, #1
 2330              		.loc 1 487 16 discriminator 3
 2331 13c0 023083E2 		add	r3, r3, #2
 2332              		.loc 1 487 32 discriminator 3
 2333 13c4 7210EFE6 		uxtb	r1, r2
 2334              		.loc 1 487 31 discriminator 3
 2335 13c8 18201BE5 		ldr	r2, [fp, #-24]
 2336 13cc 033082E0 		add	r3, r2, r3
 2337 13d0 0120A0E1 		mov	r2, r1
 2338 13d4 0820C3E5 		strb	r2, [r3, #8]
 484:/home/hkh/git/eapidk-code-r76-trunk/apps/EeePProg/linux/../CfgPHelper.c ****     memcpy(Short, szValue+i, 2);
 2339              		.loc 1 484 18 discriminator 3
 2340 13d8 1C301BE5 		ldr	r3, [fp, #-28]
 2341 13dc 023083E2 		add	r3, r3, #2
 2342 13e0 1C300BE5 		str	r3, [fp, #-28]
 2343              	.L110:
 484:/home/hkh/git/eapidk-code-r76-trunk/apps/EeePProg/linux/../CfgPHelper.c ****     memcpy(Short, szValue+i, 2);
 2344              		.loc 1 484 13 discriminator 1
 2345 13e4 1C301BE5 		ldr	r3, [fp, #-28]
 2346 13e8 220053E3 		cmp	r3, #34
 2347 13ec E2FFFF9A 		bls	.L111
 488:/home/hkh/git/eapidk-code-r76-trunk/apps/EeePProg/linux/../CfgPHelper.c ****   }
 489:/home/hkh/git/eapidk-code-r76-trunk/apps/EeePProg/linux/../CfgPHelper.c **** #if TEST_EEPCFG
 490:/home/hkh/git/eapidk-code-r76-trunk/apps/EeePProg/linux/../CfgPHelper.c **** /*   printf("\tGUID_Element = "); */
 491:/home/hkh/git/eapidk-code-r76-trunk/apps/EeePProg/linux/../CfgPHelper.c **** /*   PrintHexAsciiTableEx( */
 492:/home/hkh/git/eapidk-code-r76-trunk/apps/EeePProg/linux/../CfgPHelper.c **** /*       pCurElement,  */
 493:/home/hkh/git/eapidk-code-r76-trunk/apps/EeePProg/linux/../CfgPHelper.c **** /*       16,  */
 494:/home/hkh/git/eapidk-code-r76-trunk/apps/EeePProg/linux/../CfgPHelper.c **** /*       pCurElement,  */
 495:/home/hkh/git/eapidk-code-r76-trunk/apps/EeePProg/linux/../CfgPHelper.c **** /*       NULL, */
 496:/home/hkh/git/eapidk-code-r76-trunk/apps/EeePProg/linux/../CfgPHelper.c **** /*       HEXTBL_8BIT_ELEMENT|16 */
 497:/home/hkh/git/eapidk-code-r76-trunk/apps/EeePProg/linux/../CfgPHelper.c **** /*     ); */
ARM GAS  /tmp/cc9qaG1x.s 			page 53


 498:/home/hkh/git/eapidk-code-r76-trunk/apps/EeePProg/linux/../CfgPHelper.c **** #endif
 499:/home/hkh/git/eapidk-code-r76-trunk/apps/EeePProg/linux/../CfgPHelper.c ****  
 500:/home/hkh/git/eapidk-code-r76-trunk/apps/EeePProg/linux/../CfgPHelper.c **** EAPI_APP_ASSERT_EXIT
 2348              		.loc 1 500 1
 2349 13f0 00F020E3 		nop
 2350              	.L103:
 501:/home/hkh/git/eapidk-code-r76-trunk/apps/EeePProg/linux/../CfgPHelper.c ****   return StatusCode;
 2351              		.loc 1 501 10
 2352 13f4 20301BE5 		ldr	r3, [fp, #-32]
 2353              	.L112:
 444:/home/hkh/git/eapidk-code-r76-trunk/apps/EeePProg/linux/../CfgPHelper.c ****   EApiStatus_t StatusCode=EAPI_STATUS_SUCCESS;
 2354              		.loc 1 444 1 discriminator 1
 2355 13f8 58109FE5 		ldr	r1, .L114+44
 2356              	.LPIC85:
 2357 13fc 01108FE0 		add	r1, pc, r1
 502:/home/hkh/git/eapidk-code-r76-trunk/apps/EeePProg/linux/../CfgPHelper.c **** }
 2358              		.loc 1 502 1 discriminator 1
 2359 1400 28209FE5 		ldr	r2, .L114+4
 2360 1404 022091E7 		ldr	r2, [r1, r2]
 2361 1408 001092E5 		ldr	r1, [r2]
 2362 140c 10201BE5 		ldr	r2, [fp, #-16]
 2363 1410 011032E0 		eors	r1, r2, r1
 2364 1414 0020A0E3 		mov	r2, #0
 2365 1418 0000000A 		beq	.L113
 2366              		.loc 1 502 1 is_stmt 0
 2367 141c FEFFFFEB 		bl	__stack_chk_fail(PLT)
 2368              	.L113:
 2369 1420 0300A0E1 		mov	r0, r3
 2370 1424 08D04BE2 		sub	sp, fp, #8
 2371              		.cfi_def_cfa 13, 12
 2372              		@ sp needed
 2373 1428 1088BDE8 		pop	{r4, fp, pc}
 2374              	.L115:
 2375              		.align	2
 2376              	.L114:
 2377 142c 2C030000 		.word	_GLOBAL_OFFSET_TABLE_-(.LPIC84+8)
 2378 1430 00000000 		.word	__stack_chk_guard(GOT)
 2379 1434 F0060000 		.word	.LC29-(.LPIC75+8)
 2380 1438 74030000 		.word	.LC3-(.LPIC76+8)
 2381 143c 1C080000 		.word	.LC36-(.LPIC77+8)
 2382 1440 DC020000 		.word	.LC1-(.LPIC78+8)
 2383 1444 00080000 		.word	.LC37-(.LPIC79+8)
 2384 1448 2C030000 		.word	.LC3-(.LPIC80+8)
 2385 144c D4070000 		.word	.LC36-(.LPIC81+8)
 2386 1450 94020000 		.word	.LC1-(.LPIC82+8)
 2387 1454 84070000 		.word	.LC38-(.LPIC83+8)
 2388 1458 54000000 		.word	_GLOBAL_OFFSET_TABLE_-(.LPIC85+8)
 2389              		.cfi_endproc
 2390              	.LFE17:
 2392              		.section	.rodata
 2393 05ae 0000     		.align	2
 2394              	.LC39:
 2395 05b0 50617273 		.ascii	"ParseAsciiEqu(szValue, &sllValue)\000"
 2395      65417363 
 2395      69694571 
 2395      7528737A 
 2395      56616C75 
ARM GAS  /tmp/cc9qaG1x.s 			page 54


 2396 05d2 0000     		.align	2
 2397              	.LC40:
 2398 05d4 094E756D 		.ascii	"\011Number_Element = Outside Range, %s\012\000"
 2398      6265725F 
 2398      456C656D 
 2398      656E7420 
 2398      3D204F75 
 2399 05f9 000000   		.align	2
 2400              	.LC41:
 2401 05fc 41737369 		.ascii	"AssignValue_VAB( sllValue, pCurElement, (signed int"
 2401      676E5661 
 2401      6C75655F 
 2401      56414228 
 2401      20736C6C 
 2402 062f 2970456C 		.ascii	")pElementDesc->stBitOffset , (signed int)pElementDe"
 2402      656D656E 
 2402      74446573 
 2402      632D3E73 
 2402      74426974 
 2403 0662 73632D3E 		.ascii	"sc->stBitLength , (signed int)pElementDesc->Instanc"
 2403      73744269 
 2403      744C656E 
 2403      67746820 
 2403      2C202873 
 2404 0695 65732E73 		.ascii	"es.stElementSize )\000"
 2404      74456C65 
 2404      6D656E74 
 2404      53697A65 
 2404      202900
 2405              		.text
 2406              		.align	2
 2407              		.global	Number_Element
 2408              		.syntax unified
 2409              		.arm
 2410              		.fpu vfpv3
 2412              	Number_Element:
 2413              	.LFB18:
 503:/home/hkh/git/eapidk-code-r76-trunk/apps/EeePProg/linux/../CfgPHelper.c **** EApiStatus_t
 504:/home/hkh/git/eapidk-code-r76-trunk/apps/EeePProg/linux/../CfgPHelper.c **** Number_Element(
 505:/home/hkh/git/eapidk-code-r76-trunk/apps/EeePProg/linux/../CfgPHelper.c ****     struct  CfgElementDesc_s *pElementDesc, 
 506:/home/hkh/git/eapidk-code-r76-trunk/apps/EeePProg/linux/../CfgPHelper.c ****     void *pCurElement,
 507:/home/hkh/git/eapidk-code-r76-trunk/apps/EeePProg/linux/../CfgPHelper.c ****     char   *szValue
 508:/home/hkh/git/eapidk-code-r76-trunk/apps/EeePProg/linux/../CfgPHelper.c ****   )
 509:/home/hkh/git/eapidk-code-r76-trunk/apps/EeePProg/linux/../CfgPHelper.c **** { 
 2414              		.loc 1 509 1 is_stmt 1
 2415              		.cfi_startproc
 2416              		@ args = 0, pretend = 0, frame = 40
 2417              		@ frame_needed = 1, uses_anonymous_args = 0
 2418 145c 00482DE9 		push	{fp, lr}
 2419              		.cfi_def_cfa_offset 8
 2420              		.cfi_offset 11, -8
 2421              		.cfi_offset 14, -4
 2422 1460 04B08DE2 		add	fp, sp, #4
 2423              		.cfi_def_cfa 11, 4
 2424 1464 38D04DE2 		sub	sp, sp, #56
 2425 1468 20000BE5 		str	r0, [fp, #-32]
 2426 146c 24100BE5 		str	r1, [fp, #-36]
ARM GAS  /tmp/cc9qaG1x.s 			page 55


 2427 1470 28200BE5 		str	r2, [fp, #-40]
 2428              		.loc 1 509 1
 2429 1474 90219FE5 		ldr	r2, .L124
 2430              	.LPIC95:
 2431 1478 02208FE0 		add	r2, pc, r2
 2432 147c 8C319FE5 		ldr	r3, .L124+4
 2433 1480 033092E7 		ldr	r3, [r2, r3]
 2434 1484 003093E5 		ldr	r3, [r3]
 2435 1488 08300BE5 		str	r3, [fp, #-8]
 2436 148c 0030A0E3 		mov	r3, #0
 510:/home/hkh/git/eapidk-code-r76-trunk/apps/EeePProg/linux/../CfgPHelper.c ****   EApiStatus_t StatusCode=EAPI_STATUS_SUCCESS;
 2437              		.loc 1 510 16
 2438 1490 0030A0E3 		mov	r3, #0
 2439 1494 18300BE5 		str	r3, [fp, #-24]
 511:/home/hkh/git/eapidk-code-r76-trunk/apps/EeePProg/linux/../CfgPHelper.c ****   signed long long sllValue;
 512:/home/hkh/git/eapidk-code-r76-trunk/apps/EeePProg/linux/../CfgPHelper.c ****   
 513:/home/hkh/git/eapidk-code-r76-trunk/apps/EeePProg/linux/../CfgPHelper.c ****   DO(ParseAsciiEqu(szValue, &sllValue));
 2440              		.loc 1 513 3
 2441 1498 14304BE2 		sub	r3, fp, #20
 2442 149c 0310A0E1 		mov	r1, r3
 2443 14a0 28001BE5 		ldr	r0, [fp, #-40]
 2444 14a4 FEFFFFEB 		bl	ParseAsciiEqu(PLT)
 2445 14a8 18000BE5 		str	r0, [fp, #-24]
 2446 14ac 18301BE5 		ldr	r3, [fp, #-24]
 2447 14b0 000053E3 		cmp	r3, #0
 2448 14b4 0F00000A 		beq	.L117
 2449              		.loc 1 513 3 is_stmt 0 discriminator 1
 2450 14b8 54319FE5 		ldr	r3, .L124+8
 2451              	.LPIC86:
 2452 14bc 03308FE0 		add	r3, pc, r3
 2453 14c0 08308DE5 		str	r3, [sp, #8]
 2454 14c4 4C319FE5 		ldr	r3, .L124+12
 2455              	.LPIC87:
 2456 14c8 03308FE0 		add	r3, pc, r3
 2457 14cc 04308DE5 		str	r3, [sp, #4]
 2458 14d0 18301BE5 		ldr	r3, [fp, #-24]
 2459 14d4 00308DE5 		str	r3, [sp]
 2460 14d8 013200E3 		movw	r3, #513
 2461 14dc 38219FE5 		ldr	r2, .L124+16
 2462              	.LPIC88:
 2463 14e0 02208FE0 		add	r2, pc, r2
 2464 14e4 34119FE5 		ldr	r1, .L124+20
 2465              	.LPIC89:
 2466 14e8 01108FE0 		add	r1, pc, r1
 2467 14ec 4500A0E3 		mov	r0, #69
 2468 14f0 FEFFFFEB 		bl	siFormattedMessage_SC(PLT)
 2469 14f4 360000EA 		b	.L118
 2470              	.L117:
 514:/home/hkh/git/eapidk-code-r76-trunk/apps/EeePProg/linux/../CfgPHelper.c ****   if(pElementDesc->pExtraInfo!=NULL){
 2471              		.loc 1 514 18 is_stmt 1
 2472 14f8 20301BE5 		ldr	r3, [fp, #-32]
 2473 14fc 343093E5 		ldr	r3, [r3, #52]
 2474              		.loc 1 514 5
 2475 1500 000053E3 		cmp	r3, #0
 2476 1504 0600000A 		beq	.L119
 515:/home/hkh/git/eapidk-code-r76-trunk/apps/EeePProg/linux/../CfgPHelper.c ****     StatusCode=RangeCheckAny(
 516:/home/hkh/git/eapidk-code-r76-trunk/apps/EeePProg/linux/../CfgPHelper.c ****         ((NumberRangeDesc_t*)pElementDesc->pExtraInfo), 
ARM GAS  /tmp/cc9qaG1x.s 			page 56


 2477              		.loc 1 516 42
 2478 1508 20301BE5 		ldr	r3, [fp, #-32]
 2479 150c 340093E5 		ldr	r0, [r3, #52]
 515:/home/hkh/git/eapidk-code-r76-trunk/apps/EeePProg/linux/../CfgPHelper.c ****     StatusCode=RangeCheckAny(
 2480              		.loc 1 515 16
 2481 1510 D4214BE1 		ldrd	r2, [fp, #-20]
 2482 1514 0230A0E1 		mov	r3, r2
 2483 1518 0310A0E1 		mov	r1, r3
 2484 151c FEFFFFEB 		bl	RangeCheckAny(PLT)
 2485 1520 18000BE5 		str	r0, [fp, #-24]
 2486              	.L119:
 517:/home/hkh/git/eapidk-code-r76-trunk/apps/EeePProg/linux/../CfgPHelper.c ****         (unsigned long)sllValue
 518:/home/hkh/git/eapidk-code-r76-trunk/apps/EeePProg/linux/../CfgPHelper.c ****       );
 519:/home/hkh/git/eapidk-code-r76-trunk/apps/EeePProg/linux/../CfgPHelper.c ****   }
 520:/home/hkh/git/eapidk-code-r76-trunk/apps/EeePProg/linux/../CfgPHelper.c ****   if(!EAPI_TEST_SUCCESS(StatusCode)){
 2487              		.loc 1 520 5
 2488 1524 18301BE5 		ldr	r3, [fp, #-24]
 2489 1528 000053E3 		cmp	r3, #0
 2490 152c 0500000A 		beq	.L120
 521:/home/hkh/git/eapidk-code-r76-trunk/apps/EeePProg/linux/../CfgPHelper.c ****     printf("\tNumber_Element = Outside Range, %s\n", szValue);
 2491              		.loc 1 521 5
 2492 1530 28101BE5 		ldr	r1, [fp, #-40]
 2493 1534 E8309FE5 		ldr	r3, .L124+24
 2494              	.LPIC90:
 2495 1538 03308FE0 		add	r3, pc, r3
 2496 153c 0300A0E1 		mov	r0, r3
 2497 1540 FEFFFFEB 		bl	printf(PLT)
 2498 1544 220000EA 		b	.L118
 2499              	.L120:
 522:/home/hkh/git/eapidk-code-r76-trunk/apps/EeePProg/linux/../CfgPHelper.c ****   }else{
 523:/home/hkh/git/eapidk-code-r76-trunk/apps/EeePProg/linux/../CfgPHelper.c **** /*     printf("\tNumber_Element = 0x%04lX, %s\n", *(unsigned long*)pCurElement, szValue); */
 524:/home/hkh/git/eapidk-code-r76-trunk/apps/EeePProg/linux/../CfgPHelper.c ****   	DO(AssignValue_VAB(
 2500              		.loc 1 524 4
 2501 1548 D4014BE1 		ldrd	r0, [fp, #-20]
 2502 154c 20301BE5 		ldr	r3, [fp, #-32]
 2503 1550 283093E5 		ldr	r3, [r3, #40]
 2504 1554 03C0A0E1 		mov	ip, r3
 2505 1558 20301BE5 		ldr	r3, [fp, #-32]
 2506 155c 2C3093E5 		ldr	r3, [r3, #44]
 2507 1560 0320A0E1 		mov	r2, r3
 2508 1564 20301BE5 		ldr	r3, [fp, #-32]
 2509 1568 143093E5 		ldr	r3, [r3, #20]
 2510 156c 04308DE5 		str	r3, [sp, #4]
 2511 1570 00208DE5 		str	r2, [sp]
 2512 1574 0C30A0E1 		mov	r3, ip
 2513 1578 24201BE5 		ldr	r2, [fp, #-36]
 2514 157c FEFFFFEB 		bl	AssignValue_VAB(PLT)
 2515 1580 18000BE5 		str	r0, [fp, #-24]
 2516 1584 18301BE5 		ldr	r3, [fp, #-24]
 2517 1588 000053E3 		cmp	r3, #0
 2518 158c 0F00000A 		beq	.L123
 2519              		.loc 1 524 4 is_stmt 0 discriminator 1
 2520 1590 90309FE5 		ldr	r3, .L124+28
 2521              	.LPIC91:
 2522 1594 03308FE0 		add	r3, pc, r3
 2523 1598 08308DE5 		str	r3, [sp, #8]
 2524 159c 88309FE5 		ldr	r3, .L124+32
ARM GAS  /tmp/cc9qaG1x.s 			page 57


 2525              	.LPIC92:
 2526 15a0 03308FE0 		add	r3, pc, r3
 2527 15a4 04308DE5 		str	r3, [sp, #4]
 2528 15a8 18301BE5 		ldr	r3, [fp, #-24]
 2529 15ac 00308DE5 		str	r3, [sp]
 2530 15b0 833FA0E3 		mov	r3, #524
 2531 15b4 74209FE5 		ldr	r2, .L124+36
 2532              	.LPIC93:
 2533 15b8 02208FE0 		add	r2, pc, r2
 2534 15bc 70109FE5 		ldr	r1, .L124+40
 2535              	.LPIC94:
 2536 15c0 01108FE0 		add	r1, pc, r1
 2537 15c4 4500A0E3 		mov	r0, #69
 2538 15c8 FEFFFFEB 		bl	siFormattedMessage_SC(PLT)
 2539 15cc 000000EA 		b	.L118
 2540              	.L123:
 525:/home/hkh/git/eapidk-code-r76-trunk/apps/EeePProg/linux/../CfgPHelper.c ****             sllValue, 
 526:/home/hkh/git/eapidk-code-r76-trunk/apps/EeePProg/linux/../CfgPHelper.c ****             pCurElement, 
 527:/home/hkh/git/eapidk-code-r76-trunk/apps/EeePProg/linux/../CfgPHelper.c ****             (signed int)pElementDesc->stBitOffset  ,
 528:/home/hkh/git/eapidk-code-r76-trunk/apps/EeePProg/linux/../CfgPHelper.c ****             (signed int)pElementDesc->stBitLength     , 
 529:/home/hkh/git/eapidk-code-r76-trunk/apps/EeePProg/linux/../CfgPHelper.c ****             (signed int)pElementDesc->Instances.stElementSize
 530:/home/hkh/git/eapidk-code-r76-trunk/apps/EeePProg/linux/../CfgPHelper.c ****           ));
 531:/home/hkh/git/eapidk-code-r76-trunk/apps/EeePProg/linux/../CfgPHelper.c ****   }
 532:/home/hkh/git/eapidk-code-r76-trunk/apps/EeePProg/linux/../CfgPHelper.c **** 
 533:/home/hkh/git/eapidk-code-r76-trunk/apps/EeePProg/linux/../CfgPHelper.c ****   
 534:/home/hkh/git/eapidk-code-r76-trunk/apps/EeePProg/linux/../CfgPHelper.c **** EAPI_APP_ASSERT_EXIT
 2541              		.loc 1 534 1 is_stmt 1
 2542 15d0 00F020E3 		nop
 2543              	.L118:
 535:/home/hkh/git/eapidk-code-r76-trunk/apps/EeePProg/linux/../CfgPHelper.c ****   return StatusCode;
 2544              		.loc 1 535 10
 2545 15d4 18301BE5 		ldr	r3, [fp, #-24]
 509:/home/hkh/git/eapidk-code-r76-trunk/apps/EeePProg/linux/../CfgPHelper.c ****   EApiStatus_t StatusCode=EAPI_STATUS_SUCCESS;
 2546              		.loc 1 509 1
 2547 15d8 58109FE5 		ldr	r1, .L124+44
 2548              	.LPIC96:
 2549 15dc 01108FE0 		add	r1, pc, r1
 536:/home/hkh/git/eapidk-code-r76-trunk/apps/EeePProg/linux/../CfgPHelper.c **** }
 2550              		.loc 1 536 1
 2551 15e0 28209FE5 		ldr	r2, .L124+4
 2552 15e4 022091E7 		ldr	r2, [r1, r2]
 2553 15e8 001092E5 		ldr	r1, [r2]
 2554 15ec 08201BE5 		ldr	r2, [fp, #-8]
 2555 15f0 011032E0 		eors	r1, r2, r1
 2556 15f4 0020A0E3 		mov	r2, #0
 2557 15f8 0000000A 		beq	.L122
 2558 15fc FEFFFFEB 		bl	__stack_chk_fail(PLT)
 2559              	.L122:
 2560 1600 0300A0E1 		mov	r0, r3
 2561 1604 04D04BE2 		sub	sp, fp, #4
 2562              		.cfi_def_cfa 13, 8
 2563              		@ sp needed
 2564 1608 0088BDE8 		pop	{fp, pc}
 2565              	.L125:
 2566              		.align	2
 2567              	.L124:
 2568 160c 8C010000 		.word	_GLOBAL_OFFSET_TABLE_-(.LPIC95+8)
ARM GAS  /tmp/cc9qaG1x.s 			page 58


 2569 1610 00000000 		.word	__stack_chk_guard(GOT)
 2570 1614 00070000 		.word	.LC39-(.LPIC86+8)
 2571 1618 CC010000 		.word	.LC3-(.LPIC87+8)
 2572 161c 34010000 		.word	.LC0-(.LPIC88+8)
 2573 1620 34010000 		.word	.LC1-(.LPIC89+8)
 2574 1624 B8060000 		.word	.LC40-(.LPIC90+8)
 2575 1628 88060000 		.word	.LC41-(.LPIC91+8)
 2576 162c 08010000 		.word	.LC3-(.LPIC92+8)
 2577 1630 70000000 		.word	.LC0-(.LPIC93+8)
 2578 1634 70000000 		.word	.LC1-(.LPIC94+8)
 2579 1638 54000000 		.word	_GLOBAL_OFFSET_TABLE_-(.LPIC96+8)
 2580              		.cfi_endproc
 2581              	.LFE18:
 2583              		.section	.rodata
 2584              		.align	2
 2585              	.LC42:
 2586 06a8 42595445 		.ascii	"BYTES\000"
 2586      5300
 2587 06ae 0000     		.align	2
 2588              	.LC43:
 2589 06b0 00       		.ascii	"\000"
 2590 06b1 000000   		.align	2
 2591              	.LC44:
 2592 06b4 4B4200   		.ascii	"KB\000"
 2593 06b7 00       		.align	2
 2594              	.LC45:
 2595 06b8 2A283130 		.ascii	"*(1024 BYTES)\000"
 2595      32342042 
 2595      59544553 
 2595      2900
 2596 06c6 0000     		.align	2
 2597              	.LC46:
 2598 06c8 4D4200   		.ascii	"MB\000"
 2599 06cb 00       		.align	2
 2600              	.LC47:
 2601 06cc 2A283130 		.ascii	"*(1024 KB)\000"
 2601      3234204B 
 2601      422900
 2602 06d7 00       		.align	2
 2603              	.LC48:
 2604 06d8 474200   		.ascii	"GB\000"
 2605 06db 00       		.align	2
 2606              	.LC49:
 2607 06dc 2A283130 		.ascii	"*(1024 MB)\000"
 2607      3234204D 
 2607      422900
 2608              		.section	.data.rel.local
 2609              		.align	2
 2612              	SizeMacros:
 2613 0098 A8060000 		.word	.LC42
 2614 009c B0060000 		.word	.LC43
 2615 00a0 B4060000 		.word	.LC44
 2616 00a4 B8060000 		.word	.LC45
 2617 00a8 C8060000 		.word	.LC46
 2618 00ac CC060000 		.word	.LC47
 2619 00b0 D8060000 		.word	.LC48
 2620 00b4 DC060000 		.word	.LC49
ARM GAS  /tmp/cc9qaG1x.s 			page 59


 2621              		.align	2
 2624              	SizeMacroDesc:
 2625 00b8 98000000 		.word	SizeMacros
 2626 00bc 04000000 		.word	4
 2627              		.section	.rodata
 2628 06e7 00       		.align	2
 2629              	.LC50:
 2630 06e8 50617273 		.ascii	"ParseAsciiEquEx(szValue, &SizeMacroDesc, &sllValue)"
 2630      65417363 
 2630      69694571 
 2630      75457828 
 2630      737A5661 
 2631 071b 00       		.ascii	"\000"
 2632              		.text
 2633              		.align	2
 2634              		.global	Size_Element
 2635              		.syntax unified
 2636              		.arm
 2637              		.fpu vfpv3
 2639              	Size_Element:
 2640              	.LFB19:
 537:/home/hkh/git/eapidk-code-r76-trunk/apps/EeePProg/linux/../CfgPHelper.c **** static MacroItem_t SizeMacros[]={
 538:/home/hkh/git/eapidk-code-r76-trunk/apps/EeePProg/linux/../CfgPHelper.c ****   {"BYTES", ""          },
 539:/home/hkh/git/eapidk-code-r76-trunk/apps/EeePProg/linux/../CfgPHelper.c ****   {"KB"   , "*(1024 BYTES)"},
 540:/home/hkh/git/eapidk-code-r76-trunk/apps/EeePProg/linux/../CfgPHelper.c ****   {"MB"   , "*(1024 KB)"},
 541:/home/hkh/git/eapidk-code-r76-trunk/apps/EeePProg/linux/../CfgPHelper.c ****   {"GB"   , "*(1024 MB)"},
 542:/home/hkh/git/eapidk-code-r76-trunk/apps/EeePProg/linux/../CfgPHelper.c **** };
 543:/home/hkh/git/eapidk-code-r76-trunk/apps/EeePProg/linux/../CfgPHelper.c **** static MacroList_t SizeMacroDesc={SizeMacros, ARRAY_SIZE(SizeMacros)};
 544:/home/hkh/git/eapidk-code-r76-trunk/apps/EeePProg/linux/../CfgPHelper.c **** 
 545:/home/hkh/git/eapidk-code-r76-trunk/apps/EeePProg/linux/../CfgPHelper.c **** EApiStatus_t
 546:/home/hkh/git/eapidk-code-r76-trunk/apps/EeePProg/linux/../CfgPHelper.c **** Size_Element(
 547:/home/hkh/git/eapidk-code-r76-trunk/apps/EeePProg/linux/../CfgPHelper.c ****     struct  CfgElementDesc_s *pElementDesc, 
 548:/home/hkh/git/eapidk-code-r76-trunk/apps/EeePProg/linux/../CfgPHelper.c ****     void *pCurElement,
 549:/home/hkh/git/eapidk-code-r76-trunk/apps/EeePProg/linux/../CfgPHelper.c ****     char   *szValue
 550:/home/hkh/git/eapidk-code-r76-trunk/apps/EeePProg/linux/../CfgPHelper.c ****   )
 551:/home/hkh/git/eapidk-code-r76-trunk/apps/EeePProg/linux/../CfgPHelper.c **** { 
 2641              		.loc 1 551 1
 2642              		.cfi_startproc
 2643              		@ args = 0, pretend = 0, frame = 40
 2644              		@ frame_needed = 1, uses_anonymous_args = 0
 2645 163c 00482DE9 		push	{fp, lr}
 2646              		.cfi_def_cfa_offset 8
 2647              		.cfi_offset 11, -8
 2648              		.cfi_offset 14, -4
 2649 1640 04B08DE2 		add	fp, sp, #4
 2650              		.cfi_def_cfa 11, 4
 2651 1644 38D04DE2 		sub	sp, sp, #56
 2652 1648 20000BE5 		str	r0, [fp, #-32]
 2653 164c 24100BE5 		str	r1, [fp, #-36]
 2654 1650 28200BE5 		str	r2, [fp, #-40]
 2655              		.loc 1 551 1
 2656 1654 9C219FE5 		ldr	r2, .L134
 2657              	.LPIC107:
 2658 1658 02208FE0 		add	r2, pc, r2
 2659 165c 98319FE5 		ldr	r3, .L134+4
 2660 1660 033092E7 		ldr	r3, [r2, r3]
 2661 1664 003093E5 		ldr	r3, [r3]
ARM GAS  /tmp/cc9qaG1x.s 			page 60


 2662 1668 08300BE5 		str	r3, [fp, #-8]
 2663 166c 0030A0E3 		mov	r3, #0
 552:/home/hkh/git/eapidk-code-r76-trunk/apps/EeePProg/linux/../CfgPHelper.c ****   EApiStatus_t StatusCode=EAPI_STATUS_SUCCESS;
 2664              		.loc 1 552 16
 2665 1670 0030A0E3 		mov	r3, #0
 2666 1674 18300BE5 		str	r3, [fp, #-24]
 553:/home/hkh/git/eapidk-code-r76-trunk/apps/EeePProg/linux/../CfgPHelper.c ****   signed long long sllValue;
 554:/home/hkh/git/eapidk-code-r76-trunk/apps/EeePProg/linux/../CfgPHelper.c ****   
 555:/home/hkh/git/eapidk-code-r76-trunk/apps/EeePProg/linux/../CfgPHelper.c ****   DO(ParseAsciiEquEx(szValue, &SizeMacroDesc, &sllValue));
 2667              		.loc 1 555 3
 2668 1678 14304BE2 		sub	r3, fp, #20
 2669 167c 0320A0E1 		mov	r2, r3
 2670 1680 78319FE5 		ldr	r3, .L134+8
 2671              	.LPIC97:
 2672 1684 03308FE0 		add	r3, pc, r3
 2673 1688 0310A0E1 		mov	r1, r3
 2674 168c 28001BE5 		ldr	r0, [fp, #-40]
 2675 1690 FEFFFFEB 		bl	ParseAsciiEquEx(PLT)
 2676 1694 18000BE5 		str	r0, [fp, #-24]
 2677 1698 18301BE5 		ldr	r3, [fp, #-24]
 2678 169c 000053E3 		cmp	r3, #0
 2679 16a0 0F00000A 		beq	.L127
 2680              		.loc 1 555 3 is_stmt 0 discriminator 1
 2681 16a4 58319FE5 		ldr	r3, .L134+12
 2682              	.LPIC98:
 2683 16a8 03308FE0 		add	r3, pc, r3
 2684 16ac 08308DE5 		str	r3, [sp, #8]
 2685 16b0 50319FE5 		ldr	r3, .L134+16
 2686              	.LPIC99:
 2687 16b4 03308FE0 		add	r3, pc, r3
 2688 16b8 04308DE5 		str	r3, [sp, #4]
 2689 16bc 18301BE5 		ldr	r3, [fp, #-24]
 2690 16c0 00308DE5 		str	r3, [sp]
 2691 16c4 2B3200E3 		movw	r3, #555
 2692 16c8 3C219FE5 		ldr	r2, .L134+20
 2693              	.LPIC100:
 2694 16cc 02208FE0 		add	r2, pc, r2
 2695 16d0 38119FE5 		ldr	r1, .L134+24
 2696              	.LPIC101:
 2697 16d4 01108FE0 		add	r1, pc, r1
 2698 16d8 4500A0E3 		mov	r0, #69
 2699 16dc FEFFFFEB 		bl	siFormattedMessage_SC(PLT)
 2700 16e0 360000EA 		b	.L128
 2701              	.L127:
 556:/home/hkh/git/eapidk-code-r76-trunk/apps/EeePProg/linux/../CfgPHelper.c ****   if(pElementDesc->pExtraInfo!=NULL){
 2702              		.loc 1 556 18 is_stmt 1
 2703 16e4 20301BE5 		ldr	r3, [fp, #-32]
 2704 16e8 343093E5 		ldr	r3, [r3, #52]
 2705              		.loc 1 556 5
 2706 16ec 000053E3 		cmp	r3, #0
 2707 16f0 0600000A 		beq	.L129
 557:/home/hkh/git/eapidk-code-r76-trunk/apps/EeePProg/linux/../CfgPHelper.c ****     StatusCode=RangeCheckAny(
 558:/home/hkh/git/eapidk-code-r76-trunk/apps/EeePProg/linux/../CfgPHelper.c ****         ((NumberRangeDesc_t*)pElementDesc->pExtraInfo), 
 2708              		.loc 1 558 42
 2709 16f4 20301BE5 		ldr	r3, [fp, #-32]
 2710 16f8 340093E5 		ldr	r0, [r3, #52]
 557:/home/hkh/git/eapidk-code-r76-trunk/apps/EeePProg/linux/../CfgPHelper.c ****     StatusCode=RangeCheckAny(
ARM GAS  /tmp/cc9qaG1x.s 			page 61


 2711              		.loc 1 557 16
 2712 16fc D4214BE1 		ldrd	r2, [fp, #-20]
 2713 1700 0230A0E1 		mov	r3, r2
 2714 1704 0310A0E1 		mov	r1, r3
 2715 1708 FEFFFFEB 		bl	RangeCheckAny(PLT)
 2716 170c 18000BE5 		str	r0, [fp, #-24]
 2717              	.L129:
 559:/home/hkh/git/eapidk-code-r76-trunk/apps/EeePProg/linux/../CfgPHelper.c ****         (unsigned long)sllValue
 560:/home/hkh/git/eapidk-code-r76-trunk/apps/EeePProg/linux/../CfgPHelper.c ****       );
 561:/home/hkh/git/eapidk-code-r76-trunk/apps/EeePProg/linux/../CfgPHelper.c ****   }
 562:/home/hkh/git/eapidk-code-r76-trunk/apps/EeePProg/linux/../CfgPHelper.c **** 
 563:/home/hkh/git/eapidk-code-r76-trunk/apps/EeePProg/linux/../CfgPHelper.c ****   if(!EAPI_TEST_SUCCESS(StatusCode)){
 2718              		.loc 1 563 5
 2719 1710 18301BE5 		ldr	r3, [fp, #-24]
 2720 1714 000053E3 		cmp	r3, #0
 2721 1718 0500000A 		beq	.L130
 564:/home/hkh/git/eapidk-code-r76-trunk/apps/EeePProg/linux/../CfgPHelper.c ****     printf("\tNumber_Element = Outside Range, %s\n", szValue);
 2722              		.loc 1 564 5
 2723 171c 28101BE5 		ldr	r1, [fp, #-40]
 2724 1720 EC309FE5 		ldr	r3, .L134+28
 2725              	.LPIC102:
 2726 1724 03308FE0 		add	r3, pc, r3
 2727 1728 0300A0E1 		mov	r0, r3
 2728 172c FEFFFFEB 		bl	printf(PLT)
 2729 1730 220000EA 		b	.L128
 2730              	.L130:
 565:/home/hkh/git/eapidk-code-r76-trunk/apps/EeePProg/linux/../CfgPHelper.c ****   }else{
 566:/home/hkh/git/eapidk-code-r76-trunk/apps/EeePProg/linux/../CfgPHelper.c **** /*     printf("\tNumber_Element = 0x%04lX, %s\n", *(unsigned long*)pCurElement, szValue); */
 567:/home/hkh/git/eapidk-code-r76-trunk/apps/EeePProg/linux/../CfgPHelper.c ****   	DO(AssignValue_VAB(
 2731              		.loc 1 567 4
 2732 1734 D4014BE1 		ldrd	r0, [fp, #-20]
 2733 1738 20301BE5 		ldr	r3, [fp, #-32]
 2734 173c 283093E5 		ldr	r3, [r3, #40]
 2735 1740 03C0A0E1 		mov	ip, r3
 2736 1744 20301BE5 		ldr	r3, [fp, #-32]
 2737 1748 2C3093E5 		ldr	r3, [r3, #44]
 2738 174c 0320A0E1 		mov	r2, r3
 2739 1750 20301BE5 		ldr	r3, [fp, #-32]
 2740 1754 143093E5 		ldr	r3, [r3, #20]
 2741 1758 04308DE5 		str	r3, [sp, #4]
 2742 175c 00208DE5 		str	r2, [sp]
 2743 1760 0C30A0E1 		mov	r3, ip
 2744 1764 24201BE5 		ldr	r2, [fp, #-36]
 2745 1768 FEFFFFEB 		bl	AssignValue_VAB(PLT)
 2746 176c 18000BE5 		str	r0, [fp, #-24]
 2747 1770 18301BE5 		ldr	r3, [fp, #-24]
 2748 1774 000053E3 		cmp	r3, #0
 2749 1778 0F00000A 		beq	.L133
 2750              		.loc 1 567 4 is_stmt 0 discriminator 1
 2751 177c 94309FE5 		ldr	r3, .L134+32
 2752              	.LPIC103:
 2753 1780 03308FE0 		add	r3, pc, r3
 2754 1784 08308DE5 		str	r3, [sp, #8]
 2755 1788 8C309FE5 		ldr	r3, .L134+36
 2756              	.LPIC104:
 2757 178c 03308FE0 		add	r3, pc, r3
 2758 1790 04308DE5 		str	r3, [sp, #4]
ARM GAS  /tmp/cc9qaG1x.s 			page 62


 2759 1794 18301BE5 		ldr	r3, [fp, #-24]
 2760 1798 00308DE5 		str	r3, [sp]
 2761 179c 373200E3 		movw	r3, #567
 2762 17a0 78209FE5 		ldr	r2, .L134+40
 2763              	.LPIC105:
 2764 17a4 02208FE0 		add	r2, pc, r2
 2765 17a8 74109FE5 		ldr	r1, .L134+44
 2766              	.LPIC106:
 2767 17ac 01108FE0 		add	r1, pc, r1
 2768 17b0 4500A0E3 		mov	r0, #69
 2769 17b4 FEFFFFEB 		bl	siFormattedMessage_SC(PLT)
 2770 17b8 000000EA 		b	.L128
 2771              	.L133:
 568:/home/hkh/git/eapidk-code-r76-trunk/apps/EeePProg/linux/../CfgPHelper.c ****             sllValue, 
 569:/home/hkh/git/eapidk-code-r76-trunk/apps/EeePProg/linux/../CfgPHelper.c ****             pCurElement, 
 570:/home/hkh/git/eapidk-code-r76-trunk/apps/EeePProg/linux/../CfgPHelper.c ****             (signed int)pElementDesc->stBitOffset  ,
 571:/home/hkh/git/eapidk-code-r76-trunk/apps/EeePProg/linux/../CfgPHelper.c ****             (signed int)pElementDesc->stBitLength     , 
 572:/home/hkh/git/eapidk-code-r76-trunk/apps/EeePProg/linux/../CfgPHelper.c ****             (signed int)pElementDesc->Instances.stElementSize
 573:/home/hkh/git/eapidk-code-r76-trunk/apps/EeePProg/linux/../CfgPHelper.c ****           ));
 574:/home/hkh/git/eapidk-code-r76-trunk/apps/EeePProg/linux/../CfgPHelper.c ****   }
 575:/home/hkh/git/eapidk-code-r76-trunk/apps/EeePProg/linux/../CfgPHelper.c **** 
 576:/home/hkh/git/eapidk-code-r76-trunk/apps/EeePProg/linux/../CfgPHelper.c ****   
 577:/home/hkh/git/eapidk-code-r76-trunk/apps/EeePProg/linux/../CfgPHelper.c **** EAPI_APP_ASSERT_EXIT
 2772              		.loc 1 577 1 is_stmt 1
 2773 17bc 00F020E3 		nop
 2774              	.L128:
 578:/home/hkh/git/eapidk-code-r76-trunk/apps/EeePProg/linux/../CfgPHelper.c ****   return StatusCode;
 2775              		.loc 1 578 10
 2776 17c0 18301BE5 		ldr	r3, [fp, #-24]
 551:/home/hkh/git/eapidk-code-r76-trunk/apps/EeePProg/linux/../CfgPHelper.c ****   EApiStatus_t StatusCode=EAPI_STATUS_SUCCESS;
 2777              		.loc 1 551 1
 2778 17c4 5C109FE5 		ldr	r1, .L134+48
 2779              	.LPIC108:
 2780 17c8 01108FE0 		add	r1, pc, r1
 579:/home/hkh/git/eapidk-code-r76-trunk/apps/EeePProg/linux/../CfgPHelper.c **** }
 2781              		.loc 1 579 1
 2782 17cc 28209FE5 		ldr	r2, .L134+4
 2783 17d0 022091E7 		ldr	r2, [r1, r2]
 2784 17d4 001092E5 		ldr	r1, [r2]
 2785 17d8 08201BE5 		ldr	r2, [fp, #-8]
 2786 17dc 011032E0 		eors	r1, r2, r1
 2787 17e0 0020A0E3 		mov	r2, #0
 2788 17e4 0000000A 		beq	.L132
 2789 17e8 FEFFFFEB 		bl	__stack_chk_fail(PLT)
 2790              	.L132:
 2791 17ec 0300A0E1 		mov	r0, r3
 2792 17f0 04D04BE2 		sub	sp, fp, #4
 2793              		.cfi_def_cfa 13, 8
 2794              		@ sp needed
 2795 17f4 0088BDE8 		pop	{fp, pc}
 2796              	.L135:
 2797              		.align	2
 2798              	.L134:
 2799 17f8 98010000 		.word	_GLOBAL_OFFSET_TABLE_-(.LPIC107+8)
 2800 17fc 00000000 		.word	__stack_chk_guard(GOT)
 2801 1800 2C020000 		.word	SizeMacroDesc-(.LPIC97+8)
 2802 1804 3C080000 		.word	.LC50-(.LPIC98+8)
ARM GAS  /tmp/cc9qaG1x.s 			page 63


 2803 1808 D0010000 		.word	.LC3-(.LPIC99+8)
 2804 180c 38010000 		.word	.LC0-(.LPIC100+8)
 2805 1810 38010000 		.word	.LC1-(.LPIC101+8)
 2806 1814 BC060000 		.word	.LC40-(.LPIC102+8)
 2807 1818 8C060000 		.word	.LC41-(.LPIC103+8)
 2808 181c 0C010000 		.word	.LC3-(.LPIC104+8)
 2809 1820 74000000 		.word	.LC0-(.LPIC105+8)
 2810 1824 74000000 		.word	.LC1-(.LPIC106+8)
 2811 1828 58000000 		.word	_GLOBAL_OFFSET_TABLE_-(.LPIC108+8)
 2812              		.cfi_endproc
 2813              	.LFE19:
 2815              		.section	.rodata
 2816              		.align	2
 2817              	.LC51:
 2818 071c 4932435F 		.ascii	"I2C_EEPROM_Addr\000"
 2818      45455052 
 2818      4F4D5F41 
 2818      64647200 
 2819              		.align	2
 2820              	.LC52:
 2821 072c 70456C65 		.ascii	"pElementDesc->Instances.stElementSize < sizeof(uint"
 2821      6D656E74 
 2821      44657363 
 2821      2D3E496E 
 2821      7374616E 
 2822 075f 31365F74 		.ascii	"16_t)\000"
 2822      2900
 2823 0765 000000   		.align	2
 2824              	.LC53:
 2825 0768 70456C65 		.ascii	"pElementDesc->stBitLength < 8*sizeof(uint16_t)\000"
 2825      6D656E74 
 2825      44657363 
 2825      2D3E7374 
 2825      4269744C 
 2826 0797 00       		.align	2
 2827              	.LC54:
 2828 0798 41737369 		.ascii	"AssignValue_VAB( ulDeviceAddress, pCurElement, (sig"
 2828      676E5661 
 2828      6C75655F 
 2828      56414228 
 2828      20756C44 
 2829 07cb 6E656420 		.ascii	"ned int)pElementDesc->stBitOffset , (signed int)pEl"
 2829      696E7429 
 2829      70456C65 
 2829      6D656E74 
 2829      44657363 
 2830 07fe 656D656E 		.ascii	"ementDesc->stBitLength , (signed int)pElementDesc->"
 2830      74446573 
 2830      632D3E73 
 2830      74426974 
 2830      4C656E67 
 2831 0831 496E7374 		.ascii	"Instances.stElementSize )\000"
 2831      616E6365 
 2831      732E7374 
 2831      456C656D 
 2831      656E7453 
 2832 084b 00       		.align	2
ARM GAS  /tmp/cc9qaG1x.s 			page 64


 2833              	.LC55:
 2834 084c 09493243 		.ascii	"\011I2C_EEPROM_Addr = Invalid Address 0x%02lX, %s\012"
 2834      5F454550 
 2834      524F4D5F 
 2834      41646472 
 2834      203D2049 
 2835 087b 00       		.ascii	"\000"
 2836              		.text
 2837              		.align	2
 2838              		.global	I2C_EEPROM_Addr
 2839              		.syntax unified
 2840              		.arm
 2841              		.fpu vfpv3
 2843              	I2C_EEPROM_Addr:
 2844              	.LFB20:
 580:/home/hkh/git/eapidk-code-r76-trunk/apps/EeePProg/linux/../CfgPHelper.c **** 
 581:/home/hkh/git/eapidk-code-r76-trunk/apps/EeePProg/linux/../CfgPHelper.c **** EApiStatus_t
 582:/home/hkh/git/eapidk-code-r76-trunk/apps/EeePProg/linux/../CfgPHelper.c **** I2C_EEPROM_Addr(
 583:/home/hkh/git/eapidk-code-r76-trunk/apps/EeePProg/linux/../CfgPHelper.c ****     struct  CfgElementDesc_s *pElementDesc, 
 584:/home/hkh/git/eapidk-code-r76-trunk/apps/EeePProg/linux/../CfgPHelper.c ****     void *pCurElement,
 585:/home/hkh/git/eapidk-code-r76-trunk/apps/EeePProg/linux/../CfgPHelper.c ****     char   *szValue
 586:/home/hkh/git/eapidk-code-r76-trunk/apps/EeePProg/linux/../CfgPHelper.c ****   )
 587:/home/hkh/git/eapidk-code-r76-trunk/apps/EeePProg/linux/../CfgPHelper.c **** { 
 2845              		.loc 1 587 1
 2846              		.cfi_startproc
 2847              		@ args = 0, pretend = 0, frame = 24
 2848              		@ frame_needed = 1, uses_anonymous_args = 0
 2849 182c 30482DE9 		push	{r4, r5, fp, lr}
 2850              		.cfi_def_cfa_offset 16
 2851              		.cfi_offset 4, -16
 2852              		.cfi_offset 5, -12
 2853              		.cfi_offset 11, -8
 2854              		.cfi_offset 14, -4
 2855 1830 0CB08DE2 		add	fp, sp, #12
 2856              		.cfi_def_cfa 11, 4
 2857 1834 28D04DE2 		sub	sp, sp, #40
 2858 1838 18000BE5 		str	r0, [fp, #-24]
 2859 183c 1C100BE5 		str	r1, [fp, #-28]
 2860 1840 20200BE5 		str	r2, [fp, #-32]
 588:/home/hkh/git/eapidk-code-r76-trunk/apps/EeePProg/linux/../CfgPHelper.c ****   EApiStatus_t StatusCode=EAPI_STATUS_SUCCESS;
 2861              		.loc 1 588 16
 2862 1844 0030A0E3 		mov	r3, #0
 2863 1848 14300BE5 		str	r3, [fp, #-20]
 589:/home/hkh/git/eapidk-code-r76-trunk/apps/EeePProg/linux/../CfgPHelper.c ****   unsigned long ulDeviceAddress=ulConvertStr2NumEx(szValue, NULL);
 2864              		.loc 1 589 33
 2865 184c 0010A0E3 		mov	r1, #0
 2866 1850 20001BE5 		ldr	r0, [fp, #-32]
 2867 1854 FEFFFFEB 		bl	ulConvertStr2NumEx(PLT)
 2868 1858 10000BE5 		str	r0, [fp, #-16]
 590:/home/hkh/git/eapidk-code-r76-trunk/apps/EeePProg/linux/../CfgPHelper.c **** 
 591:/home/hkh/git/eapidk-code-r76-trunk/apps/EeePProg/linux/../CfgPHelper.c ****   EAPI_APP_ASSERT_PARAMATER_CHECK_S(
 2869              		.loc 1 591 3
 2870 185c 18301BE5 		ldr	r3, [fp, #-24]
 2871 1860 143093E5 		ldr	r3, [r3, #20]
 2872 1864 010053E3 		cmp	r3, #1
 2873 1868 1100008A 		bhi	.L137
 2874              		.loc 1 591 3 is_stmt 0 discriminator 1
ARM GAS  /tmp/cc9qaG1x.s 			page 65


 2875 186c 8C319FE5 		ldr	r3, .L143
 2876              	.LPIC109:
 2877 1870 03308FE0 		add	r3, pc, r3
 2878 1874 08308DE5 		str	r3, [sp, #8]
 2879 1878 84319FE5 		ldr	r3, .L143+4
 2880              	.LPIC110:
 2881 187c 03308FE0 		add	r3, pc, r3
 2882 1880 04308DE5 		str	r3, [sp, #4]
 2883 1884 013CE0E3 		mvn	r3, #256
 2884 1888 00308DE5 		str	r3, [sp]
 2885 188c 4F3200E3 		movw	r3, #591
 2886 1890 70219FE5 		ldr	r2, .L143+8
 2887              	.LPIC111:
 2888 1894 02208FE0 		add	r2, pc, r2
 2889 1898 6C119FE5 		ldr	r1, .L143+12
 2890              	.LPIC112:
 2891 189c 01108FE0 		add	r1, pc, r1
 2892 18a0 4500A0E3 		mov	r0, #69
 2893 18a4 FEFFFFEB 		bl	siFormattedMessage_SC(PLT)
 2894 18a8 013CE0E3 		mvn	r3, #256
 2895 18ac 14300BE5 		str	r3, [fp, #-20]
 2896 18b0 4E0000EA 		b	.L138
 2897              	.L137:
 592:/home/hkh/git/eapidk-code-r76-trunk/apps/EeePProg/linux/../CfgPHelper.c ****                 I2C_EEPROM_Addr,
 593:/home/hkh/git/eapidk-code-r76-trunk/apps/EeePProg/linux/../CfgPHelper.c ****                 EAPI_STATUS_INVALID_PARAMETER,
 594:/home/hkh/git/eapidk-code-r76-trunk/apps/EeePProg/linux/../CfgPHelper.c ****                 pElementDesc->Instances.stElementSize < sizeof(uint16_t)
 595:/home/hkh/git/eapidk-code-r76-trunk/apps/EeePProg/linux/../CfgPHelper.c ****         );
 596:/home/hkh/git/eapidk-code-r76-trunk/apps/EeePProg/linux/../CfgPHelper.c ****   EAPI_APP_ASSERT_PARAMATER_CHECK_S(
 2898              		.loc 1 596 3 is_stmt 1
 2899 18b4 18301BE5 		ldr	r3, [fp, #-24]
 2900 18b8 2C3093E5 		ldr	r3, [r3, #44]
 2901 18bc 0F0053E3 		cmp	r3, #15
 2902 18c0 1100008A 		bhi	.L139
 2903              		.loc 1 596 3 is_stmt 0 discriminator 1
 2904 18c4 44319FE5 		ldr	r3, .L143+16
 2905              	.LPIC113:
 2906 18c8 03308FE0 		add	r3, pc, r3
 2907 18cc 08308DE5 		str	r3, [sp, #8]
 2908 18d0 3C319FE5 		ldr	r3, .L143+20
 2909              	.LPIC114:
 2910 18d4 03308FE0 		add	r3, pc, r3
 2911 18d8 04308DE5 		str	r3, [sp, #4]
 2912 18dc 013CE0E3 		mvn	r3, #256
 2913 18e0 00308DE5 		str	r3, [sp]
 2914 18e4 953FA0E3 		mov	r3, #596
 2915 18e8 28219FE5 		ldr	r2, .L143+24
 2916              	.LPIC115:
 2917 18ec 02208FE0 		add	r2, pc, r2
 2918 18f0 24119FE5 		ldr	r1, .L143+28
 2919              	.LPIC116:
 2920 18f4 01108FE0 		add	r1, pc, r1
 2921 18f8 4500A0E3 		mov	r0, #69
 2922 18fc FEFFFFEB 		bl	siFormattedMessage_SC(PLT)
 2923 1900 013CE0E3 		mvn	r3, #256
 2924 1904 14300BE5 		str	r3, [fp, #-20]
 2925 1908 380000EA 		b	.L138
 2926              	.L139:
ARM GAS  /tmp/cc9qaG1x.s 			page 66


 597:/home/hkh/git/eapidk-code-r76-trunk/apps/EeePProg/linux/../CfgPHelper.c ****                 I2C_EEPROM_Addr,
 598:/home/hkh/git/eapidk-code-r76-trunk/apps/EeePProg/linux/../CfgPHelper.c ****                 EAPI_STATUS_INVALID_PARAMETER,
 599:/home/hkh/git/eapidk-code-r76-trunk/apps/EeePProg/linux/../CfgPHelper.c ****                 pElementDesc->stBitLength < 8*sizeof(uint16_t)
 600:/home/hkh/git/eapidk-code-r76-trunk/apps/EeePProg/linux/../CfgPHelper.c ****         );
 601:/home/hkh/git/eapidk-code-r76-trunk/apps/EeePProg/linux/../CfgPHelper.c **** 
 602:/home/hkh/git/eapidk-code-r76-trunk/apps/EeePProg/linux/../CfgPHelper.c ****   if((ulDeviceAddress<=0xAE)&&(ulDeviceAddress>=0xA0)&&!(ulDeviceAddress&1)){
 2927              		.loc 1 602 5 is_stmt 1
 2928 190c 10301BE5 		ldr	r3, [fp, #-16]
 2929 1910 AE0053E3 		cmp	r3, #174
 2930 1914 2D00008A 		bhi	.L140
 2931              		.loc 1 602 29 discriminator 1
 2932 1918 10301BE5 		ldr	r3, [fp, #-16]
 2933 191c 9F0053E3 		cmp	r3, #159
 2934 1920 2A00009A 		bls	.L140
 2935              		.loc 1 602 73 discriminator 2
 2936 1924 10301BE5 		ldr	r3, [fp, #-16]
 2937 1928 013003E2 		and	r3, r3, #1
 2938              		.loc 1 602 54 discriminator 2
 2939 192c 000053E3 		cmp	r3, #0
 2940 1930 2600001A 		bne	.L140
 603:/home/hkh/git/eapidk-code-r76-trunk/apps/EeePProg/linux/../CfgPHelper.c **** /*     printf("\tI2C_EEPROM_Addr = 0x%02lX, %s\n", ulDeviceAddress, szValue); */
 604:/home/hkh/git/eapidk-code-r76-trunk/apps/EeePProg/linux/../CfgPHelper.c ****   	DO(AssignValue_VAB(
 2941              		.loc 1 604 4
 2942 1934 10301BE5 		ldr	r3, [fp, #-16]
 2943 1938 0020A0E3 		mov	r2, #0
 2944 193c 0340A0E1 		mov	r4, r3
 2945 1940 0250A0E1 		mov	r5, r2
 2946 1944 18301BE5 		ldr	r3, [fp, #-24]
 2947 1948 283093E5 		ldr	r3, [r3, #40]
 2948 194c 0310A0E1 		mov	r1, r3
 2949 1950 18301BE5 		ldr	r3, [fp, #-24]
 2950 1954 2C3093E5 		ldr	r3, [r3, #44]
 2951 1958 0320A0E1 		mov	r2, r3
 2952 195c 18301BE5 		ldr	r3, [fp, #-24]
 2953 1960 143093E5 		ldr	r3, [r3, #20]
 2954 1964 04308DE5 		str	r3, [sp, #4]
 2955 1968 00208DE5 		str	r2, [sp]
 2956 196c 0130A0E1 		mov	r3, r1
 2957 1970 1C201BE5 		ldr	r2, [fp, #-28]
 2958 1974 0400A0E1 		mov	r0, r4
 2959 1978 0510A0E1 		mov	r1, r5
 2960 197c FEFFFFEB 		bl	AssignValue_VAB(PLT)
 2961 1980 14000BE5 		str	r0, [fp, #-20]
 2962 1984 14301BE5 		ldr	r3, [fp, #-20]
 2963 1988 000053E3 		cmp	r3, #0
 2964 198c 1700000A 		beq	.L138
 2965              		.loc 1 604 4 is_stmt 0 discriminator 1
 2966 1990 88309FE5 		ldr	r3, .L143+32
 2967              	.LPIC117:
 2968 1994 03308FE0 		add	r3, pc, r3
 2969 1998 08308DE5 		str	r3, [sp, #8]
 2970 199c 80309FE5 		ldr	r3, .L143+36
 2971              	.LPIC118:
 2972 19a0 03308FE0 		add	r3, pc, r3
 2973 19a4 04308DE5 		str	r3, [sp, #4]
 2974 19a8 14301BE5 		ldr	r3, [fp, #-20]
 2975 19ac 00308DE5 		str	r3, [sp]
ARM GAS  /tmp/cc9qaG1x.s 			page 67


 2976 19b0 973FA0E3 		mov	r3, #604
 2977 19b4 6C209FE5 		ldr	r2, .L143+40
 2978              	.LPIC119:
 2979 19b8 02208FE0 		add	r2, pc, r2
 2980 19bc 68109FE5 		ldr	r1, .L143+44
 2981              	.LPIC120:
 2982 19c0 01108FE0 		add	r1, pc, r1
 2983 19c4 4500A0E3 		mov	r0, #69
 2984 19c8 FEFFFFEB 		bl	siFormattedMessage_SC(PLT)
 2985 19cc 070000EA 		b	.L138
 2986              	.L140:
 605:/home/hkh/git/eapidk-code-r76-trunk/apps/EeePProg/linux/../CfgPHelper.c ****             ulDeviceAddress, 
 606:/home/hkh/git/eapidk-code-r76-trunk/apps/EeePProg/linux/../CfgPHelper.c ****             pCurElement, 
 607:/home/hkh/git/eapidk-code-r76-trunk/apps/EeePProg/linux/../CfgPHelper.c ****             (signed int)pElementDesc->stBitOffset  ,
 608:/home/hkh/git/eapidk-code-r76-trunk/apps/EeePProg/linux/../CfgPHelper.c ****             (signed int)pElementDesc->stBitLength     , 
 609:/home/hkh/git/eapidk-code-r76-trunk/apps/EeePProg/linux/../CfgPHelper.c ****             (signed int)pElementDesc->Instances.stElementSize
 610:/home/hkh/git/eapidk-code-r76-trunk/apps/EeePProg/linux/../CfgPHelper.c ****           ));
 611:/home/hkh/git/eapidk-code-r76-trunk/apps/EeePProg/linux/../CfgPHelper.c ****   }else{
 612:/home/hkh/git/eapidk-code-r76-trunk/apps/EeePProg/linux/../CfgPHelper.c ****   	printf("\tI2C_EEPROM_Addr = Invalid Address 0x%02lX, %s\n", ulDeviceAddress, szValue);
 2987              		.loc 1 612 4 is_stmt 1
 2988 19d0 20201BE5 		ldr	r2, [fp, #-32]
 2989 19d4 10101BE5 		ldr	r1, [fp, #-16]
 2990 19d8 50309FE5 		ldr	r3, .L143+48
 2991              	.LPIC121:
 2992 19dc 03308FE0 		add	r3, pc, r3
 2993 19e0 0300A0E1 		mov	r0, r3
 2994 19e4 FEFFFFEB 		bl	printf(PLT)
 613:/home/hkh/git/eapidk-code-r76-trunk/apps/EeePProg/linux/../CfgPHelper.c ****   	StatusCode=EAPI_STATUS_ERROR;
 2995              		.loc 1 613 14
 2996 19e8 0F3CE0E3 		mvn	r3, #3840
 2997 19ec 14300BE5 		str	r3, [fp, #-20]
 2998              	.L138:
 614:/home/hkh/git/eapidk-code-r76-trunk/apps/EeePProg/linux/../CfgPHelper.c ****   }
 615:/home/hkh/git/eapidk-code-r76-trunk/apps/EeePProg/linux/../CfgPHelper.c **** 
 616:/home/hkh/git/eapidk-code-r76-trunk/apps/EeePProg/linux/../CfgPHelper.c **** EAPI_APP_ASSERT_EXIT
 617:/home/hkh/git/eapidk-code-r76-trunk/apps/EeePProg/linux/../CfgPHelper.c ****   return StatusCode;
 2999              		.loc 1 617 10
 3000 19f0 14301BE5 		ldr	r3, [fp, #-20]
 618:/home/hkh/git/eapidk-code-r76-trunk/apps/EeePProg/linux/../CfgPHelper.c **** }
 3001              		.loc 1 618 1
 3002 19f4 0300A0E1 		mov	r0, r3
 3003 19f8 0CD04BE2 		sub	sp, fp, #12
 3004              		.cfi_def_cfa 13, 16
 3005              		@ sp needed
 3006 19fc 3088BDE8 		pop	{r4, r5, fp, pc}
 3007              	.L144:
 3008              		.align	2
 3009              	.L143:
 3010 1a00 B4080000 		.word	.LC52-(.LPIC109+8)
 3011 1a04 04020000 		.word	.LC3-(.LPIC110+8)
 3012 1a08 88080000 		.word	.LC51-(.LPIC111+8)
 3013 1a0c 6C010000 		.word	.LC1-(.LPIC112+8)
 3014 1a10 A8080000 		.word	.LC53-(.LPIC113+8)
 3015 1a14 BC010000 		.word	.LC3-(.LPIC114+8)
 3016 1a18 40080000 		.word	.LC51-(.LPIC115+8)
 3017 1a1c 24010000 		.word	.LC1-(.LPIC116+8)
 3018 1a20 1C080000 		.word	.LC54-(.LPIC117+8)
ARM GAS  /tmp/cc9qaG1x.s 			page 68


 3019 1a24 00010000 		.word	.LC3-(.LPIC118+8)
 3020 1a28 68000000 		.word	.LC0-(.LPIC119+8)
 3021 1a2c 68000000 		.word	.LC1-(.LPIC120+8)
 3022 1a30 98080000 		.word	.LC55-(.LPIC121+8)
 3023              		.cfi_endproc
 3024              	.LFE20:
 3026              		.section	.rodata
 3027              		.align	2
 3028              	.LC56:
 3029 087c 09546F6B 		.ascii	"\011Token_Element = Unknown Token, %s\012\000"
 3029      656E5F45 
 3029      6C656D65 
 3029      6E74203D 
 3029      20556E6B 
 3030              		.align	2
 3031              	.LC57:
 3032 08a0 41737369 		.ascii	"AssignValue_VAB( ulValue, pCurElement, (signed int)"
 3032      676E5661 
 3032      6C75655F 
 3032      56414228 
 3032      20756C56 
 3033 08d3 70456C65 		.ascii	"pElementDesc->stBitOffset , (signed int)pElementDes"
 3033      6D656E74 
 3033      44657363 
 3033      2D3E7374 
 3033      4269744F 
 3034 0906 632D3E73 		.ascii	"c->stBitLength , (signed int)pElementDesc->Instance"
 3034      74426974 
 3034      4C656E67 
 3034      7468202C 
 3034      20287369 
 3035 0939 732E7374 		.ascii	"s.stElementSize )\000"
 3035      456C656D 
 3035      656E7453 
 3035      697A6520 
 3035      2900
 3036              		.text
 3037              		.align	2
 3038              		.global	Token_Element
 3039              		.syntax unified
 3040              		.arm
 3041              		.fpu vfpv3
 3043              	Token_Element:
 3044              	.LFB21:
 619:/home/hkh/git/eapidk-code-r76-trunk/apps/EeePProg/linux/../CfgPHelper.c **** 
 620:/home/hkh/git/eapidk-code-r76-trunk/apps/EeePProg/linux/../CfgPHelper.c **** EApiStatus_t
 621:/home/hkh/git/eapidk-code-r76-trunk/apps/EeePProg/linux/../CfgPHelper.c **** Token_Element(
 622:/home/hkh/git/eapidk-code-r76-trunk/apps/EeePProg/linux/../CfgPHelper.c ****     struct  CfgElementDesc_s *pElementDesc, 
 623:/home/hkh/git/eapidk-code-r76-trunk/apps/EeePProg/linux/../CfgPHelper.c ****     void *pCurElement,
 624:/home/hkh/git/eapidk-code-r76-trunk/apps/EeePProg/linux/../CfgPHelper.c ****     char   *szValue
 625:/home/hkh/git/eapidk-code-r76-trunk/apps/EeePProg/linux/../CfgPHelper.c ****   )
 626:/home/hkh/git/eapidk-code-r76-trunk/apps/EeePProg/linux/../CfgPHelper.c **** { 
 3045              		.loc 1 626 1
 3046              		.cfi_startproc
 3047              		@ args = 0, pretend = 0, frame = 32
 3048              		@ frame_needed = 1, uses_anonymous_args = 0
 3049 1a34 30482DE9 		push	{r4, r5, fp, lr}
ARM GAS  /tmp/cc9qaG1x.s 			page 69


 3050              		.cfi_def_cfa_offset 16
 3051              		.cfi_offset 4, -16
 3052              		.cfi_offset 5, -12
 3053              		.cfi_offset 11, -8
 3054              		.cfi_offset 14, -4
 3055 1a38 0CB08DE2 		add	fp, sp, #12
 3056              		.cfi_def_cfa 11, 4
 3057 1a3c 30D04DE2 		sub	sp, sp, #48
 3058 1a40 20000BE5 		str	r0, [fp, #-32]
 3059 1a44 24100BE5 		str	r1, [fp, #-36]
 3060 1a48 28200BE5 		str	r2, [fp, #-40]
 3061              		.loc 1 626 1
 3062 1a4c 48219FE5 		ldr	r2, .L151
 3063              	.LPIC127:
 3064 1a50 02208FE0 		add	r2, pc, r2
 3065 1a54 44319FE5 		ldr	r3, .L151+4
 3066 1a58 033092E7 		ldr	r3, [r2, r3]
 3067 1a5c 003093E5 		ldr	r3, [r3]
 3068 1a60 10300BE5 		str	r3, [fp, #-16]
 3069 1a64 0030A0E3 		mov	r3, #0
 627:/home/hkh/git/eapidk-code-r76-trunk/apps/EeePProg/linux/../CfgPHelper.c ****   EApiStatus_t StatusCode=EAPI_STATUS_SUCCESS;
 3070              		.loc 1 627 16
 3071 1a68 0030A0E3 		mov	r3, #0
 3072 1a6c 14300BE5 		str	r3, [fp, #-20]
 628:/home/hkh/git/eapidk-code-r76-trunk/apps/EeePProg/linux/../CfgPHelper.c ****   unsigned long    ulValue;
 629:/home/hkh/git/eapidk-code-r76-trunk/apps/EeePProg/linux/../CfgPHelper.c **** 
 630:/home/hkh/git/eapidk-code-r76-trunk/apps/EeePProg/linux/../CfgPHelper.c **** 
 631:/home/hkh/git/eapidk-code-r76-trunk/apps/EeePProg/linux/../CfgPHelper.c ****   szValue=skipWhiteSpaces(szValue);
 3073              		.loc 1 631 11
 3074 1a70 28001BE5 		ldr	r0, [fp, #-40]
 3075 1a74 FEFFFFEB 		bl	skipWhiteSpaces(PLT)
 3076 1a78 28000BE5 		str	r0, [fp, #-40]
 632:/home/hkh/git/eapidk-code-r76-trunk/apps/EeePProg/linux/../CfgPHelper.c ****   stripWhiteSpaces(szValue);
 3077              		.loc 1 632 3
 3078 1a7c 28001BE5 		ldr	r0, [fp, #-40]
 3079 1a80 FEFFFFEB 		bl	stripWhiteSpaces(PLT)
 633:/home/hkh/git/eapidk-code-r76-trunk/apps/EeePProg/linux/../CfgPHelper.c ****   StatusCode=GetTokenValue(
 634:/home/hkh/git/eapidk-code-r76-trunk/apps/EeePProg/linux/../CfgPHelper.c ****       ((TokenListDesc_t*)pElementDesc->pExtraInfo), 
 3080              		.loc 1 634 38
 3081 1a84 20301BE5 		ldr	r3, [fp, #-32]
 3082 1a88 343093E5 		ldr	r3, [r3, #52]
 633:/home/hkh/git/eapidk-code-r76-trunk/apps/EeePProg/linux/../CfgPHelper.c ****   StatusCode=GetTokenValue(
 3083              		.loc 1 633 14
 3084 1a8c 18204BE2 		sub	r2, fp, #24
 3085 1a90 28101BE5 		ldr	r1, [fp, #-40]
 3086 1a94 0300A0E1 		mov	r0, r3
 3087 1a98 FEFFFFEB 		bl	GetTokenValue(PLT)
 3088 1a9c 14000BE5 		str	r0, [fp, #-20]
 635:/home/hkh/git/eapidk-code-r76-trunk/apps/EeePProg/linux/../CfgPHelper.c ****       szValue, 
 636:/home/hkh/git/eapidk-code-r76-trunk/apps/EeePProg/linux/../CfgPHelper.c ****       &ulValue
 637:/home/hkh/git/eapidk-code-r76-trunk/apps/EeePProg/linux/../CfgPHelper.c ****     );
 638:/home/hkh/git/eapidk-code-r76-trunk/apps/EeePProg/linux/../CfgPHelper.c **** 
 639:/home/hkh/git/eapidk-code-r76-trunk/apps/EeePProg/linux/../CfgPHelper.c ****   if(!EAPI_TEST_SUCCESS(StatusCode)){
 3089              		.loc 1 639 5
 3090 1aa0 14301BE5 		ldr	r3, [fp, #-20]
 3091 1aa4 000053E3 		cmp	r3, #0
 3092 1aa8 0500000A 		beq	.L146
ARM GAS  /tmp/cc9qaG1x.s 			page 70


 640:/home/hkh/git/eapidk-code-r76-trunk/apps/EeePProg/linux/../CfgPHelper.c ****     printf("\tToken_Element = Unknown Token, %s\n", szValue);
 3093              		.loc 1 640 5
 3094 1aac 28101BE5 		ldr	r1, [fp, #-40]
 3095 1ab0 EC309FE5 		ldr	r3, .L151+8
 3096              	.LPIC122:
 3097 1ab4 03308FE0 		add	r3, pc, r3
 3098 1ab8 0300A0E1 		mov	r0, r3
 3099 1abc FEFFFFEB 		bl	printf(PLT)
 3100 1ac0 270000EA 		b	.L147
 3101              	.L146:
 641:/home/hkh/git/eapidk-code-r76-trunk/apps/EeePProg/linux/../CfgPHelper.c ****   }else{
 642:/home/hkh/git/eapidk-code-r76-trunk/apps/EeePProg/linux/../CfgPHelper.c **** /*     printf("\tToken_Element = 0x%04lX, %s\n", *(unsigned long*)pCurElement, szValue); */
 643:/home/hkh/git/eapidk-code-r76-trunk/apps/EeePProg/linux/../CfgPHelper.c ****   	DO(AssignValue_VAB(
 3102              		.loc 1 643 4
 3103 1ac4 18301BE5 		ldr	r3, [fp, #-24]
 3104 1ac8 0020A0E3 		mov	r2, #0
 3105 1acc 0340A0E1 		mov	r4, r3
 3106 1ad0 0250A0E1 		mov	r5, r2
 3107 1ad4 20301BE5 		ldr	r3, [fp, #-32]
 3108 1ad8 283093E5 		ldr	r3, [r3, #40]
 3109 1adc 0310A0E1 		mov	r1, r3
 3110 1ae0 20301BE5 		ldr	r3, [fp, #-32]
 3111 1ae4 2C3093E5 		ldr	r3, [r3, #44]
 3112 1ae8 0320A0E1 		mov	r2, r3
 3113 1aec 20301BE5 		ldr	r3, [fp, #-32]
 3114 1af0 143093E5 		ldr	r3, [r3, #20]
 3115 1af4 04308DE5 		str	r3, [sp, #4]
 3116 1af8 00208DE5 		str	r2, [sp]
 3117 1afc 0130A0E1 		mov	r3, r1
 3118 1b00 24201BE5 		ldr	r2, [fp, #-36]
 3119 1b04 0400A0E1 		mov	r0, r4
 3120 1b08 0510A0E1 		mov	r1, r5
 3121 1b0c FEFFFFEB 		bl	AssignValue_VAB(PLT)
 3122 1b10 14000BE5 		str	r0, [fp, #-20]
 3123 1b14 14301BE5 		ldr	r3, [fp, #-20]
 3124 1b18 000053E3 		cmp	r3, #0
 3125 1b1c 0F00000A 		beq	.L150
 3126              		.loc 1 643 4 is_stmt 0 discriminator 1
 3127 1b20 80309FE5 		ldr	r3, .L151+12
 3128              	.LPIC123:
 3129 1b24 03308FE0 		add	r3, pc, r3
 3130 1b28 08308DE5 		str	r3, [sp, #8]
 3131 1b2c 78309FE5 		ldr	r3, .L151+16
 3132              	.LPIC124:
 3133 1b30 03308FE0 		add	r3, pc, r3
 3134 1b34 04308DE5 		str	r3, [sp, #4]
 3135 1b38 14301BE5 		ldr	r3, [fp, #-20]
 3136 1b3c 00308DE5 		str	r3, [sp]
 3137 1b40 833200E3 		movw	r3, #643
 3138 1b44 64209FE5 		ldr	r2, .L151+20
 3139              	.LPIC125:
 3140 1b48 02208FE0 		add	r2, pc, r2
 3141 1b4c 60109FE5 		ldr	r1, .L151+24
 3142              	.LPIC126:
 3143 1b50 01108FE0 		add	r1, pc, r1
 3144 1b54 4500A0E3 		mov	r0, #69
 3145 1b58 FEFFFFEB 		bl	siFormattedMessage_SC(PLT)
ARM GAS  /tmp/cc9qaG1x.s 			page 71


 3146 1b5c 000000EA 		b	.L147
 3147              	.L150:
 644:/home/hkh/git/eapidk-code-r76-trunk/apps/EeePProg/linux/../CfgPHelper.c ****             ulValue, 
 645:/home/hkh/git/eapidk-code-r76-trunk/apps/EeePProg/linux/../CfgPHelper.c ****             pCurElement, 
 646:/home/hkh/git/eapidk-code-r76-trunk/apps/EeePProg/linux/../CfgPHelper.c ****             (signed int)pElementDesc->stBitOffset  ,
 647:/home/hkh/git/eapidk-code-r76-trunk/apps/EeePProg/linux/../CfgPHelper.c ****             (signed int)pElementDesc->stBitLength     , 
 648:/home/hkh/git/eapidk-code-r76-trunk/apps/EeePProg/linux/../CfgPHelper.c ****             (signed int)pElementDesc->Instances.stElementSize
 649:/home/hkh/git/eapidk-code-r76-trunk/apps/EeePProg/linux/../CfgPHelper.c ****           ));
 650:/home/hkh/git/eapidk-code-r76-trunk/apps/EeePProg/linux/../CfgPHelper.c ****   }
 651:/home/hkh/git/eapidk-code-r76-trunk/apps/EeePProg/linux/../CfgPHelper.c **** EAPI_APP_ASSERT_EXIT
 3148              		.loc 1 651 1 is_stmt 1
 3149 1b60 00F020E3 		nop
 3150              	.L147:
 652:/home/hkh/git/eapidk-code-r76-trunk/apps/EeePProg/linux/../CfgPHelper.c ****   return StatusCode;
 3151              		.loc 1 652 10
 3152 1b64 14301BE5 		ldr	r3, [fp, #-20]
 626:/home/hkh/git/eapidk-code-r76-trunk/apps/EeePProg/linux/../CfgPHelper.c ****   EApiStatus_t StatusCode=EAPI_STATUS_SUCCESS;
 3153              		.loc 1 626 1
 3154 1b68 48109FE5 		ldr	r1, .L151+28
 3155              	.LPIC128:
 3156 1b6c 01108FE0 		add	r1, pc, r1
 653:/home/hkh/git/eapidk-code-r76-trunk/apps/EeePProg/linux/../CfgPHelper.c **** }
 3157              		.loc 1 653 1
 3158 1b70 28209FE5 		ldr	r2, .L151+4
 3159 1b74 022091E7 		ldr	r2, [r1, r2]
 3160 1b78 001092E5 		ldr	r1, [r2]
 3161 1b7c 10201BE5 		ldr	r2, [fp, #-16]
 3162 1b80 011032E0 		eors	r1, r2, r1
 3163 1b84 0020A0E3 		mov	r2, #0
 3164 1b88 0000000A 		beq	.L149
 3165 1b8c FEFFFFEB 		bl	__stack_chk_fail(PLT)
 3166              	.L149:
 3167 1b90 0300A0E1 		mov	r0, r3
 3168 1b94 0CD04BE2 		sub	sp, fp, #12
 3169              		.cfi_def_cfa 13, 16
 3170              		@ sp needed
 3171 1b98 3088BDE8 		pop	{r4, r5, fp, pc}
 3172              	.L152:
 3173              		.align	2
 3174              	.L151:
 3175 1b9c 44010000 		.word	_GLOBAL_OFFSET_TABLE_-(.LPIC127+8)
 3176 1ba0 00000000 		.word	__stack_chk_guard(GOT)
 3177 1ba4 64090000 		.word	.LC56-(.LPIC122+8)
 3178 1ba8 1C090000 		.word	.LC57-(.LPIC123+8)
 3179 1bac F8000000 		.word	.LC3-(.LPIC124+8)
 3180 1bb0 60000000 		.word	.LC0-(.LPIC125+8)
 3181 1bb4 60000000 		.word	.LC1-(.LPIC126+8)
 3182 1bb8 44000000 		.word	_GLOBAL_OFFSET_TABLE_-(.LPIC128+8)
 3183              		.cfi_endproc
 3184              	.LFE21:
 3186              		.section	.rodata
 3187 094b 00       		.align	2
 3188              	.LC58:
 3189 094c 41737369 		.ascii	"AssignValue_VA( ulValue, pCurElement, (signed int)p"
 3189      676E5661 
 3189      6C75655F 
 3189      56412820 
ARM GAS  /tmp/cc9qaG1x.s 			page 72


 3189      756C5661 
 3190 097f 456C656D 		.ascii	"ElementDesc->Instances.stElementSize )\000"
 3190      656E7444 
 3190      6573632D 
 3190      3E496E73 
 3190      74616E63 
 3191 09a6 0000     		.align	2
 3192              	.LC59:
 3193 09a8 4E756D62 		.ascii	"Number_Element(&LclElementDesc, pCurElement, szValu"
 3193      65725F45 
 3193      6C656D65 
 3193      6E742826 
 3193      4C636C45 
 3194 09db 652900   		.ascii	"e)\000"
 3195              		.text
 3196              		.align	2
 3197              		.global	TokenNum_Element
 3198              		.syntax unified
 3199              		.arm
 3200              		.fpu vfpv3
 3202              	TokenNum_Element:
 3203              	.LFB22:
 654:/home/hkh/git/eapidk-code-r76-trunk/apps/EeePProg/linux/../CfgPHelper.c **** EApiStatus_t
 655:/home/hkh/git/eapidk-code-r76-trunk/apps/EeePProg/linux/../CfgPHelper.c **** TokenNum_Element(
 656:/home/hkh/git/eapidk-code-r76-trunk/apps/EeePProg/linux/../CfgPHelper.c ****     struct  CfgElementDesc_s *pElementDesc, 
 657:/home/hkh/git/eapidk-code-r76-trunk/apps/EeePProg/linux/../CfgPHelper.c ****     void *pCurElement,
 658:/home/hkh/git/eapidk-code-r76-trunk/apps/EeePProg/linux/../CfgPHelper.c ****     char   *szValue
 659:/home/hkh/git/eapidk-code-r76-trunk/apps/EeePProg/linux/../CfgPHelper.c ****   )
 660:/home/hkh/git/eapidk-code-r76-trunk/apps/EeePProg/linux/../CfgPHelper.c **** { 
 3204              		.loc 1 660 1
 3205              		.cfi_startproc
 3206              		@ args = 0, pretend = 0, frame = 88
 3207              		@ frame_needed = 1, uses_anonymous_args = 0
 3208 1bbc 30482DE9 		push	{r4, r5, fp, lr}
 3209              		.cfi_def_cfa_offset 16
 3210              		.cfi_offset 4, -16
 3211              		.cfi_offset 5, -12
 3212              		.cfi_offset 11, -8
 3213              		.cfi_offset 14, -4
 3214 1bc0 0CB08DE2 		add	fp, sp, #12
 3215              		.cfi_def_cfa 11, 4
 3216 1bc4 68D04DE2 		sub	sp, sp, #104
 3217 1bc8 58000BE5 		str	r0, [fp, #-88]
 3218 1bcc 5C100BE5 		str	r1, [fp, #-92]
 3219 1bd0 60200BE5 		str	r2, [fp, #-96]
 3220              		.loc 1 660 1
 3221 1bd4 A8219FE5 		ldr	r2, .L159
 3222              	.LPIC137:
 3223 1bd8 02208FE0 		add	r2, pc, r2
 3224 1bdc A4319FE5 		ldr	r3, .L159+4
 3225 1be0 033092E7 		ldr	r3, [r2, r3]
 3226 1be4 003093E5 		ldr	r3, [r3]
 3227 1be8 10300BE5 		str	r3, [fp, #-16]
 3228 1bec 0030A0E3 		mov	r3, #0
 661:/home/hkh/git/eapidk-code-r76-trunk/apps/EeePProg/linux/../CfgPHelper.c ****   EApiStatus_t StatusCode=EAPI_STATUS_SUCCESS;
 3229              		.loc 1 661 16
 3230 1bf0 0030A0E3 		mov	r3, #0
ARM GAS  /tmp/cc9qaG1x.s 			page 73


 3231 1bf4 4C300BE5 		str	r3, [fp, #-76]
 662:/home/hkh/git/eapidk-code-r76-trunk/apps/EeePProg/linux/../CfgPHelper.c ****   unsigned long ulValue;
 663:/home/hkh/git/eapidk-code-r76-trunk/apps/EeePProg/linux/../CfgPHelper.c **** 
 664:/home/hkh/git/eapidk-code-r76-trunk/apps/EeePProg/linux/../CfgPHelper.c ****   szValue=skipWhiteSpaces(szValue);
 3232              		.loc 1 664 11
 3233 1bf8 60001BE5 		ldr	r0, [fp, #-96]
 3234 1bfc FEFFFFEB 		bl	skipWhiteSpaces(PLT)
 3235 1c00 60000BE5 		str	r0, [fp, #-96]
 665:/home/hkh/git/eapidk-code-r76-trunk/apps/EeePProg/linux/../CfgPHelper.c ****   stripWhiteSpaces(szValue);
 3236              		.loc 1 665 3
 3237 1c04 60001BE5 		ldr	r0, [fp, #-96]
 3238 1c08 FEFFFFEB 		bl	stripWhiteSpaces(PLT)
 666:/home/hkh/git/eapidk-code-r76-trunk/apps/EeePProg/linux/../CfgPHelper.c **** 
 667:/home/hkh/git/eapidk-code-r76-trunk/apps/EeePProg/linux/../CfgPHelper.c ****   StatusCode=GetTokenValue(
 668:/home/hkh/git/eapidk-code-r76-trunk/apps/EeePProg/linux/../CfgPHelper.c ****       ((TokenNumDesc_t*)pElementDesc->pExtraInfo)->pTokens, 
 3239              		.loc 1 668 37
 3240 1c0c 58301BE5 		ldr	r3, [fp, #-88]
 3241 1c10 343093E5 		ldr	r3, [r3, #52]
 3242              		.loc 1 668 50
 3243 1c14 003093E5 		ldr	r3, [r3]
 667:/home/hkh/git/eapidk-code-r76-trunk/apps/EeePProg/linux/../CfgPHelper.c ****       ((TokenNumDesc_t*)pElementDesc->pExtraInfo)->pTokens, 
 3244              		.loc 1 667 14
 3245 1c18 50204BE2 		sub	r2, fp, #80
 3246 1c1c 60101BE5 		ldr	r1, [fp, #-96]
 3247 1c20 0300A0E1 		mov	r0, r3
 3248 1c24 FEFFFFEB 		bl	GetTokenValue(PLT)
 3249 1c28 4C000BE5 		str	r0, [fp, #-76]
 669:/home/hkh/git/eapidk-code-r76-trunk/apps/EeePProg/linux/../CfgPHelper.c ****       szValue, 
 670:/home/hkh/git/eapidk-code-r76-trunk/apps/EeePProg/linux/../CfgPHelper.c ****       &ulValue
 671:/home/hkh/git/eapidk-code-r76-trunk/apps/EeePProg/linux/../CfgPHelper.c ****     );
 672:/home/hkh/git/eapidk-code-r76-trunk/apps/EeePProg/linux/../CfgPHelper.c ****   if(EAPI_TEST_SUCCESS(StatusCode)){
 3250              		.loc 1 672 5
 3251 1c2c 4C301BE5 		ldr	r3, [fp, #-76]
 3252 1c30 000053E3 		cmp	r3, #0
 3253 1c34 1D00001A 		bne	.L154
 673:/home/hkh/git/eapidk-code-r76-trunk/apps/EeePProg/linux/../CfgPHelper.c ****     DO(AssignValue_VA(
 3254              		.loc 1 673 5
 3255 1c38 50301BE5 		ldr	r3, [fp, #-80]
 3256 1c3c 0020A0E3 		mov	r2, #0
 3257 1c40 0340A0E1 		mov	r4, r3
 3258 1c44 0250A0E1 		mov	r5, r2
 3259 1c48 58301BE5 		ldr	r3, [fp, #-88]
 3260 1c4c 143093E5 		ldr	r3, [r3, #20]
 3261 1c50 5C201BE5 		ldr	r2, [fp, #-92]
 3262 1c54 0400A0E1 		mov	r0, r4
 3263 1c58 0510A0E1 		mov	r1, r5
 3264 1c5c FEFFFFEB 		bl	AssignValue_VA(PLT)
 3265 1c60 4C000BE5 		str	r0, [fp, #-76]
 3266 1c64 4C301BE5 		ldr	r3, [fp, #-76]
 3267 1c68 000053E3 		cmp	r3, #0
 3268 1c6c 3600000A 		beq	.L155
 3269              		.loc 1 673 5 is_stmt 0 discriminator 1
 3270 1c70 14319FE5 		ldr	r3, .L159+8
 3271              	.LPIC129:
 3272 1c74 03308FE0 		add	r3, pc, r3
 3273 1c78 08308DE5 		str	r3, [sp, #8]
 3274 1c7c 0C319FE5 		ldr	r3, .L159+12
ARM GAS  /tmp/cc9qaG1x.s 			page 74


 3275              	.LPIC130:
 3276 1c80 03308FE0 		add	r3, pc, r3
 3277 1c84 04308DE5 		str	r3, [sp, #4]
 3278 1c88 4C301BE5 		ldr	r3, [fp, #-76]
 3279 1c8c 00308DE5 		str	r3, [sp]
 3280 1c90 A13200E3 		movw	r3, #673
 3281 1c94 F8209FE5 		ldr	r2, .L159+16
 3282              	.LPIC131:
 3283 1c98 02208FE0 		add	r2, pc, r2
 3284 1c9c F4109FE5 		ldr	r1, .L159+20
 3285              	.LPIC132:
 3286 1ca0 01108FE0 		add	r1, pc, r1
 3287 1ca4 4500A0E3 		mov	r0, #69
 3288 1ca8 FEFFFFEB 		bl	siFormattedMessage_SC(PLT)
 3289 1cac 260000EA 		b	.L155
 3290              	.L154:
 3291              	.LBB2:
 674:/home/hkh/git/eapidk-code-r76-trunk/apps/EeePProg/linux/../CfgPHelper.c ****         ulValue, 
 675:/home/hkh/git/eapidk-code-r76-trunk/apps/EeePProg/linux/../CfgPHelper.c ****         pCurElement, 
 676:/home/hkh/git/eapidk-code-r76-trunk/apps/EeePProg/linux/../CfgPHelper.c ****         (signed int)pElementDesc->Instances.stElementSize
 677:/home/hkh/git/eapidk-code-r76-trunk/apps/EeePProg/linux/../CfgPHelper.c ****     ));
 678:/home/hkh/git/eapidk-code-r76-trunk/apps/EeePProg/linux/../CfgPHelper.c ****   }else{
 679:/home/hkh/git/eapidk-code-r76-trunk/apps/EeePProg/linux/../CfgPHelper.c ****     struct  CfgElementDesc_s LclElementDesc=*pElementDesc;
 3292              		.loc 1 679 30 is_stmt 1
 3293 1cb0 58301BE5 		ldr	r3, [fp, #-88]
 3294 1cb4 48C04BE2 		sub	ip, fp, #72
 3295 1cb8 03E0A0E1 		mov	lr, r3
 3296 1cbc 0F00BEE8 		ldmia	lr!, {r0, r1, r2, r3}
 3297 1cc0 0F00ACE8 		stmia	ip!, {r0, r1, r2, r3}
 3298 1cc4 0F00BEE8 		ldmia	lr!, {r0, r1, r2, r3}
 3299 1cc8 0F00ACE8 		stmia	ip!, {r0, r1, r2, r3}
 3300 1ccc 0F00BEE8 		ldmia	lr!, {r0, r1, r2, r3}
 3301 1cd0 0F00ACE8 		stmia	ip!, {r0, r1, r2, r3}
 3302 1cd4 03009EE8 		ldm	lr, {r0, r1}
 3303 1cd8 03008CE8 		stm	ip, {r0, r1}
 680:/home/hkh/git/eapidk-code-r76-trunk/apps/EeePProg/linux/../CfgPHelper.c **** 
 681:/home/hkh/git/eapidk-code-r76-trunk/apps/EeePProg/linux/../CfgPHelper.c ****     LclElementDesc.pExtraInfo=((TokenNumDesc_t*)pElementDesc->pExtraInfo)->pRange;
 3304              		.loc 1 681 61
 3305 1cdc 58301BE5 		ldr	r3, [fp, #-88]
 3306 1ce0 343093E5 		ldr	r3, [r3, #52]
 3307              		.loc 1 681 74
 3308 1ce4 043093E5 		ldr	r3, [r3, #4]
 3309              		.loc 1 681 30
 3310 1ce8 14300BE5 		str	r3, [fp, #-20]
 682:/home/hkh/git/eapidk-code-r76-trunk/apps/EeePProg/linux/../CfgPHelper.c ****     DO(Number_Element(&LclElementDesc, pCurElement, szValue));
 3311              		.loc 1 682 5
 3312 1cec 48304BE2 		sub	r3, fp, #72
 3313 1cf0 60201BE5 		ldr	r2, [fp, #-96]
 3314 1cf4 5C101BE5 		ldr	r1, [fp, #-92]
 3315 1cf8 0300A0E1 		mov	r0, r3
 3316 1cfc FEFFFFEB 		bl	Number_Element(PLT)
 3317 1d00 4C000BE5 		str	r0, [fp, #-76]
 3318 1d04 4C301BE5 		ldr	r3, [fp, #-76]
 3319 1d08 000053E3 		cmp	r3, #0
 3320 1d0c 0E00000A 		beq	.L155
 3321              		.loc 1 682 5 is_stmt 0 discriminator 1
 3322 1d10 84309FE5 		ldr	r3, .L159+24
ARM GAS  /tmp/cc9qaG1x.s 			page 75


 3323              	.LPIC133:
 3324 1d14 03308FE0 		add	r3, pc, r3
 3325 1d18 08308DE5 		str	r3, [sp, #8]
 3326 1d1c 7C309FE5 		ldr	r3, .L159+28
 3327              	.LPIC134:
 3328 1d20 03308FE0 		add	r3, pc, r3
 3329 1d24 04308DE5 		str	r3, [sp, #4]
 3330 1d28 4C301BE5 		ldr	r3, [fp, #-76]
 3331 1d2c 00308DE5 		str	r3, [sp]
 3332 1d30 AA3200E3 		movw	r3, #682
 3333 1d34 68209FE5 		ldr	r2, .L159+32
 3334              	.LPIC135:
 3335 1d38 02208FE0 		add	r2, pc, r2
 3336 1d3c 64109FE5 		ldr	r1, .L159+36
 3337              	.LPIC136:
 3338 1d40 01108FE0 		add	r1, pc, r1
 3339 1d44 4500A0E3 		mov	r0, #69
 3340 1d48 FEFFFFEB 		bl	siFormattedMessage_SC(PLT)
 3341              	.L155:
 3342              	.LBE2:
 683:/home/hkh/git/eapidk-code-r76-trunk/apps/EeePProg/linux/../CfgPHelper.c ****   }
 684:/home/hkh/git/eapidk-code-r76-trunk/apps/EeePProg/linux/../CfgPHelper.c **** 
 685:/home/hkh/git/eapidk-code-r76-trunk/apps/EeePProg/linux/../CfgPHelper.c **** 
 686:/home/hkh/git/eapidk-code-r76-trunk/apps/EeePProg/linux/../CfgPHelper.c **** EAPI_APP_ASSERT_EXIT
 687:/home/hkh/git/eapidk-code-r76-trunk/apps/EeePProg/linux/../CfgPHelper.c ****   return StatusCode;
 3343              		.loc 1 687 10 is_stmt 1
 3344 1d4c 4C301BE5 		ldr	r3, [fp, #-76]
 660:/home/hkh/git/eapidk-code-r76-trunk/apps/EeePProg/linux/../CfgPHelper.c ****   EApiStatus_t StatusCode=EAPI_STATUS_SUCCESS;
 3345              		.loc 1 660 1
 3346 1d50 54109FE5 		ldr	r1, .L159+40
 3347              	.LPIC138:
 3348 1d54 01108FE0 		add	r1, pc, r1
 688:/home/hkh/git/eapidk-code-r76-trunk/apps/EeePProg/linux/../CfgPHelper.c **** }
 3349              		.loc 1 688 1
 3350 1d58 28209FE5 		ldr	r2, .L159+4
 3351 1d5c 022091E7 		ldr	r2, [r1, r2]
 3352 1d60 001092E5 		ldr	r1, [r2]
 3353 1d64 10201BE5 		ldr	r2, [fp, #-16]
 3354 1d68 011032E0 		eors	r1, r2, r1
 3355 1d6c 0020A0E3 		mov	r2, #0
 3356 1d70 0000000A 		beq	.L158
 3357 1d74 FEFFFFEB 		bl	__stack_chk_fail(PLT)
 3358              	.L158:
 3359 1d78 0300A0E1 		mov	r0, r3
 3360 1d7c 0CD04BE2 		sub	sp, fp, #12
 3361              		.cfi_def_cfa 13, 16
 3362              		@ sp needed
 3363 1d80 3088BDE8 		pop	{r4, r5, fp, pc}
 3364              	.L160:
 3365              		.align	2
 3366              	.L159:
 3367 1d84 A4010000 		.word	_GLOBAL_OFFSET_TABLE_-(.LPIC137+8)
 3368 1d88 00000000 		.word	__stack_chk_guard(GOT)
 3369 1d8c 5C0A0000 		.word	.LC58-(.LPIC129+8)
 3370 1d90 8C010000 		.word	.LC3-(.LPIC130+8)
 3371 1d94 F4000000 		.word	.LC0-(.LPIC131+8)
 3372 1d98 F4000000 		.word	.LC1-(.LPIC132+8)
ARM GAS  /tmp/cc9qaG1x.s 			page 76


 3373 1d9c 280A0000 		.word	.LC59-(.LPIC133+8)
 3374 1da0 FC000000 		.word	.LC3-(.LPIC134+8)
 3375 1da4 64000000 		.word	.LC0-(.LPIC135+8)
 3376 1da8 64000000 		.word	.LC1-(.LPIC136+8)
 3377 1dac 50000000 		.word	_GLOBAL_OFFSET_TABLE_-(.LPIC138+8)
 3378              		.cfi_endproc
 3379              	.LFE22:
 3381              		.section	.rodata
 3382 09de 0000     		.align	2
 3383              	.LC60:
 3384 09e0 53706563 		.ascii	"SpecRev_Element\000"
 3384      5265765F 
 3384      456C656D 
 3384      656E7400 
 3385              		.align	2
 3386              	.LC61:
 3387 09f0 282A737A 		.ascii	"(*szEnd!='.')\000"
 3387      456E6421 
 3387      3D272E27 
 3387      2900
 3388 09fe 0000     		.align	2
 3389              	.LC62:
 3390 0a00 41737369 		.ascii	"AssignValue_VAB( uiValue, pCurElement, (signed int)"
 3390      676E5661 
 3390      6C75655F 
 3390      56414228 
 3390      20756956 
 3391 0a33 70456C65 		.ascii	"pElementDesc->stBitOffset , (signed int)pElementDes"
 3391      6D656E74 
 3391      44657363 
 3391      2D3E7374 
 3391      4269744F 
 3392 0a66 632D3E73 		.ascii	"c->stBitLength , (signed int)pElementDesc->Instance"
 3392      74426974 
 3392      4C656E67 
 3392      7468202C 
 3392      20287369 
 3393 0a99 732E7374 		.ascii	"s.stElementSize )\000"
 3393      456C656D 
 3393      656E7453 
 3393      697A6520 
 3393      2900
 3394              		.text
 3395              		.align	2
 3396              		.global	SpecRev_Element
 3397              		.syntax unified
 3398              		.arm
 3399              		.fpu vfpv3
 3401              	SpecRev_Element:
 3402              	.LFB23:
 689:/home/hkh/git/eapidk-code-r76-trunk/apps/EeePProg/linux/../CfgPHelper.c **** 
 690:/home/hkh/git/eapidk-code-r76-trunk/apps/EeePProg/linux/../CfgPHelper.c **** EApiStatus_t
 691:/home/hkh/git/eapidk-code-r76-trunk/apps/EeePProg/linux/../CfgPHelper.c **** SpecRev_Element(
 692:/home/hkh/git/eapidk-code-r76-trunk/apps/EeePProg/linux/../CfgPHelper.c ****     struct  CfgElementDesc_s *pElementDesc, 
 693:/home/hkh/git/eapidk-code-r76-trunk/apps/EeePProg/linux/../CfgPHelper.c ****     void     *pCurElement,
 694:/home/hkh/git/eapidk-code-r76-trunk/apps/EeePProg/linux/../CfgPHelper.c ****     char   *szValue
 695:/home/hkh/git/eapidk-code-r76-trunk/apps/EeePProg/linux/../CfgPHelper.c ****   )
ARM GAS  /tmp/cc9qaG1x.s 			page 77


 696:/home/hkh/git/eapidk-code-r76-trunk/apps/EeePProg/linux/../CfgPHelper.c **** { 
 3403              		.loc 1 696 1
 3404              		.cfi_startproc
 3405              		@ args = 0, pretend = 0, frame = 32
 3406              		@ frame_needed = 1, uses_anonymous_args = 0
 3407 1db0 30482DE9 		push	{r4, r5, fp, lr}
 3408              		.cfi_def_cfa_offset 16
 3409              		.cfi_offset 4, -16
 3410              		.cfi_offset 5, -12
 3411              		.cfi_offset 11, -8
 3412              		.cfi_offset 14, -4
 3413 1db4 0CB08DE2 		add	fp, sp, #12
 3414              		.cfi_def_cfa 11, 4
 3415 1db8 30D04DE2 		sub	sp, sp, #48
 3416 1dbc 20000BE5 		str	r0, [fp, #-32]
 3417 1dc0 24100BE5 		str	r1, [fp, #-36]
 3418 1dc4 28200BE5 		str	r2, [fp, #-40]
 3419              		.loc 1 696 1
 3420 1dc8 98219FE5 		ldr	r2, .L167
 3421              	.LPIC147:
 3422 1dcc 02208FE0 		add	r2, pc, r2
 3423 1dd0 94319FE5 		ldr	r3, .L167+4
 3424 1dd4 033092E7 		ldr	r3, [r2, r3]
 3425 1dd8 003093E5 		ldr	r3, [r3]
 3426 1ddc 10300BE5 		str	r3, [fp, #-16]
 3427 1de0 0030A0E3 		mov	r3, #0
 697:/home/hkh/git/eapidk-code-r76-trunk/apps/EeePProg/linux/../CfgPHelper.c ****   EApiStatus_t StatusCode=EAPI_STATUS_SUCCESS;
 3428              		.loc 1 697 16
 3429 1de4 0030A0E3 		mov	r3, #0
 3430 1de8 18300BE5 		str	r3, [fp, #-24]
 698:/home/hkh/git/eapidk-code-r76-trunk/apps/EeePProg/linux/../CfgPHelper.c ****   unsigned int uiValue;
 699:/home/hkh/git/eapidk-code-r76-trunk/apps/EeePProg/linux/../CfgPHelper.c ****   char *szEnd;
 700:/home/hkh/git/eapidk-code-r76-trunk/apps/EeePProg/linux/../CfgPHelper.c ****   pElementDesc=pElementDesc;
 701:/home/hkh/git/eapidk-code-r76-trunk/apps/EeePProg/linux/../CfgPHelper.c ****   uiValue=(ulConvertStr2NumEx(szValue, &szEnd)&0xF)<<4;
 3431              		.loc 1 701 12
 3432 1dec 1C304BE2 		sub	r3, fp, #28
 3433 1df0 0310A0E1 		mov	r1, r3
 3434 1df4 28001BE5 		ldr	r0, [fp, #-40]
 3435 1df8 FEFFFFEB 		bl	ulConvertStr2NumEx(PLT)
 3436 1dfc 0030A0E1 		mov	r3, r0
 3437              		.loc 1 701 52
 3438 1e00 0332A0E1 		lsl	r3, r3, #4
 3439              		.loc 1 701 10
 3440 1e04 F03003E2 		and	r3, r3, #240
 3441 1e08 14300BE5 		str	r3, [fp, #-20]
 702:/home/hkh/git/eapidk-code-r76-trunk/apps/EeePProg/linux/../CfgPHelper.c ****   EAPI_APP_RETURN_ERROR_IF_S(
 3442              		.loc 1 702 3
 3443 1e0c 1C301BE5 		ldr	r3, [fp, #-28]
 3444 1e10 0030D3E5 		ldrb	r3, [r3]	@ zero_extendqisi2
 3445 1e14 2E0053E3 		cmp	r3, #46
 3446 1e18 1100000A 		beq	.L162
 3447              		.loc 1 702 3 is_stmt 0 discriminator 1
 3448 1e1c 4C319FE5 		ldr	r3, .L167+8
 3449              	.LPIC139:
 3450 1e20 03308FE0 		add	r3, pc, r3
 3451 1e24 08308DE5 		str	r3, [sp, #8]
 3452 1e28 44319FE5 		ldr	r3, .L167+12
ARM GAS  /tmp/cc9qaG1x.s 			page 78


 3453              	.LPIC140:
 3454 1e2c 03308FE0 		add	r3, pc, r3
 3455 1e30 04308DE5 		str	r3, [sp, #4]
 3456 1e34 0F3CE0E3 		mvn	r3, #3840
 3457 1e38 00308DE5 		str	r3, [sp]
 3458 1e3c BE3200E3 		movw	r3, #702
 3459 1e40 30219FE5 		ldr	r2, .L167+16
 3460              	.LPIC141:
 3461 1e44 02208FE0 		add	r2, pc, r2
 3462 1e48 2C119FE5 		ldr	r1, .L167+20
 3463              	.LPIC142:
 3464 1e4c 01108FE0 		add	r1, pc, r1
 3465 1e50 4500A0E3 		mov	r0, #69
 3466 1e54 FEFFFFEB 		bl	siFormattedMessage_SC(PLT)
 3467 1e58 0F3CE0E3 		mvn	r3, #3840
 3468 1e5c 18300BE5 		str	r3, [fp, #-24]
 3469 1e60 320000EA 		b	.L163
 3470              	.L162:
 703:/home/hkh/git/eapidk-code-r76-trunk/apps/EeePProg/linux/../CfgPHelper.c ****       SpecRev_Element,
 704:/home/hkh/git/eapidk-code-r76-trunk/apps/EeePProg/linux/../CfgPHelper.c ****       (*szEnd!='.'),
 705:/home/hkh/git/eapidk-code-r76-trunk/apps/EeePProg/linux/../CfgPHelper.c ****       EAPI_STATUS_ERROR
 706:/home/hkh/git/eapidk-code-r76-trunk/apps/EeePProg/linux/../CfgPHelper.c ****       );
 707:/home/hkh/git/eapidk-code-r76-trunk/apps/EeePProg/linux/../CfgPHelper.c ****   uiValue|=ulConvertStr2NumEx(szEnd+1, &szEnd)&0xF;
 3471              		.loc 1 707 12 is_stmt 1
 3472 1e64 1C301BE5 		ldr	r3, [fp, #-28]
 3473              		.loc 1 707 36
 3474 1e68 013083E2 		add	r3, r3, #1
 3475              		.loc 1 707 12
 3476 1e6c 1C204BE2 		sub	r2, fp, #28
 3477 1e70 0210A0E1 		mov	r1, r2
 3478 1e74 0300A0E1 		mov	r0, r3
 3479 1e78 FEFFFFEB 		bl	ulConvertStr2NumEx(PLT)
 3480 1e7c 0030A0E1 		mov	r3, r0
 3481              		.loc 1 707 47
 3482 1e80 0F3003E2 		and	r3, r3, #15
 3483              		.loc 1 707 10
 3484 1e84 14201BE5 		ldr	r2, [fp, #-20]
 3485 1e88 033082E1 		orr	r3, r2, r3
 3486 1e8c 14300BE5 		str	r3, [fp, #-20]
 708:/home/hkh/git/eapidk-code-r76-trunk/apps/EeePProg/linux/../CfgPHelper.c **** /*   printf("\tSpecRev_Element = 0x%04lX, %s\n", *(unsigned long*)pCurElement, szValue); */
 709:/home/hkh/git/eapidk-code-r76-trunk/apps/EeePProg/linux/../CfgPHelper.c ****   DO(AssignValue_VAB(
 3487              		.loc 1 709 3
 3488 1e90 14301BE5 		ldr	r3, [fp, #-20]
 3489 1e94 0020A0E3 		mov	r2, #0
 3490 1e98 0340A0E1 		mov	r4, r3
 3491 1e9c 0250A0E1 		mov	r5, r2
 3492 1ea0 20301BE5 		ldr	r3, [fp, #-32]
 3493 1ea4 283093E5 		ldr	r3, [r3, #40]
 3494 1ea8 0310A0E1 		mov	r1, r3
 3495 1eac 20301BE5 		ldr	r3, [fp, #-32]
 3496 1eb0 2C3093E5 		ldr	r3, [r3, #44]
 3497 1eb4 0320A0E1 		mov	r2, r3
 3498 1eb8 20301BE5 		ldr	r3, [fp, #-32]
 3499 1ebc 143093E5 		ldr	r3, [r3, #20]
 3500 1ec0 04308DE5 		str	r3, [sp, #4]
 3501 1ec4 00208DE5 		str	r2, [sp]
 3502 1ec8 0130A0E1 		mov	r3, r1
ARM GAS  /tmp/cc9qaG1x.s 			page 79


 3503 1ecc 24201BE5 		ldr	r2, [fp, #-36]
 3504 1ed0 0400A0E1 		mov	r0, r4
 3505 1ed4 0510A0E1 		mov	r1, r5
 3506 1ed8 FEFFFFEB 		bl	AssignValue_VAB(PLT)
 3507 1edc 18000BE5 		str	r0, [fp, #-24]
 3508 1ee0 18301BE5 		ldr	r3, [fp, #-24]
 3509 1ee4 000053E3 		cmp	r3, #0
 3510 1ee8 0F00000A 		beq	.L166
 3511              		.loc 1 709 3 is_stmt 0 discriminator 1
 3512 1eec 8C309FE5 		ldr	r3, .L167+24
 3513              	.LPIC143:
 3514 1ef0 03308FE0 		add	r3, pc, r3
 3515 1ef4 08308DE5 		str	r3, [sp, #8]
 3516 1ef8 84309FE5 		ldr	r3, .L167+28
 3517              	.LPIC144:
 3518 1efc 03308FE0 		add	r3, pc, r3
 3519 1f00 04308DE5 		str	r3, [sp, #4]
 3520 1f04 18301BE5 		ldr	r3, [fp, #-24]
 3521 1f08 00308DE5 		str	r3, [sp]
 3522 1f0c C53200E3 		movw	r3, #709
 3523 1f10 70209FE5 		ldr	r2, .L167+32
 3524              	.LPIC145:
 3525 1f14 02208FE0 		add	r2, pc, r2
 3526 1f18 6C109FE5 		ldr	r1, .L167+36
 3527              	.LPIC146:
 3528 1f1c 01108FE0 		add	r1, pc, r1
 3529 1f20 4500A0E3 		mov	r0, #69
 3530 1f24 FEFFFFEB 		bl	siFormattedMessage_SC(PLT)
 3531 1f28 000000EA 		b	.L163
 3532              	.L166:
 710:/home/hkh/git/eapidk-code-r76-trunk/apps/EeePProg/linux/../CfgPHelper.c ****             uiValue, 
 711:/home/hkh/git/eapidk-code-r76-trunk/apps/EeePProg/linux/../CfgPHelper.c ****             pCurElement, 
 712:/home/hkh/git/eapidk-code-r76-trunk/apps/EeePProg/linux/../CfgPHelper.c ****             (signed int)pElementDesc->stBitOffset  ,
 713:/home/hkh/git/eapidk-code-r76-trunk/apps/EeePProg/linux/../CfgPHelper.c ****             (signed int)pElementDesc->stBitLength     , 
 714:/home/hkh/git/eapidk-code-r76-trunk/apps/EeePProg/linux/../CfgPHelper.c ****             (signed int)pElementDesc->Instances.stElementSize
 715:/home/hkh/git/eapidk-code-r76-trunk/apps/EeePProg/linux/../CfgPHelper.c ****           ));
 716:/home/hkh/git/eapidk-code-r76-trunk/apps/EeePProg/linux/../CfgPHelper.c **** EAPI_APP_ASSERT_EXIT
 3533              		.loc 1 716 1 is_stmt 1
 3534 1f2c 00F020E3 		nop
 3535              	.L163:
 717:/home/hkh/git/eapidk-code-r76-trunk/apps/EeePProg/linux/../CfgPHelper.c ****   return StatusCode;
 3536              		.loc 1 717 10
 3537 1f30 18301BE5 		ldr	r3, [fp, #-24]
 696:/home/hkh/git/eapidk-code-r76-trunk/apps/EeePProg/linux/../CfgPHelper.c ****   EApiStatus_t StatusCode=EAPI_STATUS_SUCCESS;
 3538              		.loc 1 696 1
 3539 1f34 54109FE5 		ldr	r1, .L167+40
 3540              	.LPIC148:
 3541 1f38 01108FE0 		add	r1, pc, r1
 718:/home/hkh/git/eapidk-code-r76-trunk/apps/EeePProg/linux/../CfgPHelper.c **** }
 3542              		.loc 1 718 1
 3543 1f3c 28209FE5 		ldr	r2, .L167+4
 3544 1f40 022091E7 		ldr	r2, [r1, r2]
 3545 1f44 001092E5 		ldr	r1, [r2]
 3546 1f48 10201BE5 		ldr	r2, [fp, #-16]
 3547 1f4c 011032E0 		eors	r1, r2, r1
 3548 1f50 0020A0E3 		mov	r2, #0
 3549 1f54 0000000A 		beq	.L165
ARM GAS  /tmp/cc9qaG1x.s 			page 80


 3550 1f58 FEFFFFEB 		bl	__stack_chk_fail(PLT)
 3551              	.L165:
 3552 1f5c 0300A0E1 		mov	r0, r3
 3553 1f60 0CD04BE2 		sub	sp, fp, #12
 3554              		.cfi_def_cfa 13, 16
 3555              		@ sp needed
 3556 1f64 3088BDE8 		pop	{r4, r5, fp, pc}
 3557              	.L168:
 3558              		.align	2
 3559              	.L167:
 3560 1f68 94010000 		.word	_GLOBAL_OFFSET_TABLE_-(.LPIC147+8)
 3561 1f6c 00000000 		.word	__stack_chk_guard(GOT)
 3562 1f70 380B0000 		.word	.LC61-(.LPIC139+8)
 3563 1f74 C4010000 		.word	.LC3-(.LPIC140+8)
 3564 1f78 0C0B0000 		.word	.LC60-(.LPIC141+8)
 3565 1f7c 2C010000 		.word	.LC1-(.LPIC142+8)
 3566 1f80 880A0000 		.word	.LC62-(.LPIC143+8)
 3567 1f84 04010000 		.word	.LC3-(.LPIC144+8)
 3568 1f88 6C000000 		.word	.LC0-(.LPIC145+8)
 3569 1f8c 6C000000 		.word	.LC1-(.LPIC146+8)
 3570 1f90 50000000 		.word	_GLOBAL_OFFSET_TABLE_-(.LPIC148+8)
 3571              		.cfi_endproc
 3572              	.LFE23:
 3574              		.section	.rodata
 3575 0aab 00       		.align	2
 3576              	.LC63:
 3577 0aac 504E5049 		.ascii	"PNPID_Element\000"
 3577      445F456C 
 3577      656D656E 
 3577      7400
 3578 0aba 0000     		.align	2
 3579              	.LC64:
 3580 0abc 28737472 		.ascii	"(strlen(szValue)!=3)\000"
 3580      6C656E28 
 3580      737A5661 
 3580      6C756529 
 3580      213D3329 
 3581 0ad1 000000   		.align	2
 3582              	.LC65:
 3583 0ad4 28756943 		.ascii	"(uiCurChar<'A'||uiCurChar>'Z')\000"
 3583      75724368 
 3583      61723C27 
 3583      41277C7C 
 3583      75694375 
 3584 0af3 00       		.align	2
 3585              	.LC66:
 3586 0af4 41737369 		.ascii	"AssignValue_VAB( uiPNPID, pCurElement, (signed int)"
 3586      676E5661 
 3586      6C75655F 
 3586      56414228 
 3586      20756950 
 3587 0b27 70456C65 		.ascii	"pElementDesc->stBitOffset , (signed int)pElementDes"
 3587      6D656E74 
 3587      44657363 
 3587      2D3E7374 
 3587      4269744F 
 3588 0b5a 632D3E73 		.ascii	"c->stBitLength , (signed int)pElementDesc->Instance"
ARM GAS  /tmp/cc9qaG1x.s 			page 81


 3588      74426974 
 3588      4C656E67 
 3588      7468202C 
 3588      20287369 
 3589 0b8d 732E7374 		.ascii	"s.stElementSize )\000"
 3589      456C656D 
 3589      656E7453 
 3589      697A6520 
 3589      2900
 3590              		.text
 3591              		.align	2
 3592              		.global	PNPID_Element
 3593              		.syntax unified
 3594              		.arm
 3595              		.fpu vfpv3
 3597              	PNPID_Element:
 3598              	.LFB24:
 719:/home/hkh/git/eapidk-code-r76-trunk/apps/EeePProg/linux/../CfgPHelper.c **** EApiStatus_t
 720:/home/hkh/git/eapidk-code-r76-trunk/apps/EeePProg/linux/../CfgPHelper.c **** PNPID_Element(
 721:/home/hkh/git/eapidk-code-r76-trunk/apps/EeePProg/linux/../CfgPHelper.c ****     struct  CfgElementDesc_s *pElementDesc, 
 722:/home/hkh/git/eapidk-code-r76-trunk/apps/EeePProg/linux/../CfgPHelper.c ****     void          *pCurElement,
 723:/home/hkh/git/eapidk-code-r76-trunk/apps/EeePProg/linux/../CfgPHelper.c ****     char          *szValue
 724:/home/hkh/git/eapidk-code-r76-trunk/apps/EeePProg/linux/../CfgPHelper.c ****   )
 725:/home/hkh/git/eapidk-code-r76-trunk/apps/EeePProg/linux/../CfgPHelper.c **** { 
 3599              		.loc 1 725 1
 3600              		.cfi_startproc
 3601              		@ args = 0, pretend = 0, frame = 32
 3602              		@ frame_needed = 1, uses_anonymous_args = 0
 3603 1f94 30482DE9 		push	{r4, r5, fp, lr}
 3604              		.cfi_def_cfa_offset 16
 3605              		.cfi_offset 4, -16
 3606              		.cfi_offset 5, -12
 3607              		.cfi_offset 11, -8
 3608              		.cfi_offset 14, -4
 3609 1f98 0CB08DE2 		add	fp, sp, #12
 3610              		.cfi_def_cfa 11, 4
 3611 1f9c 30D04DE2 		sub	sp, sp, #48
 3612 1fa0 20000BE5 		str	r0, [fp, #-32]
 3613 1fa4 24100BE5 		str	r1, [fp, #-36]
 3614 1fa8 28200BE5 		str	r2, [fp, #-40]
 726:/home/hkh/git/eapidk-code-r76-trunk/apps/EeePProg/linux/../CfgPHelper.c ****   EApiStatus_t StatusCode=EAPI_STATUS_SUCCESS;
 3615              		.loc 1 726 16
 3616 1fac 0030A0E3 		mov	r3, #0
 3617 1fb0 1C300BE5 		str	r3, [fp, #-28]
 727:/home/hkh/git/eapidk-code-r76-trunk/apps/EeePProg/linux/../CfgPHelper.c ****   unsigned int i;
 728:/home/hkh/git/eapidk-code-r76-trunk/apps/EeePProg/linux/../CfgPHelper.c ****   unsigned int uiCurChar;
 729:/home/hkh/git/eapidk-code-r76-trunk/apps/EeePProg/linux/../CfgPHelper.c ****   unsigned int uiPNPID=0;
 3618              		.loc 1 729 16
 3619 1fb4 0030A0E3 		mov	r3, #0
 3620 1fb8 14300BE5 		str	r3, [fp, #-20]
 730:/home/hkh/git/eapidk-code-r76-trunk/apps/EeePProg/linux/../CfgPHelper.c ****   stripWhiteSpaces(szValue);
 3621              		.loc 1 730 3
 3622 1fbc 28001BE5 		ldr	r0, [fp, #-40]
 3623 1fc0 FEFFFFEB 		bl	stripWhiteSpaces(PLT)
 731:/home/hkh/git/eapidk-code-r76-trunk/apps/EeePProg/linux/../CfgPHelper.c **** 
 732:/home/hkh/git/eapidk-code-r76-trunk/apps/EeePProg/linux/../CfgPHelper.c ****   EAPI_APP_ASSERT_PARAMATER_CHECK_S(
 3624              		.loc 1 732 3
ARM GAS  /tmp/cc9qaG1x.s 			page 82


 3625 1fc4 20301BE5 		ldr	r3, [fp, #-32]
 3626 1fc8 143093E5 		ldr	r3, [r3, #20]
 3627 1fcc 010053E3 		cmp	r3, #1
 3628 1fd0 1100008A 		bhi	.L170
 3629              		.loc 1 732 3 is_stmt 0 discriminator 1
 3630 1fd4 64329FE5 		ldr	r3, .L180
 3631              	.LPIC149:
 3632 1fd8 03308FE0 		add	r3, pc, r3
 3633 1fdc 08308DE5 		str	r3, [sp, #8]
 3634 1fe0 5C329FE5 		ldr	r3, .L180+4
 3635              	.LPIC150:
 3636 1fe4 03308FE0 		add	r3, pc, r3
 3637 1fe8 04308DE5 		str	r3, [sp, #4]
 3638 1fec 013CE0E3 		mvn	r3, #256
 3639 1ff0 00308DE5 		str	r3, [sp]
 3640 1ff4 B73FA0E3 		mov	r3, #732
 3641 1ff8 48229FE5 		ldr	r2, .L180+8
 3642              	.LPIC151:
 3643 1ffc 02208FE0 		add	r2, pc, r2
 3644 2000 44129FE5 		ldr	r1, .L180+12
 3645              	.LPIC152:
 3646 2004 01108FE0 		add	r1, pc, r1
 3647 2008 4500A0E3 		mov	r0, #69
 3648 200c FEFFFFEB 		bl	siFormattedMessage_SC(PLT)
 3649 2010 013CE0E3 		mvn	r3, #256
 3650 2014 1C300BE5 		str	r3, [fp, #-28]
 3651 2018 840000EA 		b	.L171
 3652              	.L170:
 733:/home/hkh/git/eapidk-code-r76-trunk/apps/EeePProg/linux/../CfgPHelper.c ****                 PNPID_Element,
 734:/home/hkh/git/eapidk-code-r76-trunk/apps/EeePProg/linux/../CfgPHelper.c ****                 EAPI_STATUS_INVALID_PARAMETER,
 735:/home/hkh/git/eapidk-code-r76-trunk/apps/EeePProg/linux/../CfgPHelper.c ****                 pElementDesc->Instances.stElementSize < sizeof(uint16_t)
 736:/home/hkh/git/eapidk-code-r76-trunk/apps/EeePProg/linux/../CfgPHelper.c ****         );
 737:/home/hkh/git/eapidk-code-r76-trunk/apps/EeePProg/linux/../CfgPHelper.c ****   EAPI_APP_ASSERT_PARAMATER_CHECK_S(
 3653              		.loc 1 737 3 is_stmt 1
 3654 201c 20301BE5 		ldr	r3, [fp, #-32]
 3655 2020 2C3093E5 		ldr	r3, [r3, #44]
 3656 2024 0F0053E3 		cmp	r3, #15
 3657 2028 1100008A 		bhi	.L172
 3658              		.loc 1 737 3 is_stmt 0 discriminator 1
 3659 202c 1C329FE5 		ldr	r3, .L180+16
 3660              	.LPIC153:
 3661 2030 03308FE0 		add	r3, pc, r3
 3662 2034 08308DE5 		str	r3, [sp, #8]
 3663 2038 14329FE5 		ldr	r3, .L180+20
 3664              	.LPIC154:
 3665 203c 03308FE0 		add	r3, pc, r3
 3666 2040 04308DE5 		str	r3, [sp, #4]
 3667 2044 013CE0E3 		mvn	r3, #256
 3668 2048 00308DE5 		str	r3, [sp]
 3669 204c E13200E3 		movw	r3, #737
 3670 2050 00229FE5 		ldr	r2, .L180+24
 3671              	.LPIC155:
 3672 2054 02208FE0 		add	r2, pc, r2
 3673 2058 FC119FE5 		ldr	r1, .L180+28
 3674              	.LPIC156:
 3675 205c 01108FE0 		add	r1, pc, r1
 3676 2060 4500A0E3 		mov	r0, #69
ARM GAS  /tmp/cc9qaG1x.s 			page 83


 3677 2064 FEFFFFEB 		bl	siFormattedMessage_SC(PLT)
 3678 2068 013CE0E3 		mvn	r3, #256
 3679 206c 1C300BE5 		str	r3, [fp, #-28]
 3680 2070 6E0000EA 		b	.L171
 3681              	.L172:
 738:/home/hkh/git/eapidk-code-r76-trunk/apps/EeePProg/linux/../CfgPHelper.c ****                 PNPID_Element,
 739:/home/hkh/git/eapidk-code-r76-trunk/apps/EeePProg/linux/../CfgPHelper.c ****                 EAPI_STATUS_INVALID_PARAMETER,
 740:/home/hkh/git/eapidk-code-r76-trunk/apps/EeePProg/linux/../CfgPHelper.c ****                 pElementDesc->stBitLength < 8*sizeof(uint16_t)
 741:/home/hkh/git/eapidk-code-r76-trunk/apps/EeePProg/linux/../CfgPHelper.c ****         );
 742:/home/hkh/git/eapidk-code-r76-trunk/apps/EeePProg/linux/../CfgPHelper.c **** 
 743:/home/hkh/git/eapidk-code-r76-trunk/apps/EeePProg/linux/../CfgPHelper.c ****   EAPI_APP_RETURN_ERROR_IF_S(
 3682              		.loc 1 743 3 is_stmt 1
 3683 2074 28001BE5 		ldr	r0, [fp, #-40]
 3684 2078 FEFFFFEB 		bl	strlen(PLT)
 3685 207c 0030A0E1 		mov	r3, r0
 3686 2080 030053E3 		cmp	r3, #3
 3687 2084 1100000A 		beq	.L173
 3688              		.loc 1 743 3 is_stmt 0 discriminator 1
 3689 2088 D0319FE5 		ldr	r3, .L180+32
 3690              	.LPIC157:
 3691 208c 03308FE0 		add	r3, pc, r3
 3692 2090 08308DE5 		str	r3, [sp, #8]
 3693 2094 C8319FE5 		ldr	r3, .L180+36
 3694              	.LPIC158:
 3695 2098 03308FE0 		add	r3, pc, r3
 3696 209c 04308DE5 		str	r3, [sp, #4]
 3697 20a0 0F3CE0E3 		mvn	r3, #3840
 3698 20a4 00308DE5 		str	r3, [sp]
 3699 20a8 E73200E3 		movw	r3, #743
 3700 20ac B4219FE5 		ldr	r2, .L180+40
 3701              	.LPIC159:
 3702 20b0 02208FE0 		add	r2, pc, r2
 3703 20b4 B0119FE5 		ldr	r1, .L180+44
 3704              	.LPIC160:
 3705 20b8 01108FE0 		add	r1, pc, r1
 3706 20bc 4500A0E3 		mov	r0, #69
 3707 20c0 FEFFFFEB 		bl	siFormattedMessage_SC(PLT)
 3708 20c4 0F3CE0E3 		mvn	r3, #3840
 3709 20c8 1C300BE5 		str	r3, [fp, #-28]
 3710 20cc 570000EA 		b	.L171
 3711              	.L173:
 744:/home/hkh/git/eapidk-code-r76-trunk/apps/EeePProg/linux/../CfgPHelper.c ****       PNPID_Element,
 745:/home/hkh/git/eapidk-code-r76-trunk/apps/EeePProg/linux/../CfgPHelper.c ****       (strlen(szValue)!=3),
 746:/home/hkh/git/eapidk-code-r76-trunk/apps/EeePProg/linux/../CfgPHelper.c ****       EAPI_STATUS_ERROR
 747:/home/hkh/git/eapidk-code-r76-trunk/apps/EeePProg/linux/../CfgPHelper.c ****       );
 748:/home/hkh/git/eapidk-code-r76-trunk/apps/EeePProg/linux/../CfgPHelper.c **** 
 749:/home/hkh/git/eapidk-code-r76-trunk/apps/EeePProg/linux/../CfgPHelper.c ****   for(i=3;i--;){
 3712              		.loc 1 749 8 is_stmt 1
 3713 20d0 0330A0E3 		mov	r3, #3
 3714 20d4 18300BE5 		str	r3, [fp, #-24]
 3715              		.loc 1 749 3
 3716 20d8 270000EA 		b	.L174
 3717              	.L177:
 750:/home/hkh/git/eapidk-code-r76-trunk/apps/EeePProg/linux/../CfgPHelper.c ****     uiCurChar=toupper(*szValue++);
 3718              		.loc 1 750 31
 3719 20dc 28301BE5 		ldr	r3, [fp, #-40]
 3720 20e0 012083E2 		add	r2, r3, #1
ARM GAS  /tmp/cc9qaG1x.s 			page 84


 3721 20e4 28200BE5 		str	r2, [fp, #-40]
 3722              		.loc 1 750 23
 3723 20e8 0030D3E5 		ldrb	r3, [r3]	@ zero_extendqisi2
 3724              		.loc 1 750 15
 3725 20ec 0300A0E1 		mov	r0, r3
 3726 20f0 FEFFFFEB 		bl	toupper(PLT)
 3727 20f4 0030A0E1 		mov	r3, r0
 3728              		.loc 1 750 14
 3729 20f8 10300BE5 		str	r3, [fp, #-16]
 751:/home/hkh/git/eapidk-code-r76-trunk/apps/EeePProg/linux/../CfgPHelper.c ****     EAPI_APP_RETURN_ERROR_IF_S(
 3730              		.loc 1 751 5
 3731 20fc 10301BE5 		ldr	r3, [fp, #-16]
 3732 2100 400053E3 		cmp	r3, #64
 3733 2104 0200009A 		bls	.L175
 3734              		.loc 1 751 5 is_stmt 0 discriminator 2
 3735 2108 10301BE5 		ldr	r3, [fp, #-16]
 3736 210c 5A0053E3 		cmp	r3, #90
 3737 2110 1100009A 		bls	.L176
 3738              	.L175:
 3739              		.loc 1 751 5 discriminator 3
 3740 2114 54319FE5 		ldr	r3, .L180+48
 3741              	.LPIC161:
 3742 2118 03308FE0 		add	r3, pc, r3
 3743 211c 08308DE5 		str	r3, [sp, #8]
 3744 2120 4C319FE5 		ldr	r3, .L180+52
 3745              	.LPIC162:
 3746 2124 03308FE0 		add	r3, pc, r3
 3747 2128 04308DE5 		str	r3, [sp, #4]
 3748 212c 0F3CE0E3 		mvn	r3, #3840
 3749 2130 00308DE5 		str	r3, [sp]
 3750 2134 EF3200E3 		movw	r3, #751
 3751 2138 38219FE5 		ldr	r2, .L180+56
 3752              	.LPIC163:
 3753 213c 02208FE0 		add	r2, pc, r2
 3754 2140 34119FE5 		ldr	r1, .L180+60
 3755              	.LPIC164:
 3756 2144 01108FE0 		add	r1, pc, r1
 3757 2148 4500A0E3 		mov	r0, #69
 3758 214c FEFFFFEB 		bl	siFormattedMessage_SC(PLT)
 3759 2150 0F3CE0E3 		mvn	r3, #3840
 3760 2154 1C300BE5 		str	r3, [fp, #-28]
 3761 2158 340000EA 		b	.L171
 3762              	.L176:
 752:/home/hkh/git/eapidk-code-r76-trunk/apps/EeePProg/linux/../CfgPHelper.c ****         PNPID_Element,
 753:/home/hkh/git/eapidk-code-r76-trunk/apps/EeePProg/linux/../CfgPHelper.c ****         (uiCurChar<'A'||uiCurChar>'Z'),
 754:/home/hkh/git/eapidk-code-r76-trunk/apps/EeePProg/linux/../CfgPHelper.c ****         EAPI_STATUS_ERROR
 755:/home/hkh/git/eapidk-code-r76-trunk/apps/EeePProg/linux/../CfgPHelper.c ****       );
 756:/home/hkh/git/eapidk-code-r76-trunk/apps/EeePProg/linux/../CfgPHelper.c ****     uiPNPID<<=5;
 3763              		.loc 1 756 12 is_stmt 1
 3764 215c 14301BE5 		ldr	r3, [fp, #-20]
 3765 2160 8332A0E1 		lsl	r3, r3, #5
 3766 2164 14300BE5 		str	r3, [fp, #-20]
 757:/home/hkh/git/eapidk-code-r76-trunk/apps/EeePProg/linux/../CfgPHelper.c ****     uiPNPID|=uiCurChar - 'A'+1;
 3767              		.loc 1 757 29
 3768 2168 10301BE5 		ldr	r3, [fp, #-16]
 3769 216c 403043E2 		sub	r3, r3, #64
 3770              		.loc 1 757 12
ARM GAS  /tmp/cc9qaG1x.s 			page 85


 3771 2170 14201BE5 		ldr	r2, [fp, #-20]
 3772 2174 033082E1 		orr	r3, r2, r3
 3773 2178 14300BE5 		str	r3, [fp, #-20]
 3774              	.L174:
 749:/home/hkh/git/eapidk-code-r76-trunk/apps/EeePProg/linux/../CfgPHelper.c ****     uiCurChar=toupper(*szValue++);
 3775              		.loc 1 749 12 discriminator 1
 3776 217c 18301BE5 		ldr	r3, [fp, #-24]
 3777 2180 012043E2 		sub	r2, r3, #1
 3778 2184 18200BE5 		str	r2, [fp, #-24]
 749:/home/hkh/git/eapidk-code-r76-trunk/apps/EeePProg/linux/../CfgPHelper.c ****     uiCurChar=toupper(*szValue++);
 3779              		.loc 1 749 11 discriminator 1
 3780 2188 000053E3 		cmp	r3, #0
 3781 218c D2FFFF1A 		bne	.L177
 758:/home/hkh/git/eapidk-code-r76-trunk/apps/EeePProg/linux/../CfgPHelper.c ****   }
 759:/home/hkh/git/eapidk-code-r76-trunk/apps/EeePProg/linux/../CfgPHelper.c ****   DO(AssignValue_VAB(
 3782              		.loc 1 759 3
 3783 2190 14301BE5 		ldr	r3, [fp, #-20]
 3784 2194 0020A0E3 		mov	r2, #0
 3785 2198 0340A0E1 		mov	r4, r3
 3786 219c 0250A0E1 		mov	r5, r2
 3787 21a0 20301BE5 		ldr	r3, [fp, #-32]
 3788 21a4 283093E5 		ldr	r3, [r3, #40]
 3789 21a8 0310A0E1 		mov	r1, r3
 3790 21ac 20301BE5 		ldr	r3, [fp, #-32]
 3791 21b0 2C3093E5 		ldr	r3, [r3, #44]
 3792 21b4 0320A0E1 		mov	r2, r3
 3793 21b8 20301BE5 		ldr	r3, [fp, #-32]
 3794 21bc 143093E5 		ldr	r3, [r3, #20]
 3795 21c0 04308DE5 		str	r3, [sp, #4]
 3796 21c4 00208DE5 		str	r2, [sp]
 3797 21c8 0130A0E1 		mov	r3, r1
 3798 21cc 24201BE5 		ldr	r2, [fp, #-36]
 3799 21d0 0400A0E1 		mov	r0, r4
 3800 21d4 0510A0E1 		mov	r1, r5
 3801 21d8 FEFFFFEB 		bl	AssignValue_VAB(PLT)
 3802 21dc 1C000BE5 		str	r0, [fp, #-28]
 3803 21e0 1C301BE5 		ldr	r3, [fp, #-28]
 3804 21e4 000053E3 		cmp	r3, #0
 3805 21e8 0F00000A 		beq	.L179
 3806              		.loc 1 759 3 is_stmt 0 discriminator 1
 3807 21ec 8C309FE5 		ldr	r3, .L180+64
 3808              	.LPIC165:
 3809 21f0 03308FE0 		add	r3, pc, r3
 3810 21f4 08308DE5 		str	r3, [sp, #8]
 3811 21f8 84309FE5 		ldr	r3, .L180+68
 3812              	.LPIC166:
 3813 21fc 03308FE0 		add	r3, pc, r3
 3814 2200 04308DE5 		str	r3, [sp, #4]
 3815 2204 1C301BE5 		ldr	r3, [fp, #-28]
 3816 2208 00308DE5 		str	r3, [sp]
 3817 220c F73200E3 		movw	r3, #759
 3818 2210 70209FE5 		ldr	r2, .L180+72
 3819              	.LPIC167:
 3820 2214 02208FE0 		add	r2, pc, r2
 3821 2218 6C109FE5 		ldr	r1, .L180+76
 3822              	.LPIC168:
 3823 221c 01108FE0 		add	r1, pc, r1
ARM GAS  /tmp/cc9qaG1x.s 			page 86


 3824 2220 4500A0E3 		mov	r0, #69
 3825 2224 FEFFFFEB 		bl	siFormattedMessage_SC(PLT)
 3826 2228 000000EA 		b	.L171
 3827              	.L179:
 760:/home/hkh/git/eapidk-code-r76-trunk/apps/EeePProg/linux/../CfgPHelper.c ****             uiPNPID, 
 761:/home/hkh/git/eapidk-code-r76-trunk/apps/EeePProg/linux/../CfgPHelper.c ****             pCurElement, 
 762:/home/hkh/git/eapidk-code-r76-trunk/apps/EeePProg/linux/../CfgPHelper.c ****             (signed int)pElementDesc->stBitOffset  ,
 763:/home/hkh/git/eapidk-code-r76-trunk/apps/EeePProg/linux/../CfgPHelper.c ****             (signed int)pElementDesc->stBitLength  , 
 764:/home/hkh/git/eapidk-code-r76-trunk/apps/EeePProg/linux/../CfgPHelper.c ****             (signed int)pElementDesc->Instances.stElementSize
 765:/home/hkh/git/eapidk-code-r76-trunk/apps/EeePProg/linux/../CfgPHelper.c ****           ));
 766:/home/hkh/git/eapidk-code-r76-trunk/apps/EeePProg/linux/../CfgPHelper.c **** /*   printf("\tPNPID_Element = 0x%04lX, %s\n", *(unsigned long*)pCurElement, szValue); */
 767:/home/hkh/git/eapidk-code-r76-trunk/apps/EeePProg/linux/../CfgPHelper.c **** EAPI_APP_ASSERT_EXIT
 3828              		.loc 1 767 1 is_stmt 1
 3829 222c 00F020E3 		nop
 3830              	.L171:
 768:/home/hkh/git/eapidk-code-r76-trunk/apps/EeePProg/linux/../CfgPHelper.c ****   return StatusCode;
 3831              		.loc 1 768 10
 3832 2230 1C301BE5 		ldr	r3, [fp, #-28]
 769:/home/hkh/git/eapidk-code-r76-trunk/apps/EeePProg/linux/../CfgPHelper.c **** }
 3833              		.loc 1 769 1
 3834 2234 0300A0E1 		mov	r0, r3
 3835 2238 0CD04BE2 		sub	sp, fp, #12
 3836              		.cfi_def_cfa 13, 16
 3837              		@ sp needed
 3838 223c 3088BDE8 		pop	{r4, r5, fp, pc}
 3839              	.L181:
 3840              		.align	2
 3841              	.L180:
 3842 2240 8C090000 		.word	.LC52-(.LPIC149+8)
 3843 2244 DC020000 		.word	.LC3-(.LPIC150+8)
 3844 2248 F00C0000 		.word	.LC63-(.LPIC151+8)
 3845 224c 44020000 		.word	.LC1-(.LPIC152+8)
 3846 2250 80090000 		.word	.LC53-(.LPIC153+8)
 3847 2254 94020000 		.word	.LC3-(.LPIC154+8)
 3848 2258 A80C0000 		.word	.LC63-(.LPIC155+8)
 3849 225c FC010000 		.word	.LC1-(.LPIC156+8)
 3850 2260 880C0000 		.word	.LC64-(.LPIC157+8)
 3851 2264 48020000 		.word	.LC3-(.LPIC158+8)
 3852 2268 5C0C0000 		.word	.LC63-(.LPIC159+8)
 3853 226c B0010000 		.word	.LC1-(.LPIC160+8)
 3854 2270 240C0000 		.word	.LC65-(.LPIC161+8)
 3855 2274 CC010000 		.word	.LC3-(.LPIC162+8)
 3856 2278 E00B0000 		.word	.LC63-(.LPIC163+8)
 3857 227c 34010000 		.word	.LC1-(.LPIC164+8)
 3858 2280 7C0B0000 		.word	.LC66-(.LPIC165+8)
 3859 2284 04010000 		.word	.LC3-(.LPIC166+8)
 3860 2288 6C000000 		.word	.LC0-(.LPIC167+8)
 3861 228c 6C000000 		.word	.LC1-(.LPIC168+8)
 3862              		.cfi_endproc
 3863              	.LFE24:
 3865              		.global	UINT8Range
 3866              		.data
 3867              		.align	2
 3870              	UINT8Range:
 3871 0000 00000000 		.word	0
 3872 0004 FF000000 		.word	255
 3873 0008 01000000 		.word	1
ARM GAS  /tmp/cc9qaG1x.s 			page 87


 3874              		.global	UINT8RangeDesc
 3875              		.section	.data.rel.local
 3876              		.align	2
 3879              	UINT8RangeDesc:
 3880 00c0 01000000 		.word	1
 3881 00c4 00000000 		.word	UINT8Range
 3882              		.global	UINT16Range
 3883              		.data
 3884              		.align	2
 3887              	UINT16Range:
 3888 000c 00000000 		.word	0
 3889 0010 FFFF0000 		.word	65535
 3890 0014 01000000 		.word	1
 3891              		.global	UINT16RangeDesc
 3892              		.section	.data.rel.local
 3893              		.align	2
 3896              	UINT16RangeDesc:
 3897 00c8 01000000 		.word	1
 3898 00cc 00000000 		.word	UINT16Range
 3899              		.global	UINT32Range
 3900              		.data
 3901              		.align	2
 3904              	UINT32Range:
 3905 0018 00000000 		.word	0
 3906 001c FFFFFFFF 		.word	-1
 3907 0020 01000000 		.word	1
 3908              		.global	UINT32RangeDesc
 3909              		.section	.data.rel.local
 3910              		.align	2
 3913              	UINT32RangeDesc:
 3914 00d0 01000000 		.word	1
 3915 00d4 00000000 		.word	UINT32Range
 3916              		.global	InsideCrcTokens
 3917              		.section	.rodata
 3918 0b9f 00       		.align	2
 3919              	.LC67:
 3920 0ba0 496E7369 		.ascii	"InsideCRC\000"
 3920      64654352 
 3920      4300
 3921 0baa 0000     		.align	2
 3922              	.LC68:
 3923 0bac 4F757473 		.ascii	"OutsideCRC\000"
 3923      69646543 
 3923      524300
 3924              		.section	.data.rel.local
 3925              		.align	2
 3928              	InsideCrcTokens:
 3929 00d8 A00B0000 		.word	.LC67
 3930 00dc 01000000 		.word	1
 3931 00e0 AC0B0000 		.word	.LC68
 3932 00e4 00000000 		.word	0
 3933              		.global	InsideCrcTL
 3934              		.align	2
 3937              	InsideCrcTL:
 3938 00e8 02000000 		.word	2
 3939 00ec 00000000 		.word	InsideCrcTokens
 3940              		.global	PreserveTrailingSpaces
ARM GAS  /tmp/cc9qaG1x.s 			page 88


 3941              		.data
 3942              		.align	2
 3945              	PreserveTrailingSpaces:
 3946 0024 00000000 		.word	0
 3947 0028 00000000 		.word	0
 3948 002c 01000000 		.word	1
 3949              		.global	DeleteTrailingSpaces
 3950              		.bss
 3951              		.align	2
 3954              	DeleteTrailingSpaces:
 3955 0000 00000000 		.space	12
 3955      00000000 
 3955      00000000 
 3956              		.text
 3957              	.Letext0:
 3958              		.file 2 "/home/hkh/buildroot-2022.02/output/host/arm-buildroot-linux-musleabihf/sysroot/usr/includ
 3959              		.file 3 "../../../include/EApi.h"
 3960              		.file 4 "../RangeFunc.h"
 3961              		.file 5 "../TokenFunc.h"
 3962              		.file 6 "../CfgParse.h"
 3963              		.file 7 "../../../include/EeeP.h"
 3964              		.file 8 "../StrFuncs.h"
 3965              		.file 9 "/home/hkh/buildroot-2022.02/output/host/arm-buildroot-linux-musleabihf/sysroot/usr/includ
 3966              		.file 10 "../Str2Value.h"
 3967              		.file 11 "../EeePApp.h"
 3968              		.file 12 "/home/hkh/buildroot-2022.02/output/host/arm-buildroot-linux-musleabihf/sysroot/usr/inclu
 3969              		.file 13 "/home/hkh/buildroot-2022.02/output/host/arm-buildroot-linux-musleabihf/sysroot/usr/inclu
 3970              		.file 14 "/home/hkh/buildroot-2022.02/output/host/arm-buildroot-linux-musleabihf/sysroot/usr/inclu
 3971              		.file 15 "../../include/EApiAHStr.h"
 3972              		.file 16 "../../include/DbgChk.h"
ARM GAS  /tmp/cc9qaG1x.s 			page 89

