	.cpu cortex-a9
	.eabi_attribute 28, 1
	.eabi_attribute 20, 1
	.eabi_attribute 21, 1
	.eabi_attribute 23, 3
	.eabi_attribute 24, 1
	.eabi_attribute 25, 1
	.eabi_attribute 26, 2
	.eabi_attribute 30, 6
	.eabi_attribute 34, 1
	.eabi_attribute 18, 4
	.file	"CfgPHelper.c"
	.text
.Ltext0:
	.cfi_sections	.debug_frame
	.global	String_Element_funcs
	.section	.data.rel.local,"aw"
	.align	2
	.type	String_Element_funcs, %object
	.size	String_Element_funcs, 16
String_Element_funcs:
	.word	String_Element
	.word	Dealloc_Element
	.word	String_Help
	.word	No_Default_Txt
	.global	Number_Element_funcs
	.align	2
	.type	Number_Element_funcs, %object
	.size	Number_Element_funcs, 16
Number_Element_funcs:
	.word	Number_Element
	.word	GenClear_Element
	.word	Range_List_Help
	.word	Range_Default_Txt
	.global	Size_Element_funcs
	.align	2
	.type	Size_Element_funcs, %object
	.size	Size_Element_funcs, 16
Size_Element_funcs:
	.word	Size_Element
	.word	GenClear_Element
	.word	Range_List_Help
	.word	Range_Default_Txt
	.global	TokenNum_Element_funcs
	.align	2
	.type	TokenNum_Element_funcs, %object
	.size	TokenNum_Element_funcs, 16
TokenNum_Element_funcs:
	.word	TokenNum_Element
	.word	GenClear_Element
	.word	TokenNum_List_Help
	.word	TokenNum_List_Default
	.global	Token_Element_funcs
	.align	2
	.type	Token_Element_funcs, %object
	.size	Token_Element_funcs, 16
Token_Element_funcs:
	.word	Token_Element
	.word	GenClear_Element
	.word	Token_List_Help
	.word	Token_List_Default
	.global	SpecRev_Element_funcs
	.align	2
	.type	SpecRev_Element_funcs, %object
	.size	SpecRev_Element_funcs, 16
SpecRev_Element_funcs:
	.word	SpecRev_Element
	.word	GenClear_Element
	.word	SpecRev_Help
	.word	No_Default_Txt
	.global	PNPID_Element_funcs
	.align	2
	.type	PNPID_Element_funcs, %object
	.size	PNPID_Element_funcs, 16
PNPID_Element_funcs:
	.word	PNPID_Element
	.word	GenClear_Element
	.word	PNPID_Help
	.word	No_Default_Txt
	.global	I2C_EEPROM_Addr_funcs
	.align	2
	.type	I2C_EEPROM_Addr_funcs, %object
	.size	I2C_EEPROM_Addr_funcs, 16
I2C_EEPROM_Addr_funcs:
	.word	I2C_EEPROM_Addr
	.word	GenClear_Element
	.word	I2C_EEPROM_Help
	.word	No_Default_Txt
	.global	GUID_Element_funcs
	.align	2
	.type	GUID_Element_funcs, %object
	.size	GUID_Element_funcs, 16
GUID_Element_funcs:
	.word	GUID_Element
	.word	GenClear_Element
	.word	GUID_Help
	.word	GUID_Default
	.text
	.align	2
	.global	No_Default_Txt
	.arch armv7-a
	.arch_extension mp
	.arch_extension sec
	.syntax unified
	.arm
	.fpu vfpv3
	.type	No_Default_Txt, %function
No_Default_Txt:
.LFB1:
	.file 1 "/home/hkh/git/eapidk-code-r76-trunk/apps/EeePProg/linux/../CfgPHelper.c"
	.loc 1 62 1
	.cfi_startproc
	@ args = 0, pretend = 0, frame = 16
	@ frame_needed = 1, uses_anonymous_args = 0
	@ link register save eliminated.
	str	fp, [sp, #-4]!
	.cfi_def_cfa_offset 4
	.cfi_offset 11, -4
	add	fp, sp, #0
	.cfi_def_cfa_register 11
	sub	sp, sp, #20
	str	r0, [fp, #-8]
	str	r1, [fp, #-12]
	str	r2, [fp, #-16]
	.loc 1 66 10
	mov	r3, #0
	.loc 1 67 1
	mov	r0, r3
	add	sp, fp, #0
	.cfi_def_cfa_register 13
	@ sp needed
	ldr	fp, [sp], #4
	.cfi_restore 11
	.cfi_def_cfa_offset 0
	bx	lr
	.cfi_endproc
.LFE1:
	.size	No_Default_Txt, .-No_Default_Txt
	.section	.rodata
	.align	2
.LC0:
	.ascii	"TB \000"
	.align	2
.LC1:
	.ascii	"/home/hkh/git/eapidk-code-r76-trunk/apps/EeePProg/l"
	.ascii	"inux/../CfgPHelper.c\000"
	.align	2
.LC2:
	.ascii	"Token_List_Default(&LclElementDesc, stream, uiCount"
	.ascii	")\000"
	.align	2
.LC3:
	.ascii	"%s\012\000"
	.align	2
.LC4:
	.ascii	"Range_Default_Txt(&LclElementDesc, stream, uiCount)"
	.ascii	"\000"
	.text
	.align	2
	.global	TokenNum_List_Default
	.syntax unified
	.arm
	.fpu vfpv3
	.type	TokenNum_List_Default, %function
TokenNum_List_Default:
.LFB2:
	.loc 1 76 1
	.cfi_startproc
	@ args = 0, pretend = 0, frame = 80
	@ frame_needed = 1, uses_anonymous_args = 0
	push	{fp, lr}
	.cfi_def_cfa_offset 8
	.cfi_offset 11, -8
	.cfi_offset 14, -4
	add	fp, sp, #4
	.cfi_def_cfa 11, 4
	sub	sp, sp, #96
	str	r0, [fp, #-72]
	str	r1, [fp, #-76]
	str	r2, [fp, #-80]
	.loc 1 76 1
	ldr	r2, .L9
.LPIC8:
	add	r2, pc, r2
	ldr	r3, .L9+4
	ldr	r3, [r2, r3]
	ldr	r3, [r3]
	str	r3, [fp, #-8]
	mov	r3, #0
	.loc 1 77 16
	mov	r3, #0
	str	r3, [fp, #-68]
	.loc 1 78 28
	ldr	r3, [fp, #-72]
	sub	ip, fp, #64
	mov	lr, r3
	ldmia	lr!, {r0, r1, r2, r3}
	stmia	ip!, {r0, r1, r2, r3}
	ldmia	lr!, {r0, r1, r2, r3}
	stmia	ip!, {r0, r1, r2, r3}
	ldmia	lr!, {r0, r1, r2, r3}
	stmia	ip!, {r0, r1, r2, r3}
	ldm	lr, {r0, r1}
	stm	ip, {r0, r1}
	.loc 1 80 36
	ldr	r3, [fp, #-72]
	ldr	r3, [r3, #52]
	.loc 1 80 49
	ldr	r3, [r3]
	.loc 1 80 5
	cmp	r3, #0
	beq	.L4
	.loc 1 81 61
	ldr	r3, [fp, #-72]
	ldr	r3, [r3, #52]
	.loc 1 81 74
	ldr	r3, [r3]
	.loc 1 81 30
	str	r3, [fp, #-12]
	.loc 1 82 5
	sub	r3, fp, #64
	ldr	r2, [fp, #-80]
	ldr	r1, [fp, #-76]
	mov	r0, r3
	bl	Token_List_Default(PLT)
	str	r0, [fp, #-68]
	ldr	r3, [fp, #-68]
	cmp	r3, #0
	beq	.L5
	.loc 1 82 5 is_stmt 0 discriminator 1
	ldr	r3, .L9+8
.LPIC0:
	add	r3, pc, r3
	str	r3, [sp, #8]
	ldr	r3, .L9+12
.LPIC1:
	add	r3, pc, r3
	str	r3, [sp, #4]
	ldr	r3, [fp, #-68]
	str	r3, [sp]
	mov	r3, #82
	ldr	r2, .L9+16
.LPIC2:
	add	r2, pc, r2
	ldr	r1, .L9+20
.LPIC3:
	add	r1, pc, r1
	mov	r0, #69
	bl	siFormattedMessage_SC(PLT)
	b	.L5
.L4:
	.loc 1 84 61 is_stmt 1
	ldr	r3, [fp, #-72]
	ldr	r3, [r3, #52]
	.loc 1 84 74
	ldr	r3, [r3, #4]
	.loc 1 84 30
	str	r3, [fp, #-12]
	.loc 1 85 5
	sub	r3, fp, #64
	ldr	r2, [fp, #-80]
	ldr	r1, [fp, #-76]
	mov	r0, r3
	bl	Range_Default_Txt(PLT)
	str	r0, [fp, #-68]
	ldr	r3, [fp, #-68]
	cmp	r3, #0
	beq	.L8
	.loc 1 85 5 is_stmt 0 discriminator 1
	ldr	r3, .L9+24
.LPIC4:
	add	r3, pc, r3
	str	r3, [sp, #8]
	ldr	r3, .L9+28
.LPIC5:
	add	r3, pc, r3
	str	r3, [sp, #4]
	ldr	r3, [fp, #-68]
	str	r3, [sp]
	mov	r3, #85
	ldr	r2, .L9+32
.LPIC6:
	add	r2, pc, r2
	ldr	r1, .L9+36
.LPIC7:
	add	r1, pc, r1
	mov	r0, #69
	bl	siFormattedMessage_SC(PLT)
	b	.L5
.L8:
	.loc 1 87 1 is_stmt 1
	nop
.L5:
	.loc 1 88 10
	ldr	r3, [fp, #-68]
	.loc 1 76 1
	ldr	r1, .L9+40
.LPIC9:
	add	r1, pc, r1
	.loc 1 89 1
	ldr	r2, .L9+4
	ldr	r2, [r1, r2]
	ldr	r1, [r2]
	ldr	r2, [fp, #-8]
	eors	r1, r2, r1
	mov	r2, #0
	beq	.L7
	bl	__stack_chk_fail(PLT)
.L7:
	mov	r0, r3
	sub	sp, fp, #4
	.cfi_def_cfa 13, 8
	@ sp needed
	pop	{fp, pc}
.L10:
	.align	2
.L9:
	.word	_GLOBAL_OFFSET_TABLE_-(.LPIC8+8)
	.word	__stack_chk_guard(GOT)
	.word	.LC2-(.LPIC0+8)
	.word	.LC3-(.LPIC1+8)
	.word	.LC0-(.LPIC2+8)
	.word	.LC1-(.LPIC3+8)
	.word	.LC4-(.LPIC4+8)
	.word	.LC3-(.LPIC5+8)
	.word	.LC0-(.LPIC6+8)
	.word	.LC1-(.LPIC7+8)
	.word	_GLOBAL_OFFSET_TABLE_-(.LPIC9+8)
	.cfi_endproc
.LFE2:
	.size	TokenNum_List_Default, .-TokenNum_List_Default
	.align	2
	.global	Token_List_Default
	.syntax unified
	.arm
	.fpu vfpv3
	.type	Token_List_Default, %function
Token_List_Default:
.LFB3:
	.loc 1 96 1
	.cfi_startproc
	@ args = 0, pretend = 0, frame = 24
	@ frame_needed = 1, uses_anonymous_args = 0
	push	{fp, lr}
	.cfi_def_cfa_offset 8
	.cfi_offset 11, -8
	.cfi_offset 14, -4
	add	fp, sp, #4
	.cfi_def_cfa 11, 4
	sub	sp, sp, #24
	str	r0, [fp, #-16]
	str	r1, [fp, #-20]
	str	r2, [fp, #-24]
	.loc 1 99 42
	ldr	r3, [fp, #-16]
	ldr	r3, [r3, #52]
	.loc 1 99 10
	ldr	r3, [r3, #4]
	str	r3, [fp, #-8]
	.loc 1 100 3
	ldr	r3, [fp, #-8]
	ldr	r3, [r3]
	ldr	r1, [fp, #-20]
	mov	r0, r3
	bl	fputs(PLT)
	.loc 1 101 10
	mov	r3, #0
	.loc 1 102 1
	mov	r0, r3
	sub	sp, fp, #4
	.cfi_def_cfa 13, 8
	@ sp needed
	pop	{fp, pc}
	.cfi_endproc
.LFE3:
	.size	Token_List_Default, .-Token_List_Default
	.section	.rodata
	.align	2
.LC5:
	.ascii	"0x%02X\000"
	.text
	.align	2
	.global	Range_Default_Txt
	.syntax unified
	.arm
	.fpu vfpv3
	.type	Range_Default_Txt, %function
Range_Default_Txt:
.LFB4:
	.loc 1 111 1
	.cfi_startproc
	@ args = 0, pretend = 0, frame = 24
	@ frame_needed = 1, uses_anonymous_args = 0
	push	{fp, lr}
	.cfi_def_cfa_offset 8
	.cfi_offset 11, -8
	.cfi_offset 14, -4
	add	fp, sp, #4
	.cfi_def_cfa 11, 4
	sub	sp, sp, #24
	str	r0, [fp, #-16]
	str	r1, [fp, #-20]
	str	r2, [fp, #-24]
	.loc 1 112 22
	ldr	r3, [fp, #-16]
	ldr	r3, [r3, #52]
	str	r3, [fp, #-8]
	.loc 1 117 13
	ldr	r3, [fp, #-8]
	ldr	r3, [r3, #4]
	.loc 1 114 3
	ldr	r3, [r3]
	mov	r2, r3
	ldr	r3, .L15
.LPIC10:
	add	r3, pc, r3
	mov	r1, r3
	ldr	r0, [fp, #-20]
	bl	fprintf(PLT)
	.loc 1 119 10
	mov	r3, #0
	.loc 1 120 1
	mov	r0, r3
	sub	sp, fp, #4
	.cfi_def_cfa 13, 8
	@ sp needed
	pop	{fp, pc}
.L16:
	.align	2
.L15:
	.word	.LC5-(.LPIC10+8)
	.cfi_endproc
.LFE4:
	.size	Range_Default_Txt, .-Range_Default_Txt
	.section	.rodata
	.align	2
.LC6:
	.ascii	"FFFFFFFF-FFFF-FFFF-FFFF-FFFFFFFFFFFF\000"
	.text
	.align	2
	.global	GUID_Default
	.syntax unified
	.arm
	.fpu vfpv3
	.type	GUID_Default, %function
GUID_Default:
.LFB5:
	.loc 1 128 1
	.cfi_startproc
	@ args = 0, pretend = 0, frame = 16
	@ frame_needed = 1, uses_anonymous_args = 0
	push	{fp, lr}
	.cfi_def_cfa_offset 8
	.cfi_offset 11, -8
	.cfi_offset 14, -4
	add	fp, sp, #4
	.cfi_def_cfa 11, 4
	sub	sp, sp, #16
	str	r0, [fp, #-8]
	str	r1, [fp, #-12]
	str	r2, [fp, #-16]
	.loc 1 131 3
	ldr	r3, [fp, #-12]
	mov	r2, #36
	mov	r1, #1
	ldr	r0, .L19
.LPIC11:
	add	r0, pc, r0
	bl	fwrite(PLT)
	.loc 1 132 10
	mov	r3, #0
	.loc 1 133 1
	mov	r0, r3
	sub	sp, fp, #4
	.cfi_def_cfa 13, 8
	@ sp needed
	pop	{fp, pc}
.L20:
	.align	2
.L19:
	.word	.LC6-(.LPIC11+8)
	.cfi_endproc
.LFE5:
	.size	GUID_Default, .-GUID_Default
	.global	DeletePreserve
	.section	.rodata
	.align	2
.LC7:
	.ascii	"Deleted\000"
	.align	2
.LC8:
	.ascii	"Preserved\000"
	.section	.data.rel.local
	.align	2
	.type	DeletePreserve, %object
	.size	DeletePreserve, 8
DeletePreserve:
	.word	.LC7
	.word	.LC8
	.section	.rodata
	.align	2
.LC9:
	.ascii	"Generic String\000"
	.align	2
.LC10:
	.ascii	"   Max Length %u\012\000"
	.align	2
.LC11:
	.ascii	"   Min Length %u\012\000"
	.align	2
.LC12:
	.ascii	"   Trailing spaces %s\012\000"
	.text
	.align	2
	.global	String_Help
	.syntax unified
	.arm
	.fpu vfpv3
	.type	String_Help, %function
String_Help:
.LFB6:
	.loc 1 151 1
	.cfi_startproc
	@ args = 0, pretend = 0, frame = 24
	@ frame_needed = 1, uses_anonymous_args = 0
	push	{fp, lr}
	.cfi_def_cfa_offset 8
	.cfi_offset 11, -8
	.cfi_offset 14, -4
	add	fp, sp, #4
	.cfi_def_cfa 11, 4
	sub	sp, sp, #24
	str	r0, [fp, #-16]
	str	r1, [fp, #-20]
	str	r2, [fp, #-24]
	.loc 1 152 17
	ldr	r3, [fp, #-16]
	ldr	r3, [r3, #52]
	str	r3, [fp, #-8]
	.loc 1 153 7
	mov	r3, #0
	str	r3, [fp, #-12]
	.loc 1 154 8
	ldr	r3, [fp, #-12]
	ldr	r2, [fp, #-20]
	add	r0, r2, r3
	ldr	r3, [fp, #-12]
	ldr	r2, [fp, #-24]
	sub	r1, r2, r3
	ldr	r3, .L26
.LPIC12:
	add	r3, pc, r3
	ldr	r2, .L26+4
.LPIC13:
	add	r2, pc, r2
	bl	EApiSprintfA(PLT)
	mov	r2, r0
	.loc 1 154 6
	ldr	r3, [fp, #-12]
	add	r3, r3, r2
	str	r3, [fp, #-12]
	.loc 1 156 5
	ldr	r3, [fp, #-8]
	cmp	r3, #0
	beq	.L22
	.loc 1 157 19
	ldr	r3, [fp, #-8]
	ldr	r3, [r3, #4]
	.loc 1 157 7
	cmp	r3, #0
	beq	.L23
	.loc 1 158 7
	ldr	r3, [fp, #-12]
	ldr	r2, [fp, #-20]
	add	r0, r2, r3
	ldr	r3, [fp, #-12]
	ldr	r2, [fp, #-24]
	sub	r1, r2, r3
	ldr	r3, [fp, #-8]
	ldr	r3, [r3, #4]
	ldr	r2, .L26+8
.LPIC14:
	add	r2, pc, r2
	bl	EApiSprintfA(PLT)
	mov	r2, r0
	.loc 1 158 5
	ldr	r3, [fp, #-12]
	add	r3, r3, r2
	str	r3, [fp, #-12]
.L23:
	.loc 1 161 19
	ldr	r3, [fp, #-8]
	ldr	r3, [r3]
	.loc 1 161 7
	cmp	r3, #0
	beq	.L24
	.loc 1 162 7
	ldr	r3, [fp, #-12]
	ldr	r2, [fp, #-20]
	add	r0, r2, r3
	ldr	r3, [fp, #-12]
	ldr	r2, [fp, #-24]
	sub	r1, r2, r3
	ldr	r3, [fp, #-8]
	ldr	r3, [r3]
	ldr	r2, .L26+12
.LPIC15:
	add	r2, pc, r2
	bl	EApiSprintfA(PLT)
	mov	r2, r0
	.loc 1 162 5
	ldr	r3, [fp, #-12]
	add	r3, r3, r2
	str	r3, [fp, #-12]
.L24:
	.loc 1 165 10
	ldr	r3, [fp, #-12]
	ldr	r2, [fp, #-20]
	add	r0, r2, r3
	ldr	r3, [fp, #-12]
	ldr	r2, [fp, #-24]
	sub	r1, r2, r3
	.loc 1 166 56
	ldr	r3, [fp, #-8]
	ldr	r2, [r3, #8]
	.loc 1 165 10
	ldr	r3, .L26+16
.LPIC16:
	add	r3, pc, r3
	ldr	r3, [r3, r2, lsl #2]
	ldr	r2, .L26+20
.LPIC17:
	add	r2, pc, r2
	bl	EApiSprintfA(PLT)
	mov	r2, r0
	.loc 1 165 8
	ldr	r3, [fp, #-12]
	add	r3, r3, r2
	str	r3, [fp, #-12]
.L22:
	.loc 1 168 10
	mov	r3, #0
	.loc 1 169 1
	mov	r0, r3
	sub	sp, fp, #4
	.cfi_def_cfa 13, 8
	@ sp needed
	pop	{fp, pc}
.L27:
	.align	2
.L26:
	.word	.LC9-(.LPIC12+8)
	.word	.LC3-(.LPIC13+8)
	.word	.LC10-(.LPIC14+8)
	.word	.LC11-(.LPIC15+8)
	.word	DeletePreserve-(.LPIC16+8)
	.word	.LC12-(.LPIC17+8)
	.cfi_endproc
.LFE6:
	.size	String_Help, .-String_Help
	.section	.rodata
	.align	2
.LC13:
	.ascii	"Generic Number\000"
	.align	2
.LC14:
	.ascii	"Meeting one of the following conditions\000"
	.align	2
.LC15:
	.ascii	"Meeting the following condition\000"
	.align	2
.LC16:
	.ascii	"\011 Number == %8u(0x%04X)\012\000"
	.align	2
.LC17:
	.ascii	"\011 %8u(0x%04X) <= Number <= %8u(0x%04X)\012\000"
	.align	2
.LC18:
	.ascii	"\011 Number < %8u(0x%04X) || %8u(0x%04X) < Number\012"
	.ascii	"\000"
	.text
	.align	2
	.global	Range_List_Help
	.syntax unified
	.arm
	.fpu vfpv3
	.type	Range_List_Help, %function
Range_List_Help:
.LFB7:
	.loc 1 176 1
	.cfi_startproc
	@ args = 0, pretend = 0, frame = 32
	@ frame_needed = 1, uses_anonymous_args = 0
	push	{fp, lr}
	.cfi_def_cfa_offset 8
	.cfi_offset 11, -8
	.cfi_offset 14, -4
	add	fp, sp, #4
	.cfi_def_cfa 11, 4
	sub	sp, sp, #48
	str	r0, [fp, #-24]
	str	r1, [fp, #-28]
	str	r2, [fp, #-32]
	.loc 1 179 7
	mov	r3, #0
	str	r3, [fp, #-8]
	.loc 1 180 7
	ldr	r3, [fp, #-8]
	ldr	r2, [fp, #-28]
	add	r0, r2, r3
	ldr	r3, [fp, #-8]
	ldr	r2, [fp, #-32]
	sub	r1, r2, r3
	ldr	r3, .L41
.LPIC18:
	add	r3, pc, r3
	ldr	r2, .L41+4
.LPIC19:
	add	r2, pc, r2
	bl	EApiSprintfA(PLT)
	str	r0, [fp, #-8]
	.loc 1 182 18
	ldr	r3, [fp, #-24]
	ldr	r3, [r3, #52]
	.loc 1 182 5
	cmp	r3, #0
	bne	.L29
	.loc 1 182 45 discriminator 1
	mov	r3, #0
	b	.L30
.L29:
	.loc 1 183 46
	ldr	r3, [fp, #-24]
	ldr	r3, [r3, #52]
	.loc 1 183 12
	ldr	r3, [r3, #4]
	str	r3, [fp, #-16]
	.loc 1 184 47
	ldr	r3, [fp, #-24]
	ldr	r3, [r3, #52]
	.loc 1 184 13
	ldr	r3, [r3]
	str	r3, [fp, #-12]
	.loc 1 185 5
	ldr	r3, [fp, #-12]
	cmp	r3, #1
	bls	.L31
	.loc 1 186 10
	ldr	r3, [fp, #-8]
	ldr	r2, [fp, #-28]
	add	r0, r2, r3
	ldr	r3, [fp, #-8]
	ldr	r2, [fp, #-32]
	sub	r1, r2, r3
	ldr	r3, .L41+8
.LPIC20:
	add	r3, pc, r3
	ldr	r2, .L41+12
.LPIC21:
	add	r2, pc, r2
	bl	EApiSprintfA(PLT)
	mov	r2, r0
	.loc 1 186 8
	ldr	r3, [fp, #-8]
	add	r3, r3, r2
	str	r3, [fp, #-8]
	b	.L33
.L31:
	.loc 1 189 10
	ldr	r3, [fp, #-8]
	ldr	r2, [fp, #-28]
	add	r0, r2, r3
	ldr	r3, [fp, #-8]
	ldr	r2, [fp, #-32]
	sub	r1, r2, r3
	ldr	r3, .L41+16
.LPIC22:
	add	r3, pc, r3
	ldr	r2, .L41+20
.LPIC23:
	add	r2, pc, r2
	bl	EApiSprintfA(PLT)
	mov	r2, r0
	.loc 1 189 8
	ldr	r3, [fp, #-8]
	add	r3, r3, r2
	str	r3, [fp, #-8]
	.loc 1 191 8
	b	.L33
.L39:
	.loc 1 192 21
	ldr	r3, [fp, #-16]
	ldr	r3, [r3, #8]
	.loc 1 192 5
	cmp	r3, #0
	beq	.L34
	cmp	r3, #1
	bne	.L40
	.loc 1 194 21
	ldr	r3, [fp, #-16]
	ldr	r2, [r3]
	.loc 1 194 46
	ldr	r3, [fp, #-16]
	ldr	r3, [r3, #4]
	.loc 1 194 11
	cmp	r2, r3
	bne	.L36
	.loc 1 195 9
	ldr	r3, [fp, #-8]
	ldr	r2, [fp, #-28]
	add	r0, r2, r3
	ldr	r3, [fp, #-8]
	ldr	r2, [fp, #-32]
	sub	r1, r2, r3
	ldr	r3, [fp, #-16]
	ldr	r2, [r3]
	ldr	r3, [fp, #-16]
	ldr	r3, [r3]
	str	r3, [sp]
	mov	r3, r2
	ldr	r2, .L41+24
.LPIC24:
	add	r2, pc, r2
	bl	EApiSprintfA(PLT)
	mov	r2, r0
	.loc 1 195 7
	ldr	r3, [fp, #-8]
	add	r3, r3, r2
	str	r3, [fp, #-8]
	.loc 1 208 9
	b	.L38
.L36:
	.loc 1 201 9
	ldr	r3, [fp, #-8]
	ldr	r2, [fp, #-28]
	add	r0, r2, r3
	ldr	r3, [fp, #-8]
	ldr	r2, [fp, #-32]
	sub	ip, r2, r3
	ldr	r3, [fp, #-16]
	ldr	lr, [r3]
	ldr	r3, [fp, #-16]
	ldr	r3, [r3]
	ldr	r2, [fp, #-16]
	ldr	r2, [r2, #4]
	ldr	r1, [fp, #-16]
	ldr	r1, [r1, #4]
	str	r1, [sp, #8]
	str	r2, [sp, #4]
	str	r3, [sp]
	mov	r3, lr
	ldr	r2, .L41+28
.LPIC25:
	add	r2, pc, r2
	mov	r1, ip
	bl	EApiSprintfA(PLT)
	mov	r2, r0
	.loc 1 201 7
	ldr	r3, [fp, #-8]
	add	r3, r3, r2
	str	r3, [fp, #-8]
	.loc 1 208 9
	b	.L38
.L34:
	.loc 1 210 7
	ldr	r3, [fp, #-8]
	ldr	r2, [fp, #-28]
	add	r0, r2, r3
	ldr	r3, [fp, #-8]
	ldr	r2, [fp, #-32]
	sub	ip, r2, r3
	ldr	r3, [fp, #-16]
	ldr	lr, [r3]
	ldr	r3, [fp, #-16]
	ldr	r3, [r3]
	ldr	r2, [fp, #-16]
	ldr	r2, [r2, #4]
	ldr	r1, [fp, #-16]
	ldr	r1, [r1, #4]
	str	r1, [sp, #8]
	str	r2, [sp, #4]
	str	r3, [sp]
	mov	r3, lr
	ldr	r2, .L41+32
.LPIC26:
	add	r2, pc, r2
	mov	r1, ip
	bl	EApiSprintfA(PLT)
	mov	r2, r0
	.loc 1 210 5
	ldr	r3, [fp, #-8]
	add	r3, r3, r2
	str	r3, [fp, #-8]
	.loc 1 217 9
	b	.L38
.L40:
	.loc 1 219 9
	nop
.L38:
	.loc 1 221 14
	ldr	r3, [fp, #-16]
	add	r3, r3, #12
	str	r3, [fp, #-16]
.L33:
	.loc 1 191 19
	ldr	r3, [fp, #-12]
	sub	r2, r3, #1
	str	r2, [fp, #-12]
	.loc 1 191 9
	cmp	r3, #0
	bne	.L39
	.loc 1 223 10
	mov	r3, #0
.L30:
	.loc 1 224 1
	mov	r0, r3
	sub	sp, fp, #4
	.cfi_def_cfa 13, 8
	@ sp needed
	pop	{fp, pc}
.L42:
	.align	2
.L41:
	.word	.LC13-(.LPIC18+8)
	.word	.LC3-(.LPIC19+8)
	.word	.LC14-(.LPIC20+8)
	.word	.LC3-(.LPIC21+8)
	.word	.LC15-(.LPIC22+8)
	.word	.LC3-(.LPIC23+8)
	.word	.LC16-(.LPIC24+8)
	.word	.LC17-(.LPIC25+8)
	.word	.LC18-(.LPIC26+8)
	.cfi_endproc
.LFE7:
	.size	Range_List_Help, .-Range_List_Help
	.section	.rodata
	.align	2
.LC19:
	.ascii	"Token_List_Help(&LclElementDesc, szHelpBuf, stHBufL"
	.ascii	"en)\000"
	.align	2
.LC20:
	.ascii	"Or a \012\000"
	.align	2
.LC21:
	.ascii	"Range_List_Help(&LclElementDesc, szHelpBuf + len, s"
	.ascii	"tHBufLen - len)\000"
	.text
	.align	2
	.global	TokenNum_List_Help
	.syntax unified
	.arm
	.fpu vfpv3
	.type	TokenNum_List_Help, %function
TokenNum_List_Help:
.LFB8:
	.loc 1 231 1
	.cfi_startproc
	@ args = 0, pretend = 0, frame = 88
	@ frame_needed = 1, uses_anonymous_args = 0
	push	{fp, lr}
	.cfi_def_cfa_offset 8
	.cfi_offset 11, -8
	.cfi_offset 14, -4
	add	fp, sp, #4
	.cfi_def_cfa 11, 4
	sub	sp, sp, #104
	str	r0, [fp, #-80]
	str	r1, [fp, #-84]
	str	r2, [fp, #-88]
	.loc 1 231 1
	ldr	r2, .L49
.LPIC36:
	add	r2, pc, r2
	ldr	r3, .L49+4
	ldr	r3, [r2, r3]
	ldr	r3, [r3]
	str	r3, [fp, #-8]
	mov	r3, #0
	.loc 1 232 16
	mov	r3, #0
	str	r3, [fp, #-72]
	.loc 1 233 28
	ldr	r3, [fp, #-80]
	sub	ip, fp, #64
	mov	lr, r3
	ldmia	lr!, {r0, r1, r2, r3}
	stmia	ip!, {r0, r1, r2, r3}
	ldmia	lr!, {r0, r1, r2, r3}
	stmia	ip!, {r0, r1, r2, r3}
	ldmia	lr!, {r0, r1, r2, r3}
	stmia	ip!, {r0, r1, r2, r3}
	ldm	lr, {r0, r1}
	stm	ip, {r0, r1}
	.loc 1 236 59
	ldr	r3, [fp, #-80]
	ldr	r3, [r3, #52]
	.loc 1 236 72
	ldr	r3, [r3]
	.loc 1 236 28
	str	r3, [fp, #-12]
	.loc 1 237 3
	sub	r3, fp, #64
	ldr	r2, [fp, #-88]
	ldr	r1, [fp, #-84]
	mov	r0, r3
	bl	Token_List_Help(PLT)
	str	r0, [fp, #-72]
	ldr	r3, [fp, #-72]
	cmp	r3, #0
	beq	.L44
	.loc 1 237 3 is_stmt 0 discriminator 1
	ldr	r3, .L49+8
.LPIC27:
	add	r3, pc, r3
	str	r3, [sp, #8]
	ldr	r3, .L49+12
.LPIC28:
	add	r3, pc, r3
	str	r3, [sp, #4]
	ldr	r3, [fp, #-72]
	str	r3, [sp]
	mov	r3, #237
	ldr	r2, .L49+16
.LPIC29:
	add	r2, pc, r2
	ldr	r1, .L49+20
.LPIC30:
	add	r1, pc, r1
	mov	r0, #69
	bl	siFormattedMessage_SC(PLT)
	b	.L45
.L44:
	.loc 1 238 15 is_stmt 1
	ldr	r0, [fp, #-84]
	bl	strlen(PLT)
	mov	r3, r0
	.loc 1 238 6
	str	r3, [fp, #-68]
	.loc 1 239 8
	ldr	r3, [fp, #-68]
	ldr	r2, [fp, #-84]
	add	r0, r2, r3
	ldr	r3, [fp, #-68]
	ldr	r2, [fp, #-88]
	sub	r3, r2, r3
	ldr	r2, .L49+24
.LPIC31:
	add	r2, pc, r2
	mov	r1, r3
	bl	EApiSprintfA(PLT)
	mov	r2, r0
	.loc 1 239 6
	ldr	r3, [fp, #-68]
	add	r3, r3, r2
	str	r3, [fp, #-68]
	.loc 1 240 59
	ldr	r3, [fp, #-80]
	ldr	r3, [r3, #52]
	.loc 1 240 72
	ldr	r3, [r3, #4]
	.loc 1 240 28
	str	r3, [fp, #-12]
	.loc 1 241 3
	ldr	r3, [fp, #-68]
	ldr	r2, [fp, #-84]
	add	r1, r2, r3
	ldr	r3, [fp, #-68]
	ldr	r2, [fp, #-88]
	sub	r2, r2, r3
	sub	r3, fp, #64
	mov	r0, r3
	bl	Range_List_Help(PLT)
	str	r0, [fp, #-72]
	ldr	r3, [fp, #-72]
	cmp	r3, #0
	beq	.L48
	.loc 1 241 3 is_stmt 0 discriminator 1
	ldr	r3, .L49+28
.LPIC32:
	add	r3, pc, r3
	str	r3, [sp, #8]
	ldr	r3, .L49+32
.LPIC33:
	add	r3, pc, r3
	str	r3, [sp, #4]
	ldr	r3, [fp, #-72]
	str	r3, [sp]
	mov	r3, #241
	ldr	r2, .L49+36
.LPIC34:
	add	r2, pc, r2
	ldr	r1, .L49+40
.LPIC35:
	add	r1, pc, r1
	mov	r0, #69
	bl	siFormattedMessage_SC(PLT)
	b	.L45
.L48:
	.loc 1 242 1 is_stmt 1
	nop
.L45:
	.loc 1 243 10
	ldr	r3, [fp, #-72]
	.loc 1 231 1
	ldr	r1, .L49+44
.LPIC37:
	add	r1, pc, r1
	.loc 1 244 1
	ldr	r2, .L49+4
	ldr	r2, [r1, r2]
	ldr	r1, [r2]
	ldr	r2, [fp, #-8]
	eors	r1, r2, r1
	mov	r2, #0
	beq	.L47
	bl	__stack_chk_fail(PLT)
.L47:
	mov	r0, r3
	sub	sp, fp, #4
	.cfi_def_cfa 13, 8
	@ sp needed
	pop	{fp, pc}
.L50:
	.align	2
.L49:
	.word	_GLOBAL_OFFSET_TABLE_-(.LPIC36+8)
	.word	__stack_chk_guard(GOT)
	.word	.LC19-(.LPIC27+8)
	.word	.LC3-(.LPIC28+8)
	.word	.LC0-(.LPIC29+8)
	.word	.LC1-(.LPIC30+8)
	.word	.LC20-(.LPIC31+8)
	.word	.LC21-(.LPIC32+8)
	.word	.LC3-(.LPIC33+8)
	.word	.LC0-(.LPIC34+8)
	.word	.LC1-(.LPIC35+8)
	.word	_GLOBAL_OFFSET_TABLE_-(.LPIC37+8)
	.cfi_endproc
.LFE8:
	.size	TokenNum_List_Help, .-TokenNum_List_Help
	.section	.rodata
	.align	2
.LC22:
	.ascii	"Supported Options\000"
	.align	2
.LC23:
	.ascii	"\011 %s\012\000"
	.text
	.align	2
	.global	Token_List_Help
	.syntax unified
	.arm
	.fpu vfpv3
	.type	Token_List_Help, %function
Token_List_Help:
.LFB9:
	.loc 1 251 1
	.cfi_startproc
	@ args = 0, pretend = 0, frame = 32
	@ frame_needed = 1, uses_anonymous_args = 0
	push	{fp, lr}
	.cfi_def_cfa_offset 8
	.cfi_offset 11, -8
	.cfi_offset 14, -4
	add	fp, sp, #4
	.cfi_def_cfa 11, 4
	sub	sp, sp, #32
	str	r0, [fp, #-24]
	str	r1, [fp, #-28]
	str	r2, [fp, #-32]
	.loc 1 255 7
	ldr	r3, .L55
.LPIC38:
	add	r3, pc, r3
	ldr	r2, .L55+4
.LPIC39:
	add	r2, pc, r2
	ldr	r1, [fp, #-32]
	ldr	r0, [fp, #-28]
	bl	EApiSprintfA(PLT)
	str	r0, [fp, #-8]
	.loc 1 257 42
	ldr	r3, [fp, #-24]
	ldr	r3, [r3, #52]
	.loc 1 257 10
	ldr	r3, [r3, #4]
	str	r3, [fp, #-16]
	.loc 1 258 47
	ldr	r3, [fp, #-24]
	ldr	r3, [r3, #52]
	.loc 1 258 15
	ldr	r3, [r3]
	str	r3, [fp, #-12]
	.loc 1 259 8
	b	.L52
.L53:
	.loc 1 260 7
	ldr	r3, [fp, #-8]
	ldr	r2, [fp, #-28]
	add	r0, r2, r3
	ldr	r3, [fp, #-8]
	ldr	r2, [fp, #-32]
	sub	r1, r2, r3
	ldr	r3, [fp, #-16]
	ldr	r3, [r3]
	ldr	r2, .L55+8
.LPIC40:
	add	r2, pc, r2
	bl	EApiSprintfA(PLT)
	mov	r2, r0
	.loc 1 260 5
	ldr	r3, [fp, #-8]
	add	r3, r3, r2
	str	r3, [fp, #-8]
	.loc 1 262 12
	ldr	r3, [fp, #-16]
	add	r3, r3, #8
	str	r3, [fp, #-16]
.L52:
	.loc 1 259 21
	ldr	r3, [fp, #-12]
	sub	r2, r3, #1
	str	r2, [fp, #-12]
	.loc 1 259 9
	cmp	r3, #0
	bne	.L53
	.loc 1 264 10
	mov	r3, #0
	.loc 1 265 1
	mov	r0, r3
	sub	sp, fp, #4
	.cfi_def_cfa 13, 8
	@ sp needed
	pop	{fp, pc}
.L56:
	.align	2
.L55:
	.word	.LC22-(.LPIC38+8)
	.word	.LC3-(.LPIC39+8)
	.word	.LC23-(.LPIC40+8)
	.cfi_endproc
.LFE9:
	.size	Token_List_Help, .-Token_List_Help
	.section	.rodata
	.align	2
.LC24:
	.ascii	"GUID in the Format F9168C5E-CEB2-4faa-B6BF-329BF39F"
	.ascii	"A1E4\012  Means Not Supported 00000000-0000-0000-00"
	.ascii	"00-000000000000\012  Means Setable       FFFFFFFF-F"
	.ascii	"FFF-FFFF-FFFF-FFFFFFFFFFFF\012\000"
	.text
	.align	2
	.global	GUID_Help
	.syntax unified
	.arm
	.fpu vfpv3
	.type	GUID_Help, %function
GUID_Help:
.LFB10:
	.loc 1 272 1
	.cfi_startproc
	@ args = 0, pretend = 0, frame = 16
	@ frame_needed = 1, uses_anonymous_args = 0
	push	{fp, lr}
	.cfi_def_cfa_offset 8
	.cfi_offset 11, -8
	.cfi_offset 14, -4
	add	fp, sp, #4
	.cfi_def_cfa 11, 4
	sub	sp, sp, #16
	str	r0, [fp, #-8]
	str	r1, [fp, #-12]
	str	r2, [fp, #-16]
	.loc 1 274 3
	ldr	r3, .L59
.LPIC41:
	add	r3, pc, r3
	mov	r2, r3
	ldr	r1, [fp, #-16]
	ldr	r0, [fp, #-12]
	bl	EApiSprintfA(PLT)
	.loc 1 279 10
	mov	r3, #0
	.loc 1 280 1
	mov	r0, r3
	sub	sp, fp, #4
	.cfi_def_cfa 13, 8
	@ sp needed
	pop	{fp, pc}
.L60:
	.align	2
.L59:
	.word	.LC24-(.LPIC41+8)
	.cfi_endproc
.LFE10:
	.size	GUID_Help, .-GUID_Help
	.section	.rodata
	.align	2
.LC25:
	.ascii	"2.0\012\000"
	.text
	.align	2
	.global	SpecRev_Help
	.syntax unified
	.arm
	.fpu vfpv3
	.type	SpecRev_Help, %function
SpecRev_Help:
.LFB11:
	.loc 1 287 1
	.cfi_startproc
	@ args = 0, pretend = 0, frame = 16
	@ frame_needed = 1, uses_anonymous_args = 0
	push	{fp, lr}
	.cfi_def_cfa_offset 8
	.cfi_offset 11, -8
	.cfi_offset 14, -4
	add	fp, sp, #4
	.cfi_def_cfa 11, 4
	sub	sp, sp, #16
	str	r0, [fp, #-8]
	str	r1, [fp, #-12]
	str	r2, [fp, #-16]
	.loc 1 289 3
	ldr	r3, .L63
.LPIC42:
	add	r3, pc, r3
	mov	r2, r3
	ldr	r1, [fp, #-16]
	ldr	r0, [fp, #-12]
	bl	EApiSprintfA(PLT)
	.loc 1 290 10
	mov	r3, #0
	.loc 1 291 1
	mov	r0, r3
	sub	sp, fp, #4
	.cfi_def_cfa 13, 8
	@ sp needed
	pop	{fp, pc}
.L64:
	.align	2
.L63:
	.word	.LC25-(.LPIC42+8)
	.cfi_endproc
.LFE11:
	.size	SpecRev_Help, .-SpecRev_Help
	.section	.rodata
	.align	2
.LC26:
	.ascii	"3 Letter PNPID e.g. PMG,KEM\000"
	.text
	.align	2
	.global	PNPID_Help
	.syntax unified
	.arm
	.fpu vfpv3
	.type	PNPID_Help, %function
PNPID_Help:
.LFB12:
	.loc 1 298 1
	.cfi_startproc
	@ args = 0, pretend = 0, frame = 16
	@ frame_needed = 1, uses_anonymous_args = 0
	push	{fp, lr}
	.cfi_def_cfa_offset 8
	.cfi_offset 11, -8
	.cfi_offset 14, -4
	add	fp, sp, #4
	.cfi_def_cfa 11, 4
	sub	sp, sp, #16
	str	r0, [fp, #-8]
	str	r1, [fp, #-12]
	str	r2, [fp, #-16]
	.loc 1 300 3
	ldr	r3, .L67
.LPIC43:
	add	r3, pc, r3
	mov	r2, r3
	ldr	r1, [fp, #-16]
	ldr	r0, [fp, #-12]
	bl	EApiSprintfA(PLT)
	.loc 1 301 10
	mov	r3, #0
	.loc 1 302 1
	mov	r0, r3
	sub	sp, fp, #4
	.cfi_def_cfa 13, 8
	@ sp needed
	pop	{fp, pc}
.L68:
	.align	2
.L67:
	.word	.LC26-(.LPIC43+8)
	.cfi_endproc
.LFE12:
	.size	PNPID_Help, .-PNPID_Help
	.section	.rodata
	.align	2
.LC27:
	.ascii	"Encodded I2C EEPROM Device Selector Address 0xA0,0x"
	.ascii	"A2,0xA4,0xA6,0xA8,0xAA,0xAC,0xAE\012\000"
	.text
	.align	2
	.global	I2C_EEPROM_Help
	.syntax unified
	.arm
	.fpu vfpv3
	.type	I2C_EEPROM_Help, %function
I2C_EEPROM_Help:
.LFB13:
	.loc 1 309 1
	.cfi_startproc
	@ args = 0, pretend = 0, frame = 16
	@ frame_needed = 1, uses_anonymous_args = 0
	push	{fp, lr}
	.cfi_def_cfa_offset 8
	.cfi_offset 11, -8
	.cfi_offset 14, -4
	add	fp, sp, #4
	.cfi_def_cfa 11, 4
	sub	sp, sp, #16
	str	r0, [fp, #-8]
	str	r1, [fp, #-12]
	str	r2, [fp, #-16]
	.loc 1 311 3
	ldr	r3, .L71
.LPIC44:
	add	r3, pc, r3
	mov	r2, r3
	ldr	r1, [fp, #-16]
	ldr	r0, [fp, #-12]
	bl	EApiSprintfA(PLT)
	.loc 1 313 10
	mov	r3, #0
	.loc 1 314 1
	mov	r0, r3
	sub	sp, fp, #4
	.cfi_def_cfa 13, 8
	@ sp needed
	pop	{fp, pc}
.L72:
	.align	2
.L71:
	.word	.LC27-(.LPIC44+8)
	.cfi_endproc
.LFE13:
	.size	I2C_EEPROM_Help, .-I2C_EEPROM_Help
	.section	.rodata
	.align	2
.LC28:
	.ascii	"Dealloc_Element\000"
	.align	2
.LC29:
	.ascii	"pElementDesc->stBitOffset != 0\000"
	.align	2
.LC30:
	.ascii	"pElementDesc->stBitLength != 8*sizeof(char*)\000"
	.align	2
.LC31:
	.ascii	"pElementDesc->Instances.stElementSize != sizeof(cha"
	.ascii	"r*)\000"
	.text
	.align	2
	.global	Dealloc_Element
	.syntax unified
	.arm
	.fpu vfpv3
	.type	Dealloc_Element, %function
Dealloc_Element:
.LFB14:
	.loc 1 327 1
	.cfi_startproc
	@ args = 0, pretend = 0, frame = 16
	@ frame_needed = 1, uses_anonymous_args = 0
	push	{fp, lr}
	.cfi_def_cfa_offset 8
	.cfi_offset 11, -8
	.cfi_offset 14, -4
	add	fp, sp, #4
	.cfi_def_cfa 11, 4
	sub	sp, sp, #32
	str	r0, [fp, #-16]
	str	r1, [fp, #-20]
	.loc 1 328 16
	mov	r3, #0
	str	r3, [fp, #-8]
	.loc 1 329 3
	ldr	r3, [fp, #-16]
	ldr	r3, [r3, #40]
	cmp	r3, #0
	beq	.L74
	.loc 1 329 3 is_stmt 0 discriminator 1
	ldr	r3, .L80
.LPIC45:
	add	r3, pc, r3
	str	r3, [sp, #8]
	ldr	r3, .L80+4
.LPIC46:
	add	r3, pc, r3
	str	r3, [sp, #4]
	mvn	r3, #256
	str	r3, [sp]
	movw	r3, #329
	ldr	r2, .L80+8
.LPIC47:
	add	r2, pc, r2
	ldr	r1, .L80+12
.LPIC48:
	add	r1, pc, r1
	mov	r0, #69
	bl	siFormattedMessage_SC(PLT)
	mvn	r3, #256
	str	r3, [fp, #-8]
	b	.L75
.L74:
	.loc 1 334 3 is_stmt 1
	ldr	r3, [fp, #-16]
	ldr	r3, [r3, #44]
	cmp	r3, #32
	beq	.L76
	.loc 1 334 3 is_stmt 0 discriminator 1
	ldr	r3, .L80+16
.LPIC49:
	add	r3, pc, r3
	str	r3, [sp, #8]
	ldr	r3, .L80+20
.LPIC50:
	add	r3, pc, r3
	str	r3, [sp, #4]
	mvn	r3, #256
	str	r3, [sp]
	movw	r3, #334
	ldr	r2, .L80+24
.LPIC51:
	add	r2, pc, r2
	ldr	r1, .L80+28
.LPIC52:
	add	r1, pc, r1
	mov	r0, #69
	bl	siFormattedMessage_SC(PLT)
	mvn	r3, #256
	str	r3, [fp, #-8]
	b	.L75
.L76:
	.loc 1 339 3 is_stmt 1
	ldr	r3, [fp, #-16]
	ldr	r3, [r3, #20]
	cmp	r3, #4
	beq	.L77
	.loc 1 339 3 is_stmt 0 discriminator 1
	ldr	r3, .L80+32
.LPIC53:
	add	r3, pc, r3
	str	r3, [sp, #8]
	ldr	r3, .L80+36
.LPIC54:
	add	r3, pc, r3
	str	r3, [sp, #4]
	mvn	r3, #256
	str	r3, [sp]
	movw	r3, #339
	ldr	r2, .L80+40
.LPIC55:
	add	r2, pc, r2
	ldr	r1, .L80+44
.LPIC56:
	add	r1, pc, r1
	mov	r0, #69
	bl	siFormattedMessage_SC(PLT)
	mvn	r3, #256
	str	r3, [fp, #-8]
	b	.L75
.L77:
	.loc 1 344 6 is_stmt 1
	ldr	r3, [fp, #-20]
	ldr	r3, [r3]
	.loc 1 344 5
	cmp	r3, #0
	beq	.L79
	.loc 1 345 5
	ldr	r3, [fp, #-20]
	ldr	r3, [r3]
	mov	r0, r3
	bl	free(PLT)
	.loc 1 346 25
	ldr	r3, [fp, #-20]
	mov	r2, #0
	str	r2, [r3]
	b	.L75
.L79:
	.loc 1 348 1
	nop
.L75:
	.loc 1 349 10
	mov	r3, #0
	.loc 1 350 1
	mov	r0, r3
	sub	sp, fp, #4
	.cfi_def_cfa 13, 8
	@ sp needed
	pop	{fp, pc}
.L81:
	.align	2
.L80:
	.word	.LC29-(.LPIC45+8)
	.word	.LC3-(.LPIC46+8)
	.word	.LC28-(.LPIC47+8)
	.word	.LC1-(.LPIC48+8)
	.word	.LC30-(.LPIC49+8)
	.word	.LC3-(.LPIC50+8)
	.word	.LC28-(.LPIC51+8)
	.word	.LC1-(.LPIC52+8)
	.word	.LC31-(.LPIC53+8)
	.word	.LC3-(.LPIC54+8)
	.word	.LC28-(.LPIC55+8)
	.word	.LC1-(.LPIC56+8)
	.cfi_endproc
.LFE14:
	.size	Dealloc_Element, .-Dealloc_Element
	.section	.rodata
	.align	2
.LC32:
	.ascii	"pElementDesc->stBitLength+ pElementDesc->stBitOffse"
	.ascii	"t> pElementDesc->Instances.stElementSize*8\000"
	.text
	.align	2
	.global	GenClear_Element
	.syntax unified
	.arm
	.fpu vfpv3
	.type	GenClear_Element, %function
GenClear_Element:
.LFB15:
	.loc 1 357 1
	.cfi_startproc
	@ args = 0, pretend = 0, frame = 32
	@ frame_needed = 1, uses_anonymous_args = 0
	push	{fp, lr}
	.cfi_def_cfa_offset 8
	.cfi_offset 11, -8
	.cfi_offset 14, -4
	add	fp, sp, #4
	.cfi_def_cfa 11, 4
	sub	sp, sp, #48
	str	r0, [fp, #-32]
	str	r1, [fp, #-36]
	.loc 1 358 16
	mov	r3, #0
	str	r3, [fp, #-24]
	.loc 1 359 12
	ldr	r3, [fp, #-36]
	str	r3, [fp, #-20]
	.loc 1 360 35
	ldr	r3, [fp, #-32]
	ldr	r3, [r3, #40]
	.loc 1 360 10
	lsr	r3, r3, #3
	str	r3, [fp, #-28]
	.loc 1 361 35
	ldr	r3, [fp, #-32]
	ldr	r3, [r3, #40]
	.loc 1 361 10
	and	r3, r3, #7
	str	r3, [fp, #-16]
	.loc 1 362 37
	ldr	r3, [fp, #-32]
	ldr	r2, [r3, #44]
	.loc 1 362 51
	ldr	r3, [fp, #-16]
	add	r3, r2, r3
	.loc 1 362 10
	lsr	r3, r3, #3
	str	r3, [fp, #-12]
	.loc 1 363 36
	ldr	r3, [fp, #-32]
	ldr	r2, [r3, #44]
	.loc 1 363 50
	ldr	r3, [fp, #-16]
	add	r3, r2, r3
	.loc 1 363 10
	and	r3, r3, #7
	str	r3, [fp, #-8]
	.loc 1 364 3
	ldr	r3, [fp, #-32]
	ldr	r2, [r3, #44]
	ldr	r3, [fp, #-32]
	ldr	r3, [r3, #40]
	add	r2, r2, r3
	ldr	r3, [fp, #-32]
	ldr	r3, [r3, #20]
	lsl	r3, r3, #3
	cmp	r2, r3
	bls	.L83
	.loc 1 364 3 is_stmt 0 discriminator 1
	ldr	r3, .L88
.LPIC57:
	add	r3, pc, r3
	str	r3, [sp, #8]
	ldr	r3, .L88+4
.LPIC58:
	add	r3, pc, r3
	str	r3, [sp, #4]
	mvn	r3, #256
	str	r3, [sp]
	mov	r3, #364
	ldr	r2, .L88+8
.LPIC59:
	add	r2, pc, r2
	ldr	r1, .L88+12
.LPIC60:
	add	r1, pc, r1
	mov	r0, #69
	bl	siFormattedMessage_SC(PLT)
	mvn	r3, #256
	str	r3, [fp, #-24]
	b	.L84
.L83:
	.loc 1 369 5 is_stmt 1
	ldr	r3, [fp, #-16]
	cmp	r3, #0
	beq	.L85
	.loc 1 370 60
	ldr	r2, [fp, #-20]
	ldr	r3, [fp, #-28]
	add	r3, r2, r3
	.loc 1 370 45
	ldrb	r3, [r3]	@ zero_extendqisi2
	sxtb	r2, r3
	.loc 1 370 78
	mov	r1, #1
	ldr	r3, [fp, #-16]
	lsl	r3, r1, r3
	.loc 1 370 92
	uxtb	r3, r3
	sub	r3, r3, #1
	uxtb	r3, r3
	sxtb	r3, r3
	.loc 1 370 74
	and	r3, r3, r2
	sxtb	r1, r3
	.loc 1 370 20
	ldr	r2, [fp, #-20]
	ldr	r3, [fp, #-28]
	add	r3, r2, r3
	.loc 1 370 35
	uxtb	r2, r1
	.loc 1 370 34
	strb	r2, [r3]
	.loc 1 371 5
	ldr	r3, [fp, #-28]
	add	r3, r3, #1
	str	r3, [fp, #-28]
.L85:
	.loc 1 373 5
	ldr	r3, [fp, #-12]
	cmp	r3, #0
	beq	.L87
	.loc 1 374 25
	ldr	r2, [fp, #-20]
	ldr	r3, [fp, #-28]
	add	r3, r2, r3
	.loc 1 374 5
	ldr	r2, [fp, #-12]
	mov	r1, #0
	mov	r0, r3
	bl	memset(PLT)
	.loc 1 375 17
	ldr	r2, [fp, #-28]
	ldr	r3, [fp, #-12]
	add	r3, r2, r3
	str	r3, [fp, #-28]
	.loc 1 376 7
	ldr	r3, [fp, #-8]
	cmp	r3, #0
	beq	.L87
	.loc 1 377 62
	ldr	r2, [fp, #-20]
	ldr	r3, [fp, #-28]
	add	r3, r2, r3
	.loc 1 377 47
	ldrb	r3, [r3]	@ zero_extendqisi2
	sxtb	r2, r3
	.loc 1 377 87
	mov	r1, #255
	ldr	r3, [fp, #-8]
	lsl	r3, r1, r3
	.loc 1 377 76
	sxtb	r3, r3
	and	r3, r3, r2
	sxtb	r1, r3
	.loc 1 377 22
	ldr	r2, [fp, #-20]
	ldr	r3, [fp, #-28]
	add	r3, r2, r3
	.loc 1 377 37
	uxtb	r2, r1
	.loc 1 377 36
	strb	r2, [r3]
	b	.L84
.L87:
	.loc 1 380 1
	nop
.L84:
	.loc 1 381 10
	mov	r3, #0
	.loc 1 382 1
	mov	r0, r3
	sub	sp, fp, #4
	.cfi_def_cfa 13, 8
	@ sp needed
	pop	{fp, pc}
.L89:
	.align	2
.L88:
	.word	.LC32-(.LPIC57+8)
	.word	.LC3-(.LPIC58+8)
	.word	.LC28-(.LPIC59+8)
	.word	.LC1-(.LPIC60+8)
	.cfi_endproc
.LFE15:
	.size	GenClear_Element, .-GenClear_Element
	.section	.rodata
	.align	2
.LC33:
	.ascii	"String_Element\000"
	.align	2
.LC34:
	.ascii	"\011String_Element = String Too Short, %s\012\000"
	.align	2
.LC35:
	.ascii	"\011String_Element = String Too Long, %s\012\000"
	.text
	.align	2
	.global	String_Element
	.syntax unified
	.arm
	.fpu vfpv3
	.type	String_Element, %function
String_Element:
.LFB16:
	.loc 1 396 1
	.cfi_startproc
	@ args = 0, pretend = 0, frame = 32
	@ frame_needed = 1, uses_anonymous_args = 0
	push	{fp, lr}
	.cfi_def_cfa_offset 8
	.cfi_offset 11, -8
	.cfi_offset 14, -4
	add	fp, sp, #4
	.cfi_def_cfa 11, 4
	sub	sp, sp, #48
	str	r0, [fp, #-24]
	str	r1, [fp, #-28]
	str	r2, [fp, #-32]
	.loc 1 397 16
	mov	r3, #0
	str	r3, [fp, #-16]
	.loc 1 398 17
	ldr	r3, [fp, #-24]
	ldr	r3, [r3, #52]
	str	r3, [fp, #-12]
	.loc 1 400 3
	ldr	r3, [fp, #-24]
	ldr	r3, [r3, #40]
	cmp	r3, #0
	beq	.L91
	.loc 1 400 3 is_stmt 0 discriminator 1
	ldr	r3, .L99
.LPIC61:
	add	r3, pc, r3
	str	r3, [sp, #8]
	ldr	r3, .L99+4
.LPIC62:
	add	r3, pc, r3
	str	r3, [sp, #4]
	mvn	r3, #256
	str	r3, [sp]
	mov	r3, #400
	ldr	r2, .L99+8
.LPIC63:
	add	r2, pc, r2
	ldr	r1, .L99+12
.LPIC64:
	add	r1, pc, r1
	mov	r0, #69
	bl	siFormattedMessage_SC(PLT)
	mvn	r3, #256
	str	r3, [fp, #-16]
	b	.L92
.L91:
	.loc 1 405 3 is_stmt 1
	ldr	r3, [fp, #-24]
	ldr	r3, [r3, #44]
	cmp	r3, #32
	beq	.L93
	.loc 1 405 3 is_stmt 0 discriminator 1
	ldr	r3, .L99+16
.LPIC65:
	add	r3, pc, r3
	str	r3, [sp, #8]
	ldr	r3, .L99+20
.LPIC66:
	add	r3, pc, r3
	str	r3, [sp, #4]
	mvn	r3, #256
	str	r3, [sp]
	movw	r3, #405
	ldr	r2, .L99+24
.LPIC67:
	add	r2, pc, r2
	ldr	r1, .L99+28
.LPIC68:
	add	r1, pc, r1
	mov	r0, #69
	bl	siFormattedMessage_SC(PLT)
	mvn	r3, #256
	str	r3, [fp, #-16]
	b	.L92
.L93:
	.loc 1 410 3 is_stmt 1
	ldr	r3, [fp, #-24]
	ldr	r3, [r3, #20]
	cmp	r3, #4
	beq	.L94
	.loc 1 410 3 is_stmt 0 discriminator 1
	ldr	r3, .L99+32
.LPIC69:
	add	r3, pc, r3
	str	r3, [sp, #8]
	ldr	r3, .L99+36
.LPIC70:
	add	r3, pc, r3
	str	r3, [sp, #4]
	mvn	r3, #256
	str	r3, [sp]
	movw	r3, #410
	ldr	r2, .L99+40
.LPIC71:
	add	r2, pc, r2
	ldr	r1, .L99+44
.LPIC72:
	add	r1, pc, r1
	mov	r0, #69
	bl	siFormattedMessage_SC(PLT)
	mvn	r3, #256
	str	r3, [fp, #-16]
	b	.L92
.L94:
	.loc 1 415 5 is_stmt 1
	ldr	r3, [fp, #-12]
	cmp	r3, #0
	beq	.L95
	.loc 1 416 20
	ldr	r3, [fp, #-12]
	ldr	r3, [r3, #8]
	.loc 1 416 7
	cmp	r3, #0
	bne	.L96
	.loc 1 417 7
	ldr	r0, [fp, #-32]
	bl	stripWhiteSpaces(PLT)
.L96:
	.loc 1 419 17
	ldr	r0, [fp, #-32]
	bl	strlen(PLT)
	str	r0, [fp, #-8]
	.loc 1 420 19
	ldr	r3, [fp, #-12]
	ldr	r3, [r3]
	.loc 1 420 7
	cmp	r3, #0
	beq	.L97
	.loc 1 421 21
	ldr	r3, [fp, #-12]
	ldr	r3, [r3]
	.loc 1 421 9
	ldr	r2, [fp, #-8]
	cmp	r2, r3
	bcs	.L97
	.loc 1 422 9
	ldr	r1, [fp, #-32]
	ldr	r3, .L99+48
.LPIC73:
	add	r3, pc, r3
	mov	r0, r3
	bl	printf(PLT)
.L97:
	.loc 1 425 19
	ldr	r3, [fp, #-12]
	ldr	r3, [r3, #4]
	.loc 1 425 7
	cmp	r3, #0
	beq	.L95
	.loc 1 426 21
	ldr	r3, [fp, #-12]
	ldr	r3, [r3, #4]
	.loc 1 426 9
	ldr	r2, [fp, #-8]
	cmp	r2, r3
	bls	.L95
	.loc 1 427 9
	ldr	r1, [fp, #-32]
	ldr	r3, .L99+52
.LPIC74:
	add	r3, pc, r3
	mov	r0, r3
	bl	printf(PLT)
.L95:
	.loc 1 431 25
	ldr	r0, [fp, #-32]
	bl	strdup(PLT)
	mov	r3, r0
	mov	r2, r3
	.loc 1 431 24
	ldr	r3, [fp, #-28]
	str	r2, [r3]
.L92:
	.loc 1 436 10
	mov	r3, #0
	.loc 1 437 1
	mov	r0, r3
	sub	sp, fp, #4
	.cfi_def_cfa 13, 8
	@ sp needed
	pop	{fp, pc}
.L100:
	.align	2
.L99:
	.word	.LC29-(.LPIC61+8)
	.word	.LC3-(.LPIC62+8)
	.word	.LC33-(.LPIC63+8)
	.word	.LC1-(.LPIC64+8)
	.word	.LC30-(.LPIC65+8)
	.word	.LC3-(.LPIC66+8)
	.word	.LC33-(.LPIC67+8)
	.word	.LC1-(.LPIC68+8)
	.word	.LC31-(.LPIC69+8)
	.word	.LC3-(.LPIC70+8)
	.word	.LC33-(.LPIC71+8)
	.word	.LC1-(.LPIC72+8)
	.word	.LC34-(.LPIC73+8)
	.word	.LC35-(.LPIC74+8)
	.cfi_endproc
.LFE16:
	.size	String_Element, .-String_Element
	.section	.rodata
	.align	2
.LC36:
	.ascii	"GUID_Element\000"
	.align	2
.LC37:
	.ascii	"pElementDesc->Instances.stElementSize != sizeof(*pG"
	.ascii	"UID)\000"
	.align	2
.LC38:
	.ascii	"\011String_Element = Invalid Format, %s\012\000"
	.text
	.align	2
	.global	GUID_Element
	.syntax unified
	.arm
	.fpu vfpv3
	.type	GUID_Element, %function
GUID_Element:
.LFB17:
	.loc 1 444 1
	.cfi_startproc
	@ args = 0, pretend = 0, frame = 40
	@ frame_needed = 1, uses_anonymous_args = 0
	push	{r4, fp, lr}
	.cfi_def_cfa_offset 12
	.cfi_offset 4, -12
	.cfi_offset 11, -8
	.cfi_offset 14, -4
	add	fp, sp, #8
	.cfi_def_cfa 11, 4
	sub	sp, sp, #60
	str	r0, [fp, #-40]
	str	r1, [fp, #-44]
	str	r2, [fp, #-48]
	.loc 1 444 1
	ldr	r2, .L114
.LPIC84:
	add	r2, pc, r2
	ldr	r3, .L114+4
	ldr	r3, [r2, r3]
	ldr	r3, [r3]
	str	r3, [fp, #-16]
	mov	r3, #0
	.loc 1 445 16
	mov	r3, #0
	str	r3, [fp, #-32]
	.loc 1 449 15
	ldr	r3, [fp, #-44]
	str	r3, [fp, #-24]
	.loc 1 450 3
	ldr	r3, [fp, #-40]
	ldr	r3, [r3, #40]
	cmp	r3, #0
	beq	.L102
	.loc 1 450 3 is_stmt 0 discriminator 1
	ldr	r3, .L114+8
.LPIC75:
	add	r3, pc, r3
	str	r3, [sp, #8]
	ldr	r3, .L114+12
.LPIC76:
	add	r3, pc, r3
	str	r3, [sp, #4]
	mvn	r3, #256
	str	r3, [sp]
	movw	r3, #450
	ldr	r2, .L114+16
.LPIC77:
	add	r2, pc, r2
	ldr	r1, .L114+20
.LPIC78:
	add	r1, pc, r1
	mov	r0, #69
	bl	siFormattedMessage_SC(PLT)
	mvn	r3, #256
	str	r3, [fp, #-32]
	b	.L103
.L102:
	.loc 1 455 3 is_stmt 1
	ldr	r3, [fp, #-40]
	ldr	r3, [r3, #20]
	cmp	r3, #16
	beq	.L104
	.loc 1 455 3 is_stmt 0 discriminator 1
	ldr	r3, .L114+24
.LPIC79:
	add	r3, pc, r3
	str	r3, [sp, #8]
	ldr	r3, .L114+28
.LPIC80:
	add	r3, pc, r3
	str	r3, [sp, #4]
	mvn	r3, #256
	str	r3, [sp]
	movw	r3, #455
	ldr	r2, .L114+32
.LPIC81:
	add	r2, pc, r2
	ldr	r1, .L114+36
.LPIC82:
	add	r1, pc, r1
	mov	r0, #69
	bl	siFormattedMessage_SC(PLT)
	mvn	r3, #256
	str	r3, [fp, #-32]
	b	.L103
.L104:
	.loc 1 460 11 is_stmt 1
	ldr	r0, [fp, #-48]
	bl	skipWhiteSpaces(PLT)
	str	r0, [fp, #-48]
	.loc 1 461 3
	ldr	r0, [fp, #-48]
	bl	stripWhiteSpaces(PLT)
	.loc 1 466 14
	ldr	r3, [fp, #-48]
	add	r3, r3, #8
	ldrb	r3, [r3]	@ zero_extendqisi2
	.loc 1 466 5
	cmp	r3, #45
	bne	.L105
	.loc 1 467 14 discriminator 1
	ldr	r3, [fp, #-48]
	add	r3, r3, #13
	ldrb	r3, [r3]	@ zero_extendqisi2
	.loc 1 466 23 discriminator 1
	cmp	r3, #45
	bne	.L105
	.loc 1 468 14
	ldr	r3, [fp, #-48]
	add	r3, r3, #18
	ldrb	r3, [r3]	@ zero_extendqisi2
	.loc 1 467 23
	cmp	r3, #45
	bne	.L105
	.loc 1 469 14
	ldr	r3, [fp, #-48]
	add	r3, r3, #23
	ldrb	r3, [r3]	@ zero_extendqisi2
	.loc 1 468 23
	cmp	r3, #45
	bne	.L105
	.loc 1 470 14
	ldr	r3, [fp, #-48]
	add	r3, r3, #36
	ldrb	r3, [r3]	@ zero_extendqisi2
	.loc 1 469 23
	cmp	r3, #0
	beq	.L106
.L105:
	.loc 1 473 5
	ldr	r1, [fp, #-48]
	ldr	r3, .L114+40
.LPIC83:
	add	r3, pc, r3
	mov	r0, r3
	bl	printf(PLT)
	.loc 1 474 12
	mvn	r3, #3840
	b	.L112
.L106:
	.loc 1 476 33
	ldr	r4, [fp, #-24]
	.loc 1 476 37
	sub	r3, fp, #36
	mov	r2, #16
	mov	r1, r3
	ldr	r0, [fp, #-48]
	bl	strtoul(PLT)
	mov	r3, r0
	.loc 1 476 3
	mov	r1, r3
	mov	r0, r4
	bl	EeeP_Set32BitValue_BE(PLT)
	.loc 1 477 36
	ldr	r3, [fp, #-24]
	add	r4, r3, #4
	.loc 1 477 65
	ldr	r3, [fp, #-48]
	add	r3, r3, #9
	.loc 1 477 50
	sub	r1, fp, #36
	mov	r2, #16
	mov	r0, r3
	bl	strtoul(PLT)
	mov	r3, r0
	.loc 1 477 3
	uxth	r3, r3
	mov	r1, r3
	mov	r0, r4
	bl	EeeP_Set16BitValue_BE(PLT)
	.loc 1 478 36
	ldr	r3, [fp, #-24]
	add	r4, r3, #6
	.loc 1 478 65
	ldr	r3, [fp, #-48]
	add	r3, r3, #14
	.loc 1 478 50
	sub	r1, fp, #36
	mov	r2, #16
	mov	r0, r3
	bl	strtoul(PLT)
	mov	r3, r0
	.loc 1 478 3
	uxth	r3, r3
	mov	r1, r3
	mov	r0, r4
	bl	EeeP_Set16BitValue_BE(PLT)
	.loc 1 479 8
	mov	r3, #19
	str	r3, [fp, #-28]
	.loc 1 479 3
	b	.L108
.L109:
	.loc 1 480 26 discriminator 3
	ldr	r2, [fp, #-48]
	ldr	r3, [fp, #-28]
	add	r3, r2, r3
	ldrh	r3, [r3]	@ unaligned
	uxth	r3, r3
	.loc 1 480 5 discriminator 3
	strh	r3, [fp, #-20]	@ movhi
	.loc 1 481 13 discriminator 3
	mov	r3, #0
	strb	r3, [fp, #-18]
	.loc 1 482 41 discriminator 3
	sub	r1, fp, #36
	sub	r3, fp, #20
	mov	r2, #16
	mov	r0, r3
	bl	strtoul(PLT)
	mov	r2, r0
	.loc 1 482 22 discriminator 3
	ldr	r3, [fp, #-28]
	sub	r3, r3, #19
	.loc 1 482 16 discriminator 3
	lsr	r3, r3, #1
	.loc 1 482 32 discriminator 3
	uxtb	r1, r2
	.loc 1 482 31 discriminator 3
	ldr	r2, [fp, #-24]
	add	r3, r2, r3
	mov	r2, r1
	strb	r2, [r3, #8]
	.loc 1 479 18 discriminator 3
	ldr	r3, [fp, #-28]
	add	r3, r3, #2
	str	r3, [fp, #-28]
.L108:
	.loc 1 479 13 discriminator 1
	ldr	r3, [fp, #-28]
	cmp	r3, #21
	bls	.L109
	.loc 1 484 8
	mov	r3, #24
	str	r3, [fp, #-28]
	.loc 1 484 3
	b	.L110
.L111:
	.loc 1 485 26 discriminator 3
	ldr	r2, [fp, #-48]
	ldr	r3, [fp, #-28]
	add	r3, r2, r3
	ldrh	r3, [r3]	@ unaligned
	uxth	r3, r3
	.loc 1 485 5 discriminator 3
	strh	r3, [fp, #-20]	@ movhi
	.loc 1 486 13 discriminator 3
	mov	r3, #0
	strb	r3, [fp, #-18]
	.loc 1 487 41 discriminator 3
	sub	r1, fp, #36
	sub	r3, fp, #20
	mov	r2, #16
	mov	r0, r3
	bl	strtoul(PLT)
	mov	r2, r0
	.loc 1 487 22 discriminator 3
	ldr	r3, [fp, #-28]
	sub	r3, r3, #24
	.loc 1 487 27 discriminator 3
	lsr	r3, r3, #1
	.loc 1 487 16 discriminator 3
	add	r3, r3, #2
	.loc 1 487 32 discriminator 3
	uxtb	r1, r2
	.loc 1 487 31 discriminator 3
	ldr	r2, [fp, #-24]
	add	r3, r2, r3
	mov	r2, r1
	strb	r2, [r3, #8]
	.loc 1 484 18 discriminator 3
	ldr	r3, [fp, #-28]
	add	r3, r3, #2
	str	r3, [fp, #-28]
.L110:
	.loc 1 484 13 discriminator 1
	ldr	r3, [fp, #-28]
	cmp	r3, #34
	bls	.L111
	.loc 1 500 1
	nop
.L103:
	.loc 1 501 10
	ldr	r3, [fp, #-32]
.L112:
	.loc 1 444 1 discriminator 1
	ldr	r1, .L114+44
.LPIC85:
	add	r1, pc, r1
	.loc 1 502 1 discriminator 1
	ldr	r2, .L114+4
	ldr	r2, [r1, r2]
	ldr	r1, [r2]
	ldr	r2, [fp, #-16]
	eors	r1, r2, r1
	mov	r2, #0
	beq	.L113
	.loc 1 502 1 is_stmt 0
	bl	__stack_chk_fail(PLT)
.L113:
	mov	r0, r3
	sub	sp, fp, #8
	.cfi_def_cfa 13, 12
	@ sp needed
	pop	{r4, fp, pc}
.L115:
	.align	2
.L114:
	.word	_GLOBAL_OFFSET_TABLE_-(.LPIC84+8)
	.word	__stack_chk_guard(GOT)
	.word	.LC29-(.LPIC75+8)
	.word	.LC3-(.LPIC76+8)
	.word	.LC36-(.LPIC77+8)
	.word	.LC1-(.LPIC78+8)
	.word	.LC37-(.LPIC79+8)
	.word	.LC3-(.LPIC80+8)
	.word	.LC36-(.LPIC81+8)
	.word	.LC1-(.LPIC82+8)
	.word	.LC38-(.LPIC83+8)
	.word	_GLOBAL_OFFSET_TABLE_-(.LPIC85+8)
	.cfi_endproc
.LFE17:
	.size	GUID_Element, .-GUID_Element
	.section	.rodata
	.align	2
.LC39:
	.ascii	"ParseAsciiEqu(szValue, &sllValue)\000"
	.align	2
.LC40:
	.ascii	"\011Number_Element = Outside Range, %s\012\000"
	.align	2
.LC41:
	.ascii	"AssignValue_VAB( sllValue, pCurElement, (signed int"
	.ascii	")pElementDesc->stBitOffset , (signed int)pElementDe"
	.ascii	"sc->stBitLength , (signed int)pElementDesc->Instanc"
	.ascii	"es.stElementSize )\000"
	.text
	.align	2
	.global	Number_Element
	.syntax unified
	.arm
	.fpu vfpv3
	.type	Number_Element, %function
Number_Element:
.LFB18:
	.loc 1 509 1 is_stmt 1
	.cfi_startproc
	@ args = 0, pretend = 0, frame = 40
	@ frame_needed = 1, uses_anonymous_args = 0
	push	{fp, lr}
	.cfi_def_cfa_offset 8
	.cfi_offset 11, -8
	.cfi_offset 14, -4
	add	fp, sp, #4
	.cfi_def_cfa 11, 4
	sub	sp, sp, #56
	str	r0, [fp, #-32]
	str	r1, [fp, #-36]
	str	r2, [fp, #-40]
	.loc 1 509 1
	ldr	r2, .L124
.LPIC95:
	add	r2, pc, r2
	ldr	r3, .L124+4
	ldr	r3, [r2, r3]
	ldr	r3, [r3]
	str	r3, [fp, #-8]
	mov	r3, #0
	.loc 1 510 16
	mov	r3, #0
	str	r3, [fp, #-24]
	.loc 1 513 3
	sub	r3, fp, #20
	mov	r1, r3
	ldr	r0, [fp, #-40]
	bl	ParseAsciiEqu(PLT)
	str	r0, [fp, #-24]
	ldr	r3, [fp, #-24]
	cmp	r3, #0
	beq	.L117
	.loc 1 513 3 is_stmt 0 discriminator 1
	ldr	r3, .L124+8
.LPIC86:
	add	r3, pc, r3
	str	r3, [sp, #8]
	ldr	r3, .L124+12
.LPIC87:
	add	r3, pc, r3
	str	r3, [sp, #4]
	ldr	r3, [fp, #-24]
	str	r3, [sp]
	movw	r3, #513
	ldr	r2, .L124+16
.LPIC88:
	add	r2, pc, r2
	ldr	r1, .L124+20
.LPIC89:
	add	r1, pc, r1
	mov	r0, #69
	bl	siFormattedMessage_SC(PLT)
	b	.L118
.L117:
	.loc 1 514 18 is_stmt 1
	ldr	r3, [fp, #-32]
	ldr	r3, [r3, #52]
	.loc 1 514 5
	cmp	r3, #0
	beq	.L119
	.loc 1 516 42
	ldr	r3, [fp, #-32]
	ldr	r0, [r3, #52]
	.loc 1 515 16
	ldrd	r2, [fp, #-20]
	mov	r3, r2
	mov	r1, r3
	bl	RangeCheckAny(PLT)
	str	r0, [fp, #-24]
.L119:
	.loc 1 520 5
	ldr	r3, [fp, #-24]
	cmp	r3, #0
	beq	.L120
	.loc 1 521 5
	ldr	r1, [fp, #-40]
	ldr	r3, .L124+24
.LPIC90:
	add	r3, pc, r3
	mov	r0, r3
	bl	printf(PLT)
	b	.L118
.L120:
	.loc 1 524 4
	ldrd	r0, [fp, #-20]
	ldr	r3, [fp, #-32]
	ldr	r3, [r3, #40]
	mov	ip, r3
	ldr	r3, [fp, #-32]
	ldr	r3, [r3, #44]
	mov	r2, r3
	ldr	r3, [fp, #-32]
	ldr	r3, [r3, #20]
	str	r3, [sp, #4]
	str	r2, [sp]
	mov	r3, ip
	ldr	r2, [fp, #-36]
	bl	AssignValue_VAB(PLT)
	str	r0, [fp, #-24]
	ldr	r3, [fp, #-24]
	cmp	r3, #0
	beq	.L123
	.loc 1 524 4 is_stmt 0 discriminator 1
	ldr	r3, .L124+28
.LPIC91:
	add	r3, pc, r3
	str	r3, [sp, #8]
	ldr	r3, .L124+32
.LPIC92:
	add	r3, pc, r3
	str	r3, [sp, #4]
	ldr	r3, [fp, #-24]
	str	r3, [sp]
	mov	r3, #524
	ldr	r2, .L124+36
.LPIC93:
	add	r2, pc, r2
	ldr	r1, .L124+40
.LPIC94:
	add	r1, pc, r1
	mov	r0, #69
	bl	siFormattedMessage_SC(PLT)
	b	.L118
.L123:
	.loc 1 534 1 is_stmt 1
	nop
.L118:
	.loc 1 535 10
	ldr	r3, [fp, #-24]
	.loc 1 509 1
	ldr	r1, .L124+44
.LPIC96:
	add	r1, pc, r1
	.loc 1 536 1
	ldr	r2, .L124+4
	ldr	r2, [r1, r2]
	ldr	r1, [r2]
	ldr	r2, [fp, #-8]
	eors	r1, r2, r1
	mov	r2, #0
	beq	.L122
	bl	__stack_chk_fail(PLT)
.L122:
	mov	r0, r3
	sub	sp, fp, #4
	.cfi_def_cfa 13, 8
	@ sp needed
	pop	{fp, pc}
.L125:
	.align	2
.L124:
	.word	_GLOBAL_OFFSET_TABLE_-(.LPIC95+8)
	.word	__stack_chk_guard(GOT)
	.word	.LC39-(.LPIC86+8)
	.word	.LC3-(.LPIC87+8)
	.word	.LC0-(.LPIC88+8)
	.word	.LC1-(.LPIC89+8)
	.word	.LC40-(.LPIC90+8)
	.word	.LC41-(.LPIC91+8)
	.word	.LC3-(.LPIC92+8)
	.word	.LC0-(.LPIC93+8)
	.word	.LC1-(.LPIC94+8)
	.word	_GLOBAL_OFFSET_TABLE_-(.LPIC96+8)
	.cfi_endproc
.LFE18:
	.size	Number_Element, .-Number_Element
	.section	.rodata
	.align	2
.LC42:
	.ascii	"BYTES\000"
	.align	2
.LC43:
	.ascii	"\000"
	.align	2
.LC44:
	.ascii	"KB\000"
	.align	2
.LC45:
	.ascii	"*(1024 BYTES)\000"
	.align	2
.LC46:
	.ascii	"MB\000"
	.align	2
.LC47:
	.ascii	"*(1024 KB)\000"
	.align	2
.LC48:
	.ascii	"GB\000"
	.align	2
.LC49:
	.ascii	"*(1024 MB)\000"
	.section	.data.rel.local
	.align	2
	.type	SizeMacros, %object
	.size	SizeMacros, 32
SizeMacros:
	.word	.LC42
	.word	.LC43
	.word	.LC44
	.word	.LC45
	.word	.LC46
	.word	.LC47
	.word	.LC48
	.word	.LC49
	.align	2
	.type	SizeMacroDesc, %object
	.size	SizeMacroDesc, 8
SizeMacroDesc:
	.word	SizeMacros
	.word	4
	.section	.rodata
	.align	2
.LC50:
	.ascii	"ParseAsciiEquEx(szValue, &SizeMacroDesc, &sllValue)"
	.ascii	"\000"
	.text
	.align	2
	.global	Size_Element
	.syntax unified
	.arm
	.fpu vfpv3
	.type	Size_Element, %function
Size_Element:
.LFB19:
	.loc 1 551 1
	.cfi_startproc
	@ args = 0, pretend = 0, frame = 40
	@ frame_needed = 1, uses_anonymous_args = 0
	push	{fp, lr}
	.cfi_def_cfa_offset 8
	.cfi_offset 11, -8
	.cfi_offset 14, -4
	add	fp, sp, #4
	.cfi_def_cfa 11, 4
	sub	sp, sp, #56
	str	r0, [fp, #-32]
	str	r1, [fp, #-36]
	str	r2, [fp, #-40]
	.loc 1 551 1
	ldr	r2, .L134
.LPIC107:
	add	r2, pc, r2
	ldr	r3, .L134+4
	ldr	r3, [r2, r3]
	ldr	r3, [r3]
	str	r3, [fp, #-8]
	mov	r3, #0
	.loc 1 552 16
	mov	r3, #0
	str	r3, [fp, #-24]
	.loc 1 555 3
	sub	r3, fp, #20
	mov	r2, r3
	ldr	r3, .L134+8
.LPIC97:
	add	r3, pc, r3
	mov	r1, r3
	ldr	r0, [fp, #-40]
	bl	ParseAsciiEquEx(PLT)
	str	r0, [fp, #-24]
	ldr	r3, [fp, #-24]
	cmp	r3, #0
	beq	.L127
	.loc 1 555 3 is_stmt 0 discriminator 1
	ldr	r3, .L134+12
.LPIC98:
	add	r3, pc, r3
	str	r3, [sp, #8]
	ldr	r3, .L134+16
.LPIC99:
	add	r3, pc, r3
	str	r3, [sp, #4]
	ldr	r3, [fp, #-24]
	str	r3, [sp]
	movw	r3, #555
	ldr	r2, .L134+20
.LPIC100:
	add	r2, pc, r2
	ldr	r1, .L134+24
.LPIC101:
	add	r1, pc, r1
	mov	r0, #69
	bl	siFormattedMessage_SC(PLT)
	b	.L128
.L127:
	.loc 1 556 18 is_stmt 1
	ldr	r3, [fp, #-32]
	ldr	r3, [r3, #52]
	.loc 1 556 5
	cmp	r3, #0
	beq	.L129
	.loc 1 558 42
	ldr	r3, [fp, #-32]
	ldr	r0, [r3, #52]
	.loc 1 557 16
	ldrd	r2, [fp, #-20]
	mov	r3, r2
	mov	r1, r3
	bl	RangeCheckAny(PLT)
	str	r0, [fp, #-24]
.L129:
	.loc 1 563 5
	ldr	r3, [fp, #-24]
	cmp	r3, #0
	beq	.L130
	.loc 1 564 5
	ldr	r1, [fp, #-40]
	ldr	r3, .L134+28
.LPIC102:
	add	r3, pc, r3
	mov	r0, r3
	bl	printf(PLT)
	b	.L128
.L130:
	.loc 1 567 4
	ldrd	r0, [fp, #-20]
	ldr	r3, [fp, #-32]
	ldr	r3, [r3, #40]
	mov	ip, r3
	ldr	r3, [fp, #-32]
	ldr	r3, [r3, #44]
	mov	r2, r3
	ldr	r3, [fp, #-32]
	ldr	r3, [r3, #20]
	str	r3, [sp, #4]
	str	r2, [sp]
	mov	r3, ip
	ldr	r2, [fp, #-36]
	bl	AssignValue_VAB(PLT)
	str	r0, [fp, #-24]
	ldr	r3, [fp, #-24]
	cmp	r3, #0
	beq	.L133
	.loc 1 567 4 is_stmt 0 discriminator 1
	ldr	r3, .L134+32
.LPIC103:
	add	r3, pc, r3
	str	r3, [sp, #8]
	ldr	r3, .L134+36
.LPIC104:
	add	r3, pc, r3
	str	r3, [sp, #4]
	ldr	r3, [fp, #-24]
	str	r3, [sp]
	movw	r3, #567
	ldr	r2, .L134+40
.LPIC105:
	add	r2, pc, r2
	ldr	r1, .L134+44
.LPIC106:
	add	r1, pc, r1
	mov	r0, #69
	bl	siFormattedMessage_SC(PLT)
	b	.L128
.L133:
	.loc 1 577 1 is_stmt 1
	nop
.L128:
	.loc 1 578 10
	ldr	r3, [fp, #-24]
	.loc 1 551 1
	ldr	r1, .L134+48
.LPIC108:
	add	r1, pc, r1
	.loc 1 579 1
	ldr	r2, .L134+4
	ldr	r2, [r1, r2]
	ldr	r1, [r2]
	ldr	r2, [fp, #-8]
	eors	r1, r2, r1
	mov	r2, #0
	beq	.L132
	bl	__stack_chk_fail(PLT)
.L132:
	mov	r0, r3
	sub	sp, fp, #4
	.cfi_def_cfa 13, 8
	@ sp needed
	pop	{fp, pc}
.L135:
	.align	2
.L134:
	.word	_GLOBAL_OFFSET_TABLE_-(.LPIC107+8)
	.word	__stack_chk_guard(GOT)
	.word	SizeMacroDesc-(.LPIC97+8)
	.word	.LC50-(.LPIC98+8)
	.word	.LC3-(.LPIC99+8)
	.word	.LC0-(.LPIC100+8)
	.word	.LC1-(.LPIC101+8)
	.word	.LC40-(.LPIC102+8)
	.word	.LC41-(.LPIC103+8)
	.word	.LC3-(.LPIC104+8)
	.word	.LC0-(.LPIC105+8)
	.word	.LC1-(.LPIC106+8)
	.word	_GLOBAL_OFFSET_TABLE_-(.LPIC108+8)
	.cfi_endproc
.LFE19:
	.size	Size_Element, .-Size_Element
	.section	.rodata
	.align	2
.LC51:
	.ascii	"I2C_EEPROM_Addr\000"
	.align	2
.LC52:
	.ascii	"pElementDesc->Instances.stElementSize < sizeof(uint"
	.ascii	"16_t)\000"
	.align	2
.LC53:
	.ascii	"pElementDesc->stBitLength < 8*sizeof(uint16_t)\000"
	.align	2
.LC54:
	.ascii	"AssignValue_VAB( ulDeviceAddress, pCurElement, (sig"
	.ascii	"ned int)pElementDesc->stBitOffset , (signed int)pEl"
	.ascii	"ementDesc->stBitLength , (signed int)pElementDesc->"
	.ascii	"Instances.stElementSize )\000"
	.align	2
.LC55:
	.ascii	"\011I2C_EEPROM_Addr = Invalid Address 0x%02lX, %s\012"
	.ascii	"\000"
	.text
	.align	2
	.global	I2C_EEPROM_Addr
	.syntax unified
	.arm
	.fpu vfpv3
	.type	I2C_EEPROM_Addr, %function
I2C_EEPROM_Addr:
.LFB20:
	.loc 1 587 1
	.cfi_startproc
	@ args = 0, pretend = 0, frame = 24
	@ frame_needed = 1, uses_anonymous_args = 0
	push	{r4, r5, fp, lr}
	.cfi_def_cfa_offset 16
	.cfi_offset 4, -16
	.cfi_offset 5, -12
	.cfi_offset 11, -8
	.cfi_offset 14, -4
	add	fp, sp, #12
	.cfi_def_cfa 11, 4
	sub	sp, sp, #40
	str	r0, [fp, #-24]
	str	r1, [fp, #-28]
	str	r2, [fp, #-32]
	.loc 1 588 16
	mov	r3, #0
	str	r3, [fp, #-20]
	.loc 1 589 33
	mov	r1, #0
	ldr	r0, [fp, #-32]
	bl	ulConvertStr2NumEx(PLT)
	str	r0, [fp, #-16]
	.loc 1 591 3
	ldr	r3, [fp, #-24]
	ldr	r3, [r3, #20]
	cmp	r3, #1
	bhi	.L137
	.loc 1 591 3 is_stmt 0 discriminator 1
	ldr	r3, .L143
.LPIC109:
	add	r3, pc, r3
	str	r3, [sp, #8]
	ldr	r3, .L143+4
.LPIC110:
	add	r3, pc, r3
	str	r3, [sp, #4]
	mvn	r3, #256
	str	r3, [sp]
	movw	r3, #591
	ldr	r2, .L143+8
.LPIC111:
	add	r2, pc, r2
	ldr	r1, .L143+12
.LPIC112:
	add	r1, pc, r1
	mov	r0, #69
	bl	siFormattedMessage_SC(PLT)
	mvn	r3, #256
	str	r3, [fp, #-20]
	b	.L138
.L137:
	.loc 1 596 3 is_stmt 1
	ldr	r3, [fp, #-24]
	ldr	r3, [r3, #44]
	cmp	r3, #15
	bhi	.L139
	.loc 1 596 3 is_stmt 0 discriminator 1
	ldr	r3, .L143+16
.LPIC113:
	add	r3, pc, r3
	str	r3, [sp, #8]
	ldr	r3, .L143+20
.LPIC114:
	add	r3, pc, r3
	str	r3, [sp, #4]
	mvn	r3, #256
	str	r3, [sp]
	mov	r3, #596
	ldr	r2, .L143+24
.LPIC115:
	add	r2, pc, r2
	ldr	r1, .L143+28
.LPIC116:
	add	r1, pc, r1
	mov	r0, #69
	bl	siFormattedMessage_SC(PLT)
	mvn	r3, #256
	str	r3, [fp, #-20]
	b	.L138
.L139:
	.loc 1 602 5 is_stmt 1
	ldr	r3, [fp, #-16]
	cmp	r3, #174
	bhi	.L140
	.loc 1 602 29 discriminator 1
	ldr	r3, [fp, #-16]
	cmp	r3, #159
	bls	.L140
	.loc 1 602 73 discriminator 2
	ldr	r3, [fp, #-16]
	and	r3, r3, #1
	.loc 1 602 54 discriminator 2
	cmp	r3, #0
	bne	.L140
	.loc 1 604 4
	ldr	r3, [fp, #-16]
	mov	r2, #0
	mov	r4, r3
	mov	r5, r2
	ldr	r3, [fp, #-24]
	ldr	r3, [r3, #40]
	mov	r1, r3
	ldr	r3, [fp, #-24]
	ldr	r3, [r3, #44]
	mov	r2, r3
	ldr	r3, [fp, #-24]
	ldr	r3, [r3, #20]
	str	r3, [sp, #4]
	str	r2, [sp]
	mov	r3, r1
	ldr	r2, [fp, #-28]
	mov	r0, r4
	mov	r1, r5
	bl	AssignValue_VAB(PLT)
	str	r0, [fp, #-20]
	ldr	r3, [fp, #-20]
	cmp	r3, #0
	beq	.L138
	.loc 1 604 4 is_stmt 0 discriminator 1
	ldr	r3, .L143+32
.LPIC117:
	add	r3, pc, r3
	str	r3, [sp, #8]
	ldr	r3, .L143+36
.LPIC118:
	add	r3, pc, r3
	str	r3, [sp, #4]
	ldr	r3, [fp, #-20]
	str	r3, [sp]
	mov	r3, #604
	ldr	r2, .L143+40
.LPIC119:
	add	r2, pc, r2
	ldr	r1, .L143+44
.LPIC120:
	add	r1, pc, r1
	mov	r0, #69
	bl	siFormattedMessage_SC(PLT)
	b	.L138
.L140:
	.loc 1 612 4 is_stmt 1
	ldr	r2, [fp, #-32]
	ldr	r1, [fp, #-16]
	ldr	r3, .L143+48
.LPIC121:
	add	r3, pc, r3
	mov	r0, r3
	bl	printf(PLT)
	.loc 1 613 14
	mvn	r3, #3840
	str	r3, [fp, #-20]
.L138:
	.loc 1 617 10
	ldr	r3, [fp, #-20]
	.loc 1 618 1
	mov	r0, r3
	sub	sp, fp, #12
	.cfi_def_cfa 13, 16
	@ sp needed
	pop	{r4, r5, fp, pc}
.L144:
	.align	2
.L143:
	.word	.LC52-(.LPIC109+8)
	.word	.LC3-(.LPIC110+8)
	.word	.LC51-(.LPIC111+8)
	.word	.LC1-(.LPIC112+8)
	.word	.LC53-(.LPIC113+8)
	.word	.LC3-(.LPIC114+8)
	.word	.LC51-(.LPIC115+8)
	.word	.LC1-(.LPIC116+8)
	.word	.LC54-(.LPIC117+8)
	.word	.LC3-(.LPIC118+8)
	.word	.LC0-(.LPIC119+8)
	.word	.LC1-(.LPIC120+8)
	.word	.LC55-(.LPIC121+8)
	.cfi_endproc
.LFE20:
	.size	I2C_EEPROM_Addr, .-I2C_EEPROM_Addr
	.section	.rodata
	.align	2
.LC56:
	.ascii	"\011Token_Element = Unknown Token, %s\012\000"
	.align	2
.LC57:
	.ascii	"AssignValue_VAB( ulValue, pCurElement, (signed int)"
	.ascii	"pElementDesc->stBitOffset , (signed int)pElementDes"
	.ascii	"c->stBitLength , (signed int)pElementDesc->Instance"
	.ascii	"s.stElementSize )\000"
	.text
	.align	2
	.global	Token_Element
	.syntax unified
	.arm
	.fpu vfpv3
	.type	Token_Element, %function
Token_Element:
.LFB21:
	.loc 1 626 1
	.cfi_startproc
	@ args = 0, pretend = 0, frame = 32
	@ frame_needed = 1, uses_anonymous_args = 0
	push	{r4, r5, fp, lr}
	.cfi_def_cfa_offset 16
	.cfi_offset 4, -16
	.cfi_offset 5, -12
	.cfi_offset 11, -8
	.cfi_offset 14, -4
	add	fp, sp, #12
	.cfi_def_cfa 11, 4
	sub	sp, sp, #48
	str	r0, [fp, #-32]
	str	r1, [fp, #-36]
	str	r2, [fp, #-40]
	.loc 1 626 1
	ldr	r2, .L151
.LPIC127:
	add	r2, pc, r2
	ldr	r3, .L151+4
	ldr	r3, [r2, r3]
	ldr	r3, [r3]
	str	r3, [fp, #-16]
	mov	r3, #0
	.loc 1 627 16
	mov	r3, #0
	str	r3, [fp, #-20]
	.loc 1 631 11
	ldr	r0, [fp, #-40]
	bl	skipWhiteSpaces(PLT)
	str	r0, [fp, #-40]
	.loc 1 632 3
	ldr	r0, [fp, #-40]
	bl	stripWhiteSpaces(PLT)
	.loc 1 634 38
	ldr	r3, [fp, #-32]
	ldr	r3, [r3, #52]
	.loc 1 633 14
	sub	r2, fp, #24
	ldr	r1, [fp, #-40]
	mov	r0, r3
	bl	GetTokenValue(PLT)
	str	r0, [fp, #-20]
	.loc 1 639 5
	ldr	r3, [fp, #-20]
	cmp	r3, #0
	beq	.L146
	.loc 1 640 5
	ldr	r1, [fp, #-40]
	ldr	r3, .L151+8
.LPIC122:
	add	r3, pc, r3
	mov	r0, r3
	bl	printf(PLT)
	b	.L147
.L146:
	.loc 1 643 4
	ldr	r3, [fp, #-24]
	mov	r2, #0
	mov	r4, r3
	mov	r5, r2
	ldr	r3, [fp, #-32]
	ldr	r3, [r3, #40]
	mov	r1, r3
	ldr	r3, [fp, #-32]
	ldr	r3, [r3, #44]
	mov	r2, r3
	ldr	r3, [fp, #-32]
	ldr	r3, [r3, #20]
	str	r3, [sp, #4]
	str	r2, [sp]
	mov	r3, r1
	ldr	r2, [fp, #-36]
	mov	r0, r4
	mov	r1, r5
	bl	AssignValue_VAB(PLT)
	str	r0, [fp, #-20]
	ldr	r3, [fp, #-20]
	cmp	r3, #0
	beq	.L150
	.loc 1 643 4 is_stmt 0 discriminator 1
	ldr	r3, .L151+12
.LPIC123:
	add	r3, pc, r3
	str	r3, [sp, #8]
	ldr	r3, .L151+16
.LPIC124:
	add	r3, pc, r3
	str	r3, [sp, #4]
	ldr	r3, [fp, #-20]
	str	r3, [sp]
	movw	r3, #643
	ldr	r2, .L151+20
.LPIC125:
	add	r2, pc, r2
	ldr	r1, .L151+24
.LPIC126:
	add	r1, pc, r1
	mov	r0, #69
	bl	siFormattedMessage_SC(PLT)
	b	.L147
.L150:
	.loc 1 651 1 is_stmt 1
	nop
.L147:
	.loc 1 652 10
	ldr	r3, [fp, #-20]
	.loc 1 626 1
	ldr	r1, .L151+28
.LPIC128:
	add	r1, pc, r1
	.loc 1 653 1
	ldr	r2, .L151+4
	ldr	r2, [r1, r2]
	ldr	r1, [r2]
	ldr	r2, [fp, #-16]
	eors	r1, r2, r1
	mov	r2, #0
	beq	.L149
	bl	__stack_chk_fail(PLT)
.L149:
	mov	r0, r3
	sub	sp, fp, #12
	.cfi_def_cfa 13, 16
	@ sp needed
	pop	{r4, r5, fp, pc}
.L152:
	.align	2
.L151:
	.word	_GLOBAL_OFFSET_TABLE_-(.LPIC127+8)
	.word	__stack_chk_guard(GOT)
	.word	.LC56-(.LPIC122+8)
	.word	.LC57-(.LPIC123+8)
	.word	.LC3-(.LPIC124+8)
	.word	.LC0-(.LPIC125+8)
	.word	.LC1-(.LPIC126+8)
	.word	_GLOBAL_OFFSET_TABLE_-(.LPIC128+8)
	.cfi_endproc
.LFE21:
	.size	Token_Element, .-Token_Element
	.section	.rodata
	.align	2
.LC58:
	.ascii	"AssignValue_VA( ulValue, pCurElement, (signed int)p"
	.ascii	"ElementDesc->Instances.stElementSize )\000"
	.align	2
.LC59:
	.ascii	"Number_Element(&LclElementDesc, pCurElement, szValu"
	.ascii	"e)\000"
	.text
	.align	2
	.global	TokenNum_Element
	.syntax unified
	.arm
	.fpu vfpv3
	.type	TokenNum_Element, %function
TokenNum_Element:
.LFB22:
	.loc 1 660 1
	.cfi_startproc
	@ args = 0, pretend = 0, frame = 88
	@ frame_needed = 1, uses_anonymous_args = 0
	push	{r4, r5, fp, lr}
	.cfi_def_cfa_offset 16
	.cfi_offset 4, -16
	.cfi_offset 5, -12
	.cfi_offset 11, -8
	.cfi_offset 14, -4
	add	fp, sp, #12
	.cfi_def_cfa 11, 4
	sub	sp, sp, #104
	str	r0, [fp, #-88]
	str	r1, [fp, #-92]
	str	r2, [fp, #-96]
	.loc 1 660 1
	ldr	r2, .L159
.LPIC137:
	add	r2, pc, r2
	ldr	r3, .L159+4
	ldr	r3, [r2, r3]
	ldr	r3, [r3]
	str	r3, [fp, #-16]
	mov	r3, #0
	.loc 1 661 16
	mov	r3, #0
	str	r3, [fp, #-76]
	.loc 1 664 11
	ldr	r0, [fp, #-96]
	bl	skipWhiteSpaces(PLT)
	str	r0, [fp, #-96]
	.loc 1 665 3
	ldr	r0, [fp, #-96]
	bl	stripWhiteSpaces(PLT)
	.loc 1 668 37
	ldr	r3, [fp, #-88]
	ldr	r3, [r3, #52]
	.loc 1 668 50
	ldr	r3, [r3]
	.loc 1 667 14
	sub	r2, fp, #80
	ldr	r1, [fp, #-96]
	mov	r0, r3
	bl	GetTokenValue(PLT)
	str	r0, [fp, #-76]
	.loc 1 672 5
	ldr	r3, [fp, #-76]
	cmp	r3, #0
	bne	.L154
	.loc 1 673 5
	ldr	r3, [fp, #-80]
	mov	r2, #0
	mov	r4, r3
	mov	r5, r2
	ldr	r3, [fp, #-88]
	ldr	r3, [r3, #20]
	ldr	r2, [fp, #-92]
	mov	r0, r4
	mov	r1, r5
	bl	AssignValue_VA(PLT)
	str	r0, [fp, #-76]
	ldr	r3, [fp, #-76]
	cmp	r3, #0
	beq	.L155
	.loc 1 673 5 is_stmt 0 discriminator 1
	ldr	r3, .L159+8
.LPIC129:
	add	r3, pc, r3
	str	r3, [sp, #8]
	ldr	r3, .L159+12
.LPIC130:
	add	r3, pc, r3
	str	r3, [sp, #4]
	ldr	r3, [fp, #-76]
	str	r3, [sp]
	movw	r3, #673
	ldr	r2, .L159+16
.LPIC131:
	add	r2, pc, r2
	ldr	r1, .L159+20
.LPIC132:
	add	r1, pc, r1
	mov	r0, #69
	bl	siFormattedMessage_SC(PLT)
	b	.L155
.L154:
.LBB2:
	.loc 1 679 30 is_stmt 1
	ldr	r3, [fp, #-88]
	sub	ip, fp, #72
	mov	lr, r3
	ldmia	lr!, {r0, r1, r2, r3}
	stmia	ip!, {r0, r1, r2, r3}
	ldmia	lr!, {r0, r1, r2, r3}
	stmia	ip!, {r0, r1, r2, r3}
	ldmia	lr!, {r0, r1, r2, r3}
	stmia	ip!, {r0, r1, r2, r3}
	ldm	lr, {r0, r1}
	stm	ip, {r0, r1}
	.loc 1 681 61
	ldr	r3, [fp, #-88]
	ldr	r3, [r3, #52]
	.loc 1 681 74
	ldr	r3, [r3, #4]
	.loc 1 681 30
	str	r3, [fp, #-20]
	.loc 1 682 5
	sub	r3, fp, #72
	ldr	r2, [fp, #-96]
	ldr	r1, [fp, #-92]
	mov	r0, r3
	bl	Number_Element(PLT)
	str	r0, [fp, #-76]
	ldr	r3, [fp, #-76]
	cmp	r3, #0
	beq	.L155
	.loc 1 682 5 is_stmt 0 discriminator 1
	ldr	r3, .L159+24
.LPIC133:
	add	r3, pc, r3
	str	r3, [sp, #8]
	ldr	r3, .L159+28
.LPIC134:
	add	r3, pc, r3
	str	r3, [sp, #4]
	ldr	r3, [fp, #-76]
	str	r3, [sp]
	movw	r3, #682
	ldr	r2, .L159+32
.LPIC135:
	add	r2, pc, r2
	ldr	r1, .L159+36
.LPIC136:
	add	r1, pc, r1
	mov	r0, #69
	bl	siFormattedMessage_SC(PLT)
.L155:
.LBE2:
	.loc 1 687 10 is_stmt 1
	ldr	r3, [fp, #-76]
	.loc 1 660 1
	ldr	r1, .L159+40
.LPIC138:
	add	r1, pc, r1
	.loc 1 688 1
	ldr	r2, .L159+4
	ldr	r2, [r1, r2]
	ldr	r1, [r2]
	ldr	r2, [fp, #-16]
	eors	r1, r2, r1
	mov	r2, #0
	beq	.L158
	bl	__stack_chk_fail(PLT)
.L158:
	mov	r0, r3
	sub	sp, fp, #12
	.cfi_def_cfa 13, 16
	@ sp needed
	pop	{r4, r5, fp, pc}
.L160:
	.align	2
.L159:
	.word	_GLOBAL_OFFSET_TABLE_-(.LPIC137+8)
	.word	__stack_chk_guard(GOT)
	.word	.LC58-(.LPIC129+8)
	.word	.LC3-(.LPIC130+8)
	.word	.LC0-(.LPIC131+8)
	.word	.LC1-(.LPIC132+8)
	.word	.LC59-(.LPIC133+8)
	.word	.LC3-(.LPIC134+8)
	.word	.LC0-(.LPIC135+8)
	.word	.LC1-(.LPIC136+8)
	.word	_GLOBAL_OFFSET_TABLE_-(.LPIC138+8)
	.cfi_endproc
.LFE22:
	.size	TokenNum_Element, .-TokenNum_Element
	.section	.rodata
	.align	2
.LC60:
	.ascii	"SpecRev_Element\000"
	.align	2
.LC61:
	.ascii	"(*szEnd!='.')\000"
	.align	2
.LC62:
	.ascii	"AssignValue_VAB( uiValue, pCurElement, (signed int)"
	.ascii	"pElementDesc->stBitOffset , (signed int)pElementDes"
	.ascii	"c->stBitLength , (signed int)pElementDesc->Instance"
	.ascii	"s.stElementSize )\000"
	.text
	.align	2
	.global	SpecRev_Element
	.syntax unified
	.arm
	.fpu vfpv3
	.type	SpecRev_Element, %function
SpecRev_Element:
.LFB23:
	.loc 1 696 1
	.cfi_startproc
	@ args = 0, pretend = 0, frame = 32
	@ frame_needed = 1, uses_anonymous_args = 0
	push	{r4, r5, fp, lr}
	.cfi_def_cfa_offset 16
	.cfi_offset 4, -16
	.cfi_offset 5, -12
	.cfi_offset 11, -8
	.cfi_offset 14, -4
	add	fp, sp, #12
	.cfi_def_cfa 11, 4
	sub	sp, sp, #48
	str	r0, [fp, #-32]
	str	r1, [fp, #-36]
	str	r2, [fp, #-40]
	.loc 1 696 1
	ldr	r2, .L167
.LPIC147:
	add	r2, pc, r2
	ldr	r3, .L167+4
	ldr	r3, [r2, r3]
	ldr	r3, [r3]
	str	r3, [fp, #-16]
	mov	r3, #0
	.loc 1 697 16
	mov	r3, #0
	str	r3, [fp, #-24]
	.loc 1 701 12
	sub	r3, fp, #28
	mov	r1, r3
	ldr	r0, [fp, #-40]
	bl	ulConvertStr2NumEx(PLT)
	mov	r3, r0
	.loc 1 701 52
	lsl	r3, r3, #4
	.loc 1 701 10
	and	r3, r3, #240
	str	r3, [fp, #-20]
	.loc 1 702 3
	ldr	r3, [fp, #-28]
	ldrb	r3, [r3]	@ zero_extendqisi2
	cmp	r3, #46
	beq	.L162
	.loc 1 702 3 is_stmt 0 discriminator 1
	ldr	r3, .L167+8
.LPIC139:
	add	r3, pc, r3
	str	r3, [sp, #8]
	ldr	r3, .L167+12
.LPIC140:
	add	r3, pc, r3
	str	r3, [sp, #4]
	mvn	r3, #3840
	str	r3, [sp]
	movw	r3, #702
	ldr	r2, .L167+16
.LPIC141:
	add	r2, pc, r2
	ldr	r1, .L167+20
.LPIC142:
	add	r1, pc, r1
	mov	r0, #69
	bl	siFormattedMessage_SC(PLT)
	mvn	r3, #3840
	str	r3, [fp, #-24]
	b	.L163
.L162:
	.loc 1 707 12 is_stmt 1
	ldr	r3, [fp, #-28]
	.loc 1 707 36
	add	r3, r3, #1
	.loc 1 707 12
	sub	r2, fp, #28
	mov	r1, r2
	mov	r0, r3
	bl	ulConvertStr2NumEx(PLT)
	mov	r3, r0
	.loc 1 707 47
	and	r3, r3, #15
	.loc 1 707 10
	ldr	r2, [fp, #-20]
	orr	r3, r2, r3
	str	r3, [fp, #-20]
	.loc 1 709 3
	ldr	r3, [fp, #-20]
	mov	r2, #0
	mov	r4, r3
	mov	r5, r2
	ldr	r3, [fp, #-32]
	ldr	r3, [r3, #40]
	mov	r1, r3
	ldr	r3, [fp, #-32]
	ldr	r3, [r3, #44]
	mov	r2, r3
	ldr	r3, [fp, #-32]
	ldr	r3, [r3, #20]
	str	r3, [sp, #4]
	str	r2, [sp]
	mov	r3, r1
	ldr	r2, [fp, #-36]
	mov	r0, r4
	mov	r1, r5
	bl	AssignValue_VAB(PLT)
	str	r0, [fp, #-24]
	ldr	r3, [fp, #-24]
	cmp	r3, #0
	beq	.L166
	.loc 1 709 3 is_stmt 0 discriminator 1
	ldr	r3, .L167+24
.LPIC143:
	add	r3, pc, r3
	str	r3, [sp, #8]
	ldr	r3, .L167+28
.LPIC144:
	add	r3, pc, r3
	str	r3, [sp, #4]
	ldr	r3, [fp, #-24]
	str	r3, [sp]
	movw	r3, #709
	ldr	r2, .L167+32
.LPIC145:
	add	r2, pc, r2
	ldr	r1, .L167+36
.LPIC146:
	add	r1, pc, r1
	mov	r0, #69
	bl	siFormattedMessage_SC(PLT)
	b	.L163
.L166:
	.loc 1 716 1 is_stmt 1
	nop
.L163:
	.loc 1 717 10
	ldr	r3, [fp, #-24]
	.loc 1 696 1
	ldr	r1, .L167+40
.LPIC148:
	add	r1, pc, r1
	.loc 1 718 1
	ldr	r2, .L167+4
	ldr	r2, [r1, r2]
	ldr	r1, [r2]
	ldr	r2, [fp, #-16]
	eors	r1, r2, r1
	mov	r2, #0
	beq	.L165
	bl	__stack_chk_fail(PLT)
.L165:
	mov	r0, r3
	sub	sp, fp, #12
	.cfi_def_cfa 13, 16
	@ sp needed
	pop	{r4, r5, fp, pc}
.L168:
	.align	2
.L167:
	.word	_GLOBAL_OFFSET_TABLE_-(.LPIC147+8)
	.word	__stack_chk_guard(GOT)
	.word	.LC61-(.LPIC139+8)
	.word	.LC3-(.LPIC140+8)
	.word	.LC60-(.LPIC141+8)
	.word	.LC1-(.LPIC142+8)
	.word	.LC62-(.LPIC143+8)
	.word	.LC3-(.LPIC144+8)
	.word	.LC0-(.LPIC145+8)
	.word	.LC1-(.LPIC146+8)
	.word	_GLOBAL_OFFSET_TABLE_-(.LPIC148+8)
	.cfi_endproc
.LFE23:
	.size	SpecRev_Element, .-SpecRev_Element
	.section	.rodata
	.align	2
.LC63:
	.ascii	"PNPID_Element\000"
	.align	2
.LC64:
	.ascii	"(strlen(szValue)!=3)\000"
	.align	2
.LC65:
	.ascii	"(uiCurChar<'A'||uiCurChar>'Z')\000"
	.align	2
.LC66:
	.ascii	"AssignValue_VAB( uiPNPID, pCurElement, (signed int)"
	.ascii	"pElementDesc->stBitOffset , (signed int)pElementDes"
	.ascii	"c->stBitLength , (signed int)pElementDesc->Instance"
	.ascii	"s.stElementSize )\000"
	.text
	.align	2
	.global	PNPID_Element
	.syntax unified
	.arm
	.fpu vfpv3
	.type	PNPID_Element, %function
PNPID_Element:
.LFB24:
	.loc 1 725 1
	.cfi_startproc
	@ args = 0, pretend = 0, frame = 32
	@ frame_needed = 1, uses_anonymous_args = 0
	push	{r4, r5, fp, lr}
	.cfi_def_cfa_offset 16
	.cfi_offset 4, -16
	.cfi_offset 5, -12
	.cfi_offset 11, -8
	.cfi_offset 14, -4
	add	fp, sp, #12
	.cfi_def_cfa 11, 4
	sub	sp, sp, #48
	str	r0, [fp, #-32]
	str	r1, [fp, #-36]
	str	r2, [fp, #-40]
	.loc 1 726 16
	mov	r3, #0
	str	r3, [fp, #-28]
	.loc 1 729 16
	mov	r3, #0
	str	r3, [fp, #-20]
	.loc 1 730 3
	ldr	r0, [fp, #-40]
	bl	stripWhiteSpaces(PLT)
	.loc 1 732 3
	ldr	r3, [fp, #-32]
	ldr	r3, [r3, #20]
	cmp	r3, #1
	bhi	.L170
	.loc 1 732 3 is_stmt 0 discriminator 1
	ldr	r3, .L180
.LPIC149:
	add	r3, pc, r3
	str	r3, [sp, #8]
	ldr	r3, .L180+4
.LPIC150:
	add	r3, pc, r3
	str	r3, [sp, #4]
	mvn	r3, #256
	str	r3, [sp]
	mov	r3, #732
	ldr	r2, .L180+8
.LPIC151:
	add	r2, pc, r2
	ldr	r1, .L180+12
.LPIC152:
	add	r1, pc, r1
	mov	r0, #69
	bl	siFormattedMessage_SC(PLT)
	mvn	r3, #256
	str	r3, [fp, #-28]
	b	.L171
.L170:
	.loc 1 737 3 is_stmt 1
	ldr	r3, [fp, #-32]
	ldr	r3, [r3, #44]
	cmp	r3, #15
	bhi	.L172
	.loc 1 737 3 is_stmt 0 discriminator 1
	ldr	r3, .L180+16
.LPIC153:
	add	r3, pc, r3
	str	r3, [sp, #8]
	ldr	r3, .L180+20
.LPIC154:
	add	r3, pc, r3
	str	r3, [sp, #4]
	mvn	r3, #256
	str	r3, [sp]
	movw	r3, #737
	ldr	r2, .L180+24
.LPIC155:
	add	r2, pc, r2
	ldr	r1, .L180+28
.LPIC156:
	add	r1, pc, r1
	mov	r0, #69
	bl	siFormattedMessage_SC(PLT)
	mvn	r3, #256
	str	r3, [fp, #-28]
	b	.L171
.L172:
	.loc 1 743 3 is_stmt 1
	ldr	r0, [fp, #-40]
	bl	strlen(PLT)
	mov	r3, r0
	cmp	r3, #3
	beq	.L173
	.loc 1 743 3 is_stmt 0 discriminator 1
	ldr	r3, .L180+32
.LPIC157:
	add	r3, pc, r3
	str	r3, [sp, #8]
	ldr	r3, .L180+36
.LPIC158:
	add	r3, pc, r3
	str	r3, [sp, #4]
	mvn	r3, #3840
	str	r3, [sp]
	movw	r3, #743
	ldr	r2, .L180+40
.LPIC159:
	add	r2, pc, r2
	ldr	r1, .L180+44
.LPIC160:
	add	r1, pc, r1
	mov	r0, #69
	bl	siFormattedMessage_SC(PLT)
	mvn	r3, #3840
	str	r3, [fp, #-28]
	b	.L171
.L173:
	.loc 1 749 8 is_stmt 1
	mov	r3, #3
	str	r3, [fp, #-24]
	.loc 1 749 3
	b	.L174
.L177:
	.loc 1 750 31
	ldr	r3, [fp, #-40]
	add	r2, r3, #1
	str	r2, [fp, #-40]
	.loc 1 750 23
	ldrb	r3, [r3]	@ zero_extendqisi2
	.loc 1 750 15
	mov	r0, r3
	bl	toupper(PLT)
	mov	r3, r0
	.loc 1 750 14
	str	r3, [fp, #-16]
	.loc 1 751 5
	ldr	r3, [fp, #-16]
	cmp	r3, #64
	bls	.L175
	.loc 1 751 5 is_stmt 0 discriminator 2
	ldr	r3, [fp, #-16]
	cmp	r3, #90
	bls	.L176
.L175:
	.loc 1 751 5 discriminator 3
	ldr	r3, .L180+48
.LPIC161:
	add	r3, pc, r3
	str	r3, [sp, #8]
	ldr	r3, .L180+52
.LPIC162:
	add	r3, pc, r3
	str	r3, [sp, #4]
	mvn	r3, #3840
	str	r3, [sp]
	movw	r3, #751
	ldr	r2, .L180+56
.LPIC163:
	add	r2, pc, r2
	ldr	r1, .L180+60
.LPIC164:
	add	r1, pc, r1
	mov	r0, #69
	bl	siFormattedMessage_SC(PLT)
	mvn	r3, #3840
	str	r3, [fp, #-28]
	b	.L171
.L176:
	.loc 1 756 12 is_stmt 1
	ldr	r3, [fp, #-20]
	lsl	r3, r3, #5
	str	r3, [fp, #-20]
	.loc 1 757 29
	ldr	r3, [fp, #-16]
	sub	r3, r3, #64
	.loc 1 757 12
	ldr	r2, [fp, #-20]
	orr	r3, r2, r3
	str	r3, [fp, #-20]
.L174:
	.loc 1 749 12 discriminator 1
	ldr	r3, [fp, #-24]
	sub	r2, r3, #1
	str	r2, [fp, #-24]
	.loc 1 749 11 discriminator 1
	cmp	r3, #0
	bne	.L177
	.loc 1 759 3
	ldr	r3, [fp, #-20]
	mov	r2, #0
	mov	r4, r3
	mov	r5, r2
	ldr	r3, [fp, #-32]
	ldr	r3, [r3, #40]
	mov	r1, r3
	ldr	r3, [fp, #-32]
	ldr	r3, [r3, #44]
	mov	r2, r3
	ldr	r3, [fp, #-32]
	ldr	r3, [r3, #20]
	str	r3, [sp, #4]
	str	r2, [sp]
	mov	r3, r1
	ldr	r2, [fp, #-36]
	mov	r0, r4
	mov	r1, r5
	bl	AssignValue_VAB(PLT)
	str	r0, [fp, #-28]
	ldr	r3, [fp, #-28]
	cmp	r3, #0
	beq	.L179
	.loc 1 759 3 is_stmt 0 discriminator 1
	ldr	r3, .L180+64
.LPIC165:
	add	r3, pc, r3
	str	r3, [sp, #8]
	ldr	r3, .L180+68
.LPIC166:
	add	r3, pc, r3
	str	r3, [sp, #4]
	ldr	r3, [fp, #-28]
	str	r3, [sp]
	movw	r3, #759
	ldr	r2, .L180+72
.LPIC167:
	add	r2, pc, r2
	ldr	r1, .L180+76
.LPIC168:
	add	r1, pc, r1
	mov	r0, #69
	bl	siFormattedMessage_SC(PLT)
	b	.L171
.L179:
	.loc 1 767 1 is_stmt 1
	nop
.L171:
	.loc 1 768 10
	ldr	r3, [fp, #-28]
	.loc 1 769 1
	mov	r0, r3
	sub	sp, fp, #12
	.cfi_def_cfa 13, 16
	@ sp needed
	pop	{r4, r5, fp, pc}
.L181:
	.align	2
.L180:
	.word	.LC52-(.LPIC149+8)
	.word	.LC3-(.LPIC150+8)
	.word	.LC63-(.LPIC151+8)
	.word	.LC1-(.LPIC152+8)
	.word	.LC53-(.LPIC153+8)
	.word	.LC3-(.LPIC154+8)
	.word	.LC63-(.LPIC155+8)
	.word	.LC1-(.LPIC156+8)
	.word	.LC64-(.LPIC157+8)
	.word	.LC3-(.LPIC158+8)
	.word	.LC63-(.LPIC159+8)
	.word	.LC1-(.LPIC160+8)
	.word	.LC65-(.LPIC161+8)
	.word	.LC3-(.LPIC162+8)
	.word	.LC63-(.LPIC163+8)
	.word	.LC1-(.LPIC164+8)
	.word	.LC66-(.LPIC165+8)
	.word	.LC3-(.LPIC166+8)
	.word	.LC0-(.LPIC167+8)
	.word	.LC1-(.LPIC168+8)
	.cfi_endproc
.LFE24:
	.size	PNPID_Element, .-PNPID_Element
	.global	UINT8Range
	.data
	.align	2
	.type	UINT8Range, %object
	.size	UINT8Range, 12
UINT8Range:
	.word	0
	.word	255
	.word	1
	.global	UINT8RangeDesc
	.section	.data.rel.local
	.align	2
	.type	UINT8RangeDesc, %object
	.size	UINT8RangeDesc, 8
UINT8RangeDesc:
	.word	1
	.word	UINT8Range
	.global	UINT16Range
	.data
	.align	2
	.type	UINT16Range, %object
	.size	UINT16Range, 12
UINT16Range:
	.word	0
	.word	65535
	.word	1
	.global	UINT16RangeDesc
	.section	.data.rel.local
	.align	2
	.type	UINT16RangeDesc, %object
	.size	UINT16RangeDesc, 8
UINT16RangeDesc:
	.word	1
	.word	UINT16Range
	.global	UINT32Range
	.data
	.align	2
	.type	UINT32Range, %object
	.size	UINT32Range, 12
UINT32Range:
	.word	0
	.word	-1
	.word	1
	.global	UINT32RangeDesc
	.section	.data.rel.local
	.align	2
	.type	UINT32RangeDesc, %object
	.size	UINT32RangeDesc, 8
UINT32RangeDesc:
	.word	1
	.word	UINT32Range
	.global	InsideCrcTokens
	.section	.rodata
	.align	2
.LC67:
	.ascii	"InsideCRC\000"
	.align	2
.LC68:
	.ascii	"OutsideCRC\000"
	.section	.data.rel.local
	.align	2
	.type	InsideCrcTokens, %object
	.size	InsideCrcTokens, 16
InsideCrcTokens:
	.word	.LC67
	.word	1
	.word	.LC68
	.word	0
	.global	InsideCrcTL
	.align	2
	.type	InsideCrcTL, %object
	.size	InsideCrcTL, 8
InsideCrcTL:
	.word	2
	.word	InsideCrcTokens
	.global	PreserveTrailingSpaces
	.data
	.align	2
	.type	PreserveTrailingSpaces, %object
	.size	PreserveTrailingSpaces, 12
PreserveTrailingSpaces:
	.word	0
	.word	0
	.word	1
	.global	DeleteTrailingSpaces
	.bss
	.align	2
	.type	DeleteTrailingSpaces, %object
	.size	DeleteTrailingSpaces, 12
DeleteTrailingSpaces:
	.space	12
	.text
.Letext0:
	.file 2 "/home/hkh/buildroot-2022.02/output/host/arm-buildroot-linux-musleabihf/sysroot/usr/include/bits/alltypes.h"
	.file 3 "../../../include/EApi.h"
	.file 4 "../RangeFunc.h"
	.file 5 "../TokenFunc.h"
	.file 6 "../CfgParse.h"
	.file 7 "../../../include/EeeP.h"
	.file 8 "../StrFuncs.h"
	.file 9 "/home/hkh/buildroot-2022.02/output/host/arm-buildroot-linux-musleabihf/sysroot/usr/include/ctype.h"
	.file 10 "../Str2Value.h"
	.file 11 "../EeePApp.h"
	.file 12 "/home/hkh/buildroot-2022.02/output/host/arm-buildroot-linux-musleabihf/sysroot/usr/include/stdlib.h"
	.file 13 "/home/hkh/buildroot-2022.02/output/host/arm-buildroot-linux-musleabihf/sysroot/usr/include/string.h"
	.file 14 "/home/hkh/buildroot-2022.02/output/host/arm-buildroot-linux-musleabihf/sysroot/usr/include/stdio.h"
	.file 15 "../../include/EApiAHStr.h"
	.file 16 "../../include/DbgChk.h"
	.section	.note.GNU-stack,"",%progbits
