ARM GAS  /tmp/ccE14h5r.s 			page 1


   1              		.cpu cortex-a9
   2              		.eabi_attribute 28, 1
   3              		.eabi_attribute 20, 1
   4              		.eabi_attribute 21, 1
   5              		.eabi_attribute 23, 3
   6              		.eabi_attribute 24, 1
   7              		.eabi_attribute 25, 1
   8              		.eabi_attribute 26, 2
   9              		.eabi_attribute 30, 6
  10              		.eabi_attribute 34, 1
  11              		.eabi_attribute 18, 4
  12              		.file	"EeePCfg.c"
  13              		.text
  14              	.Ltext0:
  15              		.cfi_sections	.debug_frame
  16              		.global	COM0PCIe_Element_funcs
  17              		.section	.data.rel,"aw"
  18              		.align	2
  21              	COM0PCIe_Element_funcs:
  22 0000 00000000 		.word	COM0PCIe_Element
  23 0004 00000000 		.word	GenClear_Element
  24 0008 00000000 		.word	COM0PCIe_Help
  25 000c 00000000 		.word	No_Default_Txt
  26              		.global	SMBIOS_CE_Element_funcs
  27              		.align	2
  30              	SMBIOS_CE_Element_funcs:
  31 0010 00000000 		.word	SMBIOS_CE_Element
  32 0014 00000000 		.word	GenClear_Element
  33 0018 00000000 		.word	SMBIOS_CE_Help
  34 001c 00000000 		.word	No_Default_Txt
  35              		.global	SmbiosStructureTypesTokens
  36              		.section	.rodata
  37              		.align	2
  38              	.LC0:
  39 0000 42494F53 		.ascii	"BIOS_INFORMATION\000"
  39      5F494E46 
  39      4F524D41 
  39      54494F4E 
  39      00
  40 0011 000000   		.align	2
  41              	.LC1:
  42 0014 53595354 		.ascii	"SYSTEM_INFORMATION\000"
  42      454D5F49 
  42      4E464F52 
  42      4D415449 
  42      4F4E00
  43 0027 00       		.align	2
  44              	.LC2:
  45 0028 42415345 		.ascii	"BASE_BOARD_(OR_MODULE)_INFORMATION\000"
  45      5F424F41 
  45      52445F28 
  45      4F525F4D 
  45      4F44554C 
  46 004b 00       		.align	2
  47              	.LC3:
  48 004c 53595354 		.ascii	"SYSTEM_ENCLOSURE_OR_CHASSIS\000"
  48      454D5F45 
ARM GAS  /tmp/ccE14h5r.s 			page 2


  48      4E434C4F 
  48      53555245 
  48      5F4F525F 
  49              		.align	2
  50              	.LC4:
  51 0068 50524F43 		.ascii	"PROCESSOR_INFORMATION\000"
  51      4553534F 
  51      525F494E 
  51      464F524D 
  51      4154494F 
  52 007e 0000     		.align	2
  53              	.LC5:
  54 0080 4D454D4F 		.ascii	"MEMORY_CONTROLLER_INFORMATION\000"
  54      52595F43 
  54      4F4E5452 
  54      4F4C4C45 
  54      525F494E 
  55 009e 0000     		.align	2
  56              	.LC6:
  57 00a0 4D454D4F 		.ascii	"MEMORY_MODULE_INFORMATION\000"
  57      52595F4D 
  57      4F44554C 
  57      455F494E 
  57      464F524D 
  58 00ba 0000     		.align	2
  59              	.LC7:
  60 00bc 43414348 		.ascii	"CACHE_INFORMATION\000"
  60      455F494E 
  60      464F524D 
  60      4154494F 
  60      4E00
  61 00ce 0000     		.align	2
  62              	.LC8:
  63 00d0 504F5254 		.ascii	"PORT_CONNECTOR_INFORMATION\000"
  63      5F434F4E 
  63      4E454354 
  63      4F525F49 
  63      4E464F52 
  64 00eb 00       		.align	2
  65              	.LC9:
  66 00ec 53595354 		.ascii	"SYSTEM_SLOTS\000"
  66      454D5F53 
  66      4C4F5453 
  66      00
  67 00f9 000000   		.align	2
  68              	.LC10:
  69 00fc 4F4E5F42 		.ascii	"ON_BOARD_DEVICES_INFORMATION\000"
  69      4F415244 
  69      5F444556 
  69      49434553 
  69      5F494E46 
  70 0119 000000   		.align	2
  71              	.LC11:
  72 011c 4F454D5F 		.ascii	"OEM_STRINGS\000"
  72      53545249 
  72      4E475300 
  73              		.align	2
ARM GAS  /tmp/ccE14h5r.s 			page 3


  74              	.LC12:
  75 0128 53595354 		.ascii	"SYSTEM_CONFIGURATION_OPTIONS\000"
  75      454D5F43 
  75      4F4E4649 
  75      47555241 
  75      54494F4E 
  76 0145 000000   		.align	2
  77              	.LC13:
  78 0148 42494F53 		.ascii	"BIOS_LANGUAGE_INFORMATION\000"
  78      5F4C414E 
  78      47554147 
  78      455F494E 
  78      464F524D 
  79 0162 0000     		.align	2
  80              	.LC14:
  81 0164 47524F55 		.ascii	"GROUP_ASSOCIATIONS\000"
  81      505F4153 
  81      534F4349 
  81      4154494F 
  81      4E5300
  82 0177 00       		.align	2
  83              	.LC15:
  84 0178 53595354 		.ascii	"SYSTEM_EVENT_LOG\000"
  84      454D5F45 
  84      56454E54 
  84      5F4C4F47 
  84      00
  85 0189 000000   		.align	2
  86              	.LC16:
  87 018c 50485953 		.ascii	"PHYSICAL_MEMORY_ARRAY\000"
  87      4943414C 
  87      5F4D454D 
  87      4F52595F 
  87      41525241 
  88 01a2 0000     		.align	2
  89              	.LC17:
  90 01a4 4D454D4F 		.ascii	"MEMORY_DEVICE\000"
  90      52595F44 
  90      45564943 
  90      4500
  91 01b2 0000     		.align	2
  92              	.LC18:
  93 01b4 33325F42 		.ascii	"32_BIT_MEMORY_ERROR_INFORMATION\000"
  93      49545F4D 
  93      454D4F52 
  93      595F4552 
  93      524F525F 
  94              		.align	2
  95              	.LC19:
  96 01d4 4D454D4F 		.ascii	"MEMORY_ARRAY_MAPPED_ADDRESS\000"
  96      52595F41 
  96      52524159 
  96      5F4D4150 
  96      5045445F 
  97              		.align	2
  98              	.LC20:
  99 01f0 4D454D4F 		.ascii	"MEMORY_DEVICE_MAPPED_ADDRESS\000"
ARM GAS  /tmp/ccE14h5r.s 			page 4


  99      52595F44 
  99      45564943 
  99      455F4D41 
  99      50504544 
 100 020d 000000   		.align	2
 101              	.LC21:
 102 0210 4255494C 		.ascii	"BUILT_IN_POINTING_DEVICE\000"
 102      545F494E 
 102      5F504F49 
 102      4E54494E 
 102      475F4445 
 103 0229 000000   		.align	2
 104              	.LC22:
 105 022c 504F5254 		.ascii	"PORTABLE_BATTERY\000"
 105      41424C45 
 105      5F424154 
 105      54455259 
 105      00
 106 023d 000000   		.align	2
 107              	.LC23:
 108 0240 53595354 		.ascii	"SYSTEM_RESET\000"
 108      454D5F52 
 108      45534554 
 108      00
 109 024d 000000   		.align	2
 110              	.LC24:
 111 0250 48415244 		.ascii	"HARDWARE_SECURITY\000"
 111      57415245 
 111      5F534543 
 111      55524954 
 111      5900
 112 0262 0000     		.align	2
 113              	.LC25:
 114 0264 53595354 		.ascii	"SYSTEM_POWER_CONTROLS\000"
 114      454D5F50 
 114      4F574552 
 114      5F434F4E 
 114      54524F4C 
 115 027a 0000     		.align	2
 116              	.LC26:
 117 027c 564F4C54 		.ascii	"VOLTAGE_PROBE\000"
 117      4147455F 
 117      50524F42 
 117      4500
 118 028a 0000     		.align	2
 119              	.LC27:
 120 028c 434F4F4C 		.ascii	"COOLING_DEVICE\000"
 120      494E475F 
 120      44455649 
 120      434500
 121 029b 00       		.align	2
 122              	.LC28:
 123 029c 54454D50 		.ascii	"TEMPERATURE_PROBE\000"
 123      45524154 
 123      5552455F 
 123      50524F42 
 123      4500
ARM GAS  /tmp/ccE14h5r.s 			page 5


 124 02ae 0000     		.align	2
 125              	.LC29:
 126 02b0 454C4543 		.ascii	"ELECTRICAL_CURRENT_PROBE\000"
 126      54524943 
 126      414C5F43 
 126      55525245 
 126      4E545F50 
 127 02c9 000000   		.align	2
 128              	.LC30:
 129 02cc 4F55545F 		.ascii	"OUT_OF_BAND_REMOTE_ACCESS\000"
 129      4F465F42 
 129      414E445F 
 129      52454D4F 
 129      54455F41 
 130 02e6 0000     		.align	2
 131              	.LC31:
 132 02e8 424F4F54 		.ascii	"BOOT_INTEGRITY_SERVICES_(BIS)_ENTRY_POINT\000"
 132      5F494E54 
 132      45475249 
 132      54595F53 
 132      45525649 
 133 0312 0000     		.align	2
 134              	.LC32:
 135 0314 53595354 		.ascii	"SYSTEM_BOOT_INFORMATION\000"
 135      454D5F42 
 135      4F4F545F 
 135      494E464F 
 135      524D4154 
 136              		.align	2
 137              	.LC33:
 138 032c 36345F42 		.ascii	"64_BIT_MEMORY_ERROR_INFORMATION\000"
 138      49545F4D 
 138      454D4F52 
 138      595F4552 
 138      524F525F 
 139              		.align	2
 140              	.LC34:
 141 034c 4D414E41 		.ascii	"MANAGEMENT_DEVICE\000"
 141      47454D45 
 141      4E545F44 
 141      45564943 
 141      4500
 142 035e 0000     		.align	2
 143              	.LC35:
 144 0360 4D414E41 		.ascii	"MANAGEMENT_DEVICE_COMPONENT\000"
 144      47454D45 
 144      4E545F44 
 144      45564943 
 144      455F434F 
 145              		.align	2
 146              	.LC36:
 147 037c 4D414E41 		.ascii	"MANAGEMENT_DEVICE_THRESHOLD_DATA\000"
 147      47454D45 
 147      4E545F44 
 147      45564943 
 147      455F5448 
 148 039d 000000   		.align	2
ARM GAS  /tmp/ccE14h5r.s 			page 6


 149              	.LC37:
 150 03a0 4D454D4F 		.ascii	"MEMORY_CHANNEL\000"
 150      52595F43 
 150      48414E4E 
 150      454C00
 151 03af 00       		.align	2
 152              	.LC38:
 153 03b0 49504D49 		.ascii	"IPMI_DEVICE_INFORMATION\000"
 153      5F444556 
 153      4943455F 
 153      494E464F 
 153      524D4154 
 154              		.align	2
 155              	.LC39:
 156 03c8 53595354 		.ascii	"SYSTEM_POWER_SUPPLY\000"
 156      454D5F50 
 156      4F574552 
 156      5F535550 
 156      504C5900 
 157              		.align	2
 158              	.LC40:
 159 03dc 494E4143 		.ascii	"INACTIVE\000"
 159      54495645 
 159      00
 160 03e5 000000   		.align	2
 161              	.LC41:
 162 03e8 454E445F 		.ascii	"END_OF_TABLE\000"
 162      4F465F54 
 162      41424C45 
 162      00
 163              		.section	.data.rel.local,"aw"
 164              		.align	2
 167              	SmbiosStructureTypesTokens:
 168 0000 00000000 		.word	.LC0
 169 0004 00000000 		.word	0
 170 0008 14000000 		.word	.LC1
 171 000c 01000000 		.word	1
 172 0010 28000000 		.word	.LC2
 173 0014 02000000 		.word	2
 174 0018 4C000000 		.word	.LC3
 175 001c 03000000 		.word	3
 176 0020 68000000 		.word	.LC4
 177 0024 04000000 		.word	4
 178 0028 80000000 		.word	.LC5
 179 002c 05000000 		.word	5
 180 0030 A0000000 		.word	.LC6
 181 0034 06000000 		.word	6
 182 0038 BC000000 		.word	.LC7
 183 003c 07000000 		.word	7
 184 0040 D0000000 		.word	.LC8
 185 0044 08000000 		.word	8
 186 0048 EC000000 		.word	.LC9
 187 004c 09000000 		.word	9
 188 0050 FC000000 		.word	.LC10
 189 0054 0A000000 		.word	10
 190 0058 1C010000 		.word	.LC11
 191 005c 0B000000 		.word	11
ARM GAS  /tmp/ccE14h5r.s 			page 7


 192 0060 28010000 		.word	.LC12
 193 0064 0C000000 		.word	12
 194 0068 48010000 		.word	.LC13
 195 006c 0D000000 		.word	13
 196 0070 64010000 		.word	.LC14
 197 0074 0E000000 		.word	14
 198 0078 78010000 		.word	.LC15
 199 007c 0F000000 		.word	15
 200 0080 8C010000 		.word	.LC16
 201 0084 10000000 		.word	16
 202 0088 A4010000 		.word	.LC17
 203 008c 11000000 		.word	17
 204 0090 B4010000 		.word	.LC18
 205 0094 12000000 		.word	18
 206 0098 D4010000 		.word	.LC19
 207 009c 13000000 		.word	19
 208 00a0 F0010000 		.word	.LC20
 209 00a4 14000000 		.word	20
 210 00a8 10020000 		.word	.LC21
 211 00ac 15000000 		.word	21
 212 00b0 2C020000 		.word	.LC22
 213 00b4 16000000 		.word	22
 214 00b8 40020000 		.word	.LC23
 215 00bc 17000000 		.word	23
 216 00c0 50020000 		.word	.LC24
 217 00c4 18000000 		.word	24
 218 00c8 64020000 		.word	.LC25
 219 00cc 19000000 		.word	25
 220 00d0 7C020000 		.word	.LC26
 221 00d4 1A000000 		.word	26
 222 00d8 8C020000 		.word	.LC27
 223 00dc 1B000000 		.word	27
 224 00e0 9C020000 		.word	.LC28
 225 00e4 1C000000 		.word	28
 226 00e8 B0020000 		.word	.LC29
 227 00ec 1D000000 		.word	29
 228 00f0 CC020000 		.word	.LC30
 229 00f4 1E000000 		.word	30
 230 00f8 E8020000 		.word	.LC31
 231 00fc 1F000000 		.word	31
 232 0100 14030000 		.word	.LC32
 233 0104 20000000 		.word	32
 234 0108 2C030000 		.word	.LC33
 235 010c 21000000 		.word	33
 236 0110 4C030000 		.word	.LC34
 237 0114 22000000 		.word	34
 238 0118 60030000 		.word	.LC35
 239 011c 23000000 		.word	35
 240 0120 7C030000 		.word	.LC36
 241 0124 24000000 		.word	36
 242 0128 A0030000 		.word	.LC37
 243 012c 25000000 		.word	37
 244 0130 B0030000 		.word	.LC38
 245 0134 26000000 		.word	38
 246 0138 C8030000 		.word	.LC39
 247 013c 27000000 		.word	39
 248 0140 DC030000 		.word	.LC40
ARM GAS  /tmp/ccE14h5r.s 			page 8


 249 0144 7E000000 		.word	126
 250 0148 E8030000 		.word	.LC41
 251 014c 7F000000 		.word	127
 252              		.global	SmbiosStructureTypesTL
 253              		.align	2
 256              	SmbiosStructureTypesTL:
 257 0150 2A000000 		.word	42
 258 0154 00000000 		.word	SmbiosStructureTypesTokens
 259              		.global	SmbiosBoardTypesTokens
 260              		.section	.rodata
 261 03f5 000000   		.align	2
 262              	.LC42:
 263 03f8 556E6B6E 		.ascii	"Unknown\000"
 263      6F776E00 
 264              		.align	2
 265              	.LC43:
 266 0400 4F746865 		.ascii	"Other\000"
 266      7200
 267 0406 0000     		.align	2
 268              	.LC44:
 269 0408 53657276 		.ascii	"ServerBlade\000"
 269      6572426C 
 269      61646500 
 270              		.align	2
 271              	.LC45:
 272 0414 436F6E6E 		.ascii	"ConnectivitySwitch\000"
 272      65637469 
 272      76697479 
 272      53776974 
 272      636800
 273 0427 00       		.align	2
 274              	.LC46:
 275 0428 53797374 		.ascii	"SystemManagementModule\000"
 275      656D4D61 
 275      6E616765 
 275      6D656E74 
 275      4D6F6475 
 276 043f 00       		.align	2
 277              	.LC47:
 278 0440 50726F63 		.ascii	"ProcessorModule\000"
 278      6573736F 
 278      724D6F64 
 278      756C6500 
 279              		.align	2
 280              	.LC48:
 281 0450 494F5F4D 		.ascii	"IO_Module\000"
 281      6F64756C 
 281      6500
 282 045a 0000     		.align	2
 283              	.LC49:
 284 045c 4D656D6F 		.ascii	"Memory_Module\000"
 284      72795F4D 
 284      6F64756C 
 284      6500
 285 046a 0000     		.align	2
 286              	.LC50:
 287 046c 44617567 		.ascii	"DaughterBoard\000"
ARM GAS  /tmp/ccE14h5r.s 			page 9


 287      68746572 
 287      426F6172 
 287      6400
 288 047a 0000     		.align	2
 289              	.LC51:
 290 047c 4D6F7468 		.ascii	"Motherboard\000"
 290      6572626F 
 290      61726400 
 291              		.align	2
 292              	.LC52:
 293 0488 50726F63 		.ascii	"ProcessorMemory_Module\000"
 293      6573736F 
 293      724D656D 
 293      6F72795F 
 293      4D6F6475 
 294 049f 00       		.align	2
 295              	.LC53:
 296 04a0 496E7465 		.ascii	"Interconnect_Board\000"
 296      72636F6E 
 296      6E656374 
 296      5F426F61 
 296      726400
 297              		.section	.data.rel.local
 298              		.align	2
 301              	SmbiosBoardTypesTokens:
 302 0158 F8030000 		.word	.LC42
 303 015c 00000000 		.word	0
 304 0160 00040000 		.word	.LC43
 305 0164 01000000 		.word	1
 306 0168 08040000 		.word	.LC44
 307 016c 02000000 		.word	2
 308 0170 14040000 		.word	.LC45
 309 0174 03000000 		.word	3
 310 0178 28040000 		.word	.LC46
 311 017c 04000000 		.word	4
 312 0180 40040000 		.word	.LC47
 313 0184 05000000 		.word	5
 314 0188 50040000 		.word	.LC48
 315 018c 06000000 		.word	6
 316 0190 5C040000 		.word	.LC49
 317 0194 07000000 		.word	7
 318 0198 6C040000 		.word	.LC50
 319 019c 08000000 		.word	8
 320 01a0 7C040000 		.word	.LC51
 321 01a4 09000000 		.word	9
 322 01a8 88040000 		.word	.LC52
 323 01ac 0A000000 		.word	10
 324 01b0 A0040000 		.word	.LC53
 325 01b4 0B000000 		.word	11
 326              		.global	SmbiosBoardTypesTL
 327              		.align	2
 330              	SmbiosBoardTypesTL:
 331 01b8 0C000000 		.word	12
 332 01bc 00000000 		.word	SmbiosBoardTypesTokens
 333              		.section	.rodata
 334 04b3 00       		.align	2
 335              	.LC54:
ARM GAS  /tmp/ccE14h5r.s 			page 10


 336 04b4 534D4269 		.ascii	"SMBios Contained Element Description\012  Format:\012"
 336      6F732043 
 336      6F6E7461 
 336      696E6564 
 336      20456C65 
 337 04e3 20202020 		.ascii	"    Element Type, Minimum Count, Maximum Count\012 "
 337      456C656D 
 337      656E7420 
 337      54797065 
 337      2C204D69 
 338 0513 20457861 		.ascii	" Examples:\012    SYSTEM_POWER_SUPPLY,  1, 1\012   "
 338      6D706C65 
 338      733A0A20 
 338      20202053 
 338      59535445 
 339 0540 20536572 		.ascii	" ServerBlade        ,  1, 5\012  Element Type Token"
 339      76657242 
 339      6C616465 
 339      20202020 
 339      20202020 
 340 0570 733A0A00 		.ascii	"s:\012\000"
 341              		.align	2
 342              	.LC55:
 343 0574 20202020 		.ascii	"     %s\012\000"
 343      2025730A 
 343      00
 344 057d 000000   		.align	2
 345              	.LC56:
 346 0580 20204D69 		.ascii	"  Minimum Count:\012    0 - 255     \012  Maximum C"
 346      6E696D75 
 346      6D20436F 
 346      756E743A 
 346      0A202020 
 347 05ad 6F756E74 		.ascii	"ount:\012    0 - 255     \012\000"
 347      3A0A2020 
 347      20203020 
 347      2D203235 
 347      35202020 
 348              		.text
 349              		.align	2
 350              		.global	SMBIOS_CE_Help
 351              		.arch armv7-a
 352              		.arch_extension mp
 353              		.arch_extension sec
 354              		.syntax unified
 355              		.arm
 356              		.fpu vfpv3
 358              	SMBIOS_CE_Help:
 359              	.LFB1:
 360              		.file 1 "/home/hkh/git/eapidk-code-r76-trunk/apps/EeePProg/linux/../EeePCfg.c"
   1:/home/hkh/git/eapidk-code-r76-trunk/apps/EeePProg/linux/../EeePCfg.c **** /*
   2:/home/hkh/git/eapidk-code-r76-trunk/apps/EeePProg/linux/../EeePCfg.c ****  *<KHeader>
   3:/home/hkh/git/eapidk-code-r76-trunk/apps/EeePProg/linux/../EeePCfg.c ****  *+=========================================================================
   4:/home/hkh/git/eapidk-code-r76-trunk/apps/EeePProg/linux/../EeePCfg.c ****  *I  Project Name: EApiDK Embedded Application Development Kit
   5:/home/hkh/git/eapidk-code-r76-trunk/apps/EeePProg/linux/../EeePCfg.c ****  *+=========================================================================
   6:/home/hkh/git/eapidk-code-r76-trunk/apps/EeePProg/linux/../EeePCfg.c ****  *I  $HeadURL: file:///svn/p/eapidk/code/trunk/apps/EeePProg/EeePCfg.c $
   7:/home/hkh/git/eapidk-code-r76-trunk/apps/EeePProg/linux/../EeePCfg.c ****  *+=========================================================================
ARM GAS  /tmp/ccE14h5r.s 			page 11


   8:/home/hkh/git/eapidk-code-r76-trunk/apps/EeePProg/linux/../EeePCfg.c ****  *I   Copyright: Copyright (c) 2002-2010, Kontron Embedded Modules GmbH
   9:/home/hkh/git/eapidk-code-r76-trunk/apps/EeePProg/linux/../EeePCfg.c ****  *I      Author: John Kearney,                  John.Kearney@kontron.com
  10:/home/hkh/git/eapidk-code-r76-trunk/apps/EeePProg/linux/../EeePCfg.c ****  *I
  11:/home/hkh/git/eapidk-code-r76-trunk/apps/EeePProg/linux/../EeePCfg.c ****  *I     License: All rights reserved. This program and the accompanying 
  12:/home/hkh/git/eapidk-code-r76-trunk/apps/EeePProg/linux/../EeePCfg.c ****  *I              materials are licensed and made available under the 
  13:/home/hkh/git/eapidk-code-r76-trunk/apps/EeePProg/linux/../EeePCfg.c ****  *I              terms and conditions of the BSD License which 
  14:/home/hkh/git/eapidk-code-r76-trunk/apps/EeePProg/linux/../EeePCfg.c ****  *I              accompanies this distribution. The full text of the 
  15:/home/hkh/git/eapidk-code-r76-trunk/apps/EeePProg/linux/../EeePCfg.c ****  *I              license may be found at 
  16:/home/hkh/git/eapidk-code-r76-trunk/apps/EeePProg/linux/../EeePCfg.c ****  *I              http://opensource.org/licenses/bsd-license.php
  17:/home/hkh/git/eapidk-code-r76-trunk/apps/EeePProg/linux/../EeePCfg.c ****  *I              
  18:/home/hkh/git/eapidk-code-r76-trunk/apps/EeePProg/linux/../EeePCfg.c ****  *I              THE PROGRAM IS DISTRIBUTED UNDER THE BSD LICENSE ON AN "
  19:/home/hkh/git/eapidk-code-r76-trunk/apps/EeePProg/linux/../EeePCfg.c ****  *I              AS IS" BASIS, WITHOUT WARRANTIES OR REPRESENTATIONS OF 
  20:/home/hkh/git/eapidk-code-r76-trunk/apps/EeePProg/linux/../EeePCfg.c ****  *I              ANY KIND, EITHER EXPRESS OR IMPLIED.
  21:/home/hkh/git/eapidk-code-r76-trunk/apps/EeePProg/linux/../EeePCfg.c ****  *I
  22:/home/hkh/git/eapidk-code-r76-trunk/apps/EeePProg/linux/../EeePCfg.c ****  *I Description: Auto Created for EApiValidateAPI.c
  23:/home/hkh/git/eapidk-code-r76-trunk/apps/EeePProg/linux/../EeePCfg.c ****  *I
  24:/home/hkh/git/eapidk-code-r76-trunk/apps/EeePProg/linux/../EeePCfg.c ****  *+-------------------------------------------------------------------------
  25:/home/hkh/git/eapidk-code-r76-trunk/apps/EeePProg/linux/../EeePCfg.c ****  *I
  26:/home/hkh/git/eapidk-code-r76-trunk/apps/EeePProg/linux/../EeePCfg.c ****  *I  File Name            : EeePCfg.c
  27:/home/hkh/git/eapidk-code-r76-trunk/apps/EeePProg/linux/../EeePCfg.c ****  *I  File Location        : apps\EeePProg
  28:/home/hkh/git/eapidk-code-r76-trunk/apps/EeePProg/linux/../EeePCfg.c ****  *I  Last committed       : $Revision: 75 $
  29:/home/hkh/git/eapidk-code-r76-trunk/apps/EeePProg/linux/../EeePCfg.c ****  *I  Last changed by      : $Author: dethrophes $
  30:/home/hkh/git/eapidk-code-r76-trunk/apps/EeePProg/linux/../EeePCfg.c ****  *I  Last changed date    : $Date: 2010-06-28 23:50:38 +0000 (Mon, 28 Jun 2010) $
  31:/home/hkh/git/eapidk-code-r76-trunk/apps/EeePProg/linux/../EeePCfg.c ****  *I  ID                   : $Id: EeePCfg.c 75 2010-06-28 23:50:38Z dethrophes $
  32:/home/hkh/git/eapidk-code-r76-trunk/apps/EeePProg/linux/../EeePCfg.c ****  *I
  33:/home/hkh/git/eapidk-code-r76-trunk/apps/EeePProg/linux/../EeePCfg.c ****  *+=========================================================================
  34:/home/hkh/git/eapidk-code-r76-trunk/apps/EeePProg/linux/../EeePCfg.c ****  *</KHeader>
  35:/home/hkh/git/eapidk-code-r76-trunk/apps/EeePProg/linux/../EeePCfg.c ****  */
  36:/home/hkh/git/eapidk-code-r76-trunk/apps/EeePProg/linux/../EeePCfg.c ****   #include <EeePApp.h>
  37:/home/hkh/git/eapidk-code-r76-trunk/apps/EeePProg/linux/../EeePCfg.c **** 
  38:/home/hkh/git/eapidk-code-r76-trunk/apps/EeePProg/linux/../EeePCfg.c **** ElementHandler_t COM0PCIe_Element;
  39:/home/hkh/git/eapidk-code-r76-trunk/apps/EeePProg/linux/../EeePCfg.c **** ElementHandler_t SMBIOS_CE_Element;
  40:/home/hkh/git/eapidk-code-r76-trunk/apps/EeePProg/linux/../EeePCfg.c **** 
  41:/home/hkh/git/eapidk-code-r76-trunk/apps/EeePProg/linux/../EeePCfg.c **** ElementHelpTxt_t COM0PCIe_Help;
  42:/home/hkh/git/eapidk-code-r76-trunk/apps/EeePProg/linux/../EeePCfg.c **** ElementHelpTxt_t SMBIOS_CE_Help;
  43:/home/hkh/git/eapidk-code-r76-trunk/apps/EeePProg/linux/../EeePCfg.c **** /*  */
  44:/home/hkh/git/eapidk-code-r76-trunk/apps/EeePProg/linux/../EeePCfg.c **** 
  45:/home/hkh/git/eapidk-code-r76-trunk/apps/EeePProg/linux/../EeePCfg.c **** Handlers_t  COM0PCIe_Element_funcs ={ COM0PCIe_Element , GenClear_Element , COM0PCIe_Help   , No_De
  46:/home/hkh/git/eapidk-code-r76-trunk/apps/EeePProg/linux/../EeePCfg.c **** Handlers_t  SMBIOS_CE_Element_funcs={ SMBIOS_CE_Element, GenClear_Element , SMBIOS_CE_Help  , No_De
  47:/home/hkh/git/eapidk-code-r76-trunk/apps/EeePProg/linux/../EeePCfg.c **** 
  48:/home/hkh/git/eapidk-code-r76-trunk/apps/EeePProg/linux/../EeePCfg.c **** TokenDesc_t  SmbiosStructureTypesTokens[]={
  49:/home/hkh/git/eapidk-code-r76-trunk/apps/EeePProg/linux/../EeePCfg.c ****   {"BIOS_INFORMATION"                               ,  SMBIOS_TypeBIOS_INFORMATION                 
  50:/home/hkh/git/eapidk-code-r76-trunk/apps/EeePProg/linux/../EeePCfg.c ****   {"SYSTEM_INFORMATION"                             ,  SMBIOS_TypeSYSTEM_INFORMATION               
  51:/home/hkh/git/eapidk-code-r76-trunk/apps/EeePProg/linux/../EeePCfg.c ****   {"BASE_BOARD_(OR_MODULE)_INFORMATION"             ,  SMBIOS_TypeBASE_BOARD_MODULE_INFORMATION    
  52:/home/hkh/git/eapidk-code-r76-trunk/apps/EeePProg/linux/../EeePCfg.c ****   {"SYSTEM_ENCLOSURE_OR_CHASSIS"                    ,  SMBIOS_TypeSYSTEM_ENCLOSURE_OR_CHASSIS      
  53:/home/hkh/git/eapidk-code-r76-trunk/apps/EeePProg/linux/../EeePCfg.c ****   {"PROCESSOR_INFORMATION"                          ,  SMBIOS_TypePROCESSOR_INFORMATION            
  54:/home/hkh/git/eapidk-code-r76-trunk/apps/EeePProg/linux/../EeePCfg.c ****   {"MEMORY_CONTROLLER_INFORMATION"                  ,  SMBIOS_TypeMEMORY_CONTROLLER_INFORMATION    
  55:/home/hkh/git/eapidk-code-r76-trunk/apps/EeePProg/linux/../EeePCfg.c ****   {"MEMORY_MODULE_INFORMATION"                      ,  SMBIOS_TypeMEMORY_MODULE_INFORMATION        
  56:/home/hkh/git/eapidk-code-r76-trunk/apps/EeePProg/linux/../EeePCfg.c ****   {"CACHE_INFORMATION"                              ,  SMBIOS_TypeCACHE_INFORMATION                
  57:/home/hkh/git/eapidk-code-r76-trunk/apps/EeePProg/linux/../EeePCfg.c ****   {"PORT_CONNECTOR_INFORMATION"                     ,  SMBIOS_TypePORT_CONNECTOR_INFORMATION       
  58:/home/hkh/git/eapidk-code-r76-trunk/apps/EeePProg/linux/../EeePCfg.c ****   {"SYSTEM_SLOTS"                                   ,  SMBIOS_TypeSYSTEM_SLOTS                     
  59:/home/hkh/git/eapidk-code-r76-trunk/apps/EeePProg/linux/../EeePCfg.c ****   {"ON_BOARD_DEVICES_INFORMATION"                   ,  SMBIOS_TypeON_BOARD_DEVICES_INFORMATION     
  60:/home/hkh/git/eapidk-code-r76-trunk/apps/EeePProg/linux/../EeePCfg.c ****   {"OEM_STRINGS"                                    ,  SMBIOS_TypeOEM_STRINGS                      
  61:/home/hkh/git/eapidk-code-r76-trunk/apps/EeePProg/linux/../EeePCfg.c ****   {"SYSTEM_CONFIGURATION_OPTIONS"                   ,  SMBIOS_TypeSYSTEM_CONFIGURATION_OPTIONS     
  62:/home/hkh/git/eapidk-code-r76-trunk/apps/EeePProg/linux/../EeePCfg.c ****   {"BIOS_LANGUAGE_INFORMATION"                      ,  SMBIOS_TypeBIOS_LANGUAGE_INFORMATION        
  63:/home/hkh/git/eapidk-code-r76-trunk/apps/EeePProg/linux/../EeePCfg.c ****   {"GROUP_ASSOCIATIONS"                             ,  SMBIOS_TypeGROUP_ASSOCIATIONS               
  64:/home/hkh/git/eapidk-code-r76-trunk/apps/EeePProg/linux/../EeePCfg.c ****   {"SYSTEM_EVENT_LOG"                               ,  SMBIOS_TypeSYSTEM_EVENT_LOG                 
ARM GAS  /tmp/ccE14h5r.s 			page 12


  65:/home/hkh/git/eapidk-code-r76-trunk/apps/EeePProg/linux/../EeePCfg.c ****   {"PHYSICAL_MEMORY_ARRAY"                          ,  SMBIOS_TypePHYSICAL_MEMORY_ARRAY            
  66:/home/hkh/git/eapidk-code-r76-trunk/apps/EeePProg/linux/../EeePCfg.c ****   {"MEMORY_DEVICE"                                  ,  SMBIOS_TypeMEMORY_DEVICE                    
  67:/home/hkh/git/eapidk-code-r76-trunk/apps/EeePProg/linux/../EeePCfg.c ****   {"32_BIT_MEMORY_ERROR_INFORMATION"                ,  SMBIOS_Type32_BIT_MEMORY_ERROR_INFORMATION  
  68:/home/hkh/git/eapidk-code-r76-trunk/apps/EeePProg/linux/../EeePCfg.c ****   {"MEMORY_ARRAY_MAPPED_ADDRESS"                    ,  SMBIOS_TypeMEMORY_ARRAY_MAPPED_ADDRESS      
  69:/home/hkh/git/eapidk-code-r76-trunk/apps/EeePProg/linux/../EeePCfg.c ****   {"MEMORY_DEVICE_MAPPED_ADDRESS"                   ,  SMBIOS_TypeMEMORY_DEVICE_MAPPED_ADDRESS     
  70:/home/hkh/git/eapidk-code-r76-trunk/apps/EeePProg/linux/../EeePCfg.c ****   {"BUILT_IN_POINTING_DEVICE"                       ,  SMBIOS_TypeBUILT_IN_POINTING_DEVICE         
  71:/home/hkh/git/eapidk-code-r76-trunk/apps/EeePProg/linux/../EeePCfg.c ****   {"PORTABLE_BATTERY"                               ,  SMBIOS_TypePORTABLE_BATTERY                 
  72:/home/hkh/git/eapidk-code-r76-trunk/apps/EeePProg/linux/../EeePCfg.c ****   {"SYSTEM_RESET"                                   ,  SMBIOS_TypeSYSTEM_RESET                     
  73:/home/hkh/git/eapidk-code-r76-trunk/apps/EeePProg/linux/../EeePCfg.c ****   {"HARDWARE_SECURITY"                              ,  SMBIOS_TypeHARDWARE_SECURITY                
  74:/home/hkh/git/eapidk-code-r76-trunk/apps/EeePProg/linux/../EeePCfg.c ****   {"SYSTEM_POWER_CONTROLS"                          ,  SMBIOS_TypeSYSTEM_POWER_CONTROLS            
  75:/home/hkh/git/eapidk-code-r76-trunk/apps/EeePProg/linux/../EeePCfg.c ****   {"VOLTAGE_PROBE"                                  ,  SMBIOS_TypeVOLTAGE_PROBE                    
  76:/home/hkh/git/eapidk-code-r76-trunk/apps/EeePProg/linux/../EeePCfg.c ****   {"COOLING_DEVICE"                                 ,  SMBIOS_TypeCOOLING_DEVICE                   
  77:/home/hkh/git/eapidk-code-r76-trunk/apps/EeePProg/linux/../EeePCfg.c ****   {"TEMPERATURE_PROBE"                              ,  SMBIOS_TypeTEMPERATURE_PROBE                
  78:/home/hkh/git/eapidk-code-r76-trunk/apps/EeePProg/linux/../EeePCfg.c ****   {"ELECTRICAL_CURRENT_PROBE"                       ,  SMBIOS_TypeELECTRICAL_CURRENT_PROBE         
  79:/home/hkh/git/eapidk-code-r76-trunk/apps/EeePProg/linux/../EeePCfg.c ****   {"OUT_OF_BAND_REMOTE_ACCESS"                      ,  SMBIOS_TypeOUT_OF_BAND_REMOTE_ACCESS        
  80:/home/hkh/git/eapidk-code-r76-trunk/apps/EeePProg/linux/../EeePCfg.c ****   {"BOOT_INTEGRITY_SERVICES_(BIS)_ENTRY_POINT"      ,  SMBIOS_TypeBOOT_INTEGRITY_SERVICES_ENTRY_POI
  81:/home/hkh/git/eapidk-code-r76-trunk/apps/EeePProg/linux/../EeePCfg.c ****   {"SYSTEM_BOOT_INFORMATION"                        ,  SMBIOS_TypeSYSTEM_BOOT_INFORMATION          
  82:/home/hkh/git/eapidk-code-r76-trunk/apps/EeePProg/linux/../EeePCfg.c ****   {"64_BIT_MEMORY_ERROR_INFORMATION"                ,  SMBIOS_Type64_BIT_MEMORY_ERROR_INFORMATION  
  83:/home/hkh/git/eapidk-code-r76-trunk/apps/EeePProg/linux/../EeePCfg.c ****   {"MANAGEMENT_DEVICE"                              ,  SMBIOS_TypeMANAGEMENT_DEVICE                
  84:/home/hkh/git/eapidk-code-r76-trunk/apps/EeePProg/linux/../EeePCfg.c ****   {"MANAGEMENT_DEVICE_COMPONENT"                    ,  SMBIOS_TypeMANAGEMENT_DEVICE_COMPONENT      
  85:/home/hkh/git/eapidk-code-r76-trunk/apps/EeePProg/linux/../EeePCfg.c ****   {"MANAGEMENT_DEVICE_THRESHOLD_DATA"               ,  SMBIOS_TypeMANAGEMENT_DEVICE_THRESHOLD_DATA 
  86:/home/hkh/git/eapidk-code-r76-trunk/apps/EeePProg/linux/../EeePCfg.c ****   {"MEMORY_CHANNEL"                                 ,  SMBIOS_TypeMEMORY_CHANNEL                   
  87:/home/hkh/git/eapidk-code-r76-trunk/apps/EeePProg/linux/../EeePCfg.c ****   {"IPMI_DEVICE_INFORMATION"                        ,  SMBIOS_TypeIPMI_DEVICE_INFORMATION          
  88:/home/hkh/git/eapidk-code-r76-trunk/apps/EeePProg/linux/../EeePCfg.c ****   {"SYSTEM_POWER_SUPPLY"                            ,  SMBIOS_TypeSYSTEM_POWER_SUPPLY              
  89:/home/hkh/git/eapidk-code-r76-trunk/apps/EeePProg/linux/../EeePCfg.c ****   {"INACTIVE"                                       ,  SMBIOS_TypeINACTIVE                         
  90:/home/hkh/git/eapidk-code-r76-trunk/apps/EeePProg/linux/../EeePCfg.c ****   {"END_OF_TABLE"                                   ,  SMBIOS_TypeEND_OF_TABLE                     
  91:/home/hkh/git/eapidk-code-r76-trunk/apps/EeePProg/linux/../EeePCfg.c **** };
  92:/home/hkh/git/eapidk-code-r76-trunk/apps/EeePProg/linux/../EeePCfg.c **** PCFG_TOKEN_LIST_DESC(SmbiosStructureTypesTL, SmbiosStructureTypesTokens);
  93:/home/hkh/git/eapidk-code-r76-trunk/apps/EeePProg/linux/../EeePCfg.c **** 
  94:/home/hkh/git/eapidk-code-r76-trunk/apps/EeePProg/linux/../EeePCfg.c **** TokenDesc_t  SmbiosBoardTypesTokens[]={
  95:/home/hkh/git/eapidk-code-r76-trunk/apps/EeePProg/linux/../EeePCfg.c ****   {"Unknown"	                , SMBIOS_BoardType_Unknown                },
  96:/home/hkh/git/eapidk-code-r76-trunk/apps/EeePProg/linux/../EeePCfg.c ****   {"Other"	                	, SMBIOS_BoardType_Other                  },
  97:/home/hkh/git/eapidk-code-r76-trunk/apps/EeePProg/linux/../EeePCfg.c ****   {"ServerBlade"	        	, SMBIOS_BoardType_ServerBlade            },
  98:/home/hkh/git/eapidk-code-r76-trunk/apps/EeePProg/linux/../EeePCfg.c ****   {"ConnectivitySwitch"	        , SMBIOS_BoardType_ConnectivitySwitch     },
  99:/home/hkh/git/eapidk-code-r76-trunk/apps/EeePProg/linux/../EeePCfg.c ****   {"SystemManagementModule"     , SMBIOS_BoardType_SystemManagementModule },
 100:/home/hkh/git/eapidk-code-r76-trunk/apps/EeePProg/linux/../EeePCfg.c ****   {"ProcessorModule"	        , SMBIOS_BoardType_ProcessorModule        },
 101:/home/hkh/git/eapidk-code-r76-trunk/apps/EeePProg/linux/../EeePCfg.c ****   {"IO_Module"	                , SMBIOS_BoardType_IO_Module              },
 102:/home/hkh/git/eapidk-code-r76-trunk/apps/EeePProg/linux/../EeePCfg.c ****   {"Memory_Module"	        	, SMBIOS_BoardType_Memory_Module          },
 103:/home/hkh/git/eapidk-code-r76-trunk/apps/EeePProg/linux/../EeePCfg.c ****   {"DaughterBoard"	        	, SMBIOS_BoardType_DaughterBoard          },
 104:/home/hkh/git/eapidk-code-r76-trunk/apps/EeePProg/linux/../EeePCfg.c ****   {"Motherboard"	        	, SMBIOS_BoardType_Motherboard            },
 105:/home/hkh/git/eapidk-code-r76-trunk/apps/EeePProg/linux/../EeePCfg.c ****   {"ProcessorMemory_Module"		, SMBIOS_BoardType_ProcessorMemory_Module },
 106:/home/hkh/git/eapidk-code-r76-trunk/apps/EeePProg/linux/../EeePCfg.c ****   {"Interconnect_Board"	        , SMBIOS_BoardType_Interconnect_Board     },
 107:/home/hkh/git/eapidk-code-r76-trunk/apps/EeePProg/linux/../EeePCfg.c **** };
 108:/home/hkh/git/eapidk-code-r76-trunk/apps/EeePProg/linux/../EeePCfg.c **** PCFG_TOKEN_LIST_DESC(SmbiosBoardTypesTL, SmbiosBoardTypesTokens);
 109:/home/hkh/git/eapidk-code-r76-trunk/apps/EeePProg/linux/../EeePCfg.c **** 
 110:/home/hkh/git/eapidk-code-r76-trunk/apps/EeePProg/linux/../EeePCfg.c **** EApiStatus_t
 111:/home/hkh/git/eapidk-code-r76-trunk/apps/EeePProg/linux/../EeePCfg.c **** SMBIOS_CE_Help(
 112:/home/hkh/git/eapidk-code-r76-trunk/apps/EeePProg/linux/../EeePCfg.c ****     __IN  struct CfgElementDesc_s *pElementDesc, 
 113:/home/hkh/git/eapidk-code-r76-trunk/apps/EeePProg/linux/../EeePCfg.c ****     __OUT char *szHelpBuf, 
 114:/home/hkh/git/eapidk-code-r76-trunk/apps/EeePProg/linux/../EeePCfg.c ****     __IN  size_t stHBufLen 
 115:/home/hkh/git/eapidk-code-r76-trunk/apps/EeePProg/linux/../EeePCfg.c ****   )
 116:/home/hkh/git/eapidk-code-r76-trunk/apps/EeePProg/linux/../EeePCfg.c **** { 
 361              		.loc 1 116 1
 362              		.cfi_startproc
 363              		@ args = 0, pretend = 0, frame = 24
 364              		@ frame_needed = 1, uses_anonymous_args = 0
 365 0000 00482DE9 		push	{fp, lr}
ARM GAS  /tmp/ccE14h5r.s 			page 13


 366              		.cfi_def_cfa_offset 8
 367              		.cfi_offset 11, -8
 368              		.cfi_offset 14, -4
 369 0004 04B08DE2 		add	fp, sp, #4
 370              		.cfi_def_cfa 11, 4
 371 0008 18D04DE2 		sub	sp, sp, #24
 372 000c 10000BE5 		str	r0, [fp, #-16]
 373 0010 14100BE5 		str	r1, [fp, #-20]
 374 0014 18200BE5 		str	r2, [fp, #-24]
 117:/home/hkh/git/eapidk-code-r76-trunk/apps/EeePProg/linux/../EeePCfg.c ****   unsigned int i;
 118:/home/hkh/git/eapidk-code-r76-trunk/apps/EeePProg/linux/../EeePCfg.c ****   int len=0;
 375              		.loc 1 118 7
 376 0018 0030A0E3 		mov	r3, #0
 377 001c 08300BE5 		str	r3, [fp, #-8]
 119:/home/hkh/git/eapidk-code-r76-trunk/apps/EeePProg/linux/../EeePCfg.c ****   pElementDesc=pElementDesc;
 120:/home/hkh/git/eapidk-code-r76-trunk/apps/EeePProg/linux/../EeePCfg.c ****   len+=EApiSprintfA(szHelpBuf+len , stHBufLen-len , 
 378              		.loc 1 120 8
 379 0020 08301BE5 		ldr	r3, [fp, #-8]
 380 0024 14201BE5 		ldr	r2, [fp, #-20]
 381 0028 030082E0 		add	r0, r2, r3
 382 002c 08301BE5 		ldr	r3, [fp, #-8]
 383 0030 18201BE5 		ldr	r2, [fp, #-24]
 384 0034 033042E0 		sub	r3, r2, r3
 385 0038 30219FE5 		ldr	r2, .L7
 386              	.LPIC0:
 387 003c 02208FE0 		add	r2, pc, r2
 388 0040 0310A0E1 		mov	r1, r3
 389 0044 FEFFFFEB 		bl	EApiSprintfA(PLT)
 390 0048 0020A0E1 		mov	r2, r0
 391              		.loc 1 120 6
 392 004c 08301BE5 		ldr	r3, [fp, #-8]
 393 0050 023083E0 		add	r3, r3, r2
 394 0054 08300BE5 		str	r3, [fp, #-8]
 121:/home/hkh/git/eapidk-code-r76-trunk/apps/EeePProg/linux/../EeePCfg.c ****       "SMBios Contained Element Description\n"
 122:/home/hkh/git/eapidk-code-r76-trunk/apps/EeePProg/linux/../EeePCfg.c ****       "  Format:\n"
 123:/home/hkh/git/eapidk-code-r76-trunk/apps/EeePProg/linux/../EeePCfg.c ****       "    Element Type, Minimum Count, Maximum Count\n"
 124:/home/hkh/git/eapidk-code-r76-trunk/apps/EeePProg/linux/../EeePCfg.c ****       "  Examples:\n"
 125:/home/hkh/git/eapidk-code-r76-trunk/apps/EeePProg/linux/../EeePCfg.c ****       "    SYSTEM_POWER_SUPPLY,  1, 1\n"
 126:/home/hkh/git/eapidk-code-r76-trunk/apps/EeePProg/linux/../EeePCfg.c ****       "    ServerBlade        ,  1, 5\n"
 127:/home/hkh/git/eapidk-code-r76-trunk/apps/EeePProg/linux/../EeePCfg.c ****       "  Element Type Tokens:\n"  );
 128:/home/hkh/git/eapidk-code-r76-trunk/apps/EeePProg/linux/../EeePCfg.c ****   for(i=0;i<ARRAY_SIZE(SmbiosBoardTypesTokens);i++){
 395              		.loc 1 128 8
 396 0058 0030A0E3 		mov	r3, #0
 397 005c 0C300BE5 		str	r3, [fp, #-12]
 398              		.loc 1 128 3
 399 0060 130000EA 		b	.L2
 400              	.L3:
 129:/home/hkh/git/eapidk-code-r76-trunk/apps/EeePProg/linux/../EeePCfg.c ****     len+=EApiSprintfA(szHelpBuf+len , stHBufLen-len ,
 401              		.loc 1 129 10 discriminator 3
 402 0064 08301BE5 		ldr	r3, [fp, #-8]
 403 0068 14201BE5 		ldr	r2, [fp, #-20]
 404 006c 030082E0 		add	r0, r2, r3
 405 0070 08301BE5 		ldr	r3, [fp, #-8]
 406 0074 18201BE5 		ldr	r2, [fp, #-24]
 407 0078 031042E0 		sub	r1, r2, r3
 408 007c F0309FE5 		ldr	r3, .L7+4
 409              	.LPIC1:
ARM GAS  /tmp/ccE14h5r.s 			page 14


 410 0080 03308FE0 		add	r3, pc, r3
 411 0084 0C201BE5 		ldr	r2, [fp, #-12]
 412 0088 823193E7 		ldr	r3, [r3, r2, lsl #3]
 413 008c E4209FE5 		ldr	r2, .L7+8
 414              	.LPIC2:
 415 0090 02208FE0 		add	r2, pc, r2
 416 0094 FEFFFFEB 		bl	EApiSprintfA(PLT)
 417 0098 0020A0E1 		mov	r2, r0
 418              		.loc 1 129 8 discriminator 3
 419 009c 08301BE5 		ldr	r3, [fp, #-8]
 420 00a0 023083E0 		add	r3, r3, r2
 421 00a4 08300BE5 		str	r3, [fp, #-8]
 128:/home/hkh/git/eapidk-code-r76-trunk/apps/EeePProg/linux/../EeePCfg.c ****     len+=EApiSprintfA(szHelpBuf+len , stHBufLen-len ,
 422              		.loc 1 128 49 discriminator 3
 423 00a8 0C301BE5 		ldr	r3, [fp, #-12]
 424 00ac 013083E2 		add	r3, r3, #1
 425 00b0 0C300BE5 		str	r3, [fp, #-12]
 426              	.L2:
 128:/home/hkh/git/eapidk-code-r76-trunk/apps/EeePProg/linux/../EeePCfg.c ****     len+=EApiSprintfA(szHelpBuf+len , stHBufLen-len ,
 427              		.loc 1 128 12 discriminator 1
 428 00b4 0C301BE5 		ldr	r3, [fp, #-12]
 429 00b8 0B0053E3 		cmp	r3, #11
 430 00bc E8FFFF9A 		bls	.L3
 130:/home/hkh/git/eapidk-code-r76-trunk/apps/EeePProg/linux/../EeePCfg.c ****                 "     %s\n", SmbiosBoardTypesTokens[i].pszTokenList);
 131:/home/hkh/git/eapidk-code-r76-trunk/apps/EeePProg/linux/../EeePCfg.c ****   }
 132:/home/hkh/git/eapidk-code-r76-trunk/apps/EeePProg/linux/../EeePCfg.c ****   for(i=0;i<ARRAY_SIZE(SmbiosStructureTypesTokens);i++){
 431              		.loc 1 132 8
 432 00c0 0030A0E3 		mov	r3, #0
 433 00c4 0C300BE5 		str	r3, [fp, #-12]
 434              		.loc 1 132 3
 435 00c8 130000EA 		b	.L4
 436              	.L5:
 133:/home/hkh/git/eapidk-code-r76-trunk/apps/EeePProg/linux/../EeePCfg.c ****     len+=EApiSprintfA(szHelpBuf+len , stHBufLen-len ,
 437              		.loc 1 133 10 discriminator 3
 438 00cc 08301BE5 		ldr	r3, [fp, #-8]
 439 00d0 14201BE5 		ldr	r2, [fp, #-20]
 440 00d4 030082E0 		add	r0, r2, r3
 441 00d8 08301BE5 		ldr	r3, [fp, #-8]
 442 00dc 18201BE5 		ldr	r2, [fp, #-24]
 443 00e0 031042E0 		sub	r1, r2, r3
 444 00e4 90309FE5 		ldr	r3, .L7+12
 445              	.LPIC3:
 446 00e8 03308FE0 		add	r3, pc, r3
 447 00ec 0C201BE5 		ldr	r2, [fp, #-12]
 448 00f0 823193E7 		ldr	r3, [r3, r2, lsl #3]
 449 00f4 84209FE5 		ldr	r2, .L7+16
 450              	.LPIC4:
 451 00f8 02208FE0 		add	r2, pc, r2
 452 00fc FEFFFFEB 		bl	EApiSprintfA(PLT)
 453 0100 0020A0E1 		mov	r2, r0
 454              		.loc 1 133 8 discriminator 3
 455 0104 08301BE5 		ldr	r3, [fp, #-8]
 456 0108 023083E0 		add	r3, r3, r2
 457 010c 08300BE5 		str	r3, [fp, #-8]
 132:/home/hkh/git/eapidk-code-r76-trunk/apps/EeePProg/linux/../EeePCfg.c ****     len+=EApiSprintfA(szHelpBuf+len , stHBufLen-len ,
 458              		.loc 1 132 53 discriminator 3
 459 0110 0C301BE5 		ldr	r3, [fp, #-12]
ARM GAS  /tmp/ccE14h5r.s 			page 15


 460 0114 013083E2 		add	r3, r3, #1
 461 0118 0C300BE5 		str	r3, [fp, #-12]
 462              	.L4:
 132:/home/hkh/git/eapidk-code-r76-trunk/apps/EeePProg/linux/../EeePCfg.c ****     len+=EApiSprintfA(szHelpBuf+len , stHBufLen-len ,
 463              		.loc 1 132 12 discriminator 1
 464 011c 0C301BE5 		ldr	r3, [fp, #-12]
 465 0120 290053E3 		cmp	r3, #41
 466 0124 E8FFFF9A 		bls	.L5
 134:/home/hkh/git/eapidk-code-r76-trunk/apps/EeePProg/linux/../EeePCfg.c ****                 "     %s\n", SmbiosStructureTypesTokens[i].pszTokenList);
 135:/home/hkh/git/eapidk-code-r76-trunk/apps/EeePProg/linux/../EeePCfg.c ****   }
 136:/home/hkh/git/eapidk-code-r76-trunk/apps/EeePProg/linux/../EeePCfg.c ****   len+=EApiSprintfA(szHelpBuf+len , stHBufLen-len ,
 467              		.loc 1 136 8
 468 0128 08301BE5 		ldr	r3, [fp, #-8]
 469 012c 14201BE5 		ldr	r2, [fp, #-20]
 470 0130 030082E0 		add	r0, r2, r3
 471 0134 08301BE5 		ldr	r3, [fp, #-8]
 472 0138 18201BE5 		ldr	r2, [fp, #-24]
 473 013c 033042E0 		sub	r3, r2, r3
 474 0140 3C209FE5 		ldr	r2, .L7+20
 475              	.LPIC5:
 476 0144 02208FE0 		add	r2, pc, r2
 477 0148 0310A0E1 		mov	r1, r3
 478 014c FEFFFFEB 		bl	EApiSprintfA(PLT)
 479 0150 0020A0E1 		mov	r2, r0
 480              		.loc 1 136 6
 481 0154 08301BE5 		ldr	r3, [fp, #-8]
 482 0158 023083E0 		add	r3, r3, r2
 483 015c 08300BE5 		str	r3, [fp, #-8]
 137:/home/hkh/git/eapidk-code-r76-trunk/apps/EeePProg/linux/../EeePCfg.c ****               "  Minimum Count:\n"
 138:/home/hkh/git/eapidk-code-r76-trunk/apps/EeePProg/linux/../EeePCfg.c ****               "    0 - 255     \n"
 139:/home/hkh/git/eapidk-code-r76-trunk/apps/EeePProg/linux/../EeePCfg.c ****               "  Maximum Count:\n"
 140:/home/hkh/git/eapidk-code-r76-trunk/apps/EeePProg/linux/../EeePCfg.c ****               "    0 - 255     \n");
 141:/home/hkh/git/eapidk-code-r76-trunk/apps/EeePProg/linux/../EeePCfg.c ****   return EAPI_STATUS_SUCCESS;
 484              		.loc 1 141 10
 485 0160 0030A0E3 		mov	r3, #0
 142:/home/hkh/git/eapidk-code-r76-trunk/apps/EeePProg/linux/../EeePCfg.c **** }
 486              		.loc 1 142 1
 487 0164 0300A0E1 		mov	r0, r3
 488 0168 04D04BE2 		sub	sp, fp, #4
 489              		.cfi_def_cfa 13, 8
 490              		@ sp needed
 491 016c 0088BDE8 		pop	{fp, pc}
 492              	.L8:
 493              		.align	2
 494              	.L7:
 495 0170 E0050000 		.word	.LC54-(.LPIC0+8)
 496 0174 EC000000 		.word	SmbiosBoardTypesTokens-(.LPIC1+8)
 497 0178 54060000 		.word	.LC55-(.LPIC2+8)
 498 017c 8C000000 		.word	SmbiosStructureTypesTokens-(.LPIC3+8)
 499 0180 F4050000 		.word	.LC55-(.LPIC4+8)
 500 0184 B8050000 		.word	.LC56-(.LPIC5+8)
 501              		.cfi_endproc
 502              	.LFE1:
 504              		.section	.rodata
 505 05c5 000000   		.align	2
 506              	.LC57:
 507 05c8 534D4249 		.ascii	"SMBIOS_CE_Element = Unknown Token, %s\012\000"
ARM GAS  /tmp/ccE14h5r.s 			page 16


 507      4F535F43 
 507      455F456C 
 507      656D656E 
 507      74203D20 
 508 05ef 00       		.align	2
 509              	.LC58:
 510 05f0 534D4249 		.ascii	"SMBIOS_CE_Element = Invalid MinCount, %s\012\000"
 510      4F535F43 
 510      455F456C 
 510      656D656E 
 510      74203D20 
 511 061a 0000     		.align	2
 512              	.LC59:
 513 061c 534D4249 		.ascii	"SMBIOS_CE_Element = Invalid MaxCount, %s\012\000"
 513      4F535F43 
 513      455F456C 
 513      656D656E 
 513      74203D20 
 514              		.text
 515              		.align	2
 516              		.global	SMBIOS_CE_Element
 517              		.syntax unified
 518              		.arm
 519              		.fpu vfpv3
 521              	SMBIOS_CE_Element:
 522              	.LFB2:
 143:/home/hkh/git/eapidk-code-r76-trunk/apps/EeePProg/linux/../EeePCfg.c **** 
 144:/home/hkh/git/eapidk-code-r76-trunk/apps/EeePProg/linux/../EeePCfg.c **** EApiStatus_t
 145:/home/hkh/git/eapidk-code-r76-trunk/apps/EeePProg/linux/../EeePCfg.c **** SMBIOS_CE_Element(
 146:/home/hkh/git/eapidk-code-r76-trunk/apps/EeePProg/linux/../EeePCfg.c ****     struct  CfgElementDesc_s *pElementDesc, 
 147:/home/hkh/git/eapidk-code-r76-trunk/apps/EeePProg/linux/../EeePCfg.c ****     void   *pElement,
 148:/home/hkh/git/eapidk-code-r76-trunk/apps/EeePProg/linux/../EeePCfg.c ****     char   *pszValue
 149:/home/hkh/git/eapidk-code-r76-trunk/apps/EeePProg/linux/../EeePCfg.c ****   )
 150:/home/hkh/git/eapidk-code-r76-trunk/apps/EeePProg/linux/../EeePCfg.c **** { 
 523              		.loc 1 150 1
 524              		.cfi_startproc
 525              		@ args = 0, pretend = 0, frame = 56
 526              		@ frame_needed = 1, uses_anonymous_args = 0
 527 0188 00482DE9 		push	{fp, lr}
 528              		.cfi_def_cfa_offset 8
 529              		.cfi_offset 11, -8
 530              		.cfi_offset 14, -4
 531 018c 04B08DE2 		add	fp, sp, #4
 532              		.cfi_def_cfa 11, 4
 533 0190 38D04DE2 		sub	sp, sp, #56
 534 0194 30000BE5 		str	r0, [fp, #-48]
 535 0198 34100BE5 		str	r1, [fp, #-52]
 536 019c 38200BE5 		str	r2, [fp, #-56]
 537              		.loc 1 150 1
 538 01a0 04229FE5 		ldr	r2, .L20
 539              	.LPIC11:
 540 01a4 02208FE0 		add	r2, pc, r2
 541 01a8 00329FE5 		ldr	r3, .L20+4
 542 01ac 033092E7 		ldr	r3, [r2, r3]
 543 01b0 003093E5 		ldr	r3, [r3]
 544 01b4 08300BE5 		str	r3, [fp, #-8]
 545 01b8 0030A0E3 		mov	r3, #0
ARM GAS  /tmp/ccE14h5r.s 			page 17


 151:/home/hkh/git/eapidk-code-r76-trunk/apps/EeePProg/linux/../EeePCfg.c ****   EApiStatus_t StatusCode=EAPI_STATUS_SUCCESS;
 546              		.loc 1 151 16
 547 01bc 0030A0E3 		mov	r3, #0
 548 01c0 24300BE5 		str	r3, [fp, #-36]
 152:/home/hkh/git/eapidk-code-r76-trunk/apps/EeePProg/linux/../EeePCfg.c ****   CCElement_t *pCurElement=pElement;
 549              		.loc 1 152 16
 550 01c4 34301BE5 		ldr	r3, [fp, #-52]
 551 01c8 20300BE5 		str	r3, [fp, #-32]
 153:/home/hkh/git/eapidk-code-r76-trunk/apps/EeePProg/linux/../EeePCfg.c ****   char *pszCEType, *pszMinCount, *pszMaxCount;
 154:/home/hkh/git/eapidk-code-r76-trunk/apps/EeePProg/linux/../EeePCfg.c ****   unsigned long uiCEType, uiMinCount, uiMaxCount;
 155:/home/hkh/git/eapidk-code-r76-trunk/apps/EeePProg/linux/../EeePCfg.c ****   pszCEType=pszValue;
 552              		.loc 1 155 12
 553 01cc 38301BE5 		ldr	r3, [fp, #-56]
 554 01d0 1C300BE5 		str	r3, [fp, #-28]
 156:/home/hkh/git/eapidk-code-r76-trunk/apps/EeePProg/linux/../EeePCfg.c ****   pElementDesc=pElementDesc;
 157:/home/hkh/git/eapidk-code-r76-trunk/apps/EeePProg/linux/../EeePCfg.c **** 
 158:/home/hkh/git/eapidk-code-r76-trunk/apps/EeePProg/linux/../EeePCfg.c ****   pszMinCount=strchr(pszCEType, ',');
 555              		.loc 1 158 15
 556 01d4 2C10A0E3 		mov	r1, #44
 557 01d8 1C001BE5 		ldr	r0, [fp, #-28]
 558 01dc FEFFFFEB 		bl	strchr(PLT)
 559 01e0 18000BE5 		str	r0, [fp, #-24]
 159:/home/hkh/git/eapidk-code-r76-trunk/apps/EeePProg/linux/../EeePCfg.c ****   if(pszMinCount==NULL ){
 560              		.loc 1 159 5
 561 01e4 18301BE5 		ldr	r3, [fp, #-24]
 562 01e8 000053E3 		cmp	r3, #0
 563 01ec 0200001A 		bne	.L10
 160:/home/hkh/git/eapidk-code-r76-trunk/apps/EeePProg/linux/../EeePCfg.c ****     StatusCode=EAPI_STATUS_ERROR;
 564              		.loc 1 160 15
 565 01f0 0F3CE0E3 		mvn	r3, #3840
 566 01f4 24300BE5 		str	r3, [fp, #-36]
 161:/home/hkh/git/eapidk-code-r76-trunk/apps/EeePProg/linux/../EeePCfg.c ****     EAPI_APP_EXIT;
 567              		.loc 1 161 5
 568 01f8 5D0000EA 		b	.L11
 569              	.L10:
 162:/home/hkh/git/eapidk-code-r76-trunk/apps/EeePProg/linux/../EeePCfg.c ****   }
 163:/home/hkh/git/eapidk-code-r76-trunk/apps/EeePProg/linux/../EeePCfg.c ****   *pszMinCount++='\0';
 570              		.loc 1 163 15
 571 01fc 18301BE5 		ldr	r3, [fp, #-24]
 572 0200 012083E2 		add	r2, r3, #1
 573 0204 18200BE5 		str	r2, [fp, #-24]
 574              		.loc 1 163 17
 575 0208 0020A0E3 		mov	r2, #0
 576 020c 0020C3E5 		strb	r2, [r3]
 164:/home/hkh/git/eapidk-code-r76-trunk/apps/EeePProg/linux/../EeePCfg.c ****   
 165:/home/hkh/git/eapidk-code-r76-trunk/apps/EeePProg/linux/../EeePCfg.c ****   pszMaxCount=strchr(pszMinCount, ',');
 577              		.loc 1 165 15
 578 0210 2C10A0E3 		mov	r1, #44
 579 0214 18001BE5 		ldr	r0, [fp, #-24]
 580 0218 FEFFFFEB 		bl	strchr(PLT)
 581 021c 14000BE5 		str	r0, [fp, #-20]
 166:/home/hkh/git/eapidk-code-r76-trunk/apps/EeePProg/linux/../EeePCfg.c ****   if(pszMaxCount==NULL ){
 582              		.loc 1 166 5
 583 0220 14301BE5 		ldr	r3, [fp, #-20]
 584 0224 000053E3 		cmp	r3, #0
 585 0228 0200001A 		bne	.L12
 167:/home/hkh/git/eapidk-code-r76-trunk/apps/EeePProg/linux/../EeePCfg.c ****     StatusCode=EAPI_STATUS_ERROR;
ARM GAS  /tmp/ccE14h5r.s 			page 18


 586              		.loc 1 167 15
 587 022c 0F3CE0E3 		mvn	r3, #3840
 588 0230 24300BE5 		str	r3, [fp, #-36]
 168:/home/hkh/git/eapidk-code-r76-trunk/apps/EeePProg/linux/../EeePCfg.c ****     EAPI_APP_EXIT;
 589              		.loc 1 168 5
 590 0234 4E0000EA 		b	.L11
 591              	.L12:
 169:/home/hkh/git/eapidk-code-r76-trunk/apps/EeePProg/linux/../EeePCfg.c ****   }
 170:/home/hkh/git/eapidk-code-r76-trunk/apps/EeePProg/linux/../EeePCfg.c ****   *pszMaxCount++='\0';
 592              		.loc 1 170 15
 593 0238 14301BE5 		ldr	r3, [fp, #-20]
 594 023c 012083E2 		add	r2, r3, #1
 595 0240 14200BE5 		str	r2, [fp, #-20]
 596              		.loc 1 170 17
 597 0244 0020A0E3 		mov	r2, #0
 598 0248 0020C3E5 		strb	r2, [r3]
 171:/home/hkh/git/eapidk-code-r76-trunk/apps/EeePProg/linux/../EeePCfg.c **** 
 172:/home/hkh/git/eapidk-code-r76-trunk/apps/EeePProg/linux/../EeePCfg.c ****   StatusCode=GetTokenValueStrip(
 599              		.loc 1 172 14
 600 024c 28304BE2 		sub	r3, fp, #40
 601 0250 0320A0E1 		mov	r2, r3
 602 0254 1C101BE5 		ldr	r1, [fp, #-28]
 603 0258 54319FE5 		ldr	r3, .L20+8
 604              	.LPIC6:
 605 025c 03308FE0 		add	r3, pc, r3
 606 0260 0300A0E1 		mov	r0, r3
 607 0264 FEFFFFEB 		bl	GetTokenValueStrip(PLT)
 608 0268 24000BE5 		str	r0, [fp, #-36]
 173:/home/hkh/git/eapidk-code-r76-trunk/apps/EeePProg/linux/../EeePCfg.c ****       &SmbiosStructureTypesTL, 
 174:/home/hkh/git/eapidk-code-r76-trunk/apps/EeePProg/linux/../EeePCfg.c ****       pszCEType, 
 175:/home/hkh/git/eapidk-code-r76-trunk/apps/EeePProg/linux/../EeePCfg.c ****       &uiCEType
 176:/home/hkh/git/eapidk-code-r76-trunk/apps/EeePProg/linux/../EeePCfg.c ****     );
 177:/home/hkh/git/eapidk-code-r76-trunk/apps/EeePProg/linux/../EeePCfg.c ****   if(!EAPI_TEST_SUCCESS(StatusCode))
 609              		.loc 1 177 5
 610 026c 24301BE5 		ldr	r3, [fp, #-36]
 611 0270 000053E3 		cmp	r3, #0
 612 0274 0800000A 		beq	.L13
 178:/home/hkh/git/eapidk-code-r76-trunk/apps/EeePProg/linux/../EeePCfg.c ****     StatusCode=GetTokenValueStrip(
 613              		.loc 1 178 16
 614 0278 28304BE2 		sub	r3, fp, #40
 615 027c 0320A0E1 		mov	r2, r3
 616 0280 1C101BE5 		ldr	r1, [fp, #-28]
 617 0284 2C319FE5 		ldr	r3, .L20+12
 618              	.LPIC7:
 619 0288 03308FE0 		add	r3, pc, r3
 620 028c 0300A0E1 		mov	r0, r3
 621 0290 FEFFFFEB 		bl	GetTokenValueStrip(PLT)
 622 0294 24000BE5 		str	r0, [fp, #-36]
 623 0298 020000EA 		b	.L14
 624              	.L13:
 179:/home/hkh/git/eapidk-code-r76-trunk/apps/EeePProg/linux/../EeePCfg.c ****         &SmbiosBoardTypesTL, 
 180:/home/hkh/git/eapidk-code-r76-trunk/apps/EeePProg/linux/../EeePCfg.c ****         pszCEType, 
 181:/home/hkh/git/eapidk-code-r76-trunk/apps/EeePProg/linux/../EeePCfg.c ****         &uiCEType
 182:/home/hkh/git/eapidk-code-r76-trunk/apps/EeePProg/linux/../EeePCfg.c ****       );
 183:/home/hkh/git/eapidk-code-r76-trunk/apps/EeePProg/linux/../EeePCfg.c ****   else
 184:/home/hkh/git/eapidk-code-r76-trunk/apps/EeePProg/linux/../EeePCfg.c ****     uiCEType|=0x80;
 625              		.loc 1 184 13
ARM GAS  /tmp/ccE14h5r.s 			page 19


 626 029c 28301BE5 		ldr	r3, [fp, #-40]
 627 02a0 803083E3 		orr	r3, r3, #128
 628 02a4 28300BE5 		str	r3, [fp, #-40]
 629              	.L14:
 185:/home/hkh/git/eapidk-code-r76-trunk/apps/EeePProg/linux/../EeePCfg.c **** 
 186:/home/hkh/git/eapidk-code-r76-trunk/apps/EeePProg/linux/../EeePCfg.c ****   if(!EAPI_TEST_SUCCESS(StatusCode)){
 630              		.loc 1 186 5
 631 02a8 24301BE5 		ldr	r3, [fp, #-36]
 632 02ac 000053E3 		cmp	r3, #0
 633 02b0 0500000A 		beq	.L15
 187:/home/hkh/git/eapidk-code-r76-trunk/apps/EeePProg/linux/../EeePCfg.c ****     printf("SMBIOS_CE_Element = Unknown Token, %s\n", pszValue);
 634              		.loc 1 187 5
 635 02b4 38101BE5 		ldr	r1, [fp, #-56]
 636 02b8 FC309FE5 		ldr	r3, .L20+16
 637              	.LPIC8:
 638 02bc 03308FE0 		add	r3, pc, r3
 639 02c0 0300A0E1 		mov	r0, r3
 640 02c4 FEFFFFEB 		bl	printf(PLT)
 188:/home/hkh/git/eapidk-code-r76-trunk/apps/EeePProg/linux/../EeePCfg.c ****     EAPI_APP_EXIT;
 641              		.loc 1 188 5
 642 02c8 290000EA 		b	.L11
 643              	.L15:
 189:/home/hkh/git/eapidk-code-r76-trunk/apps/EeePProg/linux/../EeePCfg.c ****   }
 190:/home/hkh/git/eapidk-code-r76-trunk/apps/EeePProg/linux/../EeePCfg.c **** 
 191:/home/hkh/git/eapidk-code-r76-trunk/apps/EeePProg/linux/../EeePCfg.c ****   uiMinCount=ulConvertStr2NumEx(pszMinCount, NULL                  );
 644              		.loc 1 191 14
 645 02cc 0010A0E3 		mov	r1, #0
 646 02d0 18001BE5 		ldr	r0, [fp, #-24]
 647 02d4 FEFFFFEB 		bl	ulConvertStr2NumEx(PLT)
 648 02d8 10000BE5 		str	r0, [fp, #-16]
 192:/home/hkh/git/eapidk-code-r76-trunk/apps/EeePProg/linux/../EeePCfg.c ****   uiMaxCount=ulConvertStr2NumEx(pszMaxCount, NULL                  );
 649              		.loc 1 192 14
 650 02dc 0010A0E3 		mov	r1, #0
 651 02e0 14001BE5 		ldr	r0, [fp, #-20]
 652 02e4 FEFFFFEB 		bl	ulConvertStr2NumEx(PLT)
 653 02e8 0C000BE5 		str	r0, [fp, #-12]
 193:/home/hkh/git/eapidk-code-r76-trunk/apps/EeePProg/linux/../EeePCfg.c ****   if(uiMinCount>UINT8_MAX){
 654              		.loc 1 193 5
 655 02ec 10301BE5 		ldr	r3, [fp, #-16]
 656 02f0 FF0053E3 		cmp	r3, #255
 657 02f4 0700009A 		bls	.L16
 194:/home/hkh/git/eapidk-code-r76-trunk/apps/EeePProg/linux/../EeePCfg.c ****     printf("SMBIOS_CE_Element = Invalid MinCount, %s\n", pszMinCount);
 658              		.loc 1 194 5
 659 02f8 18101BE5 		ldr	r1, [fp, #-24]
 660 02fc BC309FE5 		ldr	r3, .L20+20
 661              	.LPIC9:
 662 0300 03308FE0 		add	r3, pc, r3
 663 0304 0300A0E1 		mov	r0, r3
 664 0308 FEFFFFEB 		bl	printf(PLT)
 195:/home/hkh/git/eapidk-code-r76-trunk/apps/EeePProg/linux/../EeePCfg.c ****     StatusCode=EAPI_STATUS_ERROR;
 665              		.loc 1 195 15
 666 030c 0F3CE0E3 		mvn	r3, #3840
 667 0310 24300BE5 		str	r3, [fp, #-36]
 196:/home/hkh/git/eapidk-code-r76-trunk/apps/EeePProg/linux/../EeePCfg.c ****     EAPI_APP_EXIT;
 668              		.loc 1 196 5
 669 0314 160000EA 		b	.L11
 670              	.L16:
ARM GAS  /tmp/ccE14h5r.s 			page 20


 197:/home/hkh/git/eapidk-code-r76-trunk/apps/EeePProg/linux/../EeePCfg.c ****   }
 198:/home/hkh/git/eapidk-code-r76-trunk/apps/EeePProg/linux/../EeePCfg.c ****   if(uiMaxCount>UINT8_MAX){
 671              		.loc 1 198 5
 672 0318 0C301BE5 		ldr	r3, [fp, #-12]
 673 031c FF0053E3 		cmp	r3, #255
 674 0320 0700009A 		bls	.L17
 199:/home/hkh/git/eapidk-code-r76-trunk/apps/EeePProg/linux/../EeePCfg.c ****     printf("SMBIOS_CE_Element = Invalid MaxCount, %s\n", pszMaxCount);
 675              		.loc 1 199 5
 676 0324 14101BE5 		ldr	r1, [fp, #-20]
 677 0328 94309FE5 		ldr	r3, .L20+24
 678              	.LPIC10:
 679 032c 03308FE0 		add	r3, pc, r3
 680 0330 0300A0E1 		mov	r0, r3
 681 0334 FEFFFFEB 		bl	printf(PLT)
 200:/home/hkh/git/eapidk-code-r76-trunk/apps/EeePProg/linux/../EeePCfg.c ****     StatusCode=EAPI_STATUS_ERROR;
 682              		.loc 1 200 15
 683 0338 0F3CE0E3 		mvn	r3, #3840
 684 033c 24300BE5 		str	r3, [fp, #-36]
 201:/home/hkh/git/eapidk-code-r76-trunk/apps/EeePProg/linux/../EeePCfg.c ****     EAPI_APP_EXIT;
 685              		.loc 1 201 5
 686 0340 0B0000EA 		b	.L11
 687              	.L17:
 202:/home/hkh/git/eapidk-code-r76-trunk/apps/EeePProg/linux/../EeePCfg.c ****   }
 203:/home/hkh/git/eapidk-code-r76-trunk/apps/EeePProg/linux/../EeePCfg.c **** 
 204:/home/hkh/git/eapidk-code-r76-trunk/apps/EeePProg/linux/../EeePCfg.c **** 
 205:/home/hkh/git/eapidk-code-r76-trunk/apps/EeePProg/linux/../EeePCfg.c ****   pCurElement->ElementType=(uint8_t)uiCEType;
 688              		.loc 1 205 28
 689 0344 28301BE5 		ldr	r3, [fp, #-40]
 690 0348 7320EFE6 		uxtb	r2, r3
 691              		.loc 1 205 27
 692 034c 20301BE5 		ldr	r3, [fp, #-32]
 693 0350 0020C3E5 		strb	r2, [r3]
 206:/home/hkh/git/eapidk-code-r76-trunk/apps/EeePProg/linux/../EeePCfg.c ****   pCurElement->MinNum=(uint8_t)uiMinCount;
 694              		.loc 1 206 23
 695 0354 10301BE5 		ldr	r3, [fp, #-16]
 696 0358 7320EFE6 		uxtb	r2, r3
 697              		.loc 1 206 22
 698 035c 20301BE5 		ldr	r3, [fp, #-32]
 699 0360 0120C3E5 		strb	r2, [r3, #1]
 207:/home/hkh/git/eapidk-code-r76-trunk/apps/EeePProg/linux/../EeePCfg.c ****   pCurElement->MaxNum=(uint8_t)uiMaxCount;
 700              		.loc 1 207 23
 701 0364 0C301BE5 		ldr	r3, [fp, #-12]
 702 0368 7320EFE6 		uxtb	r2, r3
 703              		.loc 1 207 22
 704 036c 20301BE5 		ldr	r3, [fp, #-32]
 705 0370 0220C3E5 		strb	r2, [r3, #2]
 706              	.L11:
 208:/home/hkh/git/eapidk-code-r76-trunk/apps/EeePProg/linux/../EeePCfg.c **** /*   PrintHexAsciiTableEx( */
 209:/home/hkh/git/eapidk-code-r76-trunk/apps/EeePProg/linux/../EeePCfg.c **** /*       pCurElement,  */
 210:/home/hkh/git/eapidk-code-r76-trunk/apps/EeePProg/linux/../EeePCfg.c **** /*       3,  */
 211:/home/hkh/git/eapidk-code-r76-trunk/apps/EeePProg/linux/../EeePCfg.c **** /*       pCurElement,  */
 212:/home/hkh/git/eapidk-code-r76-trunk/apps/EeePProg/linux/../EeePCfg.c **** /*       NULL, */
 213:/home/hkh/git/eapidk-code-r76-trunk/apps/EeePProg/linux/../EeePCfg.c **** /*       HEXTBL_8BIT_ELEMENT|3 */
 214:/home/hkh/git/eapidk-code-r76-trunk/apps/EeePProg/linux/../EeePCfg.c **** /*     ); */
 215:/home/hkh/git/eapidk-code-r76-trunk/apps/EeePProg/linux/../EeePCfg.c **** EAPI_APP_ASSERT_EXIT
 216:/home/hkh/git/eapidk-code-r76-trunk/apps/EeePProg/linux/../EeePCfg.c ****   return StatusCode;
 707              		.loc 1 216 10
ARM GAS  /tmp/ccE14h5r.s 			page 21


 708 0374 24301BE5 		ldr	r3, [fp, #-36]
 150:/home/hkh/git/eapidk-code-r76-trunk/apps/EeePProg/linux/../EeePCfg.c ****   EApiStatus_t StatusCode=EAPI_STATUS_SUCCESS;
 709              		.loc 1 150 1
 710 0378 48109FE5 		ldr	r1, .L20+28
 711              	.LPIC12:
 712 037c 01108FE0 		add	r1, pc, r1
 217:/home/hkh/git/eapidk-code-r76-trunk/apps/EeePProg/linux/../EeePCfg.c **** }
 713              		.loc 1 217 1
 714 0380 28209FE5 		ldr	r2, .L20+4
 715 0384 022091E7 		ldr	r2, [r1, r2]
 716 0388 001092E5 		ldr	r1, [r2]
 717 038c 08201BE5 		ldr	r2, [fp, #-8]
 718 0390 011032E0 		eors	r1, r2, r1
 719 0394 0020A0E3 		mov	r2, #0
 720 0398 0000000A 		beq	.L19
 721 039c FEFFFFEB 		bl	__stack_chk_fail(PLT)
 722              	.L19:
 723 03a0 0300A0E1 		mov	r0, r3
 724 03a4 04D04BE2 		sub	sp, fp, #4
 725              		.cfi_def_cfa 13, 8
 726              		@ sp needed
 727 03a8 0088BDE8 		pop	{fp, pc}
 728              	.L21:
 729              		.align	2
 730              	.L20:
 731 03ac 00020000 		.word	_GLOBAL_OFFSET_TABLE_-(.LPIC11+8)
 732 03b0 00000000 		.word	__stack_chk_guard(GOT)
 733 03b4 50010000 		.word	SmbiosStructureTypesTL-(.LPIC6+8)
 734 03b8 28010000 		.word	SmbiosBoardTypesTL-(.LPIC7+8)
 735 03bc C0060000 		.word	.LC57-(.LPIC8+8)
 736 03c0 A8060000 		.word	.LC58-(.LPIC9+8)
 737 03c4 AC060000 		.word	.LC59-(.LPIC10+8)
 738 03c8 44000000 		.word	_GLOBAL_OFFSET_TABLE_-(.LPIC12+8)
 739              		.cfi_endproc
 740              	.LFE2:
 742              		.global	PCIeLaneWidths
 743              		.section	.rodata
 744 0646 0000     		.align	2
 745              	.LC60:
 746 0648 783100   		.ascii	"x1\000"
 747 064b 00       		.align	2
 748              	.LC61:
 749 064c 783200   		.ascii	"x2\000"
 750 064f 00       		.align	2
 751              	.LC62:
 752 0650 783400   		.ascii	"x4\000"
 753 0653 00       		.align	2
 754              	.LC63:
 755 0654 783800   		.ascii	"x8\000"
 756 0657 00       		.align	2
 757              	.LC64:
 758 0658 78313600 		.ascii	"x16\000"
 759              		.align	2
 760              	.LC65:
 761 065c 78333200 		.ascii	"x32\000"
 762              		.section	.data.rel.local
 763              		.align	2
ARM GAS  /tmp/ccE14h5r.s 			page 22


 766              	PCIeLaneWidths:
 767 01c0 48060000 		.word	.LC60
 768 01c4 01000000 		.word	1
 769 01c8 4C060000 		.word	.LC61
 770 01cc 02000000 		.word	2
 771 01d0 50060000 		.word	.LC62
 772 01d4 03000000 		.word	3
 773 01d8 54060000 		.word	.LC63
 774 01dc 04000000 		.word	4
 775 01e0 58060000 		.word	.LC64
 776 01e4 05000000 		.word	5
 777 01e8 5C060000 		.word	.LC65
 778 01ec 06000000 		.word	6
 779              		.global	PCIeLaneWidthsTL
 780              		.align	2
 783              	PCIeLaneWidthsTL:
 784 01f0 06000000 		.word	6
 785 01f4 00000000 		.word	PCIeLaneWidths
 786              		.global	PCIeGeneration
 787              		.section	.rodata
 788              		.align	2
 789              	.LC66:
 790 0660 47656E31 		.ascii	"Gen1\000"
 790      00
 791 0665 000000   		.align	2
 792              	.LC67:
 793 0668 47656E32 		.ascii	"Gen2\000"
 793      00
 794 066d 000000   		.align	2
 795              	.LC68:
 796 0670 47656E33 		.ascii	"Gen3\000"
 796      00
 797              		.section	.data.rel.local
 798              		.align	2
 801              	PCIeGeneration:
 802 01f8 60060000 		.word	.LC66
 803 01fc 00000000 		.word	0
 804 0200 68060000 		.word	.LC67
 805 0204 01000000 		.word	1
 806 0208 70060000 		.word	.LC68
 807 020c 02000000 		.word	2
 808              		.global	PCIeGenerationTL
 809              		.align	2
 812              	PCIeGenerationTL:
 813 0210 03000000 		.word	3
 814 0214 00000000 		.word	PCIeGeneration
 815              		.section	.rodata
 816 0675 000000   		.align	2
 817              	.LC69:
 818 0678 434F4D30 		.ascii	"COM0 PCIe Port Description\012  Format:\012    Star"
 818      20504349 
 818      6520506F 
 818      72742044 
 818      65736372 
 819 06a5 74696E67 		.ascii	"ting Lane, Link Width, PCIe Generation\012  Example"
 819      204C616E 
 819      652C204C 
ARM GAS  /tmp/ccE14h5r.s 			page 23


 819      696E6B20 
 819      57696474 
 820 06d5 733A0A20 		.ascii	"s:\012     0,   x1, Gen1\012    16,  x16, Gen2\012 "
 820      20202020 
 820      302C2020 
 820      2078312C 
 820      2047656E 
 821 06ff 20537461 		.ascii	" Starting Lanes:\012    0 - 31      \012  Link Widt"
 821      7274696E 
 821      67204C61 
 821      6E65733A 
 821      0A202020 
 822 072c 68732054 		.ascii	"hs Tokens:\012\000"
 822      6F6B656E 
 822      733A0A00 
 823              		.align	2
 824              	.LC70:
 825 0738 20204765 		.ascii	"  Generations Tokens:\012\000"
 825      6E657261 
 825      74696F6E 
 825      7320546F 
 825      6B656E73 
 826              		.text
 827              		.align	2
 828              		.global	COM0PCIe_Help
 829              		.syntax unified
 830              		.arm
 831              		.fpu vfpv3
 833              	COM0PCIe_Help:
 834              	.LFB3:
 218:/home/hkh/git/eapidk-code-r76-trunk/apps/EeePProg/linux/../EeePCfg.c **** 
 219:/home/hkh/git/eapidk-code-r76-trunk/apps/EeePProg/linux/../EeePCfg.c **** 
 220:/home/hkh/git/eapidk-code-r76-trunk/apps/EeePProg/linux/../EeePCfg.c **** 
 221:/home/hkh/git/eapidk-code-r76-trunk/apps/EeePProg/linux/../EeePCfg.c **** TokenDesc_t  PCIeLaneWidths[]={
 222:/home/hkh/git/eapidk-code-r76-trunk/apps/EeePProg/linux/../EeePCfg.c ****   {"x1"	, 1  },
 223:/home/hkh/git/eapidk-code-r76-trunk/apps/EeePProg/linux/../EeePCfg.c ****   {"x2"	, 2  },
 224:/home/hkh/git/eapidk-code-r76-trunk/apps/EeePProg/linux/../EeePCfg.c ****   {"x4"	, 3  },
 225:/home/hkh/git/eapidk-code-r76-trunk/apps/EeePProg/linux/../EeePCfg.c ****   {"x8"	, 4  },
 226:/home/hkh/git/eapidk-code-r76-trunk/apps/EeePProg/linux/../EeePCfg.c ****   {"x16", 5  },
 227:/home/hkh/git/eapidk-code-r76-trunk/apps/EeePProg/linux/../EeePCfg.c ****   {"x32", 6  },
 228:/home/hkh/git/eapidk-code-r76-trunk/apps/EeePProg/linux/../EeePCfg.c **** };
 229:/home/hkh/git/eapidk-code-r76-trunk/apps/EeePProg/linux/../EeePCfg.c **** PCFG_TOKEN_LIST_DESC(PCIeLaneWidthsTL, PCIeLaneWidths);
 230:/home/hkh/git/eapidk-code-r76-trunk/apps/EeePProg/linux/../EeePCfg.c **** 
 231:/home/hkh/git/eapidk-code-r76-trunk/apps/EeePProg/linux/../EeePCfg.c **** TokenDesc_t  PCIeGeneration[]={
 232:/home/hkh/git/eapidk-code-r76-trunk/apps/EeePProg/linux/../EeePCfg.c ****   {"Gen1"	, COM0R20_PCIe_GEN1  },
 233:/home/hkh/git/eapidk-code-r76-trunk/apps/EeePProg/linux/../EeePCfg.c ****   {"Gen2"	, COM0R20_PCIe_GEN2  },
 234:/home/hkh/git/eapidk-code-r76-trunk/apps/EeePProg/linux/../EeePCfg.c ****   {"Gen3"	, COM0R20_PCIe_GEN3  },
 235:/home/hkh/git/eapidk-code-r76-trunk/apps/EeePProg/linux/../EeePCfg.c **** };
 236:/home/hkh/git/eapidk-code-r76-trunk/apps/EeePProg/linux/../EeePCfg.c **** PCFG_TOKEN_LIST_DESC(PCIeGenerationTL, PCIeGeneration);
 237:/home/hkh/git/eapidk-code-r76-trunk/apps/EeePProg/linux/../EeePCfg.c **** 
 238:/home/hkh/git/eapidk-code-r76-trunk/apps/EeePProg/linux/../EeePCfg.c **** 
 239:/home/hkh/git/eapidk-code-r76-trunk/apps/EeePProg/linux/../EeePCfg.c **** EApiStatus_t
 240:/home/hkh/git/eapidk-code-r76-trunk/apps/EeePProg/linux/../EeePCfg.c **** COM0PCIe_Help(
 241:/home/hkh/git/eapidk-code-r76-trunk/apps/EeePProg/linux/../EeePCfg.c ****     __IN  struct CfgElementDesc_s *pElementDesc, 
 242:/home/hkh/git/eapidk-code-r76-trunk/apps/EeePProg/linux/../EeePCfg.c ****     __OUT char *szHelpBuf, 
 243:/home/hkh/git/eapidk-code-r76-trunk/apps/EeePProg/linux/../EeePCfg.c ****     __IN  size_t stHBufLen 
 244:/home/hkh/git/eapidk-code-r76-trunk/apps/EeePProg/linux/../EeePCfg.c ****   )
ARM GAS  /tmp/ccE14h5r.s 			page 24


 245:/home/hkh/git/eapidk-code-r76-trunk/apps/EeePProg/linux/../EeePCfg.c **** { 
 835              		.loc 1 245 1
 836              		.cfi_startproc
 837              		@ args = 0, pretend = 0, frame = 24
 838              		@ frame_needed = 1, uses_anonymous_args = 0
 839 03cc 00482DE9 		push	{fp, lr}
 840              		.cfi_def_cfa_offset 8
 841              		.cfi_offset 11, -8
 842              		.cfi_offset 14, -4
 843 03d0 04B08DE2 		add	fp, sp, #4
 844              		.cfi_def_cfa 11, 4
 845 03d4 18D04DE2 		sub	sp, sp, #24
 846 03d8 10000BE5 		str	r0, [fp, #-16]
 847 03dc 14100BE5 		str	r1, [fp, #-20]
 848 03e0 18200BE5 		str	r2, [fp, #-24]
 246:/home/hkh/git/eapidk-code-r76-trunk/apps/EeePProg/linux/../EeePCfg.c ****   unsigned int i;
 247:/home/hkh/git/eapidk-code-r76-trunk/apps/EeePProg/linux/../EeePCfg.c ****   int len=0;
 849              		.loc 1 247 7
 850 03e4 0030A0E3 		mov	r3, #0
 851 03e8 08300BE5 		str	r3, [fp, #-8]
 248:/home/hkh/git/eapidk-code-r76-trunk/apps/EeePProg/linux/../EeePCfg.c ****   pElementDesc=pElementDesc;
 249:/home/hkh/git/eapidk-code-r76-trunk/apps/EeePProg/linux/../EeePCfg.c ****   len+=EApiSprintfA(szHelpBuf+len , stHBufLen-len , 
 852              		.loc 1 249 8
 853 03ec 08301BE5 		ldr	r3, [fp, #-8]
 854 03f0 14201BE5 		ldr	r2, [fp, #-20]
 855 03f4 030082E0 		add	r0, r2, r3
 856 03f8 08301BE5 		ldr	r3, [fp, #-8]
 857 03fc 18201BE5 		ldr	r2, [fp, #-24]
 858 0400 033042E0 		sub	r3, r2, r3
 859 0404 20219FE5 		ldr	r2, .L28
 860              	.LPIC13:
 861 0408 02208FE0 		add	r2, pc, r2
 862 040c 0310A0E1 		mov	r1, r3
 863 0410 FEFFFFEB 		bl	EApiSprintfA(PLT)
 864 0414 0020A0E1 		mov	r2, r0
 865              		.loc 1 249 6
 866 0418 08301BE5 		ldr	r3, [fp, #-8]
 867 041c 023083E0 		add	r3, r3, r2
 868 0420 08300BE5 		str	r3, [fp, #-8]
 250:/home/hkh/git/eapidk-code-r76-trunk/apps/EeePProg/linux/../EeePCfg.c ****   "COM0 PCIe Port Description\n"                     
 251:/home/hkh/git/eapidk-code-r76-trunk/apps/EeePProg/linux/../EeePCfg.c ****   "  Format:\n"                                      
 252:/home/hkh/git/eapidk-code-r76-trunk/apps/EeePProg/linux/../EeePCfg.c ****   "    Starting Lane, Link Width, PCIe Generation\n" 
 253:/home/hkh/git/eapidk-code-r76-trunk/apps/EeePProg/linux/../EeePCfg.c ****   "  Examples:\n"                                    
 254:/home/hkh/git/eapidk-code-r76-trunk/apps/EeePProg/linux/../EeePCfg.c ****   "     0,   x1, Gen1\n"                             
 255:/home/hkh/git/eapidk-code-r76-trunk/apps/EeePProg/linux/../EeePCfg.c ****   "    16,  x16, Gen2\n"                             
 256:/home/hkh/git/eapidk-code-r76-trunk/apps/EeePProg/linux/../EeePCfg.c ****   "  Starting Lanes:\n"                              
 257:/home/hkh/git/eapidk-code-r76-trunk/apps/EeePProg/linux/../EeePCfg.c ****   "    0 - 31      \n"                               
 258:/home/hkh/git/eapidk-code-r76-trunk/apps/EeePProg/linux/../EeePCfg.c ****   "  Link Widths Tokens:\n"                          );
 259:/home/hkh/git/eapidk-code-r76-trunk/apps/EeePProg/linux/../EeePCfg.c ****   for(i=0;i<ARRAY_SIZE(PCIeLaneWidths);i++){
 869              		.loc 1 259 8
 870 0424 0030A0E3 		mov	r3, #0
 871 0428 0C300BE5 		str	r3, [fp, #-12]
 872              		.loc 1 259 3
 873 042c 0F0000EA 		b	.L23
 874              	.L24:
 260:/home/hkh/git/eapidk-code-r76-trunk/apps/EeePProg/linux/../EeePCfg.c ****     EApiSprintfA(szHelpBuf+len , stHBufLen-len , "     %s\n", PCIeLaneWidths[i].pszTokenList);
 875              		.loc 1 260 5 discriminator 3
ARM GAS  /tmp/ccE14h5r.s 			page 25


 876 0430 08301BE5 		ldr	r3, [fp, #-8]
 877 0434 14201BE5 		ldr	r2, [fp, #-20]
 878 0438 030082E0 		add	r0, r2, r3
 879 043c 08301BE5 		ldr	r3, [fp, #-8]
 880 0440 18201BE5 		ldr	r2, [fp, #-24]
 881 0444 031042E0 		sub	r1, r2, r3
 882 0448 E0309FE5 		ldr	r3, .L28+4
 883              	.LPIC14:
 884 044c 03308FE0 		add	r3, pc, r3
 885 0450 0C201BE5 		ldr	r2, [fp, #-12]
 886 0454 823193E7 		ldr	r3, [r3, r2, lsl #3]
 887 0458 D4209FE5 		ldr	r2, .L28+8
 888              	.LPIC15:
 889 045c 02208FE0 		add	r2, pc, r2
 890 0460 FEFFFFEB 		bl	EApiSprintfA(PLT)
 259:/home/hkh/git/eapidk-code-r76-trunk/apps/EeePProg/linux/../EeePCfg.c ****     EApiSprintfA(szHelpBuf+len , stHBufLen-len , "     %s\n", PCIeLaneWidths[i].pszTokenList);
 891              		.loc 1 259 41 discriminator 3
 892 0464 0C301BE5 		ldr	r3, [fp, #-12]
 893 0468 013083E2 		add	r3, r3, #1
 894 046c 0C300BE5 		str	r3, [fp, #-12]
 895              	.L23:
 259:/home/hkh/git/eapidk-code-r76-trunk/apps/EeePProg/linux/../EeePCfg.c ****     EApiSprintfA(szHelpBuf+len , stHBufLen-len , "     %s\n", PCIeLaneWidths[i].pszTokenList);
 896              		.loc 1 259 12 discriminator 1
 897 0470 0C301BE5 		ldr	r3, [fp, #-12]
 898 0474 050053E3 		cmp	r3, #5
 899 0478 ECFFFF9A 		bls	.L24
 261:/home/hkh/git/eapidk-code-r76-trunk/apps/EeePProg/linux/../EeePCfg.c ****   }
 262:/home/hkh/git/eapidk-code-r76-trunk/apps/EeePProg/linux/../EeePCfg.c ****   len+=EApiSprintfA(szHelpBuf+len, stHBufLen-len, "  Generations Tokens:\n"  );
 900              		.loc 1 262 8
 901 047c 08301BE5 		ldr	r3, [fp, #-8]
 902 0480 14201BE5 		ldr	r2, [fp, #-20]
 903 0484 030082E0 		add	r0, r2, r3
 904 0488 08301BE5 		ldr	r3, [fp, #-8]
 905 048c 18201BE5 		ldr	r2, [fp, #-24]
 906 0490 033042E0 		sub	r3, r2, r3
 907 0494 9C209FE5 		ldr	r2, .L28+12
 908              	.LPIC16:
 909 0498 02208FE0 		add	r2, pc, r2
 910 049c 0310A0E1 		mov	r1, r3
 911 04a0 FEFFFFEB 		bl	EApiSprintfA(PLT)
 912 04a4 0020A0E1 		mov	r2, r0
 913              		.loc 1 262 6
 914 04a8 08301BE5 		ldr	r3, [fp, #-8]
 915 04ac 023083E0 		add	r3, r3, r2
 916 04b0 08300BE5 		str	r3, [fp, #-8]
 263:/home/hkh/git/eapidk-code-r76-trunk/apps/EeePProg/linux/../EeePCfg.c ****   for(i=0;i<ARRAY_SIZE(PCIeGeneration);i++){
 917              		.loc 1 263 8
 918 04b4 0030A0E3 		mov	r3, #0
 919 04b8 0C300BE5 		str	r3, [fp, #-12]
 920              		.loc 1 263 3
 921 04bc 130000EA 		b	.L25
 922              	.L26:
 264:/home/hkh/git/eapidk-code-r76-trunk/apps/EeePProg/linux/../EeePCfg.c ****     len+=EApiSprintfA(szHelpBuf+len , stHBufLen-len , "     %s\n", PCIeGeneration[i].pszTokenList);
 923              		.loc 1 264 10 discriminator 3
 924 04c0 08301BE5 		ldr	r3, [fp, #-8]
 925 04c4 14201BE5 		ldr	r2, [fp, #-20]
 926 04c8 030082E0 		add	r0, r2, r3
ARM GAS  /tmp/ccE14h5r.s 			page 26


 927 04cc 08301BE5 		ldr	r3, [fp, #-8]
 928 04d0 18201BE5 		ldr	r2, [fp, #-24]
 929 04d4 031042E0 		sub	r1, r2, r3
 930 04d8 5C309FE5 		ldr	r3, .L28+16
 931              	.LPIC17:
 932 04dc 03308FE0 		add	r3, pc, r3
 933 04e0 0C201BE5 		ldr	r2, [fp, #-12]
 934 04e4 823193E7 		ldr	r3, [r3, r2, lsl #3]
 935 04e8 50209FE5 		ldr	r2, .L28+20
 936              	.LPIC18:
 937 04ec 02208FE0 		add	r2, pc, r2
 938 04f0 FEFFFFEB 		bl	EApiSprintfA(PLT)
 939 04f4 0020A0E1 		mov	r2, r0
 940              		.loc 1 264 8 discriminator 3
 941 04f8 08301BE5 		ldr	r3, [fp, #-8]
 942 04fc 023083E0 		add	r3, r3, r2
 943 0500 08300BE5 		str	r3, [fp, #-8]
 263:/home/hkh/git/eapidk-code-r76-trunk/apps/EeePProg/linux/../EeePCfg.c ****   for(i=0;i<ARRAY_SIZE(PCIeGeneration);i++){
 944              		.loc 1 263 41 discriminator 3
 945 0504 0C301BE5 		ldr	r3, [fp, #-12]
 946 0508 013083E2 		add	r3, r3, #1
 947 050c 0C300BE5 		str	r3, [fp, #-12]
 948              	.L25:
 263:/home/hkh/git/eapidk-code-r76-trunk/apps/EeePProg/linux/../EeePCfg.c ****   for(i=0;i<ARRAY_SIZE(PCIeGeneration);i++){
 949              		.loc 1 263 12 discriminator 1
 950 0510 0C301BE5 		ldr	r3, [fp, #-12]
 951 0514 020053E3 		cmp	r3, #2
 952 0518 E8FFFF9A 		bls	.L26
 265:/home/hkh/git/eapidk-code-r76-trunk/apps/EeePProg/linux/../EeePCfg.c ****   }
 266:/home/hkh/git/eapidk-code-r76-trunk/apps/EeePProg/linux/../EeePCfg.c ****   return EAPI_STATUS_SUCCESS;
 953              		.loc 1 266 10
 954 051c 0030A0E3 		mov	r3, #0
 267:/home/hkh/git/eapidk-code-r76-trunk/apps/EeePProg/linux/../EeePCfg.c **** }
 955              		.loc 1 267 1
 956 0520 0300A0E1 		mov	r0, r3
 957 0524 04D04BE2 		sub	sp, fp, #4
 958              		.cfi_def_cfa 13, 8
 959              		@ sp needed
 960 0528 0088BDE8 		pop	{fp, pc}
 961              	.L29:
 962              		.align	2
 963              	.L28:
 964 052c 94070000 		.word	.LC69-(.LPIC13+8)
 965 0530 DC000000 		.word	PCIeLaneWidths-(.LPIC14+8)
 966 0534 44060000 		.word	.LC55-(.LPIC15+8)
 967 0538 D0070000 		.word	.LC70-(.LPIC16+8)
 968 053c 58000000 		.word	PCIeGeneration-(.LPIC17+8)
 969 0540 C0050000 		.word	.LC55-(.LPIC18+8)
 970              		.cfi_endproc
 971              	.LFE3:
 973              		.section	.rodata
 974 074f 00       		.align	2
 975              	.LC71:
 976 0750 434F4D30 		.ascii	"COM0PCIe_Element\000"
 976      50434965 
 976      5F456C65 
 976      6D656E74 
ARM GAS  /tmp/ccE14h5r.s 			page 27


 976      00
 977 0761 000000   		.align	2
 978              	.LC72:
 979 0764 2F686F6D 		.ascii	"/home/hkh/git/eapidk-code-r76-trunk/apps/EeePProg/l"
 979      652F686B 
 979      682F6769 
 979      742F6561 
 979      7069646B 
 980 0797 696E7578 		.ascii	"inux/../EeePCfg.c\000"
 980      2F2E2E2F 
 980      45656550 
 980      4366672E 
 980      6300
 981 07a9 000000   		.align	2
 982              	.LC73:
 983 07ac 70456C65 		.ascii	"pElementDesc->Instances.stElementSize < sizeof(unsi"
 983      6D656E74 
 983      44657363 
 983      2D3E496E 
 983      7374616E 
 984 07df 676E6564 		.ascii	"gned long)\000"
 984      206C6F6E 
 984      672900
 985 07ea 0000     		.align	2
 986              	.LC74:
 987 07ec 25730A00 		.ascii	"%s\012\000"
 988              		.align	2
 989              	.LC75:
 990 07f0 434F4D30 		.ascii	"COM0PCIe_Element = Invalid Starting Lane, %s\012\000"
 990      50434965 
 990      5F456C65 
 990      6D656E74 
 990      203D2049 
 991 081e 0000     		.align	2
 992              	.LC76:
 993 0820 434F4D30 		.ascii	"COM0PCIe_Element = Unknown Token, %s\012\000"
 993      50434965 
 993      5F456C65 
 993      6D656E74 
 993      203D2055 
 994 0846 0000     		.align	2
 995              	.LC77:
 996 0848 434F4D30 		.ascii	"COM0PCIe_Element = Invalid Starting Lane/Width, %s/"
 996      50434965 
 996      5F456C65 
 996      6D656E74 
 996      203D2049 
 997 087b 25730A00 		.ascii	"%s\012\000"
 998              		.text
 999              		.align	2
 1000              		.global	COM0PCIe_Element
 1001              		.syntax unified
 1002              		.arm
 1003              		.fpu vfpv3
 1005              	COM0PCIe_Element:
 1006              	.LFB4:
 268:/home/hkh/git/eapidk-code-r76-trunk/apps/EeePProg/linux/../EeePCfg.c **** 
ARM GAS  /tmp/ccE14h5r.s 			page 28


 269:/home/hkh/git/eapidk-code-r76-trunk/apps/EeePProg/linux/../EeePCfg.c **** EApiStatus_t
 270:/home/hkh/git/eapidk-code-r76-trunk/apps/EeePProg/linux/../EeePCfg.c **** COM0PCIe_Element(
 271:/home/hkh/git/eapidk-code-r76-trunk/apps/EeePProg/linux/../EeePCfg.c ****     struct  CfgElementDesc_s *pElementDesc, 
 272:/home/hkh/git/eapidk-code-r76-trunk/apps/EeePProg/linux/../EeePCfg.c ****     void          *pCurElement,
 273:/home/hkh/git/eapidk-code-r76-trunk/apps/EeePProg/linux/../EeePCfg.c ****     char          *pszValue
 274:/home/hkh/git/eapidk-code-r76-trunk/apps/EeePProg/linux/../EeePCfg.c ****   )
 275:/home/hkh/git/eapidk-code-r76-trunk/apps/EeePProg/linux/../EeePCfg.c **** { 
 1007              		.loc 1 275 1
 1008              		.cfi_startproc
 1009              		@ args = 0, pretend = 0, frame = 48
 1010              		@ frame_needed = 1, uses_anonymous_args = 0
 1011 0544 00482DE9 		push	{fp, lr}
 1012              		.cfi_def_cfa_offset 8
 1013              		.cfi_offset 11, -8
 1014              		.cfi_offset 14, -4
 1015 0548 04B08DE2 		add	fp, sp, #4
 1016              		.cfi_def_cfa 11, 4
 1017 054c 40D04DE2 		sub	sp, sp, #64
 1018 0550 28000BE5 		str	r0, [fp, #-40]
 1019 0554 2C100BE5 		str	r1, [fp, #-44]
 1020 0558 30200BE5 		str	r2, [fp, #-48]
 1021              		.loc 1 275 1
 1022 055c 78229FE5 		ldr	r2, .L42
 1023              	.LPIC29:
 1024 0560 02208FE0 		add	r2, pc, r2
 1025 0564 74329FE5 		ldr	r3, .L42+4
 1026 0568 033092E7 		ldr	r3, [r2, r3]
 1027 056c 003093E5 		ldr	r3, [r3]
 1028 0570 08300BE5 		str	r3, [fp, #-8]
 1029 0574 0030A0E3 		mov	r3, #0
 276:/home/hkh/git/eapidk-code-r76-trunk/apps/EeePProg/linux/../EeePCfg.c ****   EApiStatus_t StatusCode=EAPI_STATUS_SUCCESS;
 1030              		.loc 1 276 16
 1031 0578 0030A0E3 		mov	r3, #0
 1032 057c 1C300BE5 		str	r3, [fp, #-28]
 277:/home/hkh/git/eapidk-code-r76-trunk/apps/EeePProg/linux/../EeePCfg.c ****   char *pszStartingLane, *pszWidth, *pszGen;
 278:/home/hkh/git/eapidk-code-r76-trunk/apps/EeePProg/linux/../EeePCfg.c ****   unsigned long uiStartingLane, uiWidth, uiGen;
 279:/home/hkh/git/eapidk-code-r76-trunk/apps/EeePProg/linux/../EeePCfg.c ****   pszStartingLane=pszValue;
 1033              		.loc 1 279 18
 1034 0580 30301BE5 		ldr	r3, [fp, #-48]
 1035 0584 18300BE5 		str	r3, [fp, #-24]
 280:/home/hkh/git/eapidk-code-r76-trunk/apps/EeePProg/linux/../EeePCfg.c ****   memset(pCurElement, 0x00, pElementDesc->Instances.stElementSize);
 1036              		.loc 1 280 3
 1037 0588 28301BE5 		ldr	r3, [fp, #-40]
 1038 058c 143093E5 		ldr	r3, [r3, #20]
 1039 0590 0320A0E1 		mov	r2, r3
 1040 0594 0010A0E3 		mov	r1, #0
 1041 0598 2C001BE5 		ldr	r0, [fp, #-44]
 1042 059c FEFFFFEB 		bl	memset(PLT)
 281:/home/hkh/git/eapidk-code-r76-trunk/apps/EeePProg/linux/../EeePCfg.c ****   EAPI_APP_ASSERT_PARAMATER_CHECK_S(
 1043              		.loc 1 281 3
 1044 05a0 28301BE5 		ldr	r3, [fp, #-40]
 1045 05a4 143093E5 		ldr	r3, [r3, #20]
 1046 05a8 030053E3 		cmp	r3, #3
 1047 05ac 1100008A 		bhi	.L31
 1048              		.loc 1 281 3 is_stmt 0 discriminator 1
 1049 05b0 2C329FE5 		ldr	r3, .L42+8
 1050              	.LPIC19:
ARM GAS  /tmp/ccE14h5r.s 			page 29


 1051 05b4 03308FE0 		add	r3, pc, r3
 1052 05b8 08308DE5 		str	r3, [sp, #8]
 1053 05bc 24329FE5 		ldr	r3, .L42+12
 1054              	.LPIC20:
 1055 05c0 03308FE0 		add	r3, pc, r3
 1056 05c4 04308DE5 		str	r3, [sp, #4]
 1057 05c8 013CE0E3 		mvn	r3, #256
 1058 05cc 00308DE5 		str	r3, [sp]
 1059 05d0 193100E3 		movw	r3, #281
 1060 05d4 10229FE5 		ldr	r2, .L42+16
 1061              	.LPIC21:
 1062 05d8 02208FE0 		add	r2, pc, r2
 1063 05dc 0C129FE5 		ldr	r1, .L42+20
 1064              	.LPIC22:
 1065 05e0 01108FE0 		add	r1, pc, r1
 1066 05e4 4500A0E3 		mov	r0, #69
 1067 05e8 FEFFFFEB 		bl	siFormattedMessage_SC(PLT)
 1068 05ec 013CE0E3 		mvn	r3, #256
 1069 05f0 1C300BE5 		str	r3, [fp, #-28]
 1070 05f4 6A0000EA 		b	.L34
 1071              	.L31:
 282:/home/hkh/git/eapidk-code-r76-trunk/apps/EeePProg/linux/../EeePCfg.c ****           COM0PCIe_Element,
 283:/home/hkh/git/eapidk-code-r76-trunk/apps/EeePProg/linux/../EeePCfg.c ****           EAPI_STATUS_INVALID_PARAMETER,
 284:/home/hkh/git/eapidk-code-r76-trunk/apps/EeePProg/linux/../EeePCfg.c ****           pElementDesc->Instances.stElementSize < sizeof(unsigned long)
 285:/home/hkh/git/eapidk-code-r76-trunk/apps/EeePProg/linux/../EeePCfg.c ****         );
 286:/home/hkh/git/eapidk-code-r76-trunk/apps/EeePProg/linux/../EeePCfg.c **** 
 287:/home/hkh/git/eapidk-code-r76-trunk/apps/EeePProg/linux/../EeePCfg.c ****   pszWidth=strchr(pszStartingLane, ',');
 1072              		.loc 1 287 12 is_stmt 1
 1073 05f8 2C10A0E3 		mov	r1, #44
 1074 05fc 18001BE5 		ldr	r0, [fp, #-24]
 1075 0600 FEFFFFEB 		bl	strchr(PLT)
 1076 0604 14000BE5 		str	r0, [fp, #-20]
 288:/home/hkh/git/eapidk-code-r76-trunk/apps/EeePProg/linux/../EeePCfg.c ****   if(pszWidth==NULL ){
 1077              		.loc 1 288 5
 1078 0608 14301BE5 		ldr	r3, [fp, #-20]
 1079 060c 000053E3 		cmp	r3, #0
 1080 0610 0200001A 		bne	.L33
 289:/home/hkh/git/eapidk-code-r76-trunk/apps/EeePProg/linux/../EeePCfg.c ****     StatusCode=EAPI_STATUS_ERROR;
 1081              		.loc 1 289 15
 1082 0614 0F3CE0E3 		mvn	r3, #3840
 1083 0618 1C300BE5 		str	r3, [fp, #-28]
 290:/home/hkh/git/eapidk-code-r76-trunk/apps/EeePProg/linux/../EeePCfg.c ****     goto ErrorExit;
 1084              		.loc 1 290 5
 1085 061c 600000EA 		b	.L34
 1086              	.L33:
 291:/home/hkh/git/eapidk-code-r76-trunk/apps/EeePProg/linux/../EeePCfg.c ****   }
 292:/home/hkh/git/eapidk-code-r76-trunk/apps/EeePProg/linux/../EeePCfg.c ****   *pszWidth++='\0';
 1087              		.loc 1 292 12
 1088 0620 14301BE5 		ldr	r3, [fp, #-20]
 1089 0624 012083E2 		add	r2, r3, #1
 1090 0628 14200BE5 		str	r2, [fp, #-20]
 1091              		.loc 1 292 14
 1092 062c 0020A0E3 		mov	r2, #0
 1093 0630 0020C3E5 		strb	r2, [r3]
 293:/home/hkh/git/eapidk-code-r76-trunk/apps/EeePProg/linux/../EeePCfg.c ****   
 294:/home/hkh/git/eapidk-code-r76-trunk/apps/EeePProg/linux/../EeePCfg.c ****   pszGen=strchr(pszWidth, ',');
 1094              		.loc 1 294 10
ARM GAS  /tmp/ccE14h5r.s 			page 30


 1095 0634 2C10A0E3 		mov	r1, #44
 1096 0638 14001BE5 		ldr	r0, [fp, #-20]
 1097 063c FEFFFFEB 		bl	strchr(PLT)
 1098 0640 10000BE5 		str	r0, [fp, #-16]
 295:/home/hkh/git/eapidk-code-r76-trunk/apps/EeePProg/linux/../EeePCfg.c ****   if(pszGen==NULL  ) {
 1099              		.loc 1 295 5
 1100 0644 10301BE5 		ldr	r3, [fp, #-16]
 1101 0648 000053E3 		cmp	r3, #0
 1102 064c 0200001A 		bne	.L35
 296:/home/hkh/git/eapidk-code-r76-trunk/apps/EeePProg/linux/../EeePCfg.c ****     StatusCode=EAPI_STATUS_ERROR;
 1103              		.loc 1 296 15
 1104 0650 0F3CE0E3 		mvn	r3, #3840
 1105 0654 1C300BE5 		str	r3, [fp, #-28]
 297:/home/hkh/git/eapidk-code-r76-trunk/apps/EeePProg/linux/../EeePCfg.c ****     goto ErrorExit;
 1106              		.loc 1 297 5
 1107 0658 510000EA 		b	.L34
 1108              	.L35:
 298:/home/hkh/git/eapidk-code-r76-trunk/apps/EeePProg/linux/../EeePCfg.c ****   }
 299:/home/hkh/git/eapidk-code-r76-trunk/apps/EeePProg/linux/../EeePCfg.c ****   *pszGen++='\0';
 1109              		.loc 1 299 10
 1110 065c 10301BE5 		ldr	r3, [fp, #-16]
 1111 0660 012083E2 		add	r2, r3, #1
 1112 0664 10200BE5 		str	r2, [fp, #-16]
 1113              		.loc 1 299 12
 1114 0668 0020A0E3 		mov	r2, #0
 1115 066c 0020C3E5 		strb	r2, [r3]
 300:/home/hkh/git/eapidk-code-r76-trunk/apps/EeePProg/linux/../EeePCfg.c **** 
 301:/home/hkh/git/eapidk-code-r76-trunk/apps/EeePProg/linux/../EeePCfg.c ****   uiStartingLane=ulConvertStr2NumEx(pszStartingLane, NULL                  );
 1116              		.loc 1 301 18
 1117 0670 0010A0E3 		mov	r1, #0
 1118 0674 18001BE5 		ldr	r0, [fp, #-24]
 1119 0678 FEFFFFEB 		bl	ulConvertStr2NumEx(PLT)
 1120 067c 0C000BE5 		str	r0, [fp, #-12]
 302:/home/hkh/git/eapidk-code-r76-trunk/apps/EeePProg/linux/../EeePCfg.c ****   if(uiStartingLane>31){
 1121              		.loc 1 302 5
 1122 0680 0C301BE5 		ldr	r3, [fp, #-12]
 1123 0684 1F0053E3 		cmp	r3, #31
 1124 0688 0700009A 		bls	.L36
 303:/home/hkh/git/eapidk-code-r76-trunk/apps/EeePProg/linux/../EeePCfg.c ****     printf("COM0PCIe_Element = Invalid Starting Lane, %s\n", pszStartingLane);
 1125              		.loc 1 303 5
 1126 068c 18101BE5 		ldr	r1, [fp, #-24]
 1127 0690 5C319FE5 		ldr	r3, .L42+24
 1128              	.LPIC23:
 1129 0694 03308FE0 		add	r3, pc, r3
 1130 0698 0300A0E1 		mov	r0, r3
 1131 069c FEFFFFEB 		bl	printf(PLT)
 304:/home/hkh/git/eapidk-code-r76-trunk/apps/EeePProg/linux/../EeePCfg.c ****     StatusCode=EAPI_STATUS_ERROR;
 1132              		.loc 1 304 15
 1133 06a0 0F3CE0E3 		mvn	r3, #3840
 1134 06a4 1C300BE5 		str	r3, [fp, #-28]
 305:/home/hkh/git/eapidk-code-r76-trunk/apps/EeePProg/linux/../EeePCfg.c ****     goto ErrorExit;
 1135              		.loc 1 305 5
 1136 06a8 3D0000EA 		b	.L34
 1137              	.L36:
 306:/home/hkh/git/eapidk-code-r76-trunk/apps/EeePProg/linux/../EeePCfg.c ****   }
 307:/home/hkh/git/eapidk-code-r76-trunk/apps/EeePProg/linux/../EeePCfg.c **** 
 308:/home/hkh/git/eapidk-code-r76-trunk/apps/EeePProg/linux/../EeePCfg.c ****   StatusCode=GetTokenValueStrip(
ARM GAS  /tmp/ccE14h5r.s 			page 31


 1138              		.loc 1 308 14
 1139 06ac 24304BE2 		sub	r3, fp, #36
 1140 06b0 0320A0E1 		mov	r2, r3
 1141 06b4 14101BE5 		ldr	r1, [fp, #-20]
 1142 06b8 38319FE5 		ldr	r3, .L42+28
 1143              	.LPIC24:
 1144 06bc 03308FE0 		add	r3, pc, r3
 1145 06c0 0300A0E1 		mov	r0, r3
 1146 06c4 FEFFFFEB 		bl	GetTokenValueStrip(PLT)
 1147 06c8 1C000BE5 		str	r0, [fp, #-28]
 309:/home/hkh/git/eapidk-code-r76-trunk/apps/EeePProg/linux/../EeePCfg.c ****       &PCIeLaneWidthsTL, 
 310:/home/hkh/git/eapidk-code-r76-trunk/apps/EeePProg/linux/../EeePCfg.c ****       pszWidth, 
 311:/home/hkh/git/eapidk-code-r76-trunk/apps/EeePProg/linux/../EeePCfg.c ****       &uiWidth
 312:/home/hkh/git/eapidk-code-r76-trunk/apps/EeePProg/linux/../EeePCfg.c ****     );
 313:/home/hkh/git/eapidk-code-r76-trunk/apps/EeePProg/linux/../EeePCfg.c ****   if(!EAPI_TEST_SUCCESS(StatusCode)){
 1148              		.loc 1 313 5
 1149 06cc 1C301BE5 		ldr	r3, [fp, #-28]
 1150 06d0 000053E3 		cmp	r3, #0
 1151 06d4 0500000A 		beq	.L37
 314:/home/hkh/git/eapidk-code-r76-trunk/apps/EeePProg/linux/../EeePCfg.c ****     printf("COM0PCIe_Element = Unknown Token, %s\n", pszWidth);
 1152              		.loc 1 314 5
 1153 06d8 14101BE5 		ldr	r1, [fp, #-20]
 1154 06dc 18319FE5 		ldr	r3, .L42+32
 1155              	.LPIC25:
 1156 06e0 03308FE0 		add	r3, pc, r3
 1157 06e4 0300A0E1 		mov	r0, r3
 1158 06e8 FEFFFFEB 		bl	printf(PLT)
 315:/home/hkh/git/eapidk-code-r76-trunk/apps/EeePProg/linux/../EeePCfg.c ****     goto ErrorExit;
 1159              		.loc 1 315 5
 1160 06ec 2C0000EA 		b	.L34
 1161              	.L37:
 316:/home/hkh/git/eapidk-code-r76-trunk/apps/EeePProg/linux/../EeePCfg.c ****   }
 317:/home/hkh/git/eapidk-code-r76-trunk/apps/EeePProg/linux/../EeePCfg.c **** 
 318:/home/hkh/git/eapidk-code-r76-trunk/apps/EeePProg/linux/../EeePCfg.c ****   StatusCode=GetTokenValueStrip(
 1162              		.loc 1 318 14
 1163 06f0 20304BE2 		sub	r3, fp, #32
 1164 06f4 0320A0E1 		mov	r2, r3
 1165 06f8 10101BE5 		ldr	r1, [fp, #-16]
 1166 06fc FC309FE5 		ldr	r3, .L42+36
 1167              	.LPIC26:
 1168 0700 03308FE0 		add	r3, pc, r3
 1169 0704 0300A0E1 		mov	r0, r3
 1170 0708 FEFFFFEB 		bl	GetTokenValueStrip(PLT)
 1171 070c 1C000BE5 		str	r0, [fp, #-28]
 319:/home/hkh/git/eapidk-code-r76-trunk/apps/EeePProg/linux/../EeePCfg.c ****       &PCIeGenerationTL, 
 320:/home/hkh/git/eapidk-code-r76-trunk/apps/EeePProg/linux/../EeePCfg.c ****       pszGen, 
 321:/home/hkh/git/eapidk-code-r76-trunk/apps/EeePProg/linux/../EeePCfg.c ****       &uiGen
 322:/home/hkh/git/eapidk-code-r76-trunk/apps/EeePProg/linux/../EeePCfg.c ****     );
 323:/home/hkh/git/eapidk-code-r76-trunk/apps/EeePProg/linux/../EeePCfg.c ****   if(!EAPI_TEST_SUCCESS(StatusCode)){
 1172              		.loc 1 323 5
 1173 0710 1C301BE5 		ldr	r3, [fp, #-28]
 1174 0714 000053E3 		cmp	r3, #0
 1175 0718 0500000A 		beq	.L38
 324:/home/hkh/git/eapidk-code-r76-trunk/apps/EeePProg/linux/../EeePCfg.c ****     printf("COM0PCIe_Element = Unknown Token, %s\n", pszGen);
 1176              		.loc 1 324 5
 1177 071c 10101BE5 		ldr	r1, [fp, #-16]
 1178 0720 DC309FE5 		ldr	r3, .L42+40
ARM GAS  /tmp/ccE14h5r.s 			page 32


 1179              	.LPIC27:
 1180 0724 03308FE0 		add	r3, pc, r3
 1181 0728 0300A0E1 		mov	r0, r3
 1182 072c FEFFFFEB 		bl	printf(PLT)
 325:/home/hkh/git/eapidk-code-r76-trunk/apps/EeePProg/linux/../EeePCfg.c ****     goto ErrorExit;
 1183              		.loc 1 325 5
 1184 0730 1B0000EA 		b	.L34
 1185              	.L38:
 326:/home/hkh/git/eapidk-code-r76-trunk/apps/EeePProg/linux/../EeePCfg.c ****   }
 327:/home/hkh/git/eapidk-code-r76-trunk/apps/EeePProg/linux/../EeePCfg.c ****   if(uiStartingLane&((1<<(uiWidth - 1))-1)){
 1186              		.loc 1 327 35
 1187 0734 24301BE5 		ldr	r3, [fp, #-36]
 1188 0738 013043E2 		sub	r3, r3, #1
 1189              		.loc 1 327 24
 1190 073c 0120A0E3 		mov	r2, #1
 1191 0740 1233A0E1 		lsl	r3, r2, r3
 1192              		.loc 1 327 40
 1193 0744 013043E2 		sub	r3, r3, #1
 1194 0748 0320A0E1 		mov	r2, r3
 1195              		.loc 1 327 20
 1196 074c 0C301BE5 		ldr	r3, [fp, #-12]
 1197 0750 023003E0 		and	r3, r3, r2
 1198              		.loc 1 327 5
 1199 0754 000053E3 		cmp	r3, #0
 1200 0758 0800000A 		beq	.L39
 328:/home/hkh/git/eapidk-code-r76-trunk/apps/EeePProg/linux/../EeePCfg.c ****     printf("COM0PCIe_Element = Invalid Starting Lane/Width, %s/%s\n", pszStartingLane, pszWidth);
 1201              		.loc 1 328 5
 1202 075c 14201BE5 		ldr	r2, [fp, #-20]
 1203 0760 18101BE5 		ldr	r1, [fp, #-24]
 1204 0764 9C309FE5 		ldr	r3, .L42+44
 1205              	.LPIC28:
 1206 0768 03308FE0 		add	r3, pc, r3
 1207 076c 0300A0E1 		mov	r0, r3
 1208 0770 FEFFFFEB 		bl	printf(PLT)
 329:/home/hkh/git/eapidk-code-r76-trunk/apps/EeePProg/linux/../EeePCfg.c ****     StatusCode=EAPI_STATUS_ERROR;
 1209              		.loc 1 329 15
 1210 0774 0F3CE0E3 		mvn	r3, #3840
 1211 0778 1C300BE5 		str	r3, [fp, #-28]
 330:/home/hkh/git/eapidk-code-r76-trunk/apps/EeePProg/linux/../EeePCfg.c ****     goto ErrorExit;
 1212              		.loc 1 330 5
 1213 077c 080000EA 		b	.L34
 1214              	.L39:
 331:/home/hkh/git/eapidk-code-r76-trunk/apps/EeePProg/linux/../EeePCfg.c ****   }
 332:/home/hkh/git/eapidk-code-r76-trunk/apps/EeePProg/linux/../EeePCfg.c ****   *(unsigned long*)pCurElement=(uiStartingLane<<16)|(uiWidth<<8)|(uiGen);
 1215              		.loc 1 332 47
 1216 0780 0C301BE5 		ldr	r3, [fp, #-12]
 1217 0784 0328A0E1 		lsl	r2, r3, #16
 1218              		.loc 1 332 61
 1219 0788 24301BE5 		ldr	r3, [fp, #-36]
 1220 078c 0334A0E1 		lsl	r3, r3, #8
 1221              		.loc 1 332 52
 1222 0790 032082E1 		orr	r2, r2, r3
 1223              		.loc 1 332 65
 1224 0794 20301BE5 		ldr	r3, [fp, #-32]
 1225 0798 032082E1 		orr	r2, r2, r3
 1226              		.loc 1 332 31
 1227 079c 2C301BE5 		ldr	r3, [fp, #-44]
ARM GAS  /tmp/ccE14h5r.s 			page 33


 1228 07a0 002083E5 		str	r2, [r3]
 1229              	.L32:
 1230              	.L34:
 333:/home/hkh/git/eapidk-code-r76-trunk/apps/EeePProg/linux/../EeePCfg.c **** #if TEST_EEPCFG
 334:/home/hkh/git/eapidk-code-r76-trunk/apps/EeePProg/linux/../EeePCfg.c **** /*   printf("COM0PCIe_Element = 0x%06lX, %s\n", *pCurElement, pszValue); */
 335:/home/hkh/git/eapidk-code-r76-trunk/apps/EeePProg/linux/../EeePCfg.c **** #endif
 336:/home/hkh/git/eapidk-code-r76-trunk/apps/EeePProg/linux/../EeePCfg.c **** EAPI_APP_ASSERT_EXIT
 337:/home/hkh/git/eapidk-code-r76-trunk/apps/EeePProg/linux/../EeePCfg.c **** ErrorExit:
 338:/home/hkh/git/eapidk-code-r76-trunk/apps/EeePProg/linux/../EeePCfg.c ****   return StatusCode;
 1231              		.loc 1 338 10
 1232 07a4 1C301BE5 		ldr	r3, [fp, #-28]
 275:/home/hkh/git/eapidk-code-r76-trunk/apps/EeePProg/linux/../EeePCfg.c ****   EApiStatus_t StatusCode=EAPI_STATUS_SUCCESS;
 1233              		.loc 1 275 1
 1234 07a8 5C109FE5 		ldr	r1, .L42+48
 1235              	.LPIC30:
 1236 07ac 01108FE0 		add	r1, pc, r1
 339:/home/hkh/git/eapidk-code-r76-trunk/apps/EeePProg/linux/../EeePCfg.c **** }
 1237              		.loc 1 339 1
 1238 07b0 28209FE5 		ldr	r2, .L42+4
 1239 07b4 022091E7 		ldr	r2, [r1, r2]
 1240 07b8 001092E5 		ldr	r1, [r2]
 1241 07bc 08201BE5 		ldr	r2, [fp, #-8]
 1242 07c0 011032E0 		eors	r1, r2, r1
 1243 07c4 0020A0E3 		mov	r2, #0
 1244 07c8 0000000A 		beq	.L41
 1245 07cc FEFFFFEB 		bl	__stack_chk_fail(PLT)
 1246              	.L41:
 1247 07d0 0300A0E1 		mov	r0, r3
 1248 07d4 04D04BE2 		sub	sp, fp, #4
 1249              		.cfi_def_cfa 13, 8
 1250              		@ sp needed
 1251 07d8 0088BDE8 		pop	{fp, pc}
 1252              	.L43:
 1253              		.align	2
 1254              	.L42:
 1255 07dc 74020000 		.word	_GLOBAL_OFFSET_TABLE_-(.LPIC29+8)
 1256 07e0 00000000 		.word	__stack_chk_guard(GOT)
 1257 07e4 D4090000 		.word	.LC73-(.LPIC19+8)
 1258 07e8 0C0A0000 		.word	.LC74-(.LPIC20+8)
 1259 07ec 5C090000 		.word	.LC71-(.LPIC21+8)
 1260 07f0 6C090000 		.word	.LC72-(.LPIC22+8)
 1261 07f4 48090000 		.word	.LC75-(.LPIC23+8)
 1262 07f8 34010000 		.word	PCIeLaneWidthsTL-(.LPIC24+8)
 1263 07fc 34090000 		.word	.LC76-(.LPIC25+8)
 1264 0800 F8000000 		.word	PCIeGenerationTL-(.LPIC26+8)
 1265 0804 F8080000 		.word	.LC76-(.LPIC27+8)
 1266 0808 E0080000 		.word	.LC77-(.LPIC28+8)
 1267 080c 58000000 		.word	_GLOBAL_OFFSET_TABLE_-(.LPIC30+8)
 1268              		.cfi_endproc
 1269              	.LFE4:
 1271              		.global	SasTokens
 1272              		.section	.rodata
 1273 087f 00       		.align	2
 1274              	.LC78:
 1275 0880 4E6F7449 		.ascii	"NotImplemented\000"
 1275      6D706C65 
 1275      6D656E74 
ARM GAS  /tmp/ccE14h5r.s 			page 34


 1275      656400
 1276 088f 00       		.align	2
 1277              	.LC79:
 1278 0890 53415300 		.ascii	"SAS\000"
 1279              		.align	2
 1280              	.LC80:
 1281 0894 53415441 		.ascii	"SATA\000"
 1281      00
 1282              		.section	.data.rel.local
 1283              		.align	2
 1286              	SasTokens:
 1287 0218 80080000 		.word	.LC78
 1288 021c 00000000 		.word	0
 1289 0220 90080000 		.word	.LC79
 1290 0224 03000000 		.word	3
 1291 0228 94080000 		.word	.LC80
 1292 022c 01000000 		.word	1
 1293              		.global	SasTL
 1294              		.align	2
 1297              	SasTL:
 1298 0230 03000000 		.word	3
 1299 0234 00000000 		.word	SasTokens
 1300              		.global	ImpNotImpTokens
 1301              		.section	.rodata
 1302 0899 000000   		.align	2
 1303              	.LC81:
 1304 089c 496D706C 		.ascii	"Implemented\000"
 1304      656D656E 
 1304      74656400 
 1305              		.section	.data.rel.local
 1306              		.align	2
 1309              	ImpNotImpTokens:
 1310 0238 80080000 		.word	.LC78
 1311 023c 00000000 		.word	0
 1312 0240 9C080000 		.word	.LC81
 1313 0244 01000000 		.word	1
 1314              		.global	ImpNotImpTL
 1315              		.align	2
 1318              	ImpNotImpTL:
 1319 0248 02000000 		.word	2
 1320 024c 00000000 		.word	ImpNotImpTokens
 1321              		.global	DDI1Tokens
 1322              		.section	.rodata
 1323              		.align	2
 1324              	.LC82:
 1325 08a8 65446973 		.ascii	"eDisplayPort\000"
 1325      706C6179 
 1325      506F7274 
 1325      00
 1326 08b5 000000   		.align	2
 1327              	.LC83:
 1328 08b8 44697370 		.ascii	"DisplayPort\000"
 1328      6C617950 
 1328      6F727400 
 1329              		.align	2
 1330              	.LC84:
 1331 08c4 48444D49 		.ascii	"HDMI/DVI\000"
ARM GAS  /tmp/ccE14h5r.s 			page 35


 1331      2F445649 
 1331      00
 1332 08cd 000000   		.align	2
 1333              	.LC85:
 1334 08d0 5344564F 		.ascii	"SDVO\000"
 1334      00
 1335              		.section	.data.rel.local
 1336              		.align	2
 1339              	DDI1Tokens:
 1340 0250 80080000 		.word	.LC78
 1341 0254 00000000 		.word	0
 1342 0258 A8080000 		.word	.LC82
 1343 025c 01000000 		.word	1
 1344 0260 B8080000 		.word	.LC83
 1345 0264 02000000 		.word	2
 1346 0268 C4080000 		.word	.LC84
 1347 026c 03000000 		.word	3
 1348 0270 D0080000 		.word	.LC85
 1349 0274 04000000 		.word	4
 1350              		.global	DDI1TL
 1351              		.align	2
 1354              	DDI1TL:
 1355 0278 05000000 		.word	5
 1356 027c 00000000 		.word	DDI1Tokens
 1357              		.global	DDI2Tokens
 1358              		.align	2
 1361              	DDI2Tokens:
 1362 0280 80080000 		.word	.LC78
 1363 0284 00000000 		.word	0
 1364 0288 A8080000 		.word	.LC82
 1365 028c 01000000 		.word	1
 1366 0290 B8080000 		.word	.LC83
 1367 0294 02000000 		.word	2
 1368 0298 C4080000 		.word	.LC84
 1369 029c 03000000 		.word	3
 1370              		.global	DDI2TL
 1371              		.align	2
 1374              	DDI2TL:
 1375 02a0 04000000 		.word	4
 1376 02a4 00000000 		.word	DDI2Tokens
 1377              		.global	DisplayInterfaceTokens
 1378              		.section	.rodata
 1379 08d5 000000   		.align	2
 1380              	.LC86:
 1381 08d8 4C564453 		.ascii	"LVDS\000"
 1381      00
 1382 08dd 000000   		.align	2
 1383              	.LC87:
 1384 08e0 5344564F 		.ascii	"SDVOB\000"
 1384      4200
 1385 08e6 0000     		.align	2
 1386              	.LC88:
 1387 08e8 5344564F 		.ascii	"SDVOC\000"
 1387      4300
 1388 08ee 0000     		.align	2
 1389              	.LC89:
 1390 08f0 44444931 		.ascii	"DDI1\000"
ARM GAS  /tmp/ccE14h5r.s 			page 36


 1390      00
 1391 08f5 000000   		.align	2
 1392              	.LC90:
 1393 08f8 44444932 		.ascii	"DDI2\000"
 1393      00
 1394 08fd 000000   		.align	2
 1395              	.LC91:
 1396 0900 44444933 		.ascii	"DDI3\000"
 1396      00
 1397              		.section	.data.rel.local
 1398              		.align	2
 1401              	DisplayInterfaceTokens:
 1402 02a8 D8080000 		.word	.LC86
 1403 02ac 02000000 		.word	2
 1404 02b0 E0080000 		.word	.LC87
 1405 02b4 03000000 		.word	3
 1406 02b8 E8080000 		.word	.LC88
 1407 02bc 04000000 		.word	4
 1408 02c0 F0080000 		.word	.LC89
 1409 02c4 05000000 		.word	5
 1410 02c8 F8080000 		.word	.LC90
 1411 02cc 06000000 		.word	6
 1412 02d0 00090000 		.word	.LC91
 1413 02d4 07000000 		.word	7
 1414              		.global	DisplayInterfaceTL
 1415              		.align	2
 1418              	DisplayInterfaceTL:
 1419 02d8 06000000 		.word	6
 1420 02dc 00000000 		.word	DisplayInterfaceTokens
 1421              		.global	I2CBusTokens
 1422              		.section	.rodata
 1423 0905 000000   		.align	2
 1424              	.LC92:
 1425 0908 49324300 		.ascii	"I2C\000"
 1426              		.align	2
 1427              	.LC93:
 1428 090c 534D4200 		.ascii	"SMB\000"
 1429              		.align	2
 1430              	.LC94:
 1431 0910 43525400 		.ascii	"CRT\000"
 1432              		.section	.data.rel.local
 1433              		.align	2
 1436              	I2CBusTokens:
 1437 02e0 08090000 		.word	.LC92
 1438 02e4 00000000 		.word	0
 1439 02e8 0C090000 		.word	.LC93
 1440 02ec 01000000 		.word	1
 1441 02f0 D8080000 		.word	.LC86
 1442 02f4 02000000 		.word	2
 1443 02f8 F0080000 		.word	.LC89
 1444 02fc 03000000 		.word	3
 1445 0300 F8080000 		.word	.LC90
 1446 0304 04000000 		.word	4
 1447 0308 00090000 		.word	.LC91
 1448 030c 05000000 		.word	5
 1449 0310 E0080000 		.word	.LC87
 1450 0314 06000000 		.word	6
ARM GAS  /tmp/ccE14h5r.s 			page 37


 1451 0318 E8080000 		.word	.LC88
 1452 031c 07000000 		.word	7
 1453 0320 10090000 		.word	.LC94
 1454 0324 08000000 		.word	8
 1455              		.global	I2CBusTL
 1456              		.align	2
 1459              	I2CBusTL:
 1460 0328 09000000 		.word	9
 1461 032c 00000000 		.word	I2CBusTokens
 1462              		.global	StandardExtendedTokens
 1463              		.section	.rodata
 1464              		.align	2
 1465              	.LC95:
 1466 0914 45787465 		.ascii	"Extended\000"
 1466      6E646564 
 1466      00
 1467 091d 000000   		.align	2
 1468              	.LC96:
 1469 0920 5374616E 		.ascii	"Standard\000"
 1469      64617264 
 1469      00
 1470              		.section	.data.rel.local
 1471              		.align	2
 1474              	StandardExtendedTokens:
 1475 0330 14090000 		.word	.LC95
 1476 0334 01000000 		.word	1
 1477 0338 20090000 		.word	.LC96
 1478 033c 00000000 		.word	0
 1479              		.global	StandardExtendedTL
 1480              		.align	2
 1483              	StandardExtendedTL:
 1484 0340 02000000 		.word	2
 1485 0344 00000000 		.word	StandardExtendedTokens
 1486              		.global	SmbiosModuleFeatureFlagsTokens
 1487              		.section	.rodata
 1488 0929 000000   		.align	2
 1489              	.LC97:
 1490 092c 49535F4D 		.ascii	"IS_Motherboard\000"
 1490      6F746865 
 1490      72626F61 
 1490      726400
 1491 093b 00       		.align	2
 1492              	.LC98:
 1493 093c 52455155 		.ascii	"REQUIRES_DAUGHTER\000"
 1493      49524553 
 1493      5F444155 
 1493      47485445 
 1493      5200
 1494 094e 0000     		.align	2
 1495              	.LC99:
 1496 0950 52454D4F 		.ascii	"REMOVABLE\000"
 1496      5641424C 
 1496      4500
 1497 095a 0000     		.align	2
 1498              	.LC100:
 1499 095c 5245504C 		.ascii	"REPLACEABLE\000"
 1499      41434541 
ARM GAS  /tmp/ccE14h5r.s 			page 38


 1499      424C4500 
 1500              		.align	2
 1501              	.LC101:
 1502 0968 484F545F 		.ascii	"HOT_SWAP_CAPABLE\000"
 1502      53574150 
 1502      5F434150 
 1502      41424C45 
 1502      00
 1503              		.section	.data.rel.local
 1504              		.align	2
 1507              	SmbiosModuleFeatureFlagsTokens:
 1508 0348 2C090000 		.word	.LC97
 1509 034c 01000000 		.word	1
 1510 0350 3C090000 		.word	.LC98
 1511 0354 02000000 		.word	2
 1512 0358 50090000 		.word	.LC99
 1513 035c 04000000 		.word	4
 1514 0360 5C090000 		.word	.LC100
 1515 0364 08000000 		.word	8
 1516 0368 68090000 		.word	.LC101
 1517 036c 10000000 		.word	16
 1518              		.global	SmbiSmbiosModuleFeatureFlagsTL
 1519              		.align	2
 1522              	SmbiSmbiosModuleFeatureFlagsTL:
 1523 0370 05000000 		.word	5
 1524 0374 00000000 		.word	SmbiosModuleFeatureFlagsTokens
 1525              		.global	SmbiosChassisTypesTokens
 1526              		.section	.rodata
 1527 0979 000000   		.align	2
 1528              	.LC102:
 1529 097c 4465736B 		.ascii	"Desktop\000"
 1529      746F7000 
 1530              		.align	2
 1531              	.LC103:
 1532 0984 4C6F775F 		.ascii	"Low_Profile_Desktop\000"
 1532      50726F66 
 1532      696C655F 
 1532      4465736B 
 1532      746F7000 
 1533              		.align	2
 1534              	.LC104:
 1535 0998 50697A7A 		.ascii	"Pizza_Box\000"
 1535      615F426F 
 1535      7800
 1536 09a2 0000     		.align	2
 1537              	.LC105:
 1538 09a4 4D696E69 		.ascii	"Mini_Tower\000"
 1538      5F546F77 
 1538      657200
 1539 09af 00       		.align	2
 1540              	.LC106:
 1541 09b0 546F7765 		.ascii	"Tower\000"
 1541      7200
 1542 09b6 0000     		.align	2
 1543              	.LC107:
 1544 09b8 506F7274 		.ascii	"Portable\000"
 1544      61626C65 
ARM GAS  /tmp/ccE14h5r.s 			page 39


 1544      00
 1545 09c1 000000   		.align	2
 1546              	.LC108:
 1547 09c4 4C617074 		.ascii	"Laptop\000"
 1547      6F7000
 1548 09cb 00       		.align	2
 1549              	.LC109:
 1550 09cc 4E6F7465 		.ascii	"Notebook\000"
 1550      626F6F6B 
 1550      00
 1551 09d5 000000   		.align	2
 1552              	.LC110:
 1553 09d8 48616E64 		.ascii	"Hand_Held\000"
 1553      5F48656C 
 1553      6400
 1554 09e2 0000     		.align	2
 1555              	.LC111:
 1556 09e4 446F636B 		.ascii	"Docking_Station\000"
 1556      696E675F 
 1556      53746174 
 1556      696F6E00 
 1557              		.align	2
 1558              	.LC112:
 1559 09f4 416C6C5F 		.ascii	"All_In_One\000"
 1559      496E5F4F 
 1559      6E6500
 1560 09ff 00       		.align	2
 1561              	.LC113:
 1562 0a00 5375625F 		.ascii	"Sub_Notebook\000"
 1562      4E6F7465 
 1562      626F6F6B 
 1562      00
 1563 0a0d 000000   		.align	2
 1564              	.LC114:
 1565 0a10 53706163 		.ascii	"Space_saving_Lunch_Box\000"
 1565      655F7361 
 1565      76696E67 
 1565      5F4C756E 
 1565      63685F42 
 1566 0a27 00       		.align	2
 1567              	.LC115:
 1568 0a28 4D61696E 		.ascii	"Main_Server_Chassis\000"
 1568      5F536572 
 1568      7665725F 
 1568      43686173 
 1568      73697300 
 1569              		.align	2
 1570              	.LC116:
 1571 0a3c 45787061 		.ascii	"Expansion_Chassis\000"
 1571      6E73696F 
 1571      6E5F4368 
 1571      61737369 
 1571      7300
 1572 0a4e 0000     		.align	2
 1573              	.LC117:
 1574 0a50 53756243 		.ascii	"SubChassis\000"
 1574      68617373 
ARM GAS  /tmp/ccE14h5r.s 			page 40


 1574      697300
 1575 0a5b 00       		.align	2
 1576              	.LC118:
 1577 0a5c 4275735F 		.ascii	"Bus_Expansion_Chassis\000"
 1577      45787061 
 1577      6E73696F 
 1577      6E5F4368 
 1577      61737369 
 1578 0a72 0000     		.align	2
 1579              	.LC119:
 1580 0a74 50657269 		.ascii	"Peripheral_Chassis\000"
 1580      70686572 
 1580      616C5F43 
 1580      68617373 
 1580      697300
 1581 0a87 00       		.align	2
 1582              	.LC120:
 1583 0a88 52414944 		.ascii	"RAID_Chassis\000"
 1583      5F436861 
 1583      73736973 
 1583      00
 1584 0a95 000000   		.align	2
 1585              	.LC121:
 1586 0a98 5261636B 		.ascii	"Rack_Mount_Chassis\000"
 1586      5F4D6F75 
 1586      6E745F43 
 1586      68617373 
 1586      697300
 1587 0aab 00       		.align	2
 1588              	.LC122:
 1589 0aac 5365616C 		.ascii	"Sealed_case_PC\000"
 1589      65645F63 
 1589      6173655F 
 1589      504300
 1590 0abb 00       		.align	2
 1591              	.LC123:
 1592 0abc 4D756C74 		.ascii	"Multi_system_chassis\000"
 1592      695F7379 
 1592      7374656D 
 1592      5F636861 
 1592      73736973 
 1593              		.section	.data.rel.local
 1594              		.align	2
 1597              	SmbiosChassisTypesTokens:
 1598 0378 00040000 		.word	.LC43
 1599 037c 01000000 		.word	1
 1600 0380 F8030000 		.word	.LC42
 1601 0384 02000000 		.word	2
 1602 0388 7C090000 		.word	.LC102
 1603 038c 03000000 		.word	3
 1604 0390 84090000 		.word	.LC103
 1605 0394 04000000 		.word	4
 1606 0398 98090000 		.word	.LC104
 1607 039c 05000000 		.word	5
 1608 03a0 A4090000 		.word	.LC105
 1609 03a4 06000000 		.word	6
 1610 03a8 B0090000 		.word	.LC106
ARM GAS  /tmp/ccE14h5r.s 			page 41


 1611 03ac 07000000 		.word	7
 1612 03b0 B8090000 		.word	.LC107
 1613 03b4 08000000 		.word	8
 1614 03b8 C4090000 		.word	.LC108
 1615 03bc 09000000 		.word	9
 1616 03c0 CC090000 		.word	.LC109
 1617 03c4 0A000000 		.word	10
 1618 03c8 D8090000 		.word	.LC110
 1619 03cc 0B000000 		.word	11
 1620 03d0 E4090000 		.word	.LC111
 1621 03d4 0C000000 		.word	12
 1622 03d8 F4090000 		.word	.LC112
 1623 03dc 0D000000 		.word	13
 1624 03e0 000A0000 		.word	.LC113
 1625 03e4 0E000000 		.word	14
 1626 03e8 100A0000 		.word	.LC114
 1627 03ec 0F000000 		.word	15
 1628 03f0 280A0000 		.word	.LC115
 1629 03f4 11000000 		.word	17
 1630 03f8 3C0A0000 		.word	.LC116
 1631 03fc 12000000 		.word	18
 1632 0400 500A0000 		.word	.LC117
 1633 0404 13000000 		.word	19
 1634 0408 5C0A0000 		.word	.LC118
 1635 040c 14000000 		.word	20
 1636 0410 740A0000 		.word	.LC119
 1637 0414 15000000 		.word	21
 1638 0418 880A0000 		.word	.LC120
 1639 041c 16000000 		.word	22
 1640 0420 980A0000 		.word	.LC121
 1641 0424 17000000 		.word	23
 1642 0428 AC0A0000 		.word	.LC122
 1643 042c 18000000 		.word	24
 1644 0430 BC0A0000 		.word	.LC123
 1645 0434 19000000 		.word	25
 1646              		.global	SmbiosChassisTypesTL
 1647              		.align	2
 1650              	SmbiosChassisTypesTL:
 1651 0438 18000000 		.word	24
 1652 043c 00000000 		.word	SmbiosChassisTypesTokens
 1653              		.global	ValidHandles
 1654              		.data
 1655              		.align	2
 1658              	ValidHandles:
 1659 0000 00E00000 		.word	57344
 1660 0004 FFFF0000 		.word	65535
 1661 0008 01000000 		.word	1
 1662              		.global	ValidHandlesDesc
 1663              		.section	.data.rel.local
 1664              		.align	2
 1667              	ValidHandlesDesc:
 1668 0440 01000000 		.word	1
 1669 0444 00000000 		.word	ValidHandles
 1670              		.global	IRQTokens
 1671              		.section	.rodata
 1672 0ad1 000000   		.align	2
 1673              	.LC124:
ARM GAS  /tmp/ccE14h5r.s 			page 42


 1674 0ad4 4175746F 		.ascii	"Auto\000"
 1674      00
 1675 0ad9 000000   		.align	2
 1676              	.LC125:
 1677 0adc 4E6F5F49 		.ascii	"No_IRQ\000"
 1677      525100
 1678 0ae3 00       		.align	2
 1679              	.LC126:
 1680 0ae4 49525133 		.ascii	"IRQ3\000"
 1680      00
 1681 0ae9 000000   		.align	2
 1682              	.LC127:
 1683 0aec 49525134 		.ascii	"IRQ4\000"
 1683      00
 1684 0af1 000000   		.align	2
 1685              	.LC128:
 1686 0af4 49525135 		.ascii	"IRQ5\000"
 1686      00
 1687 0af9 000000   		.align	2
 1688              	.LC129:
 1689 0afc 49525136 		.ascii	"IRQ6\000"
 1689      00
 1690 0b01 000000   		.align	2
 1691              	.LC130:
 1692 0b04 49525137 		.ascii	"IRQ7\000"
 1692      00
 1693 0b09 000000   		.align	2
 1694              	.LC131:
 1695 0b0c 49525138 		.ascii	"IRQ8\000"
 1695      00
 1696 0b11 000000   		.align	2
 1697              	.LC132:
 1698 0b14 49525139 		.ascii	"IRQ9\000"
 1698      00
 1699 0b19 000000   		.align	2
 1700              	.LC133:
 1701 0b1c 49525131 		.ascii	"IRQ10\000"
 1701      3000
 1702 0b22 0000     		.align	2
 1703              	.LC134:
 1704 0b24 49525131 		.ascii	"IRQ11\000"
 1704      3100
 1705 0b2a 0000     		.align	2
 1706              	.LC135:
 1707 0b2c 49525131 		.ascii	"IRQ12\000"
 1707      3200
 1708 0b32 0000     		.align	2
 1709              	.LC136:
 1710 0b34 49525131 		.ascii	"IRQ13\000"
 1710      3300
 1711 0b3a 0000     		.align	2
 1712              	.LC137:
 1713 0b3c 49525131 		.ascii	"IRQ14\000"
 1713      3400
 1714 0b42 0000     		.align	2
 1715              	.LC138:
 1716 0b44 49525131 		.ascii	"IRQ15\000"
ARM GAS  /tmp/ccE14h5r.s 			page 43


 1716      3500
 1717              		.section	.data.rel.local
 1718              		.align	2
 1721              	IRQTokens:
 1722 0448 D40A0000 		.word	.LC124
 1723 044c 00000000 		.word	0
 1724 0450 DC0A0000 		.word	.LC125
 1725 0454 01000000 		.word	1
 1726 0458 E40A0000 		.word	.LC126
 1727 045c 03000000 		.word	3
 1728 0460 EC0A0000 		.word	.LC127
 1729 0464 04000000 		.word	4
 1730 0468 F40A0000 		.word	.LC128
 1731 046c 05000000 		.word	5
 1732 0470 FC0A0000 		.word	.LC129
 1733 0474 06000000 		.word	6
 1734 0478 040B0000 		.word	.LC130
 1735 047c 07000000 		.word	7
 1736 0480 0C0B0000 		.word	.LC131
 1737 0484 08000000 		.word	8
 1738 0488 140B0000 		.word	.LC132
 1739 048c 09000000 		.word	9
 1740 0490 1C0B0000 		.word	.LC133
 1741 0494 0A000000 		.word	10
 1742 0498 240B0000 		.word	.LC134
 1743 049c 0B000000 		.word	11
 1744 04a0 2C0B0000 		.word	.LC135
 1745 04a4 0C000000 		.word	12
 1746 04a8 340B0000 		.word	.LC136
 1747 04ac 0D000000 		.word	13
 1748 04b0 3C0B0000 		.word	.LC137
 1749 04b4 0E000000 		.word	14
 1750 04b8 440B0000 		.word	.LC138
 1751 04bc 0F000000 		.word	15
 1752              		.global	IRQTL
 1753              		.align	2
 1756              	IRQTL:
 1757 04c0 0F000000 		.word	15
 1758 04c4 00000000 		.word	IRQTokens
 1759              		.global	COM0_SMBIOS_Module
 1760              		.data
 1761              		.align	2
 1764              	COM0_SMBIOS_Module:
 1765 000c 00E0     		.short	-8192
 1766 000e 0000     		.space	2
 1767 0010 00000000 		.word	0
 1768 0014 00000000 		.word	0
 1769 0018 00000000 		.word	0
 1770 001c 00000000 		.word	0
 1771 0020 00000000 		.word	0
 1772 0024 0000     		.ascii	"\000\000"
 1773 0026 000000   		.space	3
 1774 0029 000000   		.space	3
 1775 002c 00000000 		.word	0
 1776 0030 0000     		.short	0
 1777 0032 00       		.ascii	"\000"
 1778 0033 00       		.space	1
ARM GAS  /tmp/ccE14h5r.s 			page 44


 1779 0034 00000000 		.word	0
 1780 0038 00000000 		.word	0
 1781 003c 00       		.ascii	"\000"
 1782 003d 00       		.space	1
 1783 003e 0000     		.short	0
 1784 0040 00000000 		.space	38
 1784      00000000 
 1784      00000000 
 1784      00000000 
 1784      00000000 
 1785 0066 0000     		.space	2
 1786              		.global	COM0_SMBIOS_Carrier
 1787              		.align	2
 1790              	COM0_SMBIOS_Carrier:
 1791 0068 01E0     		.short	-8191
 1792 006a 0000     		.space	2
 1793 006c 00000000 		.word	0
 1794 0070 00000000 		.word	0
 1795 0074 00000000 		.word	0
 1796 0078 00000000 		.word	0
 1797 007c 00000000 		.word	0
 1798 0080 0000     		.ascii	"\000\000"
 1799 0082 000000   		.space	3
 1800 0085 000000   		.space	3
 1801 0088 00000000 		.word	0
 1802 008c 0000     		.short	0
 1803 008e 00       		.ascii	"\000"
 1804 008f 00       		.space	1
 1805 0090 00000000 		.word	0
 1806 0094 00000000 		.word	0
 1807 0098 00       		.ascii	"\000"
 1808 0099 00       		.space	1
 1809 009a 0000     		.short	0
 1810 009c 00000000 		.space	38
 1810      00000000 
 1810      00000000 
 1810      00000000 
 1810      00000000 
 1811 00c2 0000     		.space	2
 1812              		.global	COM0_SMBIOS_System
 1813              		.align	2
 1816              	COM0_SMBIOS_System:
 1817 00c4 02E0     		.short	-8190
 1818 00c6 0000     		.space	2
 1819 00c8 00000000 		.word	0
 1820 00cc 00000000 		.word	0
 1821 00d0 00000000 		.word	0
 1822 00d4 00000000 		.word	0
 1823 00d8 00       		.byte	0
 1824 00d9 000000   		.space	3
 1825 00dc 00       		.byte	0
 1826 00dd 00       		.space	1
 1827 00de 0000     		.space	2
 1828 00e0 0000     		.ascii	"\000\000"
 1829 00e2 00000000 		.space	6
 1829      0000
 1830 00e8 00000000 		.word	0
ARM GAS  /tmp/ccE14h5r.s 			page 45


 1831 00ec 00000000 		.word	0
 1832 00f0 00000000 		.word	0
 1833 00f4 00       		.ascii	"\000"
 1834 00f5 000000   		.space	3
 1835 00f8 00000000 		.word	0
 1836              		.global	COM0_SMBIOS_Chassis
 1837              		.align	2
 1840              	COM0_SMBIOS_Chassis:
 1841 00fc 03E0     		.short	-8189
 1842 00fe 0000     		.space	2
 1843 0100 00000000 		.word	0
 1844 0104 00       		.ascii	"\000"
 1845 0105 000000   		.space	3
 1846 0108 00000000 		.word	0
 1847 010c 00000000 		.word	0
 1848 0110 00000000 		.word	0
 1849 0114 00000000 		.word	0
 1850 0118 00       		.ascii	"\000"
 1851 0119 00       		.ascii	"\000"
 1852 011a 0000     		.space	2
 1853 011c 00000000 		.word	0
 1854 0120 00000000 		.word	0
 1855 0124 00       		.ascii	"\000"
 1856 0125 00       		.byte	0
 1857 0126 00       		.byte	0
 1858 0127 00       		.byte	0
 1859 0128 00000000 		.space	57
 1859      00000000 
 1859      00000000 
 1859      00000000 
 1859      00000000 
 1860 0161 000000   		.space	3
 1861              		.global	EeeP_LFP0_Cfg
 1862              		.bss
 1863              		.align	2
 1866              	EeeP_LFP0_Cfg:
 1867 0000 00000000 		.space	20
 1867      00000000 
 1867      00000000 
 1867      00000000 
 1867      00000000 
 1868              		.global	EeeP_LFP1_Cfg
 1869              		.align	2
 1872              	EeeP_LFP1_Cfg:
 1873 0014 00000000 		.space	20
 1873      00000000 
 1873      00000000 
 1873      00000000 
 1873      00000000 
 1874              		.global	EeeP_LFP2_Cfg
 1875              		.align	2
 1878              	EeeP_LFP2_Cfg:
 1879 0028 00000000 		.space	20
 1879      00000000 
 1879      00000000 
 1879      00000000 
 1879      00000000 
ARM GAS  /tmp/ccE14h5r.s 			page 46


 1880              		.global	EeeP_LFP3_Cfg
 1881              		.align	2
 1884              	EeeP_LFP3_Cfg:
 1885 003c 00000000 		.space	20
 1885      00000000 
 1885      00000000 
 1885      00000000 
 1885      00000000 
 1886              		.global	EeeP_VendorBlock0_Cfg
 1887              		.align	2
 1890              	EeeP_VendorBlock0_Cfg:
 1891 0050 00000000 		.space	20
 1891      00000000 
 1891      00000000 
 1891      00000000 
 1891      00000000 
 1892              		.global	EeeP_VendorBlock1_Cfg
 1893              		.align	2
 1896              	EeeP_VendorBlock1_Cfg:
 1897 0064 00000000 		.space	20
 1897      00000000 
 1897      00000000 
 1897      00000000 
 1897      00000000 
 1898              		.global	EeeP_VendorBlock2_Cfg
 1899              		.align	2
 1902              	EeeP_VendorBlock2_Cfg:
 1903 0078 00000000 		.space	20
 1903      00000000 
 1903      00000000 
 1903      00000000 
 1903      00000000 
 1904              		.global	EeeP_VendorBlock3_Cfg
 1905              		.align	2
 1908              	EeeP_VendorBlock3_Cfg:
 1909 008c 00000000 		.space	20
 1909      00000000 
 1909      00000000 
 1909      00000000 
 1909      00000000 
 1910              		.global	EeeP_VendorBlock4_Cfg
 1911              		.align	2
 1914              	EeeP_VendorBlock4_Cfg:
 1915 00a0 00000000 		.space	20
 1915      00000000 
 1915      00000000 
 1915      00000000 
 1915      00000000 
 1916              		.global	EeeP_VendorBlock5_Cfg
 1917              		.align	2
 1920              	EeeP_VendorBlock5_Cfg:
 1921 00b4 00000000 		.space	20
 1921      00000000 
 1921      00000000 
 1921      00000000 
 1921      00000000 
 1922              		.global	EeeP_VendorBlock6_Cfg
ARM GAS  /tmp/ccE14h5r.s 			page 47


 1923              		.align	2
 1926              	EeeP_VendorBlock6_Cfg:
 1927 00c8 00000000 		.space	20
 1927      00000000 
 1927      00000000 
 1927      00000000 
 1927      00000000 
 1928              		.global	EeeP_CustomBlock0_Cfg
 1929              		.align	2
 1932              	EeeP_CustomBlock0_Cfg:
 1933 00dc 00000000 		.space	20
 1933      00000000 
 1933      00000000 
 1933      00000000 
 1933      00000000 
 1934              		.global	EeeP_CustomBlock1_Cfg
 1935              		.align	2
 1938              	EeeP_CustomBlock1_Cfg:
 1939 00f0 00000000 		.space	20
 1939      00000000 
 1939      00000000 
 1939      00000000 
 1939      00000000 
 1940              		.global	EeeP_CustomBlock2_Cfg
 1941              		.align	2
 1944              	EeeP_CustomBlock2_Cfg:
 1945 0104 00000000 		.space	20
 1945      00000000 
 1945      00000000 
 1945      00000000 
 1945      00000000 
 1946              		.global	EeeP_CustomBlock3_Cfg
 1947              		.align	2
 1950              	EeeP_CustomBlock3_Cfg:
 1951 0118 00000000 		.space	20
 1951      00000000 
 1951      00000000 
 1951      00000000 
 1951      00000000 
 1952              		.global	EeeP_CustomBlock4_Cfg
 1953              		.align	2
 1956              	EeeP_CustomBlock4_Cfg:
 1957 012c 00000000 		.space	20
 1957      00000000 
 1957      00000000 
 1957      00000000 
 1957      00000000 
 1958              		.global	EeeP_CustomBlock5_Cfg
 1959              		.align	2
 1962              	EeeP_CustomBlock5_Cfg:
 1963 0140 00000000 		.space	20
 1963      00000000 
 1963      00000000 
 1963      00000000 
 1963      00000000 
 1964              		.global	EeeP_CustomBlock6_Cfg
 1965              		.align	2
ARM GAS  /tmp/ccE14h5r.s 			page 48


 1968              	EeeP_CustomBlock6_Cfg:
 1969 0154 00000000 		.space	20
 1969      00000000 
 1969      00000000 
 1969      00000000 
 1969      00000000 
 1970              		.global	EeePExtI2CDevice0
 1971              		.align	2
 1974              	EeePExtI2CDevice0:
 1975 0168 00000000 		.space	16
 1975      00000000 
 1975      00000000 
 1975      00000000 
 1976              		.global	EeePExtI2CDevice1
 1977              		.align	2
 1980              	EeePExtI2CDevice1:
 1981 0178 00000000 		.space	16
 1981      00000000 
 1981      00000000 
 1981      00000000 
 1982              		.global	EeePI2CDevice
 1983              		.align	2
 1986              	EeePI2CDevice:
 1987 0188 00000000 		.space	16
 1987      00000000 
 1987      00000000 
 1987      00000000 
 1988              		.global	COM0R20_CB_cgf
 1989              		.align	2
 1992              	COM0R20_CB_cgf:
 1993 0198 00000000 		.space	148
 1993      00000000 
 1993      00000000 
 1993      00000000 
 1993      00000000 
 1994              		.global	COM0R20_M_cgf
 1995              		.align	2
 1998              	COM0R20_M_cgf:
 1999 022c 00000000 		.space	10
 1999      00000000 
 1999      0000
 2000              		.global	COM0R20_ECard0_cgf
 2001 0236 0000     		.align	2
 2004              	COM0R20_ECard0_cgf:
 2005 0238 00000000 		.space	44
 2005      00000000 
 2005      00000000 
 2005      00000000 
 2005      00000000 
 2006              		.global	COM0R20_ECard1_cgf
 2007              		.data
 2008              		.align	2
 2011              	COM0R20_ECard1_cgf:
 2012 0164 01       		.ascii	"\001"
 2013 0165 00       		.ascii	"\000"
 2014 0166 0000     		.ascii	"\000\000"
 2015 0168 00000000 		.space	28
ARM GAS  /tmp/ccE14h5r.s 			page 49


 2015      00000000 
 2015      00000000 
 2015      00000000 
 2015      00000000 
 2016 0184 00000000 		.word	0
 2017 0188 00000000 		.word	0
 2018 018c 00       		.ascii	"\000"
 2019 018d 000000   		.space	3
 2020              		.global	COM0R20_SER_cgf
 2021              		.bss
 2022              		.align	2
 2025              	COM0R20_SER_cgf:
 2026 0264 00000000 		.space	20
 2026      00000000 
 2026      00000000 
 2026      00000000 
 2026      00000000 
 2027              		.global	EeePExpHdr_cgf
 2028              		.align	2
 2031              	EeePExpHdr_cgf:
 2032 0278 00000000 		.space	12
 2032      00000000 
 2032      00000000 
 2033              		.global	ValidMinSize
 2034              		.data
 2035              		.align	2
 2038              	ValidMinSize:
 2039 0190 00000000 		.word	0
 2040 0194 FCFF0100 		.word	131068
 2041 0198 01000000 		.word	1
 2042              		.global	ValidMinSizeDesc
 2043              		.section	.data.rel.local
 2044              		.align	2
 2047              	ValidMinSizeDesc:
 2048 04c8 01000000 		.word	1
 2049 04cc 00000000 		.word	ValidMinSize
 2050              		.global	SmbiosModuleDesc
 2051              		.section	.rodata
 2052 0b4a 0000     		.align	2
 2053              	.LC139:
 2054 0b4c 496E7369 		.ascii	"InsideCRC\000"
 2054      64654352 
 2054      4300
 2055 0b56 0000     		.align	2
 2056              	.LC140:
 2057 0b58 4D696E42 		.ascii	"MinBlockSize\000"
 2057      6C6F636B 
 2057      53697A65 
 2057      00
 2058 0b65 000000   		.align	2
 2059              	.LC141:
 2060 0b68 426C6F63 		.ascii	"BlockFillChar\000"
 2060      6B46696C 
 2060      6C436861 
 2060      7200
 2061 0b76 0000     		.align	2
 2062              	.LC142:
ARM GAS  /tmp/ccE14h5r.s 			page 50


 2063 0b78 4D616E75 		.ascii	"Manufacturer\000"
 2063      66616374 
 2063      75726572 
 2063      00
 2064 0b85 000000   		.align	2
 2065              	.LC143:
 2066 0b88 50726F64 		.ascii	"Product\000"
 2066      75637400 
 2067              		.align	2
 2068              	.LC144:
 2069 0b90 56657273 		.ascii	"Version\000"
 2069      696F6E00 
 2070              		.align	2
 2071              	.LC145:
 2072 0b98 53657269 		.ascii	"SerialNumber\000"
 2072      616C4E75 
 2072      6D626572 
 2072      00
 2073 0ba5 000000   		.align	2
 2074              	.LC146:
 2075 0ba8 41737365 		.ascii	"AssetTag\000"
 2075      74546167 
 2075      00
 2076 0bb1 000000   		.align	2
 2077              	.LC147:
 2078 0bb4 46656174 		.ascii	"FeatureFlag\000"
 2078      75726546 
 2078      6C616700 
 2079              		.align	2
 2080              	.LC148:
 2081 0bc0 4C6F6361 		.ascii	"Location\000"
 2081      74696F6E 
 2081      00
 2082 0bc9 000000   		.align	2
 2083              	.LC149:
 2084 0bcc 4C6F6361 		.ascii	"LocationHandle\000"
 2084      74696F6E 
 2084      48616E64 
 2084      6C6500
 2085 0bdb 00       		.align	2
 2086              	.LC150:
 2087 0bdc 426F6172 		.ascii	"BoardType\000"
 2087      64547970 
 2087      6500
 2088 0be6 0000     		.align	2
 2089              	.LC151:
 2090 0be8 48616E64 		.ascii	"Handles\000"
 2090      6C657300 
 2091              		.section	.data.rel
 2092              		.align	2
 2095              	SmbiosModuleDesc:
 2096 0020 02000000 		.word	2
 2097 0024 4C0B0000 		.word	.LC139
 2098 0028 01000000 		.word	1
 2099 002c 00000000 		.word	0
 2100 0030 01000000 		.word	1
 2101 0034 04000000 		.word	4
ARM GAS  /tmp/ccE14h5r.s 			page 51


 2102 0038 04000000 		.word	4
 2103 003c 28000000 		.word	COM0_SMBIOS_Module+40
 2104 0040 00000000 		.word	0
 2105 0044 00000000 		.word	0
 2106 0048 00000000 		.word	0
 2107 004c 20000000 		.word	32
 2108 0050 00000000 		.word	Token_Element_funcs
 2109 0054 00000000 		.word	InsideCrcTL
 2110 0058 02000000 		.word	2
 2111 005c 580B0000 		.word	.LC140
 2112 0060 00000000 		.word	0
 2113 0064 00000000 		.word	0
 2114 0068 01000000 		.word	1
 2115 006c 04000000 		.word	4
 2116 0070 04000000 		.word	4
 2117 0074 2C000000 		.word	COM0_SMBIOS_Module+44
 2118 0078 00000000 		.word	0
 2119 007c 00000000 		.word	0
 2120 0080 00000000 		.word	0
 2121 0084 20000000 		.word	32
 2122 0088 00000000 		.word	Number_Element_funcs
 2123 008c 00000000 		.word	ValidMinSizeDesc
 2124 0090 02000000 		.word	2
 2125 0094 680B0000 		.word	.LC141
 2126 0098 00000000 		.word	0
 2127 009c 00000000 		.word	0
 2128 00a0 01000000 		.word	1
 2129 00a4 01000000 		.word	1
 2130 00a8 04000000 		.word	4
 2131 00ac 30000000 		.word	COM0_SMBIOS_Module+48
 2132 00b0 00000000 		.word	0
 2133 00b4 00000000 		.word	0
 2134 00b8 00000000 		.word	0
 2135 00bc 08000000 		.word	8
 2136 00c0 00000000 		.word	Number_Element_funcs
 2137 00c4 00000000 		.word	UINT8RangeDesc
 2138 00c8 02000000 		.word	2
 2139 00cc 780B0000 		.word	.LC142
 2140 00d0 01000000 		.word	1
 2141 00d4 00000000 		.word	0
 2142 00d8 01000000 		.word	1
 2143 00dc 04000000 		.word	4
 2144 00e0 04000000 		.word	4
 2145 00e4 04000000 		.word	COM0_SMBIOS_Module+4
 2146 00e8 00000000 		.word	0
 2147 00ec 00000000 		.word	0
 2148 00f0 00000000 		.word	0
 2149 00f4 20000000 		.word	32
 2150 00f8 00000000 		.word	String_Element_funcs
 2151 00fc 00000000 		.word	PreserveTrailingSpaces
 2152 0100 02000000 		.word	2
 2153 0104 880B0000 		.word	.LC143
 2154 0108 01000000 		.word	1
 2155 010c 00000000 		.word	0
 2156 0110 01000000 		.word	1
 2157 0114 04000000 		.word	4
 2158 0118 04000000 		.word	4
ARM GAS  /tmp/ccE14h5r.s 			page 52


 2159 011c 08000000 		.word	COM0_SMBIOS_Module+8
 2160 0120 00000000 		.word	0
 2161 0124 00000000 		.word	0
 2162 0128 00000000 		.word	0
 2163 012c 20000000 		.word	32
 2164 0130 00000000 		.word	String_Element_funcs
 2165 0134 00000000 		.word	PreserveTrailingSpaces
 2166 0138 02000000 		.word	2
 2167 013c 900B0000 		.word	.LC144
 2168 0140 01000000 		.word	1
 2169 0144 00000000 		.word	0
 2170 0148 01000000 		.word	1
 2171 014c 04000000 		.word	4
 2172 0150 04000000 		.word	4
 2173 0154 0C000000 		.word	COM0_SMBIOS_Module+12
 2174 0158 00000000 		.word	0
 2175 015c 00000000 		.word	0
 2176 0160 00000000 		.word	0
 2177 0164 20000000 		.word	32
 2178 0168 00000000 		.word	String_Element_funcs
 2179 016c 00000000 		.word	PreserveTrailingSpaces
 2180 0170 02000000 		.word	2
 2181 0174 980B0000 		.word	.LC145
 2182 0178 00000000 		.word	0
 2183 017c 00000000 		.word	0
 2184 0180 01000000 		.word	1
 2185 0184 04000000 		.word	4
 2186 0188 04000000 		.word	4
 2187 018c 10000000 		.word	COM0_SMBIOS_Module+16
 2188 0190 00000000 		.word	0
 2189 0194 00000000 		.word	0
 2190 0198 00000000 		.word	0
 2191 019c 20000000 		.word	32
 2192 01a0 00000000 		.word	String_Element_funcs
 2193 01a4 00000000 		.word	PreserveTrailingSpaces
 2194 01a8 02000000 		.word	2
 2195 01ac A80B0000 		.word	.LC146
 2196 01b0 00000000 		.word	0
 2197 01b4 00000000 		.word	0
 2198 01b8 01000000 		.word	1
 2199 01bc 04000000 		.word	4
 2200 01c0 04000000 		.word	4
 2201 01c4 14000000 		.word	COM0_SMBIOS_Module+20
 2202 01c8 00000000 		.word	0
 2203 01cc 00000000 		.word	0
 2204 01d0 00000000 		.word	0
 2205 01d4 20000000 		.word	32
 2206 01d8 00000000 		.word	String_Element_funcs
 2207 01dc 00000000 		.word	PreserveTrailingSpaces
 2208 01e0 02000000 		.word	2
 2209 01e4 B40B0000 		.word	.LC147
 2210 01e8 01000000 		.word	1
 2211 01ec 00000000 		.word	0
 2212 01f0 05000000 		.word	5
 2213 01f4 01000000 		.word	1
 2214 01f8 04000000 		.word	4
 2215 01fc 18000000 		.word	COM0_SMBIOS_Module+24
ARM GAS  /tmp/ccE14h5r.s 			page 53


 2216 0200 00000000 		.word	0
 2217 0204 00000000 		.word	0
 2218 0208 00000000 		.word	0
 2219 020c 08000000 		.word	8
 2220 0210 00000000 		.word	Token_Element_funcs
 2221 0214 00000000 		.word	SmbiSmbiosModuleFeatureFlagsTL
 2222 0218 02000000 		.word	2
 2223 021c C00B0000 		.word	.LC148
 2224 0220 00000000 		.word	0
 2225 0224 00000000 		.word	0
 2226 0228 01000000 		.word	1
 2227 022c 04000000 		.word	4
 2228 0230 04000000 		.word	4
 2229 0234 20000000 		.word	COM0_SMBIOS_Module+32
 2230 0238 00000000 		.word	0
 2231 023c 00000000 		.word	0
 2232 0240 00000000 		.word	0
 2233 0244 20000000 		.word	32
 2234 0248 00000000 		.word	String_Element_funcs
 2235 024c 00000000 		.word	PreserveTrailingSpaces
 2236 0250 02000000 		.word	2
 2237 0254 CC0B0000 		.word	.LC149
 2238 0258 00000000 		.word	0
 2239 025c 00000000 		.word	0
 2240 0260 01000000 		.word	1
 2241 0264 02000000 		.word	2
 2242 0268 04000000 		.word	4
 2243 026c 24000000 		.word	COM0_SMBIOS_Module+36
 2244 0270 00000000 		.word	0
 2245 0274 00000000 		.word	0
 2246 0278 00000000 		.word	0
 2247 027c 10000000 		.word	16
 2248 0280 00000000 		.word	Number_Element_funcs
 2249 0284 00000000 		.word	ValidHandlesDesc
 2250 0288 02000000 		.word	2
 2251 028c DC0B0000 		.word	.LC150
 2252 0290 01000000 		.word	1
 2253 0294 00000000 		.word	0
 2254 0298 01000000 		.word	1
 2255 029c 01000000 		.word	1
 2256 02a0 04000000 		.word	4
 2257 02a4 26000000 		.word	COM0_SMBIOS_Module+38
 2258 02a8 00000000 		.word	0
 2259 02ac 00000000 		.word	0
 2260 02b0 00000000 		.word	0
 2261 02b4 08000000 		.word	8
 2262 02b8 00000000 		.word	Token_Element_funcs
 2263 02bc 00000000 		.word	SmbiosBoardTypesTL
 2264 02c0 02000000 		.word	2
 2265 02c4 E80B0000 		.word	.LC151
 2266 02c8 00000000 		.word	0
 2267 02cc 00000000 		.word	0
 2268 02d0 14000000 		.word	20
 2269 02d4 02000000 		.word	2
 2270 02d8 04000000 		.word	4
 2271 02dc 32000000 		.word	COM0_SMBIOS_Module+50
 2272 02e0 00000000 		.word	0
ARM GAS  /tmp/ccE14h5r.s 			page 54


 2273 02e4 00000000 		.word	0
 2274 02e8 00000000 		.word	0
 2275 02ec 10000000 		.word	16
 2276 02f0 00000000 		.word	Number_Element_funcs
 2277 02f4 00000000 		.word	ValidHandlesDesc
 2278              		.global	SmbiosCarrierDesc
 2279              		.align	2
 2282              	SmbiosCarrierDesc:
 2283 02f8 02000000 		.word	2
 2284 02fc 4C0B0000 		.word	.LC139
 2285 0300 01000000 		.word	1
 2286 0304 00000000 		.word	0
 2287 0308 01000000 		.word	1
 2288 030c 04000000 		.word	4
 2289 0310 04000000 		.word	4
 2290 0314 28000000 		.word	COM0_SMBIOS_Carrier+40
 2291 0318 00000000 		.word	0
 2292 031c 00000000 		.word	0
 2293 0320 00000000 		.word	0
 2294 0324 20000000 		.word	32
 2295 0328 00000000 		.word	Token_Element_funcs
 2296 032c 00000000 		.word	InsideCrcTL
 2297 0330 02000000 		.word	2
 2298 0334 580B0000 		.word	.LC140
 2299 0338 00000000 		.word	0
 2300 033c 00000000 		.word	0
 2301 0340 01000000 		.word	1
 2302 0344 04000000 		.word	4
 2303 0348 04000000 		.word	4
 2304 034c 2C000000 		.word	COM0_SMBIOS_Carrier+44
 2305 0350 00000000 		.word	0
 2306 0354 00000000 		.word	0
 2307 0358 00000000 		.word	0
 2308 035c 20000000 		.word	32
 2309 0360 00000000 		.word	Number_Element_funcs
 2310 0364 00000000 		.word	ValidMinSizeDesc
 2311 0368 02000000 		.word	2
 2312 036c 680B0000 		.word	.LC141
 2313 0370 00000000 		.word	0
 2314 0374 00000000 		.word	0
 2315 0378 01000000 		.word	1
 2316 037c 01000000 		.word	1
 2317 0380 04000000 		.word	4
 2318 0384 30000000 		.word	COM0_SMBIOS_Carrier+48
 2319 0388 00000000 		.word	0
 2320 038c 00000000 		.word	0
 2321 0390 00000000 		.word	0
 2322 0394 08000000 		.word	8
 2323 0398 00000000 		.word	Number_Element_funcs
 2324 039c 00000000 		.word	UINT8RangeDesc
 2325 03a0 02000000 		.word	2
 2326 03a4 780B0000 		.word	.LC142
 2327 03a8 01000000 		.word	1
 2328 03ac 00000000 		.word	0
 2329 03b0 01000000 		.word	1
 2330 03b4 04000000 		.word	4
 2331 03b8 04000000 		.word	4
ARM GAS  /tmp/ccE14h5r.s 			page 55


 2332 03bc 04000000 		.word	COM0_SMBIOS_Carrier+4
 2333 03c0 00000000 		.word	0
 2334 03c4 00000000 		.word	0
 2335 03c8 00000000 		.word	0
 2336 03cc 20000000 		.word	32
 2337 03d0 00000000 		.word	String_Element_funcs
 2338 03d4 00000000 		.word	PreserveTrailingSpaces
 2339 03d8 02000000 		.word	2
 2340 03dc 880B0000 		.word	.LC143
 2341 03e0 01000000 		.word	1
 2342 03e4 00000000 		.word	0
 2343 03e8 01000000 		.word	1
 2344 03ec 04000000 		.word	4
 2345 03f0 04000000 		.word	4
 2346 03f4 08000000 		.word	COM0_SMBIOS_Carrier+8
 2347 03f8 00000000 		.word	0
 2348 03fc 00000000 		.word	0
 2349 0400 00000000 		.word	0
 2350 0404 20000000 		.word	32
 2351 0408 00000000 		.word	String_Element_funcs
 2352 040c 00000000 		.word	PreserveTrailingSpaces
 2353 0410 02000000 		.word	2
 2354 0414 900B0000 		.word	.LC144
 2355 0418 01000000 		.word	1
 2356 041c 00000000 		.word	0
 2357 0420 01000000 		.word	1
 2358 0424 04000000 		.word	4
 2359 0428 04000000 		.word	4
 2360 042c 0C000000 		.word	COM0_SMBIOS_Carrier+12
 2361 0430 00000000 		.word	0
 2362 0434 00000000 		.word	0
 2363 0438 00000000 		.word	0
 2364 043c 20000000 		.word	32
 2365 0440 00000000 		.word	String_Element_funcs
 2366 0444 00000000 		.word	PreserveTrailingSpaces
 2367 0448 02000000 		.word	2
 2368 044c 980B0000 		.word	.LC145
 2369 0450 00000000 		.word	0
 2370 0454 00000000 		.word	0
 2371 0458 01000000 		.word	1
 2372 045c 04000000 		.word	4
 2373 0460 04000000 		.word	4
 2374 0464 10000000 		.word	COM0_SMBIOS_Carrier+16
 2375 0468 00000000 		.word	0
 2376 046c 00000000 		.word	0
 2377 0470 00000000 		.word	0
 2378 0474 20000000 		.word	32
 2379 0478 00000000 		.word	String_Element_funcs
 2380 047c 00000000 		.word	PreserveTrailingSpaces
 2381 0480 02000000 		.word	2
 2382 0484 A80B0000 		.word	.LC146
 2383 0488 00000000 		.word	0
 2384 048c 00000000 		.word	0
 2385 0490 01000000 		.word	1
 2386 0494 04000000 		.word	4
 2387 0498 04000000 		.word	4
 2388 049c 14000000 		.word	COM0_SMBIOS_Carrier+20
ARM GAS  /tmp/ccE14h5r.s 			page 56


 2389 04a0 00000000 		.word	0
 2390 04a4 00000000 		.word	0
 2391 04a8 00000000 		.word	0
 2392 04ac 20000000 		.word	32
 2393 04b0 00000000 		.word	String_Element_funcs
 2394 04b4 00000000 		.word	PreserveTrailingSpaces
 2395 04b8 02000000 		.word	2
 2396 04bc B40B0000 		.word	.LC147
 2397 04c0 01000000 		.word	1
 2398 04c4 00000000 		.word	0
 2399 04c8 05000000 		.word	5
 2400 04cc 01000000 		.word	1
 2401 04d0 04000000 		.word	4
 2402 04d4 18000000 		.word	COM0_SMBIOS_Carrier+24
 2403 04d8 00000000 		.word	0
 2404 04dc 00000000 		.word	0
 2405 04e0 00000000 		.word	0
 2406 04e4 08000000 		.word	8
 2407 04e8 00000000 		.word	Token_Element_funcs
 2408 04ec 00000000 		.word	SmbiSmbiosModuleFeatureFlagsTL
 2409 04f0 02000000 		.word	2
 2410 04f4 C00B0000 		.word	.LC148
 2411 04f8 00000000 		.word	0
 2412 04fc 00000000 		.word	0
 2413 0500 01000000 		.word	1
 2414 0504 04000000 		.word	4
 2415 0508 04000000 		.word	4
 2416 050c 20000000 		.word	COM0_SMBIOS_Carrier+32
 2417 0510 00000000 		.word	0
 2418 0514 00000000 		.word	0
 2419 0518 00000000 		.word	0
 2420 051c 20000000 		.word	32
 2421 0520 00000000 		.word	String_Element_funcs
 2422 0524 00000000 		.word	PreserveTrailingSpaces
 2423 0528 02000000 		.word	2
 2424 052c CC0B0000 		.word	.LC149
 2425 0530 00000000 		.word	0
 2426 0534 00000000 		.word	0
 2427 0538 01000000 		.word	1
 2428 053c 02000000 		.word	2
 2429 0540 04000000 		.word	4
 2430 0544 24000000 		.word	COM0_SMBIOS_Carrier+36
 2431 0548 00000000 		.word	0
 2432 054c 00000000 		.word	0
 2433 0550 00000000 		.word	0
 2434 0554 10000000 		.word	16
 2435 0558 00000000 		.word	Number_Element_funcs
 2436 055c 00000000 		.word	ValidHandlesDesc
 2437 0560 02000000 		.word	2
 2438 0564 DC0B0000 		.word	.LC150
 2439 0568 01000000 		.word	1
 2440 056c 00000000 		.word	0
 2441 0570 01000000 		.word	1
 2442 0574 01000000 		.word	1
 2443 0578 04000000 		.word	4
 2444 057c 26000000 		.word	COM0_SMBIOS_Carrier+38
 2445 0580 00000000 		.word	0
ARM GAS  /tmp/ccE14h5r.s 			page 57


 2446 0584 00000000 		.word	0
 2447 0588 00000000 		.word	0
 2448 058c 08000000 		.word	8
 2449 0590 00000000 		.word	Token_Element_funcs
 2450 0594 00000000 		.word	SmbiosBoardTypesTL
 2451 0598 02000000 		.word	2
 2452 059c E80B0000 		.word	.LC151
 2453 05a0 00000000 		.word	0
 2454 05a4 00000000 		.word	0
 2455 05a8 14000000 		.word	20
 2456 05ac 02000000 		.word	2
 2457 05b0 04000000 		.word	4
 2458 05b4 32000000 		.word	COM0_SMBIOS_Carrier+50
 2459 05b8 00000000 		.word	0
 2460 05bc 00000000 		.word	0
 2461 05c0 00000000 		.word	0
 2462 05c4 10000000 		.word	16
 2463 05c8 00000000 		.word	Number_Element_funcs
 2464 05cc 00000000 		.word	ValidHandlesDesc
 2465              		.global	SmbiosSystemDesc
 2466              		.section	.rodata
 2467              		.align	2
 2468              	.LC152:
 2469 0bf0 55554944 		.ascii	"UUID\000"
 2469      00
 2470 0bf5 000000   		.align	2
 2471              	.LC153:
 2472 0bf8 534B555F 		.ascii	"SKU_Number\000"
 2472      4E756D62 
 2472      657200
 2473 0c03 00       		.align	2
 2474              	.LC154:
 2475 0c04 46616D69 		.ascii	"Family\000"
 2475      6C7900
 2476              		.section	.data.rel
 2477              		.align	2
 2480              	SmbiosSystemDesc:
 2481 05d0 02000000 		.word	2
 2482 05d4 4C0B0000 		.word	.LC139
 2483 05d8 01000000 		.word	1
 2484 05dc 00000000 		.word	0
 2485 05e0 01000000 		.word	1
 2486 05e4 04000000 		.word	4
 2487 05e8 04000000 		.word	4
 2488 05ec 28000000 		.word	COM0_SMBIOS_System+40
 2489 05f0 00000000 		.word	0
 2490 05f4 00000000 		.word	0
 2491 05f8 00000000 		.word	0
 2492 05fc 20000000 		.word	32
 2493 0600 00000000 		.word	Token_Element_funcs
 2494 0604 00000000 		.word	InsideCrcTL
 2495 0608 02000000 		.word	2
 2496 060c 580B0000 		.word	.LC140
 2497 0610 00000000 		.word	0
 2498 0614 00000000 		.word	0
 2499 0618 01000000 		.word	1
 2500 061c 04000000 		.word	4
ARM GAS  /tmp/ccE14h5r.s 			page 58


 2501 0620 04000000 		.word	4
 2502 0624 2C000000 		.word	COM0_SMBIOS_System+44
 2503 0628 00000000 		.word	0
 2504 062c 00000000 		.word	0
 2505 0630 00000000 		.word	0
 2506 0634 20000000 		.word	32
 2507 0638 00000000 		.word	Number_Element_funcs
 2508 063c 00000000 		.word	ValidMinSizeDesc
 2509 0640 02000000 		.word	2
 2510 0644 680B0000 		.word	.LC141
 2511 0648 00000000 		.word	0
 2512 064c 00000000 		.word	0
 2513 0650 01000000 		.word	1
 2514 0654 01000000 		.word	1
 2515 0658 04000000 		.word	4
 2516 065c 30000000 		.word	COM0_SMBIOS_System+48
 2517 0660 00000000 		.word	0
 2518 0664 00000000 		.word	0
 2519 0668 00000000 		.word	0
 2520 066c 08000000 		.word	8
 2521 0670 00000000 		.word	Number_Element_funcs
 2522 0674 00000000 		.word	UINT8RangeDesc
 2523 0678 02000000 		.word	2
 2524 067c 780B0000 		.word	.LC142
 2525 0680 01000000 		.word	1
 2526 0684 00000000 		.word	0
 2527 0688 01000000 		.word	1
 2528 068c 04000000 		.word	4
 2529 0690 04000000 		.word	4
 2530 0694 04000000 		.word	COM0_SMBIOS_System+4
 2531 0698 00000000 		.word	0
 2532 069c 00000000 		.word	0
 2533 06a0 00000000 		.word	0
 2534 06a4 20000000 		.word	32
 2535 06a8 00000000 		.word	String_Element_funcs
 2536 06ac 00000000 		.word	PreserveTrailingSpaces
 2537 06b0 02000000 		.word	2
 2538 06b4 880B0000 		.word	.LC143
 2539 06b8 01000000 		.word	1
 2540 06bc 00000000 		.word	0
 2541 06c0 01000000 		.word	1
 2542 06c4 04000000 		.word	4
 2543 06c8 04000000 		.word	4
 2544 06cc 08000000 		.word	COM0_SMBIOS_System+8
 2545 06d0 00000000 		.word	0
 2546 06d4 00000000 		.word	0
 2547 06d8 00000000 		.word	0
 2548 06dc 20000000 		.word	32
 2549 06e0 00000000 		.word	String_Element_funcs
 2550 06e4 00000000 		.word	PreserveTrailingSpaces
 2551 06e8 02000000 		.word	2
 2552 06ec 900B0000 		.word	.LC144
 2553 06f0 01000000 		.word	1
 2554 06f4 00000000 		.word	0
 2555 06f8 01000000 		.word	1
 2556 06fc 04000000 		.word	4
 2557 0700 04000000 		.word	4
ARM GAS  /tmp/ccE14h5r.s 			page 59


 2558 0704 0C000000 		.word	COM0_SMBIOS_System+12
 2559 0708 00000000 		.word	0
 2560 070c 00000000 		.word	0
 2561 0710 00000000 		.word	0
 2562 0714 20000000 		.word	32
 2563 0718 00000000 		.word	String_Element_funcs
 2564 071c 00000000 		.word	PreserveTrailingSpaces
 2565 0720 02000000 		.word	2
 2566 0724 980B0000 		.word	.LC145
 2567 0728 00000000 		.word	0
 2568 072c 00000000 		.word	0
 2569 0730 01000000 		.word	1
 2570 0734 04000000 		.word	4
 2571 0738 04000000 		.word	4
 2572 073c 10000000 		.word	COM0_SMBIOS_System+16
 2573 0740 00000000 		.word	0
 2574 0744 00000000 		.word	0
 2575 0748 00000000 		.word	0
 2576 074c 20000000 		.word	32
 2577 0750 00000000 		.word	String_Element_funcs
 2578 0754 00000000 		.word	PreserveTrailingSpaces
 2579 0758 02000000 		.word	2
 2580 075c F00B0000 		.word	.LC152
 2581 0760 00000000 		.word	0
 2582 0764 00000000 		.word	0
 2583 0768 01000000 		.word	1
 2584 076c 10000000 		.word	16
 2585 0770 04000000 		.word	4
 2586 0774 14000000 		.word	COM0_SMBIOS_System+20
 2587 0778 00000000 		.word	0
 2588 077c 00000000 		.word	0
 2589 0780 00000000 		.word	0
 2590 0784 80000000 		.word	128
 2591 0788 00000000 		.word	GUID_Element_funcs
 2592 078c 00000000 		.word	0
 2593 0790 02000000 		.word	2
 2594 0794 F80B0000 		.word	.LC153
 2595 0798 00000000 		.word	0
 2596 079c 00000000 		.word	0
 2597 07a0 01000000 		.word	1
 2598 07a4 04000000 		.word	4
 2599 07a8 04000000 		.word	4
 2600 07ac 24000000 		.word	COM0_SMBIOS_System+36
 2601 07b0 00000000 		.word	0
 2602 07b4 00000000 		.word	0
 2603 07b8 00000000 		.word	0
 2604 07bc 20000000 		.word	32
 2605 07c0 00000000 		.word	String_Element_funcs
 2606 07c4 00000000 		.word	PreserveTrailingSpaces
 2607 07c8 02000000 		.word	2
 2608 07cc 040C0000 		.word	.LC154
 2609 07d0 00000000 		.word	0
 2610 07d4 00000000 		.word	0
 2611 07d8 01000000 		.word	1
 2612 07dc 04000000 		.word	4
 2613 07e0 04000000 		.word	4
 2614 07e4 34000000 		.word	COM0_SMBIOS_System+52
ARM GAS  /tmp/ccE14h5r.s 			page 60


 2615 07e8 00000000 		.word	0
 2616 07ec 00000000 		.word	0
 2617 07f0 00000000 		.word	0
 2618 07f4 20000000 		.word	32
 2619 07f8 00000000 		.word	String_Element_funcs
 2620 07fc 00000000 		.word	PreserveTrailingSpaces
 2621              		.global	SmbiosChassisDesc
 2622              		.section	.rodata
 2623 0c0b 00       		.align	2
 2624              	.LC155:
 2625 0c0c 54797065 		.ascii	"Type\000"
 2625      00
 2626 0c11 000000   		.align	2
 2627              	.LC156:
 2628 0c14 4F454D00 		.ascii	"OEM\000"
 2629              		.align	2
 2630              	.LC157:
 2631 0c18 48656967 		.ascii	"Height\000"
 2631      687400
 2632 0c1f 00       		.align	2
 2633              	.LC158:
 2634 0c20 4E756D50 		.ascii	"NumPowerCords\000"
 2634      6F776572 
 2634      436F7264 
 2634      7300
 2635 0c2e 0000     		.align	2
 2636              	.LC159:
 2637 0c30 43456C65 		.ascii	"CElements\000"
 2637      6D656E74 
 2637      7300
 2638              		.section	.data.rel
 2639              		.align	2
 2642              	SmbiosChassisDesc:
 2643 0800 02000000 		.word	2
 2644 0804 4C0B0000 		.word	.LC139
 2645 0808 01000000 		.word	1
 2646 080c 00000000 		.word	0
 2647 0810 01000000 		.word	1
 2648 0814 04000000 		.word	4
 2649 0818 04000000 		.word	4
 2650 081c 20000000 		.word	COM0_SMBIOS_Chassis+32
 2651 0820 00000000 		.word	0
 2652 0824 00000000 		.word	0
 2653 0828 00000000 		.word	0
 2654 082c 20000000 		.word	32
 2655 0830 00000000 		.word	Token_Element_funcs
 2656 0834 00000000 		.word	InsideCrcTL
 2657 0838 02000000 		.word	2
 2658 083c 580B0000 		.word	.LC140
 2659 0840 00000000 		.word	0
 2660 0844 00000000 		.word	0
 2661 0848 01000000 		.word	1
 2662 084c 04000000 		.word	4
 2663 0850 04000000 		.word	4
 2664 0854 24000000 		.word	COM0_SMBIOS_Chassis+36
 2665 0858 00000000 		.word	0
 2666 085c 00000000 		.word	0
ARM GAS  /tmp/ccE14h5r.s 			page 61


 2667 0860 00000000 		.word	0
 2668 0864 20000000 		.word	32
 2669 0868 00000000 		.word	Number_Element_funcs
 2670 086c 00000000 		.word	ValidMinSizeDesc
 2671 0870 02000000 		.word	2
 2672 0874 680B0000 		.word	.LC141
 2673 0878 00000000 		.word	0
 2674 087c 00000000 		.word	0
 2675 0880 01000000 		.word	1
 2676 0884 01000000 		.word	1
 2677 0888 04000000 		.word	4
 2678 088c 28000000 		.word	COM0_SMBIOS_Chassis+40
 2679 0890 00000000 		.word	0
 2680 0894 00000000 		.word	0
 2681 0898 00000000 		.word	0
 2682 089c 08000000 		.word	8
 2683 08a0 00000000 		.word	Number_Element_funcs
 2684 08a4 00000000 		.word	UINT8RangeDesc
 2685 08a8 02000000 		.word	2
 2686 08ac 780B0000 		.word	.LC142
 2687 08b0 01000000 		.word	1
 2688 08b4 00000000 		.word	0
 2689 08b8 01000000 		.word	1
 2690 08bc 04000000 		.word	4
 2691 08c0 04000000 		.word	4
 2692 08c4 04000000 		.word	COM0_SMBIOS_Chassis+4
 2693 08c8 00000000 		.word	0
 2694 08cc 00000000 		.word	0
 2695 08d0 00000000 		.word	0
 2696 08d4 20000000 		.word	32
 2697 08d8 00000000 		.word	String_Element_funcs
 2698 08dc 00000000 		.word	PreserveTrailingSpaces
 2699 08e0 02000000 		.word	2
 2700 08e4 0C0C0000 		.word	.LC155
 2701 08e8 01000000 		.word	1
 2702 08ec 00000000 		.word	0
 2703 08f0 01000000 		.word	1
 2704 08f4 01000000 		.word	1
 2705 08f8 04000000 		.word	4
 2706 08fc 08000000 		.word	COM0_SMBIOS_Chassis+8
 2707 0900 00000000 		.word	0
 2708 0904 00000000 		.word	0
 2709 0908 00000000 		.word	0
 2710 090c 08000000 		.word	8
 2711 0910 00000000 		.word	Token_Element_funcs
 2712 0914 00000000 		.word	SmbiosChassisTypesTL
 2713 0918 02000000 		.word	2
 2714 091c 900B0000 		.word	.LC144
 2715 0920 01000000 		.word	1
 2716 0924 00000000 		.word	0
 2717 0928 01000000 		.word	1
 2718 092c 04000000 		.word	4
 2719 0930 04000000 		.word	4
 2720 0934 0C000000 		.word	COM0_SMBIOS_Chassis+12
 2721 0938 00000000 		.word	0
 2722 093c 00000000 		.word	0
 2723 0940 00000000 		.word	0
ARM GAS  /tmp/ccE14h5r.s 			page 62


 2724 0944 20000000 		.word	32
 2725 0948 00000000 		.word	String_Element_funcs
 2726 094c 00000000 		.word	PreserveTrailingSpaces
 2727 0950 02000000 		.word	2
 2728 0954 980B0000 		.word	.LC145
 2729 0958 00000000 		.word	0
 2730 095c 00000000 		.word	0
 2731 0960 01000000 		.word	1
 2732 0964 04000000 		.word	4
 2733 0968 04000000 		.word	4
 2734 096c 10000000 		.word	COM0_SMBIOS_Chassis+16
 2735 0970 00000000 		.word	0
 2736 0974 00000000 		.word	0
 2737 0978 00000000 		.word	0
 2738 097c 20000000 		.word	32
 2739 0980 00000000 		.word	String_Element_funcs
 2740 0984 00000000 		.word	PreserveTrailingSpaces
 2741 0988 02000000 		.word	2
 2742 098c A80B0000 		.word	.LC146
 2743 0990 00000000 		.word	0
 2744 0994 00000000 		.word	0
 2745 0998 01000000 		.word	1
 2746 099c 04000000 		.word	4
 2747 09a0 04000000 		.word	4
 2748 09a4 14000000 		.word	COM0_SMBIOS_Chassis+20
 2749 09a8 00000000 		.word	0
 2750 09ac 00000000 		.word	0
 2751 09b0 00000000 		.word	0
 2752 09b4 20000000 		.word	32
 2753 09b8 00000000 		.word	String_Element_funcs
 2754 09bc 00000000 		.word	PreserveTrailingSpaces
 2755 09c0 02000000 		.word	2
 2756 09c4 140C0000 		.word	.LC156
 2757 09c8 00000000 		.word	0
 2758 09cc 00000000 		.word	0
 2759 09d0 01000000 		.word	1
 2760 09d4 04000000 		.word	4
 2761 09d8 04000000 		.word	4
 2762 09dc 18000000 		.word	COM0_SMBIOS_Chassis+24
 2763 09e0 00000000 		.word	0
 2764 09e4 00000000 		.word	0
 2765 09e8 00000000 		.word	0
 2766 09ec 20000000 		.word	32
 2767 09f0 00000000 		.word	Number_Element_funcs
 2768 09f4 00000000 		.word	UINT32RangeDesc
 2769 09f8 02000000 		.word	2
 2770 09fc 180C0000 		.word	.LC157
 2771 0a00 00000000 		.word	0
 2772 0a04 00000000 		.word	0
 2773 0a08 01000000 		.word	1
 2774 0a0c 01000000 		.word	1
 2775 0a10 04000000 		.word	4
 2776 0a14 1C000000 		.word	COM0_SMBIOS_Chassis+28
 2777 0a18 00000000 		.word	0
 2778 0a1c 00000000 		.word	0
 2779 0a20 00000000 		.word	0
 2780 0a24 08000000 		.word	8
ARM GAS  /tmp/ccE14h5r.s 			page 63


 2781 0a28 00000000 		.word	Number_Element_funcs
 2782 0a2c 00000000 		.word	UINT8RangeDesc
 2783 0a30 02000000 		.word	2
 2784 0a34 200C0000 		.word	.LC158
 2785 0a38 00000000 		.word	0
 2786 0a3c 00000000 		.word	0
 2787 0a40 01000000 		.word	1
 2788 0a44 01000000 		.word	1
 2789 0a48 04000000 		.word	4
 2790 0a4c 1D000000 		.word	COM0_SMBIOS_Chassis+29
 2791 0a50 00000000 		.word	0
 2792 0a54 00000000 		.word	0
 2793 0a58 00000000 		.word	0
 2794 0a5c 08000000 		.word	8
 2795 0a60 00000000 		.word	Number_Element_funcs
 2796 0a64 00000000 		.word	UINT8RangeDesc
 2797 0a68 02000000 		.word	2
 2798 0a6c 300C0000 		.word	.LC159
 2799 0a70 00000000 		.word	0
 2800 0a74 00000000 		.word	0
 2801 0a78 14000000 		.word	20
 2802 0a7c 03000000 		.word	3
 2803 0a80 04000000 		.word	4
 2804 0a84 29000000 		.word	COM0_SMBIOS_Chassis+41
 2805 0a88 00000000 		.word	0
 2806 0a8c 00000000 		.word	0
 2807 0a90 00000000 		.word	0
 2808 0a94 18000000 		.word	24
 2809 0a98 00000000 		.word	SMBIOS_CE_Element_funcs
 2810 0a9c 00000000 		.word	0
 2811              		.global	LFPData0Desc
 2812              		.section	.rodata
 2813 0c3a 0000     		.align	2
 2814              	.LC160:
 2815 0c3c 496E7465 		.ascii	"Interface\000"
 2815      72666163 
 2815      6500
 2816 0c46 0000     		.align	2
 2817              	.LC161:
 2818 0c48 46696C65 		.ascii	"FileName\000"
 2818      4E616D65 
 2818      00
 2819              		.section	.data.rel
 2820              		.align	2
 2823              	LFPData0Desc:
 2824 0aa0 02000000 		.word	2
 2825 0aa4 4C0B0000 		.word	.LC139
 2826 0aa8 01000000 		.word	1
 2827 0aac 00000000 		.word	0
 2828 0ab0 01000000 		.word	1
 2829 0ab4 04000000 		.word	4
 2830 0ab8 04000000 		.word	4
 2831 0abc 08000000 		.word	EeeP_LFP0_Cfg+8
 2832 0ac0 00000000 		.word	0
 2833 0ac4 00000000 		.word	0
 2834 0ac8 00000000 		.word	0
 2835 0acc 20000000 		.word	32
ARM GAS  /tmp/ccE14h5r.s 			page 64


 2836 0ad0 00000000 		.word	Token_Element_funcs
 2837 0ad4 00000000 		.word	InsideCrcTL
 2838 0ad8 02000000 		.word	2
 2839 0adc 580B0000 		.word	.LC140
 2840 0ae0 00000000 		.word	0
 2841 0ae4 00000000 		.word	0
 2842 0ae8 01000000 		.word	1
 2843 0aec 04000000 		.word	4
 2844 0af0 04000000 		.word	4
 2845 0af4 0C000000 		.word	EeeP_LFP0_Cfg+12
 2846 0af8 00000000 		.word	0
 2847 0afc 00000000 		.word	0
 2848 0b00 00000000 		.word	0
 2849 0b04 20000000 		.word	32
 2850 0b08 00000000 		.word	Number_Element_funcs
 2851 0b0c 00000000 		.word	ValidMinSizeDesc
 2852 0b10 02000000 		.word	2
 2853 0b14 680B0000 		.word	.LC141
 2854 0b18 00000000 		.word	0
 2855 0b1c 00000000 		.word	0
 2856 0b20 01000000 		.word	1
 2857 0b24 01000000 		.word	1
 2858 0b28 04000000 		.word	4
 2859 0b2c 10000000 		.word	EeeP_LFP0_Cfg+16
 2860 0b30 00000000 		.word	0
 2861 0b34 00000000 		.word	0
 2862 0b38 00000000 		.word	0
 2863 0b3c 08000000 		.word	8
 2864 0b40 00000000 		.word	Number_Element_funcs
 2865 0b44 00000000 		.word	UINT8RangeDesc
 2866 0b48 02000000 		.word	2
 2867 0b4c 3C0C0000 		.word	.LC160
 2868 0b50 01000000 		.word	1
 2869 0b54 00000000 		.word	0
 2870 0b58 01000000 		.word	1
 2871 0b5c 01000000 		.word	1
 2872 0b60 04000000 		.word	4
 2873 0b64 00000000 		.word	EeeP_LFP0_Cfg
 2874 0b68 00000000 		.word	0
 2875 0b6c 00000000 		.word	0
 2876 0b70 00000000 		.word	0
 2877 0b74 08000000 		.word	8
 2878 0b78 00000000 		.word	Token_Element_funcs
 2879 0b7c 00000000 		.word	DisplayInterfaceTL
 2880 0b80 02000000 		.word	2
 2881 0b84 480C0000 		.word	.LC161
 2882 0b88 01000000 		.word	1
 2883 0b8c 00000000 		.word	0
 2884 0b90 01000000 		.word	1
 2885 0b94 04000000 		.word	4
 2886 0b98 04000000 		.word	4
 2887 0b9c 04000000 		.word	EeeP_LFP0_Cfg+4
 2888 0ba0 00000000 		.word	0
 2889 0ba4 00000000 		.word	0
 2890 0ba8 00000000 		.word	0
 2891 0bac 20000000 		.word	32
 2892 0bb0 00000000 		.word	String_Element_funcs
ARM GAS  /tmp/ccE14h5r.s 			page 65


 2893 0bb4 00000000 		.word	DeleteTrailingSpaces
 2894              		.global	LFPData1Desc
 2895              		.align	2
 2898              	LFPData1Desc:
 2899 0bb8 02000000 		.word	2
 2900 0bbc 4C0B0000 		.word	.LC139
 2901 0bc0 01000000 		.word	1
 2902 0bc4 00000000 		.word	0
 2903 0bc8 01000000 		.word	1
 2904 0bcc 04000000 		.word	4
 2905 0bd0 04000000 		.word	4
 2906 0bd4 08000000 		.word	EeeP_LFP1_Cfg+8
 2907 0bd8 00000000 		.word	0
 2908 0bdc 00000000 		.word	0
 2909 0be0 00000000 		.word	0
 2910 0be4 20000000 		.word	32
 2911 0be8 00000000 		.word	Token_Element_funcs
 2912 0bec 00000000 		.word	InsideCrcTL
 2913 0bf0 02000000 		.word	2
 2914 0bf4 580B0000 		.word	.LC140
 2915 0bf8 00000000 		.word	0
 2916 0bfc 00000000 		.word	0
 2917 0c00 01000000 		.word	1
 2918 0c04 04000000 		.word	4
 2919 0c08 04000000 		.word	4
 2920 0c0c 0C000000 		.word	EeeP_LFP1_Cfg+12
 2921 0c10 00000000 		.word	0
 2922 0c14 00000000 		.word	0
 2923 0c18 00000000 		.word	0
 2924 0c1c 20000000 		.word	32
 2925 0c20 00000000 		.word	Number_Element_funcs
 2926 0c24 00000000 		.word	ValidMinSizeDesc
 2927 0c28 02000000 		.word	2
 2928 0c2c 680B0000 		.word	.LC141
 2929 0c30 00000000 		.word	0
 2930 0c34 00000000 		.word	0
 2931 0c38 01000000 		.word	1
 2932 0c3c 01000000 		.word	1
 2933 0c40 04000000 		.word	4
 2934 0c44 10000000 		.word	EeeP_LFP1_Cfg+16
 2935 0c48 00000000 		.word	0
 2936 0c4c 00000000 		.word	0
 2937 0c50 00000000 		.word	0
 2938 0c54 08000000 		.word	8
 2939 0c58 00000000 		.word	Number_Element_funcs
 2940 0c5c 00000000 		.word	UINT8RangeDesc
 2941 0c60 02000000 		.word	2
 2942 0c64 3C0C0000 		.word	.LC160
 2943 0c68 01000000 		.word	1
 2944 0c6c 00000000 		.word	0
 2945 0c70 01000000 		.word	1
 2946 0c74 01000000 		.word	1
 2947 0c78 04000000 		.word	4
 2948 0c7c 00000000 		.word	EeeP_LFP1_Cfg
 2949 0c80 00000000 		.word	0
 2950 0c84 00000000 		.word	0
 2951 0c88 00000000 		.word	0
ARM GAS  /tmp/ccE14h5r.s 			page 66


 2952 0c8c 08000000 		.word	8
 2953 0c90 00000000 		.word	Token_Element_funcs
 2954 0c94 00000000 		.word	DisplayInterfaceTL
 2955 0c98 02000000 		.word	2
 2956 0c9c 480C0000 		.word	.LC161
 2957 0ca0 01000000 		.word	1
 2958 0ca4 00000000 		.word	0
 2959 0ca8 01000000 		.word	1
 2960 0cac 04000000 		.word	4
 2961 0cb0 04000000 		.word	4
 2962 0cb4 04000000 		.word	EeeP_LFP1_Cfg+4
 2963 0cb8 00000000 		.word	0
 2964 0cbc 00000000 		.word	0
 2965 0cc0 00000000 		.word	0
 2966 0cc4 20000000 		.word	32
 2967 0cc8 00000000 		.word	String_Element_funcs
 2968 0ccc 00000000 		.word	DeleteTrailingSpaces
 2969              		.global	LFPData2Desc
 2970              		.align	2
 2973              	LFPData2Desc:
 2974 0cd0 02000000 		.word	2
 2975 0cd4 4C0B0000 		.word	.LC139
 2976 0cd8 01000000 		.word	1
 2977 0cdc 00000000 		.word	0
 2978 0ce0 01000000 		.word	1
 2979 0ce4 04000000 		.word	4
 2980 0ce8 04000000 		.word	4
 2981 0cec 08000000 		.word	EeeP_LFP2_Cfg+8
 2982 0cf0 00000000 		.word	0
 2983 0cf4 00000000 		.word	0
 2984 0cf8 00000000 		.word	0
 2985 0cfc 20000000 		.word	32
 2986 0d00 00000000 		.word	Token_Element_funcs
 2987 0d04 00000000 		.word	InsideCrcTL
 2988 0d08 02000000 		.word	2
 2989 0d0c 580B0000 		.word	.LC140
 2990 0d10 00000000 		.word	0
 2991 0d14 00000000 		.word	0
 2992 0d18 01000000 		.word	1
 2993 0d1c 04000000 		.word	4
 2994 0d20 04000000 		.word	4
 2995 0d24 0C000000 		.word	EeeP_LFP2_Cfg+12
 2996 0d28 00000000 		.word	0
 2997 0d2c 00000000 		.word	0
 2998 0d30 00000000 		.word	0
 2999 0d34 20000000 		.word	32
 3000 0d38 00000000 		.word	Number_Element_funcs
 3001 0d3c 00000000 		.word	ValidMinSizeDesc
 3002 0d40 02000000 		.word	2
 3003 0d44 680B0000 		.word	.LC141
 3004 0d48 00000000 		.word	0
 3005 0d4c 00000000 		.word	0
 3006 0d50 01000000 		.word	1
 3007 0d54 01000000 		.word	1
 3008 0d58 04000000 		.word	4
 3009 0d5c 10000000 		.word	EeeP_LFP2_Cfg+16
 3010 0d60 00000000 		.word	0
ARM GAS  /tmp/ccE14h5r.s 			page 67


 3011 0d64 00000000 		.word	0
 3012 0d68 00000000 		.word	0
 3013 0d6c 08000000 		.word	8
 3014 0d70 00000000 		.word	Number_Element_funcs
 3015 0d74 00000000 		.word	UINT8RangeDesc
 3016 0d78 02000000 		.word	2
 3017 0d7c 3C0C0000 		.word	.LC160
 3018 0d80 01000000 		.word	1
 3019 0d84 00000000 		.word	0
 3020 0d88 01000000 		.word	1
 3021 0d8c 01000000 		.word	1
 3022 0d90 04000000 		.word	4
 3023 0d94 00000000 		.word	EeeP_LFP2_Cfg
 3024 0d98 00000000 		.word	0
 3025 0d9c 00000000 		.word	0
 3026 0da0 00000000 		.word	0
 3027 0da4 08000000 		.word	8
 3028 0da8 00000000 		.word	Token_Element_funcs
 3029 0dac 00000000 		.word	DisplayInterfaceTL
 3030 0db0 02000000 		.word	2
 3031 0db4 480C0000 		.word	.LC161
 3032 0db8 01000000 		.word	1
 3033 0dbc 00000000 		.word	0
 3034 0dc0 01000000 		.word	1
 3035 0dc4 04000000 		.word	4
 3036 0dc8 04000000 		.word	4
 3037 0dcc 04000000 		.word	EeeP_LFP2_Cfg+4
 3038 0dd0 00000000 		.word	0
 3039 0dd4 00000000 		.word	0
 3040 0dd8 00000000 		.word	0
 3041 0ddc 20000000 		.word	32
 3042 0de0 00000000 		.word	String_Element_funcs
 3043 0de4 00000000 		.word	DeleteTrailingSpaces
 3044              		.global	LFPData3Desc
 3045              		.align	2
 3048              	LFPData3Desc:
 3049 0de8 02000000 		.word	2
 3050 0dec 4C0B0000 		.word	.LC139
 3051 0df0 01000000 		.word	1
 3052 0df4 00000000 		.word	0
 3053 0df8 01000000 		.word	1
 3054 0dfc 04000000 		.word	4
 3055 0e00 04000000 		.word	4
 3056 0e04 08000000 		.word	EeeP_LFP3_Cfg+8
 3057 0e08 00000000 		.word	0
 3058 0e0c 00000000 		.word	0
 3059 0e10 00000000 		.word	0
 3060 0e14 20000000 		.word	32
 3061 0e18 00000000 		.word	Token_Element_funcs
 3062 0e1c 00000000 		.word	InsideCrcTL
 3063 0e20 02000000 		.word	2
 3064 0e24 580B0000 		.word	.LC140
 3065 0e28 00000000 		.word	0
 3066 0e2c 00000000 		.word	0
 3067 0e30 01000000 		.word	1
 3068 0e34 04000000 		.word	4
 3069 0e38 04000000 		.word	4
ARM GAS  /tmp/ccE14h5r.s 			page 68


 3070 0e3c 0C000000 		.word	EeeP_LFP3_Cfg+12
 3071 0e40 00000000 		.word	0
 3072 0e44 00000000 		.word	0
 3073 0e48 00000000 		.word	0
 3074 0e4c 20000000 		.word	32
 3075 0e50 00000000 		.word	Number_Element_funcs
 3076 0e54 00000000 		.word	ValidMinSizeDesc
 3077 0e58 02000000 		.word	2
 3078 0e5c 680B0000 		.word	.LC141
 3079 0e60 00000000 		.word	0
 3080 0e64 00000000 		.word	0
 3081 0e68 01000000 		.word	1
 3082 0e6c 01000000 		.word	1
 3083 0e70 04000000 		.word	4
 3084 0e74 10000000 		.word	EeeP_LFP3_Cfg+16
 3085 0e78 00000000 		.word	0
 3086 0e7c 00000000 		.word	0
 3087 0e80 00000000 		.word	0
 3088 0e84 08000000 		.word	8
 3089 0e88 00000000 		.word	Number_Element_funcs
 3090 0e8c 00000000 		.word	UINT8RangeDesc
 3091 0e90 02000000 		.word	2
 3092 0e94 3C0C0000 		.word	.LC160
 3093 0e98 01000000 		.word	1
 3094 0e9c 00000000 		.word	0
 3095 0ea0 01000000 		.word	1
 3096 0ea4 01000000 		.word	1
 3097 0ea8 04000000 		.word	4
 3098 0eac 00000000 		.word	EeeP_LFP3_Cfg
 3099 0eb0 00000000 		.word	0
 3100 0eb4 00000000 		.word	0
 3101 0eb8 00000000 		.word	0
 3102 0ebc 08000000 		.word	8
 3103 0ec0 00000000 		.word	Token_Element_funcs
 3104 0ec4 00000000 		.word	DisplayInterfaceTL
 3105 0ec8 02000000 		.word	2
 3106 0ecc 480C0000 		.word	.LC161
 3107 0ed0 01000000 		.word	1
 3108 0ed4 00000000 		.word	0
 3109 0ed8 01000000 		.word	1
 3110 0edc 04000000 		.word	4
 3111 0ee0 04000000 		.word	4
 3112 0ee4 04000000 		.word	EeeP_LFP3_Cfg+4
 3113 0ee8 00000000 		.word	0
 3114 0eec 00000000 		.word	0
 3115 0ef0 00000000 		.word	0
 3116 0ef4 20000000 		.word	32
 3117 0ef8 00000000 		.word	String_Element_funcs
 3118 0efc 00000000 		.word	DeleteTrailingSpaces
 3119              		.global	VendorBlock0Desc
 3120              		.section	.rodata
 3121 0c51 000000   		.align	2
 3122              	.LC162:
 3123 0c54 56656E64 		.ascii	"VendorId\000"
 3123      6F724964 
 3123      00
 3124 0c5d 000000   		.align	2
ARM GAS  /tmp/ccE14h5r.s 			page 69


 3125              	.LC163:
 3126 0c60 56656E64 		.ascii	"VendorSpecificBlockId\000"
 3126      6F725370 
 3126      65636966 
 3126      6963426C 
 3126      6F636B49 
 3127              		.section	.data.rel
 3128              		.align	2
 3131              	VendorBlock0Desc:
 3132 0f00 02000000 		.word	2
 3133 0f04 4C0B0000 		.word	.LC139
 3134 0f08 01000000 		.word	1
 3135 0f0c 00000000 		.word	0
 3136 0f10 01000000 		.word	1
 3137 0f14 04000000 		.word	4
 3138 0f18 04000000 		.word	4
 3139 0f1c 08000000 		.word	EeeP_VendorBlock0_Cfg+8
 3140 0f20 00000000 		.word	0
 3141 0f24 00000000 		.word	0
 3142 0f28 00000000 		.word	0
 3143 0f2c 20000000 		.word	32
 3144 0f30 00000000 		.word	Token_Element_funcs
 3145 0f34 00000000 		.word	InsideCrcTL
 3146 0f38 02000000 		.word	2
 3147 0f3c 580B0000 		.word	.LC140
 3148 0f40 00000000 		.word	0
 3149 0f44 00000000 		.word	0
 3150 0f48 01000000 		.word	1
 3151 0f4c 04000000 		.word	4
 3152 0f50 04000000 		.word	4
 3153 0f54 0C000000 		.word	EeeP_VendorBlock0_Cfg+12
 3154 0f58 00000000 		.word	0
 3155 0f5c 00000000 		.word	0
 3156 0f60 00000000 		.word	0
 3157 0f64 20000000 		.word	32
 3158 0f68 00000000 		.word	Number_Element_funcs
 3159 0f6c 00000000 		.word	ValidMinSizeDesc
 3160 0f70 02000000 		.word	2
 3161 0f74 680B0000 		.word	.LC141
 3162 0f78 00000000 		.word	0
 3163 0f7c 00000000 		.word	0
 3164 0f80 01000000 		.word	1
 3165 0f84 01000000 		.word	1
 3166 0f88 04000000 		.word	4
 3167 0f8c 10000000 		.word	EeeP_VendorBlock0_Cfg+16
 3168 0f90 00000000 		.word	0
 3169 0f94 00000000 		.word	0
 3170 0f98 00000000 		.word	0
 3171 0f9c 08000000 		.word	8
 3172 0fa0 00000000 		.word	Number_Element_funcs
 3173 0fa4 00000000 		.word	UINT8RangeDesc
 3174 0fa8 02000000 		.word	2
 3175 0fac 540C0000 		.word	.LC162
 3176 0fb0 01000000 		.word	1
 3177 0fb4 00000000 		.word	0
 3178 0fb8 01000000 		.word	1
 3179 0fbc 02000000 		.word	2
ARM GAS  /tmp/ccE14h5r.s 			page 70


 3180 0fc0 04000000 		.word	4
 3181 0fc4 04000000 		.word	EeeP_VendorBlock0_Cfg+4
 3182 0fc8 00000000 		.word	0
 3183 0fcc 00000000 		.word	0
 3184 0fd0 00000000 		.word	0
 3185 0fd4 10000000 		.word	16
 3186 0fd8 00000000 		.word	PNPID_Element_funcs
 3187 0fdc 00000000 		.word	0
 3188 0fe0 02000000 		.word	2
 3189 0fe4 600C0000 		.word	.LC163
 3190 0fe8 01000000 		.word	1
 3191 0fec 00000000 		.word	0
 3192 0ff0 01000000 		.word	1
 3193 0ff4 01000000 		.word	1
 3194 0ff8 04000000 		.word	4
 3195 0ffc 11000000 		.word	EeeP_VendorBlock0_Cfg+17
 3196 1000 00000000 		.word	0
 3197 1004 00000000 		.word	0
 3198 1008 00000000 		.word	0
 3199 100c 08000000 		.word	8
 3200 1010 00000000 		.word	Number_Element_funcs
 3201 1014 00000000 		.word	UINT8RangeDesc
 3202 1018 02000000 		.word	2
 3203 101c 480C0000 		.word	.LC161
 3204 1020 01000000 		.word	1
 3205 1024 00000000 		.word	0
 3206 1028 01000000 		.word	1
 3207 102c 04000000 		.word	4
 3208 1030 04000000 		.word	4
 3209 1034 00000000 		.word	EeeP_VendorBlock0_Cfg
 3210 1038 00000000 		.word	0
 3211 103c 00000000 		.word	0
 3212 1040 00000000 		.word	0
 3213 1044 20000000 		.word	32
 3214 1048 00000000 		.word	String_Element_funcs
 3215 104c 00000000 		.word	DeleteTrailingSpaces
 3216              		.global	VendorBlock1Desc
 3217              		.align	2
 3220              	VendorBlock1Desc:
 3221 1050 02000000 		.word	2
 3222 1054 4C0B0000 		.word	.LC139
 3223 1058 01000000 		.word	1
 3224 105c 00000000 		.word	0
 3225 1060 01000000 		.word	1
 3226 1064 04000000 		.word	4
 3227 1068 04000000 		.word	4
 3228 106c 08000000 		.word	EeeP_VendorBlock1_Cfg+8
 3229 1070 00000000 		.word	0
 3230 1074 00000000 		.word	0
 3231 1078 00000000 		.word	0
 3232 107c 20000000 		.word	32
 3233 1080 00000000 		.word	Token_Element_funcs
 3234 1084 00000000 		.word	InsideCrcTL
 3235 1088 02000000 		.word	2
 3236 108c 580B0000 		.word	.LC140
 3237 1090 00000000 		.word	0
 3238 1094 00000000 		.word	0
ARM GAS  /tmp/ccE14h5r.s 			page 71


 3239 1098 01000000 		.word	1
 3240 109c 04000000 		.word	4
 3241 10a0 04000000 		.word	4
 3242 10a4 0C000000 		.word	EeeP_VendorBlock1_Cfg+12
 3243 10a8 00000000 		.word	0
 3244 10ac 00000000 		.word	0
 3245 10b0 00000000 		.word	0
 3246 10b4 20000000 		.word	32
 3247 10b8 00000000 		.word	Number_Element_funcs
 3248 10bc 00000000 		.word	ValidMinSizeDesc
 3249 10c0 02000000 		.word	2
 3250 10c4 680B0000 		.word	.LC141
 3251 10c8 00000000 		.word	0
 3252 10cc 00000000 		.word	0
 3253 10d0 01000000 		.word	1
 3254 10d4 01000000 		.word	1
 3255 10d8 04000000 		.word	4
 3256 10dc 10000000 		.word	EeeP_VendorBlock1_Cfg+16
 3257 10e0 00000000 		.word	0
 3258 10e4 00000000 		.word	0
 3259 10e8 00000000 		.word	0
 3260 10ec 08000000 		.word	8
 3261 10f0 00000000 		.word	Number_Element_funcs
 3262 10f4 00000000 		.word	UINT8RangeDesc
 3263 10f8 02000000 		.word	2
 3264 10fc 540C0000 		.word	.LC162
 3265 1100 01000000 		.word	1
 3266 1104 00000000 		.word	0
 3267 1108 01000000 		.word	1
 3268 110c 02000000 		.word	2
 3269 1110 04000000 		.word	4
 3270 1114 04000000 		.word	EeeP_VendorBlock1_Cfg+4
 3271 1118 00000000 		.word	0
 3272 111c 00000000 		.word	0
 3273 1120 00000000 		.word	0
 3274 1124 10000000 		.word	16
 3275 1128 00000000 		.word	PNPID_Element_funcs
 3276 112c 00000000 		.word	0
 3277 1130 02000000 		.word	2
 3278 1134 600C0000 		.word	.LC163
 3279 1138 01000000 		.word	1
 3280 113c 00000000 		.word	0
 3281 1140 01000000 		.word	1
 3282 1144 01000000 		.word	1
 3283 1148 04000000 		.word	4
 3284 114c 11000000 		.word	EeeP_VendorBlock1_Cfg+17
 3285 1150 00000000 		.word	0
 3286 1154 00000000 		.word	0
 3287 1158 00000000 		.word	0
 3288 115c 08000000 		.word	8
 3289 1160 00000000 		.word	Number_Element_funcs
 3290 1164 00000000 		.word	UINT8RangeDesc
 3291 1168 02000000 		.word	2
 3292 116c 480C0000 		.word	.LC161
 3293 1170 01000000 		.word	1
 3294 1174 00000000 		.word	0
 3295 1178 01000000 		.word	1
ARM GAS  /tmp/ccE14h5r.s 			page 72


 3296 117c 04000000 		.word	4
 3297 1180 04000000 		.word	4
 3298 1184 00000000 		.word	EeeP_VendorBlock1_Cfg
 3299 1188 00000000 		.word	0
 3300 118c 00000000 		.word	0
 3301 1190 00000000 		.word	0
 3302 1194 20000000 		.word	32
 3303 1198 00000000 		.word	String_Element_funcs
 3304 119c 00000000 		.word	DeleteTrailingSpaces
 3305              		.global	VendorBlock2Desc
 3306              		.align	2
 3309              	VendorBlock2Desc:
 3310 11a0 02000000 		.word	2
 3311 11a4 4C0B0000 		.word	.LC139
 3312 11a8 01000000 		.word	1
 3313 11ac 00000000 		.word	0
 3314 11b0 01000000 		.word	1
 3315 11b4 04000000 		.word	4
 3316 11b8 04000000 		.word	4
 3317 11bc 08000000 		.word	EeeP_VendorBlock2_Cfg+8
 3318 11c0 00000000 		.word	0
 3319 11c4 00000000 		.word	0
 3320 11c8 00000000 		.word	0
 3321 11cc 20000000 		.word	32
 3322 11d0 00000000 		.word	Token_Element_funcs
 3323 11d4 00000000 		.word	InsideCrcTL
 3324 11d8 02000000 		.word	2
 3325 11dc 580B0000 		.word	.LC140
 3326 11e0 00000000 		.word	0
 3327 11e4 00000000 		.word	0
 3328 11e8 01000000 		.word	1
 3329 11ec 04000000 		.word	4
 3330 11f0 04000000 		.word	4
 3331 11f4 0C000000 		.word	EeeP_VendorBlock2_Cfg+12
 3332 11f8 00000000 		.word	0
 3333 11fc 00000000 		.word	0
 3334 1200 00000000 		.word	0
 3335 1204 20000000 		.word	32
 3336 1208 00000000 		.word	Number_Element_funcs
 3337 120c 00000000 		.word	ValidMinSizeDesc
 3338 1210 02000000 		.word	2
 3339 1214 680B0000 		.word	.LC141
 3340 1218 00000000 		.word	0
 3341 121c 00000000 		.word	0
 3342 1220 01000000 		.word	1
 3343 1224 01000000 		.word	1
 3344 1228 04000000 		.word	4
 3345 122c 10000000 		.word	EeeP_VendorBlock2_Cfg+16
 3346 1230 00000000 		.word	0
 3347 1234 00000000 		.word	0
 3348 1238 00000000 		.word	0
 3349 123c 08000000 		.word	8
 3350 1240 00000000 		.word	Number_Element_funcs
 3351 1244 00000000 		.word	UINT8RangeDesc
 3352 1248 02000000 		.word	2
 3353 124c 540C0000 		.word	.LC162
 3354 1250 01000000 		.word	1
ARM GAS  /tmp/ccE14h5r.s 			page 73


 3355 1254 00000000 		.word	0
 3356 1258 01000000 		.word	1
 3357 125c 02000000 		.word	2
 3358 1260 04000000 		.word	4
 3359 1264 04000000 		.word	EeeP_VendorBlock2_Cfg+4
 3360 1268 00000000 		.word	0
 3361 126c 00000000 		.word	0
 3362 1270 00000000 		.word	0
 3363 1274 10000000 		.word	16
 3364 1278 00000000 		.word	PNPID_Element_funcs
 3365 127c 00000000 		.word	0
 3366 1280 02000000 		.word	2
 3367 1284 600C0000 		.word	.LC163
 3368 1288 01000000 		.word	1
 3369 128c 00000000 		.word	0
 3370 1290 01000000 		.word	1
 3371 1294 01000000 		.word	1
 3372 1298 04000000 		.word	4
 3373 129c 11000000 		.word	EeeP_VendorBlock2_Cfg+17
 3374 12a0 00000000 		.word	0
 3375 12a4 00000000 		.word	0
 3376 12a8 00000000 		.word	0
 3377 12ac 08000000 		.word	8
 3378 12b0 00000000 		.word	Number_Element_funcs
 3379 12b4 00000000 		.word	UINT8RangeDesc
 3380 12b8 02000000 		.word	2
 3381 12bc 480C0000 		.word	.LC161
 3382 12c0 01000000 		.word	1
 3383 12c4 00000000 		.word	0
 3384 12c8 01000000 		.word	1
 3385 12cc 04000000 		.word	4
 3386 12d0 04000000 		.word	4
 3387 12d4 00000000 		.word	EeeP_VendorBlock2_Cfg
 3388 12d8 00000000 		.word	0
 3389 12dc 00000000 		.word	0
 3390 12e0 00000000 		.word	0
 3391 12e4 20000000 		.word	32
 3392 12e8 00000000 		.word	String_Element_funcs
 3393 12ec 00000000 		.word	DeleteTrailingSpaces
 3394              		.global	VendorBlock3Desc
 3395              		.align	2
 3398              	VendorBlock3Desc:
 3399 12f0 02000000 		.word	2
 3400 12f4 4C0B0000 		.word	.LC139
 3401 12f8 01000000 		.word	1
 3402 12fc 00000000 		.word	0
 3403 1300 01000000 		.word	1
 3404 1304 04000000 		.word	4
 3405 1308 04000000 		.word	4
 3406 130c 08000000 		.word	EeeP_VendorBlock3_Cfg+8
 3407 1310 00000000 		.word	0
 3408 1314 00000000 		.word	0
 3409 1318 00000000 		.word	0
 3410 131c 20000000 		.word	32
 3411 1320 00000000 		.word	Token_Element_funcs
 3412 1324 00000000 		.word	InsideCrcTL
 3413 1328 02000000 		.word	2
ARM GAS  /tmp/ccE14h5r.s 			page 74


 3414 132c 580B0000 		.word	.LC140
 3415 1330 00000000 		.word	0
 3416 1334 00000000 		.word	0
 3417 1338 01000000 		.word	1
 3418 133c 04000000 		.word	4
 3419 1340 04000000 		.word	4
 3420 1344 0C000000 		.word	EeeP_VendorBlock3_Cfg+12
 3421 1348 00000000 		.word	0
 3422 134c 00000000 		.word	0
 3423 1350 00000000 		.word	0
 3424 1354 20000000 		.word	32
 3425 1358 00000000 		.word	Number_Element_funcs
 3426 135c 00000000 		.word	ValidMinSizeDesc
 3427 1360 02000000 		.word	2
 3428 1364 680B0000 		.word	.LC141
 3429 1368 00000000 		.word	0
 3430 136c 00000000 		.word	0
 3431 1370 01000000 		.word	1
 3432 1374 01000000 		.word	1
 3433 1378 04000000 		.word	4
 3434 137c 10000000 		.word	EeeP_VendorBlock3_Cfg+16
 3435 1380 00000000 		.word	0
 3436 1384 00000000 		.word	0
 3437 1388 00000000 		.word	0
 3438 138c 08000000 		.word	8
 3439 1390 00000000 		.word	Number_Element_funcs
 3440 1394 00000000 		.word	UINT8RangeDesc
 3441 1398 02000000 		.word	2
 3442 139c 540C0000 		.word	.LC162
 3443 13a0 01000000 		.word	1
 3444 13a4 00000000 		.word	0
 3445 13a8 01000000 		.word	1
 3446 13ac 02000000 		.word	2
 3447 13b0 04000000 		.word	4
 3448 13b4 04000000 		.word	EeeP_VendorBlock3_Cfg+4
 3449 13b8 00000000 		.word	0
 3450 13bc 00000000 		.word	0
 3451 13c0 00000000 		.word	0
 3452 13c4 10000000 		.word	16
 3453 13c8 00000000 		.word	PNPID_Element_funcs
 3454 13cc 00000000 		.word	0
 3455 13d0 02000000 		.word	2
 3456 13d4 600C0000 		.word	.LC163
 3457 13d8 01000000 		.word	1
 3458 13dc 00000000 		.word	0
 3459 13e0 01000000 		.word	1
 3460 13e4 01000000 		.word	1
 3461 13e8 04000000 		.word	4
 3462 13ec 11000000 		.word	EeeP_VendorBlock3_Cfg+17
 3463 13f0 00000000 		.word	0
 3464 13f4 00000000 		.word	0
 3465 13f8 00000000 		.word	0
 3466 13fc 08000000 		.word	8
 3467 1400 00000000 		.word	Number_Element_funcs
 3468 1404 00000000 		.word	UINT8RangeDesc
 3469 1408 02000000 		.word	2
 3470 140c 480C0000 		.word	.LC161
ARM GAS  /tmp/ccE14h5r.s 			page 75


 3471 1410 01000000 		.word	1
 3472 1414 00000000 		.word	0
 3473 1418 01000000 		.word	1
 3474 141c 04000000 		.word	4
 3475 1420 04000000 		.word	4
 3476 1424 00000000 		.word	EeeP_VendorBlock3_Cfg
 3477 1428 00000000 		.word	0
 3478 142c 00000000 		.word	0
 3479 1430 00000000 		.word	0
 3480 1434 20000000 		.word	32
 3481 1438 00000000 		.word	String_Element_funcs
 3482 143c 00000000 		.word	DeleteTrailingSpaces
 3483              		.global	VendorBlock4Desc
 3484              		.align	2
 3487              	VendorBlock4Desc:
 3488 1440 02000000 		.word	2
 3489 1444 4C0B0000 		.word	.LC139
 3490 1448 01000000 		.word	1
 3491 144c 00000000 		.word	0
 3492 1450 01000000 		.word	1
 3493 1454 04000000 		.word	4
 3494 1458 04000000 		.word	4
 3495 145c 08000000 		.word	EeeP_VendorBlock4_Cfg+8
 3496 1460 00000000 		.word	0
 3497 1464 00000000 		.word	0
 3498 1468 00000000 		.word	0
 3499 146c 20000000 		.word	32
 3500 1470 00000000 		.word	Token_Element_funcs
 3501 1474 00000000 		.word	InsideCrcTL
 3502 1478 02000000 		.word	2
 3503 147c 580B0000 		.word	.LC140
 3504 1480 00000000 		.word	0
 3505 1484 00000000 		.word	0
 3506 1488 01000000 		.word	1
 3507 148c 04000000 		.word	4
 3508 1490 04000000 		.word	4
 3509 1494 0C000000 		.word	EeeP_VendorBlock4_Cfg+12
 3510 1498 00000000 		.word	0
 3511 149c 00000000 		.word	0
 3512 14a0 00000000 		.word	0
 3513 14a4 20000000 		.word	32
 3514 14a8 00000000 		.word	Number_Element_funcs
 3515 14ac 00000000 		.word	ValidMinSizeDesc
 3516 14b0 02000000 		.word	2
 3517 14b4 680B0000 		.word	.LC141
 3518 14b8 00000000 		.word	0
 3519 14bc 00000000 		.word	0
 3520 14c0 01000000 		.word	1
 3521 14c4 01000000 		.word	1
 3522 14c8 04000000 		.word	4
 3523 14cc 10000000 		.word	EeeP_VendorBlock4_Cfg+16
 3524 14d0 00000000 		.word	0
 3525 14d4 00000000 		.word	0
 3526 14d8 00000000 		.word	0
 3527 14dc 08000000 		.word	8
 3528 14e0 00000000 		.word	Number_Element_funcs
 3529 14e4 00000000 		.word	UINT8RangeDesc
ARM GAS  /tmp/ccE14h5r.s 			page 76


 3530 14e8 02000000 		.word	2
 3531 14ec 540C0000 		.word	.LC162
 3532 14f0 01000000 		.word	1
 3533 14f4 00000000 		.word	0
 3534 14f8 01000000 		.word	1
 3535 14fc 02000000 		.word	2
 3536 1500 04000000 		.word	4
 3537 1504 04000000 		.word	EeeP_VendorBlock4_Cfg+4
 3538 1508 00000000 		.word	0
 3539 150c 00000000 		.word	0
 3540 1510 00000000 		.word	0
 3541 1514 10000000 		.word	16
 3542 1518 00000000 		.word	PNPID_Element_funcs
 3543 151c 00000000 		.word	0
 3544 1520 02000000 		.word	2
 3545 1524 600C0000 		.word	.LC163
 3546 1528 01000000 		.word	1
 3547 152c 00000000 		.word	0
 3548 1530 01000000 		.word	1
 3549 1534 01000000 		.word	1
 3550 1538 04000000 		.word	4
 3551 153c 11000000 		.word	EeeP_VendorBlock4_Cfg+17
 3552 1540 00000000 		.word	0
 3553 1544 00000000 		.word	0
 3554 1548 00000000 		.word	0
 3555 154c 08000000 		.word	8
 3556 1550 00000000 		.word	Number_Element_funcs
 3557 1554 00000000 		.word	UINT8RangeDesc
 3558 1558 02000000 		.word	2
 3559 155c 480C0000 		.word	.LC161
 3560 1560 01000000 		.word	1
 3561 1564 00000000 		.word	0
 3562 1568 01000000 		.word	1
 3563 156c 04000000 		.word	4
 3564 1570 04000000 		.word	4
 3565 1574 00000000 		.word	EeeP_VendorBlock4_Cfg
 3566 1578 00000000 		.word	0
 3567 157c 00000000 		.word	0
 3568 1580 00000000 		.word	0
 3569 1584 20000000 		.word	32
 3570 1588 00000000 		.word	String_Element_funcs
 3571 158c 00000000 		.word	0
 3572              		.global	VendorBlock5Desc
 3573              		.align	2
 3576              	VendorBlock5Desc:
 3577 1590 02000000 		.word	2
 3578 1594 4C0B0000 		.word	.LC139
 3579 1598 01000000 		.word	1
 3580 159c 00000000 		.word	0
 3581 15a0 01000000 		.word	1
 3582 15a4 04000000 		.word	4
 3583 15a8 04000000 		.word	4
 3584 15ac 08000000 		.word	EeeP_VendorBlock5_Cfg+8
 3585 15b0 00000000 		.word	0
 3586 15b4 00000000 		.word	0
 3587 15b8 00000000 		.word	0
 3588 15bc 20000000 		.word	32
ARM GAS  /tmp/ccE14h5r.s 			page 77


 3589 15c0 00000000 		.word	Token_Element_funcs
 3590 15c4 00000000 		.word	InsideCrcTL
 3591 15c8 02000000 		.word	2
 3592 15cc 580B0000 		.word	.LC140
 3593 15d0 00000000 		.word	0
 3594 15d4 00000000 		.word	0
 3595 15d8 01000000 		.word	1
 3596 15dc 04000000 		.word	4
 3597 15e0 04000000 		.word	4
 3598 15e4 0C000000 		.word	EeeP_VendorBlock5_Cfg+12
 3599 15e8 00000000 		.word	0
 3600 15ec 00000000 		.word	0
 3601 15f0 00000000 		.word	0
 3602 15f4 20000000 		.word	32
 3603 15f8 00000000 		.word	Number_Element_funcs
 3604 15fc 00000000 		.word	ValidMinSizeDesc
 3605 1600 02000000 		.word	2
 3606 1604 680B0000 		.word	.LC141
 3607 1608 00000000 		.word	0
 3608 160c 00000000 		.word	0
 3609 1610 01000000 		.word	1
 3610 1614 01000000 		.word	1
 3611 1618 04000000 		.word	4
 3612 161c 10000000 		.word	EeeP_VendorBlock5_Cfg+16
 3613 1620 00000000 		.word	0
 3614 1624 00000000 		.word	0
 3615 1628 00000000 		.word	0
 3616 162c 08000000 		.word	8
 3617 1630 00000000 		.word	Number_Element_funcs
 3618 1634 00000000 		.word	UINT8RangeDesc
 3619 1638 02000000 		.word	2
 3620 163c 540C0000 		.word	.LC162
 3621 1640 01000000 		.word	1
 3622 1644 00000000 		.word	0
 3623 1648 01000000 		.word	1
 3624 164c 02000000 		.word	2
 3625 1650 04000000 		.word	4
 3626 1654 04000000 		.word	EeeP_VendorBlock5_Cfg+4
 3627 1658 00000000 		.word	0
 3628 165c 00000000 		.word	0
 3629 1660 00000000 		.word	0
 3630 1664 10000000 		.word	16
 3631 1668 00000000 		.word	PNPID_Element_funcs
 3632 166c 00000000 		.word	0
 3633 1670 02000000 		.word	2
 3634 1674 600C0000 		.word	.LC163
 3635 1678 01000000 		.word	1
 3636 167c 00000000 		.word	0
 3637 1680 01000000 		.word	1
 3638 1684 01000000 		.word	1
 3639 1688 04000000 		.word	4
 3640 168c 11000000 		.word	EeeP_VendorBlock5_Cfg+17
 3641 1690 00000000 		.word	0
 3642 1694 00000000 		.word	0
 3643 1698 00000000 		.word	0
 3644 169c 08000000 		.word	8
 3645 16a0 00000000 		.word	Number_Element_funcs
ARM GAS  /tmp/ccE14h5r.s 			page 78


 3646 16a4 00000000 		.word	UINT8RangeDesc
 3647 16a8 02000000 		.word	2
 3648 16ac 480C0000 		.word	.LC161
 3649 16b0 01000000 		.word	1
 3650 16b4 00000000 		.word	0
 3651 16b8 01000000 		.word	1
 3652 16bc 04000000 		.word	4
 3653 16c0 04000000 		.word	4
 3654 16c4 00000000 		.word	EeeP_VendorBlock5_Cfg
 3655 16c8 00000000 		.word	0
 3656 16cc 00000000 		.word	0
 3657 16d0 00000000 		.word	0
 3658 16d4 20000000 		.word	32
 3659 16d8 00000000 		.word	String_Element_funcs
 3660 16dc 00000000 		.word	DeleteTrailingSpaces
 3661              		.global	VendorBlock6Desc
 3662              		.align	2
 3665              	VendorBlock6Desc:
 3666 16e0 02000000 		.word	2
 3667 16e4 4C0B0000 		.word	.LC139
 3668 16e8 01000000 		.word	1
 3669 16ec 00000000 		.word	0
 3670 16f0 01000000 		.word	1
 3671 16f4 04000000 		.word	4
 3672 16f8 04000000 		.word	4
 3673 16fc 08000000 		.word	EeeP_VendorBlock6_Cfg+8
 3674 1700 00000000 		.word	0
 3675 1704 00000000 		.word	0
 3676 1708 00000000 		.word	0
 3677 170c 20000000 		.word	32
 3678 1710 00000000 		.word	Token_Element_funcs
 3679 1714 00000000 		.word	InsideCrcTL
 3680 1718 02000000 		.word	2
 3681 171c 580B0000 		.word	.LC140
 3682 1720 00000000 		.word	0
 3683 1724 00000000 		.word	0
 3684 1728 01000000 		.word	1
 3685 172c 04000000 		.word	4
 3686 1730 04000000 		.word	4
 3687 1734 0C000000 		.word	EeeP_VendorBlock6_Cfg+12
 3688 1738 00000000 		.word	0
 3689 173c 00000000 		.word	0
 3690 1740 00000000 		.word	0
 3691 1744 20000000 		.word	32
 3692 1748 00000000 		.word	Number_Element_funcs
 3693 174c 00000000 		.word	ValidMinSizeDesc
 3694 1750 02000000 		.word	2
 3695 1754 680B0000 		.word	.LC141
 3696 1758 00000000 		.word	0
 3697 175c 00000000 		.word	0
 3698 1760 01000000 		.word	1
 3699 1764 01000000 		.word	1
 3700 1768 04000000 		.word	4
 3701 176c 10000000 		.word	EeeP_VendorBlock6_Cfg+16
 3702 1770 00000000 		.word	0
 3703 1774 00000000 		.word	0
 3704 1778 00000000 		.word	0
ARM GAS  /tmp/ccE14h5r.s 			page 79


 3705 177c 08000000 		.word	8
 3706 1780 00000000 		.word	Number_Element_funcs
 3707 1784 00000000 		.word	UINT8RangeDesc
 3708 1788 02000000 		.word	2
 3709 178c 540C0000 		.word	.LC162
 3710 1790 01000000 		.word	1
 3711 1794 00000000 		.word	0
 3712 1798 01000000 		.word	1
 3713 179c 02000000 		.word	2
 3714 17a0 04000000 		.word	4
 3715 17a4 04000000 		.word	EeeP_VendorBlock6_Cfg+4
 3716 17a8 00000000 		.word	0
 3717 17ac 00000000 		.word	0
 3718 17b0 00000000 		.word	0
 3719 17b4 10000000 		.word	16
 3720 17b8 00000000 		.word	PNPID_Element_funcs
 3721 17bc 00000000 		.word	0
 3722 17c0 02000000 		.word	2
 3723 17c4 600C0000 		.word	.LC163
 3724 17c8 01000000 		.word	1
 3725 17cc 00000000 		.word	0
 3726 17d0 01000000 		.word	1
 3727 17d4 01000000 		.word	1
 3728 17d8 04000000 		.word	4
 3729 17dc 11000000 		.word	EeeP_VendorBlock6_Cfg+17
 3730 17e0 00000000 		.word	0
 3731 17e4 00000000 		.word	0
 3732 17e8 00000000 		.word	0
 3733 17ec 08000000 		.word	8
 3734 17f0 00000000 		.word	Number_Element_funcs
 3735 17f4 00000000 		.word	UINT8RangeDesc
 3736 17f8 02000000 		.word	2
 3737 17fc 480C0000 		.word	.LC161
 3738 1800 01000000 		.word	1
 3739 1804 00000000 		.word	0
 3740 1808 01000000 		.word	1
 3741 180c 04000000 		.word	4
 3742 1810 04000000 		.word	4
 3743 1814 00000000 		.word	EeeP_VendorBlock6_Cfg
 3744 1818 00000000 		.word	0
 3745 181c 00000000 		.word	0
 3746 1820 00000000 		.word	0
 3747 1824 20000000 		.word	32
 3748 1828 00000000 		.word	String_Element_funcs
 3749 182c 00000000 		.word	DeleteTrailingSpaces
 3750              		.global	CustomBlock0Desc
 3751              		.section	.rodata
 3752 0c76 0000     		.align	2
 3753              	.LC164:
 3754 0c78 426C6F63 		.ascii	"BlockId\000"
 3754      6B496400 
 3755              		.section	.data.rel
 3756              		.align	2
 3759              	CustomBlock0Desc:
 3760 1830 02000000 		.word	2
 3761 1834 4C0B0000 		.word	.LC139
 3762 1838 01000000 		.word	1
ARM GAS  /tmp/ccE14h5r.s 			page 80


 3763 183c 00000000 		.word	0
 3764 1840 01000000 		.word	1
 3765 1844 04000000 		.word	4
 3766 1848 04000000 		.word	4
 3767 184c 08000000 		.word	EeeP_CustomBlock0_Cfg+8
 3768 1850 00000000 		.word	0
 3769 1854 00000000 		.word	0
 3770 1858 00000000 		.word	0
 3771 185c 20000000 		.word	32
 3772 1860 00000000 		.word	Token_Element_funcs
 3773 1864 00000000 		.word	InsideCrcTL
 3774 1868 02000000 		.word	2
 3775 186c 580B0000 		.word	.LC140
 3776 1870 00000000 		.word	0
 3777 1874 00000000 		.word	0
 3778 1878 01000000 		.word	1
 3779 187c 04000000 		.word	4
 3780 1880 04000000 		.word	4
 3781 1884 0C000000 		.word	EeeP_CustomBlock0_Cfg+12
 3782 1888 00000000 		.word	0
 3783 188c 00000000 		.word	0
 3784 1890 00000000 		.word	0
 3785 1894 20000000 		.word	32
 3786 1898 00000000 		.word	Number_Element_funcs
 3787 189c 00000000 		.word	ValidMinSizeDesc
 3788 18a0 02000000 		.word	2
 3789 18a4 680B0000 		.word	.LC141
 3790 18a8 00000000 		.word	0
 3791 18ac 00000000 		.word	0
 3792 18b0 01000000 		.word	1
 3793 18b4 01000000 		.word	1
 3794 18b8 04000000 		.word	4
 3795 18bc 10000000 		.word	EeeP_CustomBlock0_Cfg+16
 3796 18c0 00000000 		.word	0
 3797 18c4 00000000 		.word	0
 3798 18c8 00000000 		.word	0
 3799 18cc 08000000 		.word	8
 3800 18d0 00000000 		.word	Number_Element_funcs
 3801 18d4 00000000 		.word	UINT8RangeDesc
 3802 18d8 02000000 		.word	2
 3803 18dc 780C0000 		.word	.LC164
 3804 18e0 01000000 		.word	1
 3805 18e4 00000000 		.word	0
 3806 18e8 01000000 		.word	1
 3807 18ec 01000000 		.word	1
 3808 18f0 04000000 		.word	4
 3809 18f4 00000000 		.word	EeeP_CustomBlock0_Cfg
 3810 18f8 00000000 		.word	0
 3811 18fc 00000000 		.word	0
 3812 1900 00000000 		.word	0
 3813 1904 08000000 		.word	8
 3814 1908 00000000 		.word	Number_Element_funcs
 3815 190c 00000000 		.word	UINT8RangeDesc
 3816 1910 02000000 		.word	2
 3817 1914 480C0000 		.word	.LC161
 3818 1918 01000000 		.word	1
 3819 191c 00000000 		.word	0
ARM GAS  /tmp/ccE14h5r.s 			page 81


 3820 1920 01000000 		.word	1
 3821 1924 04000000 		.word	4
 3822 1928 04000000 		.word	4
 3823 192c 04000000 		.word	EeeP_CustomBlock0_Cfg+4
 3824 1930 00000000 		.word	0
 3825 1934 00000000 		.word	0
 3826 1938 00000000 		.word	0
 3827 193c 20000000 		.word	32
 3828 1940 00000000 		.word	String_Element_funcs
 3829 1944 00000000 		.word	DeleteTrailingSpaces
 3830              		.global	CustomBlock1Desc
 3831              		.align	2
 3834              	CustomBlock1Desc:
 3835 1948 02000000 		.word	2
 3836 194c 4C0B0000 		.word	.LC139
 3837 1950 01000000 		.word	1
 3838 1954 00000000 		.word	0
 3839 1958 01000000 		.word	1
 3840 195c 04000000 		.word	4
 3841 1960 04000000 		.word	4
 3842 1964 08000000 		.word	EeeP_CustomBlock1_Cfg+8
 3843 1968 00000000 		.word	0
 3844 196c 00000000 		.word	0
 3845 1970 00000000 		.word	0
 3846 1974 20000000 		.word	32
 3847 1978 00000000 		.word	Token_Element_funcs
 3848 197c 00000000 		.word	InsideCrcTL
 3849 1980 02000000 		.word	2
 3850 1984 580B0000 		.word	.LC140
 3851 1988 00000000 		.word	0
 3852 198c 00000000 		.word	0
 3853 1990 01000000 		.word	1
 3854 1994 04000000 		.word	4
 3855 1998 04000000 		.word	4
 3856 199c 0C000000 		.word	EeeP_CustomBlock1_Cfg+12
 3857 19a0 00000000 		.word	0
 3858 19a4 00000000 		.word	0
 3859 19a8 00000000 		.word	0
 3860 19ac 20000000 		.word	32
 3861 19b0 00000000 		.word	Number_Element_funcs
 3862 19b4 00000000 		.word	ValidMinSizeDesc
 3863 19b8 02000000 		.word	2
 3864 19bc 680B0000 		.word	.LC141
 3865 19c0 00000000 		.word	0
 3866 19c4 00000000 		.word	0
 3867 19c8 01000000 		.word	1
 3868 19cc 01000000 		.word	1
 3869 19d0 04000000 		.word	4
 3870 19d4 10000000 		.word	EeeP_CustomBlock1_Cfg+16
 3871 19d8 00000000 		.word	0
 3872 19dc 00000000 		.word	0
 3873 19e0 00000000 		.word	0
 3874 19e4 08000000 		.word	8
 3875 19e8 00000000 		.word	Number_Element_funcs
 3876 19ec 00000000 		.word	UINT8RangeDesc
 3877 19f0 02000000 		.word	2
 3878 19f4 780C0000 		.word	.LC164
ARM GAS  /tmp/ccE14h5r.s 			page 82


 3879 19f8 01000000 		.word	1
 3880 19fc 00000000 		.word	0
 3881 1a00 01000000 		.word	1
 3882 1a04 01000000 		.word	1
 3883 1a08 04000000 		.word	4
 3884 1a0c 00000000 		.word	EeeP_CustomBlock1_Cfg
 3885 1a10 00000000 		.word	0
 3886 1a14 00000000 		.word	0
 3887 1a18 00000000 		.word	0
 3888 1a1c 08000000 		.word	8
 3889 1a20 00000000 		.word	Number_Element_funcs
 3890 1a24 00000000 		.word	UINT8RangeDesc
 3891 1a28 02000000 		.word	2
 3892 1a2c 480C0000 		.word	.LC161
 3893 1a30 01000000 		.word	1
 3894 1a34 00000000 		.word	0
 3895 1a38 01000000 		.word	1
 3896 1a3c 04000000 		.word	4
 3897 1a40 04000000 		.word	4
 3898 1a44 04000000 		.word	EeeP_CustomBlock1_Cfg+4
 3899 1a48 00000000 		.word	0
 3900 1a4c 00000000 		.word	0
 3901 1a50 00000000 		.word	0
 3902 1a54 20000000 		.word	32
 3903 1a58 00000000 		.word	String_Element_funcs
 3904 1a5c 00000000 		.word	DeleteTrailingSpaces
 3905              		.global	CustomBlock2Desc
 3906              		.align	2
 3909              	CustomBlock2Desc:
 3910 1a60 02000000 		.word	2
 3911 1a64 4C0B0000 		.word	.LC139
 3912 1a68 01000000 		.word	1
 3913 1a6c 00000000 		.word	0
 3914 1a70 01000000 		.word	1
 3915 1a74 04000000 		.word	4
 3916 1a78 04000000 		.word	4
 3917 1a7c 08000000 		.word	EeeP_CustomBlock2_Cfg+8
 3918 1a80 00000000 		.word	0
 3919 1a84 00000000 		.word	0
 3920 1a88 00000000 		.word	0
 3921 1a8c 20000000 		.word	32
 3922 1a90 00000000 		.word	Token_Element_funcs
 3923 1a94 00000000 		.word	InsideCrcTL
 3924 1a98 02000000 		.word	2
 3925 1a9c 580B0000 		.word	.LC140
 3926 1aa0 00000000 		.word	0
 3927 1aa4 00000000 		.word	0
 3928 1aa8 01000000 		.word	1
 3929 1aac 04000000 		.word	4
 3930 1ab0 04000000 		.word	4
 3931 1ab4 0C000000 		.word	EeeP_CustomBlock2_Cfg+12
 3932 1ab8 00000000 		.word	0
 3933 1abc 00000000 		.word	0
 3934 1ac0 00000000 		.word	0
 3935 1ac4 20000000 		.word	32
 3936 1ac8 00000000 		.word	Number_Element_funcs
 3937 1acc 00000000 		.word	ValidMinSizeDesc
ARM GAS  /tmp/ccE14h5r.s 			page 83


 3938 1ad0 02000000 		.word	2
 3939 1ad4 680B0000 		.word	.LC141
 3940 1ad8 00000000 		.word	0
 3941 1adc 00000000 		.word	0
 3942 1ae0 01000000 		.word	1
 3943 1ae4 01000000 		.word	1
 3944 1ae8 04000000 		.word	4
 3945 1aec 10000000 		.word	EeeP_CustomBlock2_Cfg+16
 3946 1af0 00000000 		.word	0
 3947 1af4 00000000 		.word	0
 3948 1af8 00000000 		.word	0
 3949 1afc 08000000 		.word	8
 3950 1b00 00000000 		.word	Number_Element_funcs
 3951 1b04 00000000 		.word	UINT8RangeDesc
 3952 1b08 02000000 		.word	2
 3953 1b0c 780C0000 		.word	.LC164
 3954 1b10 01000000 		.word	1
 3955 1b14 00000000 		.word	0
 3956 1b18 01000000 		.word	1
 3957 1b1c 01000000 		.word	1
 3958 1b20 04000000 		.word	4
 3959 1b24 00000000 		.word	EeeP_CustomBlock2_Cfg
 3960 1b28 00000000 		.word	0
 3961 1b2c 00000000 		.word	0
 3962 1b30 00000000 		.word	0
 3963 1b34 08000000 		.word	8
 3964 1b38 00000000 		.word	Number_Element_funcs
 3965 1b3c 00000000 		.word	UINT8RangeDesc
 3966 1b40 02000000 		.word	2
 3967 1b44 480C0000 		.word	.LC161
 3968 1b48 01000000 		.word	1
 3969 1b4c 00000000 		.word	0
 3970 1b50 01000000 		.word	1
 3971 1b54 04000000 		.word	4
 3972 1b58 04000000 		.word	4
 3973 1b5c 04000000 		.word	EeeP_CustomBlock2_Cfg+4
 3974 1b60 00000000 		.word	0
 3975 1b64 00000000 		.word	0
 3976 1b68 00000000 		.word	0
 3977 1b6c 20000000 		.word	32
 3978 1b70 00000000 		.word	String_Element_funcs
 3979 1b74 00000000 		.word	DeleteTrailingSpaces
 3980              		.global	CustomBlock3Desc
 3981              		.align	2
 3984              	CustomBlock3Desc:
 3985 1b78 02000000 		.word	2
 3986 1b7c 4C0B0000 		.word	.LC139
 3987 1b80 01000000 		.word	1
 3988 1b84 00000000 		.word	0
 3989 1b88 01000000 		.word	1
 3990 1b8c 04000000 		.word	4
 3991 1b90 04000000 		.word	4
 3992 1b94 08000000 		.word	EeeP_CustomBlock3_Cfg+8
 3993 1b98 00000000 		.word	0
 3994 1b9c 00000000 		.word	0
 3995 1ba0 00000000 		.word	0
 3996 1ba4 20000000 		.word	32
ARM GAS  /tmp/ccE14h5r.s 			page 84


 3997 1ba8 00000000 		.word	Token_Element_funcs
 3998 1bac 00000000 		.word	InsideCrcTL
 3999 1bb0 02000000 		.word	2
 4000 1bb4 580B0000 		.word	.LC140
 4001 1bb8 00000000 		.word	0
 4002 1bbc 00000000 		.word	0
 4003 1bc0 01000000 		.word	1
 4004 1bc4 04000000 		.word	4
 4005 1bc8 04000000 		.word	4
 4006 1bcc 0C000000 		.word	EeeP_CustomBlock3_Cfg+12
 4007 1bd0 00000000 		.word	0
 4008 1bd4 00000000 		.word	0
 4009 1bd8 00000000 		.word	0
 4010 1bdc 20000000 		.word	32
 4011 1be0 00000000 		.word	Number_Element_funcs
 4012 1be4 00000000 		.word	ValidMinSizeDesc
 4013 1be8 02000000 		.word	2
 4014 1bec 680B0000 		.word	.LC141
 4015 1bf0 00000000 		.word	0
 4016 1bf4 00000000 		.word	0
 4017 1bf8 01000000 		.word	1
 4018 1bfc 01000000 		.word	1
 4019 1c00 04000000 		.word	4
 4020 1c04 10000000 		.word	EeeP_CustomBlock3_Cfg+16
 4021 1c08 00000000 		.word	0
 4022 1c0c 00000000 		.word	0
 4023 1c10 00000000 		.word	0
 4024 1c14 08000000 		.word	8
 4025 1c18 00000000 		.word	Number_Element_funcs
 4026 1c1c 00000000 		.word	UINT8RangeDesc
 4027 1c20 02000000 		.word	2
 4028 1c24 780C0000 		.word	.LC164
 4029 1c28 01000000 		.word	1
 4030 1c2c 00000000 		.word	0
 4031 1c30 01000000 		.word	1
 4032 1c34 01000000 		.word	1
 4033 1c38 04000000 		.word	4
 4034 1c3c 00000000 		.word	EeeP_CustomBlock3_Cfg
 4035 1c40 00000000 		.word	0
 4036 1c44 00000000 		.word	0
 4037 1c48 00000000 		.word	0
 4038 1c4c 08000000 		.word	8
 4039 1c50 00000000 		.word	Number_Element_funcs
 4040 1c54 00000000 		.word	UINT8RangeDesc
 4041 1c58 02000000 		.word	2
 4042 1c5c 480C0000 		.word	.LC161
 4043 1c60 01000000 		.word	1
 4044 1c64 00000000 		.word	0
 4045 1c68 01000000 		.word	1
 4046 1c6c 04000000 		.word	4
 4047 1c70 04000000 		.word	4
 4048 1c74 04000000 		.word	EeeP_CustomBlock3_Cfg+4
 4049 1c78 00000000 		.word	0
 4050 1c7c 00000000 		.word	0
 4051 1c80 00000000 		.word	0
 4052 1c84 20000000 		.word	32
 4053 1c88 00000000 		.word	String_Element_funcs
ARM GAS  /tmp/ccE14h5r.s 			page 85


 4054 1c8c 00000000 		.word	DeleteTrailingSpaces
 4055              		.global	CustomBlock4Desc
 4056              		.align	2
 4059              	CustomBlock4Desc:
 4060 1c90 02000000 		.word	2
 4061 1c94 4C0B0000 		.word	.LC139
 4062 1c98 01000000 		.word	1
 4063 1c9c 00000000 		.word	0
 4064 1ca0 01000000 		.word	1
 4065 1ca4 04000000 		.word	4
 4066 1ca8 04000000 		.word	4
 4067 1cac 08000000 		.word	EeeP_CustomBlock4_Cfg+8
 4068 1cb0 00000000 		.word	0
 4069 1cb4 00000000 		.word	0
 4070 1cb8 00000000 		.word	0
 4071 1cbc 20000000 		.word	32
 4072 1cc0 00000000 		.word	Token_Element_funcs
 4073 1cc4 00000000 		.word	InsideCrcTL
 4074 1cc8 02000000 		.word	2
 4075 1ccc 580B0000 		.word	.LC140
 4076 1cd0 00000000 		.word	0
 4077 1cd4 00000000 		.word	0
 4078 1cd8 01000000 		.word	1
 4079 1cdc 04000000 		.word	4
 4080 1ce0 04000000 		.word	4
 4081 1ce4 0C000000 		.word	EeeP_CustomBlock4_Cfg+12
 4082 1ce8 00000000 		.word	0
 4083 1cec 00000000 		.word	0
 4084 1cf0 00000000 		.word	0
 4085 1cf4 20000000 		.word	32
 4086 1cf8 00000000 		.word	Number_Element_funcs
 4087 1cfc 00000000 		.word	ValidMinSizeDesc
 4088 1d00 02000000 		.word	2
 4089 1d04 680B0000 		.word	.LC141
 4090 1d08 00000000 		.word	0
 4091 1d0c 00000000 		.word	0
 4092 1d10 01000000 		.word	1
 4093 1d14 01000000 		.word	1
 4094 1d18 04000000 		.word	4
 4095 1d1c 10000000 		.word	EeeP_CustomBlock4_Cfg+16
 4096 1d20 00000000 		.word	0
 4097 1d24 00000000 		.word	0
 4098 1d28 00000000 		.word	0
 4099 1d2c 08000000 		.word	8
 4100 1d30 00000000 		.word	Number_Element_funcs
 4101 1d34 00000000 		.word	UINT8RangeDesc
 4102 1d38 02000000 		.word	2
 4103 1d3c 780C0000 		.word	.LC164
 4104 1d40 01000000 		.word	1
 4105 1d44 00000000 		.word	0
 4106 1d48 01000000 		.word	1
 4107 1d4c 01000000 		.word	1
 4108 1d50 04000000 		.word	4
 4109 1d54 00000000 		.word	EeeP_CustomBlock4_Cfg
 4110 1d58 00000000 		.word	0
 4111 1d5c 00000000 		.word	0
 4112 1d60 00000000 		.word	0
ARM GAS  /tmp/ccE14h5r.s 			page 86


 4113 1d64 08000000 		.word	8
 4114 1d68 00000000 		.word	Number_Element_funcs
 4115 1d6c 00000000 		.word	UINT8RangeDesc
 4116 1d70 02000000 		.word	2
 4117 1d74 480C0000 		.word	.LC161
 4118 1d78 01000000 		.word	1
 4119 1d7c 00000000 		.word	0
 4120 1d80 01000000 		.word	1
 4121 1d84 04000000 		.word	4
 4122 1d88 04000000 		.word	4
 4123 1d8c 04000000 		.word	EeeP_CustomBlock4_Cfg+4
 4124 1d90 00000000 		.word	0
 4125 1d94 00000000 		.word	0
 4126 1d98 00000000 		.word	0
 4127 1d9c 20000000 		.word	32
 4128 1da0 00000000 		.word	String_Element_funcs
 4129 1da4 00000000 		.word	DeleteTrailingSpaces
 4130              		.global	CustomBlock5Desc
 4131              		.align	2
 4134              	CustomBlock5Desc:
 4135 1da8 02000000 		.word	2
 4136 1dac 4C0B0000 		.word	.LC139
 4137 1db0 01000000 		.word	1
 4138 1db4 00000000 		.word	0
 4139 1db8 01000000 		.word	1
 4140 1dbc 04000000 		.word	4
 4141 1dc0 04000000 		.word	4
 4142 1dc4 08000000 		.word	EeeP_CustomBlock5_Cfg+8
 4143 1dc8 00000000 		.word	0
 4144 1dcc 00000000 		.word	0
 4145 1dd0 00000000 		.word	0
 4146 1dd4 20000000 		.word	32
 4147 1dd8 00000000 		.word	Token_Element_funcs
 4148 1ddc 00000000 		.word	InsideCrcTL
 4149 1de0 02000000 		.word	2
 4150 1de4 580B0000 		.word	.LC140
 4151 1de8 00000000 		.word	0
 4152 1dec 00000000 		.word	0
 4153 1df0 01000000 		.word	1
 4154 1df4 04000000 		.word	4
 4155 1df8 04000000 		.word	4
 4156 1dfc 0C000000 		.word	EeeP_CustomBlock5_Cfg+12
 4157 1e00 00000000 		.word	0
 4158 1e04 00000000 		.word	0
 4159 1e08 00000000 		.word	0
 4160 1e0c 20000000 		.word	32
 4161 1e10 00000000 		.word	Number_Element_funcs
 4162 1e14 00000000 		.word	ValidMinSizeDesc
 4163 1e18 02000000 		.word	2
 4164 1e1c 680B0000 		.word	.LC141
 4165 1e20 00000000 		.word	0
 4166 1e24 00000000 		.word	0
 4167 1e28 01000000 		.word	1
 4168 1e2c 01000000 		.word	1
 4169 1e30 04000000 		.word	4
 4170 1e34 10000000 		.word	EeeP_CustomBlock5_Cfg+16
 4171 1e38 00000000 		.word	0
ARM GAS  /tmp/ccE14h5r.s 			page 87


 4172 1e3c 00000000 		.word	0
 4173 1e40 00000000 		.word	0
 4174 1e44 08000000 		.word	8
 4175 1e48 00000000 		.word	Number_Element_funcs
 4176 1e4c 00000000 		.word	UINT8RangeDesc
 4177 1e50 02000000 		.word	2
 4178 1e54 780C0000 		.word	.LC164
 4179 1e58 01000000 		.word	1
 4180 1e5c 00000000 		.word	0
 4181 1e60 01000000 		.word	1
 4182 1e64 01000000 		.word	1
 4183 1e68 04000000 		.word	4
 4184 1e6c 00000000 		.word	EeeP_CustomBlock5_Cfg
 4185 1e70 00000000 		.word	0
 4186 1e74 00000000 		.word	0
 4187 1e78 00000000 		.word	0
 4188 1e7c 08000000 		.word	8
 4189 1e80 00000000 		.word	Number_Element_funcs
 4190 1e84 00000000 		.word	UINT8RangeDesc
 4191 1e88 02000000 		.word	2
 4192 1e8c 480C0000 		.word	.LC161
 4193 1e90 01000000 		.word	1
 4194 1e94 00000000 		.word	0
 4195 1e98 01000000 		.word	1
 4196 1e9c 04000000 		.word	4
 4197 1ea0 04000000 		.word	4
 4198 1ea4 04000000 		.word	EeeP_CustomBlock5_Cfg+4
 4199 1ea8 00000000 		.word	0
 4200 1eac 00000000 		.word	0
 4201 1eb0 00000000 		.word	0
 4202 1eb4 20000000 		.word	32
 4203 1eb8 00000000 		.word	String_Element_funcs
 4204 1ebc 00000000 		.word	DeleteTrailingSpaces
 4205              		.global	CustomBlock6Desc
 4206              		.align	2
 4209              	CustomBlock6Desc:
 4210 1ec0 02000000 		.word	2
 4211 1ec4 4C0B0000 		.word	.LC139
 4212 1ec8 01000000 		.word	1
 4213 1ecc 00000000 		.word	0
 4214 1ed0 01000000 		.word	1
 4215 1ed4 04000000 		.word	4
 4216 1ed8 04000000 		.word	4
 4217 1edc 08000000 		.word	EeeP_CustomBlock6_Cfg+8
 4218 1ee0 00000000 		.word	0
 4219 1ee4 00000000 		.word	0
 4220 1ee8 00000000 		.word	0
 4221 1eec 20000000 		.word	32
 4222 1ef0 00000000 		.word	Token_Element_funcs
 4223 1ef4 00000000 		.word	InsideCrcTL
 4224 1ef8 02000000 		.word	2
 4225 1efc 580B0000 		.word	.LC140
 4226 1f00 00000000 		.word	0
 4227 1f04 00000000 		.word	0
 4228 1f08 01000000 		.word	1
 4229 1f0c 04000000 		.word	4
 4230 1f10 04000000 		.word	4
ARM GAS  /tmp/ccE14h5r.s 			page 88


 4231 1f14 0C000000 		.word	EeeP_CustomBlock6_Cfg+12
 4232 1f18 00000000 		.word	0
 4233 1f1c 00000000 		.word	0
 4234 1f20 00000000 		.word	0
 4235 1f24 20000000 		.word	32
 4236 1f28 00000000 		.word	Number_Element_funcs
 4237 1f2c 00000000 		.word	ValidMinSizeDesc
 4238 1f30 02000000 		.word	2
 4239 1f34 680B0000 		.word	.LC141
 4240 1f38 00000000 		.word	0
 4241 1f3c 00000000 		.word	0
 4242 1f40 01000000 		.word	1
 4243 1f44 01000000 		.word	1
 4244 1f48 04000000 		.word	4
 4245 1f4c 10000000 		.word	EeeP_CustomBlock6_Cfg+16
 4246 1f50 00000000 		.word	0
 4247 1f54 00000000 		.word	0
 4248 1f58 00000000 		.word	0
 4249 1f5c 08000000 		.word	8
 4250 1f60 00000000 		.word	Number_Element_funcs
 4251 1f64 00000000 		.word	UINT8RangeDesc
 4252 1f68 02000000 		.word	2
 4253 1f6c 780C0000 		.word	.LC164
 4254 1f70 01000000 		.word	1
 4255 1f74 00000000 		.word	0
 4256 1f78 01000000 		.word	1
 4257 1f7c 01000000 		.word	1
 4258 1f80 04000000 		.word	4
 4259 1f84 00000000 		.word	EeeP_CustomBlock6_Cfg
 4260 1f88 00000000 		.word	0
 4261 1f8c 00000000 		.word	0
 4262 1f90 00000000 		.word	0
 4263 1f94 08000000 		.word	8
 4264 1f98 00000000 		.word	Number_Element_funcs
 4265 1f9c 00000000 		.word	UINT8RangeDesc
 4266 1fa0 02000000 		.word	2
 4267 1fa4 480C0000 		.word	.LC161
 4268 1fa8 01000000 		.word	1
 4269 1fac 00000000 		.word	0
 4270 1fb0 01000000 		.word	1
 4271 1fb4 04000000 		.word	4
 4272 1fb8 04000000 		.word	4
 4273 1fbc 04000000 		.word	EeeP_CustomBlock6_Cfg+4
 4274 1fc0 00000000 		.word	0
 4275 1fc4 00000000 		.word	0
 4276 1fc8 00000000 		.word	0
 4277 1fcc 20000000 		.word	32
 4278 1fd0 00000000 		.word	String_Element_funcs
 4279 1fd4 00000000 		.word	DeleteTrailingSpaces
 4280              		.global	EEPDeviceSizeTokens
 4281              		.section	.rodata
 4282              		.align	2
 4283              	.LC165:
 4284 0c80 32353642 		.ascii	"256Bytes\000"
 4284      79746573 
 4284      00
 4285 0c89 000000   		.align	2
ARM GAS  /tmp/ccE14h5r.s 			page 89


 4286              	.LC166:
 4287 0c8c 35313242 		.ascii	"512Bytes\000"
 4287      79746573 
 4287      00
 4288 0c95 000000   		.align	2
 4289              	.LC167:
 4290 0c98 314B4279 		.ascii	"1KBytes\000"
 4290      74657300 
 4291              		.align	2
 4292              	.LC168:
 4293 0ca0 324B4279 		.ascii	"2KBytes\000"
 4293      74657300 
 4294              		.align	2
 4295              	.LC169:
 4296 0ca8 344B4279 		.ascii	"4KBytes\000"
 4296      74657300 
 4297              		.align	2
 4298              	.LC170:
 4299 0cb0 384B4279 		.ascii	"8KBytes\000"
 4299      74657300 
 4300              		.align	2
 4301              	.LC171:
 4302 0cb8 31364B42 		.ascii	"16KBytes\000"
 4302      79746573 
 4302      00
 4303 0cc1 000000   		.align	2
 4304              	.LC172:
 4305 0cc4 33324B42 		.ascii	"32KBytes\000"
 4305      79746573 
 4305      00
 4306 0ccd 000000   		.align	2
 4307              	.LC173:
 4308 0cd0 36344B42 		.ascii	"64KBytes\000"
 4308      79746573 
 4308      00
 4309 0cd9 000000   		.align	2
 4310              	.LC174:
 4311 0cdc 3132384B 		.ascii	"128KBytes\000"
 4311      42797465 
 4311      7300
 4312 0ce6 0000     		.align	2
 4313              	.LC175:
 4314 0ce8 3235364B 		.ascii	"256KBytes\000"
 4314      42797465 
 4314      7300
 4315 0cf2 0000     		.align	2
 4316              	.LC176:
 4317 0cf4 3531324B 		.ascii	"512KBytes\000"
 4317      42797465 
 4317      7300
 4318 0cfe 0000     		.align	2
 4319              	.LC177:
 4320 0d00 324B6269 		.ascii	"2Kbits\000"
 4320      747300
 4321 0d07 00       		.align	2
 4322              	.LC178:
 4323 0d08 344B6269 		.ascii	"4Kbits\000"
ARM GAS  /tmp/ccE14h5r.s 			page 90


 4323      747300
 4324 0d0f 00       		.align	2
 4325              	.LC179:
 4326 0d10 384B6269 		.ascii	"8Kbits\000"
 4326      747300
 4327 0d17 00       		.align	2
 4328              	.LC180:
 4329 0d18 31364B62 		.ascii	"16Kbits\000"
 4329      69747300 
 4330              		.align	2
 4331              	.LC181:
 4332 0d20 33324B62 		.ascii	"32Kbits\000"
 4332      69747300 
 4333              		.align	2
 4334              	.LC182:
 4335 0d28 36344B62 		.ascii	"64Kbits\000"
 4335      69747300 
 4336              		.align	2
 4337              	.LC183:
 4338 0d30 3132384B 		.ascii	"128Kbits\000"
 4338      62697473 
 4338      00
 4339 0d39 000000   		.align	2
 4340              	.LC184:
 4341 0d3c 3235364B 		.ascii	"256Kbits\000"
 4341      62697473 
 4341      00
 4342 0d45 000000   		.align	2
 4343              	.LC185:
 4344 0d48 3531324B 		.ascii	"512Kbits\000"
 4344      62697473 
 4344      00
 4345 0d51 000000   		.align	2
 4346              	.LC186:
 4347 0d54 314D6269 		.ascii	"1Mbits\000"
 4347      747300
 4348 0d5b 00       		.align	2
 4349              	.LC187:
 4350 0d5c 324D6269 		.ascii	"2Mbits\000"
 4350      747300
 4351 0d63 00       		.align	2
 4352              	.LC188:
 4353 0d64 344D6269 		.ascii	"4Mbits\000"
 4353      747300
 4354              		.section	.data.rel.local
 4355              		.align	2
 4358              	EEPDeviceSizeTokens:
 4359 04d0 800C0000 		.word	.LC165
 4360 04d4 00000000 		.word	0
 4361 04d8 8C0C0000 		.word	.LC166
 4362 04dc 01000000 		.word	1
 4363 04e0 980C0000 		.word	.LC167
 4364 04e4 02000000 		.word	2
 4365 04e8 A00C0000 		.word	.LC168
 4366 04ec 03000000 		.word	3
 4367 04f0 A80C0000 		.word	.LC169
 4368 04f4 04000000 		.word	4
ARM GAS  /tmp/ccE14h5r.s 			page 91


 4369 04f8 B00C0000 		.word	.LC170
 4370 04fc 05000000 		.word	5
 4371 0500 B80C0000 		.word	.LC171
 4372 0504 06000000 		.word	6
 4373 0508 C40C0000 		.word	.LC172
 4374 050c 07000000 		.word	7
 4375 0510 D00C0000 		.word	.LC173
 4376 0514 08000000 		.word	8
 4377 0518 DC0C0000 		.word	.LC174
 4378 051c 09000000 		.word	9
 4379 0520 E80C0000 		.word	.LC175
 4380 0524 0A000000 		.word	10
 4381 0528 F40C0000 		.word	.LC176
 4382 052c 0B000000 		.word	11
 4383 0530 000D0000 		.word	.LC177
 4384 0534 00000000 		.word	0
 4385 0538 080D0000 		.word	.LC178
 4386 053c 01000000 		.word	1
 4387 0540 100D0000 		.word	.LC179
 4388 0544 02000000 		.word	2
 4389 0548 180D0000 		.word	.LC180
 4390 054c 03000000 		.word	3
 4391 0550 200D0000 		.word	.LC181
 4392 0554 04000000 		.word	4
 4393 0558 280D0000 		.word	.LC182
 4394 055c 05000000 		.word	5
 4395 0560 300D0000 		.word	.LC183
 4396 0564 06000000 		.word	6
 4397 0568 3C0D0000 		.word	.LC184
 4398 056c 07000000 		.word	7
 4399 0570 480D0000 		.word	.LC185
 4400 0574 08000000 		.word	8
 4401 0578 540D0000 		.word	.LC186
 4402 057c 09000000 		.word	9
 4403 0580 5C0D0000 		.word	.LC187
 4404 0584 0A000000 		.word	10
 4405 0588 640D0000 		.word	.LC188
 4406 058c 0B000000 		.word	11
 4407              		.global	EEPDeviceSizeTL
 4408              		.align	2
 4411              	EEPDeviceSizeTL:
 4412 0590 18000000 		.word	24
 4413 0594 00000000 		.word	EEPDeviceSizeTokens
 4414              		.global	EeePEEPWriteLenTokens
 4415              		.section	.rodata
 4416 0d6b 00       		.align	2
 4417              	.LC189:
 4418 0d6c 3100     		.ascii	"1\000"
 4419 0d6e 0000     		.align	2
 4420              	.LC190:
 4421 0d70 3800     		.ascii	"8\000"
 4422 0d72 0000     		.align	2
 4423              	.LC191:
 4424 0d74 313600   		.ascii	"16\000"
 4425 0d77 00       		.align	2
 4426              	.LC192:
 4427 0d78 333200   		.ascii	"32\000"
ARM GAS  /tmp/ccE14h5r.s 			page 92


 4428 0d7b 00       		.align	2
 4429              	.LC193:
 4430 0d7c 363400   		.ascii	"64\000"
 4431 0d7f 00       		.align	2
 4432              	.LC194:
 4433 0d80 31323800 		.ascii	"128\000"
 4434              		.align	2
 4435              	.LC195:
 4436 0d84 32353600 		.ascii	"256\000"
 4437              		.align	2
 4438              	.LC196:
 4439 0d88 35313200 		.ascii	"512\000"
 4440              		.section	.data.rel.local
 4441              		.align	2
 4444              	EeePEEPWriteLenTokens:
 4445 0598 6C0D0000 		.word	.LC189
 4446 059c 00000000 		.word	0
 4447 05a0 700D0000 		.word	.LC190
 4448 05a4 01000000 		.word	1
 4449 05a8 740D0000 		.word	.LC191
 4450 05ac 02000000 		.word	2
 4451 05b0 780D0000 		.word	.LC192
 4452 05b4 03000000 		.word	3
 4453 05b8 7C0D0000 		.word	.LC193
 4454 05bc 04000000 		.word	4
 4455 05c0 800D0000 		.word	.LC194
 4456 05c4 05000000 		.word	5
 4457 05c8 840D0000 		.word	.LC195
 4458 05cc 06000000 		.word	6
 4459 05d0 880D0000 		.word	.LC196
 4460 05d4 07000000 		.word	7
 4461              		.global	EeePEEPWriteLenTL
 4462              		.align	2
 4465              	EeePEEPWriteLenTL:
 4466 05d8 08000000 		.word	8
 4467 05dc 00000000 		.word	EeePEEPWriteLenTokens
 4468              		.global	ExtI2CDevice0Desc
 4469              		.section	.rodata
 4470              		.align	2
 4471              	.LC197:
 4472 0d8c 44657669 		.ascii	"DeviceBus\000"
 4472      63654275 
 4472      7300
 4473 0d96 0000     		.align	2
 4474              	.LC198:
 4475 0d98 44657669 		.ascii	"DeviceAddr\000"
 4475      63654164 
 4475      647200
 4476 0da3 00       		.align	2
 4477              	.LC199:
 4478 0da4 44657669 		.ascii	"DeviceType\000"
 4478      63655479 
 4478      706500
 4479 0daf 00       		.align	2
 4480              	.LC200:
 4481 0db0 44657669 		.ascii	"DeviceSize\000"
 4481      63655369 
ARM GAS  /tmp/ccE14h5r.s 			page 93


 4481      7A6500
 4482              		.section	.data.rel
 4483              		.align	2
 4486              	ExtI2CDevice0Desc:
 4487 1fd8 02000000 		.word	2
 4488 1fdc 4C0B0000 		.word	.LC139
 4489 1fe0 01000000 		.word	1
 4490 1fe4 00000000 		.word	0
 4491 1fe8 01000000 		.word	1
 4492 1fec 04000000 		.word	4
 4493 1ff0 04000000 		.word	4
 4494 1ff4 04000000 		.word	EeePExtI2CDevice0+4
 4495 1ff8 00000000 		.word	0
 4496 1ffc 00000000 		.word	0
 4497 2000 00000000 		.word	0
 4498 2004 20000000 		.word	32
 4499 2008 00000000 		.word	Token_Element_funcs
 4500 200c 00000000 		.word	InsideCrcTL
 4501 2010 02000000 		.word	2
 4502 2014 580B0000 		.word	.LC140
 4503 2018 00000000 		.word	0
 4504 201c 00000000 		.word	0
 4505 2020 01000000 		.word	1
 4506 2024 04000000 		.word	4
 4507 2028 04000000 		.word	4
 4508 202c 08000000 		.word	EeePExtI2CDevice0+8
 4509 2030 00000000 		.word	0
 4510 2034 00000000 		.word	0
 4511 2038 00000000 		.word	0
 4512 203c 20000000 		.word	32
 4513 2040 00000000 		.word	Number_Element_funcs
 4514 2044 00000000 		.word	ValidMinSizeDesc
 4515 2048 02000000 		.word	2
 4516 204c 680B0000 		.word	.LC141
 4517 2050 00000000 		.word	0
 4518 2054 00000000 		.word	0
 4519 2058 01000000 		.word	1
 4520 205c 01000000 		.word	1
 4521 2060 04000000 		.word	4
 4522 2064 0C000000 		.word	EeePExtI2CDevice0+12
 4523 2068 00000000 		.word	0
 4524 206c 00000000 		.word	0
 4525 2070 00000000 		.word	0
 4526 2074 08000000 		.word	8
 4527 2078 00000000 		.word	Number_Element_funcs
 4528 207c 00000000 		.word	UINT8RangeDesc
 4529 2080 02000000 		.word	2
 4530 2084 8C0D0000 		.word	.LC197
 4531 2088 01000000 		.word	1
 4532 208c 00000000 		.word	0
 4533 2090 01000000 		.word	1
 4534 2094 01000000 		.word	1
 4535 2098 04000000 		.word	4
 4536 209c 02000000 		.word	EeePExtI2CDevice0+2
 4537 20a0 00000000 		.word	0
 4538 20a4 00000000 		.word	0
 4539 20a8 00000000 		.word	0
ARM GAS  /tmp/ccE14h5r.s 			page 94


 4540 20ac 08000000 		.word	8
 4541 20b0 00000000 		.word	Token_Element_funcs
 4542 20b4 00000000 		.word	I2CBusTL
 4543 20b8 02000000 		.word	2
 4544 20bc 980D0000 		.word	.LC198
 4545 20c0 01000000 		.word	1
 4546 20c4 00000000 		.word	0
 4547 20c8 01000000 		.word	1
 4548 20cc 02000000 		.word	2
 4549 20d0 04000000 		.word	4
 4550 20d4 00000000 		.word	EeePExtI2CDevice0
 4551 20d8 00000000 		.word	0
 4552 20dc 00000000 		.word	0
 4553 20e0 00000000 		.word	0
 4554 20e4 10000000 		.word	16
 4555 20e8 00000000 		.word	I2C_EEPROM_Addr_funcs
 4556 20ec 00000000 		.word	0
 4557 20f0 02000000 		.word	2
 4558 20f4 A40D0000 		.word	.LC199
 4559 20f8 01000000 		.word	1
 4560 20fc 00000000 		.word	0
 4561 2100 01000000 		.word	1
 4562 2104 01000000 		.word	1
 4563 2108 04000000 		.word	4
 4564 210c 03000000 		.word	EeePExtI2CDevice0+3
 4565 2110 00000000 		.word	0
 4566 2114 00000000 		.word	0
 4567 2118 04000000 		.word	4
 4568 211c 01000000 		.word	1
 4569 2120 00000000 		.word	Token_Element_funcs
 4570 2124 00000000 		.word	StandardExtendedTL
 4571 2128 02000000 		.word	2
 4572 212c B00D0000 		.word	.LC200
 4573 2130 01000000 		.word	1
 4574 2134 00000000 		.word	0
 4575 2138 01000000 		.word	1
 4576 213c 01000000 		.word	1
 4577 2140 04000000 		.word	4
 4578 2144 03000000 		.word	EeePExtI2CDevice0+3
 4579 2148 00000000 		.word	0
 4580 214c 00000000 		.word	0
 4581 2150 00000000 		.word	0
 4582 2154 04000000 		.word	4
 4583 2158 00000000 		.word	Token_Element_funcs
 4584 215c 00000000 		.word	EEPDeviceSizeTL
 4585              		.global	ExtI2CDevice1Desc
 4586              		.align	2
 4589              	ExtI2CDevice1Desc:
 4590 2160 02000000 		.word	2
 4591 2164 4C0B0000 		.word	.LC139
 4592 2168 01000000 		.word	1
 4593 216c 00000000 		.word	0
 4594 2170 01000000 		.word	1
 4595 2174 04000000 		.word	4
 4596 2178 04000000 		.word	4
 4597 217c 04000000 		.word	EeePExtI2CDevice1+4
 4598 2180 00000000 		.word	0
ARM GAS  /tmp/ccE14h5r.s 			page 95


 4599 2184 00000000 		.word	0
 4600 2188 00000000 		.word	0
 4601 218c 20000000 		.word	32
 4602 2190 00000000 		.word	Token_Element_funcs
 4603 2194 00000000 		.word	InsideCrcTL
 4604 2198 02000000 		.word	2
 4605 219c 580B0000 		.word	.LC140
 4606 21a0 00000000 		.word	0
 4607 21a4 00000000 		.word	0
 4608 21a8 01000000 		.word	1
 4609 21ac 04000000 		.word	4
 4610 21b0 04000000 		.word	4
 4611 21b4 08000000 		.word	EeePExtI2CDevice1+8
 4612 21b8 00000000 		.word	0
 4613 21bc 00000000 		.word	0
 4614 21c0 00000000 		.word	0
 4615 21c4 20000000 		.word	32
 4616 21c8 00000000 		.word	Number_Element_funcs
 4617 21cc 00000000 		.word	ValidMinSizeDesc
 4618 21d0 02000000 		.word	2
 4619 21d4 680B0000 		.word	.LC141
 4620 21d8 00000000 		.word	0
 4621 21dc 00000000 		.word	0
 4622 21e0 01000000 		.word	1
 4623 21e4 01000000 		.word	1
 4624 21e8 04000000 		.word	4
 4625 21ec 0C000000 		.word	EeePExtI2CDevice1+12
 4626 21f0 00000000 		.word	0
 4627 21f4 00000000 		.word	0
 4628 21f8 00000000 		.word	0
 4629 21fc 08000000 		.word	8
 4630 2200 00000000 		.word	Number_Element_funcs
 4631 2204 00000000 		.word	UINT8RangeDesc
 4632 2208 02000000 		.word	2
 4633 220c 8C0D0000 		.word	.LC197
 4634 2210 01000000 		.word	1
 4635 2214 00000000 		.word	0
 4636 2218 01000000 		.word	1
 4637 221c 01000000 		.word	1
 4638 2220 04000000 		.word	4
 4639 2224 02000000 		.word	EeePExtI2CDevice1+2
 4640 2228 00000000 		.word	0
 4641 222c 00000000 		.word	0
 4642 2230 00000000 		.word	0
 4643 2234 08000000 		.word	8
 4644 2238 00000000 		.word	Token_Element_funcs
 4645 223c 00000000 		.word	I2CBusTL
 4646 2240 02000000 		.word	2
 4647 2244 980D0000 		.word	.LC198
 4648 2248 01000000 		.word	1
 4649 224c 00000000 		.word	0
 4650 2250 01000000 		.word	1
 4651 2254 02000000 		.word	2
 4652 2258 04000000 		.word	4
 4653 225c 00000000 		.word	EeePExtI2CDevice1
 4654 2260 00000000 		.word	0
 4655 2264 00000000 		.word	0
ARM GAS  /tmp/ccE14h5r.s 			page 96


 4656 2268 00000000 		.word	0
 4657 226c 10000000 		.word	16
 4658 2270 00000000 		.word	I2C_EEPROM_Addr_funcs
 4659 2274 00000000 		.word	0
 4660 2278 02000000 		.word	2
 4661 227c A40D0000 		.word	.LC199
 4662 2280 01000000 		.word	1
 4663 2284 00000000 		.word	0
 4664 2288 01000000 		.word	1
 4665 228c 01000000 		.word	1
 4666 2290 04000000 		.word	4
 4667 2294 03000000 		.word	EeePExtI2CDevice1+3
 4668 2298 00000000 		.word	0
 4669 229c 00000000 		.word	0
 4670 22a0 04000000 		.word	4
 4671 22a4 01000000 		.word	1
 4672 22a8 00000000 		.word	Token_Element_funcs
 4673 22ac 00000000 		.word	StandardExtendedTL
 4674 22b0 02000000 		.word	2
 4675 22b4 B00D0000 		.word	.LC200
 4676 22b8 01000000 		.word	1
 4677 22bc 00000000 		.word	0
 4678 22c0 01000000 		.word	1
 4679 22c4 01000000 		.word	1
 4680 22c8 04000000 		.word	4
 4681 22cc 03000000 		.word	EeePExtI2CDevice1+3
 4682 22d0 00000000 		.word	0
 4683 22d4 00000000 		.word	0
 4684 22d8 00000000 		.word	0
 4685 22dc 04000000 		.word	4
 4686 22e0 00000000 		.word	Token_Element_funcs
 4687 22e4 00000000 		.word	EEPDeviceSizeTL
 4688              		.global	ValidUsbHSRange
 4689              		.data
 4690              		.align	2
 4693              	ValidUsbHSRange:
 4694 019c 00000000 		.word	0
 4695 01a0 08000000 		.word	8
 4696 01a4 01000000 		.word	1
 4697              		.global	ValidUsbHSRangeDesc
 4698              		.section	.data.rel.local
 4699              		.align	2
 4702              	ValidUsbHSRangeDesc:
 4703 05e0 01000000 		.word	1
 4704 05e4 00000000 		.word	ValidUsbHSRange
 4705              		.global	ValidUsbSSRange
 4706              		.data
 4707              		.align	2
 4710              	ValidUsbSSRange:
 4711 01a8 00000000 		.word	0
 4712 01ac 04000000 		.word	4
 4713 01b0 01000000 		.word	1
 4714              		.global	ValidUsbSSRangeDesc
 4715              		.section	.data.rel.local
 4716              		.align	2
 4719              	ValidUsbSSRangeDesc:
 4720 05e8 01000000 		.word	1
ARM GAS  /tmp/ccE14h5r.s 			page 97


 4721 05ec 00000000 		.word	ValidUsbSSRange
 4722              		.global	ValidModuleTypes
 4723              		.data
 4724              		.align	2
 4727              	ValidModuleTypes:
 4728 01b4 00000000 		.word	0
 4729 01b8 06000000 		.word	6
 4730 01bc 01000000 		.word	1
 4731 01c0 0A000000 		.word	10
 4732 01c4 0A000000 		.word	10
 4733 01c8 01000000 		.word	1
 4734              		.global	ValidModuleTypesDesc
 4735              		.section	.data.rel.local
 4736              		.align	2
 4739              	ValidModuleTypesDesc:
 4740 05f0 02000000 		.word	2
 4741 05f4 00000000 		.word	ValidModuleTypes
 4742              		.global	COM0R20_CB_Desc
 4743              		.section	.rodata
 4744 0dbb 00       		.align	2
 4745              	.LC201:
 4746 0dbc 45657044 		.ascii	"EepDeviceType\000"
 4746      65766963 
 4746      65547970 
 4746      6500
 4747 0dca 0000     		.align	2
 4748              	.LC202:
 4749 0dcc 45657044 		.ascii	"EepDeviceSize\000"
 4749      65766963 
 4749      6553697A 
 4749      6500
 4750 0dda 0000     		.align	2
 4751              	.LC203:
 4752 0ddc 57726974 		.ascii	"WriteLength\000"
 4752      654C656E 
 4752      67746800 
 4753              		.align	2
 4754              	.LC204:
 4755 0de8 44657669 		.ascii	"DeviceId\000"
 4755      63654964 
 4755      00
 4756 0df1 000000   		.align	2
 4757              	.LC205:
 4758 0df4 44657669 		.ascii	"DeviceFlav\000"
 4758      6365466C 
 4758      617600
 4759 0dff 00       		.align	2
 4760              	.LC206:
 4761 0e00 52657649 		.ascii	"RevId\000"
 4761      6400
 4762 0e06 0000     		.align	2
 4763              	.LC207:
 4764 0e08 43425479 		.ascii	"CBType\000"
 4764      706500
 4765 0e0f 00       		.align	2
 4766              	.LC208:
 4767 0e10 53706563 		.ascii	"SpecRevision\000"
ARM GAS  /tmp/ccE14h5r.s 			page 98


 4767      52657669 
 4767      73696F6E 
 4767      00
 4768 0e1d 000000   		.align	2
 4769              	.LC209:
 4770 0e20 55534248 		.ascii	"USBHSCount\000"
 4770      53436F75 
 4770      6E7400
 4771 0e2b 00       		.align	2
 4772              	.LC210:
 4773 0e2c 55534253 		.ascii	"USBSSCount\000"
 4773      53436F75 
 4773      6E7400
 4774 0e37 00       		.align	2
 4775              	.LC211:
 4776 0e38 53415350 		.ascii	"SASPort0\000"
 4776      6F727430 
 4776      00
 4777 0e41 000000   		.align	2
 4778              	.LC212:
 4779 0e44 53415350 		.ascii	"SASPort1\000"
 4779      6F727431 
 4779      00
 4780 0e4d 000000   		.align	2
 4781              	.LC213:
 4782 0e50 53415350 		.ascii	"SASPort2\000"
 4782      6F727432 
 4782      00
 4783 0e59 000000   		.align	2
 4784              	.LC214:
 4785 0e5c 53415350 		.ascii	"SASPort3\000"
 4785      6F727433 
 4785      00
 4786 0e65 000000   		.align	2
 4787              	.LC215:
 4788 0e68 47424530 		.ascii	"GBE0\000"
 4788      00
 4789 0e6d 000000   		.align	2
 4790              	.LC216:
 4791 0e70 47424531 		.ascii	"GBE1\000"
 4791      00
 4792 0e75 000000   		.align	2
 4793              	.LC217:
 4794 0e78 47424532 		.ascii	"GBE2\000"
 4794      00
 4795 0e7d 000000   		.align	2
 4796              	.LC218:
 4797 0e80 57414B45 		.ascii	"WAKE0\000"
 4797      3000
 4798 0e86 0000     		.align	2
 4799              	.LC219:
 4800 0e88 57414B45 		.ascii	"WAKE1\000"
 4800      3100
 4801 0e8e 0000     		.align	2
 4802              	.LC220:
 4803 0e90 53555300 		.ascii	"SUS\000"
 4804              		.align	2
ARM GAS  /tmp/ccE14h5r.s 			page 99


 4805              	.LC221:
 4806 0e94 4261744C 		.ascii	"BatLow\000"
 4806      6F7700
 4807 0e9b 00       		.align	2
 4808              	.LC222:
 4809 0e9c 5448524D 		.ascii	"THRMP\000"
 4809      5000
 4810 0ea2 0000     		.align	2
 4811              	.LC223:
 4812 0ea4 4542524F 		.ascii	"EBROM\000"
 4812      4D00
 4813 0eaa 0000     		.align	2
 4814              	.LC224:
 4815 0eac 57445400 		.ascii	"WDT\000"
 4816              		.align	2
 4817              	.LC225:
 4818 0eb0 41433937 		.ascii	"AC97/HDA\000"
 4818      2F484441 
 4818      00
 4819 0eb9 000000   		.align	2
 4820              	.LC226:
 4821 0ebc 53534300 		.ascii	"SSC\000"
 4822              		.align	2
 4823              	.LC227:
 4824 0ec0 5344494F 		.ascii	"SDIO\000"
 4824      00
 4825 0ec5 000000   		.align	2
 4826              	.LC228:
 4827 0ec8 4C494400 		.ascii	"LID\000"
 4828              		.align	2
 4829              	.LC229:
 4830 0ecc 536C6565 		.ascii	"Sleep\000"
 4830      7000
 4831 0ed2 0000     		.align	2
 4832              	.LC230:
 4833 0ed4 46414E30 		.ascii	"FAN0\000"
 4833      00
 4834 0ed9 000000   		.align	2
 4835              	.LC231:
 4836 0edc 53455230 		.ascii	"SER0\000"
 4836      00
 4837 0ee1 000000   		.align	2
 4838              	.LC232:
 4839 0ee4 53455231 		.ascii	"SER1\000"
 4839      00
 4840 0ee9 000000   		.align	2
 4841              	.LC233:
 4842 0eec 44444930 		.ascii	"DDI0\000"
 4842      00
 4843 0ef1 000000   		.align	2
 4844              	.LC234:
 4845 0ef4 50434965 		.ascii	"PCIePorts\000"
 4845      506F7274 
 4845      7300
 4846              		.section	.data.rel
 4847              		.align	2
 4850              	COM0R20_CB_Desc:
ARM GAS  /tmp/ccE14h5r.s 			page 100


 4851 22e8 02000000 		.word	2
 4852 22ec BC0D0000 		.word	.LC201
 4853 22f0 01000000 		.word	1
 4854 22f4 00000000 		.word	0
 4855 22f8 01000000 		.word	1
 4856 22fc 01000000 		.word	1
 4857 2300 04000000 		.word	4
 4858 2304 00000000 		.word	COM0R20_CB_cgf
 4859 2308 00000000 		.word	0
 4860 230c 00000000 		.word	0
 4861 2310 04000000 		.word	4
 4862 2314 01000000 		.word	1
 4863 2318 00000000 		.word	Token_Element_funcs
 4864 231c 00000000 		.word	StandardExtendedTL
 4865 2320 02000000 		.word	2
 4866 2324 CC0D0000 		.word	.LC202
 4867 2328 01000000 		.word	1
 4868 232c 00000000 		.word	0
 4869 2330 01000000 		.word	1
 4870 2334 01000000 		.word	1
 4871 2338 04000000 		.word	4
 4872 233c 00000000 		.word	COM0R20_CB_cgf
 4873 2340 00000000 		.word	0
 4874 2344 00000000 		.word	0
 4875 2348 00000000 		.word	0
 4876 234c 04000000 		.word	4
 4877 2350 00000000 		.word	Token_Element_funcs
 4878 2354 00000000 		.word	EEPDeviceSizeTL
 4879 2358 02000000 		.word	2
 4880 235c DC0D0000 		.word	.LC203
 4881 2360 01000000 		.word	1
 4882 2364 00000000 		.word	0
 4883 2368 01000000 		.word	1
 4884 236c 01000000 		.word	1
 4885 2370 04000000 		.word	4
 4886 2374 00000000 		.word	COM0R20_CB_cgf
 4887 2378 00000000 		.word	0
 4888 237c 00000000 		.word	0
 4889 2380 05000000 		.word	5
 4890 2384 03000000 		.word	3
 4891 2388 00000000 		.word	Token_Element_funcs
 4892 238c 00000000 		.word	EeePEEPWriteLenTL
 4893 2390 02000000 		.word	2
 4894 2394 540C0000 		.word	.LC162
 4895 2398 01000000 		.word	1
 4896 239c 00000000 		.word	0
 4897 23a0 01000000 		.word	1
 4898 23a4 02000000 		.word	2
 4899 23a8 04000000 		.word	4
 4900 23ac 02000000 		.word	COM0R20_CB_cgf+2
 4901 23b0 00000000 		.word	0
 4902 23b4 00000000 		.word	0
 4903 23b8 00000000 		.word	0
 4904 23bc 10000000 		.word	16
 4905 23c0 00000000 		.word	PNPID_Element_funcs
 4906 23c4 00000000 		.word	0
 4907 23c8 02000000 		.word	2
ARM GAS  /tmp/ccE14h5r.s 			page 101


 4908 23cc E80D0000 		.word	.LC204
 4909 23d0 01000000 		.word	1
 4910 23d4 00000000 		.word	0
 4911 23d8 01000000 		.word	1
 4912 23dc 02000000 		.word	2
 4913 23e0 04000000 		.word	4
 4914 23e4 04000000 		.word	COM0R20_CB_cgf+4
 4915 23e8 00000000 		.word	0
 4916 23ec 00000000 		.word	0
 4917 23f0 00000000 		.word	0
 4918 23f4 10000000 		.word	16
 4919 23f8 00000000 		.word	Number_Element_funcs
 4920 23fc 00000000 		.word	UINT16RangeDesc
 4921 2400 02000000 		.word	2
 4922 2404 F40D0000 		.word	.LC205
 4923 2408 01000000 		.word	1
 4924 240c 00000000 		.word	0
 4925 2410 01000000 		.word	1
 4926 2414 01000000 		.word	1
 4927 2418 04000000 		.word	4
 4928 241c 06000000 		.word	COM0R20_CB_cgf+6
 4929 2420 00000000 		.word	0
 4930 2424 00000000 		.word	0
 4931 2428 00000000 		.word	0
 4932 242c 08000000 		.word	8
 4933 2430 00000000 		.word	Number_Element_funcs
 4934 2434 00000000 		.word	UINT8RangeDesc
 4935 2438 02000000 		.word	2
 4936 243c 000E0000 		.word	.LC206
 4937 2440 01000000 		.word	1
 4938 2444 00000000 		.word	0
 4939 2448 01000000 		.word	1
 4940 244c 01000000 		.word	1
 4941 2450 04000000 		.word	4
 4942 2454 07000000 		.word	COM0R20_CB_cgf+7
 4943 2458 00000000 		.word	0
 4944 245c 00000000 		.word	0
 4945 2460 00000000 		.word	0
 4946 2464 08000000 		.word	8
 4947 2468 00000000 		.word	Number_Element_funcs
 4948 246c 00000000 		.word	UINT8RangeDesc
 4949 2470 02000000 		.word	2
 4950 2474 080E0000 		.word	.LC207
 4951 2478 01000000 		.word	1
 4952 247c 00000000 		.word	0
 4953 2480 01000000 		.word	1
 4954 2484 01000000 		.word	1
 4955 2488 04000000 		.word	4
 4956 248c 08000000 		.word	COM0R20_CB_cgf+8
 4957 2490 00000000 		.word	0
 4958 2494 00000000 		.word	0
 4959 2498 00000000 		.word	0
 4960 249c 08000000 		.word	8
 4961 24a0 00000000 		.word	Number_Element_funcs
 4962 24a4 00000000 		.word	ValidModuleTypesDesc
 4963 24a8 02000000 		.word	2
 4964 24ac 100E0000 		.word	.LC208
ARM GAS  /tmp/ccE14h5r.s 			page 102


 4965 24b0 01000000 		.word	1
 4966 24b4 00000000 		.word	0
 4967 24b8 01000000 		.word	1
 4968 24bc 01000000 		.word	1
 4969 24c0 04000000 		.word	4
 4970 24c4 09000000 		.word	COM0R20_CB_cgf+9
 4971 24c8 00000000 		.word	0
 4972 24cc 00000000 		.word	0
 4973 24d0 00000000 		.word	0
 4974 24d4 08000000 		.word	8
 4975 24d8 00000000 		.word	SpecRev_Element_funcs
 4976 24dc 00000000 		.word	0
 4977 24e0 02000000 		.word	2
 4978 24e4 200E0000 		.word	.LC209
 4979 24e8 01000000 		.word	1
 4980 24ec 00000000 		.word	0
 4981 24f0 01000000 		.word	1
 4982 24f4 01000000 		.word	1
 4983 24f8 04000000 		.word	4
 4984 24fc 0A000000 		.word	COM0R20_CB_cgf+10
 4985 2500 00000000 		.word	0
 4986 2504 00000000 		.word	0
 4987 2508 00000000 		.word	0
 4988 250c 04000000 		.word	4
 4989 2510 00000000 		.word	Number_Element_funcs
 4990 2514 00000000 		.word	ValidUsbHSRangeDesc
 4991 2518 02000000 		.word	2
 4992 251c 2C0E0000 		.word	.LC210
 4993 2520 01000000 		.word	1
 4994 2524 00000000 		.word	0
 4995 2528 01000000 		.word	1
 4996 252c 01000000 		.word	1
 4997 2530 04000000 		.word	4
 4998 2534 0A000000 		.word	COM0R20_CB_cgf+10
 4999 2538 00000000 		.word	0
 5000 253c 00000000 		.word	0
 5001 2540 04000000 		.word	4
 5002 2544 03000000 		.word	3
 5003 2548 00000000 		.word	Number_Element_funcs
 5004 254c 00000000 		.word	ValidUsbHSRangeDesc
 5005 2550 02000000 		.word	2
 5006 2554 380E0000 		.word	.LC211
 5007 2558 01000000 		.word	1
 5008 255c 00000000 		.word	0
 5009 2560 01000000 		.word	1
 5010 2564 01000000 		.word	1
 5011 2568 04000000 		.word	4
 5012 256c 0B000000 		.word	COM0R20_CB_cgf+11
 5013 2570 00000000 		.word	0
 5014 2574 00000000 		.word	0
 5015 2578 00000000 		.word	0
 5016 257c 02000000 		.word	2
 5017 2580 00000000 		.word	Token_Element_funcs
 5018 2584 00000000 		.word	SasTL
 5019 2588 02000000 		.word	2
 5020 258c 440E0000 		.word	.LC212
 5021 2590 01000000 		.word	1
ARM GAS  /tmp/ccE14h5r.s 			page 103


 5022 2594 00000000 		.word	0
 5023 2598 01000000 		.word	1
 5024 259c 01000000 		.word	1
 5025 25a0 04000000 		.word	4
 5026 25a4 0B000000 		.word	COM0R20_CB_cgf+11
 5027 25a8 00000000 		.word	0
 5028 25ac 00000000 		.word	0
 5029 25b0 02000000 		.word	2
 5030 25b4 02000000 		.word	2
 5031 25b8 00000000 		.word	Token_Element_funcs
 5032 25bc 00000000 		.word	SasTL
 5033 25c0 02000000 		.word	2
 5034 25c4 500E0000 		.word	.LC213
 5035 25c8 01000000 		.word	1
 5036 25cc 00000000 		.word	0
 5037 25d0 01000000 		.word	1
 5038 25d4 01000000 		.word	1
 5039 25d8 04000000 		.word	4
 5040 25dc 0B000000 		.word	COM0R20_CB_cgf+11
 5041 25e0 00000000 		.word	0
 5042 25e4 00000000 		.word	0
 5043 25e8 04000000 		.word	4
 5044 25ec 02000000 		.word	2
 5045 25f0 00000000 		.word	Token_Element_funcs
 5046 25f4 00000000 		.word	SasTL
 5047 25f8 02000000 		.word	2
 5048 25fc 5C0E0000 		.word	.LC214
 5049 2600 01000000 		.word	1
 5050 2604 00000000 		.word	0
 5051 2608 01000000 		.word	1
 5052 260c 01000000 		.word	1
 5053 2610 04000000 		.word	4
 5054 2614 0B000000 		.word	COM0R20_CB_cgf+11
 5055 2618 00000000 		.word	0
 5056 261c 00000000 		.word	0
 5057 2620 06000000 		.word	6
 5058 2624 02000000 		.word	2
 5059 2628 00000000 		.word	Token_Element_funcs
 5060 262c 00000000 		.word	SasTL
 5061 2630 02000000 		.word	2
 5062 2634 680E0000 		.word	.LC215
 5063 2638 01000000 		.word	1
 5064 263c 00000000 		.word	0
 5065 2640 01000000 		.word	1
 5066 2644 01000000 		.word	1
 5067 2648 04000000 		.word	4
 5068 264c 0C000000 		.word	COM0R20_CB_cgf+12
 5069 2650 00000000 		.word	0
 5070 2654 00000000 		.word	0
 5071 2658 00000000 		.word	0
 5072 265c 01000000 		.word	1
 5073 2660 00000000 		.word	Token_Element_funcs
 5074 2664 00000000 		.word	ImpNotImpTL
 5075 2668 02000000 		.word	2
 5076 266c 700E0000 		.word	.LC216
 5077 2670 01000000 		.word	1
 5078 2674 00000000 		.word	0
ARM GAS  /tmp/ccE14h5r.s 			page 104


 5079 2678 01000000 		.word	1
 5080 267c 01000000 		.word	1
 5081 2680 04000000 		.word	4
 5082 2684 0C000000 		.word	COM0R20_CB_cgf+12
 5083 2688 00000000 		.word	0
 5084 268c 00000000 		.word	0
 5085 2690 01000000 		.word	1
 5086 2694 01000000 		.word	1
 5087 2698 00000000 		.word	Token_Element_funcs
 5088 269c 00000000 		.word	ImpNotImpTL
 5089 26a0 02000000 		.word	2
 5090 26a4 780E0000 		.word	.LC217
 5091 26a8 01000000 		.word	1
 5092 26ac 00000000 		.word	0
 5093 26b0 01000000 		.word	1
 5094 26b4 01000000 		.word	1
 5095 26b8 04000000 		.word	4
 5096 26bc 0C000000 		.word	COM0R20_CB_cgf+12
 5097 26c0 00000000 		.word	0
 5098 26c4 00000000 		.word	0
 5099 26c8 02000000 		.word	2
 5100 26cc 01000000 		.word	1
 5101 26d0 00000000 		.word	Token_Element_funcs
 5102 26d4 00000000 		.word	ImpNotImpTL
 5103 26d8 02000000 		.word	2
 5104 26dc 800E0000 		.word	.LC218
 5105 26e0 01000000 		.word	1
 5106 26e4 00000000 		.word	0
 5107 26e8 01000000 		.word	1
 5108 26ec 01000000 		.word	1
 5109 26f0 04000000 		.word	4
 5110 26f4 0D000000 		.word	COM0R20_CB_cgf+13
 5111 26f8 00000000 		.word	0
 5112 26fc 00000000 		.word	0
 5113 2700 00000000 		.word	0
 5114 2704 01000000 		.word	1
 5115 2708 00000000 		.word	Token_Element_funcs
 5116 270c 00000000 		.word	ImpNotImpTL
 5117 2710 02000000 		.word	2
 5118 2714 880E0000 		.word	.LC219
 5119 2718 01000000 		.word	1
 5120 271c 00000000 		.word	0
 5121 2720 01000000 		.word	1
 5122 2724 01000000 		.word	1
 5123 2728 04000000 		.word	4
 5124 272c 0D000000 		.word	COM0R20_CB_cgf+13
 5125 2730 00000000 		.word	0
 5126 2734 00000000 		.word	0
 5127 2738 01000000 		.word	1
 5128 273c 01000000 		.word	1
 5129 2740 00000000 		.word	Token_Element_funcs
 5130 2744 00000000 		.word	ImpNotImpTL
 5131 2748 02000000 		.word	2
 5132 274c 900E0000 		.word	.LC220
 5133 2750 01000000 		.word	1
 5134 2754 00000000 		.word	0
 5135 2758 01000000 		.word	1
ARM GAS  /tmp/ccE14h5r.s 			page 105


 5136 275c 01000000 		.word	1
 5137 2760 04000000 		.word	4
 5138 2764 0D000000 		.word	COM0R20_CB_cgf+13
 5139 2768 00000000 		.word	0
 5140 276c 00000000 		.word	0
 5141 2770 02000000 		.word	2
 5142 2774 01000000 		.word	1
 5143 2778 00000000 		.word	Token_Element_funcs
 5144 277c 00000000 		.word	ImpNotImpTL
 5145 2780 02000000 		.word	2
 5146 2784 940E0000 		.word	.LC221
 5147 2788 01000000 		.word	1
 5148 278c 00000000 		.word	0
 5149 2790 01000000 		.word	1
 5150 2794 01000000 		.word	1
 5151 2798 04000000 		.word	4
 5152 279c 0D000000 		.word	COM0R20_CB_cgf+13
 5153 27a0 00000000 		.word	0
 5154 27a4 00000000 		.word	0
 5155 27a8 03000000 		.word	3
 5156 27ac 01000000 		.word	1
 5157 27b0 00000000 		.word	Token_Element_funcs
 5158 27b4 00000000 		.word	ImpNotImpTL
 5159 27b8 02000000 		.word	2
 5160 27bc 9C0E0000 		.word	.LC222
 5161 27c0 01000000 		.word	1
 5162 27c4 00000000 		.word	0
 5163 27c8 01000000 		.word	1
 5164 27cc 01000000 		.word	1
 5165 27d0 04000000 		.word	4
 5166 27d4 0D000000 		.word	COM0R20_CB_cgf+13
 5167 27d8 00000000 		.word	0
 5168 27dc 00000000 		.word	0
 5169 27e0 04000000 		.word	4
 5170 27e4 01000000 		.word	1
 5171 27e8 00000000 		.word	Token_Element_funcs
 5172 27ec 00000000 		.word	ImpNotImpTL
 5173 27f0 02000000 		.word	2
 5174 27f4 A40E0000 		.word	.LC223
 5175 27f8 01000000 		.word	1
 5176 27fc 00000000 		.word	0
 5177 2800 01000000 		.word	1
 5178 2804 01000000 		.word	1
 5179 2808 04000000 		.word	4
 5180 280c 0D000000 		.word	COM0R20_CB_cgf+13
 5181 2810 00000000 		.word	0
 5182 2814 00000000 		.word	0
 5183 2818 05000000 		.word	5
 5184 281c 01000000 		.word	1
 5185 2820 00000000 		.word	Token_Element_funcs
 5186 2824 00000000 		.word	ImpNotImpTL
 5187 2828 02000000 		.word	2
 5188 282c AC0E0000 		.word	.LC224
 5189 2830 01000000 		.word	1
 5190 2834 00000000 		.word	0
 5191 2838 01000000 		.word	1
 5192 283c 01000000 		.word	1
ARM GAS  /tmp/ccE14h5r.s 			page 106


 5193 2840 04000000 		.word	4
 5194 2844 0D000000 		.word	COM0R20_CB_cgf+13
 5195 2848 00000000 		.word	0
 5196 284c 00000000 		.word	0
 5197 2850 06000000 		.word	6
 5198 2854 01000000 		.word	1
 5199 2858 00000000 		.word	Token_Element_funcs
 5200 285c 00000000 		.word	ImpNotImpTL
 5201 2860 02000000 		.word	2
 5202 2864 B00E0000 		.word	.LC225
 5203 2868 01000000 		.word	1
 5204 286c 00000000 		.word	0
 5205 2870 01000000 		.word	1
 5206 2874 01000000 		.word	1
 5207 2878 04000000 		.word	4
 5208 287c 0D000000 		.word	COM0R20_CB_cgf+13
 5209 2880 00000000 		.word	0
 5210 2884 00000000 		.word	0
 5211 2888 07000000 		.word	7
 5212 288c 01000000 		.word	1
 5213 2890 00000000 		.word	Token_Element_funcs
 5214 2894 00000000 		.word	ImpNotImpTL
 5215 2898 02000000 		.word	2
 5216 289c BC0E0000 		.word	.LC226
 5217 28a0 01000000 		.word	1
 5218 28a4 00000000 		.word	0
 5219 28a8 01000000 		.word	1
 5220 28ac 01000000 		.word	1
 5221 28b0 04000000 		.word	4
 5222 28b4 0E000000 		.word	COM0R20_CB_cgf+14
 5223 28b8 00000000 		.word	0
 5224 28bc 00000000 		.word	0
 5225 28c0 00000000 		.word	0
 5226 28c4 01000000 		.word	1
 5227 28c8 00000000 		.word	Token_Element_funcs
 5228 28cc 00000000 		.word	ImpNotImpTL
 5229 28d0 02000000 		.word	2
 5230 28d4 C00E0000 		.word	.LC227
 5231 28d8 01000000 		.word	1
 5232 28dc 00000000 		.word	0
 5233 28e0 01000000 		.word	1
 5234 28e4 01000000 		.word	1
 5235 28e8 04000000 		.word	4
 5236 28ec 0E000000 		.word	COM0R20_CB_cgf+14
 5237 28f0 00000000 		.word	0
 5238 28f4 00000000 		.word	0
 5239 28f8 01000000 		.word	1
 5240 28fc 01000000 		.word	1
 5241 2900 00000000 		.word	Token_Element_funcs
 5242 2904 00000000 		.word	ImpNotImpTL
 5243 2908 02000000 		.word	2
 5244 290c C80E0000 		.word	.LC228
 5245 2910 01000000 		.word	1
 5246 2914 00000000 		.word	0
 5247 2918 01000000 		.word	1
 5248 291c 01000000 		.word	1
 5249 2920 04000000 		.word	4
ARM GAS  /tmp/ccE14h5r.s 			page 107


 5250 2924 0E000000 		.word	COM0R20_CB_cgf+14
 5251 2928 00000000 		.word	0
 5252 292c 00000000 		.word	0
 5253 2930 02000000 		.word	2
 5254 2934 01000000 		.word	1
 5255 2938 00000000 		.word	Token_Element_funcs
 5256 293c 00000000 		.word	ImpNotImpTL
 5257 2940 02000000 		.word	2
 5258 2944 CC0E0000 		.word	.LC229
 5259 2948 01000000 		.word	1
 5260 294c 00000000 		.word	0
 5261 2950 01000000 		.word	1
 5262 2954 01000000 		.word	1
 5263 2958 04000000 		.word	4
 5264 295c 0E000000 		.word	COM0R20_CB_cgf+14
 5265 2960 00000000 		.word	0
 5266 2964 00000000 		.word	0
 5267 2968 03000000 		.word	3
 5268 296c 01000000 		.word	1
 5269 2970 00000000 		.word	Token_Element_funcs
 5270 2974 00000000 		.word	ImpNotImpTL
 5271 2978 02000000 		.word	2
 5272 297c D40E0000 		.word	.LC230
 5273 2980 01000000 		.word	1
 5274 2984 00000000 		.word	0
 5275 2988 01000000 		.word	1
 5276 298c 01000000 		.word	1
 5277 2990 04000000 		.word	4
 5278 2994 0E000000 		.word	COM0R20_CB_cgf+14
 5279 2998 00000000 		.word	0
 5280 299c 00000000 		.word	0
 5281 29a0 04000000 		.word	4
 5282 29a4 01000000 		.word	1
 5283 29a8 00000000 		.word	Token_Element_funcs
 5284 29ac 00000000 		.word	ImpNotImpTL
 5285 29b0 02000000 		.word	2
 5286 29b4 DC0E0000 		.word	.LC231
 5287 29b8 01000000 		.word	1
 5288 29bc 00000000 		.word	0
 5289 29c0 01000000 		.word	1
 5290 29c4 01000000 		.word	1
 5291 29c8 04000000 		.word	4
 5292 29cc 0E000000 		.word	COM0R20_CB_cgf+14
 5293 29d0 00000000 		.word	0
 5294 29d4 00000000 		.word	0
 5295 29d8 05000000 		.word	5
 5296 29dc 01000000 		.word	1
 5297 29e0 00000000 		.word	Token_Element_funcs
 5298 29e4 00000000 		.word	ImpNotImpTL
 5299 29e8 02000000 		.word	2
 5300 29ec E40E0000 		.word	.LC232
 5301 29f0 01000000 		.word	1
 5302 29f4 00000000 		.word	0
 5303 29f8 01000000 		.word	1
 5304 29fc 01000000 		.word	1
 5305 2a00 04000000 		.word	4
 5306 2a04 0E000000 		.word	COM0R20_CB_cgf+14
ARM GAS  /tmp/ccE14h5r.s 			page 108


 5307 2a08 00000000 		.word	0
 5308 2a0c 00000000 		.word	0
 5309 2a10 06000000 		.word	6
 5310 2a14 01000000 		.word	1
 5311 2a18 00000000 		.word	Token_Element_funcs
 5312 2a1c 00000000 		.word	ImpNotImpTL
 5313 2a20 02000000 		.word	2
 5314 2a24 EC0E0000 		.word	.LC233
 5315 2a28 01000000 		.word	1
 5316 2a2c 00000000 		.word	0
 5317 2a30 01000000 		.word	1
 5318 2a34 01000000 		.word	1
 5319 2a38 04000000 		.word	4
 5320 2a3c 0F000000 		.word	COM0R20_CB_cgf+15
 5321 2a40 00000000 		.word	0
 5322 2a44 00000000 		.word	0
 5323 2a48 00000000 		.word	0
 5324 2a4c 03000000 		.word	3
 5325 2a50 00000000 		.word	Token_Element_funcs
 5326 2a54 00000000 		.word	DDI1TL
 5327 2a58 02000000 		.word	2
 5328 2a5c F0080000 		.word	.LC89
 5329 2a60 01000000 		.word	1
 5330 2a64 00000000 		.word	0
 5331 2a68 01000000 		.word	1
 5332 2a6c 01000000 		.word	1
 5333 2a70 04000000 		.word	4
 5334 2a74 0F000000 		.word	COM0R20_CB_cgf+15
 5335 2a78 00000000 		.word	0
 5336 2a7c 00000000 		.word	0
 5337 2a80 04000000 		.word	4
 5338 2a84 03000000 		.word	3
 5339 2a88 00000000 		.word	Token_Element_funcs
 5340 2a8c 00000000 		.word	DDI1TL
 5341 2a90 02000000 		.word	2
 5342 2a94 F8080000 		.word	.LC90
 5343 2a98 01000000 		.word	1
 5344 2a9c 00000000 		.word	0
 5345 2aa0 01000000 		.word	1
 5346 2aa4 01000000 		.word	1
 5347 2aa8 04000000 		.word	4
 5348 2aac 10000000 		.word	COM0R20_CB_cgf+16
 5349 2ab0 00000000 		.word	0
 5350 2ab4 00000000 		.word	0
 5351 2ab8 00000000 		.word	0
 5352 2abc 02000000 		.word	2
 5353 2ac0 00000000 		.word	Token_Element_funcs
 5354 2ac4 00000000 		.word	DDI2TL
 5355 2ac8 02000000 		.word	2
 5356 2acc 00090000 		.word	.LC91
 5357 2ad0 01000000 		.word	1
 5358 2ad4 00000000 		.word	0
 5359 2ad8 01000000 		.word	1
 5360 2adc 01000000 		.word	1
 5361 2ae0 04000000 		.word	4
 5362 2ae4 10000000 		.word	COM0R20_CB_cgf+16
 5363 2ae8 00000000 		.word	0
ARM GAS  /tmp/ccE14h5r.s 			page 109


 5364 2aec 00000000 		.word	0
 5365 2af0 04000000 		.word	4
 5366 2af4 02000000 		.word	2
 5367 2af8 00000000 		.word	Token_Element_funcs
 5368 2afc 00000000 		.word	DDI2TL
 5369 2b00 02000000 		.word	2
 5370 2b04 F40E0000 		.word	.LC234
 5371 2b08 01000000 		.word	1
 5372 2b0c 00000000 		.word	0
 5373 2b10 20000000 		.word	32
 5374 2b14 04000000 		.word	4
 5375 2b18 04000000 		.word	4
 5376 2b1c 14000000 		.word	COM0R20_CB_cgf+20
 5377 2b20 00000000 		.word	0
 5378 2b24 00000000 		.word	0
 5379 2b28 00000000 		.word	0
 5380 2b2c 20000000 		.word	32
 5381 2b30 00000000 		.word	COM0PCIe_Element_funcs
 5382 2b34 00000000 		.word	0
 5383              		.global	COM0R20_M_Desc
 5384              		.section	.rodata
 5385 0efe 0000     		.align	2
 5386              	.LC235:
 5387 0f00 4D547970 		.ascii	"MType\000"
 5387      6500
 5388              		.section	.data.rel
 5389              		.align	2
 5392              	COM0R20_M_Desc:
 5393 2b38 02000000 		.word	2
 5394 2b3c BC0D0000 		.word	.LC201
 5395 2b40 01000000 		.word	1
 5396 2b44 00000000 		.word	0
 5397 2b48 01000000 		.word	1
 5398 2b4c 01000000 		.word	1
 5399 2b50 04000000 		.word	4
 5400 2b54 00000000 		.word	COM0R20_M_cgf
 5401 2b58 00000000 		.word	0
 5402 2b5c 00000000 		.word	0
 5403 2b60 04000000 		.word	4
 5404 2b64 01000000 		.word	1
 5405 2b68 00000000 		.word	Token_Element_funcs
 5406 2b6c 00000000 		.word	StandardExtendedTL
 5407 2b70 02000000 		.word	2
 5408 2b74 CC0D0000 		.word	.LC202
 5409 2b78 01000000 		.word	1
 5410 2b7c 00000000 		.word	0
 5411 2b80 01000000 		.word	1
 5412 2b84 01000000 		.word	1
 5413 2b88 04000000 		.word	4
 5414 2b8c 00000000 		.word	COM0R20_M_cgf
 5415 2b90 00000000 		.word	0
 5416 2b94 00000000 		.word	0
 5417 2b98 00000000 		.word	0
 5418 2b9c 04000000 		.word	4
 5419 2ba0 00000000 		.word	Token_Element_funcs
 5420 2ba4 00000000 		.word	EEPDeviceSizeTL
 5421 2ba8 02000000 		.word	2
ARM GAS  /tmp/ccE14h5r.s 			page 110


 5422 2bac DC0D0000 		.word	.LC203
 5423 2bb0 01000000 		.word	1
 5424 2bb4 00000000 		.word	0
 5425 2bb8 01000000 		.word	1
 5426 2bbc 01000000 		.word	1
 5427 2bc0 04000000 		.word	4
 5428 2bc4 00000000 		.word	COM0R20_M_cgf
 5429 2bc8 00000000 		.word	0
 5430 2bcc 00000000 		.word	0
 5431 2bd0 05000000 		.word	5
 5432 2bd4 03000000 		.word	3
 5433 2bd8 00000000 		.word	Token_Element_funcs
 5434 2bdc 00000000 		.word	EeePEEPWriteLenTL
 5435 2be0 02000000 		.word	2
 5436 2be4 540C0000 		.word	.LC162
 5437 2be8 01000000 		.word	1
 5438 2bec 00000000 		.word	0
 5439 2bf0 01000000 		.word	1
 5440 2bf4 02000000 		.word	2
 5441 2bf8 04000000 		.word	4
 5442 2bfc 02000000 		.word	COM0R20_M_cgf+2
 5443 2c00 00000000 		.word	0
 5444 2c04 00000000 		.word	0
 5445 2c08 00000000 		.word	0
 5446 2c0c 10000000 		.word	16
 5447 2c10 00000000 		.word	PNPID_Element_funcs
 5448 2c14 00000000 		.word	0
 5449 2c18 02000000 		.word	2
 5450 2c1c E80D0000 		.word	.LC204
 5451 2c20 01000000 		.word	1
 5452 2c24 00000000 		.word	0
 5453 2c28 01000000 		.word	1
 5454 2c2c 02000000 		.word	2
 5455 2c30 04000000 		.word	4
 5456 2c34 04000000 		.word	COM0R20_M_cgf+4
 5457 2c38 00000000 		.word	0
 5458 2c3c 00000000 		.word	0
 5459 2c40 00000000 		.word	0
 5460 2c44 10000000 		.word	16
 5461 2c48 00000000 		.word	Number_Element_funcs
 5462 2c4c 00000000 		.word	UINT16RangeDesc
 5463 2c50 02000000 		.word	2
 5464 2c54 F40D0000 		.word	.LC205
 5465 2c58 01000000 		.word	1
 5466 2c5c 00000000 		.word	0
 5467 2c60 01000000 		.word	1
 5468 2c64 01000000 		.word	1
 5469 2c68 04000000 		.word	4
 5470 2c6c 06000000 		.word	COM0R20_M_cgf+6
 5471 2c70 00000000 		.word	0
 5472 2c74 00000000 		.word	0
 5473 2c78 00000000 		.word	0
 5474 2c7c 08000000 		.word	8
 5475 2c80 00000000 		.word	Number_Element_funcs
 5476 2c84 00000000 		.word	UINT8RangeDesc
 5477 2c88 02000000 		.word	2
 5478 2c8c 000E0000 		.word	.LC206
ARM GAS  /tmp/ccE14h5r.s 			page 111


 5479 2c90 01000000 		.word	1
 5480 2c94 00000000 		.word	0
 5481 2c98 01000000 		.word	1
 5482 2c9c 01000000 		.word	1
 5483 2ca0 04000000 		.word	4
 5484 2ca4 07000000 		.word	COM0R20_M_cgf+7
 5485 2ca8 00000000 		.word	0
 5486 2cac 00000000 		.word	0
 5487 2cb0 00000000 		.word	0
 5488 2cb4 08000000 		.word	8
 5489 2cb8 00000000 		.word	Number_Element_funcs
 5490 2cbc 00000000 		.word	UINT8RangeDesc
 5491 2cc0 02000000 		.word	2
 5492 2cc4 000F0000 		.word	.LC235
 5493 2cc8 01000000 		.word	1
 5494 2ccc 00000000 		.word	0
 5495 2cd0 01000000 		.word	1
 5496 2cd4 01000000 		.word	1
 5497 2cd8 04000000 		.word	4
 5498 2cdc 08000000 		.word	COM0R20_M_cgf+8
 5499 2ce0 00000000 		.word	0
 5500 2ce4 00000000 		.word	0
 5501 2ce8 00000000 		.word	0
 5502 2cec 08000000 		.word	8
 5503 2cf0 00000000 		.word	Number_Element_funcs
 5504 2cf4 00000000 		.word	ValidModuleTypesDesc
 5505 2cf8 02000000 		.word	2
 5506 2cfc 100E0000 		.word	.LC208
 5507 2d00 01000000 		.word	1
 5508 2d04 00000000 		.word	0
 5509 2d08 01000000 		.word	1
 5510 2d0c 01000000 		.word	1
 5511 2d10 04000000 		.word	4
 5512 2d14 09000000 		.word	COM0R20_M_cgf+9
 5513 2d18 00000000 		.word	0
 5514 2d1c 00000000 		.word	0
 5515 2d20 00000000 		.word	0
 5516 2d24 08000000 		.word	8
 5517 2d28 00000000 		.word	SpecRev_Element_funcs
 5518 2d2c 00000000 		.word	0
 5519              		.global	EeePExpHdr_Desc
 5520              		.align	2
 5523              	EeePExpHdr_Desc:
 5524 2d30 02000000 		.word	2
 5525 2d34 BC0D0000 		.word	.LC201
 5526 2d38 01000000 		.word	1
 5527 2d3c 00000000 		.word	0
 5528 2d40 01000000 		.word	1
 5529 2d44 01000000 		.word	1
 5530 2d48 04000000 		.word	4
 5531 2d4c 00000000 		.word	EeePExpHdr_cgf
 5532 2d50 00000000 		.word	0
 5533 2d54 00000000 		.word	0
 5534 2d58 04000000 		.word	4
 5535 2d5c 01000000 		.word	1
 5536 2d60 00000000 		.word	Token_Element_funcs
 5537 2d64 00000000 		.word	StandardExtendedTL
ARM GAS  /tmp/ccE14h5r.s 			page 112


 5538 2d68 02000000 		.word	2
 5539 2d6c CC0D0000 		.word	.LC202
 5540 2d70 01000000 		.word	1
 5541 2d74 00000000 		.word	0
 5542 2d78 01000000 		.word	1
 5543 2d7c 01000000 		.word	1
 5544 2d80 04000000 		.word	4
 5545 2d84 00000000 		.word	EeePExpHdr_cgf
 5546 2d88 00000000 		.word	0
 5547 2d8c 00000000 		.word	0
 5548 2d90 00000000 		.word	0
 5549 2d94 04000000 		.word	4
 5550 2d98 00000000 		.word	Token_Element_funcs
 5551 2d9c 00000000 		.word	EEPDeviceSizeTL
 5552 2da0 02000000 		.word	2
 5553 2da4 DC0D0000 		.word	.LC203
 5554 2da8 01000000 		.word	1
 5555 2dac 00000000 		.word	0
 5556 2db0 01000000 		.word	1
 5557 2db4 01000000 		.word	1
 5558 2db8 04000000 		.word	4
 5559 2dbc 00000000 		.word	EeePExpHdr_cgf
 5560 2dc0 00000000 		.word	0
 5561 2dc4 00000000 		.word	0
 5562 2dc8 05000000 		.word	5
 5563 2dcc 03000000 		.word	3
 5564 2dd0 00000000 		.word	Token_Element_funcs
 5565 2dd4 00000000 		.word	EeePEEPWriteLenTL
 5566 2dd8 02000000 		.word	2
 5567 2ddc 540C0000 		.word	.LC162
 5568 2de0 01000000 		.word	1
 5569 2de4 00000000 		.word	0
 5570 2de8 01000000 		.word	1
 5571 2dec 02000000 		.word	2
 5572 2df0 04000000 		.word	4
 5573 2df4 02000000 		.word	EeePExpHdr_cgf+2
 5574 2df8 00000000 		.word	0
 5575 2dfc 00000000 		.word	0
 5576 2e00 00000000 		.word	0
 5577 2e04 10000000 		.word	16
 5578 2e08 00000000 		.word	PNPID_Element_funcs
 5579 2e0c 00000000 		.word	0
 5580 2e10 02000000 		.word	2
 5581 2e14 E80D0000 		.word	.LC204
 5582 2e18 01000000 		.word	1
 5583 2e1c 00000000 		.word	0
 5584 2e20 01000000 		.word	1
 5585 2e24 02000000 		.word	2
 5586 2e28 04000000 		.word	4
 5587 2e2c 04000000 		.word	EeePExpHdr_cgf+4
 5588 2e30 00000000 		.word	0
 5589 2e34 00000000 		.word	0
 5590 2e38 00000000 		.word	0
 5591 2e3c 10000000 		.word	16
 5592 2e40 00000000 		.word	Number_Element_funcs
 5593 2e44 00000000 		.word	UINT16RangeDesc
 5594 2e48 02000000 		.word	2
ARM GAS  /tmp/ccE14h5r.s 			page 113


 5595 2e4c F40D0000 		.word	.LC205
 5596 2e50 01000000 		.word	1
 5597 2e54 00000000 		.word	0
 5598 2e58 01000000 		.word	1
 5599 2e5c 01000000 		.word	1
 5600 2e60 04000000 		.word	4
 5601 2e64 06000000 		.word	EeePExpHdr_cgf+6
 5602 2e68 00000000 		.word	0
 5603 2e6c 00000000 		.word	0
 5604 2e70 00000000 		.word	0
 5605 2e74 08000000 		.word	8
 5606 2e78 00000000 		.word	Number_Element_funcs
 5607 2e7c 00000000 		.word	UINT8RangeDesc
 5608 2e80 02000000 		.word	2
 5609 2e84 000E0000 		.word	.LC206
 5610 2e88 01000000 		.word	1
 5611 2e8c 00000000 		.word	0
 5612 2e90 01000000 		.word	1
 5613 2e94 01000000 		.word	1
 5614 2e98 04000000 		.word	4
 5615 2e9c 07000000 		.word	EeePExpHdr_cgf+7
 5616 2ea0 00000000 		.word	0
 5617 2ea4 00000000 		.word	0
 5618 2ea8 00000000 		.word	0
 5619 2eac 08000000 		.word	8
 5620 2eb0 00000000 		.word	Number_Element_funcs
 5621 2eb4 00000000 		.word	UINT8RangeDesc
 5622              		.global	ValidCOM0PCIePort
 5623              		.data
 5624              		.align	2
 5627              	ValidCOM0PCIePort:
 5628 01cc 00000000 		.word	0
 5629 01d0 1F000000 		.word	31
 5630 01d4 01000000 		.word	1
 5631              		.global	ValidCOM0PCIePortDesc
 5632              		.section	.data.rel.local
 5633              		.align	2
 5636              	ValidCOM0PCIePortDesc:
 5637 05f8 01000000 		.word	1
 5638 05fc 00000000 		.word	ValidCOM0PCIePort
 5639              		.global	ValidCOM0USBPort
 5640              		.data
 5641              		.align	2
 5644              	ValidCOM0USBPort:
 5645 01d8 00000000 		.word	0
 5646 01dc 07000000 		.word	7
 5647 01e0 01000000 		.word	1
 5648              		.global	ValidCOM0USBPortDesc
 5649              		.section	.data.rel.local
 5650              		.align	2
 5653              	ValidCOM0USBPortDesc:
 5654 0600 01000000 		.word	1
 5655 0604 00000000 		.word	ValidCOM0USBPort
 5656              		.global	COM0R20_ExpCard0Desc
 5657              		.section	.rodata
 5658 0f06 0000     		.align	2
 5659              	.LC236:
ARM GAS  /tmp/ccE14h5r.s 			page 114


 5660 0f08 434F4D30 		.ascii	"COM0_PCIe_Port\000"
 5660      5F504349 
 5660      655F506F 
 5660      727400
 5661 0f17 00       		.align	2
 5662              	.LC237:
 5663 0f18 434F4D30 		.ascii	"COM0_USB_Port\000"
 5663      5F555342 
 5663      5F506F72 
 5663      7400
 5664 0f26 0000     		.align	2
 5665              	.LC238:
 5666 0f28 53776974 		.ascii	"SwitchPFA\000"
 5666      63685046 
 5666      4100
 5667              		.section	.data.rel
 5668              		.align	2
 5671              	COM0R20_ExpCard0Desc:
 5672 2eb8 02000000 		.word	2
 5673 2ebc 4C0B0000 		.word	.LC139
 5674 2ec0 01000000 		.word	1
 5675 2ec4 00000000 		.word	0
 5676 2ec8 01000000 		.word	1
 5677 2ecc 04000000 		.word	4
 5678 2ed0 04000000 		.word	4
 5679 2ed4 20000000 		.word	COM0R20_ECard0_cgf+32
 5680 2ed8 00000000 		.word	0
 5681 2edc 00000000 		.word	0
 5682 2ee0 00000000 		.word	0
 5683 2ee4 20000000 		.word	32
 5684 2ee8 00000000 		.word	Token_Element_funcs
 5685 2eec 00000000 		.word	InsideCrcTL
 5686 2ef0 02000000 		.word	2
 5687 2ef4 580B0000 		.word	.LC140
 5688 2ef8 00000000 		.word	0
 5689 2efc 00000000 		.word	0
 5690 2f00 01000000 		.word	1
 5691 2f04 04000000 		.word	4
 5692 2f08 04000000 		.word	4
 5693 2f0c 24000000 		.word	COM0R20_ECard0_cgf+36
 5694 2f10 00000000 		.word	0
 5695 2f14 00000000 		.word	0
 5696 2f18 00000000 		.word	0
 5697 2f1c 20000000 		.word	32
 5698 2f20 00000000 		.word	Number_Element_funcs
 5699 2f24 00000000 		.word	ValidMinSizeDesc
 5700 2f28 02000000 		.word	2
 5701 2f2c 680B0000 		.word	.LC141
 5702 2f30 00000000 		.word	0
 5703 2f34 00000000 		.word	0
 5704 2f38 01000000 		.word	1
