ARM GAS  /tmp/ccG9b1tU.s 			page 1


   1              		.cpu cortex-a9
   2              		.eabi_attribute 28, 1
   3              		.eabi_attribute 20, 1
   4              		.eabi_attribute 21, 1
   5              		.eabi_attribute 23, 3
   6              		.eabi_attribute 24, 1
   7              		.eabi_attribute 25, 1
   8              		.eabi_attribute 26, 2
   9              		.eabi_attribute 30, 6
  10              		.eabi_attribute 34, 1
  11              		.eabi_attribute 18, 4
  12              		.file	"Str2Value.c"
  13              		.text
  14              	.Ltext0:
  15              		.cfi_sections	.debug_frame
  16              		.align	2
  17              		.global	ReturnEnvVar
  18              		.arch armv7-a
  19              		.arch_extension mp
  20              		.arch_extension sec
  21              		.syntax unified
  22              		.arm
  23              		.fpu vfpv3
  25              	ReturnEnvVar:
  26              	.LFB1:
  27              		.file 1 "/home/hkh/git/eapidk-code-r76-trunk/apps/EeePProg/linux/../Str2Value.c"
   1:/home/hkh/git/eapidk-code-r76-trunk/apps/EeePProg/linux/../Str2Value.c **** /*
   2:/home/hkh/git/eapidk-code-r76-trunk/apps/EeePProg/linux/../Str2Value.c ****  *<KHeader>
   3:/home/hkh/git/eapidk-code-r76-trunk/apps/EeePProg/linux/../Str2Value.c ****  *+=========================================================================
   4:/home/hkh/git/eapidk-code-r76-trunk/apps/EeePProg/linux/../Str2Value.c ****  *I  Project Name: EApiDK Embedded Application Development Kit
   5:/home/hkh/git/eapidk-code-r76-trunk/apps/EeePProg/linux/../Str2Value.c ****  *+=========================================================================
   6:/home/hkh/git/eapidk-code-r76-trunk/apps/EeePProg/linux/../Str2Value.c ****  *I  $HeadURL: file:///svn/p/eapidk/code/trunk/apps/EeePProg/Str2Value.c $
   7:/home/hkh/git/eapidk-code-r76-trunk/apps/EeePProg/linux/../Str2Value.c ****  *+=========================================================================
   8:/home/hkh/git/eapidk-code-r76-trunk/apps/EeePProg/linux/../Str2Value.c ****  *I   Copyright: Copyright (c) 2002-2010, Kontron Embedded Modules GmbH
   9:/home/hkh/git/eapidk-code-r76-trunk/apps/EeePProg/linux/../Str2Value.c ****  *I      Author: John Kearney,                  John.Kearney@kontron.com
  10:/home/hkh/git/eapidk-code-r76-trunk/apps/EeePProg/linux/../Str2Value.c ****  *I
  11:/home/hkh/git/eapidk-code-r76-trunk/apps/EeePProg/linux/../Str2Value.c ****  *I     License: This program contains proprietary and confidential 
  12:/home/hkh/git/eapidk-code-r76-trunk/apps/EeePProg/linux/../Str2Value.c ****  *I              information. All rights reserved except as may be 
  13:/home/hkh/git/eapidk-code-r76-trunk/apps/EeePProg/linux/../Str2Value.c ****  *I              permitted by prior written consent.
  14:/home/hkh/git/eapidk-code-r76-trunk/apps/EeePProg/linux/../Str2Value.c ****  *I
  15:/home/hkh/git/eapidk-code-r76-trunk/apps/EeePProg/linux/../Str2Value.c ****  *I Description: Auto Created for sEAPI_printf.c
  16:/home/hkh/git/eapidk-code-r76-trunk/apps/EeePProg/linux/../Str2Value.c ****  *I
  17:/home/hkh/git/eapidk-code-r76-trunk/apps/EeePProg/linux/../Str2Value.c ****  *+-------------------------------------------------------------------------
  18:/home/hkh/git/eapidk-code-r76-trunk/apps/EeePProg/linux/../Str2Value.c ****  *I
  19:/home/hkh/git/eapidk-code-r76-trunk/apps/EeePProg/linux/../Str2Value.c ****  *I  File Name            : StrFuncs.c
  20:/home/hkh/git/eapidk-code-r76-trunk/apps/EeePProg/linux/../Str2Value.c ****  *I  File Location        : apps\EeePProg
  21:/home/hkh/git/eapidk-code-r76-trunk/apps/EeePProg/linux/../Str2Value.c ****  *I  Last committed       : $Revision: 75 $
  22:/home/hkh/git/eapidk-code-r76-trunk/apps/EeePProg/linux/../Str2Value.c ****  *I  Last changed by      : $Author: dethrophes $
  23:/home/hkh/git/eapidk-code-r76-trunk/apps/EeePProg/linux/../Str2Value.c ****  *I  Last changed date    : $Date: 2010-06-28 23:50:38 +0000 (Mon, 28 Jun 2010) $
  24:/home/hkh/git/eapidk-code-r76-trunk/apps/EeePProg/linux/../Str2Value.c ****  *I  ID                   : $Id: Str2Value.c 75 2010-06-28 23:50:38Z dethrophes $
  25:/home/hkh/git/eapidk-code-r76-trunk/apps/EeePProg/linux/../Str2Value.c ****  *I
  26:/home/hkh/git/eapidk-code-r76-trunk/apps/EeePProg/linux/../Str2Value.c ****  *+=========================================================================
  27:/home/hkh/git/eapidk-code-r76-trunk/apps/EeePProg/linux/../Str2Value.c ****  *</KHeader>
  28:/home/hkh/git/eapidk-code-r76-trunk/apps/EeePProg/linux/../Str2Value.c ****  */
  29:/home/hkh/git/eapidk-code-r76-trunk/apps/EeePProg/linux/../Str2Value.c **** 
  30:/home/hkh/git/eapidk-code-r76-trunk/apps/EeePProg/linux/../Str2Value.c **** #include <EeePApp.h>
  31:/home/hkh/git/eapidk-code-r76-trunk/apps/EeePProg/linux/../Str2Value.c ****   #include <ctype.h>
ARM GAS  /tmp/ccG9b1tU.s 			page 2


  32:/home/hkh/git/eapidk-code-r76-trunk/apps/EeePProg/linux/../Str2Value.c ****   #include <limits.h>
  33:/home/hkh/git/eapidk-code-r76-trunk/apps/EeePProg/linux/../Str2Value.c **** 
  34:/home/hkh/git/eapidk-code-r76-trunk/apps/EeePProg/linux/../Str2Value.c **** #define EAPI_STATUS_PARSE_ERROR EAPI_STATUS_ERROR
  35:/home/hkh/git/eapidk-code-r76-trunk/apps/EeePProg/linux/../Str2Value.c **** char *
  36:/home/hkh/git/eapidk-code-r76-trunk/apps/EeePProg/linux/../Str2Value.c **** ReturnEnvVar(
  37:/home/hkh/git/eapidk-code-r76-trunk/apps/EeePProg/linux/../Str2Value.c ****     const char *const VarName
  38:/home/hkh/git/eapidk-code-r76-trunk/apps/EeePProg/linux/../Str2Value.c ****     )
  39:/home/hkh/git/eapidk-code-r76-trunk/apps/EeePProg/linux/../Str2Value.c **** {
  28              		.loc 1 39 1
  29              		.cfi_startproc
  30              		@ args = 0, pretend = 0, frame = 16
  31              		@ frame_needed = 1, uses_anonymous_args = 0
  32 0000 00482DE9 		push	{fp, lr}
  33              		.cfi_def_cfa_offset 8
  34              		.cfi_offset 11, -8
  35              		.cfi_offset 14, -4
  36 0004 04B08DE2 		add	fp, sp, #4
  37              		.cfi_def_cfa 11, 4
  38 0008 10D04DE2 		sub	sp, sp, #16
  39 000c 10000BE5 		str	r0, [fp, #-16]
  40:/home/hkh/git/eapidk-code-r76-trunk/apps/EeePProg/linux/../Str2Value.c ****     char* libvar=NULL;
  40              		.loc 1 40 11
  41 0010 0030A0E3 		mov	r3, #0
  42 0014 08300BE5 		str	r3, [fp, #-8]
  41:/home/hkh/git/eapidk-code-r76-trunk/apps/EeePProg/linux/../Str2Value.c **** 
  42:/home/hkh/git/eapidk-code-r76-trunk/apps/EeePProg/linux/../Str2Value.c **** #if 0
  43:/home/hkh/git/eapidk-code-r76-trunk/apps/EeePProg/linux/../Str2Value.c ****     size_t requiredSize;
  44:/home/hkh/git/eapidk-code-r76-trunk/apps/EeePProg/linux/../Str2Value.c ****     getenv_s( &requiredSize, NULL, 0, VarName);
  45:/home/hkh/git/eapidk-code-r76-trunk/apps/EeePProg/linux/../Str2Value.c ****     if(requiredSize==0)
  46:/home/hkh/git/eapidk-code-r76-trunk/apps/EeePProg/linux/../Str2Value.c ****       goto ErrorExit;
  47:/home/hkh/git/eapidk-code-r76-trunk/apps/EeePProg/linux/../Str2Value.c **** 
  48:/home/hkh/git/eapidk-code-r76-trunk/apps/EeePProg/linux/../Str2Value.c ****     libvar = (char*) malloc(requiredSize * sizeof(char));
  49:/home/hkh/git/eapidk-code-r76-trunk/apps/EeePProg/linux/../Str2Value.c ****     if (!libvar)
  50:/home/hkh/git/eapidk-code-r76-trunk/apps/EeePProg/linux/../Str2Value.c ****     {
  51:/home/hkh/git/eapidk-code-r76-trunk/apps/EeePProg/linux/../Str2Value.c ****         printf("Failed to allocate memory!\n");
  52:/home/hkh/git/eapidk-code-r76-trunk/apps/EeePProg/linux/../Str2Value.c ****         goto ErrorExit;
  53:/home/hkh/git/eapidk-code-r76-trunk/apps/EeePProg/linux/../Str2Value.c ****     }
  54:/home/hkh/git/eapidk-code-r76-trunk/apps/EeePProg/linux/../Str2Value.c **** 
  55:/home/hkh/git/eapidk-code-r76-trunk/apps/EeePProg/linux/../Str2Value.c ****     // Get the value of the LIB environment variable.
  56:/home/hkh/git/eapidk-code-r76-trunk/apps/EeePProg/linux/../Str2Value.c ****     getenv_s( &requiredSize, libvar, requiredSize, VarName );
  57:/home/hkh/git/eapidk-code-r76-trunk/apps/EeePProg/linux/../Str2Value.c **** #else
  58:/home/hkh/git/eapidk-code-r76-trunk/apps/EeePProg/linux/../Str2Value.c ****     libvar=getenv(VarName);
  43              		.loc 1 58 12
  44 0018 10001BE5 		ldr	r0, [fp, #-16]
  45 001c FEFFFFEB 		bl	getenv(PLT)
  46 0020 08000BE5 		str	r0, [fp, #-8]
  59:/home/hkh/git/eapidk-code-r76-trunk/apps/EeePProg/linux/../Str2Value.c ****     if(libvar==NULL) goto ErrorExit;
  47              		.loc 1 59 7
  48 0024 08301BE5 		ldr	r3, [fp, #-8]
  49 0028 000053E3 		cmp	r3, #0
  50 002c 0400000A 		beq	.L5
  60:/home/hkh/git/eapidk-code-r76-trunk/apps/EeePProg/linux/../Str2Value.c ****     libvar=EAPI_strdup(libvar);
  51              		.loc 1 60 12
  52 0030 08001BE5 		ldr	r0, [fp, #-8]
  53 0034 FEFFFFEB 		bl	strdup(PLT)
  54 0038 0030A0E1 		mov	r3, r0
  55 003c 08300BE5 		str	r3, [fp, #-8]
ARM GAS  /tmp/ccG9b1tU.s 			page 3


  56 0040 000000EA 		b	.L3
  57              	.L5:
  59:/home/hkh/git/eapidk-code-r76-trunk/apps/EeePProg/linux/../Str2Value.c ****     if(libvar==NULL) goto ErrorExit;
  58              		.loc 1 59 22
  59 0044 00F020E3 		nop
  60              	.L3:
  61:/home/hkh/git/eapidk-code-r76-trunk/apps/EeePProg/linux/../Str2Value.c **** #endif
  62:/home/hkh/git/eapidk-code-r76-trunk/apps/EeePProg/linux/../Str2Value.c ****     // 
  63:/home/hkh/git/eapidk-code-r76-trunk/apps/EeePProg/linux/../Str2Value.c **** ErrorExit:
  64:/home/hkh/git/eapidk-code-r76-trunk/apps/EeePProg/linux/../Str2Value.c ****     return libvar;
  61              		.loc 1 64 12
  62 0048 08301BE5 		ldr	r3, [fp, #-8]
  65:/home/hkh/git/eapidk-code-r76-trunk/apps/EeePProg/linux/../Str2Value.c **** }
  63              		.loc 1 65 1
  64 004c 0300A0E1 		mov	r0, r3
  65 0050 04D04BE2 		sub	sp, fp, #4
  66              		.cfi_def_cfa 13, 8
  67              		@ sp needed
  68 0054 0088BDE8 		pop	{fp, pc}
  69              		.cfi_endproc
  70              	.LFE1:
  72              		.section	.rodata
  73              		.align	2
  74              	.LC0:
  75 0000 307800   		.ascii	"0x\000"
  76              		.text
  77              		.align	2
  78              		.global	ulConvertStr2NumEx
  79              		.syntax unified
  80              		.arm
  81              		.fpu vfpv3
  83              	ulConvertStr2NumEx:
  84              	.LFB2:
  66:/home/hkh/git/eapidk-code-r76-trunk/apps/EeePProg/linux/../Str2Value.c **** 
  67:/home/hkh/git/eapidk-code-r76-trunk/apps/EeePProg/linux/../Str2Value.c **** #if 0
  68:/home/hkh/git/eapidk-code-r76-trunk/apps/EeePProg/linux/../Str2Value.c **** unsigned long 
  69:/home/hkh/git/eapidk-code-r76-trunk/apps/EeePProg/linux/../Str2Value.c **** ulConvertStr2NumCEx(
  70:/home/hkh/git/eapidk-code-r76-trunk/apps/EeePProg/linux/../Str2Value.c ****     const char *  cszString, 
  71:/home/hkh/git/eapidk-code-r76-trunk/apps/EeePProg/linux/../Str2Value.c ****     char **const  pszEnd, 
  72:/home/hkh/git/eapidk-code-r76-trunk/apps/EeePProg/linux/../Str2Value.c ****     const char  * Indent
  73:/home/hkh/git/eapidk-code-r76-trunk/apps/EeePProg/linux/../Str2Value.c ****     )
  74:/home/hkh/git/eapidk-code-r76-trunk/apps/EeePProg/linux/../Str2Value.c ****   {
  75:/home/hkh/git/eapidk-code-r76-trunk/apps/EeePProg/linux/../Str2Value.c ****     unsigned long ReturnVal;
  76:/home/hkh/git/eapidk-code-r76-trunk/apps/EeePProg/linux/../Str2Value.c ****     int siRadix=10;
  77:/home/hkh/git/eapidk-code-r76-trunk/apps/EeePProg/linux/../Str2Value.c ****     cszString=skipWhiteSpaces(cszString);
  78:/home/hkh/git/eapidk-code-r76-trunk/apps/EeePProg/linux/../Str2Value.c ****     if(*cszString=='0'){
  79:/home/hkh/git/eapidk-code-r76-trunk/apps/EeePProg/linux/../Str2Value.c ****       cszString++;
  80:/home/hkh/git/eapidk-code-r76-trunk/apps/EeePProg/linux/../Str2Value.c ****       switch(*cszString){
  81:/home/hkh/git/eapidk-code-r76-trunk/apps/EeePProg/linux/../Str2Value.c ****         case 'x':
  82:/home/hkh/git/eapidk-code-r76-trunk/apps/EeePProg/linux/../Str2Value.c ****           cszString++;
  83:/home/hkh/git/eapidk-code-r76-trunk/apps/EeePProg/linux/../Str2Value.c ****           siRadix=16;
  84:/home/hkh/git/eapidk-code-r76-trunk/apps/EeePProg/linux/../Str2Value.c ****           break;
  85:/home/hkh/git/eapidk-code-r76-trunk/apps/EeePProg/linux/../Str2Value.c ****         default:
  86:/home/hkh/git/eapidk-code-r76-trunk/apps/EeePProg/linux/../Str2Value.c ****           siRadix=8;
  87:/home/hkh/git/eapidk-code-r76-trunk/apps/EeePProg/linux/../Str2Value.c ****           break;
  88:/home/hkh/git/eapidk-code-r76-trunk/apps/EeePProg/linux/../Str2Value.c ****       }
  89:/home/hkh/git/eapidk-code-r76-trunk/apps/EeePProg/linux/../Str2Value.c ****     }
ARM GAS  /tmp/ccG9b1tU.s 			page 4


  90:/home/hkh/git/eapidk-code-r76-trunk/apps/EeePProg/linux/../Str2Value.c ****     ReturnVal = strtoul(cszString, pszEnd, siRadix);
  91:/home/hkh/git/eapidk-code-r76-trunk/apps/EeePProg/linux/../Str2Value.c **** /*     VERBOSEL(2) */
  92:/home/hkh/git/eapidk-code-r76-trunk/apps/EeePProg/linux/../Str2Value.c **** #ifdef TEST_EQUPARSER
  93:/home/hkh/git/eapidk-code-r76-trunk/apps/EeePProg/linux/../Str2Value.c ****       siFormattedMessage_M2('D', __FILE__, "ulConvertStr2NumCEx", __LINE__, "",
  94:/home/hkh/git/eapidk-code-r76-trunk/apps/EeePProg/linux/../Str2Value.c ****                   "0x%lX(%ld)  \n", ReturnVal, ReturnVal );
  95:/home/hkh/git/eapidk-code-r76-trunk/apps/EeePProg/linux/../Str2Value.c **** #endif
  96:/home/hkh/git/eapidk-code-r76-trunk/apps/EeePProg/linux/../Str2Value.c ****     return ReturnVal;
  97:/home/hkh/git/eapidk-code-r76-trunk/apps/EeePProg/linux/../Str2Value.c ****   }
  98:/home/hkh/git/eapidk-code-r76-trunk/apps/EeePProg/linux/../Str2Value.c **** unsigned long 
  99:/home/hkh/git/eapidk-code-r76-trunk/apps/EeePProg/linux/../Str2Value.c **** ulConvertStr2NumAsmEx(
 100:/home/hkh/git/eapidk-code-r76-trunk/apps/EeePProg/linux/../Str2Value.c ****     const char *  cszString, 
 101:/home/hkh/git/eapidk-code-r76-trunk/apps/EeePProg/linux/../Str2Value.c ****     char **const  pszEnd, 
 102:/home/hkh/git/eapidk-code-r76-trunk/apps/EeePProg/linux/../Str2Value.c ****     const char  * Indent
 103:/home/hkh/git/eapidk-code-r76-trunk/apps/EeePProg/linux/../Str2Value.c ****     )
 104:/home/hkh/git/eapidk-code-r76-trunk/apps/EeePProg/linux/../Str2Value.c ****   {
 105:/home/hkh/git/eapidk-code-r76-trunk/apps/EeePProg/linux/../Str2Value.c ****     unsigned long ReturnVal=0;
 106:/home/hkh/git/eapidk-code-r76-trunk/apps/EeePProg/linux/../Str2Value.c ****     char *pszEndH;
 107:/home/hkh/git/eapidk-code-r76-trunk/apps/EeePProg/linux/../Str2Value.c ****     char *pszEndB;
 108:/home/hkh/git/eapidk-code-r76-trunk/apps/EeePProg/linux/../Str2Value.c ****     cszString=skipWhiteSpaces(cszString);
 109:/home/hkh/git/eapidk-code-r76-trunk/apps/EeePProg/linux/../Str2Value.c ****     strtoul(cszString, &pszEndH, 16);
 110:/home/hkh/git/eapidk-code-r76-trunk/apps/EeePProg/linux/../Str2Value.c ****     strtoul(cszString, &pszEndB,  2);
 111:/home/hkh/git/eapidk-code-r76-trunk/apps/EeePProg/linux/../Str2Value.c ****     /* 
 112:/home/hkh/git/eapidk-code-r76-trunk/apps/EeePProg/linux/../Str2Value.c ****      *  0ffh
 113:/home/hkh/git/eapidk-code-r76-trunk/apps/EeePProg/linux/../Str2Value.c ****      */
 114:/home/hkh/git/eapidk-code-r76-trunk/apps/EeePProg/linux/../Str2Value.c ****     if(isdigit(*cszString) && (toupper(*pszEndH)=='H') ){
 115:/home/hkh/git/eapidk-code-r76-trunk/apps/EeePProg/linux/../Str2Value.c ****         ReturnVal = strtoul(cszString, pszEnd, 16);
 116:/home/hkh/git/eapidk-code-r76-trunk/apps/EeePProg/linux/../Str2Value.c ****         (*pszEnd)++;
 117:/home/hkh/git/eapidk-code-r76-trunk/apps/EeePProg/linux/../Str2Value.c ****     /* 
 118:/home/hkh/git/eapidk-code-r76-trunk/apps/EeePProg/linux/../Str2Value.c ****      *  011b
 119:/home/hkh/git/eapidk-code-r76-trunk/apps/EeePProg/linux/../Str2Value.c ****      */
 120:/home/hkh/git/eapidk-code-r76-trunk/apps/EeePProg/linux/../Str2Value.c ****     }else if((*cszString >= '0' && *cszString <= '1') && (toupper(*pszEndB)=='B') ){
 121:/home/hkh/git/eapidk-code-r76-trunk/apps/EeePProg/linux/../Str2Value.c ****         ReturnVal = strtoul(cszString, pszEnd, 2);
 122:/home/hkh/git/eapidk-code-r76-trunk/apps/EeePProg/linux/../Str2Value.c ****         (*pszEnd)++;
 123:/home/hkh/git/eapidk-code-r76-trunk/apps/EeePProg/linux/../Str2Value.c ****     /* 
 124:/home/hkh/git/eapidk-code-r76-trunk/apps/EeePProg/linux/../Str2Value.c ****      *  099t
 125:/home/hkh/git/eapidk-code-r76-trunk/apps/EeePProg/linux/../Str2Value.c ****      */
 126:/home/hkh/git/eapidk-code-r76-trunk/apps/EeePProg/linux/../Str2Value.c ****     }else {
 127:/home/hkh/git/eapidk-code-r76-trunk/apps/EeePProg/linux/../Str2Value.c ****         ReturnVal = strtoul(cszString, pszEnd, 10);
 128:/home/hkh/git/eapidk-code-r76-trunk/apps/EeePProg/linux/../Str2Value.c ****         if(toupper(**pszEnd)=='T')++(*pszEnd);
 129:/home/hkh/git/eapidk-code-r76-trunk/apps/EeePProg/linux/../Str2Value.c ****     }
 130:/home/hkh/git/eapidk-code-r76-trunk/apps/EeePProg/linux/../Str2Value.c **** /*     VERBOSEL(2) */
 131:/home/hkh/git/eapidk-code-r76-trunk/apps/EeePProg/linux/../Str2Value.c **** #ifdef TEST_EQUPARSER
 132:/home/hkh/git/eapidk-code-r76-trunk/apps/EeePProg/linux/../Str2Value.c ****       siFormattedMessage_M2('D', __FILE__, "ulConvertStr2NumAsmEx", __LINE__, "",
 133:/home/hkh/git/eapidk-code-r76-trunk/apps/EeePProg/linux/../Str2Value.c ****                   "0x%lX(%ld)  \n", ReturnVal, ReturnVal );
 134:/home/hkh/git/eapidk-code-r76-trunk/apps/EeePProg/linux/../Str2Value.c **** #endif
 135:/home/hkh/git/eapidk-code-r76-trunk/apps/EeePProg/linux/../Str2Value.c ****     return ReturnVal;
 136:/home/hkh/git/eapidk-code-r76-trunk/apps/EeePProg/linux/../Str2Value.c ****   }
 137:/home/hkh/git/eapidk-code-r76-trunk/apps/EeePProg/linux/../Str2Value.c **** #endif
 138:/home/hkh/git/eapidk-code-r76-trunk/apps/EeePProg/linux/../Str2Value.c **** unsigned long 
 139:/home/hkh/git/eapidk-code-r76-trunk/apps/EeePProg/linux/../Str2Value.c **** ulConvertStr2NumEx(
 140:/home/hkh/git/eapidk-code-r76-trunk/apps/EeePProg/linux/../Str2Value.c ****     __IN  const char *  cszString, 
 141:/home/hkh/git/eapidk-code-r76-trunk/apps/EeePProg/linux/../Str2Value.c ****     __OUT char **       pszEnd
 142:/home/hkh/git/eapidk-code-r76-trunk/apps/EeePProg/linux/../Str2Value.c ****     )
 143:/home/hkh/git/eapidk-code-r76-trunk/apps/EeePProg/linux/../Str2Value.c ****   {
  85              		.loc 1 143 3
  86              		.cfi_startproc
  87              		@ args = 0, pretend = 0, frame = 24
ARM GAS  /tmp/ccG9b1tU.s 			page 5


  88              		@ frame_needed = 1, uses_anonymous_args = 0
  89 0058 00482DE9 		push	{fp, lr}
  90              		.cfi_def_cfa_offset 8
  91              		.cfi_offset 11, -8
  92              		.cfi_offset 14, -4
  93 005c 04B08DE2 		add	fp, sp, #4
  94              		.cfi_def_cfa 11, 4
  95 0060 18D04DE2 		sub	sp, sp, #24
  96 0064 18000BE5 		str	r0, [fp, #-24]
  97 0068 1C100BE5 		str	r1, [fp, #-28]
  98              		.loc 1 143 3
  99 006c F4219FE5 		ldr	r2, .L15
 100              	.LPIC1:
 101 0070 02208FE0 		add	r2, pc, r2
 102 0074 F0319FE5 		ldr	r3, .L15+4
 103 0078 033092E7 		ldr	r3, [r2, r3]
 104 007c 003093E5 		ldr	r3, [r3]
 105 0080 08300BE5 		str	r3, [fp, #-8]
 106 0084 0030A0E3 		mov	r3, #0
 144:/home/hkh/git/eapidk-code-r76-trunk/apps/EeePProg/linux/../Str2Value.c ****     unsigned long ReturnVal=0;
 107              		.loc 1 144 19
 108 0088 0030A0E3 		mov	r3, #0
 109 008c 0C300BE5 		str	r3, [fp, #-12]
 145:/home/hkh/git/eapidk-code-r76-trunk/apps/EeePProg/linux/../Str2Value.c ****     char *pszEndH;
 146:/home/hkh/git/eapidk-code-r76-trunk/apps/EeePProg/linux/../Str2Value.c ****     char *pszEndB;
 147:/home/hkh/git/eapidk-code-r76-trunk/apps/EeePProg/linux/../Str2Value.c ****     if(pszEnd==NULL)pszEnd=&pszEndB;
 110              		.loc 1 147 7
 111 0090 1C301BE5 		ldr	r3, [fp, #-28]
 112 0094 000053E3 		cmp	r3, #0
 113 0098 0100001A 		bne	.L7
 114              		.loc 1 147 27 discriminator 1
 115 009c 10304BE2 		sub	r3, fp, #16
 116 00a0 1C300BE5 		str	r3, [fp, #-28]
 117              	.L7:
 148:/home/hkh/git/eapidk-code-r76-trunk/apps/EeePProg/linux/../Str2Value.c ****     cszString=skipWhiteSpaces(cszString);
 118              		.loc 1 148 15
 119 00a4 18001BE5 		ldr	r0, [fp, #-24]
 120 00a8 FEFFFFEB 		bl	skipWhiteSpaces(PLT)
 121 00ac 18000BE5 		str	r0, [fp, #-24]
 149:/home/hkh/git/eapidk-code-r76-trunk/apps/EeePProg/linux/../Str2Value.c ****     ReturnVal=strtoul(cszString, &pszEndH, 16);
 122              		.loc 1 149 15
 123 00b0 14304BE2 		sub	r3, fp, #20
 124 00b4 1020A0E3 		mov	r2, #16
 125 00b8 0310A0E1 		mov	r1, r3
 126 00bc 18001BE5 		ldr	r0, [fp, #-24]
 127 00c0 FEFFFFEB 		bl	strtoul(PLT)
 128 00c4 0C000BE5 		str	r0, [fp, #-12]
 150:/home/hkh/git/eapidk-code-r76-trunk/apps/EeePProg/linux/../Str2Value.c ****     ReturnVal=strtoul(cszString, &pszEndB,  2);
 129              		.loc 1 150 15
 130 00c8 10304BE2 		sub	r3, fp, #16
 131 00cc 0220A0E3 		mov	r2, #2
 132 00d0 0310A0E1 		mov	r1, r3
 133 00d4 18001BE5 		ldr	r0, [fp, #-24]
 134 00d8 FEFFFFEB 		bl	strtoul(PLT)
 135 00dc 0C000BE5 		str	r0, [fp, #-12]
 151:/home/hkh/git/eapidk-code-r76-trunk/apps/EeePProg/linux/../Str2Value.c ****     /* 
 152:/home/hkh/git/eapidk-code-r76-trunk/apps/EeePProg/linux/../Str2Value.c ****      *  0xff
ARM GAS  /tmp/ccG9b1tU.s 			page 6


 153:/home/hkh/git/eapidk-code-r76-trunk/apps/EeePProg/linux/../Str2Value.c ****      */
 154:/home/hkh/git/eapidk-code-r76-trunk/apps/EeePProg/linux/../Str2Value.c ****     if( !memcmp( "0x", cszString , 2) ){
 136              		.loc 1 154 10
 137 00e0 0220A0E3 		mov	r2, #2
 138 00e4 18101BE5 		ldr	r1, [fp, #-24]
 139 00e8 80319FE5 		ldr	r3, .L15+8
 140              	.LPIC0:
 141 00ec 03308FE0 		add	r3, pc, r3
 142 00f0 0300A0E1 		mov	r0, r3
 143 00f4 FEFFFFEB 		bl	memcmp(PLT)
 144 00f8 0030A0E1 		mov	r3, r0
 145              		.loc 1 154 7
 146 00fc 000053E3 		cmp	r3, #0
 147 0100 0700001A 		bne	.L8
 155:/home/hkh/git/eapidk-code-r76-trunk/apps/EeePProg/linux/../Str2Value.c ****         ReturnVal = strtoul(cszString+2, pszEnd, 16);
 148              		.loc 1 155 21
 149 0104 18301BE5 		ldr	r3, [fp, #-24]
 150 0108 023083E2 		add	r3, r3, #2
 151 010c 1020A0E3 		mov	r2, #16
 152 0110 1C101BE5 		ldr	r1, [fp, #-28]
 153 0114 0300A0E1 		mov	r0, r3
 154 0118 FEFFFFEB 		bl	strtoul(PLT)
 155 011c 0C000BE5 		str	r0, [fp, #-12]
 156 0120 420000EA 		b	.L9
 157              	.L8:
 156:/home/hkh/git/eapidk-code-r76-trunk/apps/EeePProg/linux/../Str2Value.c ****     /* 
 157:/home/hkh/git/eapidk-code-r76-trunk/apps/EeePProg/linux/../Str2Value.c ****      *  0ffh
 158:/home/hkh/git/eapidk-code-r76-trunk/apps/EeePProg/linux/../Str2Value.c ****      */
 159:/home/hkh/git/eapidk-code-r76-trunk/apps/EeePProg/linux/../Str2Value.c ****     }else if(isdigit(*cszString) && (toupper(*pszEndH)=='H') ){
 158              		.loc 1 159 14
 159 0124 18301BE5 		ldr	r3, [fp, #-24]
 160 0128 0030D3E5 		ldrb	r3, [r3]	@ zero_extendqisi2
 161 012c 303043E2 		sub	r3, r3, #48
 162              		.loc 1 159 13
 163 0130 090053E3 		cmp	r3, #9
 164 0134 1100008A 		bhi	.L10
 165              		.loc 1 159 46 discriminator 1
 166 0138 14301BE5 		ldr	r3, [fp, #-20]
 167 013c 0030D3E5 		ldrb	r3, [r3]	@ zero_extendqisi2
 168              		.loc 1 159 38 discriminator 1
 169 0140 0300A0E1 		mov	r0, r3
 170 0144 FEFFFFEB 		bl	toupper(PLT)
 171 0148 0030A0E1 		mov	r3, r0
 172              		.loc 1 159 34 discriminator 1
 173 014c 480053E3 		cmp	r3, #72
 174 0150 0A00001A 		bne	.L10
 160:/home/hkh/git/eapidk-code-r76-trunk/apps/EeePProg/linux/../Str2Value.c ****         ReturnVal = strtoul(cszString, pszEnd, 16);
 175              		.loc 1 160 21
 176 0154 1020A0E3 		mov	r2, #16
 177 0158 1C101BE5 		ldr	r1, [fp, #-28]
 178 015c 18001BE5 		ldr	r0, [fp, #-24]
 179 0160 FEFFFFEB 		bl	strtoul(PLT)
 180 0164 0C000BE5 		str	r0, [fp, #-12]
 161:/home/hkh/git/eapidk-code-r76-trunk/apps/EeePProg/linux/../Str2Value.c ****         ++(*pszEnd);
 181              		.loc 1 161 12
 182 0168 1C301BE5 		ldr	r3, [fp, #-28]
 183 016c 003093E5 		ldr	r3, [r3]
ARM GAS  /tmp/ccG9b1tU.s 			page 7


 184              		.loc 1 161 9
 185 0170 012083E2 		add	r2, r3, #1
 186 0174 1C301BE5 		ldr	r3, [fp, #-28]
 187 0178 002083E5 		str	r2, [r3]
 188 017c 2B0000EA 		b	.L9
 189              	.L10:
 162:/home/hkh/git/eapidk-code-r76-trunk/apps/EeePProg/linux/../Str2Value.c ****     /* 
 163:/home/hkh/git/eapidk-code-r76-trunk/apps/EeePProg/linux/../Str2Value.c ****      *  011b
 164:/home/hkh/git/eapidk-code-r76-trunk/apps/EeePProg/linux/../Str2Value.c ****      */
 165:/home/hkh/git/eapidk-code-r76-trunk/apps/EeePProg/linux/../Str2Value.c ****     }else if(isbinary(*cszString) && (toupper(*pszEndB)=='B') ){
 190              		.loc 1 165 14
 191 0180 18301BE5 		ldr	r3, [fp, #-24]
 192 0184 0030D3E5 		ldrb	r3, [r3]	@ zero_extendqisi2
 193              		.loc 1 165 13
 194 0188 300053E3 		cmp	r3, #48
 195 018c 0300000A 		beq	.L11
 196              		.loc 1 165 14 discriminator 2
 197 0190 18301BE5 		ldr	r3, [fp, #-24]
 198 0194 0030D3E5 		ldrb	r3, [r3]	@ zero_extendqisi2
 199 0198 310053E3 		cmp	r3, #49
 200 019c 1100001A 		bne	.L12
 201              	.L11:
 202              		.loc 1 165 47 discriminator 3
 203 01a0 10301BE5 		ldr	r3, [fp, #-16]
 204 01a4 0030D3E5 		ldrb	r3, [r3]	@ zero_extendqisi2
 205              		.loc 1 165 39 discriminator 3
 206 01a8 0300A0E1 		mov	r0, r3
 207 01ac FEFFFFEB 		bl	toupper(PLT)
 208 01b0 0030A0E1 		mov	r3, r0
 209              		.loc 1 165 35 discriminator 3
 210 01b4 420053E3 		cmp	r3, #66
 211 01b8 0A00001A 		bne	.L12
 166:/home/hkh/git/eapidk-code-r76-trunk/apps/EeePProg/linux/../Str2Value.c ****         ReturnVal = strtoul(cszString, pszEnd, 2);
 212              		.loc 1 166 21
 213 01bc 0220A0E3 		mov	r2, #2
 214 01c0 1C101BE5 		ldr	r1, [fp, #-28]
 215 01c4 18001BE5 		ldr	r0, [fp, #-24]
 216 01c8 FEFFFFEB 		bl	strtoul(PLT)
 217 01cc 0C000BE5 		str	r0, [fp, #-12]
 167:/home/hkh/git/eapidk-code-r76-trunk/apps/EeePProg/linux/../Str2Value.c ****         ++(*pszEnd);
 218              		.loc 1 167 12
 219 01d0 1C301BE5 		ldr	r3, [fp, #-28]
 220 01d4 003093E5 		ldr	r3, [r3]
 221              		.loc 1 167 9
 222 01d8 012083E2 		add	r2, r3, #1
 223 01dc 1C301BE5 		ldr	r3, [fp, #-28]
 224 01e0 002083E5 		str	r2, [r3]
 225 01e4 110000EA 		b	.L9
 226              	.L12:
 168:/home/hkh/git/eapidk-code-r76-trunk/apps/EeePProg/linux/../Str2Value.c ****     /* 
 169:/home/hkh/git/eapidk-code-r76-trunk/apps/EeePProg/linux/../Str2Value.c ****      *  099
 170:/home/hkh/git/eapidk-code-r76-trunk/apps/EeePProg/linux/../Str2Value.c ****      */
 171:/home/hkh/git/eapidk-code-r76-trunk/apps/EeePProg/linux/../Str2Value.c ****     }else {
 172:/home/hkh/git/eapidk-code-r76-trunk/apps/EeePProg/linux/../Str2Value.c ****         ReturnVal = strtoul(cszString, pszEnd, 10);
 227              		.loc 1 172 21
 228 01e8 0A20A0E3 		mov	r2, #10
 229 01ec 1C101BE5 		ldr	r1, [fp, #-28]
ARM GAS  /tmp/ccG9b1tU.s 			page 8


 230 01f0 18001BE5 		ldr	r0, [fp, #-24]
 231 01f4 FEFFFFEB 		bl	strtoul(PLT)
 232 01f8 0C000BE5 		str	r0, [fp, #-12]
 173:/home/hkh/git/eapidk-code-r76-trunk/apps/EeePProg/linux/../Str2Value.c ****         if(toupper(**pszEnd)=='T')++(*pszEnd);
 233              		.loc 1 173 21
 234 01fc 1C301BE5 		ldr	r3, [fp, #-28]
 235 0200 003093E5 		ldr	r3, [r3]
 236              		.loc 1 173 20
 237 0204 0030D3E5 		ldrb	r3, [r3]	@ zero_extendqisi2
 238              		.loc 1 173 12
 239 0208 0300A0E1 		mov	r0, r3
 240 020c FEFFFFEB 		bl	toupper(PLT)
 241 0210 0030A0E1 		mov	r3, r0
 242              		.loc 1 173 11
 243 0214 540053E3 		cmp	r3, #84
 244 0218 0400001A 		bne	.L9
 245              		.loc 1 173 38 discriminator 1
 246 021c 1C301BE5 		ldr	r3, [fp, #-28]
 247 0220 003093E5 		ldr	r3, [r3]
 248              		.loc 1 173 35 discriminator 1
 249 0224 012083E2 		add	r2, r3, #1
 250 0228 1C301BE5 		ldr	r3, [fp, #-28]
 251 022c 002083E5 		str	r2, [r3]
 252              	.L9:
 174:/home/hkh/git/eapidk-code-r76-trunk/apps/EeePProg/linux/../Str2Value.c ****     }
 175:/home/hkh/git/eapidk-code-r76-trunk/apps/EeePProg/linux/../Str2Value.c **** /*     VERBOSEL(2) */
 176:/home/hkh/git/eapidk-code-r76-trunk/apps/EeePProg/linux/../Str2Value.c **** #ifdef TEST_EQUPARSER
 177:/home/hkh/git/eapidk-code-r76-trunk/apps/EeePProg/linux/../Str2Value.c ****       siFormattedMessage_M2('D', __FILE__, "ulConvertStr2NumEx", __LINE__, "0x0, 00h, 00b, 000",
 178:/home/hkh/git/eapidk-code-r76-trunk/apps/EeePProg/linux/../Str2Value.c ****                   "0x%lX(%ld)  \n", ReturnVal, ReturnVal );
 179:/home/hkh/git/eapidk-code-r76-trunk/apps/EeePProg/linux/../Str2Value.c **** #endif
 180:/home/hkh/git/eapidk-code-r76-trunk/apps/EeePProg/linux/../Str2Value.c ****     return ReturnVal;
 253              		.loc 1 180 12
 254 0230 0C301BE5 		ldr	r3, [fp, #-12]
 143:/home/hkh/git/eapidk-code-r76-trunk/apps/EeePProg/linux/../Str2Value.c ****     unsigned long ReturnVal=0;
 255              		.loc 1 143 3
 256 0234 38109FE5 		ldr	r1, .L15+12
 257              	.LPIC2:
 258 0238 01108FE0 		add	r1, pc, r1
 181:/home/hkh/git/eapidk-code-r76-trunk/apps/EeePProg/linux/../Str2Value.c ****   }
 259              		.loc 1 181 3
 260 023c 28209FE5 		ldr	r2, .L15+4
 261 0240 022091E7 		ldr	r2, [r1, r2]
 262 0244 001092E5 		ldr	r1, [r2]
 263 0248 08201BE5 		ldr	r2, [fp, #-8]
 264 024c 011032E0 		eors	r1, r2, r1
 265 0250 0020A0E3 		mov	r2, #0
 266 0254 0000000A 		beq	.L14
 267 0258 FEFFFFEB 		bl	__stack_chk_fail(PLT)
 268              	.L14:
 269 025c 0300A0E1 		mov	r0, r3
 270 0260 04D04BE2 		sub	sp, fp, #4
 271              		.cfi_def_cfa 13, 8
 272              		@ sp needed
 273 0264 0088BDE8 		pop	{fp, pc}
 274              	.L16:
 275              		.align	2
 276              	.L15:
ARM GAS  /tmp/ccG9b1tU.s 			page 9


 277 0268 F0010000 		.word	_GLOBAL_OFFSET_TABLE_-(.LPIC1+8)
 278 026c 00000000 		.word	__stack_chk_guard(GOT)
 279 0270 7C010000 		.word	.LC0-(.LPIC0+8)
 280 0274 34000000 		.word	_GLOBAL_OFFSET_TABLE_-(.LPIC2+8)
 281              		.cfi_endproc
 282              	.LFE2:
 284              		.global	__aeabi_ldivmod
 285              		.section	.rodata
 286 0003 00       		.align	2
 287              	.LC1:
 288 0004 446F4F70 		.ascii	"DoOperation\000"
 288      65726174 
 288      696F6E00 
 289              		.align	2
 290              	.LC2:
 291 0010 2F686F6D 		.ascii	"/home/hkh/git/eapidk-code-r76-trunk/apps/EeePProg/l"
 291      652F686B 
 291      682F6769 
 291      742F6561 
 291      7069646B 
 292 0043 696E7578 		.ascii	"inux/../Str2Value.c\000"
 292      2F2E2E2F 
 292      53747232 
 292      56616C75 
 292      652E6300 
 293 0057 00       		.align	2
 294              	.LC3:
 295 0058 496E7661 		.ascii	"Invalid Operation\000"
 295      6C696420 
 295      4F706572 
 295      6174696F 
 295      6E00
 296 006a 0000     		.align	2
 297              	.LC4:
 298 006c 25730A00 		.ascii	"%s\012\000"
 299              		.text
 300              		.align	2
 301              		.global	DoOperation
 302              		.syntax unified
 303              		.arm
 304              		.fpu vfpv3
 306              	DoOperation:
 307              	.LFB3:
 182:/home/hkh/git/eapidk-code-r76-trunk/apps/EeePProg/linux/../Str2Value.c **** enum OperationTypes_e{
 183:/home/hkh/git/eapidk-code-r76-trunk/apps/EeePProg/linux/../Str2Value.c ****   Op_NoOperation            ,
 184:/home/hkh/git/eapidk-code-r76-trunk/apps/EeePProg/linux/../Str2Value.c ****   Op_LogicalEqual           ,
 185:/home/hkh/git/eapidk-code-r76-trunk/apps/EeePProg/linux/../Str2Value.c ****   Op_LogicalNotEqual        ,
 186:/home/hkh/git/eapidk-code-r76-trunk/apps/EeePProg/linux/../Str2Value.c ****   Op_LogicalOr              ,
 187:/home/hkh/git/eapidk-code-r76-trunk/apps/EeePProg/linux/../Str2Value.c ****   Op_LogicalAnd             ,
 188:/home/hkh/git/eapidk-code-r76-trunk/apps/EeePProg/linux/../Str2Value.c ****   Op_LogicalGreaterThan     ,
 189:/home/hkh/git/eapidk-code-r76-trunk/apps/EeePProg/linux/../Str2Value.c ****   Op_LogicalGreaterThanEqual,
 190:/home/hkh/git/eapidk-code-r76-trunk/apps/EeePProg/linux/../Str2Value.c ****   Op_LogicalLessThan        ,
 191:/home/hkh/git/eapidk-code-r76-trunk/apps/EeePProg/linux/../Str2Value.c ****   Op_LogicalLessThanEqual   ,
 192:/home/hkh/git/eapidk-code-r76-trunk/apps/EeePProg/linux/../Str2Value.c ****   Op_LogicalNot             ,
 193:/home/hkh/git/eapidk-code-r76-trunk/apps/EeePProg/linux/../Str2Value.c ****   Op_BitwiseAnd             ,
 194:/home/hkh/git/eapidk-code-r76-trunk/apps/EeePProg/linux/../Str2Value.c ****   Op_BitwiseOr              ,
 195:/home/hkh/git/eapidk-code-r76-trunk/apps/EeePProg/linux/../Str2Value.c ****   Op_BitwiseXor             ,
ARM GAS  /tmp/ccG9b1tU.s 			page 10


 196:/home/hkh/git/eapidk-code-r76-trunk/apps/EeePProg/linux/../Str2Value.c ****   Op_BitwiseNot             ,
 197:/home/hkh/git/eapidk-code-r76-trunk/apps/EeePProg/linux/../Str2Value.c ****   Op_Multiply               ,
 198:/home/hkh/git/eapidk-code-r76-trunk/apps/EeePProg/linux/../Str2Value.c ****   Op_Modulus                ,
 199:/home/hkh/git/eapidk-code-r76-trunk/apps/EeePProg/linux/../Str2Value.c ****   Op_Divide                 ,
 200:/home/hkh/git/eapidk-code-r76-trunk/apps/EeePProg/linux/../Str2Value.c ****   Op_Add                    ,
 201:/home/hkh/git/eapidk-code-r76-trunk/apps/EeePProg/linux/../Str2Value.c ****   Op_Subtract               ,
 202:/home/hkh/git/eapidk-code-r76-trunk/apps/EeePProg/linux/../Str2Value.c ****   Op_Negate                 ,
 203:/home/hkh/git/eapidk-code-r76-trunk/apps/EeePProg/linux/../Str2Value.c ****   Op_LeftShift              ,
 204:/home/hkh/git/eapidk-code-r76-trunk/apps/EeePProg/linux/../Str2Value.c ****   Op_RightShift
 205:/home/hkh/git/eapidk-code-r76-trunk/apps/EeePProg/linux/../Str2Value.c **** };
 206:/home/hkh/git/eapidk-code-r76-trunk/apps/EeePProg/linux/../Str2Value.c **** EApiStatus_t
 207:/home/hkh/git/eapidk-code-r76-trunk/apps/EeePProg/linux/../Str2Value.c **** DoOperation(
 208:/home/hkh/git/eapidk-code-r76-trunk/apps/EeePProg/linux/../Str2Value.c ****     __IN  unsigned int     siOperation,
 209:/home/hkh/git/eapidk-code-r76-trunk/apps/EeePProg/linux/../Str2Value.c ****     __OUT signed long long *psllValue ,
 210:/home/hkh/git/eapidk-code-r76-trunk/apps/EeePProg/linux/../Str2Value.c ****     __IN  signed long long sllValue
 211:/home/hkh/git/eapidk-code-r76-trunk/apps/EeePProg/linux/../Str2Value.c ****     )
 212:/home/hkh/git/eapidk-code-r76-trunk/apps/EeePProg/linux/../Str2Value.c **** {
 308              		.loc 1 212 1
 309              		.cfi_startproc
 310              		@ args = 0, pretend = 0, frame = 152
 311              		@ frame_needed = 1, uses_anonymous_args = 0
 312 0278 F04B2DE9 		push	{r4, r5, r6, r7, r8, r9, fp, lr}
 313              		.cfi_def_cfa_offset 32
 314              		.cfi_offset 4, -32
 315              		.cfi_offset 5, -28
 316              		.cfi_offset 6, -24
 317              		.cfi_offset 7, -20
 318              		.cfi_offset 8, -16
 319              		.cfi_offset 9, -12
 320              		.cfi_offset 11, -8
 321              		.cfi_offset 14, -4
 322 027c 1CB08DE2 		add	fp, sp, #28
 323              		.cfi_def_cfa 11, 4
 324 0280 A8D04DE2 		sub	sp, sp, #168
 325 0284 28000BE5 		str	r0, [fp, #-40]
 326 0288 2C100BE5 		str	r1, [fp, #-44]
 327 028c F4234BE1 		strd	r2, [fp, #-52]
 213:/home/hkh/git/eapidk-code-r76-trunk/apps/EeePProg/linux/../Str2Value.c ****   EApiStatus_t StatusCode=EAPI_STATUS_SUCCESS;
 328              		.loc 1 213 16
 329 0290 0030A0E3 		mov	r3, #0
 330 0294 20300BE5 		str	r3, [fp, #-32]
 214:/home/hkh/git/eapidk-code-r76-trunk/apps/EeePProg/linux/../Str2Value.c ****   switch(siOperation){
 331              		.loc 1 214 3
 332 0298 28301BE5 		ldr	r3, [fp, #-40]
 333 029c 150053E3 		cmp	r3, #21
 334 02a0 03F18F90 		addls	pc, pc, r3, asl #2
 335 02a4 260100EA 		b	.L18
 336              	.L20:
 337 02a8 370100EA 		b	.L50
 338 02ac 140100EA 		b	.L40
 339 02b0 030100EA 		b	.L39
 340 02b4 110000EA 		b	.L38
 341 02b8 210000EA 		b	.L37
 342 02bc 400000EA 		b	.L36
 343 02c0 4F0000EA 		b	.L35
 344 02c4 5E0000EA 		b	.L34
 345 02c8 6D0000EA 		b	.L33
ARM GAS  /tmp/ccG9b1tU.s 			page 11


 346 02cc 2D0000EA 		b	.L32
 347 02d0 7B0000EA 		b	.L31
 348 02d4 900000EA 		b	.L30
 349 02d8 840000EA 		b	.L29
 350 02dc A20000EA 		b	.L28
 351 02e0 AA0000EA 		b	.L27
 352 02e4 B70000EA 		b	.L26
 353 02e8 BD0000EA 		b	.L25
 354 02ec C50000EA 		b	.L24
 355 02f0 CF0000EA 		b	.L23
 356 02f4 930000EA 		b	.L22
 357 02f8 D80000EA 		b	.L21
 358 02fc E30000EA 		b	.L19
 359              		.p2align 1
 360              	.L38:
 215:/home/hkh/git/eapidk-code-r76-trunk/apps/EeePProg/linux/../Str2Value.c ****     case Op_NoOperation:
 216:/home/hkh/git/eapidk-code-r76-trunk/apps/EeePProg/linux/../Str2Value.c ****       break;
 217:/home/hkh/git/eapidk-code-r76-trunk/apps/EeePProg/linux/../Str2Value.c ****     case Op_LogicalOr:
 218:/home/hkh/git/eapidk-code-r76-trunk/apps/EeePProg/linux/../Str2Value.c ****       *psllValue=*psllValue||sllValue;
 361              		.loc 1 218 18
 362 0300 2C301BE5 		ldr	r3, [fp, #-44]
 363 0304 D020C3E1 		ldrd	r2, [r3]
 364              		.loc 1 218 28
 365 0308 033092E1 		orrs	r3, r2, r3
 366 030c 0200001A 		bne	.L43
 367              		.loc 1 218 28 is_stmt 0 discriminator 2
 368 0310 D4234BE1 		ldrd	r2, [fp, #-52]
 369 0314 033092E1 		orrs	r3, r2, r3
 370 0318 0100000A 		beq	.L44
 371              	.L43:
 372              		.loc 1 218 28 discriminator 3
 373 031c 0130A0E3 		mov	r3, #1
 374 0320 000000EA 		b	.L45
 375              	.L44:
 376              		.loc 1 218 28 discriminator 4
 377 0324 0030A0E3 		mov	r3, #0
 378              	.L45:
 379              		.loc 1 218 28 discriminator 6
 380 0328 C32FA0E1 		asr	r2, r3, #31
 381 032c 3C300BE5 		str	r3, [fp, #-60]
 382 0330 38200BE5 		str	r2, [fp, #-56]
 383              		.loc 1 218 17 is_stmt 1 discriminator 6
 384 0334 2C301BE5 		ldr	r3, [fp, #-44]
 385 0338 DC034BE1 		ldrd	r0, [fp, #-60]
 386 033c F000C3E1 		strd	r0, [r3]
 219:/home/hkh/git/eapidk-code-r76-trunk/apps/EeePProg/linux/../Str2Value.c ****       break;
 387              		.loc 1 219 7 discriminator 6
 388 0340 120100EA 		b	.L42
 389              	.L37:
 220:/home/hkh/git/eapidk-code-r76-trunk/apps/EeePProg/linux/../Str2Value.c ****     case Op_LogicalAnd:
 221:/home/hkh/git/eapidk-code-r76-trunk/apps/EeePProg/linux/../Str2Value.c ****       *psllValue=*psllValue&&sllValue;
 390              		.loc 1 221 18
 391 0344 2C301BE5 		ldr	r3, [fp, #-44]
 392 0348 D020C3E1 		ldrd	r2, [r3]
 393              		.loc 1 221 28
 394 034c 033092E1 		orrs	r3, r2, r3
 395 0350 0400000A 		beq	.L46
ARM GAS  /tmp/ccG9b1tU.s 			page 12


 396              		.loc 1 221 28 is_stmt 0 discriminator 1
 397 0354 D4234BE1 		ldrd	r2, [fp, #-52]
 398 0358 033092E1 		orrs	r3, r2, r3
 399 035c 0100000A 		beq	.L46
 400              		.loc 1 221 28 discriminator 3
 401 0360 0130A0E3 		mov	r3, #1
 402 0364 000000EA 		b	.L47
 403              	.L46:
 404              		.loc 1 221 28 discriminator 4
 405 0368 0030A0E3 		mov	r3, #0
 406              	.L47:
 407              		.loc 1 221 28 discriminator 6
 408 036c C32FA0E1 		asr	r2, r3, #31
 409 0370 44300BE5 		str	r3, [fp, #-68]
 410 0374 40200BE5 		str	r2, [fp, #-64]
 411              		.loc 1 221 17 is_stmt 1 discriminator 6
 412 0378 2C301BE5 		ldr	r3, [fp, #-44]
 413 037c D4044BE1 		ldrd	r0, [fp, #-68]
 414 0380 F000C3E1 		strd	r0, [r3]
 222:/home/hkh/git/eapidk-code-r76-trunk/apps/EeePProg/linux/../Str2Value.c ****       break;
 415              		.loc 1 222 7 discriminator 6
 416 0384 010100EA 		b	.L42
 417              	.L32:
 223:/home/hkh/git/eapidk-code-r76-trunk/apps/EeePProg/linux/../Str2Value.c ****     case Op_LogicalNot:
 224:/home/hkh/git/eapidk-code-r76-trunk/apps/EeePProg/linux/../Str2Value.c ****       *psllValue=!sllValue;
 418              		.loc 1 224 18
 419 0388 34201BE5 		ldr	r2, [fp, #-52]
 420 038c 30301BE5 		ldr	r3, [fp, #-48]
 421 0390 033082E1 		orr	r3, r2, r3
 422 0394 000053E3 		cmp	r3, #0
 423 0398 0130A003 		moveq	r3, #1
 424 039c 0030A013 		movne	r3, #0
 425 03a0 7330EFE6 		uxtb	r3, r3
 426 03a4 7330EFE6 		uxtb	r3, r3
 427 03a8 0020A0E3 		mov	r2, #0
 428 03ac 4C300BE5 		str	r3, [fp, #-76]
 429 03b0 48200BE5 		str	r2, [fp, #-72]
 430              		.loc 1 224 17
 431 03b4 2C301BE5 		ldr	r3, [fp, #-44]
 432 03b8 DC044BE1 		ldrd	r0, [fp, #-76]
 433 03bc F000C3E1 		strd	r0, [r3]
 225:/home/hkh/git/eapidk-code-r76-trunk/apps/EeePProg/linux/../Str2Value.c ****       break;
 434              		.loc 1 225 7
 435 03c0 F20000EA 		b	.L42
 436              	.L36:
 226:/home/hkh/git/eapidk-code-r76-trunk/apps/EeePProg/linux/../Str2Value.c ****     case Op_LogicalGreaterThan:
 227:/home/hkh/git/eapidk-code-r76-trunk/apps/EeePProg/linux/../Str2Value.c ****       *psllValue=*psllValue>sllValue;
 437              		.loc 1 227 18
 438 03c4 2C301BE5 		ldr	r3, [fp, #-44]
 439 03c8 D020C3E1 		ldrd	r2, [r3]
 440              		.loc 1 227 28
 441 03cc D4034BE1 		ldrd	r0, [fp, #-52]
 442 03d0 020050E1 		cmp	r0, r2
 443 03d4 0330D1E0 		sbcs	r3, r1, r3
 444 03d8 0130A0B3 		movlt	r3, #1
 445 03dc 0030A0A3 		movge	r3, #0
 446 03e0 7330EFE6 		uxtb	r3, r3
ARM GAS  /tmp/ccG9b1tU.s 			page 13


 447 03e4 7330EFE6 		uxtb	r3, r3
 448 03e8 0020A0E3 		mov	r2, #0
 449 03ec 54300BE5 		str	r3, [fp, #-84]
 450 03f0 50200BE5 		str	r2, [fp, #-80]
 451              		.loc 1 227 17
 452 03f4 2C301BE5 		ldr	r3, [fp, #-44]
 453 03f8 D4054BE1 		ldrd	r0, [fp, #-84]
 454 03fc F000C3E1 		strd	r0, [r3]
 228:/home/hkh/git/eapidk-code-r76-trunk/apps/EeePProg/linux/../Str2Value.c ****       break;
 455              		.loc 1 228 7
 456 0400 E20000EA 		b	.L42
 457              	.L35:
 229:/home/hkh/git/eapidk-code-r76-trunk/apps/EeePProg/linux/../Str2Value.c ****     case Op_LogicalGreaterThanEqual:
 230:/home/hkh/git/eapidk-code-r76-trunk/apps/EeePProg/linux/../Str2Value.c ****       *psllValue=*psllValue>=sllValue;
 458              		.loc 1 230 18
 459 0404 2C301BE5 		ldr	r3, [fp, #-44]
 460 0408 D000C3E1 		ldrd	r0, [r3]
 461              		.loc 1 230 28
 462 040c D4234BE1 		ldrd	r2, [fp, #-52]
 463 0410 020050E1 		cmp	r0, r2
 464 0414 0330D1E0 		sbcs	r3, r1, r3
 465 0418 0130A0A3 		movge	r3, #1
 466 041c 0030A0B3 		movlt	r3, #0
 467 0420 7330EFE6 		uxtb	r3, r3
 468 0424 7330EFE6 		uxtb	r3, r3
 469 0428 0020A0E3 		mov	r2, #0
 470 042c 5C300BE5 		str	r3, [fp, #-92]
 471 0430 58200BE5 		str	r2, [fp, #-88]
 472              		.loc 1 230 17
 473 0434 2C301BE5 		ldr	r3, [fp, #-44]
 474 0438 DC054BE1 		ldrd	r0, [fp, #-92]
 475 043c F000C3E1 		strd	r0, [r3]
 231:/home/hkh/git/eapidk-code-r76-trunk/apps/EeePProg/linux/../Str2Value.c ****       break;
 476              		.loc 1 231 7
 477 0440 D20000EA 		b	.L42
 478              	.L34:
 232:/home/hkh/git/eapidk-code-r76-trunk/apps/EeePProg/linux/../Str2Value.c ****     case Op_LogicalLessThan:
 233:/home/hkh/git/eapidk-code-r76-trunk/apps/EeePProg/linux/../Str2Value.c ****       *psllValue=*psllValue<sllValue;
 479              		.loc 1 233 18
 480 0444 2C301BE5 		ldr	r3, [fp, #-44]
 481 0448 D000C3E1 		ldrd	r0, [r3]
 482              		.loc 1 233 28
 483 044c D4234BE1 		ldrd	r2, [fp, #-52]
 484 0450 020050E1 		cmp	r0, r2
 485 0454 0330D1E0 		sbcs	r3, r1, r3
 486 0458 0130A0B3 		movlt	r3, #1
 487 045c 0030A0A3 		movge	r3, #0
 488 0460 7330EFE6 		uxtb	r3, r3
 489 0464 7330EFE6 		uxtb	r3, r3
 490 0468 0020A0E3 		mov	r2, #0
 491 046c 64300BE5 		str	r3, [fp, #-100]
 492 0470 60200BE5 		str	r2, [fp, #-96]
 493              		.loc 1 233 17
 494 0474 2C301BE5 		ldr	r3, [fp, #-44]
 495 0478 D4064BE1 		ldrd	r0, [fp, #-100]
 496 047c F000C3E1 		strd	r0, [r3]
 234:/home/hkh/git/eapidk-code-r76-trunk/apps/EeePProg/linux/../Str2Value.c ****       break;
ARM GAS  /tmp/ccG9b1tU.s 			page 14


 497              		.loc 1 234 7
 498 0480 C20000EA 		b	.L42
 499              	.L33:
 235:/home/hkh/git/eapidk-code-r76-trunk/apps/EeePProg/linux/../Str2Value.c ****     case Op_LogicalLessThanEqual:
 236:/home/hkh/git/eapidk-code-r76-trunk/apps/EeePProg/linux/../Str2Value.c ****       *psllValue=*psllValue<=sllValue;
 500              		.loc 1 236 18
 501 0484 2C301BE5 		ldr	r3, [fp, #-44]
 502 0488 D020C3E1 		ldrd	r2, [r3]
 503              		.loc 1 236 28
 504 048c D4034BE1 		ldrd	r0, [fp, #-52]
 505 0490 020050E1 		cmp	r0, r2
 506 0494 0330D1E0 		sbcs	r3, r1, r3
 507 0498 0130A0A3 		movge	r3, #1
 508 049c 0030A0B3 		movlt	r3, #0
 509 04a0 7330EFE6 		uxtb	r3, r3
 510 04a4 7330EFE6 		uxtb	r3, r3
 511 04a8 0020A0E3 		mov	r2, #0
 512 04ac 6C300BE5 		str	r3, [fp, #-108]
 513 04b0 68200BE5 		str	r2, [fp, #-104]
 514              		.loc 1 236 17
 515 04b4 2C301BE5 		ldr	r3, [fp, #-44]
 516 04b8 DC064BE1 		ldrd	r0, [fp, #-108]
 517 04bc F000C3E1 		strd	r0, [r3]
 237:/home/hkh/git/eapidk-code-r76-trunk/apps/EeePProg/linux/../Str2Value.c ****       break;
 518              		.loc 1 237 7
 519 04c0 B20000EA 		b	.L42
 520              	.L31:
 238:/home/hkh/git/eapidk-code-r76-trunk/apps/EeePProg/linux/../Str2Value.c ****     case Op_BitwiseAnd:
 239:/home/hkh/git/eapidk-code-r76-trunk/apps/EeePProg/linux/../Str2Value.c ****       *psllValue&=sllValue;
 521              		.loc 1 239 17
 522 04c4 2C301BE5 		ldr	r3, [fp, #-44]
 523 04c8 D000C3E1 		ldrd	r0, [r3]
 524 04cc D4234BE1 		ldrd	r2, [fp, #-52]
 525 04d0 02C000E0 		and	ip, r0, r2
 526 04d4 74C00BE5 		str	ip, [fp, #-116]
 527 04d8 033001E0 		and	r3, r1, r3
 528 04dc 70300BE5 		str	r3, [fp, #-112]
 529 04e0 2C301BE5 		ldr	r3, [fp, #-44]
 530 04e4 D4074BE1 		ldrd	r0, [fp, #-116]
 531 04e8 F000C3E1 		strd	r0, [r3]
 240:/home/hkh/git/eapidk-code-r76-trunk/apps/EeePProg/linux/../Str2Value.c ****       break;
 532              		.loc 1 240 7
 533 04ec A70000EA 		b	.L42
 534              	.L29:
 241:/home/hkh/git/eapidk-code-r76-trunk/apps/EeePProg/linux/../Str2Value.c ****     case Op_BitwiseXor:
 242:/home/hkh/git/eapidk-code-r76-trunk/apps/EeePProg/linux/../Str2Value.c ****       *psllValue^=sllValue;
 535              		.loc 1 242 17
 536 04f0 2C301BE5 		ldr	r3, [fp, #-44]
 537 04f4 D000C3E1 		ldrd	r0, [r3]
 538 04f8 D4234BE1 		ldrd	r2, [fp, #-52]
 539 04fc 02C020E0 		eor	ip, r0, r2
 540 0500 7CC00BE5 		str	ip, [fp, #-124]
 541 0504 033021E0 		eor	r3, r1, r3
 542 0508 78300BE5 		str	r3, [fp, #-120]
 543 050c 2C301BE5 		ldr	r3, [fp, #-44]
 544 0510 DC074BE1 		ldrd	r0, [fp, #-124]
 545 0514 F000C3E1 		strd	r0, [r3]
ARM GAS  /tmp/ccG9b1tU.s 			page 15


 243:/home/hkh/git/eapidk-code-r76-trunk/apps/EeePProg/linux/../Str2Value.c ****       break;
 546              		.loc 1 243 7
 547 0518 9C0000EA 		b	.L42
 548              	.L30:
 244:/home/hkh/git/eapidk-code-r76-trunk/apps/EeePProg/linux/../Str2Value.c ****     case Op_BitwiseOr:
 245:/home/hkh/git/eapidk-code-r76-trunk/apps/EeePProg/linux/../Str2Value.c ****       *psllValue|=sllValue;
 549              		.loc 1 245 17
 550 051c 2C301BE5 		ldr	r3, [fp, #-44]
 551 0520 D000C3E1 		ldrd	r0, [r3]
 552 0524 D4234BE1 		ldrd	r2, [fp, #-52]
 553 0528 02C080E1 		orr	ip, r0, r2
 554 052c 84C00BE5 		str	ip, [fp, #-132]
 555 0530 033081E1 		orr	r3, r1, r3
 556 0534 80300BE5 		str	r3, [fp, #-128]
 557 0538 2C301BE5 		ldr	r3, [fp, #-44]
 558 053c D4084BE1 		ldrd	r0, [fp, #-132]
 559 0540 F000C3E1 		strd	r0, [r3]
 246:/home/hkh/git/eapidk-code-r76-trunk/apps/EeePProg/linux/../Str2Value.c ****       break;
 560              		.loc 1 246 7
 561 0544 910000EA 		b	.L42
 562              	.L22:
 247:/home/hkh/git/eapidk-code-r76-trunk/apps/EeePProg/linux/../Str2Value.c ****     case Op_Negate:
 248:/home/hkh/git/eapidk-code-r76-trunk/apps/EeePProg/linux/../Str2Value.c ****       *psllValue=-sllValue;
 563              		.loc 1 248 18
 564 0548 D4234BE1 		ldrd	r2, [fp, #-52]
 565 054c 001072E2 		rsbs	r1, r2, #0
 566 0550 8C100BE5 		str	r1, [fp, #-140]
 567 0554 0030E3E2 		rsc	r3, r3, #0
 568 0558 88300BE5 		str	r3, [fp, #-136]
 569              		.loc 1 248 17
 570 055c 2C301BE5 		ldr	r3, [fp, #-44]
 571 0560 DC084BE1 		ldrd	r0, [fp, #-140]
 572 0564 F000C3E1 		strd	r0, [r3]
 249:/home/hkh/git/eapidk-code-r76-trunk/apps/EeePProg/linux/../Str2Value.c ****       break;
 573              		.loc 1 249 7
 574 0568 880000EA 		b	.L42
 575              	.L28:
 250:/home/hkh/git/eapidk-code-r76-trunk/apps/EeePProg/linux/../Str2Value.c ****     case Op_BitwiseNot:
 251:/home/hkh/git/eapidk-code-r76-trunk/apps/EeePProg/linux/../Str2Value.c ****       *psllValue=~sllValue;
 576              		.loc 1 251 18
 577 056c D4234BE1 		ldrd	r2, [fp, #-52]
 578 0570 0210E0E1 		mvn	r1, r2
 579 0574 94100BE5 		str	r1, [fp, #-148]
 580 0578 0330E0E1 		mvn	r3, r3
 581 057c 90300BE5 		str	r3, [fp, #-144]
 582              		.loc 1 251 17
 583 0580 2C301BE5 		ldr	r3, [fp, #-44]
 584 0584 D4094BE1 		ldrd	r0, [fp, #-148]
 585 0588 F000C3E1 		strd	r0, [r3]
 252:/home/hkh/git/eapidk-code-r76-trunk/apps/EeePProg/linux/../Str2Value.c ****       break;
 586              		.loc 1 252 7
 587 058c 7F0000EA 		b	.L42
 588              	.L27:
 253:/home/hkh/git/eapidk-code-r76-trunk/apps/EeePProg/linux/../Str2Value.c ****     case Op_Multiply:
 254:/home/hkh/git/eapidk-code-r76-trunk/apps/EeePProg/linux/../Str2Value.c ****       *psllValue*=sllValue;
 589              		.loc 1 254 17
 590 0590 2C301BE5 		ldr	r3, [fp, #-44]
ARM GAS  /tmp/ccG9b1tU.s 			page 16


 591 0594 D020C3E1 		ldrd	r2, [r3]
 592 0598 34101BE5 		ldr	r1, [fp, #-52]
 593 059c 930100E0 		mul	r0, r3, r1
 594 05a0 30101BE5 		ldr	r1, [fp, #-48]
 595 05a4 920101E0 		mul	r1, r2, r1
 596 05a8 011080E0 		add	r1, r0, r1
 597 05ac 34001BE5 		ldr	r0, [fp, #-52]
 598 05b0 908289E0 		umull	r8, r9, r0, r2
 599 05b4 093081E0 		add	r3, r1, r9
 600 05b8 0390A0E1 		mov	r9, r3
 601 05bc 2C301BE5 		ldr	r3, [fp, #-44]
 602 05c0 F080C3E1 		strd	r8, [r3]
 255:/home/hkh/git/eapidk-code-r76-trunk/apps/EeePProg/linux/../Str2Value.c ****       break;
 603              		.loc 1 255 7
 604 05c4 710000EA 		b	.L42
 605              	.L26:
 256:/home/hkh/git/eapidk-code-r76-trunk/apps/EeePProg/linux/../Str2Value.c ****     case Op_Modulus:
 257:/home/hkh/git/eapidk-code-r76-trunk/apps/EeePProg/linux/../Str2Value.c ****       *psllValue%=sllValue;
 606              		.loc 1 257 17
 607 05c8 2C301BE5 		ldr	r3, [fp, #-44]
 608 05cc D000C3E1 		ldrd	r0, [r3]
 609 05d0 D4234BE1 		ldrd	r2, [fp, #-52]
 610 05d4 FEFFFFEB 		bl	__aeabi_ldivmod(PLT)
 611 05d8 2C101BE5 		ldr	r1, [fp, #-44]
 612 05dc F020C1E1 		strd	r2, [r1]
 258:/home/hkh/git/eapidk-code-r76-trunk/apps/EeePProg/linux/../Str2Value.c ****       break;
 613              		.loc 1 258 7
 614 05e0 6A0000EA 		b	.L42
 615              	.L25:
 259:/home/hkh/git/eapidk-code-r76-trunk/apps/EeePProg/linux/../Str2Value.c ****     case Op_Divide:
 260:/home/hkh/git/eapidk-code-r76-trunk/apps/EeePProg/linux/../Str2Value.c ****       *psllValue/=sllValue;
 616              		.loc 1 260 17
 617 05e4 2C301BE5 		ldr	r3, [fp, #-44]
 618 05e8 D000C3E1 		ldrd	r0, [r3]
 619 05ec D4234BE1 		ldrd	r2, [fp, #-52]
 620 05f0 FEFFFFEB 		bl	__aeabi_ldivmod(PLT)
 621 05f4 0020A0E1 		mov	r2, r0
 622 05f8 0130A0E1 		mov	r3, r1
 623 05fc 2C101BE5 		ldr	r1, [fp, #-44]
 624 0600 F020C1E1 		strd	r2, [r1]
 261:/home/hkh/git/eapidk-code-r76-trunk/apps/EeePProg/linux/../Str2Value.c ****       break;
 625              		.loc 1 261 7
 626 0604 610000EA 		b	.L42
 627              	.L24:
 262:/home/hkh/git/eapidk-code-r76-trunk/apps/EeePProg/linux/../Str2Value.c ****     case Op_Add:
 263:/home/hkh/git/eapidk-code-r76-trunk/apps/EeePProg/linux/../Str2Value.c ****       *psllValue+=sllValue;
 628              		.loc 1 263 17
 629 0608 2C301BE5 		ldr	r3, [fp, #-44]
 630 060c D000C3E1 		ldrd	r0, [r3]
 631 0610 D4234BE1 		ldrd	r2, [fp, #-52]
 632 0614 02C090E0 		adds	ip, r0, r2
 633 0618 9CC00BE5 		str	ip, [fp, #-156]
 634 061c 0330A1E0 		adc	r3, r1, r3
 635 0620 98300BE5 		str	r3, [fp, #-152]
 636 0624 2C301BE5 		ldr	r3, [fp, #-44]
 637 0628 DC094BE1 		ldrd	r0, [fp, #-156]
 638 062c F000C3E1 		strd	r0, [r3]
ARM GAS  /tmp/ccG9b1tU.s 			page 17


 264:/home/hkh/git/eapidk-code-r76-trunk/apps/EeePProg/linux/../Str2Value.c ****       break;
 639              		.loc 1 264 7
 640 0630 560000EA 		b	.L42
 641              	.L23:
 265:/home/hkh/git/eapidk-code-r76-trunk/apps/EeePProg/linux/../Str2Value.c ****     case Op_Subtract:
 266:/home/hkh/git/eapidk-code-r76-trunk/apps/EeePProg/linux/../Str2Value.c ****       *psllValue-=sllValue;
 642              		.loc 1 266 17
 643 0634 2C301BE5 		ldr	r3, [fp, #-44]
 644 0638 D000C3E1 		ldrd	r0, [r3]
 645 063c D4234BE1 		ldrd	r2, [fp, #-52]
 646 0640 02C050E0 		subs	ip, r0, r2
 647 0644 A4C00BE5 		str	ip, [fp, #-164]
 648 0648 0330C1E0 		sbc	r3, r1, r3
 649 064c A0300BE5 		str	r3, [fp, #-160]
 650 0650 2C301BE5 		ldr	r3, [fp, #-44]
 651 0654 D40A4BE1 		ldrd	r0, [fp, #-164]
 652 0658 F000C3E1 		strd	r0, [r3]
 267:/home/hkh/git/eapidk-code-r76-trunk/apps/EeePProg/linux/../Str2Value.c ****       break;
 653              		.loc 1 267 7
 654 065c 4B0000EA 		b	.L42
 655              	.L21:
 268:/home/hkh/git/eapidk-code-r76-trunk/apps/EeePProg/linux/../Str2Value.c ****     case Op_LeftShift:
 269:/home/hkh/git/eapidk-code-r76-trunk/apps/EeePProg/linux/../Str2Value.c ****       *psllValue<<=sllValue;
 656              		.loc 1 269 17
 657 0660 2C301BE5 		ldr	r3, [fp, #-44]
 658 0664 D020C3E1 		ldrd	r2, [r3]
 659 0668 34101BE5 		ldr	r1, [fp, #-52]
 660 066c 20C041E2 		sub	ip, r1, #32
 661 0670 200061E2 		rsb	r0, r1, #32
 662 0674 1371A0E1 		lsl	r7, r3, r1
 663 0678 127C87E1 		orr	r7, r7, r2, lsl ip
 664 067c 327087E1 		orr	r7, r7, r2, lsr r0
 665 0680 1261A0E1 		lsl	r6, r2, r1
 666 0684 2C301BE5 		ldr	r3, [fp, #-44]
 667 0688 F060C3E1 		strd	r6, [r3]
 270:/home/hkh/git/eapidk-code-r76-trunk/apps/EeePProg/linux/../Str2Value.c ****       break;
 668              		.loc 1 270 7
 669 068c 3F0000EA 		b	.L42
 670              	.L19:
 271:/home/hkh/git/eapidk-code-r76-trunk/apps/EeePProg/linux/../Str2Value.c ****     case Op_RightShift:
 272:/home/hkh/git/eapidk-code-r76-trunk/apps/EeePProg/linux/../Str2Value.c ****       *psllValue>>=sllValue;
 671              		.loc 1 272 17
 672 0690 2C301BE5 		ldr	r3, [fp, #-44]
 673 0694 D020C3E1 		ldrd	r2, [r3]
 674 0698 34101BE5 		ldr	r1, [fp, #-52]
 675 069c 20C061E2 		rsb	ip, r1, #32
 676 06a0 200051E2 		subs	r0, r1, #32
 677 06a4 3241A0E1 		lsr	r4, r2, r1
 678 06a8 134C84E1 		orr	r4, r4, r3, lsl ip
 679 06ac 0000004A 		bmi	.L48
 680 06b0 534084E1 		orr	r4, r4, r3, asr r0
 681              	.L48:
 682 06b4 5351A0E1 		asr	r5, r3, r1
 683 06b8 2C301BE5 		ldr	r3, [fp, #-44]
 684 06bc F040C3E1 		strd	r4, [r3]
 273:/home/hkh/git/eapidk-code-r76-trunk/apps/EeePProg/linux/../Str2Value.c ****       break;
 685              		.loc 1 273 7
ARM GAS  /tmp/ccG9b1tU.s 			page 18


 686 06c0 320000EA 		b	.L42
 687              	.L39:
 274:/home/hkh/git/eapidk-code-r76-trunk/apps/EeePProg/linux/../Str2Value.c ****     case Op_LogicalNotEqual:
 275:/home/hkh/git/eapidk-code-r76-trunk/apps/EeePProg/linux/../Str2Value.c ****       *psllValue=*psllValue!=sllValue;
 688              		.loc 1 275 18
 689 06c4 2C301BE5 		ldr	r3, [fp, #-44]
 690 06c8 D020C3E1 		ldrd	r2, [r3]
 691              		.loc 1 275 28
 692 06cc D4034BE1 		ldrd	r0, [fp, #-52]
 693 06d0 030051E1 		cmp	r1, r3
 694 06d4 02005001 		cmpeq	r0, r2
 695 06d8 0130A013 		movne	r3, #1
 696 06dc 0030A003 		moveq	r3, #0
 697 06e0 7330EFE6 		uxtb	r3, r3
 698 06e4 7330EFE6 		uxtb	r3, r3
 699 06e8 0020A0E3 		mov	r2, #0
 700 06ec AC300BE5 		str	r3, [fp, #-172]
 701 06f0 A8200BE5 		str	r2, [fp, #-168]
 702              		.loc 1 275 17
 703 06f4 2C301BE5 		ldr	r3, [fp, #-44]
 704 06f8 DC0A4BE1 		ldrd	r0, [fp, #-172]
 705 06fc F000C3E1 		strd	r0, [r3]
 276:/home/hkh/git/eapidk-code-r76-trunk/apps/EeePProg/linux/../Str2Value.c ****       break;
 706              		.loc 1 276 7
 707 0700 220000EA 		b	.L42
 708              	.L40:
 277:/home/hkh/git/eapidk-code-r76-trunk/apps/EeePProg/linux/../Str2Value.c ****     case Op_LogicalEqual:
 278:/home/hkh/git/eapidk-code-r76-trunk/apps/EeePProg/linux/../Str2Value.c ****       *psllValue=*psllValue==sllValue;
 709              		.loc 1 278 18
 710 0704 2C301BE5 		ldr	r3, [fp, #-44]
 711 0708 D020C3E1 		ldrd	r2, [r3]
 712              		.loc 1 278 28
 713 070c D4034BE1 		ldrd	r0, [fp, #-52]
 714 0710 030051E1 		cmp	r1, r3
 715 0714 02005001 		cmpeq	r0, r2
 716 0718 0130A003 		moveq	r3, #1
 717 071c 0030A013 		movne	r3, #0
 718 0720 7330EFE6 		uxtb	r3, r3
 719 0724 7330EFE6 		uxtb	r3, r3
 720 0728 0020A0E3 		mov	r2, #0
 721 072c B4300BE5 		str	r3, [fp, #-180]
 722 0730 B0200BE5 		str	r2, [fp, #-176]
 723              		.loc 1 278 17
 724 0734 2C301BE5 		ldr	r3, [fp, #-44]
 725 0738 D40B4BE1 		ldrd	r0, [fp, #-180]
 726 073c F000C3E1 		strd	r0, [r3]
 279:/home/hkh/git/eapidk-code-r76-trunk/apps/EeePProg/linux/../Str2Value.c ****       break;
 727              		.loc 1 279 7
 728 0740 120000EA 		b	.L42
 729              	.L18:
 280:/home/hkh/git/eapidk-code-r76-trunk/apps/EeePProg/linux/../Str2Value.c ****     default:
 281:/home/hkh/git/eapidk-code-r76-trunk/apps/EeePProg/linux/../Str2Value.c ****       EAPI_APP_RETURN_ERROR(
 730              		.loc 1 281 7
 731 0744 54309FE5 		ldr	r3, .L51
 732              	.LPIC3:
 733 0748 03308FE0 		add	r3, pc, r3
 734 074c 08308DE5 		str	r3, [sp, #8]
ARM GAS  /tmp/ccG9b1tU.s 			page 19


 735 0750 4C309FE5 		ldr	r3, .L51+4
 736              	.LPIC4:
 737 0754 03308FE0 		add	r3, pc, r3
 738 0758 04308DE5 		str	r3, [sp, #4]
 739 075c 0F3CE0E3 		mvn	r3, #3840
 740 0760 00308DE5 		str	r3, [sp]
 741 0764 193100E3 		movw	r3, #281
 742 0768 38209FE5 		ldr	r2, .L51+8
 743              	.LPIC5:
 744 076c 02208FE0 		add	r2, pc, r2
 745 0770 34109FE5 		ldr	r1, .L51+12
 746              	.LPIC6:
 747 0774 01108FE0 		add	r1, pc, r1
 748 0778 4500A0E3 		mov	r0, #69
 749 077c FEFFFFEB 		bl	siFormattedMessage_SC(PLT)
 750 0780 0F3CE0E3 		mvn	r3, #3840
 751 0784 20300BE5 		str	r3, [fp, #-32]
 752 0788 000000EA 		b	.L42
 753              	.L50:
 216:/home/hkh/git/eapidk-code-r76-trunk/apps/EeePProg/linux/../Str2Value.c ****     case Op_LogicalOr:
 754              		.loc 1 216 7
 755 078c 00F020E3 		nop
 756              	.L42:
 282:/home/hkh/git/eapidk-code-r76-trunk/apps/EeePProg/linux/../Str2Value.c ****           DoOperation, 
 283:/home/hkh/git/eapidk-code-r76-trunk/apps/EeePProg/linux/../Str2Value.c ****           EAPI_STATUS_PARSE_ERROR, 
 284:/home/hkh/git/eapidk-code-r76-trunk/apps/EeePProg/linux/../Str2Value.c ****           "Invalid Operation"
 285:/home/hkh/git/eapidk-code-r76-trunk/apps/EeePProg/linux/../Str2Value.c ****         );
 286:/home/hkh/git/eapidk-code-r76-trunk/apps/EeePProg/linux/../Str2Value.c ****       break;
 287:/home/hkh/git/eapidk-code-r76-trunk/apps/EeePProg/linux/../Str2Value.c ****   }
 288:/home/hkh/git/eapidk-code-r76-trunk/apps/EeePProg/linux/../Str2Value.c **** EAPI_APP_ASSERT_EXIT
 289:/home/hkh/git/eapidk-code-r76-trunk/apps/EeePProg/linux/../Str2Value.c ****   return StatusCode;
 757              		.loc 1 289 10
 758 0790 20301BE5 		ldr	r3, [fp, #-32]
 290:/home/hkh/git/eapidk-code-r76-trunk/apps/EeePProg/linux/../Str2Value.c **** }
 759              		.loc 1 290 1
 760 0794 0300A0E1 		mov	r0, r3
 761 0798 1CD04BE2 		sub	sp, fp, #28
 762              		.cfi_def_cfa 13, 32
 763              		@ sp needed
 764 079c F08BBDE8 		pop	{r4, r5, r6, r7, r8, r9, fp, pc}
 765              	.L52:
 766              		.align	2
 767              	.L51:
 768 07a0 A8000000 		.word	.LC3-(.LPIC3+8)
 769 07a4 B4000000 		.word	.LC4-(.LPIC4+8)
 770 07a8 38000000 		.word	.LC1-(.LPIC5+8)
 771 07ac 40000000 		.word	.LC2-(.LPIC6+8)
 772              		.cfi_endproc
 773              	.LFE3:
 775              		.align	2
 776              		.global	ParserWrapper
 777              		.syntax unified
 778              		.arm
 779              		.fpu vfpv3
 781              	ParserWrapper:
 782              	.LFB4:
 291:/home/hkh/git/eapidk-code-r76-trunk/apps/EeePProg/linux/../Str2Value.c **** typedef struct BlockParser_s{
ARM GAS  /tmp/ccG9b1tU.s 			page 20


 292:/home/hkh/git/eapidk-code-r76-trunk/apps/EeePProg/linux/../Str2Value.c ****     const char       *szDesc;
 293:/home/hkh/git/eapidk-code-r76-trunk/apps/EeePProg/linux/../Str2Value.c ****     EApiStatus_t    (*pHandler)(struct BlockParser_s*, char* ,         signed long long*);
 294:/home/hkh/git/eapidk-code-r76-trunk/apps/EeePProg/linux/../Str2Value.c ****     EApiStatus_t    (*pParser )(void*, char**, char**, signed int      *);
 295:/home/hkh/git/eapidk-code-r76-trunk/apps/EeePProg/linux/../Str2Value.c ****     void             *pContext;
 296:/home/hkh/git/eapidk-code-r76-trunk/apps/EeePProg/linux/../Str2Value.c ****     const char       *szMsg2;
 297:/home/hkh/git/eapidk-code-r76-trunk/apps/EeePProg/linux/../Str2Value.c **** }BlockParser_t;
 298:/home/hkh/git/eapidk-code-r76-trunk/apps/EeePProg/linux/../Str2Value.c **** 
 299:/home/hkh/git/eapidk-code-r76-trunk/apps/EeePProg/linux/../Str2Value.c **** EApiStatus_t
 300:/home/hkh/git/eapidk-code-r76-trunk/apps/EeePProg/linux/../Str2Value.c **** ParserWrapper(
 301:/home/hkh/git/eapidk-code-r76-trunk/apps/EeePProg/linux/../Str2Value.c ****     __IN  BlockParser_t    *pContext,
 302:/home/hkh/git/eapidk-code-r76-trunk/apps/EeePProg/linux/../Str2Value.c ****     __IN  char             *szString,
 303:/home/hkh/git/eapidk-code-r76-trunk/apps/EeePProg/linux/../Str2Value.c ****     __IN  char             *szStringEnd,
 304:/home/hkh/git/eapidk-code-r76-trunk/apps/EeePProg/linux/../Str2Value.c ****     __OUT signed long long *psllValue
 305:/home/hkh/git/eapidk-code-r76-trunk/apps/EeePProg/linux/../Str2Value.c **** 
 306:/home/hkh/git/eapidk-code-r76-trunk/apps/EeePProg/linux/../Str2Value.c ****   )
 307:/home/hkh/git/eapidk-code-r76-trunk/apps/EeePProg/linux/../Str2Value.c **** {
 783              		.loc 1 307 1
 784              		.cfi_startproc
 785              		@ args = 0, pretend = 0, frame = 24
 786              		@ frame_needed = 1, uses_anonymous_args = 0
 787 07b0 00482DE9 		push	{fp, lr}
 788              		.cfi_def_cfa_offset 8
 789              		.cfi_offset 11, -8
 790              		.cfi_offset 14, -4
 791 07b4 04B08DE2 		add	fp, sp, #4
 792              		.cfi_def_cfa 11, 4
 793 07b8 18D04DE2 		sub	sp, sp, #24
 794 07bc 10000BE5 		str	r0, [fp, #-16]
 795 07c0 14100BE5 		str	r1, [fp, #-20]
 796 07c4 18200BE5 		str	r2, [fp, #-24]
 797 07c8 1C300BE5 		str	r3, [fp, #-28]
 308:/home/hkh/git/eapidk-code-r76-trunk/apps/EeePProg/linux/../Str2Value.c ****   char SaveChar=0;
 798              		.loc 1 308 8
 799 07cc 0030A0E3 		mov	r3, #0
 800 07d0 09304BE5 		strb	r3, [fp, #-9]
 309:/home/hkh/git/eapidk-code-r76-trunk/apps/EeePProg/linux/../Str2Value.c ****   EApiStatus_t StatusCode=EAPI_STATUS_SUCCESS;
 801              		.loc 1 309 16
 802 07d4 0030A0E3 		mov	r3, #0
 803 07d8 08300BE5 		str	r3, [fp, #-8]
 310:/home/hkh/git/eapidk-code-r76-trunk/apps/EeePProg/linux/../Str2Value.c ****   if(szStringEnd!=NULL){
 804              		.loc 1 310 5
 805 07dc 18301BE5 		ldr	r3, [fp, #-24]
 806 07e0 000053E3 		cmp	r3, #0
 807 07e4 0500000A 		beq	.L54
 311:/home/hkh/git/eapidk-code-r76-trunk/apps/EeePProg/linux/../Str2Value.c ****     SaveChar=*szStringEnd;
 808              		.loc 1 311 13
 809 07e8 18301BE5 		ldr	r3, [fp, #-24]
 810 07ec 0030D3E5 		ldrb	r3, [r3]
 811 07f0 09304BE5 		strb	r3, [fp, #-9]
 312:/home/hkh/git/eapidk-code-r76-trunk/apps/EeePProg/linux/../Str2Value.c ****     *szStringEnd='\0';
 812              		.loc 1 312 17
 813 07f4 18301BE5 		ldr	r3, [fp, #-24]
 814 07f8 0020A0E3 		mov	r2, #0
 815 07fc 0020C3E5 		strb	r2, [r3]
 816              	.L54:
 313:/home/hkh/git/eapidk-code-r76-trunk/apps/EeePProg/linux/../Str2Value.c ****   }
 314:/home/hkh/git/eapidk-code-r76-trunk/apps/EeePProg/linux/../Str2Value.c ****   StatusCode=pContext->pHandler(pContext+1, szString, psllValue);
ARM GAS  /tmp/ccG9b1tU.s 			page 21


 817              		.loc 1 314 22
 818 0800 10301BE5 		ldr	r3, [fp, #-16]
 819 0804 043093E5 		ldr	r3, [r3, #4]
 820              		.loc 1 314 41
 821 0808 10201BE5 		ldr	r2, [fp, #-16]
 822 080c 140082E2 		add	r0, r2, #20
 823              		.loc 1 314 14
 824 0810 1C201BE5 		ldr	r2, [fp, #-28]
 825 0814 14101BE5 		ldr	r1, [fp, #-20]
 826 0818 33FF2FE1 		blx	r3
 827              	.LVL0:
 828 081c 08000BE5 		str	r0, [fp, #-8]
 315:/home/hkh/git/eapidk-code-r76-trunk/apps/EeePProg/linux/../Str2Value.c ****   if(szStringEnd!=NULL){
 829              		.loc 1 315 5
 830 0820 18301BE5 		ldr	r3, [fp, #-24]
 831 0824 000053E3 		cmp	r3, #0
 832 0828 0200000A 		beq	.L55
 316:/home/hkh/git/eapidk-code-r76-trunk/apps/EeePProg/linux/../Str2Value.c ****     *szStringEnd=SaveChar;
 833              		.loc 1 316 17
 834 082c 18301BE5 		ldr	r3, [fp, #-24]
 835 0830 09205BE5 		ldrb	r2, [fp, #-9]
 836 0834 0020C3E5 		strb	r2, [r3]
 837              	.L55:
 317:/home/hkh/git/eapidk-code-r76-trunk/apps/EeePProg/linux/../Str2Value.c ****   }
 318:/home/hkh/git/eapidk-code-r76-trunk/apps/EeePProg/linux/../Str2Value.c ****   return StatusCode;
 838              		.loc 1 318 10
 839 0838 08301BE5 		ldr	r3, [fp, #-8]
 319:/home/hkh/git/eapidk-code-r76-trunk/apps/EeePProg/linux/../Str2Value.c **** }
 840              		.loc 1 319 1
 841 083c 0300A0E1 		mov	r0, r3
 842 0840 04D04BE2 		sub	sp, fp, #4
 843              		.cfi_def_cfa 13, 8
 844              		@ sp needed
 845 0844 0088BDE8 		pop	{fp, pc}
 846              		.cfi_endproc
 847              	.LFE4:
 849              		.align	2
 850              		.global	ParseOpcodeTokensAscii
 851              		.syntax unified
 852              		.arm
 853              		.fpu vfpv3
 855              	ParseOpcodeTokensAscii:
 856              	.LFB5:
 320:/home/hkh/git/eapidk-code-r76-trunk/apps/EeePProg/linux/../Str2Value.c **** EApiStatus_t
 321:/home/hkh/git/eapidk-code-r76-trunk/apps/EeePProg/linux/../Str2Value.c **** ParseOpcodeTokensAscii(
 322:/home/hkh/git/eapidk-code-r76-trunk/apps/EeePProg/linux/../Str2Value.c ****     __IN  void       *pContext ,
 323:/home/hkh/git/eapidk-code-r76-trunk/apps/EeePProg/linux/../Str2Value.c ****     __IN  char      **pszString,
 324:/home/hkh/git/eapidk-code-r76-trunk/apps/EeePProg/linux/../Str2Value.c ****     __IN  char      **pszOpcode,
 325:/home/hkh/git/eapidk-code-r76-trunk/apps/EeePProg/linux/../Str2Value.c ****     __OUT signed int *psiOperationType
 326:/home/hkh/git/eapidk-code-r76-trunk/apps/EeePProg/linux/../Str2Value.c ****   )
 327:/home/hkh/git/eapidk-code-r76-trunk/apps/EeePProg/linux/../Str2Value.c **** {
 857              		.loc 1 327 1
 858              		.cfi_startproc
 859              		@ args = 0, pretend = 0, frame = 32
 860              		@ frame_needed = 1, uses_anonymous_args = 0
 861 0848 00482DE9 		push	{fp, lr}
 862              		.cfi_def_cfa_offset 8
ARM GAS  /tmp/ccG9b1tU.s 			page 22


 863              		.cfi_offset 11, -8
 864              		.cfi_offset 14, -4
 865 084c 04B08DE2 		add	fp, sp, #4
 866              		.cfi_def_cfa 11, 4
 867 0850 20D04DE2 		sub	sp, sp, #32
 868 0854 18000BE5 		str	r0, [fp, #-24]
 869 0858 1C100BE5 		str	r1, [fp, #-28]
 870 085c 20200BE5 		str	r2, [fp, #-32]
 871 0860 24300BE5 		str	r3, [fp, #-36]
 872              		.loc 1 327 1
 873 0864 E8209FE5 		ldr	r2, .L62
 874              	.LPIC7:
 875 0868 02208FE0 		add	r2, pc, r2
 876 086c E4309FE5 		ldr	r3, .L62+4
 877 0870 033092E7 		ldr	r3, [r2, r3]
 878 0874 003093E5 		ldr	r3, [r3]
 879 0878 08300BE5 		str	r3, [fp, #-8]
 880 087c 0030A0E3 		mov	r3, #0
 328:/home/hkh/git/eapidk-code-r76-trunk/apps/EeePProg/linux/../Str2Value.c ****   const StrDescElement_t*pElement ;
 329:/home/hkh/git/eapidk-code-r76-trunk/apps/EeePProg/linux/../Str2Value.c ****   char *szPos=*pszString;
 881              		.loc 1 329 9
 882 0880 1C301BE5 		ldr	r3, [fp, #-28]
 883 0884 003093E5 		ldr	r3, [r3]
 884 0888 10300BE5 		str	r3, [fp, #-16]
 330:/home/hkh/git/eapidk-code-r76-trunk/apps/EeePProg/linux/../Str2Value.c ****   EApiStatus_t StatusCode=EAPI_STATUS_SUCCESS;
 885              		.loc 1 330 16
 886 088c 0030A0E3 		mov	r3, #0
 887 0890 0C300BE5 		str	r3, [fp, #-12]
 331:/home/hkh/git/eapidk-code-r76-trunk/apps/EeePProg/linux/../Str2Value.c ****   szPos=szFindStr(szPos, pContext, &pElement);
 888              		.loc 1 331 9
 889 0894 14304BE2 		sub	r3, fp, #20
 890 0898 0320A0E1 		mov	r2, r3
 891 089c 18101BE5 		ldr	r1, [fp, #-24]
 892 08a0 10001BE5 		ldr	r0, [fp, #-16]
 893 08a4 FEFFFFEB 		bl	szFindStr(PLT)
 894 08a8 10000BE5 		str	r0, [fp, #-16]
 332:/home/hkh/git/eapidk-code-r76-trunk/apps/EeePProg/linux/../Str2Value.c ****   *pszOpcode=szPos;
 895              		.loc 1 332 13
 896 08ac 20301BE5 		ldr	r3, [fp, #-32]
 897 08b0 10201BE5 		ldr	r2, [fp, #-16]
 898 08b4 002083E5 		str	r2, [r3]
 333:/home/hkh/git/eapidk-code-r76-trunk/apps/EeePProg/linux/../Str2Value.c ****   if(szPos==NULL){
 899              		.loc 1 333 5
 900 08b8 10301BE5 		ldr	r3, [fp, #-16]
 901 08bc 000053E3 		cmp	r3, #0
 902 08c0 0700001A 		bne	.L58
 334:/home/hkh/git/eapidk-code-r76-trunk/apps/EeePProg/linux/../Str2Value.c ****     *pszString=NULL;
 903              		.loc 1 334 15
 904 08c4 1C301BE5 		ldr	r3, [fp, #-28]
 905 08c8 0020A0E3 		mov	r2, #0
 906 08cc 002083E5 		str	r2, [r3]
 335:/home/hkh/git/eapidk-code-r76-trunk/apps/EeePProg/linux/../Str2Value.c ****     *psiOperationType=Op_NoOperation;
 907              		.loc 1 335 22
 908 08d0 24301BE5 		ldr	r3, [fp, #-36]
 909 08d4 0020A0E3 		mov	r2, #0
 910 08d8 002083E5 		str	r2, [r3]
 336:/home/hkh/git/eapidk-code-r76-trunk/apps/EeePProg/linux/../Str2Value.c ****     return StatusCode;
ARM GAS  /tmp/ccG9b1tU.s 			page 23


 911              		.loc 1 336 12
 912 08dc 0C301BE5 		ldr	r3, [fp, #-12]
 913 08e0 0E0000EA 		b	.L60
 914              	.L58:
 337:/home/hkh/git/eapidk-code-r76-trunk/apps/EeePProg/linux/../Str2Value.c ****   }
 338:/home/hkh/git/eapidk-code-r76-trunk/apps/EeePProg/linux/../Str2Value.c ****   
 339:/home/hkh/git/eapidk-code-r76-trunk/apps/EeePProg/linux/../Str2Value.c ****   *psiOperationType=pElement->cuiValue;
 915              		.loc 1 339 29
 916 08e4 14301BE5 		ldr	r3, [fp, #-20]
 917 08e8 043093E5 		ldr	r3, [r3, #4]
 918 08ec 0320A0E1 		mov	r2, r3
 919              		.loc 1 339 20
 920 08f0 24301BE5 		ldr	r3, [fp, #-36]
 921 08f4 002083E5 		str	r2, [r3]
 340:/home/hkh/git/eapidk-code-r76-trunk/apps/EeePProg/linux/../Str2Value.c ****   *pszString=szPos+strlen(pElement->pcszSymbol);
 922              		.loc 1 340 35
 923 08f8 14301BE5 		ldr	r3, [fp, #-20]
 924 08fc 003093E5 		ldr	r3, [r3]
 925              		.loc 1 340 20
 926 0900 0300A0E1 		mov	r0, r3
 927 0904 FEFFFFEB 		bl	strlen(PLT)
 928 0908 0020A0E1 		mov	r2, r0
 929              		.loc 1 340 19
 930 090c 10301BE5 		ldr	r3, [fp, #-16]
 931 0910 022083E0 		add	r2, r3, r2
 932              		.loc 1 340 13
 933 0914 1C301BE5 		ldr	r3, [fp, #-28]
 934 0918 002083E5 		str	r2, [r3]
 341:/home/hkh/git/eapidk-code-r76-trunk/apps/EeePProg/linux/../Str2Value.c ****   return  StatusCode;
 935              		.loc 1 341 11
 936 091c 0C301BE5 		ldr	r3, [fp, #-12]
 937              	.L60:
 327:/home/hkh/git/eapidk-code-r76-trunk/apps/EeePProg/linux/../Str2Value.c ****   const StrDescElement_t*pElement ;
 938              		.loc 1 327 1 discriminator 1
 939 0920 34109FE5 		ldr	r1, .L62+8
 940              	.LPIC8:
 941 0924 01108FE0 		add	r1, pc, r1
 342:/home/hkh/git/eapidk-code-r76-trunk/apps/EeePProg/linux/../Str2Value.c **** }
 942              		.loc 1 342 1 discriminator 1
 943 0928 28209FE5 		ldr	r2, .L62+4
 944 092c 022091E7 		ldr	r2, [r1, r2]
 945 0930 001092E5 		ldr	r1, [r2]
 946 0934 08201BE5 		ldr	r2, [fp, #-8]
 947 0938 011032E0 		eors	r1, r2, r1
 948 093c 0020A0E3 		mov	r2, #0
 949 0940 0000000A 		beq	.L61
 950              		.loc 1 342 1 is_stmt 0
 951 0944 FEFFFFEB 		bl	__stack_chk_fail(PLT)
 952              	.L61:
 953 0948 0300A0E1 		mov	r0, r3
 954 094c 04D04BE2 		sub	sp, fp, #4
 955              		.cfi_def_cfa 13, 8
 956              		@ sp needed
 957 0950 0088BDE8 		pop	{fp, pc}
 958              	.L63:
 959              		.align	2
 960              	.L62:
ARM GAS  /tmp/ccG9b1tU.s 			page 24


 961 0954 E4000000 		.word	_GLOBAL_OFFSET_TABLE_-(.LPIC7+8)
 962 0958 00000000 		.word	__stack_chk_guard(GOT)
 963 095c 30000000 		.word	_GLOBAL_OFFSET_TABLE_-(.LPIC8+8)
 964              		.cfi_endproc
 965              	.LFE5:
 967              		.section	.rodata
 968              		.align	2
 969              	.LC5:
 970 0070 54422000 		.ascii	"TB \000"
 971              		.align	2
 972              	.LC6:
 973 0074 50617273 		.ascii	"ParseAsciiEqu_13(pContext, szString+1, &CurValue)\000"
 973      65417363 
 973      69694571 
 973      755F3133 
 973      2870436F 
 974 00a6 0000     		.align	2
 975              	.LC7:
 976 00a8 446F4F70 		.ascii	"DoOperation(Op_LogicalNot, psllValue, CurValue)\000"
 976      65726174 
 976      696F6E28 
 976      4F705F4C 
 976      6F676963 
 977              		.align	2
 978              	.LC8:
 979 00d8 446F4F70 		.ascii	"DoOperation(Op_BitwiseNot, psllValue, CurValue)\000"
 979      65726174 
 979      696F6E28 
 979      4F705F42 
 979      69747769 
 980              		.align	2
 981              	.LC9:
 982 0108 446F4F70 		.ascii	"DoOperation(Op_Negate, psllValue, CurValue)\000"
 982      65726174 
 982      696F6E28 
 982      4F705F4E 
 982      65676174 
 983              		.align	2
 984              	.LC10:
 985 0134 50617273 		.ascii	"ParseAsciiEqu_13(pContext, szString+1, psllValue)\000"
 985      65417363 
 985      69694571 
 985      755F3133 
 985      2870436F 
 986 0166 0000     		.align	2
 987              	.LC11:
 988 0168 50617273 		.ascii	"ParseAsciiEqu_13\000"
 988      65417363 
 988      69694571 
 988      755F3133 
 988      00
 989 0179 000000   		.align	2
 990              	.LC12:
 991 017c 5E204865 		.ascii	"^ Here\000"
 991      726500
 992 0183 00       		.align	2
 993              	.LC13:
ARM GAS  /tmp/ccG9b1tU.s 			page 25


 994 0184 00       		.ascii	"\000"
 995 0185 000000   		.align	2
 996              	.LC14:
 997 0188 252A7325 		.ascii	"%*s%s\012\000"
 997      730A00
 998              		.text
 999              		.align	2
 1000              		.global	ParseAsciiEqu_13
 1001              		.syntax unified
 1002              		.arm
 1003              		.fpu vfpv3
 1005              	ParseAsciiEqu_13:
 1006              	.LFB6:
 343:/home/hkh/git/eapidk-code-r76-trunk/apps/EeePProg/linux/../Str2Value.c **** 
 344:/home/hkh/git/eapidk-code-r76-trunk/apps/EeePProg/linux/../Str2Value.c **** EApiStatus_t
 345:/home/hkh/git/eapidk-code-r76-trunk/apps/EeePProg/linux/../Str2Value.c **** ParseAsciiEqu_13(
 346:/home/hkh/git/eapidk-code-r76-trunk/apps/EeePProg/linux/../Str2Value.c ****     __IN  struct BlockParser_s *pContext,
 347:/home/hkh/git/eapidk-code-r76-trunk/apps/EeePProg/linux/../Str2Value.c ****     __IN  char             *szString,
 348:/home/hkh/git/eapidk-code-r76-trunk/apps/EeePProg/linux/../Str2Value.c ****     __OUT signed long long *psllValue
 349:/home/hkh/git/eapidk-code-r76-trunk/apps/EeePProg/linux/../Str2Value.c **** 
 350:/home/hkh/git/eapidk-code-r76-trunk/apps/EeePProg/linux/../Str2Value.c ****   )
 351:/home/hkh/git/eapidk-code-r76-trunk/apps/EeePProg/linux/../Str2Value.c **** {
 1007              		.loc 1 351 1 is_stmt 1
 1008              		.cfi_startproc
 1009              		@ args = 0, pretend = 0, frame = 40
 1010              		@ frame_needed = 1, uses_anonymous_args = 0
 1011 0960 30482DE9 		push	{r4, r5, fp, lr}
 1012              		.cfi_def_cfa_offset 16
 1013              		.cfi_offset 4, -16
 1014              		.cfi_offset 5, -12
 1015              		.cfi_offset 11, -8
 1016              		.cfi_offset 14, -4
 1017 0964 0CB08DE2 		add	fp, sp, #12
 1018              		.cfi_def_cfa 11, 4
 1019 0968 40D04DE2 		sub	sp, sp, #64
 1020 096c 28000BE5 		str	r0, [fp, #-40]
 1021 0970 2C100BE5 		str	r1, [fp, #-44]
 1022 0974 30200BE5 		str	r2, [fp, #-48]
 1023              		.loc 1 351 1
 1024 0978 64249FE5 		ldr	r2, .L87
 1025              	.LPIC45:
 1026 097c 02208FE0 		add	r2, pc, r2
 1027 0980 60349FE5 		ldr	r3, .L87+4
 1028 0984 033092E7 		ldr	r3, [r2, r3]
 1029 0988 003093E5 		ldr	r3, [r3]
 1030 098c 10300BE5 		str	r3, [fp, #-16]
 1031 0990 0030A0E3 		mov	r3, #0
 352:/home/hkh/git/eapidk-code-r76-trunk/apps/EeePProg/linux/../Str2Value.c ****     char *pszEnd;
 353:/home/hkh/git/eapidk-code-r76-trunk/apps/EeePProg/linux/../Str2Value.c ****     signed long long CurValue;
 354:/home/hkh/git/eapidk-code-r76-trunk/apps/EeePProg/linux/../Str2Value.c ****     EApiStatus_t StatusCode=EAPI_STATUS_SUCCESS;
 1032              		.loc 1 354 18
 1033 0994 0030A0E3 		mov	r3, #0
 1034 0998 20300BE5 		str	r3, [fp, #-32]
 355:/home/hkh/git/eapidk-code-r76-trunk/apps/EeePProg/linux/../Str2Value.c ****     szString=skipWhiteSpaces(szString);
 1035              		.loc 1 355 14
 1036 099c 2C001BE5 		ldr	r0, [fp, #-44]
 1037 09a0 FEFFFFEB 		bl	skipWhiteSpaces(PLT)
ARM GAS  /tmp/ccG9b1tU.s 			page 26


 1038 09a4 2C000BE5 		str	r0, [fp, #-44]
 356:/home/hkh/git/eapidk-code-r76-trunk/apps/EeePProg/linux/../Str2Value.c **** 
 357:/home/hkh/git/eapidk-code-r76-trunk/apps/EeePProg/linux/../Str2Value.c **** 
 358:/home/hkh/git/eapidk-code-r76-trunk/apps/EeePProg/linux/../Str2Value.c ****     switch(*szString){
 1039              		.loc 1 358 12
 1040 09a8 2C301BE5 		ldr	r3, [fp, #-44]
 1041 09ac 0030D3E5 		ldrb	r3, [r3]	@ zero_extendqisi2
 1042              		.loc 1 358 5
 1043 09b0 7E0053E3 		cmp	r3, #126
 1044 09b4 3C00000A 		beq	.L65
 1045 09b8 7E0053E3 		cmp	r3, #126
 1046 09bc B80000CA 		bgt	.L66
 1047 09c0 2D0053E3 		cmp	r3, #45
 1048 09c4 6A00000A 		beq	.L67
 1049 09c8 2D0053E3 		cmp	r3, #45
 1050 09cc B40000CA 		bgt	.L66
 1051 09d0 210053E3 		cmp	r3, #33
 1052 09d4 0200000A 		beq	.L68
 1053 09d8 2B0053E3 		cmp	r3, #43
 1054 09dc 9600000A 		beq	.L69
 1055 09e0 AF0000EA 		b	.L66
 1056              	.L68:
 359:/home/hkh/git/eapidk-code-r76-trunk/apps/EeePProg/linux/../Str2Value.c ****       case '!':
 360:/home/hkh/git/eapidk-code-r76-trunk/apps/EeePProg/linux/../Str2Value.c **** #ifdef TEST_EQUPARSER
 361:/home/hkh/git/eapidk-code-r76-trunk/apps/EeePProg/linux/../Str2Value.c ****         siFormattedMessage_M2('D', __FILE__, "ParseAsciiEqu_13", __LINE__, "!,~,-,+",
 362:/home/hkh/git/eapidk-code-r76-trunk/apps/EeePProg/linux/../Str2Value.c ****                 "%s\n", szString );
 363:/home/hkh/git/eapidk-code-r76-trunk/apps/EeePProg/linux/../Str2Value.c **** #endif
 364:/home/hkh/git/eapidk-code-r76-trunk/apps/EeePProg/linux/../Str2Value.c ****         DO(ParseAsciiEqu_13(pContext, szString+1, &CurValue));
 1057              		.loc 1 364 9
 1058 09e4 2C301BE5 		ldr	r3, [fp, #-44]
 1059 09e8 013083E2 		add	r3, r3, #1
 1060 09ec 1C204BE2 		sub	r2, fp, #28
 1061 09f0 0310A0E1 		mov	r1, r3
 1062 09f4 28001BE5 		ldr	r0, [fp, #-40]
 1063 09f8 FEFFFFEB 		bl	ParseAsciiEqu_13(PLT)
 1064 09fc 20000BE5 		str	r0, [fp, #-32]
 1065 0a00 20301BE5 		ldr	r3, [fp, #-32]
 1066 0a04 000053E3 		cmp	r3, #0
 1067 0a08 0F00000A 		beq	.L70
 1068              		.loc 1 364 9 is_stmt 0 discriminator 1
 1069 0a0c D8339FE5 		ldr	r3, .L87+8
 1070              	.LPIC9:
 1071 0a10 03308FE0 		add	r3, pc, r3
 1072 0a14 08308DE5 		str	r3, [sp, #8]
 1073 0a18 D0339FE5 		ldr	r3, .L87+12
 1074              	.LPIC10:
 1075 0a1c 03308FE0 		add	r3, pc, r3
 1076 0a20 04308DE5 		str	r3, [sp, #4]
 1077 0a24 20301BE5 		ldr	r3, [fp, #-32]
 1078 0a28 00308DE5 		str	r3, [sp]
 1079 0a2c 5B3FA0E3 		mov	r3, #364
 1080 0a30 BC239FE5 		ldr	r2, .L87+16
 1081              	.LPIC11:
 1082 0a34 02208FE0 		add	r2, pc, r2
 1083 0a38 B8139FE5 		ldr	r1, .L87+20
 1084              	.LPIC12:
 1085 0a3c 01108FE0 		add	r1, pc, r1
ARM GAS  /tmp/ccG9b1tU.s 			page 27


 1086 0a40 4500A0E3 		mov	r0, #69
 1087 0a44 FEFFFFEB 		bl	siFormattedMessage_SC(PLT)
 1088 0a48 D70000EA 		b	.L71
 1089              	.L70:
 365:/home/hkh/git/eapidk-code-r76-trunk/apps/EeePProg/linux/../Str2Value.c ****         DO(DoOperation(Op_LogicalNot, psllValue, CurValue));
 1090              		.loc 1 365 9 is_stmt 1
 1091 0a4c DC214BE1 		ldrd	r2, [fp, #-28]
 1092 0a50 30101BE5 		ldr	r1, [fp, #-48]
 1093 0a54 0900A0E3 		mov	r0, #9
 1094 0a58 FEFFFFEB 		bl	DoOperation(PLT)
 1095 0a5c 20000BE5 		str	r0, [fp, #-32]
 1096 0a60 20301BE5 		ldr	r3, [fp, #-32]
 1097 0a64 000053E3 		cmp	r3, #0
 1098 0a68 C600000A 		beq	.L82
 1099              		.loc 1 365 9 is_stmt 0 discriminator 1
 1100 0a6c 88339FE5 		ldr	r3, .L87+24
 1101              	.LPIC13:
 1102 0a70 03308FE0 		add	r3, pc, r3
 1103 0a74 08308DE5 		str	r3, [sp, #8]
 1104 0a78 80339FE5 		ldr	r3, .L87+28
 1105              	.LPIC14:
 1106 0a7c 03308FE0 		add	r3, pc, r3
 1107 0a80 04308DE5 		str	r3, [sp, #4]
 1108 0a84 20301BE5 		ldr	r3, [fp, #-32]
 1109 0a88 00308DE5 		str	r3, [sp]
 1110 0a8c 6D3100E3 		movw	r3, #365
 1111 0a90 6C239FE5 		ldr	r2, .L87+32
 1112              	.LPIC15:
 1113 0a94 02208FE0 		add	r2, pc, r2
 1114 0a98 68139FE5 		ldr	r1, .L87+36
 1115              	.LPIC16:
 1116 0a9c 01108FE0 		add	r1, pc, r1
 1117 0aa0 4500A0E3 		mov	r0, #69
 1118 0aa4 FEFFFFEB 		bl	siFormattedMessage_SC(PLT)
 1119 0aa8 BF0000EA 		b	.L71
 1120              	.L65:
 366:/home/hkh/git/eapidk-code-r76-trunk/apps/EeePProg/linux/../Str2Value.c ****         break;
 367:/home/hkh/git/eapidk-code-r76-trunk/apps/EeePProg/linux/../Str2Value.c ****       case '~':
 368:/home/hkh/git/eapidk-code-r76-trunk/apps/EeePProg/linux/../Str2Value.c **** #ifdef TEST_EQUPARSER
 369:/home/hkh/git/eapidk-code-r76-trunk/apps/EeePProg/linux/../Str2Value.c ****         siFormattedMessage_M2('D', __FILE__, "ParseAsciiEqu_13", __LINE__, "!,~,-,+",
 370:/home/hkh/git/eapidk-code-r76-trunk/apps/EeePProg/linux/../Str2Value.c ****                 "%s\n", szString );
 371:/home/hkh/git/eapidk-code-r76-trunk/apps/EeePProg/linux/../Str2Value.c **** #endif
 372:/home/hkh/git/eapidk-code-r76-trunk/apps/EeePProg/linux/../Str2Value.c ****         DO(ParseAsciiEqu_13(pContext, szString+1, &CurValue));
 1121              		.loc 1 372 9 is_stmt 1
 1122 0aac 2C301BE5 		ldr	r3, [fp, #-44]
 1123 0ab0 013083E2 		add	r3, r3, #1
 1124 0ab4 1C204BE2 		sub	r2, fp, #28
 1125 0ab8 0310A0E1 		mov	r1, r3
 1126 0abc 28001BE5 		ldr	r0, [fp, #-40]
 1127 0ac0 FEFFFFEB 		bl	ParseAsciiEqu_13(PLT)
 1128 0ac4 20000BE5 		str	r0, [fp, #-32]
 1129 0ac8 20301BE5 		ldr	r3, [fp, #-32]
 1130 0acc 000053E3 		cmp	r3, #0
 1131 0ad0 0F00000A 		beq	.L73
 1132              		.loc 1 372 9 is_stmt 0 discriminator 1
 1133 0ad4 30339FE5 		ldr	r3, .L87+40
 1134              	.LPIC17:
ARM GAS  /tmp/ccG9b1tU.s 			page 28


 1135 0ad8 03308FE0 		add	r3, pc, r3
 1136 0adc 08308DE5 		str	r3, [sp, #8]
 1137 0ae0 28339FE5 		ldr	r3, .L87+44
 1138              	.LPIC18:
 1139 0ae4 03308FE0 		add	r3, pc, r3
 1140 0ae8 04308DE5 		str	r3, [sp, #4]
 1141 0aec 20301BE5 		ldr	r3, [fp, #-32]
 1142 0af0 00308DE5 		str	r3, [sp]
 1143 0af4 5D3FA0E3 		mov	r3, #372
 1144 0af8 14239FE5 		ldr	r2, .L87+48
 1145              	.LPIC19:
 1146 0afc 02208FE0 		add	r2, pc, r2
 1147 0b00 10139FE5 		ldr	r1, .L87+52
 1148              	.LPIC20:
 1149 0b04 01108FE0 		add	r1, pc, r1
 1150 0b08 4500A0E3 		mov	r0, #69
 1151 0b0c FEFFFFEB 		bl	siFormattedMessage_SC(PLT)
 1152 0b10 A50000EA 		b	.L71
 1153              	.L73:
 373:/home/hkh/git/eapidk-code-r76-trunk/apps/EeePProg/linux/../Str2Value.c ****         DO(DoOperation(Op_BitwiseNot, psllValue, CurValue));
 1154              		.loc 1 373 9 is_stmt 1
 1155 0b14 DC214BE1 		ldrd	r2, [fp, #-28]
 1156 0b18 30101BE5 		ldr	r1, [fp, #-48]
 1157 0b1c 0D00A0E3 		mov	r0, #13
 1158 0b20 FEFFFFEB 		bl	DoOperation(PLT)
 1159 0b24 20000BE5 		str	r0, [fp, #-32]
 1160 0b28 20301BE5 		ldr	r3, [fp, #-32]
 1161 0b2c 000053E3 		cmp	r3, #0
 1162 0b30 9600000A 		beq	.L83
 1163              		.loc 1 373 9 is_stmt 0 discriminator 1
 1164 0b34 E0329FE5 		ldr	r3, .L87+56
 1165              	.LPIC21:
 1166 0b38 03308FE0 		add	r3, pc, r3
 1167 0b3c 08308DE5 		str	r3, [sp, #8]
 1168 0b40 D8329FE5 		ldr	r3, .L87+60
 1169              	.LPIC22:
 1170 0b44 03308FE0 		add	r3, pc, r3
 1171 0b48 04308DE5 		str	r3, [sp, #4]
 1172 0b4c 20301BE5 		ldr	r3, [fp, #-32]
 1173 0b50 00308DE5 		str	r3, [sp]
 1174 0b54 753100E3 		movw	r3, #373
 1175 0b58 C4229FE5 		ldr	r2, .L87+64
 1176              	.LPIC23:
 1177 0b5c 02208FE0 		add	r2, pc, r2
 1178 0b60 C0129FE5 		ldr	r1, .L87+68
 1179              	.LPIC24:
 1180 0b64 01108FE0 		add	r1, pc, r1
 1181 0b68 4500A0E3 		mov	r0, #69
 1182 0b6c FEFFFFEB 		bl	siFormattedMessage_SC(PLT)
 1183 0b70 8D0000EA 		b	.L71
 1184              	.L67:
 374:/home/hkh/git/eapidk-code-r76-trunk/apps/EeePProg/linux/../Str2Value.c ****         break;
 375:/home/hkh/git/eapidk-code-r76-trunk/apps/EeePProg/linux/../Str2Value.c ****       case '-':
 376:/home/hkh/git/eapidk-code-r76-trunk/apps/EeePProg/linux/../Str2Value.c **** #ifdef TEST_EQUPARSER
 377:/home/hkh/git/eapidk-code-r76-trunk/apps/EeePProg/linux/../Str2Value.c ****         siFormattedMessage_M2('D', __FILE__, "ParseAsciiEqu_13", __LINE__, "!,~,-,+",
 378:/home/hkh/git/eapidk-code-r76-trunk/apps/EeePProg/linux/../Str2Value.c ****                 "%s\n", szString );
 379:/home/hkh/git/eapidk-code-r76-trunk/apps/EeePProg/linux/../Str2Value.c **** #endif
ARM GAS  /tmp/ccG9b1tU.s 			page 29


 380:/home/hkh/git/eapidk-code-r76-trunk/apps/EeePProg/linux/../Str2Value.c ****         DO(ParseAsciiEqu_13(pContext, szString+1, &CurValue));
 1185              		.loc 1 380 9 is_stmt 1
 1186 0b74 2C301BE5 		ldr	r3, [fp, #-44]
 1187 0b78 013083E2 		add	r3, r3, #1
 1188 0b7c 1C204BE2 		sub	r2, fp, #28
 1189 0b80 0310A0E1 		mov	r1, r3
 1190 0b84 28001BE5 		ldr	r0, [fp, #-40]
 1191 0b88 FEFFFFEB 		bl	ParseAsciiEqu_13(PLT)
 1192 0b8c 20000BE5 		str	r0, [fp, #-32]
 1193 0b90 20301BE5 		ldr	r3, [fp, #-32]
 1194 0b94 000053E3 		cmp	r3, #0
 1195 0b98 0F00000A 		beq	.L75
 1196              		.loc 1 380 9 is_stmt 0 discriminator 1
 1197 0b9c 88329FE5 		ldr	r3, .L87+72
 1198              	.LPIC25:
 1199 0ba0 03308FE0 		add	r3, pc, r3
 1200 0ba4 08308DE5 		str	r3, [sp, #8]
 1201 0ba8 80329FE5 		ldr	r3, .L87+76
 1202              	.LPIC26:
 1203 0bac 03308FE0 		add	r3, pc, r3
 1204 0bb0 04308DE5 		str	r3, [sp, #4]
 1205 0bb4 20301BE5 		ldr	r3, [fp, #-32]
 1206 0bb8 00308DE5 		str	r3, [sp]
 1207 0bbc 5F3FA0E3 		mov	r3, #380
 1208 0bc0 6C229FE5 		ldr	r2, .L87+80
 1209              	.LPIC27:
 1210 0bc4 02208FE0 		add	r2, pc, r2
 1211 0bc8 68129FE5 		ldr	r1, .L87+84
 1212              	.LPIC28:
 1213 0bcc 01108FE0 		add	r1, pc, r1
 1214 0bd0 4500A0E3 		mov	r0, #69
 1215 0bd4 FEFFFFEB 		bl	siFormattedMessage_SC(PLT)
 1216 0bd8 730000EA 		b	.L71
 1217              	.L75:
 381:/home/hkh/git/eapidk-code-r76-trunk/apps/EeePProg/linux/../Str2Value.c ****         DO(DoOperation(Op_Negate, psllValue, CurValue));
 1218              		.loc 1 381 9 is_stmt 1
 1219 0bdc DC214BE1 		ldrd	r2, [fp, #-28]
 1220 0be0 30101BE5 		ldr	r1, [fp, #-48]
 1221 0be4 1300A0E3 		mov	r0, #19
 1222 0be8 FEFFFFEB 		bl	DoOperation(PLT)
 1223 0bec 20000BE5 		str	r0, [fp, #-32]
 1224 0bf0 20301BE5 		ldr	r3, [fp, #-32]
 1225 0bf4 000053E3 		cmp	r3, #0
 1226 0bf8 6600000A 		beq	.L84
 1227              		.loc 1 381 9 is_stmt 0 discriminator 1
 1228 0bfc 38329FE5 		ldr	r3, .L87+88
 1229              	.LPIC29:
 1230 0c00 03308FE0 		add	r3, pc, r3
 1231 0c04 08308DE5 		str	r3, [sp, #8]
 1232 0c08 30329FE5 		ldr	r3, .L87+92
 1233              	.LPIC30:
 1234 0c0c 03308FE0 		add	r3, pc, r3
 1235 0c10 04308DE5 		str	r3, [sp, #4]
 1236 0c14 20301BE5 		ldr	r3, [fp, #-32]
 1237 0c18 00308DE5 		str	r3, [sp]
 1238 0c1c 7D3100E3 		movw	r3, #381
 1239 0c20 1C229FE5 		ldr	r2, .L87+96
ARM GAS  /tmp/ccG9b1tU.s 			page 30


 1240              	.LPIC31:
 1241 0c24 02208FE0 		add	r2, pc, r2
 1242 0c28 18129FE5 		ldr	r1, .L87+100
 1243              	.LPIC32:
 1244 0c2c 01108FE0 		add	r1, pc, r1
 1245 0c30 4500A0E3 		mov	r0, #69
 1246 0c34 FEFFFFEB 		bl	siFormattedMessage_SC(PLT)
 1247 0c38 5B0000EA 		b	.L71
 1248              	.L69:
 382:/home/hkh/git/eapidk-code-r76-trunk/apps/EeePProg/linux/../Str2Value.c ****         break;
 383:/home/hkh/git/eapidk-code-r76-trunk/apps/EeePProg/linux/../Str2Value.c ****       case '+':
 384:/home/hkh/git/eapidk-code-r76-trunk/apps/EeePProg/linux/../Str2Value.c **** #ifdef TEST_EQUPARSER
 385:/home/hkh/git/eapidk-code-r76-trunk/apps/EeePProg/linux/../Str2Value.c ****         siFormattedMessage_M2('D', __FILE__, "ParseAsciiEqu_13", __LINE__, "!,~,-,+",
 386:/home/hkh/git/eapidk-code-r76-trunk/apps/EeePProg/linux/../Str2Value.c ****                 "%s\n", szString );
 387:/home/hkh/git/eapidk-code-r76-trunk/apps/EeePProg/linux/../Str2Value.c **** #endif
 388:/home/hkh/git/eapidk-code-r76-trunk/apps/EeePProg/linux/../Str2Value.c ****         DO(ParseAsciiEqu_13(pContext, szString+1, psllValue));
 1249              		.loc 1 388 9 is_stmt 1
 1250 0c3c 2C301BE5 		ldr	r3, [fp, #-44]
 1251 0c40 013083E2 		add	r3, r3, #1
 1252 0c44 30201BE5 		ldr	r2, [fp, #-48]
 1253 0c48 0310A0E1 		mov	r1, r3
 1254 0c4c 28001BE5 		ldr	r0, [fp, #-40]
 1255 0c50 FEFFFFEB 		bl	ParseAsciiEqu_13(PLT)
 1256 0c54 20000BE5 		str	r0, [fp, #-32]
 1257 0c58 20301BE5 		ldr	r3, [fp, #-32]
 1258 0c5c 000053E3 		cmp	r3, #0
 1259 0c60 4E00000A 		beq	.L85
 1260              		.loc 1 388 9 is_stmt 0 discriminator 1
 1261 0c64 E0319FE5 		ldr	r3, .L87+104
 1262              	.LPIC33:
 1263 0c68 03308FE0 		add	r3, pc, r3
 1264 0c6c 08308DE5 		str	r3, [sp, #8]
 1265 0c70 D8319FE5 		ldr	r3, .L87+108
 1266              	.LPIC34:
 1267 0c74 03308FE0 		add	r3, pc, r3
 1268 0c78 04308DE5 		str	r3, [sp, #4]
 1269 0c7c 20301BE5 		ldr	r3, [fp, #-32]
 1270 0c80 00308DE5 		str	r3, [sp]
 1271 0c84 613FA0E3 		mov	r3, #388
 1272 0c88 C4219FE5 		ldr	r2, .L87+112
 1273              	.LPIC35:
 1274 0c8c 02208FE0 		add	r2, pc, r2
 1275 0c90 C0119FE5 		ldr	r1, .L87+116
 1276              	.LPIC36:
 1277 0c94 01108FE0 		add	r1, pc, r1
 1278 0c98 4500A0E3 		mov	r0, #69
 1279 0c9c FEFFFFEB 		bl	siFormattedMessage_SC(PLT)
 1280 0ca0 410000EA 		b	.L71
 1281              	.L66:
 389:/home/hkh/git/eapidk-code-r76-trunk/apps/EeePProg/linux/../Str2Value.c ****         break;
 390:/home/hkh/git/eapidk-code-r76-trunk/apps/EeePProg/linux/../Str2Value.c ****       default:
 391:/home/hkh/git/eapidk-code-r76-trunk/apps/EeePProg/linux/../Str2Value.c ****         *psllValue=ulConvertStr2NumEx(szString, &pszEnd);
 1282              		.loc 1 391 20 is_stmt 1
 1283 0ca4 24304BE2 		sub	r3, fp, #36
 1284 0ca8 0310A0E1 		mov	r1, r3
 1285 0cac 2C001BE5 		ldr	r0, [fp, #-44]
 1286 0cb0 FEFFFFEB 		bl	ulConvertStr2NumEx(PLT)
ARM GAS  /tmp/ccG9b1tU.s 			page 31


 1287 0cb4 0030A0E1 		mov	r3, r0
 1288 0cb8 0020A0E3 		mov	r2, #0
 1289 0cbc 0340A0E1 		mov	r4, r3
 1290 0cc0 0250A0E1 		mov	r5, r2
 1291              		.loc 1 391 19
 1292 0cc4 30301BE5 		ldr	r3, [fp, #-48]
 1293 0cc8 F040C3E1 		strd	r4, [r3]
 392:/home/hkh/git/eapidk-code-r76-trunk/apps/EeePProg/linux/../Str2Value.c ****         pszEnd=skipWhiteSpaces(pszEnd);
 1294              		.loc 1 392 16
 1295 0ccc 24301BE5 		ldr	r3, [fp, #-36]
 1296 0cd0 0300A0E1 		mov	r0, r3
 1297 0cd4 FEFFFFEB 		bl	skipWhiteSpaces(PLT)
 1298 0cd8 0030A0E1 		mov	r3, r0
 1299              		.loc 1 392 15
 1300 0cdc 24300BE5 		str	r3, [fp, #-36]
 393:/home/hkh/git/eapidk-code-r76-trunk/apps/EeePProg/linux/../Str2Value.c ****         if(*pszEnd!='\0'){
 1301              		.loc 1 393 12
 1302 0ce0 24301BE5 		ldr	r3, [fp, #-36]
 1303 0ce4 0030D3E5 		ldrb	r3, [r3]	@ zero_extendqisi2
 1304              		.loc 1 393 11
 1305 0ce8 000053E3 		cmp	r3, #0
 1306 0cec 2D00000A 		beq	.L86
 394:/home/hkh/git/eapidk-code-r76-trunk/apps/EeePProg/linux/../Str2Value.c ****           siFormattedMessage_SC('E', __FILE__, "ParseAsciiEqu_13", __LINE__, EAPI_STATUS_PARSE_ERRO
 1307              		.loc 1 394 11
 1308 0cf0 2C301BE5 		ldr	r3, [fp, #-44]
 1309 0cf4 08308DE5 		str	r3, [sp, #8]
 1310 0cf8 5C319FE5 		ldr	r3, .L87+120
 1311              	.LPIC37:
 1312 0cfc 03308FE0 		add	r3, pc, r3
 1313 0d00 04308DE5 		str	r3, [sp, #4]
 1314 0d04 0F3CE0E3 		mvn	r3, #3840
 1315 0d08 00308DE5 		str	r3, [sp]
 1316 0d0c 8A3100E3 		movw	r3, #394
 1317 0d10 48219FE5 		ldr	r2, .L87+124
 1318              	.LPIC38:
 1319 0d14 02208FE0 		add	r2, pc, r2
 1320 0d18 44119FE5 		ldr	r1, .L87+128
 1321              	.LPIC39:
 1322 0d1c 01108FE0 		add	r1, pc, r1
 1323 0d20 4500A0E3 		mov	r0, #69
 1324 0d24 FEFFFFEB 		bl	siFormattedMessage_SC(PLT)
 395:/home/hkh/git/eapidk-code-r76-trunk/apps/EeePProg/linux/../Str2Value.c ****               "%s\n",  szString
 396:/home/hkh/git/eapidk-code-r76-trunk/apps/EeePProg/linux/../Str2Value.c ****             );
 397:/home/hkh/git/eapidk-code-r76-trunk/apps/EeePProg/linux/../Str2Value.c ****           siFormattedMessage_SC('E', __FILE__, "ParseAsciiEqu_13", __LINE__, EAPI_STATUS_PARSE_ERRO
 1325              		.loc 1 397 11
 1326 0d28 24201BE5 		ldr	r2, [fp, #-36]
 1327 0d2c 2C301BE5 		ldr	r3, [fp, #-44]
 1328 0d30 033042E0 		sub	r3, r2, r3
 1329 0d34 2C219FE5 		ldr	r2, .L87+132
 1330              	.LPIC40:
 1331 0d38 02208FE0 		add	r2, pc, r2
 1332 0d3c 10208DE5 		str	r2, [sp, #16]
 1333 0d40 24219FE5 		ldr	r2, .L87+136
 1334              	.LPIC41:
 1335 0d44 02208FE0 		add	r2, pc, r2
 1336 0d48 0C208DE5 		str	r2, [sp, #12]
 1337 0d4c 08308DE5 		str	r3, [sp, #8]
ARM GAS  /tmp/ccG9b1tU.s 			page 32


 1338 0d50 18319FE5 		ldr	r3, .L87+140
 1339              	.LPIC42:
 1340 0d54 03308FE0 		add	r3, pc, r3
 1341 0d58 04308DE5 		str	r3, [sp, #4]
 1342 0d5c 0F3CE0E3 		mvn	r3, #3840
 1343 0d60 00308DE5 		str	r3, [sp]
 1344 0d64 8D3100E3 		movw	r3, #397
 1345 0d68 04219FE5 		ldr	r2, .L87+144
 1346              	.LPIC43:
 1347 0d6c 02208FE0 		add	r2, pc, r2
 1348 0d70 00119FE5 		ldr	r1, .L87+148
 1349              	.LPIC44:
 1350 0d74 01108FE0 		add	r1, pc, r1
 1351 0d78 4500A0E3 		mov	r0, #69
 1352 0d7c FEFFFFEB 		bl	siFormattedMessage_SC(PLT)
 398:/home/hkh/git/eapidk-code-r76-trunk/apps/EeePProg/linux/../Str2Value.c ****               "%*s%s\n", ((signed int)(pszEnd - szString)), "", "^ Here"
 399:/home/hkh/git/eapidk-code-r76-trunk/apps/EeePProg/linux/../Str2Value.c ****             );
 400:/home/hkh/git/eapidk-code-r76-trunk/apps/EeePProg/linux/../Str2Value.c ****           return EAPI_STATUS_PARSE_ERROR;
 1353              		.loc 1 400 18
 1354 0d80 0F3CE0E3 		mvn	r3, #3840
 1355 0d84 090000EA 		b	.L80
 1356              	.L82:
 366:/home/hkh/git/eapidk-code-r76-trunk/apps/EeePProg/linux/../Str2Value.c ****       case '~':
 1357              		.loc 1 366 9
 1358 0d88 00F020E3 		nop
 1359 0d8c 060000EA 		b	.L71
 1360              	.L83:
 374:/home/hkh/git/eapidk-code-r76-trunk/apps/EeePProg/linux/../Str2Value.c ****       case '-':
 1361              		.loc 1 374 9
 1362 0d90 00F020E3 		nop
 1363 0d94 040000EA 		b	.L71
 1364              	.L84:
 382:/home/hkh/git/eapidk-code-r76-trunk/apps/EeePProg/linux/../Str2Value.c ****       case '+':
 1365              		.loc 1 382 9
 1366 0d98 00F020E3 		nop
 1367 0d9c 020000EA 		b	.L71
 1368              	.L85:
 389:/home/hkh/git/eapidk-code-r76-trunk/apps/EeePProg/linux/../Str2Value.c ****       default:
 1369              		.loc 1 389 9
 1370 0da0 00F020E3 		nop
 1371 0da4 000000EA 		b	.L71
 1372              	.L86:
 401:/home/hkh/git/eapidk-code-r76-trunk/apps/EeePProg/linux/../Str2Value.c ****         }
 402:/home/hkh/git/eapidk-code-r76-trunk/apps/EeePProg/linux/../Str2Value.c ****         break;
 1373              		.loc 1 402 9
 1374 0da8 00F020E3 		nop
 1375              	.L71:
 403:/home/hkh/git/eapidk-code-r76-trunk/apps/EeePProg/linux/../Str2Value.c ****     }
 404:/home/hkh/git/eapidk-code-r76-trunk/apps/EeePProg/linux/../Str2Value.c **** EAPI_APP_ASSERT_EXIT
 405:/home/hkh/git/eapidk-code-r76-trunk/apps/EeePProg/linux/../Str2Value.c ****     return StatusCode;
 1376              		.loc 1 405 12
 1377 0dac 20301BE5 		ldr	r3, [fp, #-32]
 1378              	.L80:
 351:/home/hkh/git/eapidk-code-r76-trunk/apps/EeePProg/linux/../Str2Value.c ****     char *pszEnd;
 1379              		.loc 1 351 1 discriminator 1
 1380 0db0 C4109FE5 		ldr	r1, .L87+152
 1381              	.LPIC46:
ARM GAS  /tmp/ccG9b1tU.s 			page 33


 1382 0db4 01108FE0 		add	r1, pc, r1
 406:/home/hkh/git/eapidk-code-r76-trunk/apps/EeePProg/linux/../Str2Value.c **** }
 1383              		.loc 1 406 1 discriminator 1
 1384 0db8 28209FE5 		ldr	r2, .L87+4
 1385 0dbc 022091E7 		ldr	r2, [r1, r2]
 1386 0dc0 001092E5 		ldr	r1, [r2]
 1387 0dc4 10201BE5 		ldr	r2, [fp, #-16]
 1388 0dc8 011032E0 		eors	r1, r2, r1
 1389 0dcc 0020A0E3 		mov	r2, #0
 1390 0dd0 0000000A 		beq	.L81
 1391              		.loc 1 406 1 is_stmt 0
 1392 0dd4 FEFFFFEB 		bl	__stack_chk_fail(PLT)
 1393              	.L81:
 1394 0dd8 0300A0E1 		mov	r0, r3
 1395 0ddc 0CD04BE2 		sub	sp, fp, #12
 1396              		.cfi_def_cfa 13, 16
 1397              		@ sp needed
 1398 0de0 3088BDE8 		pop	{r4, r5, fp, pc}
 1399              	.L88:
 1400              		.align	2
 1401              	.L87:
 1402 0de4 60040000 		.word	_GLOBAL_OFFSET_TABLE_-(.LPIC45+8)
 1403 0de8 00000000 		.word	__stack_chk_guard(GOT)
 1404 0dec 48040000 		.word	.LC6-(.LPIC9+8)
 1405 0df0 38040000 		.word	.LC4-(.LPIC10+8)
 1406 0df4 28040000 		.word	.LC5-(.LPIC11+8)
 1407 0df8 C4030000 		.word	.LC2-(.LPIC12+8)
 1408 0dfc 2C040000 		.word	.LC7-(.LPIC13+8)
 1409 0e00 E8030000 		.word	.LC4-(.LPIC14+8)
 1410 0e04 D8030000 		.word	.LC5-(.LPIC15+8)
 1411 0e08 74030000 		.word	.LC2-(.LPIC16+8)
 1412 0e0c A0030000 		.word	.LC6-(.LPIC17+8)
 1413 0e10 90030000 		.word	.LC4-(.LPIC18+8)
 1414 0e14 80030000 		.word	.LC5-(.LPIC19+8)
 1415 0e18 1C030000 		.word	.LC2-(.LPIC20+8)
 1416 0e1c B4030000 		.word	.LC8-(.LPIC21+8)
 1417 0e20 40030000 		.word	.LC4-(.LPIC22+8)
 1418 0e24 30030000 		.word	.LC5-(.LPIC23+8)
 1419 0e28 CC020000 		.word	.LC2-(.LPIC24+8)
 1420 0e2c F8020000 		.word	.LC6-(.LPIC25+8)
 1421 0e30 E8020000 		.word	.LC4-(.LPIC26+8)
 1422 0e34 D8020000 		.word	.LC5-(.LPIC27+8)
 1423 0e38 74020000 		.word	.LC2-(.LPIC28+8)
 1424 0e3c 3C030000 		.word	.LC9-(.LPIC29+8)
 1425 0e40 98020000 		.word	.LC4-(.LPIC30+8)
 1426 0e44 88020000 		.word	.LC5-(.LPIC31+8)
 1427 0e48 24020000 		.word	.LC2-(.LPIC32+8)
 1428 0e4c 10030000 		.word	.LC10-(.LPIC33+8)
 1429 0e50 40020000 		.word	.LC4-(.LPIC34+8)
 1430 0e54 30020000 		.word	.LC5-(.LPIC35+8)
 1431 0e58 CC010000 		.word	.LC2-(.LPIC36+8)
 1432 0e5c C4010000 		.word	.LC4-(.LPIC37+8)
 1433 0e60 AC020000 		.word	.LC11-(.LPIC38+8)
 1434 0e64 50010000 		.word	.LC2-(.LPIC39+8)
 1435 0e68 A4020000 		.word	.LC12-(.LPIC40+8)
 1436 0e6c A4020000 		.word	.LC13-(.LPIC41+8)
 1437 0e70 9C020000 		.word	.LC14-(.LPIC42+8)
ARM GAS  /tmp/ccG9b1tU.s 			page 34


 1438 0e74 68020000 		.word	.LC11-(.LPIC43+8)
 1439 0e78 0C010000 		.word	.LC2-(.LPIC44+8)
 1440 0e7c C0000000 		.word	_GLOBAL_OFFSET_TABLE_-(.LPIC46+8)
 1441              		.cfi_endproc
 1442              	.LFE6:
 1444              		.section	.rodata
 1445 018f 00       		.align	2
 1446              	.LC15:
 1447 0190 70436F6E 		.ascii	"pContext->pParser(pContext->pContext, &szPos2, &szO"
 1447      74657874 
 1447      2D3E7050 
 1447      61727365 
 1447      72287043 
 1448 01c3 70742C20 		.ascii	"pt, &OperationType)\000"
 1448      264F7065 
 1448      72617469 
 1448      6F6E5479 
 1448      70652900 
 1449 01d7 00       		.align	2
 1450              	.LC16:
 1451 01d8 50617273 		.ascii	"ParserWrapper(pContext, szString, szOpt, psllValue)"
 1451      65725772 
 1451      61707065 
 1451      72287043 
 1451      6F6E7465 
 1452 020b 00       		.ascii	"\000"
 1453              		.align	2
 1454              	.LC17:
 1455 020c 50617273 		.ascii	"ParserWrapper(pContext, szPos1, szOpt, &CurValue)\000"
 1455      65725772 
 1455      61707065 
 1455      72287043 
 1455      6F6E7465 
 1456 023e 0000     		.align	2
 1457              	.LC18:
 1458 0240 446F4F70 		.ascii	"DoOperation(LOperationType, psllValue, CurValue)\000"
 1458      65726174 
 1458      696F6E28 
 1458      4C4F7065 
 1458      72617469 
 1459              		.text
 1460              		.align	2
 1461              		.global	ParseAsciiEqu_cmn
 1462              		.syntax unified
 1463              		.arm
 1464              		.fpu vfpv3
 1466              	ParseAsciiEqu_cmn:
 1467              	.LFB7:
 407:/home/hkh/git/eapidk-code-r76-trunk/apps/EeePProg/linux/../Str2Value.c **** 
 408:/home/hkh/git/eapidk-code-r76-trunk/apps/EeePProg/linux/../Str2Value.c **** 
 409:/home/hkh/git/eapidk-code-r76-trunk/apps/EeePProg/linux/../Str2Value.c **** 
 410:/home/hkh/git/eapidk-code-r76-trunk/apps/EeePProg/linux/../Str2Value.c **** 
 411:/home/hkh/git/eapidk-code-r76-trunk/apps/EeePProg/linux/../Str2Value.c **** EApiStatus_t
 412:/home/hkh/git/eapidk-code-r76-trunk/apps/EeePProg/linux/../Str2Value.c **** ParseAsciiEqu_cmn(
 413:/home/hkh/git/eapidk-code-r76-trunk/apps/EeePProg/linux/../Str2Value.c ****     __IN  BlockParser_t    *pContext,
 414:/home/hkh/git/eapidk-code-r76-trunk/apps/EeePProg/linux/../Str2Value.c ****     __IN  char             *szString,
 415:/home/hkh/git/eapidk-code-r76-trunk/apps/EeePProg/linux/../Str2Value.c ****     __OUT signed long long *psllValue
ARM GAS  /tmp/ccG9b1tU.s 			page 35


 416:/home/hkh/git/eapidk-code-r76-trunk/apps/EeePProg/linux/../Str2Value.c ****   )
 417:/home/hkh/git/eapidk-code-r76-trunk/apps/EeePProg/linux/../Str2Value.c **** {
 1468              		.loc 1 417 1 is_stmt 1
 1469              		.cfi_startproc
 1470              		@ args = 0, pretend = 0, frame = 64
 1471              		@ frame_needed = 1, uses_anonymous_args = 0
 1472 0e80 10482DE9 		push	{r4, fp, lr}
 1473              		.cfi_def_cfa_offset 12
 1474              		.cfi_offset 4, -12
 1475              		.cfi_offset 11, -8
 1476              		.cfi_offset 14, -4
 1477 0e84 08B08DE2 		add	fp, sp, #8
 1478              		.cfi_def_cfa 11, 4
 1479 0e88 54D04DE2 		sub	sp, sp, #84
 1480 0e8c 40000BE5 		str	r0, [fp, #-64]
 1481 0e90 44100BE5 		str	r1, [fp, #-68]
 1482 0e94 48200BE5 		str	r2, [fp, #-72]
 1483              		.loc 1 417 1
 1484 0e98 F8229FE5 		ldr	r2, .L100
 1485              	.LPIC67:
 1486 0e9c 02208FE0 		add	r2, pc, r2
 1487 0ea0 F4329FE5 		ldr	r3, .L100+4
 1488 0ea4 033092E7 		ldr	r3, [r2, r3]
 1489 0ea8 003093E5 		ldr	r3, [r3]
 1490 0eac 10300BE5 		str	r3, [fp, #-16]
 1491 0eb0 0030A0E3 		mov	r3, #0
 418:/home/hkh/git/eapidk-code-r76-trunk/apps/EeePProg/linux/../Str2Value.c ****   char *szOpt,*szPos3,*szPos1,*szPos2=szString;
 1492              		.loc 1 418 32
 1493 0eb4 44301BE5 		ldr	r3, [fp, #-68]
 1494 0eb8 34300BE5 		str	r3, [fp, #-52]
 419:/home/hkh/git/eapidk-code-r76-trunk/apps/EeePProg/linux/../Str2Value.c ****   signed OperationType=Op_NoOperation, LOperationType;
 1495              		.loc 1 419 10
 1496 0ebc 0030A0E3 		mov	r3, #0
 1497 0ec0 30300BE5 		str	r3, [fp, #-48]
 420:/home/hkh/git/eapidk-code-r76-trunk/apps/EeePProg/linux/../Str2Value.c ****   signed long long CurValue;
 421:/home/hkh/git/eapidk-code-r76-trunk/apps/EeePProg/linux/../Str2Value.c ****   EApiStatus_t StatusCode=EAPI_STATUS_SUCCESS;
 1498              		.loc 1 421 16
 1499 0ec4 0030A0E3 		mov	r3, #0
 1500 0ec8 2C300BE5 		str	r3, [fp, #-44]
 422:/home/hkh/git/eapidk-code-r76-trunk/apps/EeePProg/linux/../Str2Value.c **** 
 423:/home/hkh/git/eapidk-code-r76-trunk/apps/EeePProg/linux/../Str2Value.c ****   szOpt=NULL;
 1501              		.loc 1 423 8
 1502 0ecc 0030A0E3 		mov	r3, #0
 1503 0ed0 38300BE5 		str	r3, [fp, #-56]
 424:/home/hkh/git/eapidk-code-r76-trunk/apps/EeePProg/linux/../Str2Value.c **** 
 425:/home/hkh/git/eapidk-code-r76-trunk/apps/EeePProg/linux/../Str2Value.c ****   if(pContext->pParser){
 1504              		.loc 1 425 14
 1505 0ed4 40301BE5 		ldr	r3, [fp, #-64]
 1506 0ed8 083093E5 		ldr	r3, [r3, #8]
 1507              		.loc 1 425 5
 1508 0edc 000053E3 		cmp	r3, #0
 1509 0ee0 1B00000A 		beq	.L90
 426:/home/hkh/git/eapidk-code-r76-trunk/apps/EeePProg/linux/../Str2Value.c ****     DO(pContext->pParser(pContext->pContext, &szPos2, &szOpt, &OperationType));
 1510              		.loc 1 426 5
 1511 0ee4 40301BE5 		ldr	r3, [fp, #-64]
 1512 0ee8 084093E5 		ldr	r4, [r3, #8]
 1513 0eec 40301BE5 		ldr	r3, [fp, #-64]
ARM GAS  /tmp/ccG9b1tU.s 			page 36


 1514 0ef0 0C0093E5 		ldr	r0, [r3, #12]
 1515 0ef4 30304BE2 		sub	r3, fp, #48
 1516 0ef8 38204BE2 		sub	r2, fp, #56
 1517 0efc 34104BE2 		sub	r1, fp, #52
 1518 0f00 34FF2FE1 		blx	r4
 1519              	.LVL1:
 1520 0f04 2C000BE5 		str	r0, [fp, #-44]
 1521 0f08 2C301BE5 		ldr	r3, [fp, #-44]
 1522 0f0c 000053E3 		cmp	r3, #0
 1523 0f10 0F00000A 		beq	.L90
 1524              		.loc 1 426 5 is_stmt 0 discriminator 1
 1525 0f14 84329FE5 		ldr	r3, .L100+8
 1526              	.LPIC47:
 1527 0f18 03308FE0 		add	r3, pc, r3
 1528 0f1c 08308DE5 		str	r3, [sp, #8]
 1529 0f20 7C329FE5 		ldr	r3, .L100+12
 1530              	.LPIC48:
 1531 0f24 03308FE0 		add	r3, pc, r3
 1532 0f28 04308DE5 		str	r3, [sp, #4]
 1533 0f2c 2C301BE5 		ldr	r3, [fp, #-44]
 1534 0f30 00308DE5 		str	r3, [sp]
 1535 0f34 AA3100E3 		movw	r3, #426
 1536 0f38 68229FE5 		ldr	r2, .L100+16
 1537              	.LPIC49:
 1538 0f3c 02208FE0 		add	r2, pc, r2
 1539 0f40 64129FE5 		ldr	r1, .L100+20
 1540              	.LPIC50:
 1541 0f44 01108FE0 		add	r1, pc, r1
 1542 0f48 4500A0E3 		mov	r0, #69
 1543 0f4c FEFFFFEB 		bl	siFormattedMessage_SC(PLT)
 1544 0f50 820000EA 		b	.L91
 1545              	.L90:
 427:/home/hkh/git/eapidk-code-r76-trunk/apps/EeePProg/linux/../Str2Value.c ****   }
 428:/home/hkh/git/eapidk-code-r76-trunk/apps/EeePProg/linux/../Str2Value.c ****   if(szOpt!=NULL){
 1546              		.loc 1 428 11 is_stmt 1
 1547 0f54 38301BE5 		ldr	r3, [fp, #-56]
 1548              		.loc 1 428 5
 1549 0f58 000053E3 		cmp	r3, #0
 1550 0f5c 7700000A 		beq	.L92
 429:/home/hkh/git/eapidk-code-r76-trunk/apps/EeePProg/linux/../Str2Value.c **** #ifdef TEST_EQUPARSER
 430:/home/hkh/git/eapidk-code-r76-trunk/apps/EeePProg/linux/../Str2Value.c ****       siFormattedMessage_M2('D', __FILE__, pContext->szDesc, __LINE__, pContext->szMsg2,
 431:/home/hkh/git/eapidk-code-r76-trunk/apps/EeePProg/linux/../Str2Value.c ****               "%s\n", szString);
 432:/home/hkh/git/eapidk-code-r76-trunk/apps/EeePProg/linux/../Str2Value.c **** #endif
 433:/home/hkh/git/eapidk-code-r76-trunk/apps/EeePProg/linux/../Str2Value.c ****     DO(ParserWrapper(pContext, szString, szOpt, psllValue));
 1551              		.loc 1 433 5
 1552 0f60 38201BE5 		ldr	r2, [fp, #-56]
 1553 0f64 48301BE5 		ldr	r3, [fp, #-72]
 1554 0f68 44101BE5 		ldr	r1, [fp, #-68]
 1555 0f6c 40001BE5 		ldr	r0, [fp, #-64]
 1556 0f70 FEFFFFEB 		bl	ParserWrapper(PLT)
 1557 0f74 2C000BE5 		str	r0, [fp, #-44]
 1558 0f78 2C301BE5 		ldr	r3, [fp, #-44]
 1559 0f7c 000053E3 		cmp	r3, #0
 1560 0f80 0F00000A 		beq	.L93
 1561              		.loc 1 433 5 is_stmt 0 discriminator 1
 1562 0f84 24329FE5 		ldr	r3, .L100+24
 1563              	.LPIC51:
ARM GAS  /tmp/ccG9b1tU.s 			page 37


 1564 0f88 03308FE0 		add	r3, pc, r3
 1565 0f8c 08308DE5 		str	r3, [sp, #8]
 1566 0f90 1C329FE5 		ldr	r3, .L100+28
 1567              	.LPIC52:
 1568 0f94 03308FE0 		add	r3, pc, r3
 1569 0f98 04308DE5 		str	r3, [sp, #4]
 1570 0f9c 2C301BE5 		ldr	r3, [fp, #-44]
 1571 0fa0 00308DE5 		str	r3, [sp]
 1572 0fa4 B13100E3 		movw	r3, #433
 1573 0fa8 08229FE5 		ldr	r2, .L100+32
 1574              	.LPIC53:
 1575 0fac 02208FE0 		add	r2, pc, r2
 1576 0fb0 04129FE5 		ldr	r1, .L100+36
 1577              	.LPIC54:
 1578 0fb4 01108FE0 		add	r1, pc, r1
 1579 0fb8 4500A0E3 		mov	r0, #69
 1580 0fbc FEFFFFEB 		bl	siFormattedMessage_SC(PLT)
 1581 0fc0 660000EA 		b	.L91
 1582              	.L93:
 434:/home/hkh/git/eapidk-code-r76-trunk/apps/EeePProg/linux/../Str2Value.c **** 
 435:/home/hkh/git/eapidk-code-r76-trunk/apps/EeePProg/linux/../Str2Value.c ****     do{
 436:/home/hkh/git/eapidk-code-r76-trunk/apps/EeePProg/linux/../Str2Value.c ****       LOperationType=OperationType;
 1583              		.loc 1 436 21 is_stmt 1
 1584 0fc4 30301BE5 		ldr	r3, [fp, #-48]
 1585 0fc8 28300BE5 		str	r3, [fp, #-40]
 437:/home/hkh/git/eapidk-code-r76-trunk/apps/EeePProg/linux/../Str2Value.c ****       szPos1=skipWhiteSpaces(szPos2);
 1586              		.loc 1 437 14
 1587 0fcc 34301BE5 		ldr	r3, [fp, #-52]
 1588 0fd0 0300A0E1 		mov	r0, r3
 1589 0fd4 FEFFFFEB 		bl	skipWhiteSpaces(PLT)
 1590 0fd8 24000BE5 		str	r0, [fp, #-36]
 1591              	.L95:
 438:/home/hkh/git/eapidk-code-r76-trunk/apps/EeePProg/linux/../Str2Value.c ****       do{
 439:/home/hkh/git/eapidk-code-r76-trunk/apps/EeePProg/linux/../Str2Value.c ****         szPos3=skipWhiteSpaces(szPos2);
 1592              		.loc 1 439 16
 1593 0fdc 34301BE5 		ldr	r3, [fp, #-52]
 1594 0fe0 0300A0E1 		mov	r0, r3
 1595 0fe4 FEFFFFEB 		bl	skipWhiteSpaces(PLT)
 1596 0fe8 20000BE5 		str	r0, [fp, #-32]
 440:/home/hkh/git/eapidk-code-r76-trunk/apps/EeePProg/linux/../Str2Value.c ****         DO(pContext->pParser(pContext->pContext, &szPos2, &szOpt, &OperationType));
 1597              		.loc 1 440 9
 1598 0fec 40301BE5 		ldr	r3, [fp, #-64]
 1599 0ff0 084093E5 		ldr	r4, [r3, #8]
 1600 0ff4 40301BE5 		ldr	r3, [fp, #-64]
 1601 0ff8 0C0093E5 		ldr	r0, [r3, #12]
 1602 0ffc 30304BE2 		sub	r3, fp, #48
 1603 1000 38204BE2 		sub	r2, fp, #56
 1604 1004 34104BE2 		sub	r1, fp, #52
 1605 1008 34FF2FE1 		blx	r4
 1606              	.LVL2:
 1607 100c 2C000BE5 		str	r0, [fp, #-44]
 1608 1010 2C301BE5 		ldr	r3, [fp, #-44]
 1609 1014 000053E3 		cmp	r3, #0
 1610 1018 0F00000A 		beq	.L94
 1611              		.loc 1 440 9 is_stmt 0 discriminator 1
 1612 101c 9C319FE5 		ldr	r3, .L100+40
 1613              	.LPIC55:
ARM GAS  /tmp/ccG9b1tU.s 			page 38


 1614 1020 03308FE0 		add	r3, pc, r3
 1615 1024 08308DE5 		str	r3, [sp, #8]
 1616 1028 94319FE5 		ldr	r3, .L100+44
 1617              	.LPIC56:
 1618 102c 03308FE0 		add	r3, pc, r3
 1619 1030 04308DE5 		str	r3, [sp, #4]
 1620 1034 2C301BE5 		ldr	r3, [fp, #-44]
 1621 1038 00308DE5 		str	r3, [sp]
 1622 103c 6E3FA0E3 		mov	r3, #440
 1623 1040 80219FE5 		ldr	r2, .L100+48
 1624              	.LPIC57:
 1625 1044 02208FE0 		add	r2, pc, r2
 1626 1048 7C119FE5 		ldr	r1, .L100+52
 1627              	.LPIC58:
 1628 104c 01108FE0 		add	r1, pc, r1
 1629 1050 4500A0E3 		mov	r0, #69
 1630 1054 FEFFFFEB 		bl	siFormattedMessage_SC(PLT)
 1631 1058 400000EA 		b	.L91
 1632              	.L94:
 441:/home/hkh/git/eapidk-code-r76-trunk/apps/EeePProg/linux/../Str2Value.c ****       }while(szPos3==szOpt);
 1633              		.loc 1 441 20 is_stmt 1
 1634 105c 38301BE5 		ldr	r3, [fp, #-56]
 1635 1060 20201BE5 		ldr	r2, [fp, #-32]
 1636 1064 030052E1 		cmp	r2, r3
 1637 1068 DBFFFF0A 		beq	.L95
 442:/home/hkh/git/eapidk-code-r76-trunk/apps/EeePProg/linux/../Str2Value.c **** 
 443:/home/hkh/git/eapidk-code-r76-trunk/apps/EeePProg/linux/../Str2Value.c ****       DO(ParserWrapper(pContext, szPos1, szOpt, &CurValue));
 1638              		.loc 1 443 7
 1639 106c 38201BE5 		ldr	r2, [fp, #-56]
 1640 1070 1C304BE2 		sub	r3, fp, #28
 1641 1074 24101BE5 		ldr	r1, [fp, #-36]
 1642 1078 40001BE5 		ldr	r0, [fp, #-64]
 1643 107c FEFFFFEB 		bl	ParserWrapper(PLT)
 1644 1080 2C000BE5 		str	r0, [fp, #-44]
 1645 1084 2C301BE5 		ldr	r3, [fp, #-44]
 1646 1088 000053E3 		cmp	r3, #0
 1647 108c 0F00000A 		beq	.L96
 1648              		.loc 1 443 7 is_stmt 0 discriminator 1
 1649 1090 38319FE5 		ldr	r3, .L100+56
 1650              	.LPIC59:
 1651 1094 03308FE0 		add	r3, pc, r3
 1652 1098 08308DE5 		str	r3, [sp, #8]
 1653 109c 30319FE5 		ldr	r3, .L100+60
 1654              	.LPIC60:
 1655 10a0 03308FE0 		add	r3, pc, r3
 1656 10a4 04308DE5 		str	r3, [sp, #4]
 1657 10a8 2C301BE5 		ldr	r3, [fp, #-44]
 1658 10ac 00308DE5 		str	r3, [sp]
 1659 10b0 BB3100E3 		movw	r3, #443
 1660 10b4 1C219FE5 		ldr	r2, .L100+64
 1661              	.LPIC61:
 1662 10b8 02208FE0 		add	r2, pc, r2
 1663 10bc 18119FE5 		ldr	r1, .L100+68
 1664              	.LPIC62:
 1665 10c0 01108FE0 		add	r1, pc, r1
 1666 10c4 4500A0E3 		mov	r0, #69
 1667 10c8 FEFFFFEB 		bl	siFormattedMessage_SC(PLT)
ARM GAS  /tmp/ccG9b1tU.s 			page 39


 1668 10cc 230000EA 		b	.L91
 1669              	.L96:
 444:/home/hkh/git/eapidk-code-r76-trunk/apps/EeePProg/linux/../Str2Value.c **** 
 445:/home/hkh/git/eapidk-code-r76-trunk/apps/EeePProg/linux/../Str2Value.c ****       DO(DoOperation(LOperationType, psllValue, CurValue));
 1670              		.loc 1 445 7 is_stmt 1
 1671 10d0 28001BE5 		ldr	r0, [fp, #-40]
 1672 10d4 DC214BE1 		ldrd	r2, [fp, #-28]
 1673 10d8 48101BE5 		ldr	r1, [fp, #-72]
 1674 10dc FEFFFFEB 		bl	DoOperation(PLT)
 1675 10e0 2C000BE5 		str	r0, [fp, #-44]
 1676 10e4 2C301BE5 		ldr	r3, [fp, #-44]
 1677 10e8 000053E3 		cmp	r3, #0
 1678 10ec 0F00000A 		beq	.L97
 1679              		.loc 1 445 7 is_stmt 0 discriminator 1
 1680 10f0 E8309FE5 		ldr	r3, .L100+72
 1681              	.LPIC63:
 1682 10f4 03308FE0 		add	r3, pc, r3
 1683 10f8 08308DE5 		str	r3, [sp, #8]
 1684 10fc E0309FE5 		ldr	r3, .L100+76
 1685              	.LPIC64:
 1686 1100 03308FE0 		add	r3, pc, r3
 1687 1104 04308DE5 		str	r3, [sp, #4]
 1688 1108 2C301BE5 		ldr	r3, [fp, #-44]
 1689 110c 00308DE5 		str	r3, [sp]
 1690 1110 BD3100E3 		movw	r3, #445
 1691 1114 CC209FE5 		ldr	r2, .L100+80
 1692              	.LPIC65:
 1693 1118 02208FE0 		add	r2, pc, r2
 1694 111c C8109FE5 		ldr	r1, .L100+84
 1695              	.LPIC66:
 1696 1120 01108FE0 		add	r1, pc, r1
 1697 1124 4500A0E3 		mov	r0, #69
 1698 1128 FEFFFFEB 		bl	siFormattedMessage_SC(PLT)
 1699 112c 0B0000EA 		b	.L91
 1700              	.L97:
 446:/home/hkh/git/eapidk-code-r76-trunk/apps/EeePProg/linux/../Str2Value.c ****     }while(szOpt!=NULL);
 1701              		.loc 1 446 17 is_stmt 1
 1702 1130 38301BE5 		ldr	r3, [fp, #-56]
 1703 1134 000053E3 		cmp	r3, #0
 1704 1138 A1FFFF1A 		bne	.L93
 1705 113c 070000EA 		b	.L91
 1706              	.L92:
 447:/home/hkh/git/eapidk-code-r76-trunk/apps/EeePProg/linux/../Str2Value.c ****   }else{
 448:/home/hkh/git/eapidk-code-r76-trunk/apps/EeePProg/linux/../Str2Value.c ****     StatusCode=pContext->pHandler(pContext+1, szString, psllValue);
 1707              		.loc 1 448 24
 1708 1140 40301BE5 		ldr	r3, [fp, #-64]
 1709 1144 043093E5 		ldr	r3, [r3, #4]
 1710              		.loc 1 448 43
 1711 1148 40201BE5 		ldr	r2, [fp, #-64]
 1712 114c 140082E2 		add	r0, r2, #20
 1713              		.loc 1 448 16
 1714 1150 48201BE5 		ldr	r2, [fp, #-72]
 1715 1154 44101BE5 		ldr	r1, [fp, #-68]
 1716 1158 33FF2FE1 		blx	r3
 1717              	.LVL3:
 1718 115c 2C000BE5 		str	r0, [fp, #-44]
 1719              	.L91:
ARM GAS  /tmp/ccG9b1tU.s 			page 40


 449:/home/hkh/git/eapidk-code-r76-trunk/apps/EeePProg/linux/../Str2Value.c ****   }
 450:/home/hkh/git/eapidk-code-r76-trunk/apps/EeePProg/linux/../Str2Value.c **** EAPI_APP_ASSERT_EXIT
 451:/home/hkh/git/eapidk-code-r76-trunk/apps/EeePProg/linux/../Str2Value.c ****   return StatusCode;
 1720              		.loc 1 451 10
 1721 1160 2C301BE5 		ldr	r3, [fp, #-44]
 417:/home/hkh/git/eapidk-code-r76-trunk/apps/EeePProg/linux/../Str2Value.c ****   char *szOpt,*szPos3,*szPos1,*szPos2=szString;
 1722              		.loc 1 417 1
 1723 1164 84109FE5 		ldr	r1, .L100+88
 1724              	.LPIC68:
 1725 1168 01108FE0 		add	r1, pc, r1
 452:/home/hkh/git/eapidk-code-r76-trunk/apps/EeePProg/linux/../Str2Value.c **** }
 1726              		.loc 1 452 1
 1727 116c 28209FE5 		ldr	r2, .L100+4
 1728 1170 022091E7 		ldr	r2, [r1, r2]
 1729 1174 001092E5 		ldr	r1, [r2]
 1730 1178 10201BE5 		ldr	r2, [fp, #-16]
 1731 117c 011032E0 		eors	r1, r2, r1
 1732 1180 0020A0E3 		mov	r2, #0
 1733 1184 0000000A 		beq	.L99
 1734 1188 FEFFFFEB 		bl	__stack_chk_fail(PLT)
 1735              	.L99:
 1736 118c 0300A0E1 		mov	r0, r3
 1737 1190 08D04BE2 		sub	sp, fp, #8
 1738              		.cfi_def_cfa 13, 12
 1739              		@ sp needed
 1740 1194 1088BDE8 		pop	{r4, fp, pc}
 1741              	.L101:
 1742              		.align	2
 1743              	.L100:
 1744 1198 F4020000 		.word	_GLOBAL_OFFSET_TABLE_-(.LPIC67+8)
 1745 119c 00000000 		.word	__stack_chk_guard(GOT)
 1746 11a0 10040000 		.word	.LC15-(.LPIC47+8)
 1747 11a4 E4020000 		.word	.LC4-(.LPIC48+8)
 1748 11a8 D4020000 		.word	.LC5-(.LPIC49+8)
 1749 11ac 70020000 		.word	.LC2-(.LPIC50+8)
 1750 11b0 F8030000 		.word	.LC16-(.LPIC51+8)
 1751 11b4 84020000 		.word	.LC4-(.LPIC52+8)
 1752 11b8 74020000 		.word	.LC5-(.LPIC53+8)
 1753 11bc 10020000 		.word	.LC2-(.LPIC54+8)
 1754 11c0 28030000 		.word	.LC15-(.LPIC55+8)
 1755 11c4 FC010000 		.word	.LC4-(.LPIC56+8)
 1756 11c8 EC010000 		.word	.LC5-(.LPIC57+8)
 1757 11cc 88010000 		.word	.LC2-(.LPIC58+8)
 1758 11d0 40030000 		.word	.LC17-(.LPIC59+8)
 1759 11d4 98010000 		.word	.LC4-(.LPIC60+8)
 1760 11d8 88010000 		.word	.LC5-(.LPIC61+8)
 1761 11dc 24010000 		.word	.LC2-(.LPIC62+8)
 1762 11e0 24030000 		.word	.LC18-(.LPIC63+8)
 1763 11e4 48010000 		.word	.LC4-(.LPIC64+8)
 1764 11e8 38010000 		.word	.LC5-(.LPIC65+8)
 1765 11ec D4000000 		.word	.LC2-(.LPIC66+8)
 1766 11f0 80000000 		.word	_GLOBAL_OFFSET_TABLE_-(.LPIC68+8)
 1767              		.cfi_endproc
 1768              	.LFE7:
 1770              		.global	cMultDiv
 1771              		.section	.rodata
 1772 0271 000000   		.align	2
ARM GAS  /tmp/ccG9b1tU.s 			page 41


 1773              	.LC19:
 1774 0274 2A00     		.ascii	"*\000"
 1775 0276 0000     		.align	2
 1776              	.LC20:
 1777 0278 2500     		.ascii	"%\000"
 1778 027a 0000     		.align	2
 1779              	.LC21:
 1780 027c 2F00     		.ascii	"/\000"
 1781              		.section	.data.rel.ro.local,"aw"
 1782              		.align	2
 1785              	cMultDiv:
 1786 0000 74020000 		.word	.LC19
 1787 0004 0E000000 		.word	14
 1788 0008 78020000 		.word	.LC20
 1789 000c 0F000000 		.word	15
 1790 0010 7C020000 		.word	.LC21
 1791 0014 10000000 		.word	16
 1792              		.global	cMultDiv_desc
 1793              		.section	.data.rel.local,"aw"
 1794              		.align	2
 1797              	cMultDiv_desc:
 1798 0000 03000000 		.word	3
 1799 0004 00000000 		.word	cMultDiv
 1800              		.global	cAddSub
 1801              		.section	.rodata
 1802 027e 0000     		.align	2
 1803              	.LC22:
 1804 0280 2B00     		.ascii	"+\000"
 1805 0282 0000     		.align	2
 1806              	.LC23:
 1807 0284 2D00     		.ascii	"-\000"
 1808              		.section	.data.rel.ro.local
 1809              		.align	2
 1812              	cAddSub:
 1813 0018 80020000 		.word	.LC22
 1814 001c 11000000 		.word	17
 1815 0020 84020000 		.word	.LC23
 1816 0024 12000000 		.word	18
 1817              		.global	cAddSub_desc
 1818              		.section	.data.rel.local
 1819              		.align	2
 1822              	cAddSub_desc:
 1823 0008 02000000 		.word	2
 1824 000c 00000000 		.word	cAddSub
 1825              		.global	cBitShift
 1826              		.section	.rodata
 1827 0286 0000     		.align	2
 1828              	.LC24:
 1829 0288 3C3C00   		.ascii	"<<\000"
 1830 028b 00       		.align	2
 1831              	.LC25:
 1832 028c 3E3E00   		.ascii	">>\000"
 1833              		.section	.data.rel.ro.local
 1834              		.align	2
 1837              	cBitShift:
 1838 0028 88020000 		.word	.LC24
 1839 002c 14000000 		.word	20
ARM GAS  /tmp/ccG9b1tU.s 			page 42


 1840 0030 8C020000 		.word	.LC25
 1841 0034 15000000 		.word	21
 1842              		.global	cBitShift_desc
 1843              		.section	.data.rel.local
 1844              		.align	2
 1847              	cBitShift_desc:
 1848 0010 02000000 		.word	2
 1849 0014 00000000 		.word	cBitShift
 1850              		.section	.rodata
 1851 028f 00       		.align	2
 1852              	.LC26:
 1853 0290 3C3E00   		.ascii	"<>\000"
 1854              		.text
 1855              		.align	2
 1856              		.global	ParseAscii_8
 1857              		.syntax unified
 1858              		.arm
 1859              		.fpu vfpv3
 1861              	ParseAscii_8:
 1862              	.LFB8:
 453:/home/hkh/git/eapidk-code-r76-trunk/apps/EeePProg/linux/../Str2Value.c **** 
 454:/home/hkh/git/eapidk-code-r76-trunk/apps/EeePProg/linux/../Str2Value.c **** const StrDescElement_t cMultDiv[]={
 455:/home/hkh/git/eapidk-code-r76-trunk/apps/EeePProg/linux/../Str2Value.c ****   {"*",  Op_Multiply  },
 456:/home/hkh/git/eapidk-code-r76-trunk/apps/EeePProg/linux/../Str2Value.c ****   {"%",  Op_Modulus   },
 457:/home/hkh/git/eapidk-code-r76-trunk/apps/EeePProg/linux/../Str2Value.c ****   {"/",  Op_Divide    },
 458:/home/hkh/git/eapidk-code-r76-trunk/apps/EeePProg/linux/../Str2Value.c **** };
 459:/home/hkh/git/eapidk-code-r76-trunk/apps/EeePProg/linux/../Str2Value.c **** STR_DESC(cMultDiv_desc, cMultDiv);
 460:/home/hkh/git/eapidk-code-r76-trunk/apps/EeePProg/linux/../Str2Value.c **** 
 461:/home/hkh/git/eapidk-code-r76-trunk/apps/EeePProg/linux/../Str2Value.c **** const StrDescElement_t cAddSub []={
 462:/home/hkh/git/eapidk-code-r76-trunk/apps/EeePProg/linux/../Str2Value.c ****   {"+",  Op_Add       },
 463:/home/hkh/git/eapidk-code-r76-trunk/apps/EeePProg/linux/../Str2Value.c ****   {"-",  Op_Subtract  },
 464:/home/hkh/git/eapidk-code-r76-trunk/apps/EeePProg/linux/../Str2Value.c **** };
 465:/home/hkh/git/eapidk-code-r76-trunk/apps/EeePProg/linux/../Str2Value.c **** STR_DESC(cAddSub_desc, cAddSub);
 466:/home/hkh/git/eapidk-code-r76-trunk/apps/EeePProg/linux/../Str2Value.c **** 
 467:/home/hkh/git/eapidk-code-r76-trunk/apps/EeePProg/linux/../Str2Value.c **** const StrDescElement_t cBitShift[]={
 468:/home/hkh/git/eapidk-code-r76-trunk/apps/EeePProg/linux/../Str2Value.c ****   {"<<",  Op_LeftShift },
 469:/home/hkh/git/eapidk-code-r76-trunk/apps/EeePProg/linux/../Str2Value.c ****   {">>",  Op_RightShift},
 470:/home/hkh/git/eapidk-code-r76-trunk/apps/EeePProg/linux/../Str2Value.c **** };
 471:/home/hkh/git/eapidk-code-r76-trunk/apps/EeePProg/linux/../Str2Value.c **** STR_DESC(cBitShift_desc, cBitShift);
 472:/home/hkh/git/eapidk-code-r76-trunk/apps/EeePProg/linux/../Str2Value.c **** 
 473:/home/hkh/git/eapidk-code-r76-trunk/apps/EeePProg/linux/../Str2Value.c **** EApiStatus_t
 474:/home/hkh/git/eapidk-code-r76-trunk/apps/EeePProg/linux/../Str2Value.c **** ParseAscii_8(
 475:/home/hkh/git/eapidk-code-r76-trunk/apps/EeePProg/linux/../Str2Value.c ****     __IN  void       *pContext ,
 476:/home/hkh/git/eapidk-code-r76-trunk/apps/EeePProg/linux/../Str2Value.c ****     __IN  char      **pszString,
 477:/home/hkh/git/eapidk-code-r76-trunk/apps/EeePProg/linux/../Str2Value.c ****     __IN  char      **pszOpcode,
 478:/home/hkh/git/eapidk-code-r76-trunk/apps/EeePProg/linux/../Str2Value.c ****     __OUT signed int *psiOperationType
 479:/home/hkh/git/eapidk-code-r76-trunk/apps/EeePProg/linux/../Str2Value.c ****   )
 480:/home/hkh/git/eapidk-code-r76-trunk/apps/EeePProg/linux/../Str2Value.c **** {
 1863              		.loc 1 480 1
 1864              		.cfi_startproc
 1865              		@ args = 0, pretend = 0, frame = 32
 1866              		@ frame_needed = 1, uses_anonymous_args = 0
 1867 11f4 00482DE9 		push	{fp, lr}
 1868              		.cfi_def_cfa_offset 8
 1869              		.cfi_offset 11, -8
 1870              		.cfi_offset 14, -4
 1871 11f8 04B08DE2 		add	fp, sp, #4
ARM GAS  /tmp/ccG9b1tU.s 			page 43


 1872              		.cfi_def_cfa 11, 4
 1873 11fc 20D04DE2 		sub	sp, sp, #32
 1874 1200 18000BE5 		str	r0, [fp, #-24]
 1875 1204 1C100BE5 		str	r1, [fp, #-28]
 1876 1208 20200BE5 		str	r2, [fp, #-32]
 1877 120c 24300BE5 		str	r3, [fp, #-36]
 1878              		.loc 1 480 1
 1879 1210 C4219FE5 		ldr	r2, .L121
 1880              	.LPIC70:
 1881 1214 02208FE0 		add	r2, pc, r2
 1882 1218 C0319FE5 		ldr	r3, .L121+4
 1883 121c 033092E7 		ldr	r3, [r2, r3]
 1884 1220 003093E5 		ldr	r3, [r3]
 1885 1224 08300BE5 		str	r3, [fp, #-8]
 1886 1228 0030A0E3 		mov	r3, #0
 481:/home/hkh/git/eapidk-code-r76-trunk/apps/EeePProg/linux/../Str2Value.c ****   EApiStatus_t StatusCode=EAPI_STATUS_SUCCESS;
 1887              		.loc 1 481 16
 1888 122c 0030A0E3 		mov	r3, #0
 1889 1230 10300BE5 		str	r3, [fp, #-16]
 482:/home/hkh/git/eapidk-code-r76-trunk/apps/EeePProg/linux/../Str2Value.c ****   char *szGTLT=*pszString;
 1890              		.loc 1 482 9
 1891 1234 1C301BE5 		ldr	r3, [fp, #-28]
 1892 1238 003093E5 		ldr	r3, [r3]
 1893 123c 14300BE5 		str	r3, [fp, #-20]
 483:/home/hkh/git/eapidk-code-r76-trunk/apps/EeePProg/linux/../Str2Value.c ****   char GTLT[]      = "<>";
 1894              		.loc 1 483 8
 1895 1240 9C219FE5 		ldr	r2, .L121+8
 1896              	.LPIC69:
 1897 1244 02208FE0 		add	r2, pc, r2
 1898 1248 0C304BE2 		sub	r3, fp, #12
 1899 124c 002092E5 		ldr	r2, [r2]
 1900 1250 B020C3E1 		strh	r2, [r3]	@ movhi
 1901 1254 023083E2 		add	r3, r3, #2
 1902 1258 2228A0E1 		lsr	r2, r2, #16
 1903 125c 0020C3E5 		strb	r2, [r3]
 484:/home/hkh/git/eapidk-code-r76-trunk/apps/EeePProg/linux/../Str2Value.c ****   pContext=pContext;
 485:/home/hkh/git/eapidk-code-r76-trunk/apps/EeePProg/linux/../Str2Value.c ****   while((szGTLT=strpbrk(szGTLT, GTLT))!=NULL){
 1904              		.loc 1 485 8
 1905 1260 0D0000EA 		b	.L103
 1906              	.L107:
 486:/home/hkh/git/eapidk-code-r76-trunk/apps/EeePProg/linux/../Str2Value.c ****     if((szGTLT[1]=='<')||(szGTLT[1]=='>')){
 1907              		.loc 1 486 15
 1908 1264 14301BE5 		ldr	r3, [fp, #-20]
 1909 1268 013083E2 		add	r3, r3, #1
 1910 126c 0030D3E5 		ldrb	r3, [r3]	@ zero_extendqisi2
 1911              		.loc 1 486 7
 1912 1270 3C0053E3 		cmp	r3, #60
 1913 1274 0400000A 		beq	.L104
 1914              		.loc 1 486 33 discriminator 2
 1915 1278 14301BE5 		ldr	r3, [fp, #-20]
 1916 127c 013083E2 		add	r3, r3, #1
 1917 1280 0030D3E5 		ldrb	r3, [r3]	@ zero_extendqisi2
 1918              		.loc 1 486 24 discriminator 2
 1919 1284 3E0053E3 		cmp	r3, #62
 1920 1288 0C00001A 		bne	.L119
 1921              	.L104:
 487:/home/hkh/git/eapidk-code-r76-trunk/apps/EeePProg/linux/../Str2Value.c ****       szGTLT+=2;
ARM GAS  /tmp/ccG9b1tU.s 			page 44


 1922              		.loc 1 487 13 discriminator 3
 1923 128c 14301BE5 		ldr	r3, [fp, #-20]
 1924 1290 023083E2 		add	r3, r3, #2
 1925 1294 14300BE5 		str	r3, [fp, #-20]
 488:/home/hkh/git/eapidk-code-r76-trunk/apps/EeePProg/linux/../Str2Value.c ****       continue;
 1926              		.loc 1 488 7 discriminator 3
 1927 1298 00F020E3 		nop
 1928              	.L103:
 485:/home/hkh/git/eapidk-code-r76-trunk/apps/EeePProg/linux/../Str2Value.c ****     if((szGTLT[1]=='<')||(szGTLT[1]=='>')){
 1929              		.loc 1 485 17
 1930 129c 0C304BE2 		sub	r3, fp, #12
 1931 12a0 0310A0E1 		mov	r1, r3
 1932 12a4 14001BE5 		ldr	r0, [fp, #-20]
 1933 12a8 FEFFFFEB 		bl	strpbrk(PLT)
 1934 12ac 14000BE5 		str	r0, [fp, #-20]
 485:/home/hkh/git/eapidk-code-r76-trunk/apps/EeePProg/linux/../Str2Value.c ****     if((szGTLT[1]=='<')||(szGTLT[1]=='>')){
 1935              		.loc 1 485 39
 1936 12b0 14301BE5 		ldr	r3, [fp, #-20]
 1937 12b4 000053E3 		cmp	r3, #0
 1938 12b8 E9FFFF1A 		bne	.L107
 1939 12bc 000000EA 		b	.L106
 1940              	.L119:
 489:/home/hkh/git/eapidk-code-r76-trunk/apps/EeePProg/linux/../Str2Value.c ****     }
 490:/home/hkh/git/eapidk-code-r76-trunk/apps/EeePProg/linux/../Str2Value.c ****     break;
 1941              		.loc 1 490 5
 1942 12c0 00F020E3 		nop
 1943              	.L106:
 491:/home/hkh/git/eapidk-code-r76-trunk/apps/EeePProg/linux/../Str2Value.c ****   }
 492:/home/hkh/git/eapidk-code-r76-trunk/apps/EeePProg/linux/../Str2Value.c **** 
 493:/home/hkh/git/eapidk-code-r76-trunk/apps/EeePProg/linux/../Str2Value.c ****   *pszOpcode=szGTLT;
 1944              		.loc 1 493 13
 1945 12c4 20301BE5 		ldr	r3, [fp, #-32]
 1946 12c8 14201BE5 		ldr	r2, [fp, #-20]
 1947 12cc 002083E5 		str	r2, [r3]
 494:/home/hkh/git/eapidk-code-r76-trunk/apps/EeePProg/linux/../Str2Value.c ****   if(szGTLT==NULL){
 1948              		.loc 1 494 5
 1949 12d0 14301BE5 		ldr	r3, [fp, #-20]
 1950 12d4 000053E3 		cmp	r3, #0
 1951 12d8 0700001A 		bne	.L108
 495:/home/hkh/git/eapidk-code-r76-trunk/apps/EeePProg/linux/../Str2Value.c ****     *pszString=NULL;
 1952              		.loc 1 495 15
 1953 12dc 1C301BE5 		ldr	r3, [fp, #-28]
 1954 12e0 0020A0E3 		mov	r2, #0
 1955 12e4 002083E5 		str	r2, [r3]
 496:/home/hkh/git/eapidk-code-r76-trunk/apps/EeePProg/linux/../Str2Value.c ****     *psiOperationType=Op_NoOperation;
 1956              		.loc 1 496 22
 1957 12e8 24301BE5 		ldr	r3, [fp, #-36]
 1958 12ec 0020A0E3 		mov	r2, #0
 1959 12f0 002083E5 		str	r2, [r3]
 497:/home/hkh/git/eapidk-code-r76-trunk/apps/EeePProg/linux/../Str2Value.c ****     return StatusCode;
 1960              		.loc 1 497 12
 1961 12f4 10301BE5 		ldr	r3, [fp, #-16]
 1962 12f8 2A0000EA 		b	.L117
 1963              	.L108:
 498:/home/hkh/git/eapidk-code-r76-trunk/apps/EeePProg/linux/../Str2Value.c ****   }
 499:/home/hkh/git/eapidk-code-r76-trunk/apps/EeePProg/linux/../Str2Value.c ****   switch(*szGTLT++) {
 1964              		.loc 1 499 17
ARM GAS  /tmp/ccG9b1tU.s 			page 45


 1965 12fc 14301BE5 		ldr	r3, [fp, #-20]
 1966 1300 012083E2 		add	r2, r3, #1
 1967 1304 14200BE5 		str	r2, [fp, #-20]
 1968              		.loc 1 499 10
 1969 1308 0030D3E5 		ldrb	r3, [r3]	@ zero_extendqisi2
 1970              		.loc 1 499 3
 1971 130c 3C0053E3 		cmp	r3, #60
 1972 1310 0200000A 		beq	.L110
 1973 1314 3E0053E3 		cmp	r3, #62
 1974 1318 0F00000A 		beq	.L111
 1975 131c 1D0000EA 		b	.L112
 1976              	.L110:
 500:/home/hkh/git/eapidk-code-r76-trunk/apps/EeePProg/linux/../Str2Value.c ****     case '<':
 501:/home/hkh/git/eapidk-code-r76-trunk/apps/EeePProg/linux/../Str2Value.c ****       if(*szGTLT=='='){
 1977              		.loc 1 501 10
 1978 1320 14301BE5 		ldr	r3, [fp, #-20]
 1979 1324 0030D3E5 		ldrb	r3, [r3]	@ zero_extendqisi2
 1980              		.loc 1 501 9
 1981 1328 3D0053E3 		cmp	r3, #61
 1982 132c 0600001A 		bne	.L113
 502:/home/hkh/git/eapidk-code-r76-trunk/apps/EeePProg/linux/../Str2Value.c ****         *psiOperationType=Op_LogicalLessThanEqual;
 1983              		.loc 1 502 26
 1984 1330 24301BE5 		ldr	r3, [fp, #-36]
 1985 1334 0820A0E3 		mov	r2, #8
 1986 1338 002083E5 		str	r2, [r3]
 503:/home/hkh/git/eapidk-code-r76-trunk/apps/EeePProg/linux/../Str2Value.c ****         szGTLT++;
 1987              		.loc 1 503 15
 1988 133c 14301BE5 		ldr	r3, [fp, #-20]
 1989 1340 013083E2 		add	r3, r3, #1
 1990 1344 14300BE5 		str	r3, [fp, #-20]
 504:/home/hkh/git/eapidk-code-r76-trunk/apps/EeePProg/linux/../Str2Value.c ****       }else{
 505:/home/hkh/git/eapidk-code-r76-trunk/apps/EeePProg/linux/../Str2Value.c ****         *psiOperationType=Op_LogicalLessThan;
 506:/home/hkh/git/eapidk-code-r76-trunk/apps/EeePProg/linux/../Str2Value.c ****       }
 507:/home/hkh/git/eapidk-code-r76-trunk/apps/EeePProg/linux/../Str2Value.c ****       break;
 1991              		.loc 1 507 7
 1992 1348 120000EA 		b	.L112
 1993              	.L113:
 505:/home/hkh/git/eapidk-code-r76-trunk/apps/EeePProg/linux/../Str2Value.c ****       }
 1994              		.loc 1 505 26
 1995 134c 24301BE5 		ldr	r3, [fp, #-36]
 1996 1350 0720A0E3 		mov	r2, #7
 1997 1354 002083E5 		str	r2, [r3]
 1998              		.loc 1 507 7
 1999 1358 0E0000EA 		b	.L112
 2000              	.L111:
 508:/home/hkh/git/eapidk-code-r76-trunk/apps/EeePProg/linux/../Str2Value.c ****     case '>':
 509:/home/hkh/git/eapidk-code-r76-trunk/apps/EeePProg/linux/../Str2Value.c ****       if(*szGTLT=='='){
 2001              		.loc 1 509 10
 2002 135c 14301BE5 		ldr	r3, [fp, #-20]
 2003 1360 0030D3E5 		ldrb	r3, [r3]	@ zero_extendqisi2
 2004              		.loc 1 509 9
 2005 1364 3D0053E3 		cmp	r3, #61
 2006 1368 0600001A 		bne	.L115
 510:/home/hkh/git/eapidk-code-r76-trunk/apps/EeePProg/linux/../Str2Value.c ****         *psiOperationType=Op_LogicalGreaterThanEqual;
 2007              		.loc 1 510 26
 2008 136c 24301BE5 		ldr	r3, [fp, #-36]
 2009 1370 0620A0E3 		mov	r2, #6
ARM GAS  /tmp/ccG9b1tU.s 			page 46


 2010 1374 002083E5 		str	r2, [r3]
 511:/home/hkh/git/eapidk-code-r76-trunk/apps/EeePProg/linux/../Str2Value.c ****         szGTLT++;
 2011              		.loc 1 511 15
 2012 1378 14301BE5 		ldr	r3, [fp, #-20]
 2013 137c 013083E2 		add	r3, r3, #1
 2014 1380 14300BE5 		str	r3, [fp, #-20]
 512:/home/hkh/git/eapidk-code-r76-trunk/apps/EeePProg/linux/../Str2Value.c ****       }else{
 513:/home/hkh/git/eapidk-code-r76-trunk/apps/EeePProg/linux/../Str2Value.c ****         *psiOperationType=Op_LogicalGreaterThan;
 514:/home/hkh/git/eapidk-code-r76-trunk/apps/EeePProg/linux/../Str2Value.c ****       }
 515:/home/hkh/git/eapidk-code-r76-trunk/apps/EeePProg/linux/../Str2Value.c ****       break;
 2015              		.loc 1 515 7
 2016 1384 020000EA 		b	.L120
 2017              	.L115:
 513:/home/hkh/git/eapidk-code-r76-trunk/apps/EeePProg/linux/../Str2Value.c ****       }
 2018              		.loc 1 513 26
 2019 1388 24301BE5 		ldr	r3, [fp, #-36]
 2020 138c 0520A0E3 		mov	r2, #5
 2021 1390 002083E5 		str	r2, [r3]
 2022              	.L120:
 2023              		.loc 1 515 7
 2024 1394 00F020E3 		nop
 2025              	.L112:
 516:/home/hkh/git/eapidk-code-r76-trunk/apps/EeePProg/linux/../Str2Value.c ****   }
 517:/home/hkh/git/eapidk-code-r76-trunk/apps/EeePProg/linux/../Str2Value.c **** 
 518:/home/hkh/git/eapidk-code-r76-trunk/apps/EeePProg/linux/../Str2Value.c ****   *pszString=szGTLT;
 2026              		.loc 1 518 13
 2027 1398 1C301BE5 		ldr	r3, [fp, #-28]
 2028 139c 14201BE5 		ldr	r2, [fp, #-20]
 2029 13a0 002083E5 		str	r2, [r3]
 519:/home/hkh/git/eapidk-code-r76-trunk/apps/EeePProg/linux/../Str2Value.c ****   return StatusCode ;
 2030              		.loc 1 519 10
 2031 13a4 10301BE5 		ldr	r3, [fp, #-16]
 2032              	.L117:
 480:/home/hkh/git/eapidk-code-r76-trunk/apps/EeePProg/linux/../Str2Value.c ****   EApiStatus_t StatusCode=EAPI_STATUS_SUCCESS;
 2033              		.loc 1 480 1 discriminator 1
 2034 13a8 38109FE5 		ldr	r1, .L121+12
 2035              	.LPIC71:
 2036 13ac 01108FE0 		add	r1, pc, r1
 520:/home/hkh/git/eapidk-code-r76-trunk/apps/EeePProg/linux/../Str2Value.c **** }
 2037              		.loc 1 520 1 discriminator 1
 2038 13b0 28209FE5 		ldr	r2, .L121+4
 2039 13b4 022091E7 		ldr	r2, [r1, r2]
 2040 13b8 001092E5 		ldr	r1, [r2]
 2041 13bc 08201BE5 		ldr	r2, [fp, #-8]
 2042 13c0 011032E0 		eors	r1, r2, r1
 2043 13c4 0020A0E3 		mov	r2, #0
 2044 13c8 0000000A 		beq	.L118
 2045              		.loc 1 520 1 is_stmt 0
 2046 13cc FEFFFFEB 		bl	__stack_chk_fail(PLT)
 2047              	.L118:
 2048 13d0 0300A0E1 		mov	r0, r3
 2049 13d4 04D04BE2 		sub	sp, fp, #4
 2050              		.cfi_def_cfa 13, 8
 2051              		@ sp needed
 2052 13d8 0088BDE8 		pop	{fp, pc}
 2053              	.L122:
 2054              		.align	2
ARM GAS  /tmp/ccG9b1tU.s 			page 47


 2055              	.L121:
 2056 13dc C0010000 		.word	_GLOBAL_OFFSET_TABLE_-(.LPIC70+8)
 2057 13e0 00000000 		.word	__stack_chk_guard(GOT)
 2058 13e4 28040000 		.word	.LC26-(.LPIC69+8)
 2059 13e8 34000000 		.word	_GLOBAL_OFFSET_TABLE_-(.LPIC71+8)
 2060              		.cfi_endproc
 2061              	.LFE8:
 2063              		.global	cCompare
 2064              		.section	.rodata
 2065 0293 00       		.align	2
 2066              	.LC27:
 2067 0294 3D3D00   		.ascii	"==\000"
 2068 0297 00       		.align	2
 2069              	.LC28:
 2070 0298 213D00   		.ascii	"!=\000"
 2071              		.section	.data.rel.ro.local
 2072              		.align	2
 2075              	cCompare:
 2076 0038 94020000 		.word	.LC27
 2077 003c 01000000 		.word	1
 2078 0040 98020000 		.word	.LC28
 2079 0044 02000000 		.word	2
 2080              		.global	cCompare_desc
 2081              		.section	.data.rel.local
 2082              		.align	2
 2085              	cCompare_desc:
 2086 0018 02000000 		.word	2
 2087 001c 00000000 		.word	cCompare
 2088              		.global	cBitwiseAnd
 2089              		.section	.rodata
 2090 029b 00       		.align	2
 2091              	.LC29:
 2092 029c 2600     		.ascii	"&\000"
 2093              		.section	.data.rel.ro.local
 2094              		.align	2
 2097              	cBitwiseAnd:
 2098 0048 9C020000 		.word	.LC29
 2099 004c 0A000000 		.word	10
 2100              		.global	cBitwiseAnd_desc
 2101              		.section	.data.rel.local
 2102              		.align	2
 2105              	cBitwiseAnd_desc:
 2106 0020 01000000 		.word	1
 2107 0024 00000000 		.word	cBitwiseAnd
 2108              		.global	cBitwiseXor
 2109              		.section	.rodata
 2110 029e 0000     		.align	2
 2111              	.LC30:
 2112 02a0 5E00     		.ascii	"^\000"
 2113              		.section	.data.rel.ro.local
 2114              		.align	2
 2117              	cBitwiseXor:
 2118 0050 A0020000 		.word	.LC30
 2119 0054 0C000000 		.word	12
 2120              		.global	cBitwiseXor_desc
 2121              		.section	.data.rel.local
 2122              		.align	2
ARM GAS  /tmp/ccG9b1tU.s 			page 48


 2125              	cBitwiseXor_desc:
 2126 0028 01000000 		.word	1
 2127 002c 00000000 		.word	cBitwiseXor
 2128              		.global	cBitwiseOr
 2129              		.section	.rodata
 2130 02a2 0000     		.align	2
 2131              	.LC31:
 2132 02a4 7C00     		.ascii	"|\000"
 2133              		.section	.data.rel.ro.local
 2134              		.align	2
 2137              	cBitwiseOr:
 2138 0058 A4020000 		.word	.LC31
 2139 005c 0B000000 		.word	11
 2140              		.global	cBitwiseOr_desc
 2141              		.section	.data.rel.local
 2142              		.align	2
 2145              	cBitwiseOr_desc:
 2146 0030 01000000 		.word	1
 2147 0034 00000000 		.word	cBitwiseOr
 2148              		.global	cLogicalAnd
 2149              		.section	.rodata
 2150 02a6 0000     		.align	2
 2151              	.LC32:
 2152 02a8 262600   		.ascii	"&&\000"
 2153              		.section	.data.rel.ro.local
 2154              		.align	2
 2157              	cLogicalAnd:
 2158 0060 A8020000 		.word	.LC32
 2159 0064 04000000 		.word	4
 2160              		.global	cLogicalAnd_desc
 2161              		.section	.data.rel.local
 2162              		.align	2
 2165              	cLogicalAnd_desc:
 2166 0038 01000000 		.word	1
 2167 003c 00000000 		.word	cLogicalAnd
 2168              		.global	cLogicalOr
 2169              		.section	.rodata
 2170 02ab 00       		.align	2
 2171              	.LC33:
 2172 02ac 7C7C00   		.ascii	"||\000"
 2173              		.section	.data.rel.ro.local
 2174              		.align	2
 2177              	cLogicalOr:
 2178 0068 AC020000 		.word	.LC33
 2179 006c 03000000 		.word	3
 2180              		.global	cLogicalOr_desc
 2181              		.section	.data.rel.local
 2182              		.align	2
 2185              	cLogicalOr_desc:
 2186 0040 01000000 		.word	1
 2187 0044 00000000 		.word	cLogicalOr
 2188              		.section	.rodata
 2189 02af 00       		.align	2
 2190              	.LC34:
 2191 02b0 50617273 		.ascii	"ParserWrapper(pContext, szString, szCondition , &Co"
 2191      65725772 
 2191      61707065 
ARM GAS  /tmp/ccG9b1tU.s 			page 49


 2191      72287043 
 2191      6F6E7465 
 2192 02e3 6E646974 		.ascii	"ndition)\000"
 2192      696F6E29 
 2192      00
 2193              		.align	2
 2194              	.LC35:
 2195 02ec 50617273 		.ascii	"ParseAsciiEqu_2\000"
 2195      65417363 
 2195      69694571 
 2195      755F3200 
 2196              		.align	2
 2197              	.LC36:
 2198 02fc 4D697373 		.ascii	"Missing Right ':'\000"
 2198      696E6720 
 2198      52696768 
 2198      7420273A 
 2198      2700
 2199 030e 0000     		.align	2
 2200              	.LC37:
 2201 0310 50617273 		.ascii	"ParserWrapper(pContext, szCondition+1 , szSelBracke"
 2201      65725772 
 2201      61707065 
 2201      72287043 
 2201      6F6E7465 
 2202 0343 742C2070 		.ascii	"t, psllValue)\000"
 2202      736C6C56 
 2202      616C7565 
 2202      2900
 2203 0351 000000   		.align	2
 2204              	.LC38:
 2205 0354 50617273 		.ascii	"ParserWrapper(pContext - 1, szSelBracket+1, NULL, p"
 2205      65725772 
 2205      61707065 
 2205      72287043 
 2205      6F6E7465 
 2206 0387 736C6C56 		.ascii	"sllValue)\000"
 2206      616C7565 
 2206      2900
 2207              		.text
 2208              		.align	2
 2209              		.global	ParseAsciiEqu_2
 2210              		.syntax unified
 2211              		.arm
 2212              		.fpu vfpv3
 2214              	ParseAsciiEqu_2:
 2215              	.LFB9:
 521:/home/hkh/git/eapidk-code-r76-trunk/apps/EeePProg/linux/../Str2Value.c **** 
 522:/home/hkh/git/eapidk-code-r76-trunk/apps/EeePProg/linux/../Str2Value.c **** const StrDescElement_t cCompare[]={
 523:/home/hkh/git/eapidk-code-r76-trunk/apps/EeePProg/linux/../Str2Value.c ****   {"==",  Op_LogicalEqual   },
 524:/home/hkh/git/eapidk-code-r76-trunk/apps/EeePProg/linux/../Str2Value.c ****   {"!=",  Op_LogicalNotEqual},
 525:/home/hkh/git/eapidk-code-r76-trunk/apps/EeePProg/linux/../Str2Value.c **** };
 526:/home/hkh/git/eapidk-code-r76-trunk/apps/EeePProg/linux/../Str2Value.c **** STR_DESC(cCompare_desc, cCompare);
 527:/home/hkh/git/eapidk-code-r76-trunk/apps/EeePProg/linux/../Str2Value.c **** 
 528:/home/hkh/git/eapidk-code-r76-trunk/apps/EeePProg/linux/../Str2Value.c **** const StrDescElement_t cBitwiseAnd[]={
 529:/home/hkh/git/eapidk-code-r76-trunk/apps/EeePProg/linux/../Str2Value.c ****   {"&",  Op_BitwiseAnd   },
 530:/home/hkh/git/eapidk-code-r76-trunk/apps/EeePProg/linux/../Str2Value.c **** };
ARM GAS  /tmp/ccG9b1tU.s 			page 50


 531:/home/hkh/git/eapidk-code-r76-trunk/apps/EeePProg/linux/../Str2Value.c **** STR_DESC(cBitwiseAnd_desc, cBitwiseAnd);
 532:/home/hkh/git/eapidk-code-r76-trunk/apps/EeePProg/linux/../Str2Value.c **** 
 533:/home/hkh/git/eapidk-code-r76-trunk/apps/EeePProg/linux/../Str2Value.c **** const StrDescElement_t cBitwiseXor[]={
 534:/home/hkh/git/eapidk-code-r76-trunk/apps/EeePProg/linux/../Str2Value.c ****   {"^",  Op_BitwiseXor   },
 535:/home/hkh/git/eapidk-code-r76-trunk/apps/EeePProg/linux/../Str2Value.c **** };
 536:/home/hkh/git/eapidk-code-r76-trunk/apps/EeePProg/linux/../Str2Value.c **** STR_DESC(cBitwiseXor_desc, cBitwiseXor);
 537:/home/hkh/git/eapidk-code-r76-trunk/apps/EeePProg/linux/../Str2Value.c **** 
 538:/home/hkh/git/eapidk-code-r76-trunk/apps/EeePProg/linux/../Str2Value.c **** const StrDescElement_t cBitwiseOr[]={
 539:/home/hkh/git/eapidk-code-r76-trunk/apps/EeePProg/linux/../Str2Value.c ****   {"|",  Op_BitwiseOr   },
 540:/home/hkh/git/eapidk-code-r76-trunk/apps/EeePProg/linux/../Str2Value.c **** };
 541:/home/hkh/git/eapidk-code-r76-trunk/apps/EeePProg/linux/../Str2Value.c **** STR_DESC(cBitwiseOr_desc, cBitwiseOr);
 542:/home/hkh/git/eapidk-code-r76-trunk/apps/EeePProg/linux/../Str2Value.c **** 
 543:/home/hkh/git/eapidk-code-r76-trunk/apps/EeePProg/linux/../Str2Value.c **** const StrDescElement_t cLogicalAnd[]={
 544:/home/hkh/git/eapidk-code-r76-trunk/apps/EeePProg/linux/../Str2Value.c ****   {"&&",  Op_LogicalAnd   },
 545:/home/hkh/git/eapidk-code-r76-trunk/apps/EeePProg/linux/../Str2Value.c **** };
 546:/home/hkh/git/eapidk-code-r76-trunk/apps/EeePProg/linux/../Str2Value.c **** STR_DESC(cLogicalAnd_desc, cLogicalAnd);
 547:/home/hkh/git/eapidk-code-r76-trunk/apps/EeePProg/linux/../Str2Value.c **** 
 548:/home/hkh/git/eapidk-code-r76-trunk/apps/EeePProg/linux/../Str2Value.c **** const StrDescElement_t cLogicalOr[]={
 549:/home/hkh/git/eapidk-code-r76-trunk/apps/EeePProg/linux/../Str2Value.c ****   {"||",  Op_LogicalOr    },
 550:/home/hkh/git/eapidk-code-r76-trunk/apps/EeePProg/linux/../Str2Value.c **** };
 551:/home/hkh/git/eapidk-code-r76-trunk/apps/EeePProg/linux/../Str2Value.c **** STR_DESC(cLogicalOr_desc, cLogicalOr);
 552:/home/hkh/git/eapidk-code-r76-trunk/apps/EeePProg/linux/../Str2Value.c **** /*
 553:/home/hkh/git/eapidk-code-r76-trunk/apps/EeePProg/linux/../Str2Value.c ****  * cond?vara:varb
 554:/home/hkh/git/eapidk-code-r76-trunk/apps/EeePProg/linux/../Str2Value.c ****  */
 555:/home/hkh/git/eapidk-code-r76-trunk/apps/EeePProg/linux/../Str2Value.c **** EApiStatus_t
 556:/home/hkh/git/eapidk-code-r76-trunk/apps/EeePProg/linux/../Str2Value.c **** ParseAsciiEqu_2(
 557:/home/hkh/git/eapidk-code-r76-trunk/apps/EeePProg/linux/../Str2Value.c ****     __IN  BlockParser_t    *pContext,
 558:/home/hkh/git/eapidk-code-r76-trunk/apps/EeePProg/linux/../Str2Value.c ****     __IN  char             *szString,
 559:/home/hkh/git/eapidk-code-r76-trunk/apps/EeePProg/linux/../Str2Value.c ****     __OUT signed long long *psllValue
 560:/home/hkh/git/eapidk-code-r76-trunk/apps/EeePProg/linux/../Str2Value.c ****   )
 561:/home/hkh/git/eapidk-code-r76-trunk/apps/EeePProg/linux/../Str2Value.c **** {
 2216              		.loc 1 561 1 is_stmt 1
 2217              		.cfi_startproc
 2218              		@ args = 0, pretend = 0, frame = 48
 2219              		@ frame_needed = 1, uses_anonymous_args = 0
 2220 13ec 00482DE9 		push	{fp, lr}
 2221              		.cfi_def_cfa_offset 8
 2222              		.cfi_offset 11, -8
 2223              		.cfi_offset 14, -4
 2224 13f0 04B08DE2 		add	fp, sp, #4
 2225              		.cfi_def_cfa 11, 4
 2226 13f4 40D04DE2 		sub	sp, sp, #64
 2227 13f8 28000BE5 		str	r0, [fp, #-40]
 2228 13fc 2C100BE5 		str	r1, [fp, #-44]
 2229 1400 30200BE5 		str	r2, [fp, #-48]
 2230              		.loc 1 561 1
 2231 1404 44229FE5 		ldr	r2, .L131
 2232              	.LPIC88:
 2233 1408 02208FE0 		add	r2, pc, r2
 2234 140c 40329FE5 		ldr	r3, .L131+4
 2235 1410 033092E7 		ldr	r3, [r2, r3]
 2236 1414 003093E5 		ldr	r3, [r3]
 2237 1418 08300BE5 		str	r3, [fp, #-8]
 2238 141c 0030A0E3 		mov	r3, #0
 562:/home/hkh/git/eapidk-code-r76-trunk/apps/EeePProg/linux/../Str2Value.c ****   char *szCondition;
 563:/home/hkh/git/eapidk-code-r76-trunk/apps/EeePProg/linux/../Str2Value.c ****   char *szSelBracket;
 564:/home/hkh/git/eapidk-code-r76-trunk/apps/EeePProg/linux/../Str2Value.c ****   signed long long Condition=0;
ARM GAS  /tmp/ccG9b1tU.s 			page 51


 2239              		.loc 1 564 20
 2240 1420 0020A0E3 		mov	r2, #0
 2241 1424 0030A0E3 		mov	r3, #0
 2242 1428 F4214BE1 		strd	r2, [fp, #-20]
 565:/home/hkh/git/eapidk-code-r76-trunk/apps/EeePProg/linux/../Str2Value.c ****   EApiStatus_t StatusCode=EAPI_STATUS_SUCCESS;
 2243              		.loc 1 565 16
 2244 142c 0030A0E3 		mov	r3, #0
 2245 1430 20300BE5 		str	r3, [fp, #-32]
 566:/home/hkh/git/eapidk-code-r76-trunk/apps/EeePProg/linux/../Str2Value.c ****   szCondition=strchr(szString, '?');
 2246              		.loc 1 566 15
 2247 1434 3F10A0E3 		mov	r1, #63
 2248 1438 2C001BE5 		ldr	r0, [fp, #-44]
 2249 143c FEFFFFEB 		bl	strchr(PLT)
 2250 1440 1C000BE5 		str	r0, [fp, #-28]
 567:/home/hkh/git/eapidk-code-r76-trunk/apps/EeePProg/linux/../Str2Value.c ****   if(szCondition!=NULL){
 2251              		.loc 1 567 5
 2252 1444 1C301BE5 		ldr	r3, [fp, #-28]
 2253 1448 000053E3 		cmp	r3, #0
 2254 144c 6900000A 		beq	.L124
 568:/home/hkh/git/eapidk-code-r76-trunk/apps/EeePProg/linux/../Str2Value.c **** #ifdef TEST_EQUPARSER
 569:/home/hkh/git/eapidk-code-r76-trunk/apps/EeePProg/linux/../Str2Value.c ****     siFormattedMessage_M2('D', __FILE__, pContext->szDesc, __LINE__, pContext->szMsg2,
 570:/home/hkh/git/eapidk-code-r76-trunk/apps/EeePProg/linux/../Str2Value.c ****               "%s\n", szString);
 571:/home/hkh/git/eapidk-code-r76-trunk/apps/EeePProg/linux/../Str2Value.c **** #endif
 572:/home/hkh/git/eapidk-code-r76-trunk/apps/EeePProg/linux/../Str2Value.c ****     DO(ParserWrapper(pContext, szString, szCondition , &Condition));
 2255              		.loc 1 572 5
 2256 1450 14304BE2 		sub	r3, fp, #20
 2257 1454 1C201BE5 		ldr	r2, [fp, #-28]
 2258 1458 2C101BE5 		ldr	r1, [fp, #-44]
 2259 145c 28001BE5 		ldr	r0, [fp, #-40]
 2260 1460 FEFFFFEB 		bl	ParserWrapper(PLT)
 2261 1464 20000BE5 		str	r0, [fp, #-32]
 2262 1468 20301BE5 		ldr	r3, [fp, #-32]
 2263 146c 000053E3 		cmp	r3, #0
 2264 1470 0F00000A 		beq	.L125
 2265              		.loc 1 572 5 is_stmt 0 discriminator 1
 2266 1474 DC319FE5 		ldr	r3, .L131+8
 2267              	.LPIC72:
 2268 1478 03308FE0 		add	r3, pc, r3
 2269 147c 08308DE5 		str	r3, [sp, #8]
 2270 1480 D4319FE5 		ldr	r3, .L131+12
 2271              	.LPIC73:
 2272 1484 03308FE0 		add	r3, pc, r3
 2273 1488 04308DE5 		str	r3, [sp, #4]
 2274 148c 20301BE5 		ldr	r3, [fp, #-32]
 2275 1490 00308DE5 		str	r3, [sp]
 2276 1494 8F3FA0E3 		mov	r3, #572
 2277 1498 C0219FE5 		ldr	r2, .L131+16
 2278              	.LPIC74:
 2279 149c 02208FE0 		add	r2, pc, r2
 2280 14a0 BC119FE5 		ldr	r1, .L131+20
 2281              	.LPIC75:
 2282 14a4 01108FE0 		add	r1, pc, r1
 2283 14a8 4500A0E3 		mov	r0, #69
 2284 14ac FEFFFFEB 		bl	siFormattedMessage_SC(PLT)
 2285 14b0 580000EA 		b	.L126
 2286              	.L125:
 573:/home/hkh/git/eapidk-code-r76-trunk/apps/EeePProg/linux/../Str2Value.c ****     szSelBracket=strchr(szCondition, ':');
ARM GAS  /tmp/ccG9b1tU.s 			page 52


 2287              		.loc 1 573 18 is_stmt 1
 2288 14b4 3A10A0E3 		mov	r1, #58
 2289 14b8 1C001BE5 		ldr	r0, [fp, #-28]
 2290 14bc FEFFFFEB 		bl	strchr(PLT)
 2291 14c0 18000BE5 		str	r0, [fp, #-24]
 574:/home/hkh/git/eapidk-code-r76-trunk/apps/EeePProg/linux/../Str2Value.c ****     if(szSelBracket==NULL) {
 2292              		.loc 1 574 7
 2293 14c4 18301BE5 		ldr	r3, [fp, #-24]
 2294 14c8 000053E3 		cmp	r3, #0
 2295 14cc 1100001A 		bne	.L127
 575:/home/hkh/git/eapidk-code-r76-trunk/apps/EeePProg/linux/../Str2Value.c ****       EAPI_APP_RETURN_ERROR( ParseAsciiEqu_2, EAPI_STATUS_PARSE_ERROR, "Missing Right ':'");
 2296              		.loc 1 575 7
 2297 14d0 90319FE5 		ldr	r3, .L131+24
 2298              	.LPIC76:
 2299 14d4 03308FE0 		add	r3, pc, r3
 2300 14d8 08308DE5 		str	r3, [sp, #8]
 2301 14dc 88319FE5 		ldr	r3, .L131+28
 2302              	.LPIC77:
 2303 14e0 03308FE0 		add	r3, pc, r3
 2304 14e4 04308DE5 		str	r3, [sp, #4]
 2305 14e8 0F3CE0E3 		mvn	r3, #3840
 2306 14ec 00308DE5 		str	r3, [sp]
 2307 14f0 3F3200E3 		movw	r3, #575
 2308 14f4 74219FE5 		ldr	r2, .L131+32
 2309              	.LPIC78:
 2310 14f8 02208FE0 		add	r2, pc, r2
 2311 14fc 70119FE5 		ldr	r1, .L131+36
 2312              	.LPIC79:
 2313 1500 01108FE0 		add	r1, pc, r1
 2314 1504 4500A0E3 		mov	r0, #69
 2315 1508 FEFFFFEB 		bl	siFormattedMessage_SC(PLT)
 2316 150c 0F3CE0E3 		mvn	r3, #3840
 2317 1510 20300BE5 		str	r3, [fp, #-32]
 2318 1514 3F0000EA 		b	.L126
 2319              	.L127:
 576:/home/hkh/git/eapidk-code-r76-trunk/apps/EeePProg/linux/../Str2Value.c ****     }
 577:/home/hkh/git/eapidk-code-r76-trunk/apps/EeePProg/linux/../Str2Value.c **** 
 578:/home/hkh/git/eapidk-code-r76-trunk/apps/EeePProg/linux/../Str2Value.c **** /*     siFormattedMessage_M2('D', __FILE__, pContext->szDesc, __LINE__, pContext->szMsg2, */
 579:/home/hkh/git/eapidk-code-r76-trunk/apps/EeePProg/linux/../Str2Value.c **** /*             "%s\n", szCondition+1); */
 580:/home/hkh/git/eapidk-code-r76-trunk/apps/EeePProg/linux/../Str2Value.c **** /*     siFormattedMessage_M2('D', __FILE__, pContext->szDesc, __LINE__, pContext->szMsg2, */
 581:/home/hkh/git/eapidk-code-r76-trunk/apps/EeePProg/linux/../Str2Value.c **** /*             "%s\n", szSelBracket+1); */
 582:/home/hkh/git/eapidk-code-r76-trunk/apps/EeePProg/linux/../Str2Value.c ****     if(Condition){
 2320              		.loc 1 582 8
 2321 1518 D4214BE1 		ldrd	r2, [fp, #-20]
 2322              		.loc 1 582 7
 2323 151c 033092E1 		orrs	r3, r2, r3
 2324 1520 1900000A 		beq	.L128
 583:/home/hkh/git/eapidk-code-r76-trunk/apps/EeePProg/linux/../Str2Value.c ****       DO(ParserWrapper(pContext, szCondition+1 , szSelBracket, psllValue));
 2325              		.loc 1 583 7
 2326 1524 1C301BE5 		ldr	r3, [fp, #-28]
 2327 1528 011083E2 		add	r1, r3, #1
 2328 152c 30301BE5 		ldr	r3, [fp, #-48]
 2329 1530 18201BE5 		ldr	r2, [fp, #-24]
 2330 1534 28001BE5 		ldr	r0, [fp, #-40]
 2331 1538 FEFFFFEB 		bl	ParserWrapper(PLT)
 2332 153c 20000BE5 		str	r0, [fp, #-32]
 2333 1540 20301BE5 		ldr	r3, [fp, #-32]
ARM GAS  /tmp/ccG9b1tU.s 			page 53


 2334 1544 000053E3 		cmp	r3, #0
 2335 1548 3200000A 		beq	.L126
 2336              		.loc 1 583 7 is_stmt 0 discriminator 1
 2337 154c 24319FE5 		ldr	r3, .L131+40
 2338              	.LPIC80:
 2339 1550 03308FE0 		add	r3, pc, r3
 2340 1554 08308DE5 		str	r3, [sp, #8]
 2341 1558 1C319FE5 		ldr	r3, .L131+44
 2342              	.LPIC81:
 2343 155c 03308FE0 		add	r3, pc, r3
 2344 1560 04308DE5 		str	r3, [sp, #4]
 2345 1564 20301BE5 		ldr	r3, [fp, #-32]
 2346 1568 00308DE5 		str	r3, [sp]
 2347 156c 473200E3 		movw	r3, #583
 2348 1570 08219FE5 		ldr	r2, .L131+48
 2349              	.LPIC82:
 2350 1574 02208FE0 		add	r2, pc, r2
 2351 1578 04119FE5 		ldr	r1, .L131+52
 2352              	.LPIC83:
 2353 157c 01108FE0 		add	r1, pc, r1
 2354 1580 4500A0E3 		mov	r0, #69
 2355 1584 FEFFFFEB 		bl	siFormattedMessage_SC(PLT)
 2356 1588 220000EA 		b	.L126
 2357              	.L128:
 584:/home/hkh/git/eapidk-code-r76-trunk/apps/EeePProg/linux/../Str2Value.c ****     }else{
 585:/home/hkh/git/eapidk-code-r76-trunk/apps/EeePProg/linux/../Str2Value.c ****       DO(ParserWrapper(pContext - 1, szSelBracket+1, NULL, psllValue));
 2358              		.loc 1 585 7 is_stmt 1
 2359 158c 28301BE5 		ldr	r3, [fp, #-40]
 2360 1590 140043E2 		sub	r0, r3, #20
 2361 1594 18301BE5 		ldr	r3, [fp, #-24]
 2362 1598 011083E2 		add	r1, r3, #1
 2363 159c 30301BE5 		ldr	r3, [fp, #-48]
 2364 15a0 0020A0E3 		mov	r2, #0
 2365 15a4 FEFFFFEB 		bl	ParserWrapper(PLT)
 2366 15a8 20000BE5 		str	r0, [fp, #-32]
 2367 15ac 20301BE5 		ldr	r3, [fp, #-32]
 2368 15b0 000053E3 		cmp	r3, #0
 2369 15b4 1700000A 		beq	.L126
 2370              		.loc 1 585 7 is_stmt 0 discriminator 1
 2371 15b8 C8309FE5 		ldr	r3, .L131+56
 2372              	.LPIC84:
 2373 15bc 03308FE0 		add	r3, pc, r3
 2374 15c0 08308DE5 		str	r3, [sp, #8]
 2375 15c4 C0309FE5 		ldr	r3, .L131+60
 2376              	.LPIC85:
 2377 15c8 03308FE0 		add	r3, pc, r3
 2378 15cc 04308DE5 		str	r3, [sp, #4]
 2379 15d0 20301BE5 		ldr	r3, [fp, #-32]
 2380 15d4 00308DE5 		str	r3, [sp]
 2381 15d8 493200E3 		movw	r3, #585
 2382 15dc AC209FE5 		ldr	r2, .L131+64
 2383              	.LPIC86:
 2384 15e0 02208FE0 		add	r2, pc, r2
 2385 15e4 A8109FE5 		ldr	r1, .L131+68
 2386              	.LPIC87:
 2387 15e8 01108FE0 		add	r1, pc, r1
 2388 15ec 4500A0E3 		mov	r0, #69
ARM GAS  /tmp/ccG9b1tU.s 			page 54


 2389 15f0 FEFFFFEB 		bl	siFormattedMessage_SC(PLT)
 2390 15f4 070000EA 		b	.L126
 2391              	.L124:
 586:/home/hkh/git/eapidk-code-r76-trunk/apps/EeePProg/linux/../Str2Value.c ****     }
 587:/home/hkh/git/eapidk-code-r76-trunk/apps/EeePProg/linux/../Str2Value.c ****   } else{
 588:/home/hkh/git/eapidk-code-r76-trunk/apps/EeePProg/linux/../Str2Value.c ****     StatusCode=pContext->pHandler(pContext+1, szString, psllValue);
 2392              		.loc 1 588 24 is_stmt 1
 2393 15f8 28301BE5 		ldr	r3, [fp, #-40]
 2394 15fc 043093E5 		ldr	r3, [r3, #4]
 2395              		.loc 1 588 43
 2396 1600 28201BE5 		ldr	r2, [fp, #-40]
 2397 1604 140082E2 		add	r0, r2, #20
 2398              		.loc 1 588 16
 2399 1608 30201BE5 		ldr	r2, [fp, #-48]
 2400 160c 2C101BE5 		ldr	r1, [fp, #-44]
 2401 1610 33FF2FE1 		blx	r3
 2402              	.LVL4:
 2403 1614 20000BE5 		str	r0, [fp, #-32]
 2404              	.L126:
 589:/home/hkh/git/eapidk-code-r76-trunk/apps/EeePProg/linux/../Str2Value.c ****   }
 590:/home/hkh/git/eapidk-code-r76-trunk/apps/EeePProg/linux/../Str2Value.c **** EAPI_APP_ASSERT_EXIT
 591:/home/hkh/git/eapidk-code-r76-trunk/apps/EeePProg/linux/../Str2Value.c ****   return StatusCode;
 2405              		.loc 1 591 10
 2406 1618 20301BE5 		ldr	r3, [fp, #-32]
 561:/home/hkh/git/eapidk-code-r76-trunk/apps/EeePProg/linux/../Str2Value.c ****   char *szCondition;
 2407              		.loc 1 561 1
 2408 161c 74109FE5 		ldr	r1, .L131+72
 2409              	.LPIC89:
 2410 1620 01108FE0 		add	r1, pc, r1
 592:/home/hkh/git/eapidk-code-r76-trunk/apps/EeePProg/linux/../Str2Value.c **** }
 2411              		.loc 1 592 1
 2412 1624 28209FE5 		ldr	r2, .L131+4
 2413 1628 022091E7 		ldr	r2, [r1, r2]
 2414 162c 001092E5 		ldr	r1, [r2]
 2415 1630 08201BE5 		ldr	r2, [fp, #-8]
 2416 1634 011032E0 		eors	r1, r2, r1
 2417 1638 0020A0E3 		mov	r2, #0
 2418 163c 0000000A 		beq	.L130
 2419 1640 FEFFFFEB 		bl	__stack_chk_fail(PLT)
 2420              	.L130:
 2421 1644 0300A0E1 		mov	r0, r3
 2422 1648 04D04BE2 		sub	sp, fp, #4
 2423              		.cfi_def_cfa 13, 8
 2424              		@ sp needed
 2425 164c 0088BDE8 		pop	{fp, pc}
 2426              	.L132:
 2427              		.align	2
 2428              	.L131:
 2429 1650 40020000 		.word	_GLOBAL_OFFSET_TABLE_-(.LPIC88+8)
 2430 1654 00000000 		.word	__stack_chk_guard(GOT)
 2431 1658 88040000 		.word	.LC34-(.LPIC72+8)
 2432 165c 3C020000 		.word	.LC4-(.LPIC73+8)
 2433 1660 2C020000 		.word	.LC5-(.LPIC74+8)
 2434 1664 C8010000 		.word	.LC2-(.LPIC75+8)
 2435 1668 88040000 		.word	.LC36-(.LPIC76+8)
 2436 166c F0010000 		.word	.LC4-(.LPIC77+8)
 2437 1670 5C040000 		.word	.LC35-(.LPIC78+8)
ARM GAS  /tmp/ccG9b1tU.s 			page 55


 2438 1674 7C010000 		.word	.LC2-(.LPIC79+8)
 2439 1678 30040000 		.word	.LC37-(.LPIC80+8)
 2440 167c 84010000 		.word	.LC4-(.LPIC81+8)
 2441 1680 74010000 		.word	.LC5-(.LPIC82+8)
 2442 1684 10010000 		.word	.LC2-(.LPIC83+8)
 2443 1688 18040000 		.word	.LC38-(.LPIC84+8)
 2444 168c 28010000 		.word	.LC4-(.LPIC85+8)
 2445 1690 18010000 		.word	.LC5-(.LPIC86+8)
 2446 1694 B4000000 		.word	.LC2-(.LPIC87+8)
 2447 1698 70000000 		.word	_GLOBAL_OFFSET_TABLE_-(.LPIC89+8)
 2448              		.cfi_endproc
 2449              	.LFE9:
 2451              		.global	cAS
 2452              		.section	.rodata
 2453 0391 000000   		.align	2
 2454              	.LC39:
 2455 0394 50617273 		.ascii	"ParseAsciiEqu_1\000"
 2455      65417363 
 2455      69694571 
 2455      755F3100 
 2456              		.align	2
 2457              	.LC40:
 2458 03a4 282900   		.ascii	"()\000"
 2459 03a7 00       		.align	2
 2460              	.LC41:
 2461 03a8 636F6E64 		.ascii	"cond?Vara:Varb\000"
 2461      3F566172 
 2461      613A5661 
 2461      726200
 2462 03b7 00       		.align	2
 2463              	.LC42:
 2464 03b8 50617273 		.ascii	"ParseAsciiEqu_3\000"
 2464      65417363 
 2464      69694571 
 2464      755F3300 
 2465              		.align	2
 2466              	.LC43:
 2467 03c8 50617273 		.ascii	"ParseAsciiEqu_4\000"
 2467      65417363 
 2467      69694571 
 2467      755F3400 
 2468              		.align	2
 2469              	.LC44:
 2470 03d8 50617273 		.ascii	"ParseAsciiEqu_5\000"
 2470      65417363 
 2470      69694571 
 2470      755F3500 
 2471              		.align	2
 2472              	.LC45:
 2473 03e8 50617273 		.ascii	"ParseAsciiEqu_6\000"
 2473      65417363 
 2473      69694571 
 2473      755F3600 
 2474              		.align	2
 2475              	.LC46:
 2476 03f8 50617273 		.ascii	"ParseAsciiEqu_7\000"
 2476      65417363 
ARM GAS  /tmp/ccG9b1tU.s 			page 56


 2476      69694571 
 2476      755F3700 
 2477              		.align	2
 2478              	.LC47:
 2479 0408 50617273 		.ascii	"ParseAsciiEqu_8\000"
 2479      65417363 
 2479      69694571 
 2479      755F3800 
 2480              		.align	2
 2481              	.LC48:
 2482 0418 3D3D2C21 		.ascii	"==,!=\000"
 2482      3D00
 2483 041e 0000     		.align	2
 2484              	.LC49:
 2485 0420 50617273 		.ascii	"ParseAsciiEqu_9\000"
 2485      65417363 
 2485      69694571 
 2485      755F3900 
 2486              		.align	2
 2487              	.LC50:
 2488 0430 3E2C3E3D 		.ascii	">,>=,<,<=\000"
 2488      2C3C2C3C 
 2488      3D00
 2489 043a 0000     		.align	2
 2490              	.LC51:
 2491 043c 50617273 		.ascii	"ParseAsciiEqu_10\000"
 2491      65417363 
 2491      69694571 
 2491      755F3130 
 2491      00
 2492 044d 000000   		.align	2
 2493              	.LC52:
 2494 0450 3C3C2C3E 		.ascii	"<<,>>\000"
 2494      3E00
 2495 0456 0000     		.align	2
 2496              	.LC53:
 2497 0458 50617273 		.ascii	"ParseAsciiEqu_11\000"
 2497      65417363 
 2497      69694571 
 2497      755F3131 
 2497      00
 2498 0469 000000   		.align	2
 2499              	.LC54:
 2500 046c 2B2C2D00 		.ascii	"+,-\000"
 2501              		.align	2
 2502              	.LC55:
 2503 0470 50617273 		.ascii	"ParseAsciiEqu_12\000"
 2503      65417363 
 2503      69694571 
 2503      755F3132 
 2503      00
 2504 0481 000000   		.align	2
 2505              	.LC56:
 2506 0484 2A2C2F2C 		.ascii	"*,/,%\000"
 2506      2500
 2507              		.section	.data.rel.local
 2508              		.align	2
ARM GAS  /tmp/ccG9b1tU.s 			page 57


 2511              	cAS:
 2512 0048 94030000 		.word	.LC39
 2513 004c 00000000 		.word	ParseAsciiEqu_2
 2514 0050 00000000 		.word	0
 2515 0054 00000000 		.word	0
 2516 0058 A4030000 		.word	.LC40
 2517 005c EC020000 		.word	.LC35
 2518 0060 00000000 		.word	ParseAsciiEqu_cmn
 2519 0064 00000000 		.word	0
 2520 0068 00000000 		.word	0
 2521 006c A8030000 		.word	.LC41
 2522 0070 B8030000 		.word	.LC42
 2523 0074 00000000 		.word	ParseAsciiEqu_cmn
 2524 0078 00000000 		.word	ParseOpcodeTokensAscii
 2525 007c 00000000 		.word	cLogicalOr_desc
 2526 0080 AC020000 		.word	.LC33
 2527 0084 C8030000 		.word	.LC43
 2528 0088 00000000 		.word	ParseAsciiEqu_cmn
 2529 008c 00000000 		.word	ParseOpcodeTokensAscii
 2530 0090 00000000 		.word	cLogicalAnd_desc
 2531 0094 A8020000 		.word	.LC32
 2532 0098 D8030000 		.word	.LC44
 2533 009c 00000000 		.word	ParseAsciiEqu_cmn
 2534 00a0 00000000 		.word	ParseOpcodeTokensAscii
 2535 00a4 00000000 		.word	cBitwiseOr_desc
 2536 00a8 A4020000 		.word	.LC31
 2537 00ac E8030000 		.word	.LC45
 2538 00b0 00000000 		.word	ParseAsciiEqu_cmn
 2539 00b4 00000000 		.word	ParseOpcodeTokensAscii
 2540 00b8 00000000 		.word	cBitwiseXor_desc
 2541 00bc A0020000 		.word	.LC30
 2542 00c0 F8030000 		.word	.LC46
 2543 00c4 00000000 		.word	ParseAsciiEqu_cmn
 2544 00c8 00000000 		.word	ParseOpcodeTokensAscii
 2545 00cc 00000000 		.word	cBitwiseAnd_desc
 2546 00d0 9C020000 		.word	.LC29
 2547 00d4 08040000 		.word	.LC47
 2548 00d8 00000000 		.word	ParseAsciiEqu_cmn
 2549 00dc 00000000 		.word	ParseOpcodeTokensAscii
 2550 00e0 00000000 		.word	cCompare_desc
 2551 00e4 18040000 		.word	.LC48
 2552 00e8 20040000 		.word	.LC49
 2553 00ec 00000000 		.word	ParseAsciiEqu_cmn
 2554 00f0 00000000 		.word	ParseAscii_8
 2555 00f4 00000000 		.word	0
 2556 00f8 30040000 		.word	.LC50
 2557 00fc 3C040000 		.word	.LC51
 2558 0100 00000000 		.word	ParseAsciiEqu_cmn
 2559 0104 00000000 		.word	ParseOpcodeTokensAscii
 2560 0108 00000000 		.word	cBitShift_desc
 2561 010c 50040000 		.word	.LC52
 2562 0110 58040000 		.word	.LC53
 2563 0114 00000000 		.word	ParseAsciiEqu_cmn
 2564 0118 00000000 		.word	ParseOpcodeTokensAscii
 2565 011c 00000000 		.word	cAddSub_desc
 2566 0120 6C040000 		.word	.LC54
 2567 0124 70040000 		.word	.LC55
ARM GAS  /tmp/ccG9b1tU.s 			page 58


 2568 0128 00000000 		.word	ParseAsciiEqu_13
 2569 012c 00000000 		.word	ParseOpcodeTokensAscii
 2570 0130 00000000 		.word	cMultDiv_desc
 2571 0134 84040000 		.word	.LC56
 2572              		.section	.rodata
 2573 048a 0000     		.align	2
 2574              	.LC57:
 2575 048c 50617273 		.ascii	"ParseAsciiEqu_cmn(cAS, szStartBracket+1, &CurValue)"
 2575      65417363 
 2575      69694571 
 2575      755F636D 
 2575      6E286341 
 2576 04bf 00       		.ascii	"\000"
 2577              		.align	2
 2578              	.LC58:
 2579 04c0 256C6C64 		.ascii	"%lld\000"
 2579      00
 2580 04c5 000000   		.align	2
 2581              	.LC59:
 2582 04c8 5265706C 		.ascii	"ReplaceSubStr(pStrDesc, szStartBracket - pStrDesc->"
 2582      61636553 
 2582      75625374 
 2582      72287053 
 2582      74724465 
 2583 04fb 737A5374 		.ascii	"szStr, szEndBracket+1 - pStrDesc->szStr, szValue)\000"
 2583      722C2073 
 2583      7A456E64 
 2583      42726163 
 2583      6B65742B 
 2584 052d 000000   		.align	2
 2585              	.LC60:
 2586 0530 4D697373 		.ascii	"Missing Right ')'\000"
 2586      696E6720 
 2586      52696768 
 2586      74202729 
 2586      2700
 2587              		.text
 2588              		.align	2
 2589              		.global	ParseAsciiEqu_1
 2590              		.syntax unified
 2591              		.arm
 2592              		.fpu vfpv3
 2594              	ParseAsciiEqu_1:
 2595              	.LFB10:
 593:/home/hkh/git/eapidk-code-r76-trunk/apps/EeePProg/linux/../Str2Value.c **** 
 594:/home/hkh/git/eapidk-code-r76-trunk/apps/EeePProg/linux/../Str2Value.c **** BlockParser_t cAS[]={
 595:/home/hkh/git/eapidk-code-r76-trunk/apps/EeePProg/linux/../Str2Value.c **** {"ParseAsciiEqu_1" , ParseAsciiEqu_2  , NULL                  , NULL            , "()"        },
 596:/home/hkh/git/eapidk-code-r76-trunk/apps/EeePProg/linux/../Str2Value.c **** {"ParseAsciiEqu_2" , ParseAsciiEqu_cmn, NULL                  , NULL            , "cond?Vara:Varb"}
 597:/home/hkh/git/eapidk-code-r76-trunk/apps/EeePProg/linux/../Str2Value.c **** {"ParseAsciiEqu_3" , ParseAsciiEqu_cmn, ParseOpcodeTokensAscii, cLogicalOr_desc , "||"        },
 598:/home/hkh/git/eapidk-code-r76-trunk/apps/EeePProg/linux/../Str2Value.c **** {"ParseAsciiEqu_4" , ParseAsciiEqu_cmn, ParseOpcodeTokensAscii, cLogicalAnd_desc, "&&"        },
 599:/home/hkh/git/eapidk-code-r76-trunk/apps/EeePProg/linux/../Str2Value.c **** {"ParseAsciiEqu_5" , ParseAsciiEqu_cmn, ParseOpcodeTokensAscii, cBitwiseOr_desc , "|"         },
 600:/home/hkh/git/eapidk-code-r76-trunk/apps/EeePProg/linux/../Str2Value.c **** {"ParseAsciiEqu_6" , ParseAsciiEqu_cmn, ParseOpcodeTokensAscii, cBitwiseXor_desc, "^"         },
 601:/home/hkh/git/eapidk-code-r76-trunk/apps/EeePProg/linux/../Str2Value.c **** {"ParseAsciiEqu_7" , ParseAsciiEqu_cmn, ParseOpcodeTokensAscii, cBitwiseAnd_desc, "&"         },
 602:/home/hkh/git/eapidk-code-r76-trunk/apps/EeePProg/linux/../Str2Value.c **** {"ParseAsciiEqu_8" , ParseAsciiEqu_cmn, ParseOpcodeTokensAscii, cCompare_desc   , "==,!="     },
 603:/home/hkh/git/eapidk-code-r76-trunk/apps/EeePProg/linux/../Str2Value.c **** {"ParseAsciiEqu_9" , ParseAsciiEqu_cmn, ParseAscii_8          , NULL            , ">,>=,<,<=" },
 604:/home/hkh/git/eapidk-code-r76-trunk/apps/EeePProg/linux/../Str2Value.c **** {"ParseAsciiEqu_10", ParseAsciiEqu_cmn, ParseOpcodeTokensAscii, cBitShift_desc  , "<<,>>"     },
 605:/home/hkh/git/eapidk-code-r76-trunk/apps/EeePProg/linux/../Str2Value.c **** {"ParseAsciiEqu_11", ParseAsciiEqu_cmn, ParseOpcodeTokensAscii, cAddSub_desc    , "+,-"       },
ARM GAS  /tmp/ccG9b1tU.s 			page 59


 606:/home/hkh/git/eapidk-code-r76-trunk/apps/EeePProg/linux/../Str2Value.c **** {"ParseAsciiEqu_12", ParseAsciiEqu_13 , ParseOpcodeTokensAscii, cMultDiv_desc   , "*,/,%"     },
 607:/home/hkh/git/eapidk-code-r76-trunk/apps/EeePProg/linux/../Str2Value.c **** };
 608:/home/hkh/git/eapidk-code-r76-trunk/apps/EeePProg/linux/../Str2Value.c **** /*
 609:/home/hkh/git/eapidk-code-r76-trunk/apps/EeePProg/linux/../Str2Value.c ****  * ()
 610:/home/hkh/git/eapidk-code-r76-trunk/apps/EeePProg/linux/../Str2Value.c ****  */
 611:/home/hkh/git/eapidk-code-r76-trunk/apps/EeePProg/linux/../Str2Value.c **** EApiStatus_t
 612:/home/hkh/git/eapidk-code-r76-trunk/apps/EeePProg/linux/../Str2Value.c **** ParseAsciiEqu_1(
 613:/home/hkh/git/eapidk-code-r76-trunk/apps/EeePProg/linux/../Str2Value.c ****     __INOUT DStrDesc_t *pStrDesc   ,
 614:/home/hkh/git/eapidk-code-r76-trunk/apps/EeePProg/linux/../Str2Value.c ****     __OUT signed long long *psllValue
 615:/home/hkh/git/eapidk-code-r76-trunk/apps/EeePProg/linux/../Str2Value.c ****   )
 616:/home/hkh/git/eapidk-code-r76-trunk/apps/EeePProg/linux/../Str2Value.c **** {
 2596              		.loc 1 616 1
 2597              		.cfi_startproc
 2598              		@ args = 0, pretend = 0, frame = 56
 2599              		@ frame_needed = 1, uses_anonymous_args = 0
 2600 169c 00482DE9 		push	{fp, lr}
 2601              		.cfi_def_cfa_offset 8
 2602              		.cfi_offset 11, -8
 2603              		.cfi_offset 14, -4
 2604 16a0 04B08DE2 		add	fp, sp, #4
 2605              		.cfi_def_cfa 11, 4
 2606 16a4 48D04DE2 		sub	sp, sp, #72
 2607 16a8 38000BE5 		str	r0, [fp, #-56]
 2608 16ac 3C100BE5 		str	r1, [fp, #-60]
 2609              		.loc 1 616 1
 2610 16b0 5C229FE5 		ldr	r2, .L142
 2611              	.LPIC105:
 2612 16b4 02208FE0 		add	r2, pc, r2
 2613 16b8 58329FE5 		ldr	r3, .L142+4
 2614 16bc 033092E7 		ldr	r3, [r2, r3]
 2615 16c0 003093E5 		ldr	r3, [r3]
 2616 16c4 08300BE5 		str	r3, [fp, #-8]
 2617 16c8 0030A0E3 		mov	r3, #0
 617:/home/hkh/git/eapidk-code-r76-trunk/apps/EeePProg/linux/../Str2Value.c ****   char *szStartBracket;
 618:/home/hkh/git/eapidk-code-r76-trunk/apps/EeePProg/linux/../Str2Value.c ****   char *szEndBracket;
 619:/home/hkh/git/eapidk-code-r76-trunk/apps/EeePProg/linux/../Str2Value.c ****   size_t stSubLen;
 620:/home/hkh/git/eapidk-code-r76-trunk/apps/EeePProg/linux/../Str2Value.c ****   signed long long CurValue;
 621:/home/hkh/git/eapidk-code-r76-trunk/apps/EeePProg/linux/../Str2Value.c ****   char szValue[sizeof(unsigned long long)*2];
 622:/home/hkh/git/eapidk-code-r76-trunk/apps/EeePProg/linux/../Str2Value.c ****   EApiStatus_t StatusCode=EAPI_STATUS_SUCCESS;
 2618              		.loc 1 622 16
 2619 16cc 0030A0E3 		mov	r3, #0
 2620 16d0 34300BE5 		str	r3, [fp, #-52]
 623:/home/hkh/git/eapidk-code-r76-trunk/apps/EeePProg/linux/../Str2Value.c ****   *psllValue=0;
 2621              		.loc 1 623 13
 2622 16d4 3C101BE5 		ldr	r1, [fp, #-60]
 2623 16d8 0020A0E3 		mov	r2, #0
 2624 16dc 0030A0E3 		mov	r3, #0
 2625 16e0 F020C1E1 		strd	r2, [r1]
 624:/home/hkh/git/eapidk-code-r76-trunk/apps/EeePProg/linux/../Str2Value.c ****   while((szStartBracket=strrchr(pStrDesc->szStr, '('))!=NULL){
 2626              		.loc 1 624 8
 2627 16e4 650000EA 		b	.L134
 2628              	.L138:
 625:/home/hkh/git/eapidk-code-r76-trunk/apps/EeePProg/linux/../Str2Value.c **** #ifdef TEST_EQUPARSER
 626:/home/hkh/git/eapidk-code-r76-trunk/apps/EeePProg/linux/../Str2Value.c ****   siFormattedMessage_M2('D', __FILE__, "ParseAsciiEqu_1", __LINE__, "()",
 627:/home/hkh/git/eapidk-code-r76-trunk/apps/EeePProg/linux/../Str2Value.c ****               "%s\n", szString );
 628:/home/hkh/git/eapidk-code-r76-trunk/apps/EeePProg/linux/../Str2Value.c **** #endif
 629:/home/hkh/git/eapidk-code-r76-trunk/apps/EeePProg/linux/../Str2Value.c ****     szEndBracket=strchr(szStartBracket, ')');
ARM GAS  /tmp/ccG9b1tU.s 			page 60


 2629              		.loc 1 629 18
 2630 16e8 2910A0E3 		mov	r1, #41
 2631 16ec 30001BE5 		ldr	r0, [fp, #-48]
 2632 16f0 FEFFFFEB 		bl	strchr(PLT)
 2633 16f4 2C000BE5 		str	r0, [fp, #-44]
 630:/home/hkh/git/eapidk-code-r76-trunk/apps/EeePProg/linux/../Str2Value.c ****     if(szEndBracket!=NULL)
 2634              		.loc 1 630 7
 2635 16f8 2C301BE5 		ldr	r3, [fp, #-44]
 2636 16fc 000053E3 		cmp	r3, #0
 2637 1700 4C00000A 		beq	.L135
 631:/home/hkh/git/eapidk-code-r76-trunk/apps/EeePProg/linux/../Str2Value.c ****     {
 632:/home/hkh/git/eapidk-code-r76-trunk/apps/EeePProg/linux/../Str2Value.c ****       *szEndBracket='\0';
 2638              		.loc 1 632 20
 2639 1704 2C301BE5 		ldr	r3, [fp, #-44]
 2640 1708 0020A0E3 		mov	r2, #0
 2641 170c 0020C3E5 		strb	r2, [r3]
 633:/home/hkh/git/eapidk-code-r76-trunk/apps/EeePProg/linux/../Str2Value.c ****       DO(ParseAsciiEqu_cmn(cAS, szStartBracket+1, &CurValue));
 2642              		.loc 1 633 7
 2643 1710 30301BE5 		ldr	r3, [fp, #-48]
 2644 1714 013083E2 		add	r3, r3, #1
 2645 1718 24204BE2 		sub	r2, fp, #36
 2646 171c 0310A0E1 		mov	r1, r3
 2647 1720 F4319FE5 		ldr	r3, .L142+8
 2648              	.LPIC90:
 2649 1724 03308FE0 		add	r3, pc, r3
 2650 1728 0300A0E1 		mov	r0, r3
 2651 172c FEFFFFEB 		bl	ParseAsciiEqu_cmn(PLT)
 2652 1730 34000BE5 		str	r0, [fp, #-52]
 2653 1734 34301BE5 		ldr	r3, [fp, #-52]
 2654 1738 000053E3 		cmp	r3, #0
 2655 173c 0F00000A 		beq	.L136
 2656              		.loc 1 633 7 is_stmt 0 discriminator 1
 2657 1740 D8319FE5 		ldr	r3, .L142+12
 2658              	.LPIC91:
 2659 1744 03308FE0 		add	r3, pc, r3
 2660 1748 08308DE5 		str	r3, [sp, #8]
 2661 174c D0319FE5 		ldr	r3, .L142+16
 2662              	.LPIC92:
 2663 1750 03308FE0 		add	r3, pc, r3
 2664 1754 04308DE5 		str	r3, [sp, #4]
 2665 1758 34301BE5 		ldr	r3, [fp, #-52]
 2666 175c 00308DE5 		str	r3, [sp]
 2667 1760 793200E3 		movw	r3, #633
 2668 1764 BC219FE5 		ldr	r2, .L142+20
 2669              	.LPIC93:
 2670 1768 02208FE0 		add	r2, pc, r2
 2671 176c B8119FE5 		ldr	r1, .L142+24
 2672              	.LPIC94:
 2673 1770 01108FE0 		add	r1, pc, r1
 2674 1774 4500A0E3 		mov	r0, #69
 2675 1778 FEFFFFEB 		bl	siFormattedMessage_SC(PLT)
 2676 177c 560000EA 		b	.L137
 2677              	.L136:
 634:/home/hkh/git/eapidk-code-r76-trunk/apps/EeePProg/linux/../Str2Value.c ****       stSubLen=szEndBracket - szStartBracket;
 2678              		.loc 1 634 29 is_stmt 1
 2679 1780 2C201BE5 		ldr	r2, [fp, #-44]
 2680 1784 30301BE5 		ldr	r3, [fp, #-48]
ARM GAS  /tmp/ccG9b1tU.s 			page 61


 2681 1788 033042E0 		sub	r3, r2, r3
 2682              		.loc 1 634 15
 2683 178c 28300BE5 		str	r3, [fp, #-40]
 635:/home/hkh/git/eapidk-code-r76-trunk/apps/EeePProg/linux/../Str2Value.c ****       EApiSprintfA( szValue, ARRAY_SIZE(szValue), "%lld", CurValue);
 2684              		.loc 1 635 7
 2685 1790 D4224BE1 		ldrd	r2, [fp, #-36]
 2686 1794 18004BE2 		sub	r0, fp, #24
 2687 1798 F020CDE1 		strd	r2, [sp]
 2688 179c 8C319FE5 		ldr	r3, .L142+28
 2689              	.LPIC95:
 2690 17a0 03308FE0 		add	r3, pc, r3
 2691 17a4 0320A0E1 		mov	r2, r3
 2692 17a8 1010A0E3 		mov	r1, #16
 2693 17ac FEFFFFEB 		bl	EApiSprintfA(PLT)
 636:/home/hkh/git/eapidk-code-r76-trunk/apps/EeePProg/linux/../Str2Value.c ****       DO(ReplaceSubStr(pStrDesc, szStartBracket - pStrDesc->szStr, szEndBracket+1 - pStrDesc->szStr
 2694              		.loc 1 636 7
 2695 17b0 38301BE5 		ldr	r3, [fp, #-56]
 2696 17b4 003093E5 		ldr	r3, [r3]
 2697 17b8 30201BE5 		ldr	r2, [fp, #-48]
 2698 17bc 033042E0 		sub	r3, r2, r3
 2699 17c0 0310A0E1 		mov	r1, r3
 2700 17c4 2C301BE5 		ldr	r3, [fp, #-44]
 2701 17c8 012083E2 		add	r2, r3, #1
 2702 17cc 38301BE5 		ldr	r3, [fp, #-56]
 2703 17d0 003093E5 		ldr	r3, [r3]
 2704 17d4 033042E0 		sub	r3, r2, r3
 2705 17d8 0320A0E1 		mov	r2, r3
 2706 17dc 18304BE2 		sub	r3, fp, #24
 2707 17e0 38001BE5 		ldr	r0, [fp, #-56]
 2708 17e4 FEFFFFEB 		bl	ReplaceSubStr(PLT)
 2709 17e8 34000BE5 		str	r0, [fp, #-52]
 2710 17ec 34301BE5 		ldr	r3, [fp, #-52]
 2711 17f0 000053E3 		cmp	r3, #0
 2712 17f4 2100000A 		beq	.L134
 2713              		.loc 1 636 7 is_stmt 0 discriminator 1
 2714 17f8 34319FE5 		ldr	r3, .L142+32
 2715              	.LPIC96:
 2716 17fc 03308FE0 		add	r3, pc, r3
 2717 1800 08308DE5 		str	r3, [sp, #8]
 2718 1804 2C319FE5 		ldr	r3, .L142+36
 2719              	.LPIC97:
 2720 1808 03308FE0 		add	r3, pc, r3
 2721 180c 04308DE5 		str	r3, [sp, #4]
 2722 1810 34301BE5 		ldr	r3, [fp, #-52]
 2723 1814 00308DE5 		str	r3, [sp]
 2724 1818 9F3FA0E3 		mov	r3, #636
 2725 181c 18219FE5 		ldr	r2, .L142+40
 2726              	.LPIC98:
 2727 1820 02208FE0 		add	r2, pc, r2
 2728 1824 14119FE5 		ldr	r1, .L142+44
 2729              	.LPIC99:
 2730 1828 01108FE0 		add	r1, pc, r1
 2731 182c 4500A0E3 		mov	r0, #69
 2732 1830 FEFFFFEB 		bl	siFormattedMessage_SC(PLT)
 2733 1834 280000EA 		b	.L137
 2734              	.L135:
 637:/home/hkh/git/eapidk-code-r76-trunk/apps/EeePProg/linux/../Str2Value.c ****     }
ARM GAS  /tmp/ccG9b1tU.s 			page 62


 638:/home/hkh/git/eapidk-code-r76-trunk/apps/EeePProg/linux/../Str2Value.c ****     else
 639:/home/hkh/git/eapidk-code-r76-trunk/apps/EeePProg/linux/../Str2Value.c ****     {
 640:/home/hkh/git/eapidk-code-r76-trunk/apps/EeePProg/linux/../Str2Value.c ****       EAPI_APP_RETURN_ERROR(
 2735              		.loc 1 640 7 is_stmt 1
 2736 1838 04319FE5 		ldr	r3, .L142+48
 2737              	.LPIC100:
 2738 183c 03308FE0 		add	r3, pc, r3
 2739 1840 08308DE5 		str	r3, [sp, #8]
 2740 1844 FC309FE5 		ldr	r3, .L142+52
 2741              	.LPIC101:
 2742 1848 03308FE0 		add	r3, pc, r3
 2743 184c 04308DE5 		str	r3, [sp, #4]
 2744 1850 0F3CE0E3 		mvn	r3, #3840
 2745 1854 00308DE5 		str	r3, [sp]
 2746 1858 0A3DA0E3 		mov	r3, #640
 2747 185c E8209FE5 		ldr	r2, .L142+56
 2748              	.LPIC102:
 2749 1860 02208FE0 		add	r2, pc, r2
 2750 1864 E4109FE5 		ldr	r1, .L142+60
 2751              	.LPIC103:
 2752 1868 01108FE0 		add	r1, pc, r1
 2753 186c 4500A0E3 		mov	r0, #69
 2754 1870 FEFFFFEB 		bl	siFormattedMessage_SC(PLT)
 2755 1874 0F3CE0E3 		mvn	r3, #3840
 2756 1878 34300BE5 		str	r3, [fp, #-52]
 2757 187c 160000EA 		b	.L137
 2758              	.L134:
 624:/home/hkh/git/eapidk-code-r76-trunk/apps/EeePProg/linux/../Str2Value.c **** #ifdef TEST_EQUPARSER
 2759              		.loc 1 624 41
 2760 1880 38301BE5 		ldr	r3, [fp, #-56]
 2761 1884 003093E5 		ldr	r3, [r3]
 624:/home/hkh/git/eapidk-code-r76-trunk/apps/EeePProg/linux/../Str2Value.c **** #ifdef TEST_EQUPARSER
 2762              		.loc 1 624 25
 2763 1888 2810A0E3 		mov	r1, #40
 2764 188c 0300A0E1 		mov	r0, r3
 2765 1890 FEFFFFEB 		bl	strrchr(PLT)
 2766 1894 30000BE5 		str	r0, [fp, #-48]
 624:/home/hkh/git/eapidk-code-r76-trunk/apps/EeePProg/linux/../Str2Value.c **** #ifdef TEST_EQUPARSER
 2767              		.loc 1 624 55
 2768 1898 30301BE5 		ldr	r3, [fp, #-48]
 2769 189c 000053E3 		cmp	r3, #0
 2770 18a0 90FFFF1A 		bne	.L138
 641:/home/hkh/git/eapidk-code-r76-trunk/apps/EeePProg/linux/../Str2Value.c ****           ParseAsciiEqu_1, 
 642:/home/hkh/git/eapidk-code-r76-trunk/apps/EeePProg/linux/../Str2Value.c ****           EAPI_STATUS_PARSE_ERROR, 
 643:/home/hkh/git/eapidk-code-r76-trunk/apps/EeePProg/linux/../Str2Value.c ****           "Missing Right ')'"
 644:/home/hkh/git/eapidk-code-r76-trunk/apps/EeePProg/linux/../Str2Value.c ****         );
 645:/home/hkh/git/eapidk-code-r76-trunk/apps/EeePProg/linux/../Str2Value.c ****     }
 646:/home/hkh/git/eapidk-code-r76-trunk/apps/EeePProg/linux/../Str2Value.c ****   }
 647:/home/hkh/git/eapidk-code-r76-trunk/apps/EeePProg/linux/../Str2Value.c ****   if(EAPI_TEST_SUCCESS(StatusCode))
 2771              		.loc 1 647 5
 2772 18a4 34301BE5 		ldr	r3, [fp, #-52]
 2773 18a8 000053E3 		cmp	r3, #0
 2774 18ac 0900001A 		bne	.L141
 648:/home/hkh/git/eapidk-code-r76-trunk/apps/EeePProg/linux/../Str2Value.c ****     StatusCode=ParseAsciiEqu_cmn(cAS, pStrDesc->szStr, psllValue);
 2775              		.loc 1 648 16
 2776 18b0 38301BE5 		ldr	r3, [fp, #-56]
 2777 18b4 003093E5 		ldr	r3, [r3]
ARM GAS  /tmp/ccG9b1tU.s 			page 63


 2778 18b8 3C201BE5 		ldr	r2, [fp, #-60]
 2779 18bc 0310A0E1 		mov	r1, r3
 2780 18c0 8C309FE5 		ldr	r3, .L142+64
 2781              	.LPIC104:
 2782 18c4 03308FE0 		add	r3, pc, r3
 2783 18c8 0300A0E1 		mov	r0, r3
 2784 18cc FEFFFFEB 		bl	ParseAsciiEqu_cmn(PLT)
 2785 18d0 34000BE5 		str	r0, [fp, #-52]
 2786 18d4 000000EA 		b	.L137
 2787              	.L141:
 649:/home/hkh/git/eapidk-code-r76-trunk/apps/EeePProg/linux/../Str2Value.c **** EAPI_APP_ASSERT_EXIT
 2788              		.loc 1 649 1
 2789 18d8 00F020E3 		nop
 2790              	.L137:
 650:/home/hkh/git/eapidk-code-r76-trunk/apps/EeePProg/linux/../Str2Value.c ****   return StatusCode;
 2791              		.loc 1 650 10
 2792 18dc 34301BE5 		ldr	r3, [fp, #-52]
 616:/home/hkh/git/eapidk-code-r76-trunk/apps/EeePProg/linux/../Str2Value.c ****   char *szStartBracket;
 2793              		.loc 1 616 1
 2794 18e0 70109FE5 		ldr	r1, .L142+68
 2795              	.LPIC106:
 2796 18e4 01108FE0 		add	r1, pc, r1
 651:/home/hkh/git/eapidk-code-r76-trunk/apps/EeePProg/linux/../Str2Value.c **** }
 2797              		.loc 1 651 1
 2798 18e8 28209FE5 		ldr	r2, .L142+4
 2799 18ec 022091E7 		ldr	r2, [r1, r2]
 2800 18f0 001092E5 		ldr	r1, [r2]
 2801 18f4 08201BE5 		ldr	r2, [fp, #-8]
 2802 18f8 011032E0 		eors	r1, r2, r1
 2803 18fc 0020A0E3 		mov	r2, #0
 2804 1900 0000000A 		beq	.L140
 2805 1904 FEFFFFEB 		bl	__stack_chk_fail(PLT)
 2806              	.L140:
 2807 1908 0300A0E1 		mov	r0, r3
 2808 190c 04D04BE2 		sub	sp, fp, #4
 2809              		.cfi_def_cfa 13, 8
 2810              		@ sp needed
 2811 1910 0088BDE8 		pop	{fp, pc}
 2812              	.L143:
 2813              		.align	2
 2814              	.L142:
 2815 1914 58020000 		.word	_GLOBAL_OFFSET_TABLE_-(.LPIC105+8)
 2816 1918 00000000 		.word	__stack_chk_guard(GOT)
 2817 191c F0010000 		.word	cAS-(.LPIC90+8)
 2818 1920 60060000 		.word	.LC57-(.LPIC91+8)
 2819 1924 38020000 		.word	.LC4-(.LPIC92+8)
 2820 1928 28020000 		.word	.LC5-(.LPIC93+8)
 2821 192c C4010000 		.word	.LC2-(.LPIC94+8)
 2822 1930 48060000 		.word	.LC58-(.LPIC95+8)
 2823 1934 F8050000 		.word	.LC59-(.LPIC96+8)
 2824 1938 94010000 		.word	.LC4-(.LPIC97+8)
 2825 193c 84010000 		.word	.LC5-(.LPIC98+8)
 2826 1940 20010000 		.word	.LC2-(.LPIC99+8)
 2827 1944 30060000 		.word	.LC60-(.LPIC100+8)
 2828 1948 64010000 		.word	.LC4-(.LPIC101+8)
 2829 194c 78040000 		.word	.LC39-(.LPIC102+8)
 2830 1950 F0000000 		.word	.LC2-(.LPIC103+8)
ARM GAS  /tmp/ccG9b1tU.s 			page 64


 2831 1954 88000000 		.word	cAS-(.LPIC104+8)
 2832 1958 6C000000 		.word	_GLOBAL_OFFSET_TABLE_-(.LPIC106+8)
 2833              		.cfi_endproc
 2834              	.LFE10:
 2836              		.global	cszEnvStartMarker
 2837              		.section	.rodata
 2838 0542 0000     		.align	2
 2841              	cszEnvStartMarker:
 2842 0544 242800   		.ascii	"$(\000"
 2843              		.global	cszEnvEndMarker
 2844 0547 00       		.align	2
 2847              	cszEnvEndMarker:
 2848 0548 2900     		.ascii	")\000"
 2849 054a 0000     		.align	2
 2850              	.LC61:
 2851 054c 45787061 		.ascii	"ExpandEnviromentVariables\000"
 2851      6E64456E 
 2851      7669726F 
 2851      6D656E74 
 2851      56617269 
 2852 0566 0000     		.align	2
 2853              	.LC62:
 2854 0568 28705374 		.ascii	"(pStrDesc==NULL)\000"
 2854      72446573 
 2854      633D3D4E 
 2854      554C4C29 
 2854      00
 2855 0579 000000   		.align	2
 2856              	.LC63:
 2857 057c 28705374 		.ascii	"(pStrDesc->szStr==NULL)\000"
 2857      72446573 
 2857      632D3E73 
 2857      7A537472 
 2857      3D3D4E55 
 2858              		.align	2
 2859              	.LC64:
 2860 0594 4D697373 		.ascii	"Missing Right Bracket '%s'\000"
 2860      696E6720 
 2860      52696768 
 2860      74204272 
 2860      61636B65 
 2861 05af 00       		.align	2
 2862              	.LC65:
 2863 05b0 5265706C 		.ascii	"ReplaceSubStr(pStrDesc, szVarPosS - pStrDesc->szStr"
 2863      61636553 
 2863      75625374 
 2863      72287053 
 2863      74724465 
 2864 05e3 2C20737A 		.ascii	", szVarPosE - pStrDesc->szStr, szVarValue)\000"
 2864      56617250 
 2864      6F734520 
 2864      2D207053 
 2864      74724465 
 2865              		.text
 2866              		.align	2
 2867              		.global	ExpandEnviromentVariables
 2868              		.syntax unified
ARM GAS  /tmp/ccG9b1tU.s 			page 65


 2869              		.arm
 2870              		.fpu vfpv3
 2872              	ExpandEnviromentVariables:
 2873              	.LFB11:
 652:/home/hkh/git/eapidk-code-r76-trunk/apps/EeePProg/linux/../Str2Value.c **** 
 653:/home/hkh/git/eapidk-code-r76-trunk/apps/EeePProg/linux/../Str2Value.c **** 
 654:/home/hkh/git/eapidk-code-r76-trunk/apps/EeePProg/linux/../Str2Value.c **** const char cszEnvStartMarker[]="$(";
 655:/home/hkh/git/eapidk-code-r76-trunk/apps/EeePProg/linux/../Str2Value.c **** const char cszEnvEndMarker[]=")" ;
 656:/home/hkh/git/eapidk-code-r76-trunk/apps/EeePProg/linux/../Str2Value.c **** EApiStatus_t
 657:/home/hkh/git/eapidk-code-r76-trunk/apps/EeePProg/linux/../Str2Value.c **** ExpandEnviromentVariables(
 658:/home/hkh/git/eapidk-code-r76-trunk/apps/EeePProg/linux/../Str2Value.c ****     __INOUT  DStrDesc_t   *pStrDesc
 659:/home/hkh/git/eapidk-code-r76-trunk/apps/EeePProg/linux/../Str2Value.c ****   )
 660:/home/hkh/git/eapidk-code-r76-trunk/apps/EeePProg/linux/../Str2Value.c **** {
 2874              		.loc 1 660 1
 2875              		.cfi_startproc
 2876              		@ args = 0, pretend = 0, frame = 24
 2877              		@ frame_needed = 1, uses_anonymous_args = 0
 2878 195c 00482DE9 		push	{fp, lr}
 2879              		.cfi_def_cfa_offset 8
 2880              		.cfi_offset 11, -8
 2881              		.cfi_offset 14, -4
 2882 1960 04B08DE2 		add	fp, sp, #4
 2883              		.cfi_def_cfa 11, 4
 2884 1964 28D04DE2 		sub	sp, sp, #40
 2885 1968 18000BE5 		str	r0, [fp, #-24]
 661:/home/hkh/git/eapidk-code-r76-trunk/apps/EeePProg/linux/../Str2Value.c ****   EApiStatus_t StatusCode=EAPI_STATUS_SUCCESS;
 2886              		.loc 1 661 16
 2887 196c 0030A0E3 		mov	r3, #0
 2888 1970 14300BE5 		str	r3, [fp, #-20]
 662:/home/hkh/git/eapidk-code-r76-trunk/apps/EeePProg/linux/../Str2Value.c ****   char *szVarPosS,*szVarPosE, *szVarValue=NULL;
 2889              		.loc 1 662 32
 2890 1974 0030A0E3 		mov	r3, #0
 2891 1978 10300BE5 		str	r3, [fp, #-16]
 663:/home/hkh/git/eapidk-code-r76-trunk/apps/EeePProg/linux/../Str2Value.c ****   EAPI_APP_ASSERT_PARAMATER_NULL(
 2892              		.loc 1 663 3
 2893 197c 18301BE5 		ldr	r3, [fp, #-24]
 2894 1980 000053E3 		cmp	r3, #0
 2895 1984 1100001A 		bne	.L145
 2896              		.loc 1 663 3 is_stmt 0 discriminator 1
 2897 1988 4C329FE5 		ldr	r3, .L154
 2898              	.LPIC107:
 2899 198c 03308FE0 		add	r3, pc, r3
 2900 1990 08308DE5 		str	r3, [sp, #8]
 2901 1994 44329FE5 		ldr	r3, .L154+4
 2902              	.LPIC108:
 2903 1998 03308FE0 		add	r3, pc, r3
 2904 199c 04308DE5 		str	r3, [sp, #4]
 2905 19a0 013CE0E3 		mvn	r3, #256
 2906 19a4 00308DE5 		str	r3, [sp]
 2907 19a8 973200E3 		movw	r3, #663
 2908 19ac 30229FE5 		ldr	r2, .L154+8
 2909              	.LPIC109:
 2910 19b0 02208FE0 		add	r2, pc, r2
 2911 19b4 2C129FE5 		ldr	r1, .L154+12
 2912              	.LPIC110:
 2913 19b8 01108FE0 		add	r1, pc, r1
 2914 19bc 4500A0E3 		mov	r0, #69
ARM GAS  /tmp/ccG9b1tU.s 			page 66


 2915 19c0 FEFFFFEB 		bl	siFormattedMessage_SC(PLT)
 2916 19c4 013CE0E3 		mvn	r3, #256
 2917 19c8 14300BE5 		str	r3, [fp, #-20]
 2918 19cc 790000EA 		b	.L146
 2919              	.L145:
 664:/home/hkh/git/eapidk-code-r76-trunk/apps/EeePProg/linux/../Str2Value.c ****       ExpandEnviromentVariables, 
 665:/home/hkh/git/eapidk-code-r76-trunk/apps/EeePProg/linux/../Str2Value.c ****       EAPI_STATUS_INVALID_PARAMETER, 
 666:/home/hkh/git/eapidk-code-r76-trunk/apps/EeePProg/linux/../Str2Value.c ****       pStrDesc
 667:/home/hkh/git/eapidk-code-r76-trunk/apps/EeePProg/linux/../Str2Value.c ****     );
 668:/home/hkh/git/eapidk-code-r76-trunk/apps/EeePProg/linux/../Str2Value.c ****   EAPI_APP_ASSERT_PARAMATER_NULL(
 2920              		.loc 1 668 3 is_stmt 1
 2921 19d0 18301BE5 		ldr	r3, [fp, #-24]
 2922 19d4 003093E5 		ldr	r3, [r3]
 2923 19d8 000053E3 		cmp	r3, #0
 2924 19dc 6900001A 		bne	.L148
 2925              		.loc 1 668 3 is_stmt 0 discriminator 1
 2926 19e0 04329FE5 		ldr	r3, .L154+16
 2927              	.LPIC111:
 2928 19e4 03308FE0 		add	r3, pc, r3
 2929 19e8 08308DE5 		str	r3, [sp, #8]
 2930 19ec FC319FE5 		ldr	r3, .L154+20
 2931              	.LPIC112:
 2932 19f0 03308FE0 		add	r3, pc, r3
 2933 19f4 04308DE5 		str	r3, [sp, #4]
 2934 19f8 013CE0E3 		mvn	r3, #256
 2935 19fc 00308DE5 		str	r3, [sp]
 2936 1a00 A73FA0E3 		mov	r3, #668
 2937 1a04 E8219FE5 		ldr	r2, .L154+24
 2938              	.LPIC113:
 2939 1a08 02208FE0 		add	r2, pc, r2
 2940 1a0c E4119FE5 		ldr	r1, .L154+28
 2941              	.LPIC114:
 2942 1a10 01108FE0 		add	r1, pc, r1
 2943 1a14 4500A0E3 		mov	r0, #69
 2944 1a18 FEFFFFEB 		bl	siFormattedMessage_SC(PLT)
 2945 1a1c 013CE0E3 		mvn	r3, #256
 2946 1a20 14300BE5 		str	r3, [fp, #-20]
 2947 1a24 630000EA 		b	.L146
 2948              	.L151:
 669:/home/hkh/git/eapidk-code-r76-trunk/apps/EeePProg/linux/../Str2Value.c ****       ExpandEnviromentVariables, 
 670:/home/hkh/git/eapidk-code-r76-trunk/apps/EeePProg/linux/../Str2Value.c ****       EAPI_STATUS_INVALID_PARAMETER, 
 671:/home/hkh/git/eapidk-code-r76-trunk/apps/EeePProg/linux/../Str2Value.c ****       pStrDesc->szStr
 672:/home/hkh/git/eapidk-code-r76-trunk/apps/EeePProg/linux/../Str2Value.c ****     );
 673:/home/hkh/git/eapidk-code-r76-trunk/apps/EeePProg/linux/../Str2Value.c ****   while((szVarPosS=strrstr(pStrDesc->szStr, cszEnvStartMarker))!=NULL){
 674:/home/hkh/git/eapidk-code-r76-trunk/apps/EeePProg/linux/../Str2Value.c ****     /*
 675:/home/hkh/git/eapidk-code-r76-trunk/apps/EeePProg/linux/../Str2Value.c ****      * So we found the last occurance of our start marker.
 676:/home/hkh/git/eapidk-code-r76-trunk/apps/EeePProg/linux/../Str2Value.c ****      */
 677:/home/hkh/git/eapidk-code-r76-trunk/apps/EeePProg/linux/../Str2Value.c **** #ifdef TEST_EQUPARSER
 678:/home/hkh/git/eapidk-code-r76-trunk/apps/EeePProg/linux/../Str2Value.c ****     siFormattedMessage_M2('D', __FILE__, "ExpandEnviromentVariables", __LINE__, "",
 679:/home/hkh/git/eapidk-code-r76-trunk/apps/EeePProg/linux/../Str2Value.c ****               "%s\n", pStrDesc->szStr );
 680:/home/hkh/git/eapidk-code-r76-trunk/apps/EeePProg/linux/../Str2Value.c **** #endif
 681:/home/hkh/git/eapidk-code-r76-trunk/apps/EeePProg/linux/../Str2Value.c ****     szVarPosE=strstr(szVarPosS, cszEnvEndMarker);
 2949              		.loc 1 681 15 is_stmt 1
 2950 1a28 2910A0E3 		mov	r1, #41
 2951 1a2c 0C001BE5 		ldr	r0, [fp, #-12]
 2952 1a30 FEFFFFEB 		bl	strchr(PLT)
 2953 1a34 08000BE5 		str	r0, [fp, #-8]
ARM GAS  /tmp/ccG9b1tU.s 			page 67


 682:/home/hkh/git/eapidk-code-r76-trunk/apps/EeePProg/linux/../Str2Value.c ****     if(szVarPosE==NULL){
 2954              		.loc 1 682 7
 2955 1a38 08301BE5 		ldr	r3, [fp, #-8]
 2956 1a3c 000053E3 		cmp	r3, #0
 2957 1a40 2000001A 		bne	.L149
 683:/home/hkh/git/eapidk-code-r76-trunk/apps/EeePProg/linux/../Str2Value.c ****       siFormattedMessage_SC('E', __FILE__, "ExpandEnviromentVariables", __LINE__, EAPI_STATUS_PARSE
 2958              		.loc 1 683 7
 2959 1a44 B0319FE5 		ldr	r3, .L154+32
 2960              	.LPIC115:
 2961 1a48 03308FE0 		add	r3, pc, r3
 2962 1a4c 08308DE5 		str	r3, [sp, #8]
 2963 1a50 A8319FE5 		ldr	r3, .L154+36
 2964              	.LPIC116:
 2965 1a54 03308FE0 		add	r3, pc, r3
 2966 1a58 04308DE5 		str	r3, [sp, #4]
 2967 1a5c 0F3CE0E3 		mvn	r3, #3840
 2968 1a60 00308DE5 		str	r3, [sp]
 2969 1a64 AB3200E3 		movw	r3, #683
 2970 1a68 94219FE5 		ldr	r2, .L154+40
 2971              	.LPIC117:
 2972 1a6c 02208FE0 		add	r2, pc, r2
 2973 1a70 90119FE5 		ldr	r1, .L154+44
 2974              	.LPIC118:
 2975 1a74 01108FE0 		add	r1, pc, r1
 2976 1a78 4500A0E3 		mov	r0, #69
 2977 1a7c FEFFFFEB 		bl	siFormattedMessage_SC(PLT)
 684:/home/hkh/git/eapidk-code-r76-trunk/apps/EeePProg/linux/../Str2Value.c ****           "Missing Right Bracket '%s'",  cszEnvEndMarker
 685:/home/hkh/git/eapidk-code-r76-trunk/apps/EeePProg/linux/../Str2Value.c ****           );
 686:/home/hkh/git/eapidk-code-r76-trunk/apps/EeePProg/linux/../Str2Value.c ****       EAPI_APP_RETURN_ERROR(
 2978              		.loc 1 686 7
 2979 1a80 84319FE5 		ldr	r3, .L154+48
 2980              	.LPIC119:
 2981 1a84 03308FE0 		add	r3, pc, r3
 2982 1a88 08308DE5 		str	r3, [sp, #8]
 2983 1a8c 7C319FE5 		ldr	r3, .L154+52
 2984              	.LPIC120:
 2985 1a90 03308FE0 		add	r3, pc, r3
 2986 1a94 04308DE5 		str	r3, [sp, #4]
 2987 1a98 0F3CE0E3 		mvn	r3, #3840
 2988 1a9c 00308DE5 		str	r3, [sp]
 2989 1aa0 AE3200E3 		movw	r3, #686
 2990 1aa4 68219FE5 		ldr	r2, .L154+56
 2991              	.LPIC121:
 2992 1aa8 02208FE0 		add	r2, pc, r2
 2993 1aac 64119FE5 		ldr	r1, .L154+60
 2994              	.LPIC122:
 2995 1ab0 01108FE0 		add	r1, pc, r1
 2996 1ab4 4500A0E3 		mov	r0, #69
 2997 1ab8 FEFFFFEB 		bl	siFormattedMessage_SC(PLT)
 2998 1abc 0F3CE0E3 		mvn	r3, #3840
 2999 1ac0 14300BE5 		str	r3, [fp, #-20]
 3000 1ac4 3B0000EA 		b	.L146
 3001              	.L149:
 687:/home/hkh/git/eapidk-code-r76-trunk/apps/EeePProg/linux/../Str2Value.c ****           ExpandEnviromentVariables,
 688:/home/hkh/git/eapidk-code-r76-trunk/apps/EeePProg/linux/../Str2Value.c ****           EAPI_STATUS_PARSE_ERROR,
 689:/home/hkh/git/eapidk-code-r76-trunk/apps/EeePProg/linux/../Str2Value.c ****           ""
 690:/home/hkh/git/eapidk-code-r76-trunk/apps/EeePProg/linux/../Str2Value.c ****           );
ARM GAS  /tmp/ccG9b1tU.s 			page 68


 691:/home/hkh/git/eapidk-code-r76-trunk/apps/EeePProg/linux/../Str2Value.c ****     }
 692:/home/hkh/git/eapidk-code-r76-trunk/apps/EeePProg/linux/../Str2Value.c ****     *szVarPosE='\0';
 3002              		.loc 1 692 15
 3003 1ac8 08301BE5 		ldr	r3, [fp, #-8]
 3004 1acc 0020A0E3 		mov	r2, #0
 3005 1ad0 0020C3E5 		strb	r2, [r3]
 693:/home/hkh/git/eapidk-code-r76-trunk/apps/EeePProg/linux/../Str2Value.c ****     szVarValue=ReturnEnvVar(szVarPosS+strlen(cszEnvStartMarker));
 3006              		.loc 1 693 38
 3007 1ad4 0C301BE5 		ldr	r3, [fp, #-12]
 3008 1ad8 023083E2 		add	r3, r3, #2
 3009              		.loc 1 693 16
 3010 1adc 0300A0E1 		mov	r0, r3
 3011 1ae0 FEFFFFEB 		bl	ReturnEnvVar(PLT)
 3012 1ae4 10000BE5 		str	r0, [fp, #-16]
 694:/home/hkh/git/eapidk-code-r76-trunk/apps/EeePProg/linux/../Str2Value.c ****     DO(ReplaceSubStr(pStrDesc, szVarPosS - pStrDesc->szStr, szVarPosE - pStrDesc->szStr,  szVarValu
 3013              		.loc 1 694 5
 3014 1ae8 18301BE5 		ldr	r3, [fp, #-24]
 3015 1aec 003093E5 		ldr	r3, [r3]
 3016 1af0 0C201BE5 		ldr	r2, [fp, #-12]
 3017 1af4 033042E0 		sub	r3, r2, r3
 3018 1af8 0310A0E1 		mov	r1, r3
 3019 1afc 18301BE5 		ldr	r3, [fp, #-24]
 3020 1b00 003093E5 		ldr	r3, [r3]
 3021 1b04 08201BE5 		ldr	r2, [fp, #-8]
 3022 1b08 033042E0 		sub	r3, r2, r3
 3023 1b0c 0320A0E1 		mov	r2, r3
 3024 1b10 10301BE5 		ldr	r3, [fp, #-16]
 3025 1b14 18001BE5 		ldr	r0, [fp, #-24]
 3026 1b18 FEFFFFEB 		bl	ReplaceSubStr(PLT)
 3027 1b1c 14000BE5 		str	r0, [fp, #-20]
 3028 1b20 14301BE5 		ldr	r3, [fp, #-20]
 3029 1b24 000053E3 		cmp	r3, #0
 3030 1b28 0F00000A 		beq	.L150
 3031              		.loc 1 694 5 is_stmt 0 discriminator 1
 3032 1b2c E8309FE5 		ldr	r3, .L154+64
 3033              	.LPIC123:
 3034 1b30 03308FE0 		add	r3, pc, r3
 3035 1b34 08308DE5 		str	r3, [sp, #8]
 3036 1b38 E0309FE5 		ldr	r3, .L154+68
 3037              	.LPIC124:
 3038 1b3c 03308FE0 		add	r3, pc, r3
 3039 1b40 04308DE5 		str	r3, [sp, #4]
 3040 1b44 14301BE5 		ldr	r3, [fp, #-20]
 3041 1b48 00308DE5 		str	r3, [sp]
 3042 1b4c B63200E3 		movw	r3, #694
 3043 1b50 CC209FE5 		ldr	r2, .L154+72
 3044              	.LPIC125:
 3045 1b54 02208FE0 		add	r2, pc, r2
 3046 1b58 C8109FE5 		ldr	r1, .L154+76
 3047              	.LPIC126:
 3048 1b5c 01108FE0 		add	r1, pc, r1
 3049 1b60 4500A0E3 		mov	r0, #69
 3050 1b64 FEFFFFEB 		bl	siFormattedMessage_SC(PLT)
 3051 1b68 120000EA 		b	.L146
 3052              	.L150:
 695:/home/hkh/git/eapidk-code-r76-trunk/apps/EeePProg/linux/../Str2Value.c ****     if(szVarValue){
 3053              		.loc 1 695 7 is_stmt 1
ARM GAS  /tmp/ccG9b1tU.s 			page 69


 3054 1b6c 10301BE5 		ldr	r3, [fp, #-16]
 3055 1b70 000053E3 		cmp	r3, #0
 3056 1b74 0300000A 		beq	.L148
 696:/home/hkh/git/eapidk-code-r76-trunk/apps/EeePProg/linux/../Str2Value.c ****       free(szVarValue);
 3057              		.loc 1 696 7
 3058 1b78 10001BE5 		ldr	r0, [fp, #-16]
 3059 1b7c FEFFFFEB 		bl	free(PLT)
 697:/home/hkh/git/eapidk-code-r76-trunk/apps/EeePProg/linux/../Str2Value.c ****       szVarValue=NULL;
 3060              		.loc 1 697 17
 3061 1b80 0030A0E3 		mov	r3, #0
 3062 1b84 10300BE5 		str	r3, [fp, #-16]
 3063              	.L148:
 673:/home/hkh/git/eapidk-code-r76-trunk/apps/EeePProg/linux/../Str2Value.c ****     /*
 3064              		.loc 1 673 36
 3065 1b88 18301BE5 		ldr	r3, [fp, #-24]
 3066 1b8c 003093E5 		ldr	r3, [r3]
 673:/home/hkh/git/eapidk-code-r76-trunk/apps/EeePProg/linux/../Str2Value.c ****     /*
 3067              		.loc 1 673 20
 3068 1b90 94209FE5 		ldr	r2, .L154+80
 3069              	.LPIC127:
 3070 1b94 02208FE0 		add	r2, pc, r2
 3071 1b98 0210A0E1 		mov	r1, r2
 3072 1b9c 0300A0E1 		mov	r0, r3
 3073 1ba0 FEFFFFEB 		bl	strrstr(PLT)
 3074 1ba4 0C000BE5 		str	r0, [fp, #-12]
 673:/home/hkh/git/eapidk-code-r76-trunk/apps/EeePProg/linux/../Str2Value.c ****     /*
 3075              		.loc 1 673 64
 3076 1ba8 0C301BE5 		ldr	r3, [fp, #-12]
 3077 1bac 000053E3 		cmp	r3, #0
 3078 1bb0 9CFFFF1A 		bne	.L151
 698:/home/hkh/git/eapidk-code-r76-trunk/apps/EeePProg/linux/../Str2Value.c ****     }
 699:/home/hkh/git/eapidk-code-r76-trunk/apps/EeePProg/linux/../Str2Value.c **** #ifdef TEST_EQUPARSER
 700:/home/hkh/git/eapidk-code-r76-trunk/apps/EeePProg/linux/../Str2Value.c **** /*    siFormattedMessage_M2('D', __FILE__, "ExpandEnviromentVariables", __LINE__, "", */
 701:/home/hkh/git/eapidk-code-r76-trunk/apps/EeePProg/linux/../Str2Value.c **** /*               "[%i][%i][%i]%s, %s, %s\n", stStrLen, ValLen, stStrLen+ValLen - (szVarPosE - szVar
 702:/home/hkh/git/eapidk-code-r76-trunk/apps/EeePProg/linux/../Str2Value.c **** #endif
 703:/home/hkh/git/eapidk-code-r76-trunk/apps/EeePProg/linux/../Str2Value.c ****   }
 704:/home/hkh/git/eapidk-code-r76-trunk/apps/EeePProg/linux/../Str2Value.c **** 
 705:/home/hkh/git/eapidk-code-r76-trunk/apps/EeePProg/linux/../Str2Value.c **** 
 706:/home/hkh/git/eapidk-code-r76-trunk/apps/EeePProg/linux/../Str2Value.c **** #ifdef TEST_EQUPARSER
 707:/home/hkh/git/eapidk-code-r76-trunk/apps/EeePProg/linux/../Str2Value.c **** /*   siFormattedMessage_M2('D', __FILE__, "ExpandEnviromentVariables", __LINE__, "", */
 708:/home/hkh/git/eapidk-code-r76-trunk/apps/EeePProg/linux/../Str2Value.c **** /*               "[%i][%i][%i]%s, %s, %s\n", StrLen, ValLen, StrLen+ValLen - (szVarPosE - szVarPosS
 709:/home/hkh/git/eapidk-code-r76-trunk/apps/EeePProg/linux/../Str2Value.c **** #endif
 710:/home/hkh/git/eapidk-code-r76-trunk/apps/EeePProg/linux/../Str2Value.c ****   EAPI_APP_EXIT;
 3079              		.loc 1 710 3
 3080 1bb4 00F020E3 		nop
 3081              	.L146:
 711:/home/hkh/git/eapidk-code-r76-trunk/apps/EeePProg/linux/../Str2Value.c **** 
 712:/home/hkh/git/eapidk-code-r76-trunk/apps/EeePProg/linux/../Str2Value.c **** EAPI_APP_ASSERT_EXIT
 713:/home/hkh/git/eapidk-code-r76-trunk/apps/EeePProg/linux/../Str2Value.c ****   if(szVarValue!=NULL)
 3082              		.loc 1 713 5
 3083 1bb8 10301BE5 		ldr	r3, [fp, #-16]
 3084 1bbc 000053E3 		cmp	r3, #0
 3085 1bc0 0100000A 		beq	.L152
 714:/home/hkh/git/eapidk-code-r76-trunk/apps/EeePProg/linux/../Str2Value.c ****     free(szVarValue);
 3086              		.loc 1 714 5
 3087 1bc4 10001BE5 		ldr	r0, [fp, #-16]
 3088 1bc8 FEFFFFEB 		bl	free(PLT)
ARM GAS  /tmp/ccG9b1tU.s 			page 70


 3089              	.L152:
 715:/home/hkh/git/eapidk-code-r76-trunk/apps/EeePProg/linux/../Str2Value.c **** 
 716:/home/hkh/git/eapidk-code-r76-trunk/apps/EeePProg/linux/../Str2Value.c **** 
 717:/home/hkh/git/eapidk-code-r76-trunk/apps/EeePProg/linux/../Str2Value.c ****   return StatusCode;
 3090              		.loc 1 717 10
 3091 1bcc 14301BE5 		ldr	r3, [fp, #-20]
 718:/home/hkh/git/eapidk-code-r76-trunk/apps/EeePProg/linux/../Str2Value.c **** }
 3092              		.loc 1 718 1
 3093 1bd0 0300A0E1 		mov	r0, r3
 3094 1bd4 04D04BE2 		sub	sp, fp, #4
 3095              		.cfi_def_cfa 13, 8
 3096              		@ sp needed
 3097 1bd8 0088BDE8 		pop	{fp, pc}
 3098              	.L155:
 3099              		.align	2
 3100              	.L154:
 3101 1bdc B0070000 		.word	.LC62-(.LPIC107+8)
 3102 1be0 AC020000 		.word	.LC4-(.LPIC108+8)
 3103 1be4 78070000 		.word	.LC61-(.LPIC109+8)
 3104 1be8 38020000 		.word	.LC2-(.LPIC110+8)
 3105 1bec 7C070000 		.word	.LC63-(.LPIC111+8)
 3106 1bf0 64020000 		.word	.LC4-(.LPIC112+8)
 3107 1bf4 30070000 		.word	.LC61-(.LPIC113+8)
 3108 1bf8 F0010000 		.word	.LC2-(.LPIC114+8)
 3109 1bfc AC010000 		.word	cszEnvEndMarker-(.LPIC115+8)
 3110 1c00 38070000 		.word	.LC64-(.LPIC116+8)
 3111 1c04 DC060000 		.word	.LC61-(.LPIC117+8)
 3112 1c08 9C010000 		.word	.LC2-(.LPIC118+8)
 3113 1c0c 04030000 		.word	.LC13-(.LPIC119+8)
 3114 1c10 E4010000 		.word	.LC4-(.LPIC120+8)
 3115 1c14 B0060000 		.word	.LC61-(.LPIC121+8)
 3116 1c18 70010000 		.word	.LC2-(.LPIC122+8)
 3117 1c1c 94060000 		.word	.LC65-(.LPIC123+8)
 3118 1c20 48010000 		.word	.LC4-(.LPIC124+8)
 3119 1c24 38010000 		.word	.LC5-(.LPIC125+8)
 3120 1c28 D4000000 		.word	.LC2-(.LPIC126+8)
 3121 1c2c 90000000 		.word	cszEnvStartMarker-(.LPIC127+8)
 3122              		.cfi_endproc
 3123              	.LFE11:
 3125              		.section	.rodata
 3126 060e 0000     		.align	2
 3127              	.LC66:
 3128 0610 45787061 		.ascii	"ExpandMacros\000"
 3128      6E644D61 
 3128      63726F73 
 3128      00
 3129 061d 000000   		.align	2
 3130              	.LC67:
 3131 0620 28704D61 		.ascii	"(pMacros==NULL)\000"
 3131      63726F73 
 3131      3D3D4E55 
 3131      4C4C2900 
 3132              		.align	2
 3133              	.LC68:
 3134 0630 5265706C 		.ascii	"ReplaceSubStr(pStrDesc, szVarPosS - pStrDesc->szStr"
 3134      61636553 
 3134      75625374 
ARM GAS  /tmp/ccG9b1tU.s 			page 71


 3134      72287053 
 3134      74724465 
 3135 0663 2C20737A 		.ascii	", szVarPosS - pStrDesc->szStr + stMacroLen, pCurMac"
 3135      56617250 
 3135      6F735320 
 3135      2D207053 
 3135      74724465 
 3136 0696 726F2D3E 		.ascii	"ro->cszMacroValue)\000"
 3136      63737A4D 
 3136      6163726F 
 3136      56616C75 
 3136      652900
 3137              		.text
 3138              		.align	2
 3139              		.global	ExpandMacros
 3140              		.syntax unified
 3141              		.arm
 3142              		.fpu vfpv3
 3144              	ExpandMacros:
 3145              	.LFB12:
 719:/home/hkh/git/eapidk-code-r76-trunk/apps/EeePProg/linux/../Str2Value.c **** 
 720:/home/hkh/git/eapidk-code-r76-trunk/apps/EeePProg/linux/../Str2Value.c **** 
 721:/home/hkh/git/eapidk-code-r76-trunk/apps/EeePProg/linux/../Str2Value.c **** 
 722:/home/hkh/git/eapidk-code-r76-trunk/apps/EeePProg/linux/../Str2Value.c **** EApiStatus_t
 723:/home/hkh/git/eapidk-code-r76-trunk/apps/EeePProg/linux/../Str2Value.c **** ExpandMacros(
 724:/home/hkh/git/eapidk-code-r76-trunk/apps/EeePProg/linux/../Str2Value.c ****     __IN  DStrDesc_t   *pStrDesc,
 725:/home/hkh/git/eapidk-code-r76-trunk/apps/EeePProg/linux/../Str2Value.c ****     __IN  MacroList_t  *pMacros
 726:/home/hkh/git/eapidk-code-r76-trunk/apps/EeePProg/linux/../Str2Value.c ****   )
 727:/home/hkh/git/eapidk-code-r76-trunk/apps/EeePProg/linux/../Str2Value.c **** {
 3146              		.loc 1 727 1
 3147              		.cfi_startproc
 3148              		@ args = 0, pretend = 0, frame = 32
 3149              		@ frame_needed = 1, uses_anonymous_args = 0
 3150 1c30 00482DE9 		push	{fp, lr}
 3151              		.cfi_def_cfa_offset 8
 3152              		.cfi_offset 11, -8
 3153              		.cfi_offset 14, -4
 3154 1c34 04B08DE2 		add	fp, sp, #4
 3155              		.cfi_def_cfa 11, 4
 3156 1c38 30D04DE2 		sub	sp, sp, #48
 3157 1c3c 20000BE5 		str	r0, [fp, #-32]
 3158 1c40 24100BE5 		str	r1, [fp, #-36]
 3159              		.loc 1 727 1
 3160 1c44 24229FE5 		ldr	r2, .L165
 3161              	.LPIC144:
 3162 1c48 02208FE0 		add	r2, pc, r2
 3163 1c4c 20329FE5 		ldr	r3, .L165+4
 3164 1c50 033092E7 		ldr	r3, [r2, r3]
 3165 1c54 003093E5 		ldr	r3, [r3]
 3166 1c58 08300BE5 		str	r3, [fp, #-8]
 3167 1c5c 0030A0E3 		mov	r3, #0
 728:/home/hkh/git/eapidk-code-r76-trunk/apps/EeePProg/linux/../Str2Value.c ****   EApiStatus_t StatusCode=EAPI_STATUS_SUCCESS;
 3168              		.loc 1 728 16
 3169 1c60 0030A0E3 		mov	r3, #0
 3170 1c64 14300BE5 		str	r3, [fp, #-20]
 729:/home/hkh/git/eapidk-code-r76-trunk/apps/EeePProg/linux/../Str2Value.c ****   char *szVarPosS;
 730:/home/hkh/git/eapidk-code-r76-trunk/apps/EeePProg/linux/../Str2Value.c ****   size_t stMacroLen;
ARM GAS  /tmp/ccG9b1tU.s 			page 72


 731:/home/hkh/git/eapidk-code-r76-trunk/apps/EeePProg/linux/../Str2Value.c ****   const MacroItem_t *pCurMacro;
 732:/home/hkh/git/eapidk-code-r76-trunk/apps/EeePProg/linux/../Str2Value.c ****   EAPI_APP_ASSERT_PARAMATER_NULL(
 3171              		.loc 1 732 3
 3172 1c68 20301BE5 		ldr	r3, [fp, #-32]
 3173 1c6c 000053E3 		cmp	r3, #0
 3174 1c70 1100001A 		bne	.L157
 3175              		.loc 1 732 3 is_stmt 0 discriminator 1
 3176 1c74 FC319FE5 		ldr	r3, .L165+8
 3177              	.LPIC128:
 3178 1c78 03308FE0 		add	r3, pc, r3
 3179 1c7c 08308DE5 		str	r3, [sp, #8]
 3180 1c80 F4319FE5 		ldr	r3, .L165+12
 3181              	.LPIC129:
 3182 1c84 03308FE0 		add	r3, pc, r3
 3183 1c88 04308DE5 		str	r3, [sp, #4]
 3184 1c8c 013CE0E3 		mvn	r3, #256
 3185 1c90 00308DE5 		str	r3, [sp]
 3186 1c94 B73FA0E3 		mov	r3, #732
 3187 1c98 E0219FE5 		ldr	r2, .L165+16
 3188              	.LPIC130:
 3189 1c9c 02208FE0 		add	r2, pc, r2
 3190 1ca0 DC119FE5 		ldr	r1, .L165+20
 3191              	.LPIC131:
 3192 1ca4 01108FE0 		add	r1, pc, r1
 3193 1ca8 4500A0E3 		mov	r0, #69
 3194 1cac FEFFFFEB 		bl	siFormattedMessage_SC(PLT)
 3195 1cb0 013CE0E3 		mvn	r3, #256
 3196 1cb4 14300BE5 		str	r3, [fp, #-20]
 3197 1cb8 5E0000EA 		b	.L158
 3198              	.L157:
 733:/home/hkh/git/eapidk-code-r76-trunk/apps/EeePProg/linux/../Str2Value.c ****       ExpandMacros, 
 734:/home/hkh/git/eapidk-code-r76-trunk/apps/EeePProg/linux/../Str2Value.c ****       EAPI_STATUS_INVALID_PARAMETER, 
 735:/home/hkh/git/eapidk-code-r76-trunk/apps/EeePProg/linux/../Str2Value.c ****       pStrDesc
 736:/home/hkh/git/eapidk-code-r76-trunk/apps/EeePProg/linux/../Str2Value.c ****     );
 737:/home/hkh/git/eapidk-code-r76-trunk/apps/EeePProg/linux/../Str2Value.c ****   EAPI_APP_ASSERT_PARAMATER_NULL(
 3199              		.loc 1 737 3 is_stmt 1
 3200 1cbc 20301BE5 		ldr	r3, [fp, #-32]
 3201 1cc0 003093E5 		ldr	r3, [r3]
 3202 1cc4 000053E3 		cmp	r3, #0
 3203 1cc8 1100001A 		bne	.L159
 3204              		.loc 1 737 3 is_stmt 0 discriminator 1
 3205 1ccc B4319FE5 		ldr	r3, .L165+24
 3206              	.LPIC132:
 3207 1cd0 03308FE0 		add	r3, pc, r3
 3208 1cd4 08308DE5 		str	r3, [sp, #8]
 3209 1cd8 AC319FE5 		ldr	r3, .L165+28
 3210              	.LPIC133:
 3211 1cdc 03308FE0 		add	r3, pc, r3
 3212 1ce0 04308DE5 		str	r3, [sp, #4]
 3213 1ce4 013CE0E3 		mvn	r3, #256
 3214 1ce8 00308DE5 		str	r3, [sp]
 3215 1cec E13200E3 		movw	r3, #737
 3216 1cf0 98219FE5 		ldr	r2, .L165+32
 3217              	.LPIC134:
 3218 1cf4 02208FE0 		add	r2, pc, r2
 3219 1cf8 94119FE5 		ldr	r1, .L165+36
 3220              	.LPIC135:
ARM GAS  /tmp/ccG9b1tU.s 			page 73


 3221 1cfc 01108FE0 		add	r1, pc, r1
 3222 1d00 4500A0E3 		mov	r0, #69
 3223 1d04 FEFFFFEB 		bl	siFormattedMessage_SC(PLT)
 3224 1d08 013CE0E3 		mvn	r3, #256
 3225 1d0c 14300BE5 		str	r3, [fp, #-20]
 3226 1d10 480000EA 		b	.L158
 3227              	.L159:
 738:/home/hkh/git/eapidk-code-r76-trunk/apps/EeePProg/linux/../Str2Value.c ****       ExpandMacros, 
 739:/home/hkh/git/eapidk-code-r76-trunk/apps/EeePProg/linux/../Str2Value.c ****       EAPI_STATUS_INVALID_PARAMETER, 
 740:/home/hkh/git/eapidk-code-r76-trunk/apps/EeePProg/linux/../Str2Value.c ****       pStrDesc->szStr
 741:/home/hkh/git/eapidk-code-r76-trunk/apps/EeePProg/linux/../Str2Value.c ****     );
 742:/home/hkh/git/eapidk-code-r76-trunk/apps/EeePProg/linux/../Str2Value.c ****   EAPI_APP_ASSERT_PARAMATER_NULL(
 3228              		.loc 1 742 3 is_stmt 1
 3229 1d14 24301BE5 		ldr	r3, [fp, #-36]
 3230 1d18 000053E3 		cmp	r3, #0
 3231 1d1c 3A00001A 		bne	.L161
 3232              		.loc 1 742 3 is_stmt 0 discriminator 1
 3233 1d20 70319FE5 		ldr	r3, .L165+40
 3234              	.LPIC136:
 3235 1d24 03308FE0 		add	r3, pc, r3
 3236 1d28 08308DE5 		str	r3, [sp, #8]
 3237 1d2c 68319FE5 		ldr	r3, .L165+44
 3238              	.LPIC137:
 3239 1d30 03308FE0 		add	r3, pc, r3
 3240 1d34 04308DE5 		str	r3, [sp, #4]
 3241 1d38 013CE0E3 		mvn	r3, #256
 3242 1d3c 00308DE5 		str	r3, [sp]
 3243 1d40 E63200E3 		movw	r3, #742
 3244 1d44 54219FE5 		ldr	r2, .L165+48
 3245              	.LPIC138:
 3246 1d48 02208FE0 		add	r2, pc, r2
 3247 1d4c 50119FE5 		ldr	r1, .L165+52
 3248              	.LPIC139:
 3249 1d50 01108FE0 		add	r1, pc, r1
 3250 1d54 4500A0E3 		mov	r0, #69
 3251 1d58 FEFFFFEB 		bl	siFormattedMessage_SC(PLT)
 3252 1d5c 013CE0E3 		mvn	r3, #256
 3253 1d60 14300BE5 		str	r3, [fp, #-20]
 3254 1d64 330000EA 		b	.L158
 3255              	.L162:
 743:/home/hkh/git/eapidk-code-r76-trunk/apps/EeePProg/linux/../Str2Value.c ****       ExpandMacros, 
 744:/home/hkh/git/eapidk-code-r76-trunk/apps/EeePProg/linux/../Str2Value.c ****       EAPI_STATUS_INVALID_PARAMETER, 
 745:/home/hkh/git/eapidk-code-r76-trunk/apps/EeePProg/linux/../Str2Value.c ****       pMacros
 746:/home/hkh/git/eapidk-code-r76-trunk/apps/EeePProg/linux/../Str2Value.c ****     );
 747:/home/hkh/git/eapidk-code-r76-trunk/apps/EeePProg/linux/../Str2Value.c ****   while((szVarPosS=szFindWord(pStrDesc->szStr, pMacros, &pCurMacro))!=NULL){
 748:/home/hkh/git/eapidk-code-r76-trunk/apps/EeePProg/linux/../Str2Value.c ****     /*
 749:/home/hkh/git/eapidk-code-r76-trunk/apps/EeePProg/linux/../Str2Value.c ****     * So we found the first occurance of our MACRO.
 750:/home/hkh/git/eapidk-code-r76-trunk/apps/EeePProg/linux/../Str2Value.c ****     */
 751:/home/hkh/git/eapidk-code-r76-trunk/apps/EeePProg/linux/../Str2Value.c **** #ifdef TEST_EQUPARSER
 752:/home/hkh/git/eapidk-code-r76-trunk/apps/EeePProg/linux/../Str2Value.c ****     siFormattedMessage_M2('D', __FILE__, "ExpandMacros", __LINE__, "",
 753:/home/hkh/git/eapidk-code-r76-trunk/apps/EeePProg/linux/../Str2Value.c ****               "%s\n", pStrDesc->szStr );
 754:/home/hkh/git/eapidk-code-r76-trunk/apps/EeePProg/linux/../Str2Value.c **** #endif
 755:/home/hkh/git/eapidk-code-r76-trunk/apps/EeePProg/linux/../Str2Value.c ****     stMacroLen=strlen(pCurMacro->cszMacroName);
 3256              		.loc 1 755 32 is_stmt 1
 3257 1d68 18301BE5 		ldr	r3, [fp, #-24]
 3258 1d6c 003093E5 		ldr	r3, [r3]
 3259              		.loc 1 755 16
ARM GAS  /tmp/ccG9b1tU.s 			page 74


 3260 1d70 0300A0E1 		mov	r0, r3
 3261 1d74 FEFFFFEB 		bl	strlen(PLT)
 3262 1d78 0C000BE5 		str	r0, [fp, #-12]
 756:/home/hkh/git/eapidk-code-r76-trunk/apps/EeePProg/linux/../Str2Value.c **** 
 757:/home/hkh/git/eapidk-code-r76-trunk/apps/EeePProg/linux/../Str2Value.c ****     DO(ReplaceSubStr(pStrDesc, szVarPosS - pStrDesc->szStr, szVarPosS - pStrDesc->szStr + stMacroLe
 3263              		.loc 1 757 5
 3264 1d7c 20301BE5 		ldr	r3, [fp, #-32]
 3265 1d80 003093E5 		ldr	r3, [r3]
 3266 1d84 10201BE5 		ldr	r2, [fp, #-16]
 3267 1d88 033042E0 		sub	r3, r2, r3
 3268 1d8c 0310A0E1 		mov	r1, r3
 3269 1d90 20301BE5 		ldr	r3, [fp, #-32]
 3270 1d94 003093E5 		ldr	r3, [r3]
 3271 1d98 10201BE5 		ldr	r2, [fp, #-16]
 3272 1d9c 033042E0 		sub	r3, r2, r3
 3273 1da0 0320A0E1 		mov	r2, r3
 3274 1da4 0C301BE5 		ldr	r3, [fp, #-12]
 3275 1da8 032082E0 		add	r2, r2, r3
 3276 1dac 18301BE5 		ldr	r3, [fp, #-24]
 3277 1db0 043093E5 		ldr	r3, [r3, #4]
 3278 1db4 20001BE5 		ldr	r0, [fp, #-32]
 3279 1db8 FEFFFFEB 		bl	ReplaceSubStr(PLT)
 3280 1dbc 14000BE5 		str	r0, [fp, #-20]
 3281 1dc0 14301BE5 		ldr	r3, [fp, #-20]
 3282 1dc4 000053E3 		cmp	r3, #0
 3283 1dc8 0F00000A 		beq	.L161
 3284              		.loc 1 757 5 is_stmt 0 discriminator 1
 3285 1dcc D4309FE5 		ldr	r3, .L165+56
 3286              	.LPIC140:
 3287 1dd0 03308FE0 		add	r3, pc, r3
 3288 1dd4 08308DE5 		str	r3, [sp, #8]
 3289 1dd8 CC309FE5 		ldr	r3, .L165+60
 3290              	.LPIC141:
 3291 1ddc 03308FE0 		add	r3, pc, r3
 3292 1de0 04308DE5 		str	r3, [sp, #4]
 3293 1de4 14301BE5 		ldr	r3, [fp, #-20]
 3294 1de8 00308DE5 		str	r3, [sp]
 3295 1dec F53200E3 		movw	r3, #757
 3296 1df0 B8209FE5 		ldr	r2, .L165+64
 3297              	.LPIC142:
 3298 1df4 02208FE0 		add	r2, pc, r2
 3299 1df8 B4109FE5 		ldr	r1, .L165+68
 3300              	.LPIC143:
 3301 1dfc 01108FE0 		add	r1, pc, r1
 3302 1e00 4500A0E3 		mov	r0, #69
 3303 1e04 FEFFFFEB 		bl	siFormattedMessage_SC(PLT)
 3304 1e08 0A0000EA 		b	.L158
 3305              	.L161:
 747:/home/hkh/git/eapidk-code-r76-trunk/apps/EeePProg/linux/../Str2Value.c ****     /*
 3306              		.loc 1 747 39 is_stmt 1
 3307 1e0c 20301BE5 		ldr	r3, [fp, #-32]
 3308 1e10 003093E5 		ldr	r3, [r3]
 747:/home/hkh/git/eapidk-code-r76-trunk/apps/EeePProg/linux/../Str2Value.c ****     /*
 3309              		.loc 1 747 20
 3310 1e14 18204BE2 		sub	r2, fp, #24
 3311 1e18 24101BE5 		ldr	r1, [fp, #-36]
 3312 1e1c 0300A0E1 		mov	r0, r3
ARM GAS  /tmp/ccG9b1tU.s 			page 75


 3313 1e20 FEFFFFEB 		bl	szFindWord(PLT)
 3314 1e24 10000BE5 		str	r0, [fp, #-16]
 747:/home/hkh/git/eapidk-code-r76-trunk/apps/EeePProg/linux/../Str2Value.c ****     /*
 3315              		.loc 1 747 69
 3316 1e28 10301BE5 		ldr	r3, [fp, #-16]
 3317 1e2c 000053E3 		cmp	r3, #0
 3318 1e30 CCFFFF1A 		bne	.L162
 758:/home/hkh/git/eapidk-code-r76-trunk/apps/EeePProg/linux/../Str2Value.c ****   }
 759:/home/hkh/git/eapidk-code-r76-trunk/apps/EeePProg/linux/../Str2Value.c **** 
 760:/home/hkh/git/eapidk-code-r76-trunk/apps/EeePProg/linux/../Str2Value.c **** 
 761:/home/hkh/git/eapidk-code-r76-trunk/apps/EeePProg/linux/../Str2Value.c **** #ifdef TEST_EQUPARSER
 762:/home/hkh/git/eapidk-code-r76-trunk/apps/EeePProg/linux/../Str2Value.c **** /*   siFormattedMessage_M2('D', __FILE__, "ExpandEnviromentVariables", __LINE__, "", */
 763:/home/hkh/git/eapidk-code-r76-trunk/apps/EeePProg/linux/../Str2Value.c **** /*               "%s\n", szLclBuf ); */
 764:/home/hkh/git/eapidk-code-r76-trunk/apps/EeePProg/linux/../Str2Value.c **** #endif
 765:/home/hkh/git/eapidk-code-r76-trunk/apps/EeePProg/linux/../Str2Value.c ****   EAPI_APP_EXIT;
 3319              		.loc 1 765 3
 3320 1e34 00F020E3 		nop
 3321              	.L158:
 766:/home/hkh/git/eapidk-code-r76-trunk/apps/EeePProg/linux/../Str2Value.c **** 
 767:/home/hkh/git/eapidk-code-r76-trunk/apps/EeePProg/linux/../Str2Value.c **** EAPI_APP_ASSERT_EXIT
 768:/home/hkh/git/eapidk-code-r76-trunk/apps/EeePProg/linux/../Str2Value.c **** 
 769:/home/hkh/git/eapidk-code-r76-trunk/apps/EeePProg/linux/../Str2Value.c **** 
 770:/home/hkh/git/eapidk-code-r76-trunk/apps/EeePProg/linux/../Str2Value.c ****   return StatusCode;
 3322              		.loc 1 770 10
 3323 1e38 14301BE5 		ldr	r3, [fp, #-20]
 727:/home/hkh/git/eapidk-code-r76-trunk/apps/EeePProg/linux/../Str2Value.c ****   EApiStatus_t StatusCode=EAPI_STATUS_SUCCESS;
 3324              		.loc 1 727 1
 3325 1e3c 74109FE5 		ldr	r1, .L165+72
 3326              	.LPIC145:
 3327 1e40 01108FE0 		add	r1, pc, r1
 771:/home/hkh/git/eapidk-code-r76-trunk/apps/EeePProg/linux/../Str2Value.c **** }
 3328              		.loc 1 771 1
 3329 1e44 28209FE5 		ldr	r2, .L165+4
 3330 1e48 022091E7 		ldr	r2, [r1, r2]
 3331 1e4c 001092E5 		ldr	r1, [r2]
 3332 1e50 08201BE5 		ldr	r2, [fp, #-8]
 3333 1e54 011032E0 		eors	r1, r2, r1
 3334 1e58 0020A0E3 		mov	r2, #0
 3335 1e5c 0000000A 		beq	.L164
 3336 1e60 FEFFFFEB 		bl	__stack_chk_fail(PLT)
 3337              	.L164:
 3338 1e64 0300A0E1 		mov	r0, r3
 3339 1e68 04D04BE2 		sub	sp, fp, #4
 3340              		.cfi_def_cfa 13, 8
 3341              		@ sp needed
 3342 1e6c 0088BDE8 		pop	{fp, pc}
 3343              	.L166:
 3344              		.align	2
 3345              	.L165:
 3346 1e70 20020000 		.word	_GLOBAL_OFFSET_TABLE_-(.LPIC144+8)
 3347 1e74 00000000 		.word	__stack_chk_guard(GOT)
 3348 1e78 60070000 		.word	.LC62-(.LPIC128+8)
 3349 1e7c 5C020000 		.word	.LC4-(.LPIC129+8)
 3350 1e80 EC070000 		.word	.LC66-(.LPIC130+8)
 3351 1e84 E8010000 		.word	.LC2-(.LPIC131+8)
 3352 1e88 2C070000 		.word	.LC63-(.LPIC132+8)
 3353 1e8c 14020000 		.word	.LC4-(.LPIC133+8)
ARM GAS  /tmp/ccG9b1tU.s 			page 76


 3354 1e90 A4070000 		.word	.LC66-(.LPIC134+8)
 3355 1e94 A0010000 		.word	.LC2-(.LPIC135+8)
 3356 1e98 8C070000 		.word	.LC67-(.LPIC136+8)
 3357 1e9c D0010000 		.word	.LC4-(.LPIC137+8)
 3358 1ea0 60070000 		.word	.LC66-(.LPIC138+8)
 3359 1ea4 5C010000 		.word	.LC2-(.LPIC139+8)
 3360 1ea8 00070000 		.word	.LC68-(.LPIC140+8)
 3361 1eac 34010000 		.word	.LC4-(.LPIC141+8)
 3362 1eb0 24010000 		.word	.LC5-(.LPIC142+8)
 3363 1eb4 C0000000 		.word	.LC2-(.LPIC143+8)
 3364 1eb8 70000000 		.word	_GLOBAL_OFFSET_TABLE_-(.LPIC145+8)
 3365              		.cfi_endproc
 3366              	.LFE12:
 3368              		.section	.rodata
 3369 06a9 000000   		.align	2
 3370              	.LC69:
 3371 06ac 50617273 		.ascii	"ParseAsciiEqu\000"
 3371      65417363 
 3371      69694571 
 3371      7500
 3372 06ba 0000     		.align	2
 3373              	.LC70:
 3374 06bc 2863737A 		.ascii	"(cszString==NULL)\000"
 3374      53747269 
 3374      6E673D3D 
 3374      4E554C4C 
 3374      2900
 3375 06ce 0000     		.align	2
 3376              	.LC71:
 3377 06d0 2870736C 		.ascii	"(psllValue==NULL)\000"
 3377      6C56616C 
 3377      75653D3D 
 3377      4E554C4C 
 3377      2900
 3378 06e2 0000     		.align	2
 3379              	.LC72:
 3380 06e4 496E6974 		.ascii	"InitStrDesc(&lclStrDesc, cszString)\000"
 3380      53747244 
 3380      65736328 
 3380      266C636C 
 3380      53747244 
 3381              		.align	2
 3382              	.LC73:
 3383 0708 45787061 		.ascii	"ExpandEnviromentVariables(&lclStrDesc)\000"
 3383      6E64456E 
 3383      7669726F 
 3383      6D656E74 
 3383      56617269 
 3384 072f 00       		.align	2
 3385              	.LC74:
 3386 0730 45787061 		.ascii	"ExpandMacros(&lclStrDesc, pMacros)\000"
 3386      6E644D61 
 3386      63726F73 
 3386      28266C63 
 3386      6C537472 
 3387 0753 00       		.align	2
 3388              	.LC75:
ARM GAS  /tmp/ccG9b1tU.s 			page 77


 3389 0754 50617273 		.ascii	"ParseAsciiEqu_1(&lclStrDesc, psllValue)\000"
 3389      65417363 
 3389      69694571 
 3389      755F3128 
 3389      266C636C 
 3390              		.text
 3391              		.align	2
 3392              		.global	ParseAsciiEquEx
 3393              		.syntax unified
 3394              		.arm
 3395              		.fpu vfpv3
 3397              	ParseAsciiEquEx:
 3398              	.LFB13:
 772:/home/hkh/git/eapidk-code-r76-trunk/apps/EeePProg/linux/../Str2Value.c **** 
 773:/home/hkh/git/eapidk-code-r76-trunk/apps/EeePProg/linux/../Str2Value.c **** 
 774:/home/hkh/git/eapidk-code-r76-trunk/apps/EeePProg/linux/../Str2Value.c **** 
 775:/home/hkh/git/eapidk-code-r76-trunk/apps/EeePProg/linux/../Str2Value.c **** 
 776:/home/hkh/git/eapidk-code-r76-trunk/apps/EeePProg/linux/../Str2Value.c **** 
 777:/home/hkh/git/eapidk-code-r76-trunk/apps/EeePProg/linux/../Str2Value.c **** 
 778:/home/hkh/git/eapidk-code-r76-trunk/apps/EeePProg/linux/../Str2Value.c **** 
 779:/home/hkh/git/eapidk-code-r76-trunk/apps/EeePProg/linux/../Str2Value.c **** 
 780:/home/hkh/git/eapidk-code-r76-trunk/apps/EeePProg/linux/../Str2Value.c **** 
 781:/home/hkh/git/eapidk-code-r76-trunk/apps/EeePProg/linux/../Str2Value.c **** EApiStatus_t
 782:/home/hkh/git/eapidk-code-r76-trunk/apps/EeePProg/linux/../Str2Value.c **** ParseAsciiEquEx(
 783:/home/hkh/git/eapidk-code-r76-trunk/apps/EeePProg/linux/../Str2Value.c ****     __IN  const char       *cszString,
 784:/home/hkh/git/eapidk-code-r76-trunk/apps/EeePProg/linux/../Str2Value.c ****     __IN  MacroList_t      *pMacros  ,
 785:/home/hkh/git/eapidk-code-r76-trunk/apps/EeePProg/linux/../Str2Value.c ****     __OUT signed long long *psllValue
 786:/home/hkh/git/eapidk-code-r76-trunk/apps/EeePProg/linux/../Str2Value.c ****   )
 787:/home/hkh/git/eapidk-code-r76-trunk/apps/EeePProg/linux/../Str2Value.c **** {
 3399              		.loc 1 787 1
 3400              		.cfi_startproc
 3401              		@ args = 0, pretend = 0, frame = 40
 3402              		@ frame_needed = 1, uses_anonymous_args = 0
 3403 1ebc 00482DE9 		push	{fp, lr}
 3404              		.cfi_def_cfa_offset 8
 3405              		.cfi_offset 11, -8
 3406              		.cfi_offset 14, -4
 3407 1ec0 04B08DE2 		add	fp, sp, #4
 3408              		.cfi_def_cfa 11, 4
 3409 1ec4 38D04DE2 		sub	sp, sp, #56
 3410 1ec8 20000BE5 		str	r0, [fp, #-32]
 3411 1ecc 24100BE5 		str	r1, [fp, #-36]
 3412 1ed0 28200BE5 		str	r2, [fp, #-40]
 3413              		.loc 1 787 1
 3414 1ed4 B4229FE5 		ldr	r2, .L177
 3415              	.LPIC170:
 3416 1ed8 02208FE0 		add	r2, pc, r2
 3417 1edc B0329FE5 		ldr	r3, .L177+4
 3418 1ee0 033092E7 		ldr	r3, [r2, r3]
 3419 1ee4 003093E5 		ldr	r3, [r3]
 3420 1ee8 08300BE5 		str	r3, [fp, #-8]
 3421 1eec 0030A0E3 		mov	r3, #0
 788:/home/hkh/git/eapidk-code-r76-trunk/apps/EeePProg/linux/../Str2Value.c ****   EApiStatus_t StatusCode;
 789:/home/hkh/git/eapidk-code-r76-trunk/apps/EeePProg/linux/../Str2Value.c ****   DStrDesc_t lclStrDesc={NULL, 0, 0};
 3422              		.loc 1 789 14
 3423 1ef0 0030A0E3 		mov	r3, #0
 3424 1ef4 14300BE5 		str	r3, [fp, #-20]
ARM GAS  /tmp/ccG9b1tU.s 			page 78


 3425 1ef8 0030A0E3 		mov	r3, #0
 3426 1efc 10300BE5 		str	r3, [fp, #-16]
 3427 1f00 0030A0E3 		mov	r3, #0
 3428 1f04 0C300BE5 		str	r3, [fp, #-12]
 790:/home/hkh/git/eapidk-code-r76-trunk/apps/EeePProg/linux/../Str2Value.c ****   EAPI_APP_ASSERT_PARAMATER_NULL(
 3429              		.loc 1 790 3
 3430 1f08 20301BE5 		ldr	r3, [fp, #-32]
 3431 1f0c 000053E3 		cmp	r3, #0
 3432 1f10 1100001A 		bne	.L168
 3433              		.loc 1 790 3 is_stmt 0 discriminator 1
 3434 1f14 7C329FE5 		ldr	r3, .L177+8
 3435              	.LPIC146:
 3436 1f18 03308FE0 		add	r3, pc, r3
 3437 1f1c 08308DE5 		str	r3, [sp, #8]
 3438 1f20 74329FE5 		ldr	r3, .L177+12
 3439              	.LPIC147:
 3440 1f24 03308FE0 		add	r3, pc, r3
 3441 1f28 04308DE5 		str	r3, [sp, #4]
 3442 1f2c 013CE0E3 		mvn	r3, #256
 3443 1f30 00308DE5 		str	r3, [sp]
 3444 1f34 163300E3 		movw	r3, #790
 3445 1f38 60229FE5 		ldr	r2, .L177+16
 3446              	.LPIC148:
 3447 1f3c 02208FE0 		add	r2, pc, r2
 3448 1f40 5C129FE5 		ldr	r1, .L177+20
 3449              	.LPIC149:
 3450 1f44 01108FE0 		add	r1, pc, r1
 3451 1f48 4500A0E3 		mov	r0, #69
 3452 1f4c FEFFFFEB 		bl	siFormattedMessage_SC(PLT)
 3453 1f50 013CE0E3 		mvn	r3, #256
 3454 1f54 18300BE5 		str	r3, [fp, #-24]
 3455 1f58 7B0000EA 		b	.L169
 3456              	.L168:
 791:/home/hkh/git/eapidk-code-r76-trunk/apps/EeePProg/linux/../Str2Value.c ****       ParseAsciiEqu, 
 792:/home/hkh/git/eapidk-code-r76-trunk/apps/EeePProg/linux/../Str2Value.c ****       EAPI_STATUS_INVALID_PARAMETER, 
 793:/home/hkh/git/eapidk-code-r76-trunk/apps/EeePProg/linux/../Str2Value.c ****       cszString
 794:/home/hkh/git/eapidk-code-r76-trunk/apps/EeePProg/linux/../Str2Value.c ****     );
 795:/home/hkh/git/eapidk-code-r76-trunk/apps/EeePProg/linux/../Str2Value.c ****   EAPI_APP_ASSERT_PARAMATER_NULL(
 3457              		.loc 1 795 3 is_stmt 1
 3458 1f5c 28301BE5 		ldr	r3, [fp, #-40]
 3459 1f60 000053E3 		cmp	r3, #0
 3460 1f64 1100001A 		bne	.L170
 3461              		.loc 1 795 3 is_stmt 0 discriminator 1
 3462 1f68 38329FE5 		ldr	r3, .L177+24
 3463              	.LPIC150:
 3464 1f6c 03308FE0 		add	r3, pc, r3
 3465 1f70 08308DE5 		str	r3, [sp, #8]
 3466 1f74 30329FE5 		ldr	r3, .L177+28
 3467              	.LPIC151:
 3468 1f78 03308FE0 		add	r3, pc, r3
 3469 1f7c 04308DE5 		str	r3, [sp, #4]
 3470 1f80 013CE0E3 		mvn	r3, #256
 3471 1f84 00308DE5 		str	r3, [sp]
 3472 1f88 1B3300E3 		movw	r3, #795
 3473 1f8c 1C229FE5 		ldr	r2, .L177+32
 3474              	.LPIC152:
 3475 1f90 02208FE0 		add	r2, pc, r2
ARM GAS  /tmp/ccG9b1tU.s 			page 79


 3476 1f94 18129FE5 		ldr	r1, .L177+36
 3477              	.LPIC153:
 3478 1f98 01108FE0 		add	r1, pc, r1
 3479 1f9c 4500A0E3 		mov	r0, #69
 3480 1fa0 FEFFFFEB 		bl	siFormattedMessage_SC(PLT)
 3481 1fa4 013CE0E3 		mvn	r3, #256
 3482 1fa8 18300BE5 		str	r3, [fp, #-24]
 3483 1fac 660000EA 		b	.L169
 3484              	.L170:
 796:/home/hkh/git/eapidk-code-r76-trunk/apps/EeePProg/linux/../Str2Value.c ****       ParseAsciiEqu, 
 797:/home/hkh/git/eapidk-code-r76-trunk/apps/EeePProg/linux/../Str2Value.c ****       EAPI_STATUS_INVALID_PARAMETER, 
 798:/home/hkh/git/eapidk-code-r76-trunk/apps/EeePProg/linux/../Str2Value.c ****       psllValue
 799:/home/hkh/git/eapidk-code-r76-trunk/apps/EeePProg/linux/../Str2Value.c ****     );
 800:/home/hkh/git/eapidk-code-r76-trunk/apps/EeePProg/linux/../Str2Value.c ****   *psllValue=0;
 3485              		.loc 1 800 13 is_stmt 1
 3486 1fb0 28101BE5 		ldr	r1, [fp, #-40]
 3487 1fb4 0020A0E3 		mov	r2, #0
 3488 1fb8 0030A0E3 		mov	r3, #0
 3489 1fbc F020C1E1 		strd	r2, [r1]
 801:/home/hkh/git/eapidk-code-r76-trunk/apps/EeePProg/linux/../Str2Value.c ****   DO(InitStrDesc(&lclStrDesc, cszString));
 3490              		.loc 1 801 3
 3491 1fc0 14304BE2 		sub	r3, fp, #20
 3492 1fc4 20101BE5 		ldr	r1, [fp, #-32]
 3493 1fc8 0300A0E1 		mov	r0, r3
 3494 1fcc FEFFFFEB 		bl	InitStrDesc(PLT)
 3495 1fd0 18000BE5 		str	r0, [fp, #-24]
 3496 1fd4 18301BE5 		ldr	r3, [fp, #-24]
 3497 1fd8 000053E3 		cmp	r3, #0
 3498 1fdc 0F00000A 		beq	.L171
 3499              		.loc 1 801 3 is_stmt 0 discriminator 1
 3500 1fe0 D0319FE5 		ldr	r3, .L177+40
 3501              	.LPIC154:
 3502 1fe4 03308FE0 		add	r3, pc, r3
 3503 1fe8 08308DE5 		str	r3, [sp, #8]
 3504 1fec C8319FE5 		ldr	r3, .L177+44
 3505              	.LPIC155:
 3506 1ff0 03308FE0 		add	r3, pc, r3
 3507 1ff4 04308DE5 		str	r3, [sp, #4]
 3508 1ff8 18301BE5 		ldr	r3, [fp, #-24]
 3509 1ffc 00308DE5 		str	r3, [sp]
 3510 2000 213300E3 		movw	r3, #801
 3511 2004 B4219FE5 		ldr	r2, .L177+48
 3512              	.LPIC156:
 3513 2008 02208FE0 		add	r2, pc, r2
 3514 200c B0119FE5 		ldr	r1, .L177+52
 3515              	.LPIC157:
 3516 2010 01108FE0 		add	r1, pc, r1
 3517 2014 4500A0E3 		mov	r0, #69
 3518 2018 FEFFFFEB 		bl	siFormattedMessage_SC(PLT)
 3519 201c 4A0000EA 		b	.L169
 3520              	.L171:
 802:/home/hkh/git/eapidk-code-r76-trunk/apps/EeePProg/linux/../Str2Value.c **** #if 1
 803:/home/hkh/git/eapidk-code-r76-trunk/apps/EeePProg/linux/../Str2Value.c ****   DO(ExpandEnviromentVariables(&lclStrDesc));
 3521              		.loc 1 803 3 is_stmt 1
 3522 2020 14304BE2 		sub	r3, fp, #20
 3523 2024 0300A0E1 		mov	r0, r3
 3524 2028 FEFFFFEB 		bl	ExpandEnviromentVariables(PLT)
ARM GAS  /tmp/ccG9b1tU.s 			page 80


 3525 202c 18000BE5 		str	r0, [fp, #-24]
 3526 2030 18301BE5 		ldr	r3, [fp, #-24]
 3527 2034 000053E3 		cmp	r3, #0
 3528 2038 0F00000A 		beq	.L172
 3529              		.loc 1 803 3 is_stmt 0 discriminator 1
 3530 203c 84319FE5 		ldr	r3, .L177+56
 3531              	.LPIC158:
 3532 2040 03308FE0 		add	r3, pc, r3
 3533 2044 08308DE5 		str	r3, [sp, #8]
 3534 2048 7C319FE5 		ldr	r3, .L177+60
 3535              	.LPIC159:
 3536 204c 03308FE0 		add	r3, pc, r3
 3537 2050 04308DE5 		str	r3, [sp, #4]
 3538 2054 18301BE5 		ldr	r3, [fp, #-24]
 3539 2058 00308DE5 		str	r3, [sp]
 3540 205c 233300E3 		movw	r3, #803
 3541 2060 68219FE5 		ldr	r2, .L177+64
 3542              	.LPIC160:
 3543 2064 02208FE0 		add	r2, pc, r2
 3544 2068 64119FE5 		ldr	r1, .L177+68
 3545              	.LPIC161:
 3546 206c 01108FE0 		add	r1, pc, r1
 3547 2070 4500A0E3 		mov	r0, #69
 3548 2074 FEFFFFEB 		bl	siFormattedMessage_SC(PLT)
 3549 2078 330000EA 		b	.L169
 3550              	.L172:
 804:/home/hkh/git/eapidk-code-r76-trunk/apps/EeePProg/linux/../Str2Value.c ****   if(pMacros){
 3551              		.loc 1 804 5 is_stmt 1
 3552 207c 24301BE5 		ldr	r3, [fp, #-36]
 3553 2080 000053E3 		cmp	r3, #0
 3554 2084 1700000A 		beq	.L173
 805:/home/hkh/git/eapidk-code-r76-trunk/apps/EeePProg/linux/../Str2Value.c ****     DO(ExpandMacros(&lclStrDesc, pMacros));
 3555              		.loc 1 805 5
 3556 2088 14304BE2 		sub	r3, fp, #20
 3557 208c 24101BE5 		ldr	r1, [fp, #-36]
 3558 2090 0300A0E1 		mov	r0, r3
 3559 2094 FEFFFFEB 		bl	ExpandMacros(PLT)
 3560 2098 18000BE5 		str	r0, [fp, #-24]
 3561 209c 18301BE5 		ldr	r3, [fp, #-24]
 3562 20a0 000053E3 		cmp	r3, #0
 3563 20a4 0F00000A 		beq	.L173
 3564              		.loc 1 805 5 is_stmt 0 discriminator 1
 3565 20a8 28319FE5 		ldr	r3, .L177+72
 3566              	.LPIC162:
 3567 20ac 03308FE0 		add	r3, pc, r3
 3568 20b0 08308DE5 		str	r3, [sp, #8]
 3569 20b4 20319FE5 		ldr	r3, .L177+76
 3570              	.LPIC163:
 3571 20b8 03308FE0 		add	r3, pc, r3
 3572 20bc 04308DE5 		str	r3, [sp, #4]
 3573 20c0 18301BE5 		ldr	r3, [fp, #-24]
 3574 20c4 00308DE5 		str	r3, [sp]
 3575 20c8 253300E3 		movw	r3, #805
 3576 20cc 0C219FE5 		ldr	r2, .L177+80
 3577              	.LPIC164:
 3578 20d0 02208FE0 		add	r2, pc, r2
 3579 20d4 08119FE5 		ldr	r1, .L177+84
ARM GAS  /tmp/ccG9b1tU.s 			page 81


 3580              	.LPIC165:
 3581 20d8 01108FE0 		add	r1, pc, r1
 3582 20dc 4500A0E3 		mov	r0, #69
 3583 20e0 FEFFFFEB 		bl	siFormattedMessage_SC(PLT)
 3584 20e4 180000EA 		b	.L169
 3585              	.L173:
 806:/home/hkh/git/eapidk-code-r76-trunk/apps/EeePProg/linux/../Str2Value.c ****   }
 807:/home/hkh/git/eapidk-code-r76-trunk/apps/EeePProg/linux/../Str2Value.c **** #endif
 808:/home/hkh/git/eapidk-code-r76-trunk/apps/EeePProg/linux/../Str2Value.c **** #ifdef TEST_EQUPARSER
 809:/home/hkh/git/eapidk-code-r76-trunk/apps/EeePProg/linux/../Str2Value.c ****   siFormattedMessage_M2('D', __FILE__, "ParseAsciiEquEx", __LINE__, "",
 810:/home/hkh/git/eapidk-code-r76-trunk/apps/EeePProg/linux/../Str2Value.c ****               "%s\n", lclStrDesc.szStr );
 811:/home/hkh/git/eapidk-code-r76-trunk/apps/EeePProg/linux/../Str2Value.c **** #endif
 812:/home/hkh/git/eapidk-code-r76-trunk/apps/EeePProg/linux/../Str2Value.c ****   DO(ParseAsciiEqu_1(&lclStrDesc, psllValue));
 3586              		.loc 1 812 3 is_stmt 1
 3587 20e8 14304BE2 		sub	r3, fp, #20
 3588 20ec 28101BE5 		ldr	r1, [fp, #-40]
 3589 20f0 0300A0E1 		mov	r0, r3
 3590 20f4 FEFFFFEB 		bl	ParseAsciiEqu_1(PLT)
 3591 20f8 18000BE5 		str	r0, [fp, #-24]
 3592 20fc 18301BE5 		ldr	r3, [fp, #-24]
 3593 2100 000053E3 		cmp	r3, #0
 3594 2104 0F00000A 		beq	.L176
 3595              		.loc 1 812 3 is_stmt 0 discriminator 1
 3596 2108 D8309FE5 		ldr	r3, .L177+88
 3597              	.LPIC166:
 3598 210c 03308FE0 		add	r3, pc, r3
 3599 2110 08308DE5 		str	r3, [sp, #8]
 3600 2114 D0309FE5 		ldr	r3, .L177+92
 3601              	.LPIC167:
 3602 2118 03308FE0 		add	r3, pc, r3
 3603 211c 04308DE5 		str	r3, [sp, #4]
 3604 2120 18301BE5 		ldr	r3, [fp, #-24]
 3605 2124 00308DE5 		str	r3, [sp]
 3606 2128 CB3FA0E3 		mov	r3, #812
 3607 212c BC209FE5 		ldr	r2, .L177+96
 3608              	.LPIC168:
 3609 2130 02208FE0 		add	r2, pc, r2
 3610 2134 B8109FE5 		ldr	r1, .L177+100
 3611              	.LPIC169:
 3612 2138 01108FE0 		add	r1, pc, r1
 3613 213c 4500A0E3 		mov	r0, #69
 3614 2140 FEFFFFEB 		bl	siFormattedMessage_SC(PLT)
 3615 2144 000000EA 		b	.L169
 3616              	.L176:
 813:/home/hkh/git/eapidk-code-r76-trunk/apps/EeePProg/linux/../Str2Value.c **** EAPI_APP_ASSERT_EXIT
 3617              		.loc 1 813 1 is_stmt 1
 3618 2148 00F020E3 		nop
 3619              	.L169:
 814:/home/hkh/git/eapidk-code-r76-trunk/apps/EeePProg/linux/../Str2Value.c ****   FreeStrDesc(&lclStrDesc);
 3620              		.loc 1 814 3
 3621 214c 14304BE2 		sub	r3, fp, #20
 3622 2150 0300A0E1 		mov	r0, r3
 3623 2154 FEFFFFEB 		bl	FreeStrDesc(PLT)
 815:/home/hkh/git/eapidk-code-r76-trunk/apps/EeePProg/linux/../Str2Value.c ****   return StatusCode;
 3624              		.loc 1 815 10
 3625 2158 18301BE5 		ldr	r3, [fp, #-24]
 787:/home/hkh/git/eapidk-code-r76-trunk/apps/EeePProg/linux/../Str2Value.c ****   EApiStatus_t StatusCode;
ARM GAS  /tmp/ccG9b1tU.s 			page 82


 3626              		.loc 1 787 1
 3627 215c 94109FE5 		ldr	r1, .L177+104
 3628              	.LPIC171:
 3629 2160 01108FE0 		add	r1, pc, r1
 816:/home/hkh/git/eapidk-code-r76-trunk/apps/EeePProg/linux/../Str2Value.c **** }
 3630              		.loc 1 816 1
 3631 2164 28209FE5 		ldr	r2, .L177+4
 3632 2168 022091E7 		ldr	r2, [r1, r2]
 3633 216c 001092E5 		ldr	r1, [r2]
 3634 2170 08201BE5 		ldr	r2, [fp, #-8]
 3635 2174 011032E0 		eors	r1, r2, r1
 3636 2178 0020A0E3 		mov	r2, #0
 3637 217c 0000000A 		beq	.L175
 3638 2180 FEFFFFEB 		bl	__stack_chk_fail(PLT)
 3639              	.L175:
 3640 2184 0300A0E1 		mov	r0, r3
 3641 2188 04D04BE2 		sub	sp, fp, #4
 3642              		.cfi_def_cfa 13, 8
 3643              		@ sp needed
 3644 218c 0088BDE8 		pop	{fp, pc}
 3645              	.L178:
 3646              		.align	2
 3647              	.L177:
 3648 2190 B0020000 		.word	_GLOBAL_OFFSET_TABLE_-(.LPIC170+8)
 3649 2194 00000000 		.word	__stack_chk_guard(GOT)
 3650 2198 34090000 		.word	.LC70-(.LPIC146+8)
 3651 219c DC020000 		.word	.LC4-(.LPIC147+8)
 3652 21a0 08090000 		.word	.LC69-(.LPIC148+8)
 3653 21a4 68020000 		.word	.LC2-(.LPIC149+8)
 3654 21a8 04090000 		.word	.LC71-(.LPIC150+8)
 3655 21ac 98020000 		.word	.LC4-(.LPIC151+8)
 3656 21b0 C4080000 		.word	.LC69-(.LPIC152+8)
 3657 21b4 24020000 		.word	.LC2-(.LPIC153+8)
 3658 21b8 B0080000 		.word	.LC72-(.LPIC154+8)
 3659 21bc 30020000 		.word	.LC4-(.LPIC155+8)
 3660 21c0 20020000 		.word	.LC5-(.LPIC156+8)
 3661 21c4 BC010000 		.word	.LC2-(.LPIC157+8)
 3662 21c8 88080000 		.word	.LC73-(.LPIC158+8)
 3663 21cc E4010000 		.word	.LC4-(.LPIC159+8)
 3664 21d0 D4010000 		.word	.LC5-(.LPIC160+8)
 3665 21d4 70010000 		.word	.LC2-(.LPIC161+8)
 3666 21d8 54080000 		.word	.LC74-(.LPIC162+8)
 3667 21dc 88010000 		.word	.LC4-(.LPIC163+8)
 3668 21e0 78010000 		.word	.LC5-(.LPIC164+8)
 3669 21e4 14010000 		.word	.LC2-(.LPIC165+8)
 3670 21e8 28080000 		.word	.LC75-(.LPIC166+8)
 3671 21ec 38010000 		.word	.LC4-(.LPIC167+8)
 3672 21f0 28010000 		.word	.LC5-(.LPIC168+8)
 3673 21f4 C4000000 		.word	.LC2-(.LPIC169+8)
 3674 21f8 90000000 		.word	_GLOBAL_OFFSET_TABLE_-(.LPIC171+8)
 3675              		.cfi_endproc
 3676              	.LFE13:
 3678              		.align	2
 3679              		.global	ParseAsciiEqu
 3680              		.syntax unified
 3681              		.arm
 3682              		.fpu vfpv3
ARM GAS  /tmp/ccG9b1tU.s 			page 83


 3684              	ParseAsciiEqu:
 3685              	.LFB14:
 817:/home/hkh/git/eapidk-code-r76-trunk/apps/EeePProg/linux/../Str2Value.c **** EApiStatus_t
 818:/home/hkh/git/eapidk-code-r76-trunk/apps/EeePProg/linux/../Str2Value.c **** ParseAsciiEqu(
 819:/home/hkh/git/eapidk-code-r76-trunk/apps/EeePProg/linux/../Str2Value.c ****     __IN  const char       *cszString,
 820:/home/hkh/git/eapidk-code-r76-trunk/apps/EeePProg/linux/../Str2Value.c ****     __OUT signed long long *psllValue
 821:/home/hkh/git/eapidk-code-r76-trunk/apps/EeePProg/linux/../Str2Value.c ****   )
 822:/home/hkh/git/eapidk-code-r76-trunk/apps/EeePProg/linux/../Str2Value.c **** {
 3686              		.loc 1 822 1
 3687              		.cfi_startproc
 3688              		@ args = 0, pretend = 0, frame = 8
 3689              		@ frame_needed = 1, uses_anonymous_args = 0
 3690 21fc 00482DE9 		push	{fp, lr}
 3691              		.cfi_def_cfa_offset 8
 3692              		.cfi_offset 11, -8
 3693              		.cfi_offset 14, -4
 3694 2200 04B08DE2 		add	fp, sp, #4
 3695              		.cfi_def_cfa 11, 4
 3696 2204 08D04DE2 		sub	sp, sp, #8
 3697 2208 08000BE5 		str	r0, [fp, #-8]
 3698 220c 0C100BE5 		str	r1, [fp, #-12]
 823:/home/hkh/git/eapidk-code-r76-trunk/apps/EeePProg/linux/../Str2Value.c ****   return ParseAsciiEquEx(cszString, NULL, psllValue);
 3699              		.loc 1 823 10
 3700 2210 0C201BE5 		ldr	r2, [fp, #-12]
 3701 2214 0010A0E3 		mov	r1, #0
 3702 2218 08001BE5 		ldr	r0, [fp, #-8]
 3703 221c FEFFFFEB 		bl	ParseAsciiEquEx(PLT)
 3704 2220 0030A0E1 		mov	r3, r0
 824:/home/hkh/git/eapidk-code-r76-trunk/apps/EeePProg/linux/../Str2Value.c **** }
 3705              		.loc 1 824 1
 3706 2224 0300A0E1 		mov	r0, r3
 3707 2228 04D04BE2 		sub	sp, fp, #4
 3708              		.cfi_def_cfa 13, 8
 3709              		@ sp needed
 3710 222c 0088BDE8 		pop	{fp, pc}
 3711              		.cfi_endproc
 3712              	.LFE14:
 3714              		.section	.rodata
 3715              		.align	2
 3716              	.LC76:
 3717 077c 50617273 		.ascii	"ParseAsciiEqu_VA\000"
 3717      65417363 
 3717      69694571 
 3717      755F5641 
 3717      00
 3718 078d 000000   		.align	2
 3719              	.LC77:
 3720 0790 28707661 		.ascii	"(pvalue==NULL)\000"
 3720      6C75653D 
 3720      3D4E554C 
 3720      4C2900
 3721 079f 00       		.align	2
 3722              	.LC78:
 3723 07a0 28736945 		.ascii	"(siElementSize==0)\000"
 3723      6C656D65 
 3723      6E745369 
 3723      7A653D3D 
ARM GAS  /tmp/ccG9b1tU.s 			page 84


 3723      302900
 3724 07b3 00       		.align	2
 3725              	.LC79:
 3726 07b4 56616C75 		.ascii	"Value Too Large for unsigned long\000"
 3726      6520546F 
 3726      6F204C61 
 3726      72676520 
 3726      666F7220 
 3727 07d6 0000     		.align	2
 3728              	.LC80:
 3729 07d8 56616C75 		.ascii	"Value Too Large for unsigned int\000"
 3729      6520546F 
 3729      6F204C61 
 3729      72676520 
 3729      666F7220 
 3730 07f9 000000   		.align	2
 3731              	.LC81:
 3732 07fc 56616C75 		.ascii	"Value Too Large for unsigned short\000"
 3732      6520546F 
 3732      6F204C61 
 3732      72676520 
 3732      666F7220 
 3733 081f 00       		.align	2
 3734              	.LC82:
 3735 0820 56616C75 		.ascii	"Value Too Large for unsigned char\000"
 3735      6520546F 
 3735      6F204C61 
 3735      72676520 
 3735      666F7220 
 3736 0842 0000     		.align	2
 3737              	.LC83:
 3738 0844 556E7375 		.ascii	"Unsupported Variable Lenght\000"
 3738      70706F72 
 3738      74656420 
 3738      56617269 
 3738      61626C65 
 3739              		.text
 3740              		.align	2
 3741              		.global	AssignValue_VA
 3742              		.syntax unified
 3743              		.arm
 3744              		.fpu vfpv3
 3746              	AssignValue_VA:
 3747              	.LFB15:
 825:/home/hkh/git/eapidk-code-r76-trunk/apps/EeePProg/linux/../Str2Value.c **** EApiStatus_t
 826:/home/hkh/git/eapidk-code-r76-trunk/apps/EeePProg/linux/../Str2Value.c **** AssignValue_VA(
 827:/home/hkh/git/eapidk-code-r76-trunk/apps/EeePProg/linux/../Str2Value.c ****     __IN  const signed long long csllValue,
 828:/home/hkh/git/eapidk-code-r76-trunk/apps/EeePProg/linux/../Str2Value.c ****     __OUT void             *pvalue,
 829:/home/hkh/git/eapidk-code-r76-trunk/apps/EeePProg/linux/../Str2Value.c ****     __IN  signed int        siElementSize
 830:/home/hkh/git/eapidk-code-r76-trunk/apps/EeePProg/linux/../Str2Value.c ****   )
 831:/home/hkh/git/eapidk-code-r76-trunk/apps/EeePProg/linux/../Str2Value.c **** {
 3748              		.loc 1 831 1
 3749              		.cfi_startproc
 3750              		@ args = 0, pretend = 0, frame = 32
 3751              		@ frame_needed = 1, uses_anonymous_args = 0
 3752 2230 F04B2DE9 		push	{r4, r5, r6, r7, r8, r9, fp, lr}
 3753              		.cfi_def_cfa_offset 32
ARM GAS  /tmp/ccG9b1tU.s 			page 85


 3754              		.cfi_offset 4, -32
 3755              		.cfi_offset 5, -28
 3756              		.cfi_offset 6, -24
 3757              		.cfi_offset 7, -20
 3758              		.cfi_offset 8, -16
 3759              		.cfi_offset 9, -12
 3760              		.cfi_offset 11, -8
 3761              		.cfi_offset 14, -4
 3762 2234 1CB08DE2 		add	fp, sp, #28
 3763              		.cfi_def_cfa 11, 4
 3764 2238 30D04DE2 		sub	sp, sp, #48
 3765 223c FC024BE1 		strd	r0, [fp, #-44]
 3766 2240 30200BE5 		str	r2, [fp, #-48]
 3767 2244 34300BE5 		str	r3, [fp, #-52]
 832:/home/hkh/git/eapidk-code-r76-trunk/apps/EeePProg/linux/../Str2Value.c ****   EApiStatus_t StatusCode=EAPI_STATUS_SUCCESS;
 3768              		.loc 1 832 16
 3769 2248 0030A0E3 		mov	r3, #0
 3770 224c 20300BE5 		str	r3, [fp, #-32]
 833:/home/hkh/git/eapidk-code-r76-trunk/apps/EeePProg/linux/../Str2Value.c **** 
 834:/home/hkh/git/eapidk-code-r76-trunk/apps/EeePProg/linux/../Str2Value.c ****   EAPI_APP_ASSERT_PARAMATER_NULL(
 3771              		.loc 1 834 3
 3772 2250 30301BE5 		ldr	r3, [fp, #-48]
 3773 2254 000053E3 		cmp	r3, #0
 3774 2258 1100001A 		bne	.L182
 3775              		.loc 1 834 3 is_stmt 0 discriminator 1
 3776 225c C8339FE5 		ldr	r3, .L203
 3777              	.LPIC172:
 3778 2260 03308FE0 		add	r3, pc, r3
 3779 2264 08308DE5 		str	r3, [sp, #8]
 3780 2268 C0339FE5 		ldr	r3, .L203+4
 3781              	.LPIC173:
 3782 226c 03308FE0 		add	r3, pc, r3
 3783 2270 04308DE5 		str	r3, [sp, #4]
 3784 2274 013CE0E3 		mvn	r3, #256
 3785 2278 00308DE5 		str	r3, [sp]
 3786 227c 423300E3 		movw	r3, #834
 3787 2280 AC239FE5 		ldr	r2, .L203+8
 3788              	.LPIC174:
 3789 2284 02208FE0 		add	r2, pc, r2
 3790 2288 A8139FE5 		ldr	r1, .L203+12
 3791              	.LPIC175:
 3792 228c 01108FE0 		add	r1, pc, r1
 3793 2290 4500A0E3 		mov	r0, #69
 3794 2294 FEFFFFEB 		bl	siFormattedMessage_SC(PLT)
 3795 2298 013CE0E3 		mvn	r3, #256
 3796 229c 20300BE5 		str	r3, [fp, #-32]
 3797 22a0 DD0000EA 		b	.L183
 3798              	.L182:
 835:/home/hkh/git/eapidk-code-r76-trunk/apps/EeePProg/linux/../Str2Value.c ****       ParseAsciiEqu_VA, 
 836:/home/hkh/git/eapidk-code-r76-trunk/apps/EeePProg/linux/../Str2Value.c ****       EAPI_STATUS_INVALID_PARAMETER, 
 837:/home/hkh/git/eapidk-code-r76-trunk/apps/EeePProg/linux/../Str2Value.c ****       pvalue
 838:/home/hkh/git/eapidk-code-r76-trunk/apps/EeePProg/linux/../Str2Value.c ****     );
 839:/home/hkh/git/eapidk-code-r76-trunk/apps/EeePProg/linux/../Str2Value.c ****   EAPI_APP_ASSERT_PARAMATER_ZERO(
 3799              		.loc 1 839 3 is_stmt 1
 3800 22a4 34301BE5 		ldr	r3, [fp, #-52]
 3801 22a8 000053E3 		cmp	r3, #0
 3802 22ac 1100001A 		bne	.L184
ARM GAS  /tmp/ccG9b1tU.s 			page 86


 3803              		.loc 1 839 3 is_stmt 0 discriminator 1
 3804 22b0 84339FE5 		ldr	r3, .L203+16
 3805              	.LPIC176:
 3806 22b4 03308FE0 		add	r3, pc, r3
 3807 22b8 08308DE5 		str	r3, [sp, #8]
 3808 22bc 7C339FE5 		ldr	r3, .L203+20
 3809              	.LPIC177:
 3810 22c0 03308FE0 		add	r3, pc, r3
 3811 22c4 04308DE5 		str	r3, [sp, #4]
 3812 22c8 013CE0E3 		mvn	r3, #256
 3813 22cc 00308DE5 		str	r3, [sp]
 3814 22d0 473300E3 		movw	r3, #839
 3815 22d4 68239FE5 		ldr	r2, .L203+24
 3816              	.LPIC178:
 3817 22d8 02208FE0 		add	r2, pc, r2
 3818 22dc 64139FE5 		ldr	r1, .L203+28
 3819              	.LPIC179:
 3820 22e0 01108FE0 		add	r1, pc, r1
 3821 22e4 4500A0E3 		mov	r0, #69
 3822 22e8 FEFFFFEB 		bl	siFormattedMessage_SC(PLT)
 3823 22ec 013CE0E3 		mvn	r3, #256
 3824 22f0 20300BE5 		str	r3, [fp, #-32]
 3825 22f4 C80000EA 		b	.L183
 3826              	.L184:
 840:/home/hkh/git/eapidk-code-r76-trunk/apps/EeePProg/linux/../Str2Value.c ****       ParseAsciiEqu_VA, 
 841:/home/hkh/git/eapidk-code-r76-trunk/apps/EeePProg/linux/../Str2Value.c ****       EAPI_STATUS_INVALID_PARAMETER, 
 842:/home/hkh/git/eapidk-code-r76-trunk/apps/EeePProg/linux/../Str2Value.c ****       siElementSize
 843:/home/hkh/git/eapidk-code-r76-trunk/apps/EeePProg/linux/../Str2Value.c ****     );
 844:/home/hkh/git/eapidk-code-r76-trunk/apps/EeePProg/linux/../Str2Value.c ****   memset(pvalue, 0x00, siElementSize);
 3827              		.loc 1 844 3 is_stmt 1
 3828 22f8 34301BE5 		ldr	r3, [fp, #-52]
 3829 22fc 0320A0E1 		mov	r2, r3
 3830 2300 0010A0E3 		mov	r1, #0
 3831 2304 30001BE5 		ldr	r0, [fp, #-48]
 3832 2308 FEFFFFEB 		bl	memset(PLT)
 845:/home/hkh/git/eapidk-code-r76-trunk/apps/EeePProg/linux/../Str2Value.c ****   if(siElementSize==sizeof(unsigned long long)){
 3833              		.loc 1 845 5
 3834 230c 34301BE5 		ldr	r3, [fp, #-52]
 3835 2310 080053E3 		cmp	r3, #8
 3836 2314 0300001A 		bne	.L185
 846:/home/hkh/git/eapidk-code-r76-trunk/apps/EeePProg/linux/../Str2Value.c ****       *(unsigned long long*)pvalue=(unsigned long long)csllValue;
 3837              		.loc 1 846 36
 3838 2318 DC224BE1 		ldrd	r2, [fp, #-44]
 3839              		.loc 1 846 35
 3840 231c 30101BE5 		ldr	r1, [fp, #-48]
 3841 2320 F020C1E1 		strd	r2, [r1]
 3842 2324 BC0000EA 		b	.L183
 3843              	.L185:
 847:/home/hkh/git/eapidk-code-r76-trunk/apps/EeePProg/linux/../Str2Value.c **** 
 848:/home/hkh/git/eapidk-code-r76-trunk/apps/EeePProg/linux/../Str2Value.c ****   }else if(siElementSize==sizeof(unsigned long)){
 3844              		.loc 1 848 11
 3845 2328 34301BE5 		ldr	r3, [fp, #-52]
 3846 232c 040053E3 		cmp	r3, #4
 3847 2330 2700001A 		bne	.L186
 849:/home/hkh/git/eapidk-code-r76-trunk/apps/EeePProg/linux/../Str2Value.c ****       if((csllValue>=0 && (((unsigned long long)  csllValue)>ULONG_MAX))||
 3848              		.loc 1 849 9
 3849 2334 DC224BE1 		ldrd	r2, [fp, #-44]
ARM GAS  /tmp/ccG9b1tU.s 			page 87


 3850 2338 000053E3 		cmp	r3, #0
 3851 233c 020000BA 		blt	.L187
 3852              		.loc 1 849 29 discriminator 1
 3853 2340 DC224BE1 		ldrd	r2, [fp, #-44]
 3854              		.loc 1 849 24 discriminator 1
 3855 2344 010053E3 		cmp	r3, #1
 3856 2348 0B00002A 		bcs	.L188
 3857              	.L187:
 3858              		.loc 1 849 73 discriminator 3
 3859 234c DC224BE1 		ldrd	r2, [fp, #-44]
 3860 2350 000053E3 		cmp	r3, #0
 3861 2354 1A0000AA 		bge	.L189
 850:/home/hkh/git/eapidk-code-r76-trunk/apps/EeePProg/linux/../Str2Value.c ****          (csllValue< 0 && (((unsigned long long)- csllValue)>LONG_MAX ))
 3862              		.loc 1 850 49
 3863 2358 DC224BE1 		ldrd	r2, [fp, #-44]
 3864 235c 001072E2 		rsbs	r1, r2, #0
 3865 2360 3C100BE5 		str	r1, [fp, #-60]
 3866 2364 0030E3E2 		rsc	r3, r3, #0
 3867 2368 38300BE5 		str	r3, [fp, #-56]
 3868              		.loc 1 850 29
 3869 236c DC234BE1 		ldrd	r2, [fp, #-60]
 3870              		.loc 1 850 24
 3871 2370 020152E3 		cmp	r2, #-2147483648
 3872 2374 0030D3E2 		sbcs	r3, r3, #0
 3873 2378 1100003A 		bcc	.L189
 3874              	.L188:
 851:/home/hkh/git/eapidk-code-r76-trunk/apps/EeePProg/linux/../Str2Value.c **** 	)
 852:/home/hkh/git/eapidk-code-r76-trunk/apps/EeePProg/linux/../Str2Value.c ****       {
 853:/home/hkh/git/eapidk-code-r76-trunk/apps/EeePProg/linux/../Str2Value.c ****         EAPI_APP_RETURN_ERROR(
 3875              		.loc 1 853 9
 3876 237c C8329FE5 		ldr	r3, .L203+32
 3877              	.LPIC180:
 3878 2380 03308FE0 		add	r3, pc, r3
 3879 2384 08308DE5 		str	r3, [sp, #8]
 3880 2388 C0329FE5 		ldr	r3, .L203+36
 3881              	.LPIC181:
 3882 238c 03308FE0 		add	r3, pc, r3
 3883 2390 04308DE5 		str	r3, [sp, #4]
 3884 2394 063CE0E3 		mvn	r3, #1536
 3885 2398 00308DE5 		str	r3, [sp]
 3886 239c 553300E3 		movw	r3, #853
 3887 23a0 AC229FE5 		ldr	r2, .L203+40
 3888              	.LPIC182:
 3889 23a4 02208FE0 		add	r2, pc, r2
 3890 23a8 A8129FE5 		ldr	r1, .L203+44
 3891              	.LPIC183:
 3892 23ac 01108FE0 		add	r1, pc, r1
 3893 23b0 4500A0E3 		mov	r0, #69
 3894 23b4 FEFFFFEB 		bl	siFormattedMessage_SC(PLT)
 3895 23b8 063CE0E3 		mvn	r3, #1536
 3896 23bc 20300BE5 		str	r3, [fp, #-32]
 3897 23c0 950000EA 		b	.L183
 3898              	.L189:
 854:/home/hkh/git/eapidk-code-r76-trunk/apps/EeePProg/linux/../Str2Value.c ****             ParseAsciiEqu_VA,
 855:/home/hkh/git/eapidk-code-r76-trunk/apps/EeePProg/linux/../Str2Value.c ****             EAPI_STATUS_MORE_DATA,
 856:/home/hkh/git/eapidk-code-r76-trunk/apps/EeePProg/linux/../Str2Value.c ****             "Value Too Large for unsigned long"
 857:/home/hkh/git/eapidk-code-r76-trunk/apps/EeePProg/linux/../Str2Value.c ****           );
ARM GAS  /tmp/ccG9b1tU.s 			page 88


 858:/home/hkh/git/eapidk-code-r76-trunk/apps/EeePProg/linux/../Str2Value.c ****       }
 859:/home/hkh/git/eapidk-code-r76-trunk/apps/EeePProg/linux/../Str2Value.c ****       *(unsigned long*)pvalue=(unsigned long)csllValue;
 3899              		.loc 1 859 31
 3900 23c4 2C201BE5 		ldr	r2, [fp, #-44]
 3901              		.loc 1 859 30
 3902 23c8 30301BE5 		ldr	r3, [fp, #-48]
 3903 23cc 002083E5 		str	r2, [r3]
 3904 23d0 910000EA 		b	.L183
 3905              	.L186:
 860:/home/hkh/git/eapidk-code-r76-trunk/apps/EeePProg/linux/../Str2Value.c ****   }else if(siElementSize==sizeof(unsigned int)){
 3906              		.loc 1 860 11
 3907 23d4 34301BE5 		ldr	r3, [fp, #-52]
 3908 23d8 040053E3 		cmp	r3, #4
 3909 23dc 2600001A 		bne	.L190
 861:/home/hkh/git/eapidk-code-r76-trunk/apps/EeePProg/linux/../Str2Value.c ****       if((csllValue>=0 && (((unsigned long long) csllValue)>UINT_MAX))||
 3910              		.loc 1 861 9
 3911 23e0 DC224BE1 		ldrd	r2, [fp, #-44]
 3912 23e4 000053E3 		cmp	r3, #0
 3913 23e8 020000BA 		blt	.L191
 3914              		.loc 1 861 29 discriminator 1
 3915 23ec DC224BE1 		ldrd	r2, [fp, #-44]
 3916              		.loc 1 861 24 discriminator 1
 3917 23f0 010053E3 		cmp	r3, #1
 3918 23f4 0A00002A 		bcs	.L192
 3919              	.L191:
 3920              		.loc 1 861 71 discriminator 3
 3921 23f8 DC224BE1 		ldrd	r2, [fp, #-44]
 3922 23fc 000053E3 		cmp	r3, #0
 3923 2400 190000AA 		bge	.L193
 862:/home/hkh/git/eapidk-code-r76-trunk/apps/EeePProg/linux/../Str2Value.c ****          (csllValue< 0 && (((unsigned long long)-csllValue)>INT_MAX ))
 3924              		.loc 1 862 49
 3925 2404 DC224BE1 		ldrd	r2, [fp, #-44]
 3926 2408 008072E2 		rsbs	r8, r2, #0
 3927 240c 0090E3E2 		rsc	r9, r3, #0
 3928              		.loc 1 862 29
 3929 2410 0820A0E1 		mov	r2, r8
 3930 2414 0930A0E1 		mov	r3, r9
 3931              		.loc 1 862 24
 3932 2418 020152E3 		cmp	r2, #-2147483648
 3933 241c 0030D3E2 		sbcs	r3, r3, #0
 3934 2420 1100003A 		bcc	.L193
 3935              	.L192:
 863:/home/hkh/git/eapidk-code-r76-trunk/apps/EeePProg/linux/../Str2Value.c ****          )
 864:/home/hkh/git/eapidk-code-r76-trunk/apps/EeePProg/linux/../Str2Value.c ****       {
 865:/home/hkh/git/eapidk-code-r76-trunk/apps/EeePProg/linux/../Str2Value.c ****         EAPI_APP_RETURN_ERROR(
 3936              		.loc 1 865 9
 3937 2424 30329FE5 		ldr	r3, .L203+48
 3938              	.LPIC184:
 3939 2428 03308FE0 		add	r3, pc, r3
 3940 242c 08308DE5 		str	r3, [sp, #8]
 3941 2430 28329FE5 		ldr	r3, .L203+52
 3942              	.LPIC185:
 3943 2434 03308FE0 		add	r3, pc, r3
 3944 2438 04308DE5 		str	r3, [sp, #4]
 3945 243c 063CE0E3 		mvn	r3, #1536
 3946 2440 00308DE5 		str	r3, [sp]
 3947 2444 613300E3 		movw	r3, #865
ARM GAS  /tmp/ccG9b1tU.s 			page 89


 3948 2448 14229FE5 		ldr	r2, .L203+56
 3949              	.LPIC186:
 3950 244c 02208FE0 		add	r2, pc, r2
 3951 2450 10129FE5 		ldr	r1, .L203+60
 3952              	.LPIC187:
 3953 2454 01108FE0 		add	r1, pc, r1
 3954 2458 4500A0E3 		mov	r0, #69
 3955 245c FEFFFFEB 		bl	siFormattedMessage_SC(PLT)
 3956 2460 063CE0E3 		mvn	r3, #1536
 3957 2464 20300BE5 		str	r3, [fp, #-32]
 3958 2468 6B0000EA 		b	.L183
 3959              	.L193:
 866:/home/hkh/git/eapidk-code-r76-trunk/apps/EeePProg/linux/../Str2Value.c ****             ParseAsciiEqu_VA,
 867:/home/hkh/git/eapidk-code-r76-trunk/apps/EeePProg/linux/../Str2Value.c ****             EAPI_STATUS_MORE_DATA,
