	.cpu cortex-a9
	.eabi_attribute 28, 1
	.eabi_attribute 20, 1
	.eabi_attribute 21, 1
	.eabi_attribute 23, 3
	.eabi_attribute 24, 1
	.eabi_attribute 25, 1
	.eabi_attribute 26, 2
	.eabi_attribute 30, 6
	.eabi_attribute 34, 1
	.eabi_attribute 18, 4
	.file	"StrPrint.c"
	.text
.Ltext0:
	.cfi_sections	.debug_frame
	.global	__aeabi_uidiv
	.align	2
	.global	StringBlock
	.arch armv7-a
	.arch_extension mp
	.arch_extension sec
	.syntax unified
	.arm
	.fpu vfpv3
	.type	StringBlock, %function
StringBlock:
.LFB1:
	.file 1 "/home/hkh/git/eapidk-code-r76-trunk/apps/EeePProg/linux/../StrPrint.c"
	.loc 1 40 1
	.cfi_startproc
	@ args = 4, pretend = 0, frame = 32
	@ frame_needed = 1, uses_anonymous_args = 0
	push	{fp, lr}
	.cfi_def_cfa_offset 8
	.cfi_offset 11, -8
	.cfi_offset 14, -4
	add	fp, sp, #4
	.cfi_def_cfa 11, 4
	sub	sp, sp, #32
	str	r0, [fp, #-24]
	str	r1, [fp, #-28]
	str	r2, [fp, #-32]
	str	r3, [fp, #-36]
	.loc 1 41 15
	ldr	r3, [fp, #-24]
	str	r3, [fp, #-20]
	.loc 1 42 10
	mov	r3, #8
	str	r3, [fp, #-16]
	.loc 1 45 14
	ldr	r3, [fp, #-36]
	mov	r2, #0
	str	r2, [r3]
	.loc 1 46 13
	ldr	r3, [fp, #4]
	mov	r2, #0
	str	r2, [r3]
	.loc 1 49 6
	ldr	r3, [fp, #-20]
	ldrb	r3, [r3]	@ zero_extendqisi2
	.loc 1 49 5
	cmp	r3, #10
	bne	.L3
	.loc 1 50 15
	ldr	r3, [fp, #-20]
	add	r3, r3, #1
	str	r3, [fp, #-20]
	.loc 1 51 8
	b	.L3
.L12:
	.loc 1 53 23
	ldr	r3, [fp, #-20]
	add	r2, r3, #1
	str	r2, [fp, #-20]
	.loc 1 53 12
	ldrb	r3, [r3]	@ zero_extendqisi2
	.loc 1 53 5
	cmp	r3, #47
	addls	pc, pc, r3, asl #2
	b	.L15
.L6:
	b	.L9
	b	.L15
	b	.L15
	b	.L15
	b	.L15
	b	.L15
	b	.L15
	b	.L15
	b	.L15
	b	.L8
	b	.L7
	b	.L15
	b	.L15
	b	.L7
	b	.L15
	b	.L15
	b	.L15
	b	.L15
	b	.L15
	b	.L15
	b	.L15
	b	.L15
	b	.L15
	b	.L15
	b	.L15
	b	.L15
	b	.L15
	b	.L15
	b	.L15
	b	.L15
	b	.L15
	b	.L15
	b	.L5
	b	.L15
	b	.L15
	b	.L15
	b	.L15
	b	.L15
	b	.L15
	b	.L15
	b	.L15
	b	.L15
	b	.L15
	b	.L15
	b	.L15
	b	.L15
	b	.L15
	b	.L5
	.p2align 1
.L8:
	.loc 1 55 32
	ldr	r2, [fp, #-20]
	ldr	r3, [fp, #-24]
	sub	r3, r2, r3
	mov	r2, r3
	.loc 1 55 20
	ldr	r3, [fp, #-28]
	add	r3, r3, r2
	str	r3, [fp, #-12]
	.loc 1 56 33
	ldr	r2, [fp, #-12]
	ldr	r3, [fp, #-16]
	add	r3, r2, r3
	.loc 1 56 45
	sub	r3, r3, #1
	.loc 1 56 48
	ldr	r1, [fp, #-16]
	mov	r0, r3
	bl	__aeabi_uidiv(PLT)
	mov	r3, r0
	mov	r2, r3
	.loc 1 56 18
	ldr	r3, [fp, #-16]
	mul	r3, r2, r3
	str	r3, [fp, #-8]
	.loc 1 57 18
	ldr	r2, [fp, #-8]
	ldr	r3, [fp, #-12]
	sub	r3, r2, r3
	str	r3, [fp, #-8]
	.loc 1 58 11
	ldr	r2, [fp, #-32]
	ldr	r3, [fp, #-8]
	cmp	r2, r3
	bcc	.L10
	.loc 1 59 22
	ldr	r3, [fp, #4]
	ldr	r2, [r3]
	.loc 1 59 24
	ldr	r3, [fp, #-8]
	.loc 1 59 22
	add	r2, r2, r3
	ldr	r3, [fp, #4]
	str	r2, [r3]
	.loc 1 60 25
	ldr	r2, [fp, #-32]
	ldr	r3, [fp, #-8]
	sub	r3, r2, r3
	str	r3, [fp, #-32]
	b	.L5
.L10:
	.loc 1 62 24
	mov	r3, #0
	str	r3, [fp, #-32]
.L5:
	.loc 1 65 32
	ldr	r2, [fp, #-20]
	ldr	r3, [fp, #-24]
	sub	r3, r2, r3
	.loc 1 65 41
	sub	r3, r3, #1
	mov	r2, r3
	.loc 1 65 20
	ldr	r3, [fp, #-36]
	str	r2, [r3]
	.loc 1 66 9
	b	.L3
.L9:
	.loc 1 68 32
	ldr	r2, [fp, #-20]
	ldr	r3, [fp, #-24]
	sub	r3, r2, r3
	.loc 1 68 41
	sub	r3, r3, #1
	mov	r2, r3
	.loc 1 68 20
	ldr	r3, [fp, #-36]
	str	r2, [r3]
	.loc 1 69 16
	mov	r3, #0
	b	.L11
.L7:
	.loc 1 72 32
	ldr	r2, [fp, #-20]
	ldr	r3, [fp, #-24]
	sub	r3, r2, r3
	.loc 1 72 41
	sub	r3, r3, #1
	mov	r2, r3
	.loc 1 72 20
	ldr	r3, [fp, #-36]
	str	r2, [r3]
	.loc 1 73 16
	mvn	r3, #1536
	b	.L11
.L15:
	.loc 1 75 9
	nop
.L3:
	.loc 1 51 23
	ldr	r3, [fp, #-32]
	sub	r2, r3, #1
	str	r2, [fp, #-32]
	.loc 1 51 9
	cmp	r3, #0
	bne	.L12
	.loc 1 79 7
	ldr	r3, [fp, #-20]
	ldrb	r3, [r3]	@ zero_extendqisi2
	.loc 1 79 5
	cmp	r3, #0
	bne	.L13
	.loc 1 80 28
	ldr	r2, [fp, #-20]
	ldr	r3, [fp, #-24]
	sub	r3, r2, r3
	mov	r2, r3
	.loc 1 80 16
	ldr	r3, [fp, #-36]
	str	r2, [r3]
	.loc 1 81 12
	mov	r3, #0
	b	.L11
.L13:
	.loc 1 82 14
	ldr	r3, [fp, #-36]
	ldr	r3, [r3]
	.loc 1 82 12
	cmp	r3, #0
	bne	.L14
	.loc 1 83 28
	ldr	r2, [fp, #-20]
	ldr	r3, [fp, #-24]
	sub	r3, r2, r3
	mov	r2, r3
	.loc 1 83 16
	ldr	r3, [fp, #-36]
	str	r2, [r3]
.L14:
	.loc 1 85 10
	mvn	r3, #1536
.L11:
	.loc 1 86 1
	mov	r0, r3
	sub	sp, fp, #4
	.cfi_def_cfa 13, 8
	@ sp needed
	pop	{fp, pc}
	.cfi_endproc
.LFE1:
	.size	StringBlock, .-StringBlock
	.section	.rodata
	.align	2
.LC0:
	.ascii	"%-*.*s%s\000"
	.align	2
.LC1:
	.ascii	"%*s%-*s%s\000"
	.align	2
.LC2:
	.ascii	"\000"
	.align	2
.LC3:
	.ascii	"%*s%-*.*s%s\000"
	.text
	.align	2
	.global	PrintStringBlock
	.syntax unified
	.arm
	.fpu vfpv3
	.type	PrintStringBlock, %function
PrintStringBlock:
.LFB2:
	.loc 1 97 1
	.cfi_startproc
	@ args = 8, pretend = 0, frame = 48
	@ frame_needed = 1, uses_anonymous_args = 0
	push	{fp, lr}
	.cfi_def_cfa_offset 8
	.cfi_offset 11, -8
	.cfi_offset 14, -4
	add	fp, sp, #4
	.cfi_def_cfa 11, 4
	sub	sp, sp, #64
	str	r0, [fp, #-32]
	str	r1, [fp, #-36]
	str	r2, [fp, #-40]
	str	r3, [fp, #-44]
	ldr	r3, [fp, #8]
	str	r3, [fp, #-48]
	.loc 1 97 1
	ldr	r2, .L30
.LPIC4:
	add	r2, pc, r2
	ldr	r3, .L30+4
	ldr	r3, [r2, r3]
	ldr	r3, [r3]
	str	r3, [fp, #-8]
	mov	r3, #0
	.loc 1 99 19
	ldr	r0, [fp, #-44]
	bl	strlen(PLT)
	str	r0, [fp, #-20]
	.loc 1 101 5
	ldr	r3, [fp, #4]
	cmp	r3, #0
	blt	.L17
	.loc 1 102 14
	ldr	r3, [fp, #-20]
	.loc 1 102 7
	ldr	r2, [fp, #4]
	cmp	r2, r3
	ble	.L18
	.loc 1 103 15
	ldr	r3, [fp, #4]
	str	r3, [fp, #-20]
	b	.L18
.L17:
	.loc 1 104 12
	ldr	r3, [fp, #4]
	rsb	r2, r3, #0
	.loc 1 104 20
	ldr	r3, [fp, #-20]
	.loc 1 104 11
	cmp	r2, r3
	ble	.L18
	.loc 1 105 17
	ldr	r3, [fp, #4]
	rsb	r3, r3, #0
	.loc 1 105 15
	str	r3, [fp, #-20]
.L18:
	.loc 1 107 3
	sub	r2, fp, #28
	sub	r3, fp, #24
	str	r3, [sp]
	mov	r3, r2
	ldr	r2, [fp, #-40]
	ldr	r1, [fp, #-20]
	ldr	r0, [fp, #-36]
	bl	StringBlock(PLT)
	.loc 1 108 34
	ldr	r2, [fp, #-40]
	.loc 1 108 3
	ldr	r3, [fp, #-24]
	sub	r2, r2, r3
	ldr	r3, [fp, #-28]
	mov	r1, r3
	ldr	r3, [fp, #-48]
	str	r3, [sp, #4]
	ldr	r3, [fp, #-36]
	str	r3, [sp]
	mov	r3, r1
	ldr	r1, .L30+8
.LPIC0:
	add	r1, pc, r1
	ldr	r0, [fp, #-32]
	bl	fprintf(PLT)
	.loc 1 109 8
	b	.L19
.L27:
.LBB2:
	.loc 1 110 9
	mov	r3, #0
	str	r3, [fp, #-16]
	.loc 1 112 11
	ldr	r3, [fp, #-28]
	ldr	r2, [fp, #-36]
	add	r3, r2, r3
	str	r3, [fp, #-36]
	.loc 1 114 20
	mov	r3, #0
	str	r3, [fp, #-12]
	.loc 1 114 5
	b	.L20
.L26:
	.loc 1 115 14
	ldr	r3, [fp, #-36]
	ldrb	r3, [r3]	@ zero_extendqisi2
	.loc 1 115 7
	sub	r3, r3, #9
	cmp	r3, #23
	addls	pc, pc, r3, asl #2
	b	.L21
.L23:
	b	.L22
	b	.L25
	b	.L21
	b	.L21
	b	.L24
	b	.L21
	b	.L21
	b	.L21
	b	.L21
	b	.L21
	b	.L21
	b	.L21
	b	.L21
	b	.L21
	b	.L21
	b	.L21
	b	.L21
	b	.L21
	b	.L21
	b	.L21
	b	.L21
	b	.L21
	b	.L21
	b	.L22
	.p2align 1
.L25:
	.loc 1 117 24
	ldr	r3, [fp, #-16]
	add	r2, r3, #1
	str	r2, [fp, #-16]
	.loc 1 117 13
	cmp	r3, #0
	beq	.L24
	.loc 1 118 13
	ldr	r3, [fp, #-40]
	ldr	r2, [fp, #-48]
	str	r2, [sp, #8]
	ldr	r2, .L30+12
.LPIC1:
	add	r2, pc, r2
	str	r2, [sp, #4]
	str	r3, [sp]
	ldr	r3, [fp, #-44]
	ldr	r2, [fp, #4]
	ldr	r1, .L30+16
.LPIC2:
	add	r1, pc, r1
	ldr	r0, [fp, #-32]
	bl	fprintf(PLT)
.L24:
	.loc 1 120 11
	ldr	r3, [fp, #-36]
	add	r3, r3, #1
	str	r3, [fp, #-36]
	.loc 1 121 11
	b	.L20
.L22:
	.loc 1 124 11
	ldr	r3, [fp, #-36]
	add	r3, r3, #1
	str	r3, [fp, #-36]
.L21:
	.loc 1 126 11
	ldr	r3, [fp, #-12]
	add	r3, r3, #1
	str	r3, [fp, #-12]
	.loc 1 127 11
	nop
.L20:
	.loc 1 114 23 discriminator 1
	ldr	r3, [fp, #-12]
	cmp	r3, #0
	beq	.L26
	.loc 1 130 5
	sub	r2, fp, #28
	sub	r3, fp, #24
	str	r3, [sp]
	mov	r3, r2
	ldr	r2, [fp, #-40]
	ldr	r1, [fp, #-20]
	ldr	r0, [fp, #-36]
	bl	StringBlock(PLT)
	.loc 1 131 8
	ldr	r3, [fp, #-28]
	.loc 1 131 7
	cmp	r3, #0
	beq	.L19
	.loc 1 132 62
	ldr	r2, [fp, #-40]
	.loc 1 132 7
	ldr	r3, [fp, #-24]
	sub	r3, r2, r3
	ldr	r2, [fp, #-28]
	mov	r1, r2
	ldr	r2, [fp, #-48]
	str	r2, [sp, #12]
	ldr	r2, [fp, #-36]
	str	r2, [sp, #8]
	str	r1, [sp, #4]
	str	r3, [sp]
	ldr	r3, [fp, #-44]
	ldr	r2, [fp, #4]
	ldr	r1, .L30+20
.LPIC3:
	add	r1, pc, r1
	ldr	r0, [fp, #-32]
	bl	fprintf(PLT)
.L19:
.LBE2:
	.loc 1 109 9
	ldr	r3, [fp, #-28]
	cmp	r3, #0
	bne	.L27
	.loc 1 134 10
	mov	r3, #0
	.loc 1 97 1
	ldr	r1, .L30+24
.LPIC5:
	add	r1, pc, r1
	.loc 1 135 1
	ldr	r2, .L30+4
	ldr	r2, [r1, r2]
	ldr	r1, [r2]
	ldr	r2, [fp, #-8]
	eors	r1, r2, r1
	mov	r2, #0
	beq	.L29
	bl	__stack_chk_fail(PLT)
.L29:
	mov	r0, r3
	sub	sp, fp, #4
	.cfi_def_cfa 13, 8
	@ sp needed
	pop	{fp, pc}
.L31:
	.align	2
.L30:
	.word	_GLOBAL_OFFSET_TABLE_-(.LPIC4+8)
	.word	__stack_chk_guard(GOT)
	.word	.LC0-(.LPIC0+8)
	.word	.LC2-(.LPIC1+8)
	.word	.LC1-(.LPIC2+8)
	.word	.LC3-(.LPIC3+8)
	.word	_GLOBAL_OFFSET_TABLE_-(.LPIC5+8)
	.cfi_endproc
.LFE2:
	.size	PrintStringBlock, .-PrintStringBlock
	.section	.rodata
	.align	2
.LC4:
	.ascii	"%*s\000"
	.text
	.align	2
	.global	PrintStringBlockA
	.syntax unified
	.arm
	.fpu vfpv3
	.type	PrintStringBlockA, %function
PrintStringBlockA:
.LFB3:
	.loc 1 145 1
	.cfi_startproc
	@ args = 8, pretend = 0, frame = 16
	@ frame_needed = 1, uses_anonymous_args = 0
	push	{fp, lr}
	.cfi_def_cfa_offset 8
	.cfi_offset 11, -8
	.cfi_offset 14, -4
	add	fp, sp, #4
	.cfi_def_cfa 11, 4
	sub	sp, sp, #24
	str	r0, [fp, #-8]
	str	r1, [fp, #-12]
	str	r2, [fp, #-16]
	str	r3, [fp, #-20]
	.loc 1 146 3
	ldr	r3, [fp, #-20]
	ldr	r2, [fp, #4]
	ldr	r1, .L34
.LPIC6:
	add	r1, pc, r1
	ldr	r0, [fp, #-8]
	bl	fprintf(PLT)
	.loc 1 147 10
	ldr	r3, [fp, #8]
	str	r3, [sp, #4]
	ldr	r3, [fp, #4]
	str	r3, [sp]
	ldr	r3, [fp, #-20]
	ldr	r2, [fp, #-16]
	ldr	r1, [fp, #-12]
	ldr	r0, [fp, #-8]
	bl	PrintStringBlock(PLT)
	mov	r3, r0
	.loc 1 151 1
	mov	r0, r3
	sub	sp, fp, #4
	.cfi_def_cfa 13, 8
	@ sp needed
	pop	{fp, pc}
.L35:
	.align	2
.L34:
	.word	.LC4-(.LPIC6+8)
	.cfi_endproc
.LFE3:
	.size	PrintStringBlockA, .-PrintStringBlockA
.Letext0:
	.file 2 "/home/hkh/buildroot-2022.02/output/host/arm-buildroot-linux-musleabihf/sysroot/usr/include/bits/alltypes.h"
	.file 3 "../../../include/EApi.h"
	.file 4 "/home/hkh/buildroot-2022.02/output/host/arm-buildroot-linux-musleabihf/sysroot/usr/include/stdio.h"
	.file 5 "/home/hkh/buildroot-2022.02/output/host/arm-buildroot-linux-musleabihf/sysroot/usr/include/string.h"
	.section	.note.GNU-stack,"",%progbits
