ARM GAS  /tmp/ccrI0Ik3.s 			page 1


   1              		.cpu cortex-a9
   2              		.eabi_attribute 28, 1
   3              		.eabi_attribute 20, 1
   4              		.eabi_attribute 21, 1
   5              		.eabi_attribute 23, 3
   6              		.eabi_attribute 24, 1
   7              		.eabi_attribute 25, 1
   8              		.eabi_attribute 26, 2
   9              		.eabi_attribute 30, 2
  10              		.eabi_attribute 34, 1
  11              		.eabi_attribute 18, 4
  12              		.file	"EApiEmulI2C.c"
  13              		.text
  14              		.section	.rodata.str1.4,"aMS",%progbits,1
  15              		.align	2
  16              	.LC0:
  17 0000 456D756C 		.ascii	"EmulateCmdDevice\000"
  17      61746543 
  17      6D644465 
  17      76696365 
  17      00
  18 0011 000000   		.align	2
  19              	.LC1:
  20 0014 2F686F6D 		.ascii	"/home/hkh/git/eapidk-code-r76-trunk/lib/linux/../EA"
  20      652F686B 
  20      682F6769 
  20      742F6561 
  20      7069646B 
  21 0047 7069456D 		.ascii	"piEmulI2C.c\000"
  21      756C4932 
  21      432E6300 
  22 0053 00       		.align	2
  23              	.LC2:
  24 0054 25337320 		.ascii	"%3s CCMD=%04lX Arg1=%1lX WLEN=%04lX RLEN=%04lX %02X"
  24      43434D44 
  24      3D253034 
  24      6C582041 
  24      7267313D 
  25 0087 2C253032 		.ascii	",%02X,%02X,%02X\012\000"
  25      582C2530 
  25      32582C25 
  25      3032580A 
  25      00
  26              		.align	2
  27              	.LC3:
  28 0098 456D756C 		.ascii	"EmulateEepromFS\000"
  28      61746545 
  28      6570726F 
  28      6D465300 
  29              		.align	2
  30              	.LC4:
  31 00a8 53544420 		.ascii	"STD INDEX Sent to EXT INDEX EEPROM\000"
  31      494E4445 
  31      58205365 
  31      6E742074 
  31      6F204558 
  32 00cb 00       		.align	2
ARM GAS  /tmp/ccrI0Ik3.s 			page 2


  33              	.LC5:
  34 00cc 25730A00 		.ascii	"%s\012\000"
  35              		.align	2
  36              	.LC6:
  37 00d0 00       		.ascii	"\000"
  38              		.text
  39              		.align	2
  40              		.global	EmulateHWMonDevice
  41              		.hidden	EmulateHWMonDevice
  42              		.arch armv7-a
  43              		.arch_extension mp
  44              		.arch_extension sec
  45              		.syntax unified
  46              		.arm
  47              		.fpu vfpv3
  49              	EmulateHWMonDevice:
  50              		@ args = 4, pretend = 0, frame = 0
  51              		@ frame_needed = 0, uses_anonymous_args = 0
  52 0000 F0432DE9 		push	{r4, r5, r6, r7, r8, r9, lr}
  53 0004 34D04DE2 		sub	sp, sp, #52
  54 0008 50709DE5 		ldr	r7, [sp, #80]
  55 000c 0250A0E1 		mov	r5, r2
  56 0010 0380A0E1 		mov	r8, r3
  57 0014 0140A0E1 		mov	r4, r1
  58 0018 74629FE5 		ldr	r6, .L37
  59 001c 10008DE5 		str	r0, [sp, #16]
  60 0020 4C00A0E3 		mov	r0, #76
  61 0024 18708DE5 		str	r7, [sp, #24]
  62 0028 14208DE5 		str	r2, [sp, #20]
  63              	.LPIC2:
  64 002c 06608FE0 		add	r6, pc, r6
  65 0030 0320D1E5 		ldrb	r2, [r1, #3]	@ zero_extendqisi2
  66 0034 003096E5 		ldr	r3, [r6]
  67 0038 58929FE5 		ldr	r9, .L37+4
  68 003c 28208DE5 		str	r2, [sp, #40]
  69 0040 0220D1E5 		ldrb	r2, [r1, #2]	@ zero_extendqisi2
  70 0044 033186E0 		add	r3, r6, r3, lsl #2
  71              	.LPIC1:
  72 0048 09908FE0 		add	r9, pc, r9
  73 004c 24208DE5 		str	r2, [sp, #36]
  74 0050 0120D1E5 		ldrb	r2, [r1, #1]	@ zero_extendqisi2
  75 0054 20208DE5 		str	r2, [sp, #32]
  76 0058 0020D1E5 		ldrb	r2, [r1]	@ zero_extendqisi2
  77 005c 0910A0E1 		mov	r1, r9
  78 0060 1C208DE5 		str	r2, [sp, #28]
  79 0064 042096E5 		ldr	r2, [r6, #4]
  80 0068 0C208DE5 		str	r2, [sp, #12]
  81 006c 143093E5 		ldr	r3, [r3, #20]
  82 0070 24229FE5 		ldr	r2, .L37+8
  83 0074 08308DE5 		str	r3, [sp, #8]
  84 0078 0C3096E5 		ldr	r3, [r6, #12]
  85              	.LPIC0:
  86 007c 02208FE0 		add	r2, pc, r2
  87 0080 00308DE5 		str	r3, [sp]
  88 0084 14329FE5 		ldr	r3, .L37+12
  89              	.LPIC5:
  90 0088 03308FE0 		add	r3, pc, r3
ARM GAS  /tmp/ccrI0Ik3.s 			page 3


  91 008c 04308DE5 		str	r3, [sp, #4]
  92 0090 023100E3 		movw	r3, #258
  93 0094 FEFFFFEB 		bl	siFormattedMessage_M2(PLT)
  94 0098 000055E3 		cmp	r5, #0
  95 009c 1400000A 		beq	.L11
  96 00a0 003096E5 		ldr	r3, [r6]
  97 00a4 010053E3 		cmp	r3, #1
  98 00a8 3100000A 		beq	.L5
  99 00ac 020053E3 		cmp	r3, #2
 100 00b0 2200000A 		beq	.L6
 101              	.L7:
 102 00b4 E8619FE5 		ldr	r6, .L37+16
 103 00b8 900F05E3 		movw	r0, #24464
 104 00bc 010040E3 		movt	r0, 1
 105 00c0 900500E0 		mul	r0, r0, r5
 106              	.LPIC15:
 107 00c4 06608FE0 		add	r6, pc, r6
 108 00c8 FEFFFFEB 		bl	EApiSleepns(PLT)
 109 00cc 104096E5 		ldr	r4, [r6, #16]
 110 00d0 003094E5 		ldr	r3, [r4]
 111 00d4 010073E3 		cmn	r3, #1
 112 00d8 0500000A 		beq	.L11
 113              	.L14:
 114 00dc 042096E5 		ldr	r2, [r6, #4]
 115 00e0 030052E1 		cmp	r2, r3
 116 00e4 4D00000A 		beq	.L34
 117 00e8 0C30B4E5 		ldr	r3, [r4, #12]!
 118 00ec 010073E3 		cmn	r3, #1
 119 00f0 F9FFFF1A 		bne	.L14
 120              	.L11:
 121 00f4 000057E3 		cmp	r7, #0
 122 00f8 2700001A 		bne	.L35
 123              	.L4:
 124 00fc A4C19FE5 		ldr	ip, .L37+20
 125 0100 0040A0E3 		mov	r4, #0
 126 0104 A0019FE5 		ldr	r0, .L37+24
 127 0108 4A3100E3 		movw	r3, #330
 128 010c 9C219FE5 		ldr	r2, .L37+28
 129 0110 9C119FE5 		ldr	r1, .L37+32
 130              	.LPIC19:
 131 0114 0CC08FE0 		add	ip, pc, ip
 132              	.LPIC20:
 133 0118 00008FE0 		add	r0, pc, r0
 134 011c 00408DE5 		str	r4, [sp]
 135 0120 01108DE9 		stmib	sp, {r0, ip}
 136              	.LPIC17:
 137 0124 02208FE0 		add	r2, pc, r2
 138              	.LPIC18:
 139 0128 01108FE0 		add	r1, pc, r1
 140 012c 4C00A0E3 		mov	r0, #76
 141 0130 FEFFFFEB 		bl	siFormattedMessage_SC(PLT)
 142 0134 0400A0E1 		mov	r0, r4
 143              	.L10:
 144              	.L1:
 145 0138 34D08DE2 		add	sp, sp, #52
 146              		@ sp needed
 147 013c F083BDE8 		pop	{r4, r5, r6, r7, r8, r9, pc}
ARM GAS  /tmp/ccrI0Ik3.s 			page 4


 148              	.L6:
 149 0140 010055E3 		cmp	r5, #1
 150 0144 4200000A 		beq	.L36
 151 0148 0030D4E5 		ldrb	r3, [r4]	@ zero_extendqisi2
 152 014c 200F0BE3 		movw	r0, #48928
 153 0150 020040E3 		movt	r0, 2
 154 0154 025045E2 		sub	r5, r5, #2
 155 0158 0334A0E1 		lsl	r3, r3, #8
 156 015c 043086E5 		str	r3, [r6, #4]
 157 0160 0120D4E5 		ldrb	r2, [r4, #1]	@ zero_extendqisi2
 158 0164 033082E1 		orr	r3, r2, r3
 159 0168 043086E5 		str	r3, [r6, #4]
 160 016c FEFFFFEB 		bl	EApiSleepns(PLT)
 161 0170 050000EA 		b	.L8
 162              	.L5:
 163 0174 0030D4E5 		ldrb	r3, [r4]	@ zero_extendqisi2
 164 0178 900F05E3 		movw	r0, #24464
 165 017c 010040E3 		movt	r0, 1
 166 0180 015045E2 		sub	r5, r5, #1
 167 0184 043086E5 		str	r3, [r6, #4]
 168 0188 FEFFFFEB 		bl	EApiSleepns(PLT)
 169              	.L8:
 170 018c 000055E3 		cmp	r5, #0
 171 0190 C7FFFF1A 		bne	.L7
 172 0194 000057E3 		cmp	r7, #0
 173 0198 D7FFFF0A 		beq	.L4
 174              	.L35:
 175 019c 14519FE5 		ldr	r5, .L37+36
 176 01a0 900F05E3 		movw	r0, #24464
 177 01a4 010040E3 		movt	r0, 1
 178 01a8 900700E0 		mul	r0, r0, r7
 179              	.LPIC21:
 180 01ac 05508FE0 		add	r5, pc, r5
 181 01b0 FEFFFFEB 		bl	EApiSleepns(PLT)
 182 01b4 104095E5 		ldr	r4, [r5, #16]
 183 01b8 002094E5 		ldr	r2, [r4]
 184 01bc 010072E3 		cmn	r2, #1
 185 01c0 CDFFFF0A 		beq	.L4
 186 01c4 3C4084E2 		add	r4, r4, #60
 187 01c8 040000EA 		b	.L17
 188              	.L15:
 189 01cc 00F0D4F5 		pld	[r4]
 190 01d0 0C4084E2 		add	r4, r4, #12
 191 01d4 3C2014E5 		ldr	r2, [r4, #-60]
 192 01d8 010072E3 		cmn	r2, #1
 193 01dc C6FFFF0A 		beq	.L4
 194              	.L17:
 195 01e0 043095E5 		ldr	r3, [r5, #4]
 196 01e4 020053E1 		cmp	r3, r2
 197 01e8 F7FFFF1A 		bne	.L15
 198 01ec 386014E5 		ldr	r6, [r4, #-56]
 199 01f0 0720A0E1 		mov	r2, r7
 200 01f4 341014E5 		ldr	r1, [r4, #-52]
 201 01f8 060057E1 		cmp	r7, r6
 202 01fc 1100009A 		bls	.L16
 203 0200 0620A0E1 		mov	r2, r6
 204 0204 0800A0E1 		mov	r0, r8
ARM GAS  /tmp/ccrI0Ik3.s 			page 5


 205 0208 FEFFFFEB 		bl	memcpy(PLT)
 206 020c FF20A0E3 		mov	r2, #255
 207 0210 061047E0 		sub	r1, r7, r6
 208 0214 060088E0 		add	r0, r8, r6
 209 0218 FEFFFFEB 		bl	memset(PLT)
 210 021c EAFFFFEA 		b	.L15
 211              	.L34:
 212 0220 042094E5 		ldr	r2, [r4, #4]
 213 0224 0810A0E1 		mov	r1, r8
 214 0228 080094E5 		ldr	r0, [r4, #8]
 215 022c 020057E1 		cmp	r7, r2
 216 0230 0720A031 		movcc	r2, r7
 217 0234 FEFFFFEB 		bl	memcpy(PLT)
 218 0238 0C30B4E5 		ldr	r3, [r4, #12]!
 219 023c 010073E3 		cmn	r3, #1
 220 0240 A5FFFF1A 		bne	.L14
 221 0244 AAFFFFEA 		b	.L11
 222              	.L16:
 223 0248 0800A0E1 		mov	r0, r8
 224 024c FEFFFFEB 		bl	memcpy(PLT)
 225 0250 DDFFFFEA 		b	.L15
 226              	.L36:
 227 0254 60209FE5 		ldr	r2, .L37+40
 228 0258 054CE0E3 		mvn	r4, #1280
 229 025c 5C009FE5 		ldr	r0, .L37+44
 230 0260 473FA0E3 		mov	r3, #284
 231 0264 0910A0E1 		mov	r1, r9
 232 0268 00408DE5 		str	r4, [sp]
 233              	.LPIC12:
 234 026c 02208FE0 		add	r2, pc, r2
 235 0270 04208DE5 		str	r2, [sp, #4]
 236              	.LPIC11:
 237 0274 00008FE0 		add	r0, pc, r0
 238 0278 44209FE5 		ldr	r2, .L37+48
 239 027c 08008DE5 		str	r0, [sp, #8]
 240 0280 4500A0E3 		mov	r0, #69
 241              	.LPIC9:
 242 0284 02208FE0 		add	r2, pc, r2
 243 0288 FEFFFFEB 		bl	siFormattedMessage_SC(PLT)
 244 028c 0400A0E1 		mov	r0, r4
 245 0290 A8FFFFEA 		b	.L1
 246              	.L38:
 247              		.align	2
 248              	.L37:
 249 0294 60020000 		.word	.LANCHOR0-(.LPIC2+8)
 250 0298 48020000 		.word	.LC1-(.LPIC1+8)
 251 029c 18020000 		.word	.LC0-(.LPIC0+8)
 252 02a0 10020000 		.word	.LC2-(.LPIC5+8)
 253 02a4 D8010000 		.word	.LANCHOR0-(.LPIC15+8)
 254 02a8 8C010000 		.word	.LC6-(.LPIC19+8)
 255 02ac 8C010000 		.word	.LC5-(.LPIC20+8)
 256 02b0 84010000 		.word	.LC3-(.LPIC17+8)
 257 02b4 84010000 		.word	.LC1-(.LPIC18+8)
 258 02b8 04010000 		.word	.LANCHOR0-(.LPIC21+8)
 259 02bc 48000000 		.word	.LC5-(.LPIC12+8)
 260 02c0 44000000 		.word	.LC4-(.LPIC11+8)
 261 02c4 38000000 		.word	.LC3-(.LPIC9+8)
ARM GAS  /tmp/ccrI0Ik3.s 			page 6


 263              		.section	.rodata.str1.4
 264 00d1 000000   		.align	2
 265              	.LC7:
 266 00d4 25337320 		.ascii	"%3s CIDX=%04lX Arg1=%1lX DLEN=%04lX PLEN=%04lX WLEN"
 266      43494458 
 266      3D253034 
 266      6C582041 
 266      7267313D 
 267 0107 3D253034 		.ascii	"=%04lX RLEN=%04lX %02X,%02X,%02X,%02X\012\000"
 267      6C582052 
 267      4C454E3D 
 267      2530346C 
 267      58202530 
 268              		.global	__aeabi_uidivmod
 269 012e 0000     		.align	2
 270              	.LC8:
 271 0130 43494E44 		.ascii	"CINDX=%04lX PLEN=%04lX EPLEN=%04lX\012\000"
 271      583D2530 
 271      346C5820 
 271      504C454E 
 271      3D253034 
 272              		.align	2
 273              	.LC9:
 274 0154 44657669 		.ascii	"Device Page Wrap around\000"
 274      63652050 
 274      61676520 
 274      57726170 
 274      2061726F 
 275              		.align	2
 276              	.LC10:
 277 016c 44657669 		.ascii	"Device Write Wrap around\000"
 277      63652057 
 277      72697465 
 277      20577261 
 277      70206172 
 278 0185 000000   		.align	2
 279              	.LC11:
 280 0188 44657669 		.ascii	"Device Write Error\000"
 280      63652057 
 280      72697465 
 280      20457272 
 280      6F7200
 281 019b 00       		.align	2
 282              	.LC12:
 283 019c 44657669 		.ascii	"Device Read Wrap around\000"
 283      63652052 
 283      65616420 
 283      57726170 
 283      2061726F 
 284              		.align	2
 285              	.LC13:
 286 01b4 44657669 		.ascii	"Device Read Error\000"
 286      63652052 
 286      65616420 
 286      4572726F 
 286      7200
 287              		.text
ARM GAS  /tmp/ccrI0Ik3.s 			page 7


 288              		.align	2
 289              		.global	EmulateDIDEeprom
 290              		.hidden	EmulateDIDEeprom
 291              		.syntax unified
 292              		.arm
 293              		.fpu vfpv3
 295              	EmulateDIDEeprom:
 296              		@ args = 4, pretend = 0, frame = 0
 297              		@ frame_needed = 0, uses_anonymous_args = 0
 298 02c8 F04F2DE9 		push	{r4, r5, r6, r7, r8, r9, r10, fp, lr}
 299 02cc 0390A0E1 		mov	r9, r3
 300 02d0 0330D1E5 		ldrb	r3, [r1, #3]	@ zero_extendqisi2
 301 02d4 3CD04DE2 		sub	sp, sp, #60
 302 02d8 0150A0E1 		mov	r5, r1
 303 02dc 0260A0E1 		mov	r6, r2
 304 02e0 28449FE5 		ldr	r4, .L73
 305 02e4 0080A0E1 		mov	r8, r0
 306 02e8 30308DE5 		str	r3, [sp, #48]
 307 02ec 0230D1E5 		ldrb	r3, [r1, #2]	@ zero_extendqisi2
 308              	.LPIC25:
 309 02f0 04408FE0 		add	r4, pc, r4
 310 02f4 60709DE5 		ldr	r7, [sp, #96]
 311 02f8 14B49FE5 		ldr	fp, .L73+4
 312 02fc 2C308DE5 		str	r3, [sp, #44]
 313 0300 0130D1E5 		ldrb	r3, [r1, #1]	@ zero_extendqisi2
 314 0304 242094E5 		ldr	r2, [r4, #36]
 315              	.LPIC23:
 316 0308 0BB08FE0 		add	fp, pc, fp
 317 030c 04A49FE5 		ldr	r10, .L73+8
 318 0310 28308DE5 		str	r3, [sp, #40]
 319 0314 281094E5 		ldr	r1, [r4, #40]
 320 0318 0030D5E5 		ldrb	r3, [r5]	@ zero_extendqisi2
 321 031c 022184E0 		add	r2, r4, r2, lsl #2
 322 0320 10008DE5 		str	r0, [sp, #16]
 323              	.LPIC24:
 324 0324 0AA08FE0 		add	r10, pc, r10
 325 0328 18108DE5 		str	r1, [sp, #24]
 326 032c 4C00A0E3 		mov	r0, #76
 327 0330 24308DE5 		str	r3, [sp, #36]
 328 0334 0A10A0E1 		mov	r1, r10
 329 0338 FC61CDE1 		strd	r6, [sp, #28]
 330 033c 203094E5 		ldr	r3, [r4, #32]
 331 0340 14308DE5 		str	r3, [sp, #20]
 332 0344 2C3094E5 		ldr	r3, [r4, #44]
 333 0348 0C308DE5 		str	r3, [sp, #12]
 334 034c 143092E5 		ldr	r3, [r2, #20]
 335 0350 0B20A0E1 		mov	r2, fp
 336 0354 08308DE5 		str	r3, [sp, #8]
 337 0358 343094E5 		ldr	r3, [r4, #52]
 338 035c 00308DE5 		str	r3, [sp]
 339 0360 B4339FE5 		ldr	r3, .L73+12
 340              	.LPIC30:
 341 0364 03308FE0 		add	r3, pc, r3
 342 0368 04308DE5 		str	r3, [sp, #4]
 343 036c 7E30A0E3 		mov	r3, #126
 344 0370 FEFFFFEB 		bl	siFormattedMessage_M2(PLT)
 345 0374 000056E3 		cmp	r6, #0
ARM GAS  /tmp/ccrI0Ik3.s 			page 8


 346 0378 3300000A 		beq	.L41
 347 037c 243094E5 		ldr	r3, [r4, #36]
 348 0380 010053E3 		cmp	r3, #1
 349 0384 1000000A 		beq	.L42
 350 0388 020053E3 		cmp	r3, #2
 351 038c 5A00001A 		bne	.L65
 352 0390 010056E3 		cmp	r6, #1
 353 0394 B400000A 		beq	.L66
 354 0398 05A0A0E1 		mov	r10, r5
 355 039c 200F0BE3 		movw	r0, #48928
 356 03a0 0220DAE4 		ldrb	r2, [r10], #2	@ zero_extendqisi2
 357 03a4 020040E3 		movt	r0, 2
 358 03a8 026046E2 		sub	r6, r6, #2
 359 03ac 0224A0E1 		lsl	r2, r2, #8
 360 03b0 2C2084E5 		str	r2, [r4, #44]
 361 03b4 0130D5E5 		ldrb	r3, [r5, #1]	@ zero_extendqisi2
 362 03b8 083883E1 		orr	r3, r3, r8, lsl #16
 363 03bc 023083E1 		orr	r3, r3, r2
 364 03c0 2C3084E5 		str	r3, [r4, #44]
 365 03c4 FEFFFFEB 		bl	EApiSleepns(PLT)
 366 03c8 070000EA 		b	.L45
 367              	.L42:
 368 03cc 05A0A0E1 		mov	r10, r5
 369 03d0 900F05E3 		movw	r0, #24464
 370 03d4 0130DAE4 		ldrb	r3, [r10], #1	@ zero_extendqisi2
 371 03d8 010040E3 		movt	r0, 1
 372 03dc 016046E2 		sub	r6, r6, #1
 373 03e0 083483E1 		orr	r3, r3, r8, lsl #8
 374 03e4 2C3084E5 		str	r3, [r4, #44]
 375 03e8 FEFFFFEB 		bl	EApiSleepns(PLT)
 376              	.L45:
 377 03ec 2C439FE5 		ldr	r4, .L73+16
 378              	.LPIC40:
 379 03f0 04408FE0 		add	r4, pc, r4
 380 03f4 2C5094E5 		ldr	r5, [r4, #44]
 381 03f8 281094E5 		ldr	r1, [r4, #40]
 382 03fc 0500A0E1 		mov	r0, r5
 383 0400 FEFFFFEB 		bl	__aeabi_uidivmod(PLT)
 384 0404 08508DE5 		str	r5, [sp, #8]
 385 0408 4C00A0E3 		mov	r0, #76
 386 040c 343094E5 		ldr	r3, [r4, #52]
 387 0410 0C108DE5 		str	r1, [sp, #12]
 388 0414 061081E0 		add	r1, r1, r6
 389 0418 10108DE5 		str	r1, [sp, #16]
 390 041c 00308DE5 		str	r3, [sp]
 391 0420 FC329FE5 		ldr	r3, .L73+20
 392 0424 FC229FE5 		ldr	r2, .L73+24
 393 0428 FC129FE5 		ldr	r1, .L73+28
 394              	.LPIC44:
 395 042c 03308FE0 		add	r3, pc, r3
 396 0430 04308DE5 		str	r3, [sp, #4]
 397              	.LPIC42:
 398 0434 02208FE0 		add	r2, pc, r2
 399              	.LPIC43:
 400 0438 01108FE0 		add	r1, pc, r1
 401 043c B230A0E3 		mov	r3, #178
 402 0440 FEFFFFEB 		bl	siFormattedMessage_M2(PLT)
ARM GAS  /tmp/ccrI0Ik3.s 			page 9


 403 0444 000056E3 		cmp	r6, #0
 404 0448 AE00001A 		bne	.L67
 405              	.L41:
 406 044c 000057E3 		cmp	r7, #0
 407 0450 1800000A 		beq	.L52
 408 0454 D4429FE5 		ldr	r4, .L73+32
 409              	.LPIC66:
 410 0458 04408FE0 		add	r4, pc, r4
 411 045c 2C3094E5 		ldr	r3, [r4, #44]
 412 0460 202094E5 		ldr	r2, [r4, #32]
 413 0464 033087E0 		add	r3, r7, r3
 414 0468 020053E1 		cmp	r3, r2
 415 046c 6700008A 		bhi	.L68
 416 0470 900F05E3 		movw	r0, #24464
 417 0474 010040E3 		movt	r0, 1
 418 0478 900700E0 		mul	r0, r0, r7
 419 047c FEFFFFEB 		bl	EApiSleepns(PLT)
 420 0480 2C1094E5 		ldr	r1, [r4, #44]
 421 0484 0020A0E3 		mov	r2, #0
 422 0488 380094E5 		ldr	r0, [r4, #56]
 423 048c FEFFFFEB 		bl	fseek(PLT)
 424 0490 383094E5 		ldr	r3, [r4, #56]
 425 0494 0720A0E1 		mov	r2, r7
 426 0498 0900A0E1 		mov	r0, r9
 427 049c 0110A0E3 		mov	r1, #1
 428 04a0 FEFFFFEB 		bl	fread(PLT)
 429 04a4 000057E1 		cmp	r7, r0
 430 04a8 4700001A 		bne	.L69
 431 04ac 2C3094E5 		ldr	r3, [r4, #44]
 432 04b0 073083E0 		add	r3, r3, r7
 433 04b4 2C3084E5 		str	r3, [r4, #44]
 434              	.L52:
 435              	.L47:
 436 04b8 74C29FE5 		ldr	ip, .L73+36
 437 04bc 0040A0E3 		mov	r4, #0
 438 04c0 70029FE5 		ldr	r0, .L73+40
 439 04c4 E830A0E3 		mov	r3, #232
 440 04c8 6C229FE5 		ldr	r2, .L73+44
 441 04cc 6C129FE5 		ldr	r1, .L73+48
 442              	.LPIC83:
 443 04d0 0CC08FE0 		add	ip, pc, ip
 444              	.LPIC84:
 445 04d4 00008FE0 		add	r0, pc, r0
 446 04d8 00408DE5 		str	r4, [sp]
 447 04dc 01108DE9 		stmib	sp, {r0, ip}
 448              	.LPIC81:
 449 04e0 02208FE0 		add	r2, pc, r2
 450              	.LPIC82:
 451 04e4 01108FE0 		add	r1, pc, r1
 452 04e8 4C00A0E3 		mov	r0, #76
 453 04ec FEFFFFEB 		bl	siFormattedMessage_SC(PLT)
 454 04f0 0400A0E1 		mov	r0, r4
 455              	.L39:
 456 04f4 3CD08DE2 		add	sp, sp, #60
 457              		@ sp needed
 458 04f8 F08FBDE8 		pop	{r4, r5, r6, r7, r8, r9, r10, fp, pc}
 459              	.L65:
ARM GAS  /tmp/ccrI0Ik3.s 			page 10


 460 04fc 2C8094E5 		ldr	r8, [r4, #44]
 461 0500 281094E5 		ldr	r1, [r4, #40]
 462 0504 0800A0E1 		mov	r0, r8
 463 0508 FEFFFFEB 		bl	__aeabi_uidivmod(PLT)
 464 050c 08808DE5 		str	r8, [sp, #8]
 465 0510 0B20A0E1 		mov	r2, fp
 466 0514 343094E5 		ldr	r3, [r4, #52]
 467 0518 4C00A0E3 		mov	r0, #76
 468 051c 00308DE5 		str	r3, [sp]
 469 0520 0130A0E1 		mov	r3, r1
 470 0524 0C308DE5 		str	r3, [sp, #12]
 471 0528 033086E0 		add	r3, r6, r3
 472 052c 10308DE5 		str	r3, [sp, #16]
 473 0530 0A10A0E1 		mov	r1, r10
 474 0534 08329FE5 		ldr	r3, .L73+52
 475              	.LPIC89:
 476 0538 03308FE0 		add	r3, pc, r3
 477 053c 04308DE5 		str	r3, [sp, #4]
 478 0540 B230A0E3 		mov	r3, #178
 479 0544 FEFFFFEB 		bl	siFormattedMessage_M2(PLT)
 480              	.L55:
 481 0548 F8419FE5 		ldr	r4, .L73+56
 482              	.LPIC46:
 483 054c 04408FE0 		add	r4, pc, r4
 484 0550 28A094E5 		ldr	r10, [r4, #40]
 485 0554 2C8094E5 		ldr	r8, [r4, #44]
 486 0558 0A10A0E1 		mov	r1, r10
 487 055c 0800A0E1 		mov	r0, r8
 488 0560 FEFFFFEB 		bl	__aeabi_uidivmod(PLT)
 489 0564 061081E0 		add	r1, r1, r6
 490 0568 01005AE1 		cmp	r10, r1
 491 056c 5900003A 		bcc	.L70
 492 0570 203094E5 		ldr	r3, [r4, #32]
 493 0574 068088E0 		add	r8, r8, r6
 494 0578 030058E1 		cmp	r8, r3
 495 057c 2E00008A 		bhi	.L71
 496 0580 900F05E3 		movw	r0, #24464
 497 0584 010040E3 		movt	r0, 1
 498 0588 900600E0 		mul	r0, r0, r6
 499 058c FEFFFFEB 		bl	EApiSleepns(PLT)
 500 0590 2C1094E5 		ldr	r1, [r4, #44]
 501 0594 0020A0E3 		mov	r2, #0
 502 0598 380094E5 		ldr	r0, [r4, #56]
 503 059c FEFFFFEB 		bl	fseek(PLT)
 504 05a0 383094E5 		ldr	r3, [r4, #56]
 505 05a4 0500A0E1 		mov	r0, r5
 506 05a8 0620A0E1 		mov	r2, r6
 507 05ac 0110A0E3 		mov	r1, #1
 508 05b0 FEFFFFEB 		bl	fwrite(PLT)
 509 05b4 060050E1 		cmp	r0, r6
 510 05b8 3A00001A 		bne	.L72
 511 05bc 2C3094E5 		ldr	r3, [r4, #44]
 512 05c0 063083E0 		add	r3, r3, r6
 513 05c4 2C3084E5 		str	r3, [r4, #44]
 514 05c8 9FFFFFEA 		b	.L41
 515              	.L69:
 516 05cc 78C19FE5 		ldr	ip, .L73+60
ARM GAS  /tmp/ccrI0Ik3.s 			page 11


 517 05d0 054CE0E3 		mvn	r4, #1280
 518 05d4 74019FE5 		ldr	r0, .L73+64
 519 05d8 E030A0E3 		mov	r3, #224
 520 05dc 70219FE5 		ldr	r2, .L73+68
 521 05e0 70119FE5 		ldr	r1, .L73+72
 522              	.LPIC77:
 523 05e4 0CC08FE0 		add	ip, pc, ip
 524              	.LPIC78:
 525 05e8 00008FE0 		add	r0, pc, r0
 526              	.LPIC75:
 527 05ec 02208FE0 		add	r2, pc, r2
 528              	.LPIC76:
 529 05f0 01108FE0 		add	r1, pc, r1
 530              	.L64:
 531 05f4 01108DE9 		stmib	sp, {r0, ip}
 532 05f8 4500A0E3 		mov	r0, #69
 533 05fc 00408DE5 		str	r4, [sp]
 534 0600 FEFFFFEB 		bl	siFormattedMessage_SC(PLT)
 535 0604 0400A0E1 		mov	r0, r4
 536 0608 3CD08DE2 		add	sp, sp, #60
 537              		@ sp needed
 538 060c F08FBDE8 		pop	{r4, r5, r6, r7, r8, r9, r10, fp, pc}
 539              	.L68:
 540 0610 44C19FE5 		ldr	ip, .L73+76
 541 0614 054CE0E3 		mvn	r4, #1280
 542 0618 40019FE5 		ldr	r0, .L73+80
 543 061c D730A0E3 		mov	r3, #215
 544 0620 3C219FE5 		ldr	r2, .L73+84
 545 0624 3C119FE5 		ldr	r1, .L73+88
 546              	.LPIC70:
 547 0628 0CC08FE0 		add	ip, pc, ip
 548              	.LPIC71:
 549 062c 00008FE0 		add	r0, pc, r0
 550              	.LPIC68:
 551 0630 02208FE0 		add	r2, pc, r2
 552              	.LPIC69:
 553 0634 01108FE0 		add	r1, pc, r1
 554 0638 EDFFFFEA 		b	.L64
 555              	.L71:
 556 063c 28C19FE5 		ldr	ip, .L73+92
 557 0640 FE4A0FE3 		movw	r4, #64254
 558 0644 24019FE5 		ldr	r0, .L73+96
 559 0648 FF4F4FE3 		movt	r4, 65535
 560 064c 20219FE5 		ldr	r2, .L73+100
 561 0650 C230A0E3 		mov	r3, #194
 562 0654 1C119FE5 		ldr	r1, .L73+104
 563              	.LPIC55:
 564 0658 0CC08FE0 		add	ip, pc, ip
 565              	.LPIC56:
 566 065c 00008FE0 		add	r0, pc, r0
 567              	.LPIC53:
 568 0660 02208FE0 		add	r2, pc, r2
 569              	.LPIC54:
 570 0664 01108FE0 		add	r1, pc, r1
 571 0668 E1FFFFEA 		b	.L64
 572              	.L66:
 573 066c 08019FE5 		ldr	r0, .L73+108
ARM GAS  /tmp/ccrI0Ik3.s 			page 12


 574 0670 054CE0E3 		mvn	r4, #1280
 575 0674 04319FE5 		ldr	r3, .L73+112
 576 0678 0B20A0E1 		mov	r2, fp
 577 067c 0A10A0E1 		mov	r1, r10
 578 0680 00408DE5 		str	r4, [sp]
 579              	.LPIC36:
 580 0684 00008FE0 		add	r0, pc, r0
 581              	.LPIC37:
 582 0688 03308FE0 		add	r3, pc, r3
 583 068c 08008DE5 		str	r0, [sp, #8]
 584 0690 04308DE5 		str	r3, [sp, #4]
 585 0694 4500A0E3 		mov	r0, #69
 586 0698 9C30A0E3 		mov	r3, #156
 587 069c FEFFFFEB 		bl	siFormattedMessage_SC(PLT)
 588 06a0 0400A0E1 		mov	r0, r4
 589 06a4 92FFFFEA 		b	.L39
 590              	.L72:
 591 06a8 D4C09FE5 		ldr	ip, .L73+116
 592 06ac FE4A0FE3 		movw	r4, #64254
 593 06b0 D0009FE5 		ldr	r0, .L73+120
 594 06b4 FF4F4FE3 		movt	r4, 65535
 595 06b8 CC209FE5 		ldr	r2, .L73+124
 596 06bc CB30A0E3 		mov	r3, #203
 597 06c0 C8109FE5 		ldr	r1, .L73+128
 598              	.LPIC62:
 599 06c4 0CC08FE0 		add	ip, pc, ip
 600              	.LPIC63:
 601 06c8 00008FE0 		add	r0, pc, r0
 602              	.LPIC60:
 603 06cc 02208FE0 		add	r2, pc, r2
 604              	.LPIC61:
 605 06d0 01108FE0 		add	r1, pc, r1
 606 06d4 C6FFFFEA 		b	.L64
 607              	.L70:
 608 06d8 B4C09FE5 		ldr	ip, .L73+132
 609 06dc FE4A0FE3 		movw	r4, #64254
 610 06e0 B0009FE5 		ldr	r0, .L73+136
 611 06e4 FF4F4FE3 		movt	r4, 65535
 612 06e8 AC209FE5 		ldr	r2, .L73+140
 613 06ec BC30A0E3 		mov	r3, #188
 614 06f0 A8109FE5 		ldr	r1, .L73+144
 615              	.LPIC50:
 616 06f4 0CC08FE0 		add	ip, pc, ip
 617              	.LPIC51:
 618 06f8 00008FE0 		add	r0, pc, r0
 619              	.LPIC48:
 620 06fc 02208FE0 		add	r2, pc, r2
 621              	.LPIC49:
 622 0700 01108FE0 		add	r1, pc, r1
 623 0704 BAFFFFEA 		b	.L64
 624              	.L67:
 625 0708 0A50A0E1 		mov	r5, r10
 626 070c 8DFFFFEA 		b	.L55
 627              	.L74:
 628              		.align	2
 629              	.L73:
 630 0710 18040000 		.word	.LANCHOR0-(.LPIC25+8)
ARM GAS  /tmp/ccrI0Ik3.s 			page 13


 631 0714 04040000 		.word	.LC3-(.LPIC23+8)
 632 0718 EC030000 		.word	.LC1-(.LPIC24+8)
 633 071c B0030000 		.word	.LC7-(.LPIC30+8)
 634 0720 28030000 		.word	.LANCHOR0-(.LPIC40+8)
 635 0724 F0020000 		.word	.LC8-(.LPIC44+8)
 636 0728 EC020000 		.word	.LC3-(.LPIC42+8)
 637 072c EC020000 		.word	.LC1-(.LPIC43+8)
 638 0730 D0020000 		.word	.LANCHOR0-(.LPIC66+8)
 639 0734 5C020000 		.word	.LC6-(.LPIC83+8)
 640 0738 5C020000 		.word	.LC5-(.LPIC84+8)
 641 073c 54020000 		.word	.LC3-(.LPIC81+8)
 642 0740 54020000 		.word	.LC1-(.LPIC82+8)
 643 0744 04020000 		.word	.LC8-(.LPIC89+8)
 644 0748 F4010000 		.word	.LANCHOR0-(.LPIC46+8)
 645 074c 60010000 		.word	.LC13-(.LPIC77+8)
 646 0750 60010000 		.word	.LC5-(.LPIC78+8)
 647 0754 60010000 		.word	.LC3-(.LPIC75+8)
 648 0758 60010000 		.word	.LC1-(.LPIC76+8)
 649 075c 2C010000 		.word	.LC12-(.LPIC70+8)
 650 0760 2C010000 		.word	.LC5-(.LPIC71+8)
 651 0764 2C010000 		.word	.LC3-(.LPIC68+8)
 652 0768 2C010000 		.word	.LC1-(.LPIC69+8)
 653 076c 0C010000 		.word	.LC10-(.LPIC55+8)
 654 0770 0C010000 		.word	.LC5-(.LPIC56+8)
 655 0774 0C010000 		.word	.LC3-(.LPIC53+8)
 656 0778 0C010000 		.word	.LC1-(.LPIC54+8)
 657 077c F0000000 		.word	.LC4-(.LPIC36+8)
 658 0780 F0000000 		.word	.LC5-(.LPIC37+8)
 659 0784 B8000000 		.word	.LC11-(.LPIC62+8)
 660 0788 B8000000 		.word	.LC5-(.LPIC63+8)
 661 078c B8000000 		.word	.LC3-(.LPIC60+8)
 662 0790 B8000000 		.word	.LC1-(.LPIC61+8)
 663 0794 98000000 		.word	.LC9-(.LPIC50+8)
 664 0798 98000000 		.word	.LC5-(.LPIC51+8)
 665 079c 98000000 		.word	.LC3-(.LPIC48+8)
 666 07a0 98000000 		.word	.LC1-(.LPIC49+8)
 668              		.align	2
 669              		.global	EmulateUDSEeprom
 670              		.hidden	EmulateUDSEeprom
 671              		.syntax unified
 672              		.arm
 673              		.fpu vfpv3
 675              	EmulateUDSEeprom:
 676              		@ args = 4, pretend = 0, frame = 0
 677              		@ frame_needed = 0, uses_anonymous_args = 0
 678 07a4 F04F2DE9 		push	{r4, r5, r6, r7, r8, r9, r10, fp, lr}
 679 07a8 0390A0E1 		mov	r9, r3
 680 07ac 0330D1E5 		ldrb	r3, [r1, #3]	@ zero_extendqisi2
 681 07b0 3CD04DE2 		sub	sp, sp, #60
 682 07b4 0150A0E1 		mov	r5, r1
 683 07b8 0260A0E1 		mov	r6, r2
 684 07bc 28449FE5 		ldr	r4, .L109
 685 07c0 0080A0E1 		mov	r8, r0
 686 07c4 30308DE5 		str	r3, [sp, #48]
 687 07c8 0230D1E5 		ldrb	r3, [r1, #2]	@ zero_extendqisi2
 688              	.LPIC93:
 689 07cc 04408FE0 		add	r4, pc, r4
ARM GAS  /tmp/ccrI0Ik3.s 			page 14


 690 07d0 60709DE5 		ldr	r7, [sp, #96]
 691 07d4 14B49FE5 		ldr	fp, .L109+4
 692 07d8 2C308DE5 		str	r3, [sp, #44]
 693 07dc 0130D1E5 		ldrb	r3, [r1, #1]	@ zero_extendqisi2
 694 07e0 402094E5 		ldr	r2, [r4, #64]
 695              	.LPIC91:
 696 07e4 0BB08FE0 		add	fp, pc, fp
 697 07e8 04A49FE5 		ldr	r10, .L109+8
 698 07ec 28308DE5 		str	r3, [sp, #40]
 699 07f0 441094E5 		ldr	r1, [r4, #68]
 700 07f4 0030D5E5 		ldrb	r3, [r5]	@ zero_extendqisi2
 701 07f8 022184E0 		add	r2, r4, r2, lsl #2
 702 07fc 10008DE5 		str	r0, [sp, #16]
 703              	.LPIC92:
 704 0800 0AA08FE0 		add	r10, pc, r10
 705 0804 18108DE5 		str	r1, [sp, #24]
 706 0808 4C00A0E3 		mov	r0, #76
 707 080c 24308DE5 		str	r3, [sp, #36]
 708 0810 0A10A0E1 		mov	r1, r10
 709 0814 FC61CDE1 		strd	r6, [sp, #28]
 710 0818 3C3094E5 		ldr	r3, [r4, #60]
 711 081c 14308DE5 		str	r3, [sp, #20]
 712 0820 483094E5 		ldr	r3, [r4, #72]
 713 0824 0C308DE5 		str	r3, [sp, #12]
 714 0828 143092E5 		ldr	r3, [r2, #20]
 715 082c 0B20A0E1 		mov	r2, fp
 716 0830 08308DE5 		str	r3, [sp, #8]
 717 0834 503094E5 		ldr	r3, [r4, #80]
 718 0838 00308DE5 		str	r3, [sp]
 719 083c B4339FE5 		ldr	r3, .L109+12
 720              	.LPIC98:
 721 0840 03308FE0 		add	r3, pc, r3
 722 0844 04308DE5 		str	r3, [sp, #4]
 723 0848 7E30A0E3 		mov	r3, #126
 724 084c FEFFFFEB 		bl	siFormattedMessage_M2(PLT)
 725 0850 000056E3 		cmp	r6, #0
 726 0854 3300000A 		beq	.L77
 727 0858 403094E5 		ldr	r3, [r4, #64]
 728 085c 010053E3 		cmp	r3, #1
 729 0860 1000000A 		beq	.L78
 730 0864 020053E3 		cmp	r3, #2
 731 0868 5A00001A 		bne	.L101
 732 086c 010056E3 		cmp	r6, #1
 733 0870 B400000A 		beq	.L102
 734 0874 05A0A0E1 		mov	r10, r5
 735 0878 200F0BE3 		movw	r0, #48928
 736 087c 0220DAE4 		ldrb	r2, [r10], #2	@ zero_extendqisi2
 737 0880 020040E3 		movt	r0, 2
 738 0884 026046E2 		sub	r6, r6, #2
 739 0888 0224A0E1 		lsl	r2, r2, #8
 740 088c 482084E5 		str	r2, [r4, #72]
 741 0890 0130D5E5 		ldrb	r3, [r5, #1]	@ zero_extendqisi2
 742 0894 083883E1 		orr	r3, r3, r8, lsl #16
 743 0898 023083E1 		orr	r3, r3, r2
 744 089c 483084E5 		str	r3, [r4, #72]
 745 08a0 FEFFFFEB 		bl	EApiSleepns(PLT)
 746 08a4 070000EA 		b	.L81
ARM GAS  /tmp/ccrI0Ik3.s 			page 15


 747              	.L78:
 748 08a8 05A0A0E1 		mov	r10, r5
 749 08ac 900F05E3 		movw	r0, #24464
 750 08b0 0130DAE4 		ldrb	r3, [r10], #1	@ zero_extendqisi2
 751 08b4 010040E3 		movt	r0, 1
 752 08b8 016046E2 		sub	r6, r6, #1
 753 08bc 083483E1 		orr	r3, r3, r8, lsl #8
 754 08c0 483084E5 		str	r3, [r4, #72]
 755 08c4 FEFFFFEB 		bl	EApiSleepns(PLT)
 756              	.L81:
 757 08c8 2C439FE5 		ldr	r4, .L109+16
 758              	.LPIC108:
 759 08cc 04408FE0 		add	r4, pc, r4
 760 08d0 485094E5 		ldr	r5, [r4, #72]
 761 08d4 441094E5 		ldr	r1, [r4, #68]
 762 08d8 0500A0E1 		mov	r0, r5
 763 08dc FEFFFFEB 		bl	__aeabi_uidivmod(PLT)
 764 08e0 08508DE5 		str	r5, [sp, #8]
 765 08e4 4C00A0E3 		mov	r0, #76
 766 08e8 503094E5 		ldr	r3, [r4, #80]
 767 08ec 0C108DE5 		str	r1, [sp, #12]
 768 08f0 061081E0 		add	r1, r1, r6
 769 08f4 10108DE5 		str	r1, [sp, #16]
 770 08f8 00308DE5 		str	r3, [sp]
 771 08fc FC329FE5 		ldr	r3, .L109+20
 772 0900 FC229FE5 		ldr	r2, .L109+24
 773 0904 FC129FE5 		ldr	r1, .L109+28
 774              	.LPIC112:
 775 0908 03308FE0 		add	r3, pc, r3
 776 090c 04308DE5 		str	r3, [sp, #4]
 777              	.LPIC110:
 778 0910 02208FE0 		add	r2, pc, r2
 779              	.LPIC111:
 780 0914 01108FE0 		add	r1, pc, r1
 781 0918 B230A0E3 		mov	r3, #178
 782 091c FEFFFFEB 		bl	siFormattedMessage_M2(PLT)
 783 0920 000056E3 		cmp	r6, #0
 784 0924 AE00001A 		bne	.L103
 785              	.L77:
 786 0928 000057E3 		cmp	r7, #0
 787 092c 1800000A 		beq	.L88
 788 0930 D4429FE5 		ldr	r4, .L109+32
 789              	.LPIC134:
 790 0934 04408FE0 		add	r4, pc, r4
 791 0938 483094E5 		ldr	r3, [r4, #72]
 792 093c 3C2094E5 		ldr	r2, [r4, #60]
 793 0940 033087E0 		add	r3, r7, r3
 794 0944 020053E1 		cmp	r3, r2
 795 0948 6700008A 		bhi	.L104
 796 094c 900F05E3 		movw	r0, #24464
 797 0950 010040E3 		movt	r0, 1
 798 0954 900700E0 		mul	r0, r0, r7
 799 0958 FEFFFFEB 		bl	EApiSleepns(PLT)
 800 095c 481094E5 		ldr	r1, [r4, #72]
 801 0960 0020A0E3 		mov	r2, #0
 802 0964 540094E5 		ldr	r0, [r4, #84]
 803 0968 FEFFFFEB 		bl	fseek(PLT)
ARM GAS  /tmp/ccrI0Ik3.s 			page 16


 804 096c 543094E5 		ldr	r3, [r4, #84]
 805 0970 0720A0E1 		mov	r2, r7
 806 0974 0900A0E1 		mov	r0, r9
 807 0978 0110A0E3 		mov	r1, #1
 808 097c FEFFFFEB 		bl	fread(PLT)
 809 0980 000057E1 		cmp	r7, r0
 810 0984 4700001A 		bne	.L105
 811 0988 483094E5 		ldr	r3, [r4, #72]
 812 098c 073083E0 		add	r3, r3, r7
 813 0990 483084E5 		str	r3, [r4, #72]
 814              	.L88:
 815              	.L83:
 816 0994 74C29FE5 		ldr	ip, .L109+36
 817 0998 0040A0E3 		mov	r4, #0
 818 099c 70029FE5 		ldr	r0, .L109+40
 819 09a0 E830A0E3 		mov	r3, #232
 820 09a4 6C229FE5 		ldr	r2, .L109+44
 821 09a8 6C129FE5 		ldr	r1, .L109+48
 822              	.LPIC151:
 823 09ac 0CC08FE0 		add	ip, pc, ip
 824              	.LPIC152:
 825 09b0 00008FE0 		add	r0, pc, r0
 826 09b4 00408DE5 		str	r4, [sp]
 827 09b8 01108DE9 		stmib	sp, {r0, ip}
 828              	.LPIC149:
 829 09bc 02208FE0 		add	r2, pc, r2
 830              	.LPIC150:
 831 09c0 01108FE0 		add	r1, pc, r1
 832 09c4 4C00A0E3 		mov	r0, #76
 833 09c8 FEFFFFEB 		bl	siFormattedMessage_SC(PLT)
 834 09cc 0400A0E1 		mov	r0, r4
 835              	.L75:
 836 09d0 3CD08DE2 		add	sp, sp, #60
 837              		@ sp needed
 838 09d4 F08FBDE8 		pop	{r4, r5, r6, r7, r8, r9, r10, fp, pc}
 839              	.L101:
 840 09d8 488094E5 		ldr	r8, [r4, #72]
 841 09dc 441094E5 		ldr	r1, [r4, #68]
 842 09e0 0800A0E1 		mov	r0, r8
 843 09e4 FEFFFFEB 		bl	__aeabi_uidivmod(PLT)
 844 09e8 08808DE5 		str	r8, [sp, #8]
 845 09ec 0B20A0E1 		mov	r2, fp
 846 09f0 503094E5 		ldr	r3, [r4, #80]
 847 09f4 4C00A0E3 		mov	r0, #76
 848 09f8 00308DE5 		str	r3, [sp]
 849 09fc 0130A0E1 		mov	r3, r1
 850 0a00 0C308DE5 		str	r3, [sp, #12]
 851 0a04 033086E0 		add	r3, r6, r3
 852 0a08 10308DE5 		str	r3, [sp, #16]
 853 0a0c 0A10A0E1 		mov	r1, r10
 854 0a10 08329FE5 		ldr	r3, .L109+52
 855              	.LPIC157:
 856 0a14 03308FE0 		add	r3, pc, r3
 857 0a18 04308DE5 		str	r3, [sp, #4]
 858 0a1c B230A0E3 		mov	r3, #178
 859 0a20 FEFFFFEB 		bl	siFormattedMessage_M2(PLT)
 860              	.L91:
ARM GAS  /tmp/ccrI0Ik3.s 			page 17


 861 0a24 F8419FE5 		ldr	r4, .L109+56
 862              	.LPIC114:
 863 0a28 04408FE0 		add	r4, pc, r4
 864 0a2c 44A094E5 		ldr	r10, [r4, #68]
 865 0a30 488094E5 		ldr	r8, [r4, #72]
 866 0a34 0A10A0E1 		mov	r1, r10
 867 0a38 0800A0E1 		mov	r0, r8
 868 0a3c FEFFFFEB 		bl	__aeabi_uidivmod(PLT)
 869 0a40 061081E0 		add	r1, r1, r6
 870 0a44 01005AE1 		cmp	r10, r1
 871 0a48 5900003A 		bcc	.L106
 872 0a4c 3C3094E5 		ldr	r3, [r4, #60]
 873 0a50 068088E0 		add	r8, r8, r6
 874 0a54 030058E1 		cmp	r8, r3
 875 0a58 2E00008A 		bhi	.L107
 876 0a5c 900F05E3 		movw	r0, #24464
 877 0a60 010040E3 		movt	r0, 1
 878 0a64 900600E0 		mul	r0, r0, r6
 879 0a68 FEFFFFEB 		bl	EApiSleepns(PLT)
 880 0a6c 481094E5 		ldr	r1, [r4, #72]
 881 0a70 0020A0E3 		mov	r2, #0
 882 0a74 540094E5 		ldr	r0, [r4, #84]
 883 0a78 FEFFFFEB 		bl	fseek(PLT)
 884 0a7c 543094E5 		ldr	r3, [r4, #84]
 885 0a80 0500A0E1 		mov	r0, r5
 886 0a84 0620A0E1 		mov	r2, r6
 887 0a88 0110A0E3 		mov	r1, #1
 888 0a8c FEFFFFEB 		bl	fwrite(PLT)
 889 0a90 060050E1 		cmp	r0, r6
 890 0a94 3A00001A 		bne	.L108
 891 0a98 483094E5 		ldr	r3, [r4, #72]
 892 0a9c 063083E0 		add	r3, r3, r6
 893 0aa0 483084E5 		str	r3, [r4, #72]
 894 0aa4 9FFFFFEA 		b	.L77
 895              	.L105:
 896 0aa8 78C19FE5 		ldr	ip, .L109+60
 897 0aac 054CE0E3 		mvn	r4, #1280
 898 0ab0 74019FE5 		ldr	r0, .L109+64
 899 0ab4 E030A0E3 		mov	r3, #224
 900 0ab8 70219FE5 		ldr	r2, .L109+68
 901 0abc 70119FE5 		ldr	r1, .L109+72
 902              	.LPIC145:
 903 0ac0 0CC08FE0 		add	ip, pc, ip
 904              	.LPIC146:
 905 0ac4 00008FE0 		add	r0, pc, r0
 906              	.LPIC143:
 907 0ac8 02208FE0 		add	r2, pc, r2
 908              	.LPIC144:
 909 0acc 01108FE0 		add	r1, pc, r1
 910              	.L100:
 911 0ad0 01108DE9 		stmib	sp, {r0, ip}
 912 0ad4 4500A0E3 		mov	r0, #69
 913 0ad8 00408DE5 		str	r4, [sp]
 914 0adc FEFFFFEB 		bl	siFormattedMessage_SC(PLT)
 915 0ae0 0400A0E1 		mov	r0, r4
 916 0ae4 3CD08DE2 		add	sp, sp, #60
 917              		@ sp needed
ARM GAS  /tmp/ccrI0Ik3.s 			page 18


 918 0ae8 F08FBDE8 		pop	{r4, r5, r6, r7, r8, r9, r10, fp, pc}
 919              	.L104:
 920 0aec 44C19FE5 		ldr	ip, .L109+76
 921 0af0 054CE0E3 		mvn	r4, #1280
 922 0af4 40019FE5 		ldr	r0, .L109+80
 923 0af8 D730A0E3 		mov	r3, #215
 924 0afc 3C219FE5 		ldr	r2, .L109+84
 925 0b00 3C119FE5 		ldr	r1, .L109+88
 926              	.LPIC138:
 927 0b04 0CC08FE0 		add	ip, pc, ip
 928              	.LPIC139:
 929 0b08 00008FE0 		add	r0, pc, r0
 930              	.LPIC136:
 931 0b0c 02208FE0 		add	r2, pc, r2
 932              	.LPIC137:
 933 0b10 01108FE0 		add	r1, pc, r1
 934 0b14 EDFFFFEA 		b	.L100
 935              	.L107:
 936 0b18 28C19FE5 		ldr	ip, .L109+92
 937 0b1c FE4A0FE3 		movw	r4, #64254
 938 0b20 24019FE5 		ldr	r0, .L109+96
 939 0b24 FF4F4FE3 		movt	r4, 65535
 940 0b28 20219FE5 		ldr	r2, .L109+100
 941 0b2c C230A0E3 		mov	r3, #194
 942 0b30 1C119FE5 		ldr	r1, .L109+104
 943              	.LPIC123:
 944 0b34 0CC08FE0 		add	ip, pc, ip
 945              	.LPIC124:
 946 0b38 00008FE0 		add	r0, pc, r0
 947              	.LPIC121:
 948 0b3c 02208FE0 		add	r2, pc, r2
 949              	.LPIC122:
 950 0b40 01108FE0 		add	r1, pc, r1
 951 0b44 E1FFFFEA 		b	.L100
 952              	.L102:
 953 0b48 08019FE5 		ldr	r0, .L109+108
 954 0b4c 054CE0E3 		mvn	r4, #1280
 955 0b50 04319FE5 		ldr	r3, .L109+112
 956 0b54 0B20A0E1 		mov	r2, fp
 957 0b58 0A10A0E1 		mov	r1, r10
 958 0b5c 00408DE5 		str	r4, [sp]
 959              	.LPIC104:
 960 0b60 00008FE0 		add	r0, pc, r0
 961              	.LPIC105:
 962 0b64 03308FE0 		add	r3, pc, r3
 963 0b68 08008DE5 		str	r0, [sp, #8]
 964 0b6c 04308DE5 		str	r3, [sp, #4]
 965 0b70 4500A0E3 		mov	r0, #69
 966 0b74 9C30A0E3 		mov	r3, #156
 967 0b78 FEFFFFEB 		bl	siFormattedMessage_SC(PLT)
 968 0b7c 0400A0E1 		mov	r0, r4
 969 0b80 92FFFFEA 		b	.L75
 970              	.L108:
 971 0b84 D4C09FE5 		ldr	ip, .L109+116
 972 0b88 FE4A0FE3 		movw	r4, #64254
 973 0b8c D0009FE5 		ldr	r0, .L109+120
 974 0b90 FF4F4FE3 		movt	r4, 65535
ARM GAS  /tmp/ccrI0Ik3.s 			page 19


 975 0b94 CC209FE5 		ldr	r2, .L109+124
 976 0b98 CB30A0E3 		mov	r3, #203
 977 0b9c C8109FE5 		ldr	r1, .L109+128
 978              	.LPIC130:
 979 0ba0 0CC08FE0 		add	ip, pc, ip
 980              	.LPIC131:
 981 0ba4 00008FE0 		add	r0, pc, r0
 982              	.LPIC128:
 983 0ba8 02208FE0 		add	r2, pc, r2
 984              	.LPIC129:
 985 0bac 01108FE0 		add	r1, pc, r1
 986 0bb0 C6FFFFEA 		b	.L100
 987              	.L106:
 988 0bb4 B4C09FE5 		ldr	ip, .L109+132
 989 0bb8 FE4A0FE3 		movw	r4, #64254
 990 0bbc B0009FE5 		ldr	r0, .L109+136
 991 0bc0 FF4F4FE3 		movt	r4, 65535
 992 0bc4 AC209FE5 		ldr	r2, .L109+140
 993 0bc8 BC30A0E3 		mov	r3, #188
 994 0bcc A8109FE5 		ldr	r1, .L109+144
 995              	.LPIC118:
 996 0bd0 0CC08FE0 		add	ip, pc, ip
 997              	.LPIC119:
 998 0bd4 00008FE0 		add	r0, pc, r0
 999              	.LPIC116:
 1000 0bd8 02208FE0 		add	r2, pc, r2
 1001              	.LPIC117:
 1002 0bdc 01108FE0 		add	r1, pc, r1
 1003 0be0 BAFFFFEA 		b	.L100
 1004              	.L103:
 1005 0be4 0A50A0E1 		mov	r5, r10
 1006 0be8 8DFFFFEA 		b	.L91
 1007              	.L110:
 1008              		.align	2
 1009              	.L109:
 1010 0bec 18040000 		.word	.LANCHOR0-(.LPIC93+8)
 1011 0bf0 04040000 		.word	.LC3-(.LPIC91+8)
 1012 0bf4 EC030000 		.word	.LC1-(.LPIC92+8)
 1013 0bf8 B0030000 		.word	.LC7-(.LPIC98+8)
 1014 0bfc 28030000 		.word	.LANCHOR0-(.LPIC108+8)
 1015 0c00 F0020000 		.word	.LC8-(.LPIC112+8)
 1016 0c04 EC020000 		.word	.LC3-(.LPIC110+8)
 1017 0c08 EC020000 		.word	.LC1-(.LPIC111+8)
 1018 0c0c D0020000 		.word	.LANCHOR0-(.LPIC134+8)
 1019 0c10 5C020000 		.word	.LC6-(.LPIC151+8)
 1020 0c14 5C020000 		.word	.LC5-(.LPIC152+8)
 1021 0c18 54020000 		.word	.LC3-(.LPIC149+8)
 1022 0c1c 54020000 		.word	.LC1-(.LPIC150+8)
 1023 0c20 04020000 		.word	.LC8-(.LPIC157+8)
 1024 0c24 F4010000 		.word	.LANCHOR0-(.LPIC114+8)
 1025 0c28 60010000 		.word	.LC13-(.LPIC145+8)
 1026 0c2c 60010000 		.word	.LC5-(.LPIC146+8)
 1027 0c30 60010000 		.word	.LC3-(.LPIC143+8)
 1028 0c34 60010000 		.word	.LC1-(.LPIC144+8)
 1029 0c38 2C010000 		.word	.LC12-(.LPIC138+8)
 1030 0c3c 2C010000 		.word	.LC5-(.LPIC139+8)
 1031 0c40 2C010000 		.word	.LC3-(.LPIC136+8)
ARM GAS  /tmp/ccrI0Ik3.s 			page 20


 1032 0c44 2C010000 		.word	.LC1-(.LPIC137+8)
 1033 0c48 0C010000 		.word	.LC10-(.LPIC123+8)
 1034 0c4c 0C010000 		.word	.LC5-(.LPIC124+8)
 1035 0c50 0C010000 		.word	.LC3-(.LPIC121+8)
 1036 0c54 0C010000 		.word	.LC1-(.LPIC122+8)
 1037 0c58 F0000000 		.word	.LC4-(.LPIC104+8)
 1038 0c5c F0000000 		.word	.LC5-(.LPIC105+8)
 1039 0c60 B8000000 		.word	.LC11-(.LPIC130+8)
 1040 0c64 B8000000 		.word	.LC5-(.LPIC131+8)
 1041 0c68 B8000000 		.word	.LC3-(.LPIC128+8)
 1042 0c6c B8000000 		.word	.LC1-(.LPIC129+8)
 1043 0c70 98000000 		.word	.LC9-(.LPIC118+8)
 1044 0c74 98000000 		.word	.LC5-(.LPIC119+8)
 1045 0c78 98000000 		.word	.LC3-(.LPIC116+8)
 1046 0c7c 98000000 		.word	.LC1-(.LPIC117+8)
 1048              		.align	2
 1049              		.global	EmulateEPIEeprom
 1050              		.hidden	EmulateEPIEeprom
 1051              		.syntax unified
 1052              		.arm
 1053              		.fpu vfpv3
 1055              	EmulateEPIEeprom:
 1056              		@ args = 4, pretend = 0, frame = 0
 1057              		@ frame_needed = 0, uses_anonymous_args = 0
 1058 0c80 F04F2DE9 		push	{r4, r5, r6, r7, r8, r9, r10, fp, lr}
 1059 0c84 0390A0E1 		mov	r9, r3
 1060 0c88 0330D1E5 		ldrb	r3, [r1, #3]	@ zero_extendqisi2
 1061 0c8c 3CD04DE2 		sub	sp, sp, #60
 1062 0c90 0150A0E1 		mov	r5, r1
 1063 0c94 0260A0E1 		mov	r6, r2
 1064 0c98 28449FE5 		ldr	r4, .L145
 1065 0c9c 0080A0E1 		mov	r8, r0
 1066 0ca0 30308DE5 		str	r3, [sp, #48]
 1067 0ca4 0230D1E5 		ldrb	r3, [r1, #2]	@ zero_extendqisi2
 1068              	.LPIC161:
 1069 0ca8 04408FE0 		add	r4, pc, r4
 1070 0cac 60709DE5 		ldr	r7, [sp, #96]
 1071 0cb0 14B49FE5 		ldr	fp, .L145+4
 1072 0cb4 2C308DE5 		str	r3, [sp, #44]
 1073 0cb8 0130D1E5 		ldrb	r3, [r1, #1]	@ zero_extendqisi2
 1074 0cbc 5C2094E5 		ldr	r2, [r4, #92]
 1075              	.LPIC159:
 1076 0cc0 0BB08FE0 		add	fp, pc, fp
 1077 0cc4 04A49FE5 		ldr	r10, .L145+8
 1078 0cc8 28308DE5 		str	r3, [sp, #40]
 1079 0ccc 601094E5 		ldr	r1, [r4, #96]
 1080 0cd0 0030D5E5 		ldrb	r3, [r5]	@ zero_extendqisi2
 1081 0cd4 022184E0 		add	r2, r4, r2, lsl #2
 1082 0cd8 10008DE5 		str	r0, [sp, #16]
 1083              	.LPIC160:
 1084 0cdc 0AA08FE0 		add	r10, pc, r10
 1085 0ce0 18108DE5 		str	r1, [sp, #24]
 1086 0ce4 4C00A0E3 		mov	r0, #76
 1087 0ce8 24308DE5 		str	r3, [sp, #36]
 1088 0cec 0A10A0E1 		mov	r1, r10
 1089 0cf0 FC61CDE1 		strd	r6, [sp, #28]
 1090 0cf4 583094E5 		ldr	r3, [r4, #88]
ARM GAS  /tmp/ccrI0Ik3.s 			page 21


 1091 0cf8 14308DE5 		str	r3, [sp, #20]
 1092 0cfc 643094E5 		ldr	r3, [r4, #100]
 1093 0d00 0C308DE5 		str	r3, [sp, #12]
 1094 0d04 143092E5 		ldr	r3, [r2, #20]
 1095 0d08 0B20A0E1 		mov	r2, fp
 1096 0d0c 08308DE5 		str	r3, [sp, #8]
 1097 0d10 6C3094E5 		ldr	r3, [r4, #108]
 1098 0d14 00308DE5 		str	r3, [sp]
 1099 0d18 B4339FE5 		ldr	r3, .L145+12
 1100              	.LPIC166:
 1101 0d1c 03308FE0 		add	r3, pc, r3
 1102 0d20 04308DE5 		str	r3, [sp, #4]
 1103 0d24 7E30A0E3 		mov	r3, #126
 1104 0d28 FEFFFFEB 		bl	siFormattedMessage_M2(PLT)
 1105 0d2c 000056E3 		cmp	r6, #0
 1106 0d30 3300000A 		beq	.L113
 1107 0d34 5C3094E5 		ldr	r3, [r4, #92]
 1108 0d38 010053E3 		cmp	r3, #1
 1109 0d3c 1000000A 		beq	.L114
 1110 0d40 020053E3 		cmp	r3, #2
 1111 0d44 5A00001A 		bne	.L137
 1112 0d48 010056E3 		cmp	r6, #1
 1113 0d4c B400000A 		beq	.L138
 1114 0d50 05A0A0E1 		mov	r10, r5
 1115 0d54 200F0BE3 		movw	r0, #48928
 1116 0d58 0220DAE4 		ldrb	r2, [r10], #2	@ zero_extendqisi2
 1117 0d5c 020040E3 		movt	r0, 2
 1118 0d60 026046E2 		sub	r6, r6, #2
 1119 0d64 0224A0E1 		lsl	r2, r2, #8
 1120 0d68 642084E5 		str	r2, [r4, #100]
 1121 0d6c 0130D5E5 		ldrb	r3, [r5, #1]	@ zero_extendqisi2
 1122 0d70 083883E1 		orr	r3, r3, r8, lsl #16
 1123 0d74 023083E1 		orr	r3, r3, r2
 1124 0d78 643084E5 		str	r3, [r4, #100]
 1125 0d7c FEFFFFEB 		bl	EApiSleepns(PLT)
 1126 0d80 070000EA 		b	.L117
 1127              	.L114:
 1128 0d84 05A0A0E1 		mov	r10, r5
 1129 0d88 900F05E3 		movw	r0, #24464
 1130 0d8c 0130DAE4 		ldrb	r3, [r10], #1	@ zero_extendqisi2
 1131 0d90 010040E3 		movt	r0, 1
 1132 0d94 016046E2 		sub	r6, r6, #1
 1133 0d98 083483E1 		orr	r3, r3, r8, lsl #8
 1134 0d9c 643084E5 		str	r3, [r4, #100]
 1135 0da0 FEFFFFEB 		bl	EApiSleepns(PLT)
 1136              	.L117:
 1137 0da4 2C439FE5 		ldr	r4, .L145+16
 1138              	.LPIC176:
 1139 0da8 04408FE0 		add	r4, pc, r4
 1140 0dac 645094E5 		ldr	r5, [r4, #100]
 1141 0db0 601094E5 		ldr	r1, [r4, #96]
 1142 0db4 0500A0E1 		mov	r0, r5
 1143 0db8 FEFFFFEB 		bl	__aeabi_uidivmod(PLT)
 1144 0dbc 08508DE5 		str	r5, [sp, #8]
 1145 0dc0 4C00A0E3 		mov	r0, #76
 1146 0dc4 6C3094E5 		ldr	r3, [r4, #108]
 1147 0dc8 0C108DE5 		str	r1, [sp, #12]
ARM GAS  /tmp/ccrI0Ik3.s 			page 22


 1148 0dcc 061081E0 		add	r1, r1, r6
 1149 0dd0 10108DE5 		str	r1, [sp, #16]
 1150 0dd4 00308DE5 		str	r3, [sp]
 1151 0dd8 FC329FE5 		ldr	r3, .L145+20
 1152 0ddc FC229FE5 		ldr	r2, .L145+24
 1153 0de0 FC129FE5 		ldr	r1, .L145+28
 1154              	.LPIC180:
 1155 0de4 03308FE0 		add	r3, pc, r3
 1156 0de8 04308DE5 		str	r3, [sp, #4]
 1157              	.LPIC178:
 1158 0dec 02208FE0 		add	r2, pc, r2
 1159              	.LPIC179:
 1160 0df0 01108FE0 		add	r1, pc, r1
 1161 0df4 B230A0E3 		mov	r3, #178
 1162 0df8 FEFFFFEB 		bl	siFormattedMessage_M2(PLT)
 1163 0dfc 000056E3 		cmp	r6, #0
 1164 0e00 AE00001A 		bne	.L139
 1165              	.L113:
 1166 0e04 000057E3 		cmp	r7, #0
 1167 0e08 1800000A 		beq	.L124
 1168 0e0c D4429FE5 		ldr	r4, .L145+32
 1169              	.LPIC202:
 1170 0e10 04408FE0 		add	r4, pc, r4
 1171 0e14 643094E5 		ldr	r3, [r4, #100]
 1172 0e18 582094E5 		ldr	r2, [r4, #88]
 1173 0e1c 033087E0 		add	r3, r7, r3
 1174 0e20 020053E1 		cmp	r3, r2
 1175 0e24 6700008A 		bhi	.L140
 1176 0e28 900F05E3 		movw	r0, #24464
 1177 0e2c 010040E3 		movt	r0, 1
 1178 0e30 900700E0 		mul	r0, r0, r7
 1179 0e34 FEFFFFEB 		bl	EApiSleepns(PLT)
 1180 0e38 641094E5 		ldr	r1, [r4, #100]
 1181 0e3c 0020A0E3 		mov	r2, #0
 1182 0e40 700094E5 		ldr	r0, [r4, #112]
 1183 0e44 FEFFFFEB 		bl	fseek(PLT)
 1184 0e48 703094E5 		ldr	r3, [r4, #112]
 1185 0e4c 0720A0E1 		mov	r2, r7
 1186 0e50 0900A0E1 		mov	r0, r9
 1187 0e54 0110A0E3 		mov	r1, #1
 1188 0e58 FEFFFFEB 		bl	fread(PLT)
 1189 0e5c 000057E1 		cmp	r7, r0
 1190 0e60 4700001A 		bne	.L141
 1191 0e64 643094E5 		ldr	r3, [r4, #100]
 1192 0e68 073083E0 		add	r3, r3, r7
 1193 0e6c 643084E5 		str	r3, [r4, #100]
 1194              	.L124:
 1195              	.L119:
 1196 0e70 74C29FE5 		ldr	ip, .L145+36
 1197 0e74 0040A0E3 		mov	r4, #0
 1198 0e78 70029FE5 		ldr	r0, .L145+40
 1199 0e7c E830A0E3 		mov	r3, #232
 1200 0e80 6C229FE5 		ldr	r2, .L145+44
 1201 0e84 6C129FE5 		ldr	r1, .L145+48
 1202              	.LPIC219:
 1203 0e88 0CC08FE0 		add	ip, pc, ip
 1204              	.LPIC220:
ARM GAS  /tmp/ccrI0Ik3.s 			page 23


 1205 0e8c 00008FE0 		add	r0, pc, r0
 1206 0e90 00408DE5 		str	r4, [sp]
 1207 0e94 01108DE9 		stmib	sp, {r0, ip}
 1208              	.LPIC217:
 1209 0e98 02208FE0 		add	r2, pc, r2
 1210              	.LPIC218:
 1211 0e9c 01108FE0 		add	r1, pc, r1
 1212 0ea0 4C00A0E3 		mov	r0, #76
 1213 0ea4 FEFFFFEB 		bl	siFormattedMessage_SC(PLT)
 1214 0ea8 0400A0E1 		mov	r0, r4
 1215              	.L111:
 1216 0eac 3CD08DE2 		add	sp, sp, #60
 1217              		@ sp needed
 1218 0eb0 F08FBDE8 		pop	{r4, r5, r6, r7, r8, r9, r10, fp, pc}
 1219              	.L137:
 1220 0eb4 648094E5 		ldr	r8, [r4, #100]
 1221 0eb8 601094E5 		ldr	r1, [r4, #96]
 1222 0ebc 0800A0E1 		mov	r0, r8
 1223 0ec0 FEFFFFEB 		bl	__aeabi_uidivmod(PLT)
 1224 0ec4 08808DE5 		str	r8, [sp, #8]
 1225 0ec8 0B20A0E1 		mov	r2, fp
 1226 0ecc 6C3094E5 		ldr	r3, [r4, #108]
 1227 0ed0 4C00A0E3 		mov	r0, #76
 1228 0ed4 00308DE5 		str	r3, [sp]
 1229 0ed8 0130A0E1 		mov	r3, r1
 1230 0edc 0C308DE5 		str	r3, [sp, #12]
 1231 0ee0 033086E0 		add	r3, r6, r3
 1232 0ee4 10308DE5 		str	r3, [sp, #16]
 1233 0ee8 0A10A0E1 		mov	r1, r10
 1234 0eec 08329FE5 		ldr	r3, .L145+52
 1235              	.LPIC225:
 1236 0ef0 03308FE0 		add	r3, pc, r3
 1237 0ef4 04308DE5 		str	r3, [sp, #4]
 1238 0ef8 B230A0E3 		mov	r3, #178
 1239 0efc FEFFFFEB 		bl	siFormattedMessage_M2(PLT)
 1240              	.L127:
 1241 0f00 F8419FE5 		ldr	r4, .L145+56
 1242              	.LPIC182:
 1243 0f04 04408FE0 		add	r4, pc, r4
 1244 0f08 60A094E5 		ldr	r10, [r4, #96]
 1245 0f0c 648094E5 		ldr	r8, [r4, #100]
 1246 0f10 0A10A0E1 		mov	r1, r10
 1247 0f14 0800A0E1 		mov	r0, r8
 1248 0f18 FEFFFFEB 		bl	__aeabi_uidivmod(PLT)
 1249 0f1c 061081E0 		add	r1, r1, r6
 1250 0f20 01005AE1 		cmp	r10, r1
 1251 0f24 5900003A 		bcc	.L142
 1252 0f28 583094E5 		ldr	r3, [r4, #88]
 1253 0f2c 068088E0 		add	r8, r8, r6
 1254 0f30 030058E1 		cmp	r8, r3
 1255 0f34 2E00008A 		bhi	.L143
 1256 0f38 900F05E3 		movw	r0, #24464
 1257 0f3c 010040E3 		movt	r0, 1
 1258 0f40 900600E0 		mul	r0, r0, r6
 1259 0f44 FEFFFFEB 		bl	EApiSleepns(PLT)
 1260 0f48 641094E5 		ldr	r1, [r4, #100]
 1261 0f4c 0020A0E3 		mov	r2, #0
ARM GAS  /tmp/ccrI0Ik3.s 			page 24


 1262 0f50 700094E5 		ldr	r0, [r4, #112]
 1263 0f54 FEFFFFEB 		bl	fseek(PLT)
 1264 0f58 703094E5 		ldr	r3, [r4, #112]
 1265 0f5c 0500A0E1 		mov	r0, r5
 1266 0f60 0620A0E1 		mov	r2, r6
 1267 0f64 0110A0E3 		mov	r1, #1
 1268 0f68 FEFFFFEB 		bl	fwrite(PLT)
 1269 0f6c 060050E1 		cmp	r0, r6
 1270 0f70 3A00001A 		bne	.L144
 1271 0f74 643094E5 		ldr	r3, [r4, #100]
 1272 0f78 063083E0 		add	r3, r3, r6
 1273 0f7c 643084E5 		str	r3, [r4, #100]
 1274 0f80 9FFFFFEA 		b	.L113
 1275              	.L141:
 1276 0f84 78C19FE5 		ldr	ip, .L145+60
 1277 0f88 054CE0E3 		mvn	r4, #1280
 1278 0f8c 74019FE5 		ldr	r0, .L145+64
 1279 0f90 E030A0E3 		mov	r3, #224
 1280 0f94 70219FE5 		ldr	r2, .L145+68
 1281 0f98 70119FE5 		ldr	r1, .L145+72
 1282              	.LPIC213:
 1283 0f9c 0CC08FE0 		add	ip, pc, ip
 1284              	.LPIC214:
 1285 0fa0 00008FE0 		add	r0, pc, r0
 1286              	.LPIC211:
 1287 0fa4 02208FE0 		add	r2, pc, r2
 1288              	.LPIC212:
 1289 0fa8 01108FE0 		add	r1, pc, r1
 1290              	.L136:
 1291 0fac 01108DE9 		stmib	sp, {r0, ip}
 1292 0fb0 4500A0E3 		mov	r0, #69
 1293 0fb4 00408DE5 		str	r4, [sp]
 1294 0fb8 FEFFFFEB 		bl	siFormattedMessage_SC(PLT)
 1295 0fbc 0400A0E1 		mov	r0, r4
 1296 0fc0 3CD08DE2 		add	sp, sp, #60
 1297              		@ sp needed
 1298 0fc4 F08FBDE8 		pop	{r4, r5, r6, r7, r8, r9, r10, fp, pc}
 1299              	.L140:
 1300 0fc8 44C19FE5 		ldr	ip, .L145+76
 1301 0fcc 054CE0E3 		mvn	r4, #1280
 1302 0fd0 40019FE5 		ldr	r0, .L145+80
 1303 0fd4 D730A0E3 		mov	r3, #215
 1304 0fd8 3C219FE5 		ldr	r2, .L145+84
 1305 0fdc 3C119FE5 		ldr	r1, .L145+88
 1306              	.LPIC206:
 1307 0fe0 0CC08FE0 		add	ip, pc, ip
 1308              	.LPIC207:
 1309 0fe4 00008FE0 		add	r0, pc, r0
 1310              	.LPIC204:
 1311 0fe8 02208FE0 		add	r2, pc, r2
 1312              	.LPIC205:
 1313 0fec 01108FE0 		add	r1, pc, r1
 1314 0ff0 EDFFFFEA 		b	.L136
 1315              	.L143:
 1316 0ff4 28C19FE5 		ldr	ip, .L145+92
 1317 0ff8 FE4A0FE3 		movw	r4, #64254
 1318 0ffc 24019FE5 		ldr	r0, .L145+96
ARM GAS  /tmp/ccrI0Ik3.s 			page 25


 1319 1000 FF4F4FE3 		movt	r4, 65535
 1320 1004 20219FE5 		ldr	r2, .L145+100
 1321 1008 C230A0E3 		mov	r3, #194
 1322 100c 1C119FE5 		ldr	r1, .L145+104
 1323              	.LPIC191:
 1324 1010 0CC08FE0 		add	ip, pc, ip
 1325              	.LPIC192:
 1326 1014 00008FE0 		add	r0, pc, r0
 1327              	.LPIC189:
 1328 1018 02208FE0 		add	r2, pc, r2
 1329              	.LPIC190:
 1330 101c 01108FE0 		add	r1, pc, r1
 1331 1020 E1FFFFEA 		b	.L136
 1332              	.L138:
 1333 1024 08019FE5 		ldr	r0, .L145+108
 1334 1028 054CE0E3 		mvn	r4, #1280
 1335 102c 04319FE5 		ldr	r3, .L145+112
 1336 1030 0B20A0E1 		mov	r2, fp
 1337 1034 0A10A0E1 		mov	r1, r10
 1338 1038 00408DE5 		str	r4, [sp]
 1339              	.LPIC172:
 1340 103c 00008FE0 		add	r0, pc, r0
 1341              	.LPIC173:
 1342 1040 03308FE0 		add	r3, pc, r3
 1343 1044 08008DE5 		str	r0, [sp, #8]
 1344 1048 04308DE5 		str	r3, [sp, #4]
 1345 104c 4500A0E3 		mov	r0, #69
 1346 1050 9C30A0E3 		mov	r3, #156
 1347 1054 FEFFFFEB 		bl	siFormattedMessage_SC(PLT)
 1348 1058 0400A0E1 		mov	r0, r4
 1349 105c 92FFFFEA 		b	.L111
 1350              	.L144:
 1351 1060 D4C09FE5 		ldr	ip, .L145+116
 1352 1064 FE4A0FE3 		movw	r4, #64254
 1353 1068 D0009FE5 		ldr	r0, .L145+120
 1354 106c FF4F4FE3 		movt	r4, 65535
 1355 1070 CC209FE5 		ldr	r2, .L145+124
 1356 1074 CB30A0E3 		mov	r3, #203
 1357 1078 C8109FE5 		ldr	r1, .L145+128
 1358              	.LPIC198:
 1359 107c 0CC08FE0 		add	ip, pc, ip
 1360              	.LPIC199:
 1361 1080 00008FE0 		add	r0, pc, r0
 1362              	.LPIC196:
 1363 1084 02208FE0 		add	r2, pc, r2
 1364              	.LPIC197:
 1365 1088 01108FE0 		add	r1, pc, r1
 1366 108c C6FFFFEA 		b	.L136
 1367              	.L142:
 1368 1090 B4C09FE5 		ldr	ip, .L145+132
 1369 1094 FE4A0FE3 		movw	r4, #64254
 1370 1098 B0009FE5 		ldr	r0, .L145+136
 1371 109c FF4F4FE3 		movt	r4, 65535
 1372 10a0 AC209FE5 		ldr	r2, .L145+140
 1373 10a4 BC30A0E3 		mov	r3, #188
 1374 10a8 A8109FE5 		ldr	r1, .L145+144
 1375              	.LPIC186:
ARM GAS  /tmp/ccrI0Ik3.s 			page 26


 1376 10ac 0CC08FE0 		add	ip, pc, ip
 1377              	.LPIC187:
 1378 10b0 00008FE0 		add	r0, pc, r0
 1379              	.LPIC184:
 1380 10b4 02208FE0 		add	r2, pc, r2
 1381              	.LPIC185:
 1382 10b8 01108FE0 		add	r1, pc, r1
 1383 10bc BAFFFFEA 		b	.L136
 1384              	.L139:
 1385 10c0 0A50A0E1 		mov	r5, r10
 1386 10c4 8DFFFFEA 		b	.L127
 1387              	.L146:
 1388              		.align	2
 1389              	.L145:
 1390 10c8 18040000 		.word	.LANCHOR0-(.LPIC161+8)
 1391 10cc 04040000 		.word	.LC3-(.LPIC159+8)
 1392 10d0 EC030000 		.word	.LC1-(.LPIC160+8)
 1393 10d4 B0030000 		.word	.LC7-(.LPIC166+8)
 1394 10d8 28030000 		.word	.LANCHOR0-(.LPIC176+8)
 1395 10dc F0020000 		.word	.LC8-(.LPIC180+8)
 1396 10e0 EC020000 		.word	.LC3-(.LPIC178+8)
 1397 10e4 EC020000 		.word	.LC1-(.LPIC179+8)
 1398 10e8 D0020000 		.word	.LANCHOR0-(.LPIC202+8)
 1399 10ec 5C020000 		.word	.LC6-(.LPIC219+8)
 1400 10f0 5C020000 		.word	.LC5-(.LPIC220+8)
 1401 10f4 54020000 		.word	.LC3-(.LPIC217+8)
 1402 10f8 54020000 		.word	.LC1-(.LPIC218+8)
 1403 10fc 04020000 		.word	.LC8-(.LPIC225+8)
 1404 1100 F4010000 		.word	.LANCHOR0-(.LPIC182+8)
 1405 1104 60010000 		.word	.LC13-(.LPIC213+8)
 1406 1108 60010000 		.word	.LC5-(.LPIC214+8)
 1407 110c 60010000 		.word	.LC3-(.LPIC211+8)
 1408 1110 60010000 		.word	.LC1-(.LPIC212+8)
 1409 1114 2C010000 		.word	.LC12-(.LPIC206+8)
 1410 1118 2C010000 		.word	.LC5-(.LPIC207+8)
 1411 111c 2C010000 		.word	.LC3-(.LPIC204+8)
 1412 1120 2C010000 		.word	.LC1-(.LPIC205+8)
 1413 1124 0C010000 		.word	.LC10-(.LPIC191+8)
 1414 1128 0C010000 		.word	.LC5-(.LPIC192+8)
 1415 112c 0C010000 		.word	.LC3-(.LPIC189+8)
 1416 1130 0C010000 		.word	.LC1-(.LPIC190+8)
 1417 1134 F0000000 		.word	.LC4-(.LPIC172+8)
 1418 1138 F0000000 		.word	.LC5-(.LPIC173+8)
 1419 113c B8000000 		.word	.LC11-(.LPIC198+8)
 1420 1140 B8000000 		.word	.LC5-(.LPIC199+8)
 1421 1144 B8000000 		.word	.LC3-(.LPIC196+8)
 1422 1148 B8000000 		.word	.LC1-(.LPIC197+8)
 1423 114c 98000000 		.word	.LC9-(.LPIC186+8)
 1424 1150 98000000 		.word	.LC5-(.LPIC187+8)
 1425 1154 98000000 		.word	.LC3-(.LPIC184+8)
 1426 1158 98000000 		.word	.LC1-(.LPIC185+8)
 1428              		.align	2
 1429              		.global	EmulateEeePExpEeprom
 1430              		.hidden	EmulateEeePExpEeprom
 1431              		.syntax unified
 1432              		.arm
 1433              		.fpu vfpv3
ARM GAS  /tmp/ccrI0Ik3.s 			page 27


 1435              	EmulateEeePExpEeprom:
 1436              		@ args = 4, pretend = 0, frame = 0
 1437              		@ frame_needed = 0, uses_anonymous_args = 0
 1438 115c F04F2DE9 		push	{r4, r5, r6, r7, r8, r9, r10, fp, lr}
 1439 1160 0390A0E1 		mov	r9, r3
 1440 1164 0330D1E5 		ldrb	r3, [r1, #3]	@ zero_extendqisi2
 1441 1168 3CD04DE2 		sub	sp, sp, #60
 1442 116c 0150A0E1 		mov	r5, r1
 1443 1170 0260A0E1 		mov	r6, r2
 1444 1174 28449FE5 		ldr	r4, .L181
 1445 1178 0080A0E1 		mov	r8, r0
 1446 117c 30308DE5 		str	r3, [sp, #48]
 1447 1180 0230D1E5 		ldrb	r3, [r1, #2]	@ zero_extendqisi2
 1448              	.LPIC229:
 1449 1184 04408FE0 		add	r4, pc, r4
 1450 1188 60709DE5 		ldr	r7, [sp, #96]
 1451 118c 14B49FE5 		ldr	fp, .L181+4
 1452 1190 2C308DE5 		str	r3, [sp, #44]
 1453 1194 0130D1E5 		ldrb	r3, [r1, #1]	@ zero_extendqisi2
 1454 1198 782094E5 		ldr	r2, [r4, #120]
 1455              	.LPIC227:
 1456 119c 0BB08FE0 		add	fp, pc, fp
 1457 11a0 04A49FE5 		ldr	r10, .L181+8
 1458 11a4 28308DE5 		str	r3, [sp, #40]
 1459 11a8 7C1094E5 		ldr	r1, [r4, #124]
 1460 11ac 0030D5E5 		ldrb	r3, [r5]	@ zero_extendqisi2
 1461 11b0 022184E0 		add	r2, r4, r2, lsl #2
 1462 11b4 10008DE5 		str	r0, [sp, #16]
 1463              	.LPIC228:
 1464 11b8 0AA08FE0 		add	r10, pc, r10
 1465 11bc 18108DE5 		str	r1, [sp, #24]
 1466 11c0 4C00A0E3 		mov	r0, #76
 1467 11c4 24308DE5 		str	r3, [sp, #36]
 1468 11c8 0A10A0E1 		mov	r1, r10
 1469 11cc FC61CDE1 		strd	r6, [sp, #28]
 1470 11d0 743094E5 		ldr	r3, [r4, #116]
 1471 11d4 14308DE5 		str	r3, [sp, #20]
 1472 11d8 803094E5 		ldr	r3, [r4, #128]
 1473 11dc 0C308DE5 		str	r3, [sp, #12]
 1474 11e0 143092E5 		ldr	r3, [r2, #20]
 1475 11e4 0B20A0E1 		mov	r2, fp
 1476 11e8 08308DE5 		str	r3, [sp, #8]
 1477 11ec 883094E5 		ldr	r3, [r4, #136]
 1478 11f0 00308DE5 		str	r3, [sp]
 1479 11f4 B4339FE5 		ldr	r3, .L181+12
 1480              	.LPIC234:
 1481 11f8 03308FE0 		add	r3, pc, r3
 1482 11fc 04308DE5 		str	r3, [sp, #4]
 1483 1200 7E30A0E3 		mov	r3, #126
 1484 1204 FEFFFFEB 		bl	siFormattedMessage_M2(PLT)
 1485 1208 000056E3 		cmp	r6, #0
 1486 120c 3300000A 		beq	.L149
 1487 1210 783094E5 		ldr	r3, [r4, #120]
 1488 1214 010053E3 		cmp	r3, #1
 1489 1218 1000000A 		beq	.L150
 1490 121c 020053E3 		cmp	r3, #2
 1491 1220 5A00001A 		bne	.L173
ARM GAS  /tmp/ccrI0Ik3.s 			page 28


 1492 1224 010056E3 		cmp	r6, #1
 1493 1228 B400000A 		beq	.L174
 1494 122c 05A0A0E1 		mov	r10, r5
 1495 1230 200F0BE3 		movw	r0, #48928
 1496 1234 0220DAE4 		ldrb	r2, [r10], #2	@ zero_extendqisi2
 1497 1238 020040E3 		movt	r0, 2
 1498 123c 026046E2 		sub	r6, r6, #2
 1499 1240 0224A0E1 		lsl	r2, r2, #8
 1500 1244 802084E5 		str	r2, [r4, #128]
 1501 1248 0130D5E5 		ldrb	r3, [r5, #1]	@ zero_extendqisi2
 1502 124c 083883E1 		orr	r3, r3, r8, lsl #16
 1503 1250 023083E1 		orr	r3, r3, r2
 1504 1254 803084E5 		str	r3, [r4, #128]
 1505 1258 FEFFFFEB 		bl	EApiSleepns(PLT)
 1506 125c 070000EA 		b	.L153
 1507              	.L150:
 1508 1260 05A0A0E1 		mov	r10, r5
 1509 1264 900F05E3 		movw	r0, #24464
 1510 1268 0130DAE4 		ldrb	r3, [r10], #1	@ zero_extendqisi2
 1511 126c 010040E3 		movt	r0, 1
 1512 1270 016046E2 		sub	r6, r6, #1
 1513 1274 083483E1 		orr	r3, r3, r8, lsl #8
 1514 1278 803084E5 		str	r3, [r4, #128]
 1515 127c FEFFFFEB 		bl	EApiSleepns(PLT)
 1516              	.L153:
 1517 1280 2C439FE5 		ldr	r4, .L181+16
 1518              	.LPIC244:
 1519 1284 04408FE0 		add	r4, pc, r4
 1520 1288 805094E5 		ldr	r5, [r4, #128]
 1521 128c 7C1094E5 		ldr	r1, [r4, #124]
 1522 1290 0500A0E1 		mov	r0, r5
 1523 1294 FEFFFFEB 		bl	__aeabi_uidivmod(PLT)
 1524 1298 08508DE5 		str	r5, [sp, #8]
 1525 129c 4C00A0E3 		mov	r0, #76
 1526 12a0 883094E5 		ldr	r3, [r4, #136]
 1527 12a4 0C108DE5 		str	r1, [sp, #12]
 1528 12a8 061081E0 		add	r1, r1, r6
 1529 12ac 10108DE5 		str	r1, [sp, #16]
 1530 12b0 00308DE5 		str	r3, [sp]
 1531 12b4 FC329FE5 		ldr	r3, .L181+20
 1532 12b8 FC229FE5 		ldr	r2, .L181+24
 1533 12bc FC129FE5 		ldr	r1, .L181+28
 1534              	.LPIC248:
 1535 12c0 03308FE0 		add	r3, pc, r3
 1536 12c4 04308DE5 		str	r3, [sp, #4]
 1537              	.LPIC246:
 1538 12c8 02208FE0 		add	r2, pc, r2
 1539              	.LPIC247:
 1540 12cc 01108FE0 		add	r1, pc, r1
 1541 12d0 B230A0E3 		mov	r3, #178
 1542 12d4 FEFFFFEB 		bl	siFormattedMessage_M2(PLT)
 1543 12d8 000056E3 		cmp	r6, #0
 1544 12dc AE00001A 		bne	.L175
 1545              	.L149:
 1546 12e0 000057E3 		cmp	r7, #0
 1547 12e4 1800000A 		beq	.L160
 1548 12e8 D4429FE5 		ldr	r4, .L181+32
ARM GAS  /tmp/ccrI0Ik3.s 			page 29


 1549              	.LPIC270:
 1550 12ec 04408FE0 		add	r4, pc, r4
 1551 12f0 803094E5 		ldr	r3, [r4, #128]
 1552 12f4 742094E5 		ldr	r2, [r4, #116]
 1553 12f8 033087E0 		add	r3, r7, r3
 1554 12fc 020053E1 		cmp	r3, r2
 1555 1300 6700008A 		bhi	.L176
 1556 1304 900F05E3 		movw	r0, #24464
 1557 1308 010040E3 		movt	r0, 1
 1558 130c 900700E0 		mul	r0, r0, r7
 1559 1310 FEFFFFEB 		bl	EApiSleepns(PLT)
 1560 1314 801094E5 		ldr	r1, [r4, #128]
 1561 1318 0020A0E3 		mov	r2, #0
 1562 131c 8C0094E5 		ldr	r0, [r4, #140]
 1563 1320 FEFFFFEB 		bl	fseek(PLT)
 1564 1324 8C3094E5 		ldr	r3, [r4, #140]
 1565 1328 0720A0E1 		mov	r2, r7
 1566 132c 0900A0E1 		mov	r0, r9
 1567 1330 0110A0E3 		mov	r1, #1
 1568 1334 FEFFFFEB 		bl	fread(PLT)
 1569 1338 000057E1 		cmp	r7, r0
 1570 133c 4700001A 		bne	.L177
 1571 1340 803094E5 		ldr	r3, [r4, #128]
 1572 1344 073083E0 		add	r3, r3, r7
 1573 1348 803084E5 		str	r3, [r4, #128]
 1574              	.L160:
 1575              	.L155:
 1576 134c 74C29FE5 		ldr	ip, .L181+36
 1577 1350 0040A0E3 		mov	r4, #0
 1578 1354 70029FE5 		ldr	r0, .L181+40
 1579 1358 E830A0E3 		mov	r3, #232
 1580 135c 6C229FE5 		ldr	r2, .L181+44
 1581 1360 6C129FE5 		ldr	r1, .L181+48
 1582              	.LPIC287:
 1583 1364 0CC08FE0 		add	ip, pc, ip
 1584              	.LPIC288:
 1585 1368 00008FE0 		add	r0, pc, r0
 1586 136c 00408DE5 		str	r4, [sp]
 1587 1370 01108DE9 		stmib	sp, {r0, ip}
 1588              	.LPIC285:
 1589 1374 02208FE0 		add	r2, pc, r2
 1590              	.LPIC286:
 1591 1378 01108FE0 		add	r1, pc, r1
 1592 137c 4C00A0E3 		mov	r0, #76
 1593 1380 FEFFFFEB 		bl	siFormattedMessage_SC(PLT)
 1594 1384 0400A0E1 		mov	r0, r4
 1595              	.L147:
 1596 1388 3CD08DE2 		add	sp, sp, #60
 1597              		@ sp needed
 1598 138c F08FBDE8 		pop	{r4, r5, r6, r7, r8, r9, r10, fp, pc}
 1599              	.L173:
 1600 1390 808094E5 		ldr	r8, [r4, #128]
 1601 1394 7C1094E5 		ldr	r1, [r4, #124]
 1602 1398 0800A0E1 		mov	r0, r8
 1603 139c FEFFFFEB 		bl	__aeabi_uidivmod(PLT)
 1604 13a0 08808DE5 		str	r8, [sp, #8]
 1605 13a4 0B20A0E1 		mov	r2, fp
ARM GAS  /tmp/ccrI0Ik3.s 			page 30


 1606 13a8 883094E5 		ldr	r3, [r4, #136]
 1607 13ac 4C00A0E3 		mov	r0, #76
 1608 13b0 00308DE5 		str	r3, [sp]
 1609 13b4 0130A0E1 		mov	r3, r1
 1610 13b8 0C308DE5 		str	r3, [sp, #12]
 1611 13bc 033086E0 		add	r3, r6, r3
 1612 13c0 10308DE5 		str	r3, [sp, #16]
 1613 13c4 0A10A0E1 		mov	r1, r10
 1614 13c8 08329FE5 		ldr	r3, .L181+52
 1615              	.LPIC293:
 1616 13cc 03308FE0 		add	r3, pc, r3
 1617 13d0 04308DE5 		str	r3, [sp, #4]
 1618 13d4 B230A0E3 		mov	r3, #178
 1619 13d8 FEFFFFEB 		bl	siFormattedMessage_M2(PLT)
 1620              	.L163:
 1621 13dc F8419FE5 		ldr	r4, .L181+56
 1622              	.LPIC250:
 1623 13e0 04408FE0 		add	r4, pc, r4
 1624 13e4 7CA094E5 		ldr	r10, [r4, #124]
 1625 13e8 808094E5 		ldr	r8, [r4, #128]
 1626 13ec 0A10A0E1 		mov	r1, r10
 1627 13f0 0800A0E1 		mov	r0, r8
 1628 13f4 FEFFFFEB 		bl	__aeabi_uidivmod(PLT)
 1629 13f8 061081E0 		add	r1, r1, r6
 1630 13fc 01005AE1 		cmp	r10, r1
 1631 1400 5900003A 		bcc	.L178
 1632 1404 743094E5 		ldr	r3, [r4, #116]
 1633 1408 068088E0 		add	r8, r8, r6
 1634 140c 030058E1 		cmp	r8, r3
 1635 1410 2E00008A 		bhi	.L179
 1636 1414 900F05E3 		movw	r0, #24464
 1637 1418 010040E3 		movt	r0, 1
 1638 141c 900600E0 		mul	r0, r0, r6
 1639 1420 FEFFFFEB 		bl	EApiSleepns(PLT)
 1640 1424 801094E5 		ldr	r1, [r4, #128]
 1641 1428 0020A0E3 		mov	r2, #0
 1642 142c 8C0094E5 		ldr	r0, [r4, #140]
 1643 1430 FEFFFFEB 		bl	fseek(PLT)
 1644 1434 8C3094E5 		ldr	r3, [r4, #140]
 1645 1438 0500A0E1 		mov	r0, r5
 1646 143c 0620A0E1 		mov	r2, r6
 1647 1440 0110A0E3 		mov	r1, #1
 1648 1444 FEFFFFEB 		bl	fwrite(PLT)
 1649 1448 060050E1 		cmp	r0, r6
 1650 144c 3A00001A 		bne	.L180
 1651 1450 803094E5 		ldr	r3, [r4, #128]
 1652 1454 063083E0 		add	r3, r3, r6
 1653 1458 803084E5 		str	r3, [r4, #128]
 1654 145c 9FFFFFEA 		b	.L149
 1655              	.L177:
 1656 1460 78C19FE5 		ldr	ip, .L181+60
 1657 1464 054CE0E3 		mvn	r4, #1280
 1658 1468 74019FE5 		ldr	r0, .L181+64
 1659 146c E030A0E3 		mov	r3, #224
 1660 1470 70219FE5 		ldr	r2, .L181+68
 1661 1474 70119FE5 		ldr	r1, .L181+72
 1662              	.LPIC281:
ARM GAS  /tmp/ccrI0Ik3.s 			page 31


 1663 1478 0CC08FE0 		add	ip, pc, ip
 1664              	.LPIC282:
 1665 147c 00008FE0 		add	r0, pc, r0
 1666              	.LPIC279:
 1667 1480 02208FE0 		add	r2, pc, r2
 1668              	.LPIC280:
 1669 1484 01108FE0 		add	r1, pc, r1
 1670              	.L172:
 1671 1488 01108DE9 		stmib	sp, {r0, ip}
 1672 148c 4500A0E3 		mov	r0, #69
 1673 1490 00408DE5 		str	r4, [sp]
 1674 1494 FEFFFFEB 		bl	siFormattedMessage_SC(PLT)
 1675 1498 0400A0E1 		mov	r0, r4
 1676 149c 3CD08DE2 		add	sp, sp, #60
 1677              		@ sp needed
 1678 14a0 F08FBDE8 		pop	{r4, r5, r6, r7, r8, r9, r10, fp, pc}
 1679              	.L176:
 1680 14a4 44C19FE5 		ldr	ip, .L181+76
 1681 14a8 054CE0E3 		mvn	r4, #1280
 1682 14ac 40019FE5 		ldr	r0, .L181+80
 1683 14b0 D730A0E3 		mov	r3, #215
 1684 14b4 3C219FE5 		ldr	r2, .L181+84
 1685 14b8 3C119FE5 		ldr	r1, .L181+88
 1686              	.LPIC274:
 1687 14bc 0CC08FE0 		add	ip, pc, ip
 1688              	.LPIC275:
 1689 14c0 00008FE0 		add	r0, pc, r0
 1690              	.LPIC272:
 1691 14c4 02208FE0 		add	r2, pc, r2
 1692              	.LPIC273:
 1693 14c8 01108FE0 		add	r1, pc, r1
 1694 14cc EDFFFFEA 		b	.L172
 1695              	.L179:
 1696 14d0 28C19FE5 		ldr	ip, .L181+92
 1697 14d4 FE4A0FE3 		movw	r4, #64254
 1698 14d8 24019FE5 		ldr	r0, .L181+96
 1699 14dc FF4F4FE3 		movt	r4, 65535
 1700 14e0 20219FE5 		ldr	r2, .L181+100
 1701 14e4 C230A0E3 		mov	r3, #194
 1702 14e8 1C119FE5 		ldr	r1, .L181+104
 1703              	.LPIC259:
 1704 14ec 0CC08FE0 		add	ip, pc, ip
 1705              	.LPIC260:
 1706 14f0 00008FE0 		add	r0, pc, r0
 1707              	.LPIC257:
 1708 14f4 02208FE0 		add	r2, pc, r2
 1709              	.LPIC258:
 1710 14f8 01108FE0 		add	r1, pc, r1
 1711 14fc E1FFFFEA 		b	.L172
 1712              	.L174:
 1713 1500 08019FE5 		ldr	r0, .L181+108
 1714 1504 054CE0E3 		mvn	r4, #1280
 1715 1508 04319FE5 		ldr	r3, .L181+112
 1716 150c 0B20A0E1 		mov	r2, fp
 1717 1510 0A10A0E1 		mov	r1, r10
 1718 1514 00408DE5 		str	r4, [sp]
 1719              	.LPIC240:
ARM GAS  /tmp/ccrI0Ik3.s 			page 32


 1720 1518 00008FE0 		add	r0, pc, r0
 1721              	.LPIC241:
 1722 151c 03308FE0 		add	r3, pc, r3
 1723 1520 08008DE5 		str	r0, [sp, #8]
 1724 1524 04308DE5 		str	r3, [sp, #4]
 1725 1528 4500A0E3 		mov	r0, #69
 1726 152c 9C30A0E3 		mov	r3, #156
 1727 1530 FEFFFFEB 		bl	siFormattedMessage_SC(PLT)
 1728 1534 0400A0E1 		mov	r0, r4
 1729 1538 92FFFFEA 		b	.L147
 1730              	.L180:
 1731 153c D4C09FE5 		ldr	ip, .L181+116
 1732 1540 FE4A0FE3 		movw	r4, #64254
 1733 1544 D0009FE5 		ldr	r0, .L181+120
 1734 1548 FF4F4FE3 		movt	r4, 65535
 1735 154c CC209FE5 		ldr	r2, .L181+124
 1736 1550 CB30A0E3 		mov	r3, #203
 1737 1554 C8109FE5 		ldr	r1, .L181+128
 1738              	.LPIC266:
 1739 1558 0CC08FE0 		add	ip, pc, ip
 1740              	.LPIC267:
 1741 155c 00008FE0 		add	r0, pc, r0
 1742              	.LPIC264:
 1743 1560 02208FE0 		add	r2, pc, r2
 1744              	.LPIC265:
 1745 1564 01108FE0 		add	r1, pc, r1
 1746 1568 C6FFFFEA 		b	.L172
 1747              	.L178:
 1748 156c B4C09FE5 		ldr	ip, .L181+132
 1749 1570 FE4A0FE3 		movw	r4, #64254
 1750 1574 B0009FE5 		ldr	r0, .L181+136
 1751 1578 FF4F4FE3 		movt	r4, 65535
 1752 157c AC209FE5 		ldr	r2, .L181+140
 1753 1580 BC30A0E3 		mov	r3, #188
 1754 1584 A8109FE5 		ldr	r1, .L181+144
 1755              	.LPIC254:
 1756 1588 0CC08FE0 		add	ip, pc, ip
 1757              	.LPIC255:
 1758 158c 00008FE0 		add	r0, pc, r0
 1759              	.LPIC252:
 1760 1590 02208FE0 		add	r2, pc, r2
 1761              	.LPIC253:
 1762 1594 01108FE0 		add	r1, pc, r1
 1763 1598 BAFFFFEA 		b	.L172
 1764              	.L175:
 1765 159c 0A50A0E1 		mov	r5, r10
 1766 15a0 8DFFFFEA 		b	.L163
 1767              	.L182:
 1768              		.align	2
 1769              	.L181:
 1770 15a4 18040000 		.word	.LANCHOR0-(.LPIC229+8)
 1771 15a8 04040000 		.word	.LC3-(.LPIC227+8)
 1772 15ac EC030000 		.word	.LC1-(.LPIC228+8)
 1773 15b0 B0030000 		.word	.LC7-(.LPIC234+8)
 1774 15b4 28030000 		.word	.LANCHOR0-(.LPIC244+8)
 1775 15b8 F0020000 		.word	.LC8-(.LPIC248+8)
 1776 15bc EC020000 		.word	.LC3-(.LPIC246+8)
ARM GAS  /tmp/ccrI0Ik3.s 			page 33


 1777 15c0 EC020000 		.word	.LC1-(.LPIC247+8)
 1778 15c4 D0020000 		.word	.LANCHOR0-(.LPIC270+8)
 1779 15c8 5C020000 		.word	.LC6-(.LPIC287+8)
 1780 15cc 5C020000 		.word	.LC5-(.LPIC288+8)
 1781 15d0 54020000 		.word	.LC3-(.LPIC285+8)
 1782 15d4 54020000 		.word	.LC1-(.LPIC286+8)
 1783 15d8 04020000 		.word	.LC8-(.LPIC293+8)
 1784 15dc F4010000 		.word	.LANCHOR0-(.LPIC250+8)
 1785 15e0 60010000 		.word	.LC13-(.LPIC281+8)
 1786 15e4 60010000 		.word	.LC5-(.LPIC282+8)
 1787 15e8 60010000 		.word	.LC3-(.LPIC279+8)
 1788 15ec 60010000 		.word	.LC1-(.LPIC280+8)
 1789 15f0 2C010000 		.word	.LC12-(.LPIC274+8)
 1790 15f4 2C010000 		.word	.LC5-(.LPIC275+8)
 1791 15f8 2C010000 		.word	.LC3-(.LPIC272+8)
 1792 15fc 2C010000 		.word	.LC1-(.LPIC273+8)
 1793 1600 0C010000 		.word	.LC10-(.LPIC259+8)
 1794 1604 0C010000 		.word	.LC5-(.LPIC260+8)
 1795 1608 0C010000 		.word	.LC3-(.LPIC257+8)
 1796 160c 0C010000 		.word	.LC1-(.LPIC258+8)
 1797 1610 F0000000 		.word	.LC4-(.LPIC240+8)
 1798 1614 F0000000 		.word	.LC5-(.LPIC241+8)
 1799 1618 B8000000 		.word	.LC11-(.LPIC266+8)
 1800 161c B8000000 		.word	.LC5-(.LPIC267+8)
 1801 1620 B8000000 		.word	.LC3-(.LPIC264+8)
 1802 1624 B8000000 		.word	.LC1-(.LPIC265+8)
 1803 1628 98000000 		.word	.LC9-(.LPIC254+8)
 1804 162c 98000000 		.word	.LC5-(.LPIC255+8)
 1805 1630 98000000 		.word	.LC3-(.LPIC252+8)
 1806 1634 98000000 		.word	.LC1-(.LPIC253+8)
 1808              		.align	2
 1809              		.global	EmulateCOM0CBEeprom
 1810              		.hidden	EmulateCOM0CBEeprom
 1811              		.syntax unified
 1812              		.arm
 1813              		.fpu vfpv3
 1815              	EmulateCOM0CBEeprom:
 1816              		@ args = 4, pretend = 0, frame = 0
 1817              		@ frame_needed = 0, uses_anonymous_args = 0
 1818 1638 F04F2DE9 		push	{r4, r5, r6, r7, r8, r9, r10, fp, lr}
 1819 163c 0390A0E1 		mov	r9, r3
 1820 1640 0330D1E5 		ldrb	r3, [r1, #3]	@ zero_extendqisi2
 1821 1644 3CD04DE2 		sub	sp, sp, #60
 1822 1648 0150A0E1 		mov	r5, r1
 1823 164c 0260A0E1 		mov	r6, r2
 1824 1650 28449FE5 		ldr	r4, .L217
 1825 1654 0080A0E1 		mov	r8, r0
 1826 1658 30308DE5 		str	r3, [sp, #48]
 1827 165c 0230D1E5 		ldrb	r3, [r1, #2]	@ zero_extendqisi2
 1828              	.LPIC297:
 1829 1660 04408FE0 		add	r4, pc, r4
 1830 1664 60709DE5 		ldr	r7, [sp, #96]
 1831 1668 14B49FE5 		ldr	fp, .L217+4
 1832 166c 2C308DE5 		str	r3, [sp, #44]
 1833 1670 0130D1E5 		ldrb	r3, [r1, #1]	@ zero_extendqisi2
 1834 1674 942094E5 		ldr	r2, [r4, #148]
 1835              	.LPIC295:
ARM GAS  /tmp/ccrI0Ik3.s 			page 34


 1836 1678 0BB08FE0 		add	fp, pc, fp
 1837 167c 04A49FE5 		ldr	r10, .L217+8
 1838 1680 28308DE5 		str	r3, [sp, #40]
 1839 1684 981094E5 		ldr	r1, [r4, #152]
 1840 1688 0030D5E5 		ldrb	r3, [r5]	@ zero_extendqisi2
 1841 168c 022184E0 		add	r2, r4, r2, lsl #2
 1842 1690 10008DE5 		str	r0, [sp, #16]
 1843              	.LPIC296:
 1844 1694 0AA08FE0 		add	r10, pc, r10
 1845 1698 18108DE5 		str	r1, [sp, #24]
 1846 169c 4C00A0E3 		mov	r0, #76
 1847 16a0 24308DE5 		str	r3, [sp, #36]
 1848 16a4 0A10A0E1 		mov	r1, r10
 1849 16a8 FC61CDE1 		strd	r6, [sp, #28]
 1850 16ac 903094E5 		ldr	r3, [r4, #144]
 1851 16b0 14308DE5 		str	r3, [sp, #20]
 1852 16b4 9C3094E5 		ldr	r3, [r4, #156]
 1853 16b8 0C308DE5 		str	r3, [sp, #12]
 1854 16bc 143092E5 		ldr	r3, [r2, #20]
 1855 16c0 0B20A0E1 		mov	r2, fp
 1856 16c4 08308DE5 		str	r3, [sp, #8]
 1857 16c8 A43094E5 		ldr	r3, [r4, #164]
 1858 16cc 00308DE5 		str	r3, [sp]
 1859 16d0 B4339FE5 		ldr	r3, .L217+12
 1860              	.LPIC302:
 1861 16d4 03308FE0 		add	r3, pc, r3
 1862 16d8 04308DE5 		str	r3, [sp, #4]
 1863 16dc 7E30A0E3 		mov	r3, #126
 1864 16e0 FEFFFFEB 		bl	siFormattedMessage_M2(PLT)
 1865 16e4 000056E3 		cmp	r6, #0
 1866 16e8 3300000A 		beq	.L185
 1867 16ec 943094E5 		ldr	r3, [r4, #148]
 1868 16f0 010053E3 		cmp	r3, #1
 1869 16f4 1000000A 		beq	.L186
 1870 16f8 020053E3 		cmp	r3, #2
 1871 16fc 5A00001A 		bne	.L209
 1872 1700 010056E3 		cmp	r6, #1
 1873 1704 B400000A 		beq	.L210
 1874 1708 05A0A0E1 		mov	r10, r5
 1875 170c 200F0BE3 		movw	r0, #48928
 1876 1710 0220DAE4 		ldrb	r2, [r10], #2	@ zero_extendqisi2
 1877 1714 020040E3 		movt	r0, 2
 1878 1718 026046E2 		sub	r6, r6, #2
 1879 171c 0224A0E1 		lsl	r2, r2, #8
 1880 1720 9C2084E5 		str	r2, [r4, #156]
 1881 1724 0130D5E5 		ldrb	r3, [r5, #1]	@ zero_extendqisi2
 1882 1728 083883E1 		orr	r3, r3, r8, lsl #16
 1883 172c 023083E1 		orr	r3, r3, r2
 1884 1730 9C3084E5 		str	r3, [r4, #156]
 1885 1734 FEFFFFEB 		bl	EApiSleepns(PLT)
 1886 1738 070000EA 		b	.L189
 1887              	.L186:
 1888 173c 05A0A0E1 		mov	r10, r5
 1889 1740 900F05E3 		movw	r0, #24464
 1890 1744 0130DAE4 		ldrb	r3, [r10], #1	@ zero_extendqisi2
 1891 1748 010040E3 		movt	r0, 1
 1892 174c 016046E2 		sub	r6, r6, #1
ARM GAS  /tmp/ccrI0Ik3.s 			page 35


 1893 1750 083483E1 		orr	r3, r3, r8, lsl #8
 1894 1754 9C3084E5 		str	r3, [r4, #156]
 1895 1758 FEFFFFEB 		bl	EApiSleepns(PLT)
 1896              	.L189:
 1897 175c 2C439FE5 		ldr	r4, .L217+16
 1898              	.LPIC312:
 1899 1760 04408FE0 		add	r4, pc, r4
 1900 1764 9C5094E5 		ldr	r5, [r4, #156]
 1901 1768 981094E5 		ldr	r1, [r4, #152]
 1902 176c 0500A0E1 		mov	r0, r5
 1903 1770 FEFFFFEB 		bl	__aeabi_uidivmod(PLT)
 1904 1774 08508DE5 		str	r5, [sp, #8]
 1905 1778 4C00A0E3 		mov	r0, #76
 1906 177c A43094E5 		ldr	r3, [r4, #164]
 1907 1780 0C108DE5 		str	r1, [sp, #12]
 1908 1784 061081E0 		add	r1, r1, r6
 1909 1788 10108DE5 		str	r1, [sp, #16]
 1910 178c 00308DE5 		str	r3, [sp]
 1911 1790 FC329FE5 		ldr	r3, .L217+20
 1912 1794 FC229FE5 		ldr	r2, .L217+24
 1913 1798 FC129FE5 		ldr	r1, .L217+28
 1914              	.LPIC316:
 1915 179c 03308FE0 		add	r3, pc, r3
 1916 17a0 04308DE5 		str	r3, [sp, #4]
 1917              	.LPIC314:
 1918 17a4 02208FE0 		add	r2, pc, r2
 1919              	.LPIC315:
 1920 17a8 01108FE0 		add	r1, pc, r1
 1921 17ac B230A0E3 		mov	r3, #178
 1922 17b0 FEFFFFEB 		bl	siFormattedMessage_M2(PLT)
 1923 17b4 000056E3 		cmp	r6, #0
 1924 17b8 AE00001A 		bne	.L211
 1925              	.L185:
 1926 17bc 000057E3 		cmp	r7, #0
 1927 17c0 1800000A 		beq	.L196
 1928 17c4 D4429FE5 		ldr	r4, .L217+32
 1929              	.LPIC338:
 1930 17c8 04408FE0 		add	r4, pc, r4
 1931 17cc 9C3094E5 		ldr	r3, [r4, #156]
 1932 17d0 902094E5 		ldr	r2, [r4, #144]
 1933 17d4 033087E0 		add	r3, r7, r3
 1934 17d8 020053E1 		cmp	r3, r2
 1935 17dc 6700008A 		bhi	.L212
 1936 17e0 900F05E3 		movw	r0, #24464
 1937 17e4 010040E3 		movt	r0, 1
 1938 17e8 900700E0 		mul	r0, r0, r7
 1939 17ec FEFFFFEB 		bl	EApiSleepns(PLT)
 1940 17f0 9C1094E5 		ldr	r1, [r4, #156]
 1941 17f4 0020A0E3 		mov	r2, #0
 1942 17f8 A80094E5 		ldr	r0, [r4, #168]
 1943 17fc FEFFFFEB 		bl	fseek(PLT)
 1944 1800 A83094E5 		ldr	r3, [r4, #168]
 1945 1804 0720A0E1 		mov	r2, r7
 1946 1808 0900A0E1 		mov	r0, r9
 1947 180c 0110A0E3 		mov	r1, #1
 1948 1810 FEFFFFEB 		bl	fread(PLT)
 1949 1814 000057E1 		cmp	r7, r0
ARM GAS  /tmp/ccrI0Ik3.s 			page 36


 1950 1818 4700001A 		bne	.L213
 1951 181c 9C3094E5 		ldr	r3, [r4, #156]
 1952 1820 073083E0 		add	r3, r3, r7
 1953 1824 9C3084E5 		str	r3, [r4, #156]
 1954              	.L196:
 1955              	.L191:
 1956 1828 74C29FE5 		ldr	ip, .L217+36
 1957 182c 0040A0E3 		mov	r4, #0
 1958 1830 70029FE5 		ldr	r0, .L217+40
 1959 1834 E830A0E3 		mov	r3, #232
 1960 1838 6C229FE5 		ldr	r2, .L217+44
 1961 183c 6C129FE5 		ldr	r1, .L217+48
 1962              	.LPIC355:
 1963 1840 0CC08FE0 		add	ip, pc, ip
 1964              	.LPIC356:
 1965 1844 00008FE0 		add	r0, pc, r0
 1966 1848 00408DE5 		str	r4, [sp]
 1967 184c 01108DE9 		stmib	sp, {r0, ip}
 1968              	.LPIC353:
 1969 1850 02208FE0 		add	r2, pc, r2
 1970              	.LPIC354:
 1971 1854 01108FE0 		add	r1, pc, r1
 1972 1858 4C00A0E3 		mov	r0, #76
 1973 185c FEFFFFEB 		bl	siFormattedMessage_SC(PLT)
 1974 1860 0400A0E1 		mov	r0, r4
 1975              	.L183:
 1976 1864 3CD08DE2 		add	sp, sp, #60
 1977              		@ sp needed
 1978 1868 F08FBDE8 		pop	{r4, r5, r6, r7, r8, r9, r10, fp, pc}
 1979              	.L209:
 1980 186c 9C8094E5 		ldr	r8, [r4, #156]
 1981 1870 981094E5 		ldr	r1, [r4, #152]
 1982 1874 0800A0E1 		mov	r0, r8
 1983 1878 FEFFFFEB 		bl	__aeabi_uidivmod(PLT)
 1984 187c 08808DE5 		str	r8, [sp, #8]
 1985 1880 0B20A0E1 		mov	r2, fp
 1986 1884 A43094E5 		ldr	r3, [r4, #164]
 1987 1888 4C00A0E3 		mov	r0, #76
 1988 188c 00308DE5 		str	r3, [sp]
 1989 1890 0130A0E1 		mov	r3, r1
 1990 1894 0C308DE5 		str	r3, [sp, #12]
 1991 1898 033086E0 		add	r3, r6, r3
 1992 189c 10308DE5 		str	r3, [sp, #16]
 1993 18a0 0A10A0E1 		mov	r1, r10
 1994 18a4 08329FE5 		ldr	r3, .L217+52
 1995              	.LPIC361:
 1996 18a8 03308FE0 		add	r3, pc, r3
 1997 18ac 04308DE5 		str	r3, [sp, #4]
 1998 18b0 B230A0E3 		mov	r3, #178
 1999 18b4 FEFFFFEB 		bl	siFormattedMessage_M2(PLT)
 2000              	.L199:
 2001 18b8 F8419FE5 		ldr	r4, .L217+56
 2002              	.LPIC318:
 2003 18bc 04408FE0 		add	r4, pc, r4
 2004 18c0 98A094E5 		ldr	r10, [r4, #152]
 2005 18c4 9C8094E5 		ldr	r8, [r4, #156]
 2006 18c8 0A10A0E1 		mov	r1, r10
ARM GAS  /tmp/ccrI0Ik3.s 			page 37


 2007 18cc 0800A0E1 		mov	r0, r8
 2008 18d0 FEFFFFEB 		bl	__aeabi_uidivmod(PLT)
 2009 18d4 061081E0 		add	r1, r1, r6
 2010 18d8 01005AE1 		cmp	r10, r1
 2011 18dc 5900003A 		bcc	.L214
 2012 18e0 903094E5 		ldr	r3, [r4, #144]
 2013 18e4 068088E0 		add	r8, r8, r6
 2014 18e8 030058E1 		cmp	r8, r3
 2015 18ec 2E00008A 		bhi	.L215
 2016 18f0 900F05E3 		movw	r0, #24464
 2017 18f4 010040E3 		movt	r0, 1
 2018 18f8 900600E0 		mul	r0, r0, r6
 2019 18fc FEFFFFEB 		bl	EApiSleepns(PLT)
 2020 1900 9C1094E5 		ldr	r1, [r4, #156]
 2021 1904 0020A0E3 		mov	r2, #0
 2022 1908 A80094E5 		ldr	r0, [r4, #168]
 2023 190c FEFFFFEB 		bl	fseek(PLT)
 2024 1910 A83094E5 		ldr	r3, [r4, #168]
 2025 1914 0500A0E1 		mov	r0, r5
 2026 1918 0620A0E1 		mov	r2, r6
 2027 191c 0110A0E3 		mov	r1, #1
 2028 1920 FEFFFFEB 		bl	fwrite(PLT)
 2029 1924 060050E1 		cmp	r0, r6
 2030 1928 3A00001A 		bne	.L216
 2031 192c 9C3094E5 		ldr	r3, [r4, #156]
 2032 1930 063083E0 		add	r3, r3, r6
 2033 1934 9C3084E5 		str	r3, [r4, #156]
 2034 1938 9FFFFFEA 		b	.L185
 2035              	.L213:
 2036 193c 78C19FE5 		ldr	ip, .L217+60
 2037 1940 054CE0E3 		mvn	r4, #1280
 2038 1944 74019FE5 		ldr	r0, .L217+64
 2039 1948 E030A0E3 		mov	r3, #224
 2040 194c 70219FE5 		ldr	r2, .L217+68
 2041 1950 70119FE5 		ldr	r1, .L217+72
 2042              	.LPIC349:
 2043 1954 0CC08FE0 		add	ip, pc, ip
 2044              	.LPIC350:
 2045 1958 00008FE0 		add	r0, pc, r0
 2046              	.LPIC347:
 2047 195c 02208FE0 		add	r2, pc, r2
 2048              	.LPIC348:
 2049 1960 01108FE0 		add	r1, pc, r1
 2050              	.L208:
 2051 1964 01108DE9 		stmib	sp, {r0, ip}
 2052 1968 4500A0E3 		mov	r0, #69
 2053 196c 00408DE5 		str	r4, [sp]
 2054 1970 FEFFFFEB 		bl	siFormattedMessage_SC(PLT)
 2055 1974 0400A0E1 		mov	r0, r4
 2056 1978 3CD08DE2 		add	sp, sp, #60
 2057              		@ sp needed
 2058 197c F08FBDE8 		pop	{r4, r5, r6, r7, r8, r9, r10, fp, pc}
 2059              	.L212:
 2060 1980 44C19FE5 		ldr	ip, .L217+76
 2061 1984 054CE0E3 		mvn	r4, #1280
 2062 1988 40019FE5 		ldr	r0, .L217+80
 2063 198c D730A0E3 		mov	r3, #215
ARM GAS  /tmp/ccrI0Ik3.s 			page 38


 2064 1990 3C219FE5 		ldr	r2, .L217+84
 2065 1994 3C119FE5 		ldr	r1, .L217+88
 2066              	.LPIC342:
 2067 1998 0CC08FE0 		add	ip, pc, ip
 2068              	.LPIC343:
 2069 199c 00008FE0 		add	r0, pc, r0
 2070              	.LPIC340:
 2071 19a0 02208FE0 		add	r2, pc, r2
 2072              	.LPIC341:
 2073 19a4 01108FE0 		add	r1, pc, r1
 2074 19a8 EDFFFFEA 		b	.L208
 2075              	.L215:
 2076 19ac 28C19FE5 		ldr	ip, .L217+92
 2077 19b0 FE4A0FE3 		movw	r4, #64254
 2078 19b4 24019FE5 		ldr	r0, .L217+96
 2079 19b8 FF4F4FE3 		movt	r4, 65535
 2080 19bc 20219FE5 		ldr	r2, .L217+100
 2081 19c0 C230A0E3 		mov	r3, #194
 2082 19c4 1C119FE5 		ldr	r1, .L217+104
 2083              	.LPIC327:
 2084 19c8 0CC08FE0 		add	ip, pc, ip
 2085              	.LPIC328:
 2086 19cc 00008FE0 		add	r0, pc, r0
 2087              	.LPIC325:
 2088 19d0 02208FE0 		add	r2, pc, r2
 2089              	.LPIC326:
 2090 19d4 01108FE0 		add	r1, pc, r1
 2091 19d8 E1FFFFEA 		b	.L208
 2092              	.L210:
 2093 19dc 08019FE5 		ldr	r0, .L217+108
 2094 19e0 054CE0E3 		mvn	r4, #1280
 2095 19e4 04319FE5 		ldr	r3, .L217+112
 2096 19e8 0B20A0E1 		mov	r2, fp
 2097 19ec 0A10A0E1 		mov	r1, r10
 2098 19f0 00408DE5 		str	r4, [sp]
 2099              	.LPIC308:
 2100 19f4 00008FE0 		add	r0, pc, r0
 2101              	.LPIC309:
 2102 19f8 03308FE0 		add	r3, pc, r3
 2103 19fc 08008DE5 		str	r0, [sp, #8]
 2104 1a00 04308DE5 		str	r3, [sp, #4]
 2105 1a04 4500A0E3 		mov	r0, #69
 2106 1a08 9C30A0E3 		mov	r3, #156
 2107 1a0c FEFFFFEB 		bl	siFormattedMessage_SC(PLT)
 2108 1a10 0400A0E1 		mov	r0, r4
 2109 1a14 92FFFFEA 		b	.L183
 2110              	.L216:
 2111 1a18 D4C09FE5 		ldr	ip, .L217+116
 2112 1a1c FE4A0FE3 		movw	r4, #64254
 2113 1a20 D0009FE5 		ldr	r0, .L217+120
 2114 1a24 FF4F4FE3 		movt	r4, 65535
 2115 1a28 CC209FE5 		ldr	r2, .L217+124
 2116 1a2c CB30A0E3 		mov	r3, #203
 2117 1a30 C8109FE5 		ldr	r1, .L217+128
 2118              	.LPIC334:
 2119 1a34 0CC08FE0 		add	ip, pc, ip
 2120              	.LPIC335:
ARM GAS  /tmp/ccrI0Ik3.s 			page 39


 2121 1a38 00008FE0 		add	r0, pc, r0
 2122              	.LPIC332:
 2123 1a3c 02208FE0 		add	r2, pc, r2
 2124              	.LPIC333:
 2125 1a40 01108FE0 		add	r1, pc, r1
 2126 1a44 C6FFFFEA 		b	.L208
 2127              	.L214:
 2128 1a48 B4C09FE5 		ldr	ip, .L217+132
 2129 1a4c FE4A0FE3 		movw	r4, #64254
 2130 1a50 B0009FE5 		ldr	r0, .L217+136
 2131 1a54 FF4F4FE3 		movt	r4, 65535
 2132 1a58 AC209FE5 		ldr	r2, .L217+140
 2133 1a5c BC30A0E3 		mov	r3, #188
 2134 1a60 A8109FE5 		ldr	r1, .L217+144
 2135              	.LPIC322:
 2136 1a64 0CC08FE0 		add	ip, pc, ip
 2137              	.LPIC323:
 2138 1a68 00008FE0 		add	r0, pc, r0
 2139              	.LPIC320:
 2140 1a6c 02208FE0 		add	r2, pc, r2
 2141              	.LPIC321:
 2142 1a70 01108FE0 		add	r1, pc, r1
 2143 1a74 BAFFFFEA 		b	.L208
 2144              	.L211:
 2145 1a78 0A50A0E1 		mov	r5, r10
 2146 1a7c 8DFFFFEA 		b	.L199
 2147              	.L218:
 2148              		.align	2
 2149              	.L217:
 2150 1a80 18040000 		.word	.LANCHOR0-(.LPIC297+8)
 2151 1a84 04040000 		.word	.LC3-(.LPIC295+8)
 2152 1a88 EC030000 		.word	.LC1-(.LPIC296+8)
 2153 1a8c B0030000 		.word	.LC7-(.LPIC302+8)
 2154 1a90 28030000 		.word	.LANCHOR0-(.LPIC312+8)
 2155 1a94 F0020000 		.word	.LC8-(.LPIC316+8)
 2156 1a98 EC020000 		.word	.LC3-(.LPIC314+8)
 2157 1a9c EC020000 		.word	.LC1-(.LPIC315+8)
 2158 1aa0 D0020000 		.word	.LANCHOR0-(.LPIC338+8)
 2159 1aa4 5C020000 		.word	.LC6-(.LPIC355+8)
 2160 1aa8 5C020000 		.word	.LC5-(.LPIC356+8)
 2161 1aac 54020000 		.word	.LC3-(.LPIC353+8)
 2162 1ab0 54020000 		.word	.LC1-(.LPIC354+8)
 2163 1ab4 04020000 		.word	.LC8-(.LPIC361+8)
 2164 1ab8 F4010000 		.word	.LANCHOR0-(.LPIC318+8)
 2165 1abc 60010000 		.word	.LC13-(.LPIC349+8)
 2166 1ac0 60010000 		.word	.LC5-(.LPIC350+8)
 2167 1ac4 60010000 		.word	.LC3-(.LPIC347+8)
 2168 1ac8 60010000 		.word	.LC1-(.LPIC348+8)
 2169 1acc 2C010000 		.word	.LC12-(.LPIC342+8)
 2170 1ad0 2C010000 		.word	.LC5-(.LPIC343+8)
 2171 1ad4 2C010000 		.word	.LC3-(.LPIC340+8)
 2172 1ad8 2C010000 		.word	.LC1-(.LPIC341+8)
 2173 1adc 0C010000 		.word	.LC10-(.LPIC327+8)
 2174 1ae0 0C010000 		.word	.LC5-(.LPIC328+8)
 2175 1ae4 0C010000 		.word	.LC3-(.LPIC325+8)
 2176 1ae8 0C010000 		.word	.LC1-(.LPIC326+8)
 2177 1aec F0000000 		.word	.LC4-(.LPIC308+8)
ARM GAS  /tmp/ccrI0Ik3.s 			page 40


 2178 1af0 F0000000 		.word	.LC5-(.LPIC309+8)
 2179 1af4 B8000000 		.word	.LC11-(.LPIC334+8)
 2180 1af8 B8000000 		.word	.LC5-(.LPIC335+8)
 2181 1afc B8000000 		.word	.LC3-(.LPIC332+8)
 2182 1b00 B8000000 		.word	.LC1-(.LPIC333+8)
 2183 1b04 98000000 		.word	.LC9-(.LPIC322+8)
 2184 1b08 98000000 		.word	.LC5-(.LPIC323+8)
 2185 1b0c 98000000 		.word	.LC3-(.LPIC320+8)
 2186 1b10 98000000 		.word	.LC1-(.LPIC321+8)
 2188              		.align	2
 2189              		.global	EmulateCOM0MEeprom
 2190              		.hidden	EmulateCOM0MEeprom
 2191              		.syntax unified
 2192              		.arm
 2193              		.fpu vfpv3
 2195              	EmulateCOM0MEeprom:
 2196              		@ args = 4, pretend = 0, frame = 0
 2197              		@ frame_needed = 0, uses_anonymous_args = 0
 2198 1b14 F04F2DE9 		push	{r4, r5, r6, r7, r8, r9, r10, fp, lr}
 2199 1b18 0390A0E1 		mov	r9, r3
 2200 1b1c 0330D1E5 		ldrb	r3, [r1, #3]	@ zero_extendqisi2
 2201 1b20 3CD04DE2 		sub	sp, sp, #60
 2202 1b24 0150A0E1 		mov	r5, r1
 2203 1b28 0260A0E1 		mov	r6, r2
 2204 1b2c 28449FE5 		ldr	r4, .L253
 2205 1b30 0080A0E1 		mov	r8, r0
 2206 1b34 30308DE5 		str	r3, [sp, #48]
 2207 1b38 0230D1E5 		ldrb	r3, [r1, #2]	@ zero_extendqisi2
 2208              	.LPIC365:
 2209 1b3c 04408FE0 		add	r4, pc, r4
 2210 1b40 60709DE5 		ldr	r7, [sp, #96]
 2211 1b44 14B49FE5 		ldr	fp, .L253+4
 2212 1b48 2C308DE5 		str	r3, [sp, #44]
 2213 1b4c 0130D1E5 		ldrb	r3, [r1, #1]	@ zero_extendqisi2
 2214 1b50 B02094E5 		ldr	r2, [r4, #176]
 2215              	.LPIC363:
 2216 1b54 0BB08FE0 		add	fp, pc, fp
 2217 1b58 04A49FE5 		ldr	r10, .L253+8
 2218 1b5c 28308DE5 		str	r3, [sp, #40]
 2219 1b60 B41094E5 		ldr	r1, [r4, #180]
 2220 1b64 0030D5E5 		ldrb	r3, [r5]	@ zero_extendqisi2
 2221 1b68 022184E0 		add	r2, r4, r2, lsl #2
 2222 1b6c 10008DE5 		str	r0, [sp, #16]
 2223              	.LPIC364:
 2224 1b70 0AA08FE0 		add	r10, pc, r10
 2225 1b74 18108DE5 		str	r1, [sp, #24]
 2226 1b78 4C00A0E3 		mov	r0, #76
 2227 1b7c 24308DE5 		str	r3, [sp, #36]
 2228 1b80 0A10A0E1 		mov	r1, r10
 2229 1b84 FC61CDE1 		strd	r6, [sp, #28]
 2230 1b88 AC3094E5 		ldr	r3, [r4, #172]
 2231 1b8c 14308DE5 		str	r3, [sp, #20]
 2232 1b90 B83094E5 		ldr	r3, [r4, #184]
 2233 1b94 0C308DE5 		str	r3, [sp, #12]
 2234 1b98 143092E5 		ldr	r3, [r2, #20]
 2235 1b9c 0B20A0E1 		mov	r2, fp
 2236 1ba0 08308DE5 		str	r3, [sp, #8]
ARM GAS  /tmp/ccrI0Ik3.s 			page 41


 2237 1ba4 C03094E5 		ldr	r3, [r4, #192]
 2238 1ba8 00308DE5 		str	r3, [sp]
 2239 1bac B4339FE5 		ldr	r3, .L253+12
 2240              	.LPIC370:
 2241 1bb0 03308FE0 		add	r3, pc, r3
 2242 1bb4 04308DE5 		str	r3, [sp, #4]
 2243 1bb8 7E30A0E3 		mov	r3, #126
 2244 1bbc FEFFFFEB 		bl	siFormattedMessage_M2(PLT)
 2245 1bc0 000056E3 		cmp	r6, #0
 2246 1bc4 3300000A 		beq	.L221
 2247 1bc8 B03094E5 		ldr	r3, [r4, #176]
 2248 1bcc 010053E3 		cmp	r3, #1
 2249 1bd0 1000000A 		beq	.L222
 2250 1bd4 020053E3 		cmp	r3, #2
 2251 1bd8 5A00001A 		bne	.L245
 2252 1bdc 010056E3 		cmp	r6, #1
 2253 1be0 B400000A 		beq	.L246
 2254 1be4 05A0A0E1 		mov	r10, r5
 2255 1be8 200F0BE3 		movw	r0, #48928
 2256 1bec 0220DAE4 		ldrb	r2, [r10], #2	@ zero_extendqisi2
 2257 1bf0 020040E3 		movt	r0, 2
 2258 1bf4 026046E2 		sub	r6, r6, #2
 2259 1bf8 0224A0E1 		lsl	r2, r2, #8
 2260 1bfc B82084E5 		str	r2, [r4, #184]
 2261 1c00 0130D5E5 		ldrb	r3, [r5, #1]	@ zero_extendqisi2
 2262 1c04 083883E1 		orr	r3, r3, r8, lsl #16
 2263 1c08 023083E1 		orr	r3, r3, r2
 2264 1c0c B83084E5 		str	r3, [r4, #184]
 2265 1c10 FEFFFFEB 		bl	EApiSleepns(PLT)
 2266 1c14 070000EA 		b	.L225
 2267              	.L222:
 2268 1c18 05A0A0E1 		mov	r10, r5
 2269 1c1c 900F05E3 		movw	r0, #24464
 2270 1c20 0130DAE4 		ldrb	r3, [r10], #1	@ zero_extendqisi2
 2271 1c24 010040E3 		movt	r0, 1
 2272 1c28 016046E2 		sub	r6, r6, #1
 2273 1c2c 083483E1 		orr	r3, r3, r8, lsl #8
 2274 1c30 B83084E5 		str	r3, [r4, #184]
 2275 1c34 FEFFFFEB 		bl	EApiSleepns(PLT)
 2276              	.L225:
 2277 1c38 2C439FE5 		ldr	r4, .L253+16
 2278              	.LPIC380:
 2279 1c3c 04408FE0 		add	r4, pc, r4
 2280 1c40 B85094E5 		ldr	r5, [r4, #184]
 2281 1c44 B41094E5 		ldr	r1, [r4, #180]
 2282 1c48 0500A0E1 		mov	r0, r5
 2283 1c4c FEFFFFEB 		bl	__aeabi_uidivmod(PLT)
 2284 1c50 08508DE5 		str	r5, [sp, #8]
 2285 1c54 4C00A0E3 		mov	r0, #76
 2286 1c58 C03094E5 		ldr	r3, [r4, #192]
 2287 1c5c 0C108DE5 		str	r1, [sp, #12]
 2288 1c60 061081E0 		add	r1, r1, r6
 2289 1c64 10108DE5 		str	r1, [sp, #16]
 2290 1c68 00308DE5 		str	r3, [sp]
 2291 1c6c FC329FE5 		ldr	r3, .L253+20
 2292 1c70 FC229FE5 		ldr	r2, .L253+24
 2293 1c74 FC129FE5 		ldr	r1, .L253+28
ARM GAS  /tmp/ccrI0Ik3.s 			page 42


 2294              	.LPIC384:
 2295 1c78 03308FE0 		add	r3, pc, r3
 2296 1c7c 04308DE5 		str	r3, [sp, #4]
 2297              	.LPIC382:
 2298 1c80 02208FE0 		add	r2, pc, r2
 2299              	.LPIC383:
 2300 1c84 01108FE0 		add	r1, pc, r1
 2301 1c88 B230A0E3 		mov	r3, #178
 2302 1c8c FEFFFFEB 		bl	siFormattedMessage_M2(PLT)
 2303 1c90 000056E3 		cmp	r6, #0
 2304 1c94 AE00001A 		bne	.L247
 2305              	.L221:
 2306 1c98 000057E3 		cmp	r7, #0
 2307 1c9c 1800000A 		beq	.L232
 2308 1ca0 D4429FE5 		ldr	r4, .L253+32
 2309              	.LPIC406:
 2310 1ca4 04408FE0 		add	r4, pc, r4
 2311 1ca8 B83094E5 		ldr	r3, [r4, #184]
 2312 1cac AC2094E5 		ldr	r2, [r4, #172]
 2313 1cb0 033087E0 		add	r3, r7, r3
 2314 1cb4 020053E1 		cmp	r3, r2
 2315 1cb8 6700008A 		bhi	.L248
 2316 1cbc 900F05E3 		movw	r0, #24464
 2317 1cc0 010040E3 		movt	r0, 1
 2318 1cc4 900700E0 		mul	r0, r0, r7
 2319 1cc8 FEFFFFEB 		bl	EApiSleepns(PLT)
 2320 1ccc B81094E5 		ldr	r1, [r4, #184]
 2321 1cd0 0020A0E3 		mov	r2, #0
 2322 1cd4 C40094E5 		ldr	r0, [r4, #196]
 2323 1cd8 FEFFFFEB 		bl	fseek(PLT)
 2324 1cdc C43094E5 		ldr	r3, [r4, #196]
 2325 1ce0 0720A0E1 		mov	r2, r7
 2326 1ce4 0900A0E1 		mov	r0, r9
 2327 1ce8 0110A0E3 		mov	r1, #1
 2328 1cec FEFFFFEB 		bl	fread(PLT)
 2329 1cf0 000057E1 		cmp	r7, r0
 2330 1cf4 4700001A 		bne	.L249
 2331 1cf8 B83094E5 		ldr	r3, [r4, #184]
 2332 1cfc 073083E0 		add	r3, r3, r7
 2333 1d00 B83084E5 		str	r3, [r4, #184]
 2334              	.L232:
 2335              	.L227:
 2336 1d04 74C29FE5 		ldr	ip, .L253+36
 2337 1d08 0040A0E3 		mov	r4, #0
 2338 1d0c 70029FE5 		ldr	r0, .L253+40
 2339 1d10 E830A0E3 		mov	r3, #232
 2340 1d14 6C229FE5 		ldr	r2, .L253+44
 2341 1d18 6C129FE5 		ldr	r1, .L253+48
 2342              	.LPIC423:
 2343 1d1c 0CC08FE0 		add	ip, pc, ip
 2344              	.LPIC424:
 2345 1d20 00008FE0 		add	r0, pc, r0
 2346 1d24 00408DE5 		str	r4, [sp]
 2347 1d28 01108DE9 		stmib	sp, {r0, ip}
 2348              	.LPIC421:
 2349 1d2c 02208FE0 		add	r2, pc, r2
 2350              	.LPIC422:
ARM GAS  /tmp/ccrI0Ik3.s 			page 43


 2351 1d30 01108FE0 		add	r1, pc, r1
 2352 1d34 4C00A0E3 		mov	r0, #76
 2353 1d38 FEFFFFEB 		bl	siFormattedMessage_SC(PLT)
 2354 1d3c 0400A0E1 		mov	r0, r4
 2355              	.L219:
 2356 1d40 3CD08DE2 		add	sp, sp, #60
 2357              		@ sp needed
 2358 1d44 F08FBDE8 		pop	{r4, r5, r6, r7, r8, r9, r10, fp, pc}
 2359              	.L245:
 2360 1d48 B88094E5 		ldr	r8, [r4, #184]
 2361 1d4c B41094E5 		ldr	r1, [r4, #180]
 2362 1d50 0800A0E1 		mov	r0, r8
 2363 1d54 FEFFFFEB 		bl	__aeabi_uidivmod(PLT)
 2364 1d58 08808DE5 		str	r8, [sp, #8]
 2365 1d5c 0B20A0E1 		mov	r2, fp
 2366 1d60 C03094E5 		ldr	r3, [r4, #192]
 2367 1d64 4C00A0E3 		mov	r0, #76
 2368 1d68 00308DE5 		str	r3, [sp]
 2369 1d6c 0130A0E1 		mov	r3, r1
 2370 1d70 0C308DE5 		str	r3, [sp, #12]
 2371 1d74 033086E0 		add	r3, r6, r3
 2372 1d78 10308DE5 		str	r3, [sp, #16]
 2373 1d7c 0A10A0E1 		mov	r1, r10
 2374 1d80 08329FE5 		ldr	r3, .L253+52
 2375              	.LPIC429:
 2376 1d84 03308FE0 		add	r3, pc, r3
 2377 1d88 04308DE5 		str	r3, [sp, #4]
 2378 1d8c B230A0E3 		mov	r3, #178
 2379 1d90 FEFFFFEB 		bl	siFormattedMessage_M2(PLT)
 2380              	.L235:
 2381 1d94 F8419FE5 		ldr	r4, .L253+56
 2382              	.LPIC386:
 2383 1d98 04408FE0 		add	r4, pc, r4
 2384 1d9c B4A094E5 		ldr	r10, [r4, #180]
 2385 1da0 B88094E5 		ldr	r8, [r4, #184]
 2386 1da4 0A10A0E1 		mov	r1, r10
 2387 1da8 0800A0E1 		mov	r0, r8
 2388 1dac FEFFFFEB 		bl	__aeabi_uidivmod(PLT)
 2389 1db0 061081E0 		add	r1, r1, r6
 2390 1db4 01005AE1 		cmp	r10, r1
 2391 1db8 5900003A 		bcc	.L250
 2392 1dbc AC3094E5 		ldr	r3, [r4, #172]
 2393 1dc0 068088E0 		add	r8, r8, r6
 2394 1dc4 030058E1 		cmp	r8, r3
 2395 1dc8 2E00008A 		bhi	.L251
 2396 1dcc 900F05E3 		movw	r0, #24464
 2397 1dd0 010040E3 		movt	r0, 1
 2398 1dd4 900600E0 		mul	r0, r0, r6
 2399 1dd8 FEFFFFEB 		bl	EApiSleepns(PLT)
 2400 1ddc B81094E5 		ldr	r1, [r4, #184]
 2401 1de0 0020A0E3 		mov	r2, #0
 2402 1de4 C40094E5 		ldr	r0, [r4, #196]
 2403 1de8 FEFFFFEB 		bl	fseek(PLT)
 2404 1dec C43094E5 		ldr	r3, [r4, #196]
 2405 1df0 0500A0E1 		mov	r0, r5
 2406 1df4 0620A0E1 		mov	r2, r6
 2407 1df8 0110A0E3 		mov	r1, #1
ARM GAS  /tmp/ccrI0Ik3.s 			page 44


 2408 1dfc FEFFFFEB 		bl	fwrite(PLT)
 2409 1e00 060050E1 		cmp	r0, r6
 2410 1e04 3A00001A 		bne	.L252
 2411 1e08 B83094E5 		ldr	r3, [r4, #184]
 2412 1e0c 063083E0 		add	r3, r3, r6
 2413 1e10 B83084E5 		str	r3, [r4, #184]
 2414 1e14 9FFFFFEA 		b	.L221
 2415              	.L249:
 2416 1e18 78C19FE5 		ldr	ip, .L253+60
 2417 1e1c 054CE0E3 		mvn	r4, #1280
 2418 1e20 74019FE5 		ldr	r0, .L253+64
 2419 1e24 E030A0E3 		mov	r3, #224
 2420 1e28 70219FE5 		ldr	r2, .L253+68
 2421 1e2c 70119FE5 		ldr	r1, .L253+72
 2422              	.LPIC417:
 2423 1e30 0CC08FE0 		add	ip, pc, ip
 2424              	.LPIC418:
 2425 1e34 00008FE0 		add	r0, pc, r0
 2426              	.LPIC415:
 2427 1e38 02208FE0 		add	r2, pc, r2
 2428              	.LPIC416:
 2429 1e3c 01108FE0 		add	r1, pc, r1
 2430              	.L244:
 2431 1e40 01108DE9 		stmib	sp, {r0, ip}
 2432 1e44 4500A0E3 		mov	r0, #69
 2433 1e48 00408DE5 		str	r4, [sp]
 2434 1e4c FEFFFFEB 		bl	siFormattedMessage_SC(PLT)
 2435 1e50 0400A0E1 		mov	r0, r4
 2436 1e54 3CD08DE2 		add	sp, sp, #60
 2437              		@ sp needed
 2438 1e58 F08FBDE8 		pop	{r4, r5, r6, r7, r8, r9, r10, fp, pc}
 2439              	.L248:
 2440 1e5c 44C19FE5 		ldr	ip, .L253+76
 2441 1e60 054CE0E3 		mvn	r4, #1280
 2442 1e64 40019FE5 		ldr	r0, .L253+80
 2443 1e68 D730A0E3 		mov	r3, #215
 2444 1e6c 3C219FE5 		ldr	r2, .L253+84
 2445 1e70 3C119FE5 		ldr	r1, .L253+88
 2446              	.LPIC410:
 2447 1e74 0CC08FE0 		add	ip, pc, ip
 2448              	.LPIC411:
 2449 1e78 00008FE0 		add	r0, pc, r0
 2450              	.LPIC408:
 2451 1e7c 02208FE0 		add	r2, pc, r2
 2452              	.LPIC409:
 2453 1e80 01108FE0 		add	r1, pc, r1
 2454 1e84 EDFFFFEA 		b	.L244
 2455              	.L251:
 2456 1e88 28C19FE5 		ldr	ip, .L253+92
 2457 1e8c FE4A0FE3 		movw	r4, #64254
 2458 1e90 24019FE5 		ldr	r0, .L253+96
 2459 1e94 FF4F4FE3 		movt	r4, 65535
 2460 1e98 20219FE5 		ldr	r2, .L253+100
 2461 1e9c C230A0E3 		mov	r3, #194
 2462 1ea0 1C119FE5 		ldr	r1, .L253+104
 2463              	.LPIC395:
 2464 1ea4 0CC08FE0 		add	ip, pc, ip
ARM GAS  /tmp/ccrI0Ik3.s 			page 45


 2465              	.LPIC396:
 2466 1ea8 00008FE0 		add	r0, pc, r0
 2467              	.LPIC393:
 2468 1eac 02208FE0 		add	r2, pc, r2
 2469              	.LPIC394:
 2470 1eb0 01108FE0 		add	r1, pc, r1
 2471 1eb4 E1FFFFEA 		b	.L244
 2472              	.L246:
 2473 1eb8 08019FE5 		ldr	r0, .L253+108
 2474 1ebc 054CE0E3 		mvn	r4, #1280
 2475 1ec0 04319FE5 		ldr	r3, .L253+112
 2476 1ec4 0B20A0E1 		mov	r2, fp
 2477 1ec8 0A10A0E1 		mov	r1, r10
 2478 1ecc 00408DE5 		str	r4, [sp]
 2479              	.LPIC376:
 2480 1ed0 00008FE0 		add	r0, pc, r0
 2481              	.LPIC377:
 2482 1ed4 03308FE0 		add	r3, pc, r3
 2483 1ed8 08008DE5 		str	r0, [sp, #8]
 2484 1edc 04308DE5 		str	r3, [sp, #4]
 2485 1ee0 4500A0E3 		mov	r0, #69
 2486 1ee4 9C30A0E3 		mov	r3, #156
 2487 1ee8 FEFFFFEB 		bl	siFormattedMessage_SC(PLT)
 2488 1eec 0400A0E1 		mov	r0, r4
 2489 1ef0 92FFFFEA 		b	.L219
 2490              	.L252:
 2491 1ef4 D4C09FE5 		ldr	ip, .L253+116
 2492 1ef8 FE4A0FE3 		movw	r4, #64254
 2493 1efc D0009FE5 		ldr	r0, .L253+120
 2494 1f00 FF4F4FE3 		movt	r4, 65535
 2495 1f04 CC209FE5 		ldr	r2, .L253+124
 2496 1f08 CB30A0E3 		mov	r3, #203
 2497 1f0c C8109FE5 		ldr	r1, .L253+128
 2498              	.LPIC402:
 2499 1f10 0CC08FE0 		add	ip, pc, ip
 2500              	.LPIC403:
 2501 1f14 00008FE0 		add	r0, pc, r0
 2502              	.LPIC400:
 2503 1f18 02208FE0 		add	r2, pc, r2
 2504              	.LPIC401:
 2505 1f1c 01108FE0 		add	r1, pc, r1
 2506 1f20 C6FFFFEA 		b	.L244
 2507              	.L250:
 2508 1f24 B4C09FE5 		ldr	ip, .L253+132
 2509 1f28 FE4A0FE3 		movw	r4, #64254
 2510 1f2c B0009FE5 		ldr	r0, .L253+136
 2511 1f30 FF4F4FE3 		movt	r4, 65535
 2512 1f34 AC209FE5 		ldr	r2, .L253+140
 2513 1f38 BC30A0E3 		mov	r3, #188
 2514 1f3c A8109FE5 		ldr	r1, .L253+144
 2515              	.LPIC390:
 2516 1f40 0CC08FE0 		add	ip, pc, ip
 2517              	.LPIC391:
 2518 1f44 00008FE0 		add	r0, pc, r0
 2519              	.LPIC388:
 2520 1f48 02208FE0 		add	r2, pc, r2
 2521              	.LPIC389:
ARM GAS  /tmp/ccrI0Ik3.s 			page 46


 2522 1f4c 01108FE0 		add	r1, pc, r1
 2523 1f50 BAFFFFEA 		b	.L244
 2524              	.L247:
 2525 1f54 0A50A0E1 		mov	r5, r10
 2526 1f58 8DFFFFEA 		b	.L235
 2527              	.L254:
 2528              		.align	2
 2529              	.L253:
 2530 1f5c 18040000 		.word	.LANCHOR0-(.LPIC365+8)
 2531 1f60 04040000 		.word	.LC3-(.LPIC363+8)
 2532 1f64 EC030000 		.word	.LC1-(.LPIC364+8)
 2533 1f68 B0030000 		.word	.LC7-(.LPIC370+8)
 2534 1f6c 28030000 		.word	.LANCHOR0-(.LPIC380+8)
 2535 1f70 F0020000 		.word	.LC8-(.LPIC384+8)
 2536 1f74 EC020000 		.word	.LC3-(.LPIC382+8)
 2537 1f78 EC020000 		.word	.LC1-(.LPIC383+8)
 2538 1f7c D0020000 		.word	.LANCHOR0-(.LPIC406+8)
 2539 1f80 5C020000 		.word	.LC6-(.LPIC423+8)
 2540 1f84 5C020000 		.word	.LC5-(.LPIC424+8)
 2541 1f88 54020000 		.word	.LC3-(.LPIC421+8)
 2542 1f8c 54020000 		.word	.LC1-(.LPIC422+8)
 2543 1f90 04020000 		.word	.LC8-(.LPIC429+8)
 2544 1f94 F4010000 		.word	.LANCHOR0-(.LPIC386+8)
 2545 1f98 60010000 		.word	.LC13-(.LPIC417+8)
 2546 1f9c 60010000 		.word	.LC5-(.LPIC418+8)
 2547 1fa0 60010000 		.word	.LC3-(.LPIC415+8)
 2548 1fa4 60010000 		.word	.LC1-(.LPIC416+8)
 2549 1fa8 2C010000 		.word	.LC12-(.LPIC410+8)
 2550 1fac 2C010000 		.word	.LC5-(.LPIC411+8)
 2551 1fb0 2C010000 		.word	.LC3-(.LPIC408+8)
 2552 1fb4 2C010000 		.word	.LC1-(.LPIC409+8)
 2553 1fb8 0C010000 		.word	.LC10-(.LPIC395+8)
 2554 1fbc 0C010000 		.word	.LC5-(.LPIC396+8)
 2555 1fc0 0C010000 		.word	.LC3-(.LPIC393+8)
 2556 1fc4 0C010000 		.word	.LC1-(.LPIC394+8)
 2557 1fc8 F0000000 		.word	.LC4-(.LPIC376+8)
 2558 1fcc F0000000 		.word	.LC5-(.LPIC377+8)
 2559 1fd0 B8000000 		.word	.LC11-(.LPIC402+8)
 2560 1fd4 B8000000 		.word	.LC5-(.LPIC403+8)
 2561 1fd8 B8000000 		.word	.LC3-(.LPIC400+8)
 2562 1fdc B8000000 		.word	.LC1-(.LPIC401+8)
 2563 1fe0 98000000 		.word	.LC9-(.LPIC390+8)
 2564 1fe4 98000000 		.word	.LC5-(.LPIC391+8)
 2565 1fe8 98000000 		.word	.LC3-(.LPIC388+8)
 2566 1fec 98000000 		.word	.LC1-(.LPIC389+8)
 2568              		.align	2
 2569              		.global	EmulateEepromFS
 2570              		.hidden	EmulateEepromFS
 2571              		.syntax unified
 2572              		.arm
 2573              		.fpu vfpv3
 2575              	EmulateEepromFS:
 2576              		@ args = 8, pretend = 0, frame = 0
 2577              		@ frame_needed = 0, uses_anonymous_args = 0
 2578 1ff0 F0472DE9 		push	{r4, r5, r6, r7, r8, r9, r10, lr}
 2579 1ff4 0360A0E1 		mov	r6, r3
 2580 1ff8 0330D2E5 		ldrb	r3, [r2, #3]	@ zero_extendqisi2
ARM GAS  /tmp/ccrI0Ik3.s 			page 47


 2581 1ffc 38D04DE2 		sub	sp, sp, #56
 2582 2000 0250A0E1 		mov	r5, r2
 2583 2004 0140A0E1 		mov	r4, r1
 2584 2008 5C709DE5 		ldr	r7, [sp, #92]
 2585 200c 0080A0E1 		mov	r8, r0
 2586 2010 30308DE5 		str	r3, [sp, #48]
 2587 2014 0230D2E5 		ldrb	r3, [r2, #2]	@ zero_extendqisi2
 2588 2018 00A49FE5 		ldr	r10, .L289
 2589 201c 00949FE5 		ldr	r9, .L289+4
 2590 2020 2C308DE5 		str	r3, [sp, #44]
 2591 2024 0130D5E5 		ldrb	r3, [r5, #1]	@ zero_extendqisi2
 2592              	.LPIC431:
 2593 2028 0AA08FE0 		add	r10, pc, r10
 2594 202c 042091E5 		ldr	r2, [r1, #4]
 2595              	.LPIC432:
 2596 2030 09908FE0 		add	r9, pc, r9
 2597 2034 28308DE5 		str	r3, [sp, #40]
 2598 2038 E8339FE5 		ldr	r3, .L289+8
 2599              	.LPIC433:
 2600 203c 03308FE0 		add	r3, pc, r3
 2601 2040 023183E0 		add	r3, r3, r2, lsl #2
 2602 2044 0020D5E5 		ldrb	r2, [r5]	@ zero_extendqisi2
 2603 2048 10008DE5 		str	r0, [sp, #16]
 2604 204c 4C00A0E3 		mov	r0, #76
 2605 2050 FC61CDE1 		strd	r6, [sp, #28]
 2606 2054 24208DE5 		str	r2, [sp, #36]
 2607 2058 082091E5 		ldr	r2, [r1, #8]
 2608 205c 18208DE5 		str	r2, [sp, #24]
 2609 2060 002091E5 		ldr	r2, [r1]
 2610 2064 14208DE5 		str	r2, [sp, #20]
 2611 2068 0C2091E5 		ldr	r2, [r1, #12]
 2612 206c 0C208DE5 		str	r2, [sp, #12]
 2613 2070 0A20A0E1 		mov	r2, r10
 2614 2074 143093E5 		ldr	r3, [r3, #20]
 2615 2078 08308DE5 		str	r3, [sp, #8]
 2616 207c 143091E5 		ldr	r3, [r1, #20]
 2617 2080 0910A0E1 		mov	r1, r9
 2618 2084 00308DE5 		str	r3, [sp]
 2619 2088 9C339FE5 		ldr	r3, .L289+12
 2620              	.LPIC434:
 2621 208c 03308FE0 		add	r3, pc, r3
 2622 2090 04308DE5 		str	r3, [sp, #4]
 2623 2094 7E30A0E3 		mov	r3, #126
 2624 2098 FEFFFFEB 		bl	siFormattedMessage_M2(PLT)
 2625 209c 000056E3 		cmp	r6, #0
 2626 20a0 3100000A 		beq	.L257
 2627 20a4 043094E5 		ldr	r3, [r4, #4]
 2628 20a8 010053E3 		cmp	r3, #1
 2629 20ac 1000000A 		beq	.L258
 2630 20b0 020053E3 		cmp	r3, #2
 2631 20b4 5600001A 		bne	.L281
 2632 20b8 010056E3 		cmp	r6, #1
 2633 20bc AE00000A 		beq	.L282
 2634 20c0 0590A0E1 		mov	r9, r5
 2635 20c4 200F0BE3 		movw	r0, #48928
 2636 20c8 0220D9E4 		ldrb	r2, [r9], #2	@ zero_extendqisi2
 2637 20cc 020040E3 		movt	r0, 2
ARM GAS  /tmp/ccrI0Ik3.s 			page 48


 2638 20d0 026046E2 		sub	r6, r6, #2
 2639 20d4 0224A0E1 		lsl	r2, r2, #8
 2640 20d8 0C2084E5 		str	r2, [r4, #12]
 2641 20dc 0130D5E5 		ldrb	r3, [r5, #1]	@ zero_extendqisi2
 2642 20e0 083883E1 		orr	r3, r3, r8, lsl #16
 2643 20e4 023083E1 		orr	r3, r3, r2
 2644 20e8 0C3084E5 		str	r3, [r4, #12]
 2645 20ec FEFFFFEB 		bl	EApiSleepns(PLT)
 2646 20f0 070000EA 		b	.L261
 2647              	.L258:
 2648 20f4 0590A0E1 		mov	r9, r5
 2649 20f8 900F05E3 		movw	r0, #24464
 2650 20fc 0130D9E4 		ldrb	r3, [r9], #1	@ zero_extendqisi2
 2651 2100 010040E3 		movt	r0, 1
 2652 2104 016046E2 		sub	r6, r6, #1
 2653 2108 083483E1 		orr	r3, r3, r8, lsl #8
 2654 210c 0C3084E5 		str	r3, [r4, #12]
 2655 2110 FEFFFFEB 		bl	EApiSleepns(PLT)
 2656              	.L261:
 2657 2114 0C5094E5 		ldr	r5, [r4, #12]
 2658 2118 081094E5 		ldr	r1, [r4, #8]
 2659 211c 0500A0E1 		mov	r0, r5
 2660 2120 FEFFFFEB 		bl	__aeabi_uidivmod(PLT)
 2661 2124 0C108DE5 		str	r1, [sp, #12]
 2662 2128 061081E0 		add	r1, r1, r6
 2663 212c 10108DE5 		str	r1, [sp, #16]
 2664 2130 4C00A0E3 		mov	r0, #76
 2665 2134 08508DE5 		str	r5, [sp, #8]
 2666 2138 143094E5 		ldr	r3, [r4, #20]
 2667 213c EC229FE5 		ldr	r2, .L289+16
 2668 2140 EC129FE5 		ldr	r1, .L289+20
 2669 2144 00308DE5 		str	r3, [sp]
 2670 2148 E8329FE5 		ldr	r3, .L289+24
 2671              	.LPIC439:
 2672 214c 02208FE0 		add	r2, pc, r2
 2673              	.LPIC440:
 2674 2150 01108FE0 		add	r1, pc, r1
 2675              	.LPIC441:
 2676 2154 03308FE0 		add	r3, pc, r3
 2677 2158 04308DE5 		str	r3, [sp, #4]
 2678 215c B230A0E3 		mov	r3, #178
 2679 2160 FEFFFFEB 		bl	siFormattedMessage_M2(PLT)
 2680 2164 000056E3 		cmp	r6, #0
 2681 2168 AA00001A 		bne	.L283
 2682              	.L257:
 2683 216c 000057E3 		cmp	r7, #0
 2684 2170 1600000A 		beq	.L268
 2685 2174 0C3094E5 		ldr	r3, [r4, #12]
 2686 2178 002094E5 		ldr	r2, [r4]
 2687 217c 033087E0 		add	r3, r7, r3
 2688 2180 020053E1 		cmp	r3, r2
 2689 2184 6500008A 		bhi	.L284
 2690 2188 900F05E3 		movw	r0, #24464
 2691 218c 010040E3 		movt	r0, 1
 2692 2190 900700E0 		mul	r0, r0, r7
 2693 2194 FEFFFFEB 		bl	EApiSleepns(PLT)
 2694 2198 0C1094E5 		ldr	r1, [r4, #12]
ARM GAS  /tmp/ccrI0Ik3.s 			page 49


 2695 219c 0020A0E3 		mov	r2, #0
 2696 21a0 180094E5 		ldr	r0, [r4, #24]
 2697 21a4 FEFFFFEB 		bl	fseek(PLT)
 2698 21a8 183094E5 		ldr	r3, [r4, #24]
 2699 21ac 0720A0E1 		mov	r2, r7
 2700 21b0 58009DE5 		ldr	r0, [sp, #88]
 2701 21b4 0110A0E3 		mov	r1, #1
 2702 21b8 FEFFFFEB 		bl	fread(PLT)
 2703 21bc 070050E1 		cmp	r0, r7
 2704 21c0 4500001A 		bne	.L285
 2705 21c4 0C3094E5 		ldr	r3, [r4, #12]
 2706 21c8 073083E0 		add	r3, r3, r7
 2707 21cc 0C3084E5 		str	r3, [r4, #12]
 2708              	.L268:
 2709              	.L263:
 2710 21d0 64C29FE5 		ldr	ip, .L289+28
 2711 21d4 0040A0E3 		mov	r4, #0
 2712 21d8 60029FE5 		ldr	r0, .L289+32
 2713 21dc E830A0E3 		mov	r3, #232
 2714 21e0 5C229FE5 		ldr	r2, .L289+36
 2715 21e4 5C129FE5 		ldr	r1, .L289+40
 2716              	.LPIC464:
 2717 21e8 0CC08FE0 		add	ip, pc, ip
 2718              	.LPIC465:
 2719 21ec 00008FE0 		add	r0, pc, r0
 2720 21f0 00408DE5 		str	r4, [sp]
 2721 21f4 01108DE9 		stmib	sp, {r0, ip}
 2722              	.LPIC462:
 2723 21f8 02208FE0 		add	r2, pc, r2
 2724              	.LPIC463:
 2725 21fc 01108FE0 		add	r1, pc, r1
 2726 2200 4C00A0E3 		mov	r0, #76
 2727 2204 FEFFFFEB 		bl	siFormattedMessage_SC(PLT)
 2728 2208 0400A0E1 		mov	r0, r4
 2729              	.L255:
 2730 220c 38D08DE2 		add	sp, sp, #56
 2731              		@ sp needed
 2732 2210 F087BDE8 		pop	{r4, r5, r6, r7, r8, r9, r10, pc}
 2733              	.L281:
 2734 2214 0C8094E5 		ldr	r8, [r4, #12]
 2735 2218 081094E5 		ldr	r1, [r4, #8]
 2736 221c 0800A0E1 		mov	r0, r8
 2737 2220 FEFFFFEB 		bl	__aeabi_uidivmod(PLT)
 2738 2224 0130A0E1 		mov	r3, r1
 2739 2228 08808DE5 		str	r8, [sp, #8]
 2740 222c 0C308DE5 		str	r3, [sp, #12]
 2741 2230 033086E0 		add	r3, r6, r3
 2742 2234 10308DE5 		str	r3, [sp, #16]
 2743 2238 0A20A0E1 		mov	r2, r10
 2744 223c 08329FE5 		ldr	r3, .L289+44
 2745 2240 0910A0E1 		mov	r1, r9
 2746 2244 4C00A0E3 		mov	r0, #76
 2747              	.LPIC468:
 2748 2248 03308FE0 		add	r3, pc, r3
 2749 224c 04308DE5 		str	r3, [sp, #4]
 2750 2250 143094E5 		ldr	r3, [r4, #20]
 2751 2254 00308DE5 		str	r3, [sp]
ARM GAS  /tmp/ccrI0Ik3.s 			page 50


 2752 2258 B230A0E3 		mov	r3, #178
 2753 225c FEFFFFEB 		bl	siFormattedMessage_M2(PLT)
 2754              	.L271:
 2755 2260 089094E5 		ldr	r9, [r4, #8]
 2756 2264 0C8094E5 		ldr	r8, [r4, #12]
 2757 2268 0910A0E1 		mov	r1, r9
 2758 226c 0800A0E1 		mov	r0, r8
 2759 2270 FEFFFFEB 		bl	__aeabi_uidivmod(PLT)
 2760 2274 061081E0 		add	r1, r1, r6
 2761 2278 010059E1 		cmp	r9, r1
 2762 227c 5900003A 		bcc	.L286
 2763 2280 003094E5 		ldr	r3, [r4]
 2764 2284 068088E0 		add	r8, r8, r6
 2765 2288 030058E1 		cmp	r8, r3
 2766 228c 2E00008A 		bhi	.L287
 2767 2290 900F05E3 		movw	r0, #24464
 2768 2294 010040E3 		movt	r0, 1
 2769 2298 900600E0 		mul	r0, r0, r6
 2770 229c FEFFFFEB 		bl	EApiSleepns(PLT)
 2771 22a0 0C1094E5 		ldr	r1, [r4, #12]
 2772 22a4 0020A0E3 		mov	r2, #0
 2773 22a8 180094E5 		ldr	r0, [r4, #24]
 2774 22ac FEFFFFEB 		bl	fseek(PLT)
 2775 22b0 183094E5 		ldr	r3, [r4, #24]
 2776 22b4 0500A0E1 		mov	r0, r5
 2777 22b8 0620A0E1 		mov	r2, r6
 2778 22bc 0110A0E3 		mov	r1, #1
 2779 22c0 FEFFFFEB 		bl	fwrite(PLT)
 2780 22c4 060050E1 		cmp	r0, r6
 2781 22c8 3A00001A 		bne	.L288
 2782 22cc 0C3094E5 		ldr	r3, [r4, #12]
 2783 22d0 063083E0 		add	r3, r3, r6
 2784 22d4 0C3084E5 		str	r3, [r4, #12]
 2785 22d8 A3FFFFEA 		b	.L257
 2786              	.L285:
 2787 22dc 6CC19FE5 		ldr	ip, .L289+48
 2788 22e0 054CE0E3 		mvn	r4, #1280
 2789 22e4 68019FE5 		ldr	r0, .L289+52
 2790 22e8 E030A0E3 		mov	r3, #224
 2791 22ec 64219FE5 		ldr	r2, .L289+56
 2792 22f0 64119FE5 		ldr	r1, .L289+60
 2793              	.LPIC460:
 2794 22f4 0CC08FE0 		add	ip, pc, ip
 2795              	.LPIC461:
 2796 22f8 00008FE0 		add	r0, pc, r0
 2797              	.LPIC458:
 2798 22fc 02208FE0 		add	r2, pc, r2
 2799              	.LPIC459:
 2800 2300 01108FE0 		add	r1, pc, r1
 2801              	.L280:
 2802 2304 01108DE9 		stmib	sp, {r0, ip}
 2803 2308 4500A0E3 		mov	r0, #69
 2804 230c 00408DE5 		str	r4, [sp]
 2805 2310 FEFFFFEB 		bl	siFormattedMessage_SC(PLT)
 2806 2314 0400A0E1 		mov	r0, r4
 2807 2318 38D08DE2 		add	sp, sp, #56
 2808              		@ sp needed
ARM GAS  /tmp/ccrI0Ik3.s 			page 51


 2809 231c F087BDE8 		pop	{r4, r5, r6, r7, r8, r9, r10, pc}
 2810              	.L284:
 2811 2320 38C19FE5 		ldr	ip, .L289+64
 2812 2324 054CE0E3 		mvn	r4, #1280
 2813 2328 34019FE5 		ldr	r0, .L289+68
 2814 232c D730A0E3 		mov	r3, #215
 2815 2330 30219FE5 		ldr	r2, .L289+72
 2816 2334 30119FE5 		ldr	r1, .L289+76
 2817              	.LPIC456:
 2818 2338 0CC08FE0 		add	ip, pc, ip
 2819              	.LPIC457:
 2820 233c 00008FE0 		add	r0, pc, r0
 2821              	.LPIC454:
 2822 2340 02208FE0 		add	r2, pc, r2
 2823              	.LPIC455:
 2824 2344 01108FE0 		add	r1, pc, r1
 2825 2348 EDFFFFEA 		b	.L280
 2826              	.L287:
 2827 234c 1CC19FE5 		ldr	ip, .L289+80
 2828 2350 FE4A0FE3 		movw	r4, #64254
 2829 2354 18019FE5 		ldr	r0, .L289+84
 2830 2358 FF4F4FE3 		movt	r4, 65535
 2831 235c 14219FE5 		ldr	r2, .L289+88
 2832 2360 C230A0E3 		mov	r3, #194
 2833 2364 10119FE5 		ldr	r1, .L289+92
 2834              	.LPIC448:
 2835 2368 0CC08FE0 		add	ip, pc, ip
 2836              	.LPIC449:
 2837 236c 00008FE0 		add	r0, pc, r0
 2838              	.LPIC446:
 2839 2370 02208FE0 		add	r2, pc, r2
 2840              	.LPIC447:
 2841 2374 01108FE0 		add	r1, pc, r1
 2842 2378 E1FFFFEA 		b	.L280
 2843              	.L282:
 2844 237c FC009FE5 		ldr	r0, .L289+96
 2845 2380 054CE0E3 		mvn	r4, #1280
 2846 2384 F8309FE5 		ldr	r3, .L289+100
 2847 2388 0A20A0E1 		mov	r2, r10
 2848 238c 0910A0E1 		mov	r1, r9
 2849 2390 00408DE5 		str	r4, [sp]
 2850              	.LPIC437:
 2851 2394 00008FE0 		add	r0, pc, r0
 2852              	.LPIC438:
 2853 2398 03308FE0 		add	r3, pc, r3
 2854 239c 08008DE5 		str	r0, [sp, #8]
 2855 23a0 04308DE5 		str	r3, [sp, #4]
 2856 23a4 4500A0E3 		mov	r0, #69
 2857 23a8 9C30A0E3 		mov	r3, #156
 2858 23ac FEFFFFEB 		bl	siFormattedMessage_SC(PLT)
 2859 23b0 0400A0E1 		mov	r0, r4
 2860 23b4 94FFFFEA 		b	.L255
 2861              	.L288:
 2862 23b8 C8C09FE5 		ldr	ip, .L289+104
 2863 23bc FE4A0FE3 		movw	r4, #64254
 2864 23c0 C4009FE5 		ldr	r0, .L289+108
 2865 23c4 FF4F4FE3 		movt	r4, 65535
ARM GAS  /tmp/ccrI0Ik3.s 			page 52


 2866 23c8 C0209FE5 		ldr	r2, .L289+112
 2867 23cc CB30A0E3 		mov	r3, #203
 2868 23d0 BC109FE5 		ldr	r1, .L289+116
 2869              	.LPIC452:
 2870 23d4 0CC08FE0 		add	ip, pc, ip
 2871              	.LPIC453:
 2872 23d8 00008FE0 		add	r0, pc, r0
 2873              	.LPIC450:
 2874 23dc 02208FE0 		add	r2, pc, r2
 2875              	.LPIC451:
 2876 23e0 01108FE0 		add	r1, pc, r1
 2877 23e4 C6FFFFEA 		b	.L280
 2878              	.L286:
 2879 23e8 A8C09FE5 		ldr	ip, .L289+120
 2880 23ec FE4A0FE3 		movw	r4, #64254
 2881 23f0 A4009FE5 		ldr	r0, .L289+124
 2882 23f4 FF4F4FE3 		movt	r4, 65535
 2883 23f8 A0209FE5 		ldr	r2, .L289+128
 2884 23fc BC30A0E3 		mov	r3, #188
 2885 2400 9C109FE5 		ldr	r1, .L289+132
 2886              	.LPIC444:
 2887 2404 0CC08FE0 		add	ip, pc, ip
 2888              	.LPIC445:
 2889 2408 00008FE0 		add	r0, pc, r0
 2890              	.LPIC442:
 2891 240c 02208FE0 		add	r2, pc, r2
 2892              	.LPIC443:
 2893 2410 01108FE0 		add	r1, pc, r1
 2894 2414 BAFFFFEA 		b	.L280
 2895              	.L283:
 2896 2418 0950A0E1 		mov	r5, r9
 2897 241c 8FFFFFEA 		b	.L271
 2898              	.L290:
 2899              		.align	2
 2900              	.L289:
 2901 2420 F0030000 		.word	.LC3-(.LPIC431+8)
 2902 2424 EC030000 		.word	.LC1-(.LPIC432+8)
 2903 2428 E4030000 		.word	.LANCHOR0-(.LPIC433+8)
 2904 242c 98030000 		.word	.LC7-(.LPIC434+8)
 2905 2430 DC020000 		.word	.LC3-(.LPIC439+8)
 2906 2434 DC020000 		.word	.LC1-(.LPIC440+8)
 2907 2438 DC020000 		.word	.LC8-(.LPIC441+8)
 2908 243c 4C020000 		.word	.LC6-(.LPIC464+8)
 2909 2440 4C020000 		.word	.LC5-(.LPIC465+8)
 2910 2444 44020000 		.word	.LC3-(.LPIC462+8)
 2911 2448 44020000 		.word	.LC1-(.LPIC463+8)
 2912 244c FC010000 		.word	.LC8-(.LPIC468+8)
 2913 2450 54010000 		.word	.LC13-(.LPIC460+8)
 2914 2454 54010000 		.word	.LC5-(.LPIC461+8)
 2915 2458 54010000 		.word	.LC3-(.LPIC458+8)
 2916 245c 54010000 		.word	.LC1-(.LPIC459+8)
 2917 2460 20010000 		.word	.LC12-(.LPIC456+8)
 2918 2464 20010000 		.word	.LC5-(.LPIC457+8)
 2919 2468 20010000 		.word	.LC3-(.LPIC454+8)
 2920 246c 20010000 		.word	.LC1-(.LPIC455+8)
 2921 2470 00010000 		.word	.LC10-(.LPIC448+8)
 2922 2474 00010000 		.word	.LC5-(.LPIC449+8)
ARM GAS  /tmp/ccrI0Ik3.s 			page 53


 2923 2478 00010000 		.word	.LC3-(.LPIC446+8)
 2924 247c 00010000 		.word	.LC1-(.LPIC447+8)
 2925 2480 E4000000 		.word	.LC4-(.LPIC437+8)
 2926 2484 E4000000 		.word	.LC5-(.LPIC438+8)
 2927 2488 AC000000 		.word	.LC11-(.LPIC452+8)
 2928 248c AC000000 		.word	.LC5-(.LPIC453+8)
 2929 2490 AC000000 		.word	.LC3-(.LPIC450+8)
 2930 2494 AC000000 		.word	.LC1-(.LPIC451+8)
 2931 2498 8C000000 		.word	.LC9-(.LPIC444+8)
 2932 249c 8C000000 		.word	.LC5-(.LPIC445+8)
 2933 24a0 8C000000 		.word	.LC3-(.LPIC442+8)
 2934 24a4 8C000000 		.word	.LC1-(.LPIC443+8)
 2936              		.align	2
 2937              		.global	EmulateCmdDevice
 2938              		.hidden	EmulateCmdDevice
 2939              		.syntax unified
 2940              		.arm
 2941              		.fpu vfpv3
 2943              	EmulateCmdDevice:
 2944              		@ args = 8, pretend = 0, frame = 0
 2945              		@ frame_needed = 0, uses_anonymous_args = 0
 2946 24a8 F0432DE9 		push	{r4, r5, r6, r7, r8, r9, lr}
 2947 24ac 34D04DE2 		sub	sp, sp, #52
 2948 24b0 10008DE5 		str	r0, [sp, #16]
 2949 24b4 0240A0E1 		mov	r4, r2
 2950 24b8 0150A0E1 		mov	r5, r1
 2951 24bc 0360A0E1 		mov	r6, r3
 2952 24c0 001091E5 		ldr	r1, [r1]
 2953 24c4 60229FE5 		ldr	r2, .L328
 2954 24c8 040095E5 		ldr	r0, [r5, #4]
 2955 24cc 54709DE5 		ldr	r7, [sp, #84]
 2956              	.LPIC471:
 2957 24d0 02208FE0 		add	r2, pc, r2
 2958 24d4 54929FE5 		ldr	r9, .L328+4
 2959 24d8 0C008DE5 		str	r0, [sp, #12]
 2960 24dc 012182E0 		add	r2, r2, r1, lsl #2
 2961 24e0 0C1095E5 		ldr	r1, [r5, #12]
 2962 24e4 14308DE5 		str	r3, [sp, #20]
 2963              	.LPIC470:
 2964 24e8 09908FE0 		add	r9, pc, r9
 2965 24ec 18708DE5 		str	r7, [sp, #24]
 2966 24f0 0300D4E5 		ldrb	r0, [r4, #3]	@ zero_extendqisi2
 2967 24f4 38329FE5 		ldr	r3, .L328+8
 2968 24f8 50809DE5 		ldr	r8, [sp, #80]
 2969 24fc 28008DE5 		str	r0, [sp, #40]
 2970 2500 0200D4E5 		ldrb	r0, [r4, #2]	@ zero_extendqisi2
 2971              	.LPIC472:
 2972 2504 03308FE0 		add	r3, pc, r3
 2973 2508 24008DE5 		str	r0, [sp, #36]
 2974 250c 0100D4E5 		ldrb	r0, [r4, #1]	@ zero_extendqisi2
 2975 2510 20008DE5 		str	r0, [sp, #32]
 2976 2514 0000D4E5 		ldrb	r0, [r4]	@ zero_extendqisi2
 2977 2518 1C008DE5 		str	r0, [sp, #28]
 2978 251c 4C00A0E3 		mov	r0, #76
 2979 2520 142092E5 		ldr	r2, [r2, #20]
 2980 2524 0A008DE8 		stm	sp, {r1, r3}
 2981 2528 023100E3 		movw	r3, #258
ARM GAS  /tmp/ccrI0Ik3.s 			page 54


 2982 252c 0910A0E1 		mov	r1, r9
 2983 2530 08208DE5 		str	r2, [sp, #8]
 2984 2534 FC219FE5 		ldr	r2, .L328+12
 2985              	.LPIC469:
 2986 2538 02208FE0 		add	r2, pc, r2
 2987 253c FEFFFFEB 		bl	siFormattedMessage_M2(PLT)
 2988 2540 000056E3 		cmp	r6, #0
 2989 2544 1200000A 		beq	.L301
 2990 2548 003095E5 		ldr	r3, [r5]
 2991 254c 010053E3 		cmp	r3, #1
 2992 2550 2F00000A 		beq	.L295
 2993 2554 020053E3 		cmp	r3, #2
 2994 2558 2000000A 		beq	.L296
 2995              	.L297:
 2996 255c 900F05E3 		movw	r0, #24464
 2997 2560 010040E3 		movt	r0, 1
 2998 2564 900600E0 		mul	r0, r0, r6
 2999 2568 FEFFFFEB 		bl	EApiSleepns(PLT)
 3000 256c 104095E5 		ldr	r4, [r5, #16]
 3001 2570 003094E5 		ldr	r3, [r4]
 3002 2574 010073E3 		cmn	r3, #1
 3003 2578 0500000A 		beq	.L301
 3004              	.L323:
 3005 257c 042095E5 		ldr	r2, [r5, #4]
 3006              	.L304:
 3007 2580 030052E1 		cmp	r2, r3
 3008 2584 4B00000A 		beq	.L325
 3009 2588 0C30B4E5 		ldr	r3, [r4, #12]!
 3010 258c 010073E3 		cmn	r3, #1
 3011 2590 FAFFFF1A 		bne	.L304
 3012              	.L301:
 3013 2594 000057E3 		cmp	r7, #0
 3014 2598 2700001A 		bne	.L326
 3015              	.L294:
 3016 259c 98C19FE5 		ldr	ip, .L328+16
 3017 25a0 0040A0E3 		mov	r4, #0
 3018 25a4 94019FE5 		ldr	r0, .L328+20
 3019 25a8 4A3100E3 		movw	r3, #330
 3020 25ac 90219FE5 		ldr	r2, .L328+24
 3021 25b0 90119FE5 		ldr	r1, .L328+28
 3022              	.LPIC479:
 3023 25b4 0CC08FE0 		add	ip, pc, ip
 3024              	.LPIC480:
 3025 25b8 00008FE0 		add	r0, pc, r0
 3026 25bc 00408DE5 		str	r4, [sp]
 3027 25c0 01108DE9 		stmib	sp, {r0, ip}
 3028              	.LPIC477:
 3029 25c4 02208FE0 		add	r2, pc, r2
 3030              	.LPIC478:
 3031 25c8 01108FE0 		add	r1, pc, r1
 3032 25cc 4C00A0E3 		mov	r0, #76
 3033 25d0 FEFFFFEB 		bl	siFormattedMessage_SC(PLT)
 3034 25d4 0400A0E1 		mov	r0, r4
 3035              	.L300:
 3036              	.L291:
 3037 25d8 34D08DE2 		add	sp, sp, #52
 3038              		@ sp needed
ARM GAS  /tmp/ccrI0Ik3.s 			page 55


 3039 25dc F083BDE8 		pop	{r4, r5, r6, r7, r8, r9, pc}
 3040              	.L296:
 3041 25e0 010056E3 		cmp	r6, #1
 3042 25e4 4000000A 		beq	.L327
 3043 25e8 0030D4E5 		ldrb	r3, [r4]	@ zero_extendqisi2
 3044 25ec 200F0BE3 		movw	r0, #48928
 3045 25f0 020040E3 		movt	r0, 2
 3046 25f4 026046E2 		sub	r6, r6, #2
 3047 25f8 0334A0E1 		lsl	r3, r3, #8
 3048 25fc 043085E5 		str	r3, [r5, #4]
 3049 2600 0120D4E5 		ldrb	r2, [r4, #1]	@ zero_extendqisi2
 3050 2604 033082E1 		orr	r3, r2, r3
 3051 2608 043085E5 		str	r3, [r5, #4]
 3052 260c FEFFFFEB 		bl	EApiSleepns(PLT)
 3053 2610 050000EA 		b	.L298
 3054              	.L295:
 3055 2614 0030D4E5 		ldrb	r3, [r4]	@ zero_extendqisi2
 3056 2618 900F05E3 		movw	r0, #24464
 3057 261c 010040E3 		movt	r0, 1
 3058 2620 016046E2 		sub	r6, r6, #1
 3059 2624 043085E5 		str	r3, [r5, #4]
 3060 2628 FEFFFFEB 		bl	EApiSleepns(PLT)
 3061              	.L298:
 3062 262c 000056E3 		cmp	r6, #0
 3063 2630 C9FFFF1A 		bne	.L297
 3064 2634 000057E3 		cmp	r7, #0
 3065 2638 D7FFFF0A 		beq	.L294
 3066              	.L326:
 3067 263c 900F05E3 		movw	r0, #24464
 3068 2640 010040E3 		movt	r0, 1
 3069 2644 900700E0 		mul	r0, r0, r7
 3070 2648 FEFFFFEB 		bl	EApiSleepns(PLT)
 3071 264c 104095E5 		ldr	r4, [r5, #16]
 3072 2650 003094E5 		ldr	r3, [r4]
 3073 2654 010073E3 		cmn	r3, #1
 3074 2658 CFFFFF0A 		beq	.L294
 3075 265c 3C4084E2 		add	r4, r4, #60
 3076 2660 040000EA 		b	.L307
 3077              	.L305:
 3078 2664 00F0D4F5 		pld	[r4]
 3079 2668 0C4084E2 		add	r4, r4, #12
 3080 266c 3C3014E5 		ldr	r3, [r4, #-60]
 3081 2670 010073E3 		cmn	r3, #1
 3082 2674 C8FFFF0A 		beq	.L294
 3083              	.L307:
 3084 2678 042095E5 		ldr	r2, [r5, #4]
 3085 267c 030052E1 		cmp	r2, r3
 3086 2680 F7FFFF1A 		bne	.L305
 3087 2684 386014E5 		ldr	r6, [r4, #-56]
 3088 2688 0720A0E1 		mov	r2, r7
 3089 268c 341014E5 		ldr	r1, [r4, #-52]
 3090 2690 060057E1 		cmp	r7, r6
 3091 2694 1100009A 		bls	.L306
 3092 2698 0620A0E1 		mov	r2, r6
 3093 269c 0800A0E1 		mov	r0, r8
 3094 26a0 FEFFFFEB 		bl	memcpy(PLT)
 3095 26a4 FF20A0E3 		mov	r2, #255
ARM GAS  /tmp/ccrI0Ik3.s 			page 56


 3096 26a8 061047E0 		sub	r1, r7, r6
 3097 26ac 060088E0 		add	r0, r8, r6
 3098 26b0 FEFFFFEB 		bl	memset(PLT)
 3099 26b4 EAFFFFEA 		b	.L305
 3100              	.L325:
 3101 26b8 042094E5 		ldr	r2, [r4, #4]
 3102 26bc 0810A0E1 		mov	r1, r8
 3103 26c0 080094E5 		ldr	r0, [r4, #8]
 3104 26c4 020057E1 		cmp	r7, r2
 3105 26c8 0720A031 		movcc	r2, r7
 3106 26cc FEFFFFEB 		bl	memcpy(PLT)
 3107 26d0 0C30B4E5 		ldr	r3, [r4, #12]!
 3108 26d4 010073E3 		cmn	r3, #1
 3109 26d8 A7FFFF1A 		bne	.L323
 3110 26dc ACFFFFEA 		b	.L301
 3111              	.L306:
 3112 26e0 0800A0E1 		mov	r0, r8
 3113 26e4 FEFFFFEB 		bl	memcpy(PLT)
 3114 26e8 DDFFFFEA 		b	.L305
 3115              	.L327:
 3116 26ec 58209FE5 		ldr	r2, .L328+32
 3117 26f0 054CE0E3 		mvn	r4, #1280
 3118 26f4 54009FE5 		ldr	r0, .L328+36
 3119 26f8 473FA0E3 		mov	r3, #284
 3120 26fc 0910A0E1 		mov	r1, r9
 3121 2700 00408DE5 		str	r4, [sp]
 3122              	.LPIC476:
 3123 2704 02208FE0 		add	r2, pc, r2
 3124 2708 04208DE5 		str	r2, [sp, #4]
 3125              	.LPIC475:
 3126 270c 00008FE0 		add	r0, pc, r0
 3127 2710 3C209FE5 		ldr	r2, .L328+40
 3128 2714 08008DE5 		str	r0, [sp, #8]
 3129 2718 4500A0E3 		mov	r0, #69
 3130              	.LPIC473:
 3131 271c 02208FE0 		add	r2, pc, r2
 3132 2720 FEFFFFEB 		bl	siFormattedMessage_SC(PLT)
 3133 2724 0400A0E1 		mov	r0, r4
 3134 2728 AAFFFFEA 		b	.L291
 3135              	.L329:
 3136              		.align	2
 3137              	.L328:
 3138 272c 54020000 		.word	.LANCHOR0-(.LPIC471+8)
 3139 2730 40020000 		.word	.LC1-(.LPIC470+8)
 3140 2734 28020000 		.word	.LC2-(.LPIC472+8)
 3141 2738 F8010000 		.word	.LC0-(.LPIC469+8)
 3142 273c 80010000 		.word	.LC6-(.LPIC479+8)
 3143 2740 80010000 		.word	.LC5-(.LPIC480+8)
 3144 2744 78010000 		.word	.LC3-(.LPIC477+8)
 3145 2748 78010000 		.word	.LC1-(.LPIC478+8)
 3146 274c 40000000 		.word	.LC5-(.LPIC476+8)
 3147 2750 3C000000 		.word	.LC4-(.LPIC475+8)
 3148 2754 30000000 		.word	.LC3-(.LPIC473+8)
 3150              		.section	.rodata.str1.4
 3151 01c6 0000     		.align	2
 3152              	.LC14:
 3153 01c8 72622B00 		.ascii	"rb+\000"
ARM GAS  /tmp/ccrI0Ik3.s 			page 57


 3154              		.align	2
 3155              	.LC15:
 3156 01cc 77622B00 		.ascii	"wb+\000"
 3157              		.text
 3158              		.align	2
 3159              		.global	OpenI2CEepromFiles
 3160              		.hidden	OpenI2CEepromFiles
 3161              		.syntax unified
 3162              		.arm
 3163              		.fpu vfpv3
 3165              	OpenI2CEepromFiles:
 3166              		@ args = 0, pretend = 0, frame = 0
 3167              		@ frame_needed = 0, uses_anonymous_args = 0
 3168 2758 F0472DE9 		push	{r4, r5, r6, r7, r8, r9, r10, lr}
 3169 275c C4709FE5 		ldr	r7, .L339
 3170 2760 C4809FE5 		ldr	r8, .L339+4
 3171 2764 C4909FE5 		ldr	r9, .L339+8
 3172              	.LPIC481:
 3173 2768 07708FE0 		add	r7, pc, r7
 3174 276c C84087E2 		add	r4, r7, #200
 3175 2770 E07087E2 		add	r7, r7, #224
 3176              	.LPIC482:
 3177 2774 08808FE0 		add	r8, pc, r8
 3178              	.LPIC483:
 3179 2778 09908FE0 		add	r9, pc, r9
 3180 277c 010000EA 		b	.L334
 3181              	.L332:
 3182 2780 070054E1 		cmp	r4, r7
 3183 2784 1C00000A 		beq	.L337
 3184              	.L334:
 3185 2788 005094E5 		ldr	r5, [r4]
 3186 278c 0810A0E1 		mov	r1, r8
 3187 2790 140095E5 		ldr	r0, [r5, #20]
 3188 2794 FEFFFFEB 		bl	fopen(PLT)
 3189 2798 046094E4 		ldr	r6, [r4], #4
 3190 279c 180085E5 		str	r0, [r5, #24]
 3191 27a0 180096E5 		ldr	r0, [r6, #24]
 3192 27a4 000050E3 		cmp	r0, #0
 3193 27a8 1500000A 		beq	.L338
 3194              	.L331:
 3195 27ac 0220A0E3 		mov	r2, #2
 3196 27b0 0010A0E3 		mov	r1, #0
 3197 27b4 FEFFFFEB 		bl	fseek(PLT)
 3198 27b8 043014E5 		ldr	r3, [r4, #-4]
 3199 27bc 180093E5 		ldr	r0, [r3, #24]
 3200 27c0 FEFFFFEB 		bl	ftell(PLT)
 3201 27c4 043014E5 		ldr	r3, [r4, #-4]
 3202 27c8 002093E5 		ldr	r2, [r3]
 3203 27cc 020050E1 		cmp	r0, r2
 3204 27d0 EAFFFFAA 		bge	.L332
 3205 27d4 180093E5 		ldr	r0, [r3, #24]
 3206 27d8 FEFFFFEB 		bl	rewind(PLT)
 3207 27dc 041014E5 		ldr	r1, [r4, #-4]
 3208 27e0 183091E5 		ldr	r3, [r1, #24]
 3209 27e4 002091E5 		ldr	r2, [r1]
 3210 27e8 100091E5 		ldr	r0, [r1, #16]
 3211 27ec 0110A0E3 		mov	r1, #1
ARM GAS  /tmp/ccrI0Ik3.s 			page 58


 3212 27f0 FEFFFFEB 		bl	fwrite(PLT)
 3213 27f4 070054E1 		cmp	r4, r7
 3214 27f8 E2FFFF1A 		bne	.L334
 3215              	.L337:
 3216 27fc 0000A0E3 		mov	r0, #0
 3217 2800 F087BDE8 		pop	{r4, r5, r6, r7, r8, r9, r10, pc}
 3218              	.L338:
 3219 2804 140096E5 		ldr	r0, [r6, #20]
 3220 2808 0910A0E1 		mov	r1, r9
 3221 280c FEFFFFEB 		bl	fopen(PLT)
 3222 2810 043014E5 		ldr	r3, [r4, #-4]
 3223 2814 180086E5 		str	r0, [r6, #24]
 3224 2818 180093E5 		ldr	r0, [r3, #24]
 3225 281c 000050E3 		cmp	r0, #0
 3226 2820 D6FFFF0A 		beq	.L332
 3227 2824 E0FFFFEA 		b	.L331
 3228              	.L340:
 3229              		.align	2
 3230              	.L339:
 3231 2828 B8000000 		.word	.LANCHOR0-(.LPIC481+8)
 3232 282c B0000000 		.word	.LC14-(.LPIC482+8)
 3233 2830 B0000000 		.word	.LC15-(.LPIC483+8)
 3235              		.align	2
 3236              		.global	CloseI2CEepromFiles
 3237              		.hidden	CloseI2CEepromFiles
 3238              		.syntax unified
 3239              		.arm
 3240              		.fpu vfpv3
 3242              	CloseI2CEepromFiles:
 3243              		@ args = 0, pretend = 0, frame = 0
 3244              		@ frame_needed = 0, uses_anonymous_args = 0
 3245 2834 70402DE9 		push	{r4, r5, r6, lr}
 3246 2838 0060A0E3 		mov	r6, #0
 3247 283c 34509FE5 		ldr	r5, .L349
 3248              	.LPIC484:
 3249 2840 05508FE0 		add	r5, pc, r5
 3250 2844 C84085E2 		add	r4, r5, #200
 3251 2848 E05085E2 		add	r5, r5, #224
 3252              	.L343:
 3253 284c 043094E4 		ldr	r3, [r4], #4
 3254 2850 180093E5 		ldr	r0, [r3, #24]
 3255 2854 000050E3 		cmp	r0, #0
 3256 2858 0200000A 		beq	.L342
 3257 285c FEFFFFEB 		bl	fclose(PLT)
 3258 2860 043014E5 		ldr	r3, [r4, #-4]
 3259 2864 186083E5 		str	r6, [r3, #24]
 3260              	.L342:
 3261 2868 050054E1 		cmp	r4, r5
 3262 286c F6FFFF1A 		bne	.L343
 3263 2870 0000A0E3 		mov	r0, #0
 3264 2874 7080BDE8 		pop	{r4, r5, r6, pc}
 3265              	.L350:
 3266              		.align	2
 3267              	.L349:
 3268 2878 30000000 		.word	.LANCHOR0-(.LPIC484+8)
 3270              		.section	.rodata.str1.4
 3271              		.align	2
ARM GAS  /tmp/ccrI0Ik3.s 			page 59


 3272              	.LC16:
 3273 01d0 45417069 		.ascii	"EApiI2CGetBusCapEmul\000"
 3273      49324347 
 3273      65744275 
 3273      73436170 
 3273      456D756C 
 3274 01e5 000000   		.align	2
 3275              	.LC17:
 3276 01e8 556E7265 		.ascii	"Unrecognised I2C ID\000"
 3276      636F676E 
 3276      69736564 
 3276      20493243 
 3276      20494400 
 3277              		.text
 3278              		.align	2
 3279              		.global	EApiI2CGetBusCapEmul
 3280              		.syntax unified
 3281              		.arm
 3282              		.fpu vfpv3
 3284              	EApiI2CGetBusCapEmul:
 3285              		@ args = 0, pretend = 0, frame = 0
 3286              		@ frame_needed = 0, uses_anonymous_args = 0
 3287 287c 000050E3 		cmp	r0, #0
 3288 2880 10402DE9 		push	{r4, lr}
 3289 2884 10D04DE2 		sub	sp, sp, #16
 3290 2888 1400000A 		beq	.L354
 3291 288c 010050E3 		cmp	r0, #1
 3292 2890 2600000A 		beq	.L355
 3293 2894 020050E3 		cmp	r0, #2
 3294 2898 2600000A 		beq	.L356
 3295 289c 9CC09FE5 		ldr	ip, .L358
 3296 28a0 034CE0E3 		mvn	r4, #768
 3297 28a4 98009FE5 		ldr	r0, .L358+4
 3298 28a8 973200E3 		movw	r3, #663
 3299 28ac 94209FE5 		ldr	r2, .L358+8
 3300 28b0 94109FE5 		ldr	r1, .L358+12
 3301              	.LPIC487:
 3302 28b4 0CC08FE0 		add	ip, pc, ip
 3303              	.LPIC488:
 3304 28b8 00008FE0 		add	r0, pc, r0
 3305 28bc 00408DE5 		str	r4, [sp]
 3306 28c0 01108DE9 		stmib	sp, {r0, ip}
 3307              	.LPIC485:
 3308 28c4 02208FE0 		add	r2, pc, r2
 3309              	.LPIC486:
 3310 28c8 01108FE0 		add	r1, pc, r1
 3311 28cc 4500A0E3 		mov	r0, #69
 3312 28d0 FEFFFFEB 		bl	siFormattedMessage_SC(PLT)
 3313 28d4 0400A0E1 		mov	r0, r4
 3314 28d8 10D08DE2 		add	sp, sp, #16
 3315              		@ sp needed
 3316 28dc 1080BDE8 		pop	{r4, pc}
 3317              	.L354:
 3318 28e0 0128A0E3 		mov	r2, #65536
 3319              	.L352:
 3320              	.L353:
 3321 28e4 64309FE5 		ldr	r3, .L358+16
ARM GAS  /tmp/ccrI0Ik3.s 			page 60


 3322 28e8 0040A0E3 		mov	r4, #0
 3323 28ec 60009FE5 		ldr	r0, .L358+20
 3324 28f0 002081E5 		str	r2, [r1]
 3325 28f4 5C209FE5 		ldr	r2, .L358+24
 3326              	.LPIC491:
 3327 28f8 03308FE0 		add	r3, pc, r3
 3328 28fc 58109FE5 		ldr	r1, .L358+28
 3329              	.LPIC492:
 3330 2900 00008FE0 		add	r0, pc, r0
 3331 2904 08308DE5 		str	r3, [sp, #8]
 3332 2908 293EA0E3 		mov	r3, #656
 3333 290c 04008DE5 		str	r0, [sp, #4]
 3334              	.LPIC489:
 3335 2910 02208FE0 		add	r2, pc, r2
 3336              	.LPIC490:
 3337 2914 01108FE0 		add	r1, pc, r1
 3338 2918 00408DE5 		str	r4, [sp]
 3339 291c 4C00A0E3 		mov	r0, #76
 3340 2920 FEFFFFEB 		bl	siFormattedMessage_SC(PLT)
 3341 2924 0400A0E1 		mov	r0, r4
 3342 2928 10D08DE2 		add	sp, sp, #16
 3343              		@ sp needed
 3344 292c 1080BDE8 		pop	{r4, pc}
 3345              	.L355:
 3346 2930 012CA0E3 		mov	r2, #256
 3347 2934 EAFFFFEA 		b	.L352
 3348              	.L356:
 3349 2938 2020A0E3 		mov	r2, #32
 3350 293c E8FFFFEA 		b	.L352
 3351              	.L359:
 3352              		.align	2
 3353              	.L358:
 3354 2940 84000000 		.word	.LC17-(.LPIC487+8)
 3355 2944 84000000 		.word	.LC5-(.LPIC488+8)
 3356 2948 7C000000 		.word	.LC16-(.LPIC485+8)
 3357 294c 7C000000 		.word	.LC1-(.LPIC486+8)
 3358 2950 50000000 		.word	.LC6-(.LPIC491+8)
 3359 2954 4C000000 		.word	.LC5-(.LPIC492+8)
 3360 2958 40000000 		.word	.LC16-(.LPIC489+8)
 3361 295c 40000000 		.word	.LC1-(.LPIC490+8)
 3363              		.section	.rodata.str1.4
 3364              		.align	2
 3365              	.LC18:
 3366 01fc 45417069 		.ascii	"EApiI2CWriteReadEmul\000"
 3366      49324357 
 3366      72697465 
 3366      52656164 
 3366      456D756C 
 3367 0211 000000   		.align	2
 3368              	.LC19:
 3369 0214 57726974 		.ascii	"WriteBCnt>(pMaxBlkLen+1)\000"
 3369      6542436E 
 3369      743E2870 
 3369      4D617842 
 3369      6C6B4C65 
 3370 022d 000000   		.align	2
 3371              	.LC20:
ARM GAS  /tmp/ccrI0Ik3.s 			page 61


 3372 0230 52656164 		.ascii	"ReadBCnt>(pMaxBlkLen+1)\000"
 3372      42436E74 
 3372      3E28704D 
 3372      6178426C 
 3372      6B4C656E 
 3373              		.align	2
 3374              	.LC21:
 3375 0248 41444452 		.ascii	"ADDR=%02X\012\000"
 3375      3D253032 
 3375      580A00
 3376 0253 00       		.align	2
 3377              	.LC22:
 3378 0254 496E666F 		.ascii	"Info\000"
 3378      00
 3379 0259 000000   		.align	2
 3380              	.LC23:
 3381 025c 44657669 		.ascii	"Device Not Present\000"
 3381      6365204E 
 3381      6F742050 
 3381      72657365 
 3381      6E7400
 3382              		.text
 3383              		.align	2
 3384              		.global	EApiI2CWriteReadEmul
 3385              		.syntax unified
 3386              		.arm
 3387              		.fpu vfpv3
 3389              	EApiI2CWriteReadEmul:
 3390              		@ args = 8, pretend = 0, frame = 0
 3391              		@ frame_needed = 0, uses_anonymous_args = 0
 3392 2960 F0432DE9 		push	{r4, r5, r6, r7, r8, r9, lr}
 3393 2964 004050E2 		subs	r4, r0, #0
 3394 2968 14D04DE2 		sub	sp, sp, #20
 3395 296c 0260A0E1 		mov	r6, r2
 3396 2970 0350A0E1 		mov	r5, r3
 3397 2974 30709DE5 		ldr	r7, [sp, #48]
 3398 2978 34809DE5 		ldr	r8, [sp, #52]
 3399 297c 1400000A 		beq	.L372
 3400 2980 010054E3 		cmp	r4, #1
 3401 2984 5400000A 		beq	.L373
 3402 2988 020054E3 		cmp	r4, #2
 3403 298c 5400000A 		beq	.L374
 3404 2990 B4C19FE5 		ldr	ip, .L389
 3405 2994 034CE0E3 		mvn	r4, #768
 3406 2998 B0019FE5 		ldr	r0, .L389+4
 3407 299c F53200E3 		movw	r3, #757
 3408 29a0 AC219FE5 		ldr	r2, .L389+8
 3409 29a4 AC119FE5 		ldr	r1, .L389+12
 3410              	.LPIC495:
 3411 29a8 0CC08FE0 		add	ip, pc, ip
 3412              	.LPIC496:
 3413 29ac 00008FE0 		add	r0, pc, r0
 3414              	.LPIC493:
 3415 29b0 02208FE0 		add	r2, pc, r2
 3416              	.LPIC494:
 3417 29b4 01108FE0 		add	r1, pc, r1
 3418              	.L386:
ARM GAS  /tmp/ccrI0Ik3.s 			page 62


 3419 29b8 01108DE9 		stmib	sp, {r0, ip}
 3420 29bc 4500A0E3 		mov	r0, #69
 3421 29c0 00408DE5 		str	r4, [sp]
 3422 29c4 FEFFFFEB 		bl	siFormattedMessage_SC(PLT)
 3423 29c8 0400A0E1 		mov	r0, r4
 3424 29cc 14D08DE2 		add	sp, sp, #20
 3425              		@ sp needed
 3426 29d0 F083BDE8 		pop	{r4, r5, r6, r7, r8, r9, pc}
 3427              	.L372:
 3428 29d4 0130A0E3 		mov	r3, #1
 3429 29d8 013040E3 		movt	r3, 1
 3430              	.L361:
 3431 29dc 030055E1 		cmp	r5, r3
 3432 29e0 4100008A 		bhi	.L387
 3433 29e4 030058E1 		cmp	r8, r3
 3434 29e8 4B00008A 		bhi	.L388
 3435 29ec 0134A0E1 		lsl	r3, r1, #8
 3436 29f0 4C00A0E3 		mov	r0, #76
 3437 29f4 844084E0 		add	r4, r4, r4, lsl #1
 3438 29f8 3E2B03E2 		and	r2, r3, #63488
 3439 29fc 0F0A52E3 		cmp	r2, #61440
 3440 2a00 54219FE5 		ldr	r2, .L389+16
 3441 2a04 0110D604 		ldrbeq	r1, [r6], #1	@ zero_extendqisi2
 3442 2a08 0190A011 		movne	r9, r1
 3443 2a0c 01504502 		subeq	r5, r5, #1
 3444              	.LPIC505:
 3445 2a10 02208FE0 		add	r2, pc, r2
 3446 2a14 03908101 		orreq	r9, r1, r3
 3447 2a18 40319FE5 		ldr	r3, .L389+20
 3448 2a1c 40119FE5 		ldr	r1, .L389+24
 3449 2a20 08908DE5 		str	r9, [sp, #8]
 3450              	.LPIC507:
 3451 2a24 03308FE0 		add	r3, pc, r3
 3452 2a28 04308DE5 		str	r3, [sp, #4]
 3453              	.LPIC506:
 3454 2a2c 01108FE0 		add	r1, pc, r1
 3455 2a30 30319FE5 		ldr	r3, .L389+28
 3456              	.LPIC508:
 3457 2a34 03308FE0 		add	r3, pc, r3
 3458 2a38 00308DE5 		str	r3, [sp]
 3459 2a3c D73200E3 		movw	r3, #727
 3460 2a40 FEFFFFEB 		bl	siFormattedMessage_M2(PLT)
 3461 2a44 20319FE5 		ldr	r3, .L389+32
 3462              	.LPIC509:
 3463 2a48 03308FE0 		add	r3, pc, r3
 3464 2a4c 043183E0 		add	r3, r3, r4, lsl #2
 3465 2a50 043093E5 		ldr	r3, [r3, #4]
 3466 2a54 000093E5 		ldr	r0, [r3]
 3467 2a58 010070E3 		cmn	r0, #1
 3468 2a5c 0300001A 		bne	.L371
 3469 2a60 120000EA 		b	.L367
 3470              	.L368:
 3471 2a64 0C00B3E5 		ldr	r0, [r3, #12]!
 3472 2a68 010070E3 		cmn	r0, #1
 3473 2a6c 0F00000A 		beq	.L367
 3474              	.L371:
 3475 2a70 090050E1 		cmp	r0, r9
ARM GAS  /tmp/ccrI0Ik3.s 			page 63


 3476 2a74 FAFFFF1A 		bne	.L368
 3477 2a78 04E093E5 		ldr	lr, [r3, #4]
 3478 2a7c 000055E3 		cmp	r5, #0
 3479 2a80 01504512 		subne	r5, r5, #1
 3480 2a84 000058E3 		cmp	r8, #0
 3481 2a88 01804812 		subne	r8, r8, #1
 3482 2a8c 080093E5 		ldr	r0, [r3, #8]
 3483 2a90 0520A0E1 		mov	r2, r5
 3484 2a94 0730A0E1 		mov	r3, r7
 3485 2a98 0610A0E1 		mov	r1, r6
 3486 2a9c 0EC0A0E1 		mov	ip, lr
 3487 2aa0 30808DE5 		str	r8, [sp, #48]
 3488 2aa4 14D08DE2 		add	sp, sp, #20
 3489              		@ sp needed
 3490 2aa8 F043BDE8 		pop	{r4, r5, r6, r7, r8, r9, lr}
 3491 2aac 1CFF2FE1 		bx	ip
 3492              	.L367:
 3493 2ab0 B8C09FE5 		ldr	ip, .L389+36
 3494 2ab4 014BE0E3 		mvn	r4, #1024
 3495 2ab8 B4009FE5 		ldr	r0, .L389+40
 3496 2abc ED3200E3 		movw	r3, #749
 3497 2ac0 B0209FE5 		ldr	r2, .L389+44
 3498 2ac4 B0109FE5 		ldr	r1, .L389+48
 3499              	.LPIC512:
 3500 2ac8 0CC08FE0 		add	ip, pc, ip
 3501              	.LPIC513:
 3502 2acc 00008FE0 		add	r0, pc, r0
 3503              	.LPIC510:
 3504 2ad0 02208FE0 		add	r2, pc, r2
 3505              	.LPIC511:
 3506 2ad4 01108FE0 		add	r1, pc, r1
 3507 2ad8 B6FFFFEA 		b	.L386
 3508              	.L373:
 3509 2adc 013100E3 		movw	r3, #257
 3510 2ae0 BDFFFFEA 		b	.L361
 3511              	.L374:
 3512 2ae4 2130A0E3 		mov	r3, #33
 3513 2ae8 BBFFFFEA 		b	.L361
 3514              	.L387:
 3515 2aec 8CC09FE5 		ldr	ip, .L389+52
 3516 2af0 FD4E0FE3 		movw	r4, #65277
 3517 2af4 88009FE5 		ldr	r0, .L389+56
 3518 2af8 FF4F4FE3 		movt	r4, 65535
 3519 2afc 84209FE5 		ldr	r2, .L389+60
 3520 2b00 BD3200E3 		movw	r3, #701
 3521 2b04 80109FE5 		ldr	r1, .L389+64
 3522              	.LPIC499:
 3523 2b08 0CC08FE0 		add	ip, pc, ip
 3524              	.LPIC500:
 3525 2b0c 00008FE0 		add	r0, pc, r0
 3526              	.LPIC497:
 3527 2b10 02208FE0 		add	r2, pc, r2
 3528              	.LPIC498:
 3529 2b14 01108FE0 		add	r1, pc, r1
 3530 2b18 A6FFFFEA 		b	.L386
 3531              	.L388:
 3532 2b1c 6CC09FE5 		ldr	ip, .L389+68
ARM GAS  /tmp/ccrI0Ik3.s 			page 64


 3533 2b20 FD4E0FE3 		movw	r4, #65277
 3534 2b24 68009FE5 		ldr	r0, .L389+72
 3535 2b28 FF4F4FE3 		movt	r4, 65535
 3536 2b2c 64209FE5 		ldr	r2, .L389+76
 3537 2b30 C33200E3 		movw	r3, #707
 3538 2b34 60109FE5 		ldr	r1, .L389+80
 3539              	.LPIC503:
 3540 2b38 0CC08FE0 		add	ip, pc, ip
 3541              	.LPIC504:
 3542 2b3c 00008FE0 		add	r0, pc, r0
 3543              	.LPIC501:
 3544 2b40 02208FE0 		add	r2, pc, r2
 3545              	.LPIC502:
 3546 2b44 01108FE0 		add	r1, pc, r1
 3547 2b48 9AFFFFEA 		b	.L386
 3548              	.L390:
 3549              		.align	2
 3550              	.L389:
 3551 2b4c 9C010000 		.word	.LC17-(.LPIC495+8)
 3552 2b50 9C010000 		.word	.LC5-(.LPIC496+8)
 3553 2b54 9C010000 		.word	.LC18-(.LPIC493+8)
 3554 2b58 9C010000 		.word	.LC1-(.LPIC494+8)
 3555 2b5c 44010000 		.word	.LC18-(.LPIC505+8)
 3556 2b60 34010000 		.word	.LC21-(.LPIC507+8)
 3557 2b64 30010000 		.word	.LC1-(.LPIC506+8)
 3558 2b68 2C010000 		.word	.LC22-(.LPIC508+8)
 3559 2b6c 1C010000 		.word	.LANCHOR1-(.LPIC509+8)
 3560 2b70 A0000000 		.word	.LC23-(.LPIC512+8)
 3561 2b74 A0000000 		.word	.LC5-(.LPIC513+8)
 3562 2b78 A0000000 		.word	.LC18-(.LPIC510+8)
 3563 2b7c A0000000 		.word	.LC1-(.LPIC511+8)
 3564 2b80 70000000 		.word	.LC19-(.LPIC499+8)
 3565 2b84 70000000 		.word	.LC5-(.LPIC500+8)
 3566 2b88 70000000 		.word	.LC18-(.LPIC497+8)
 3567 2b8c 70000000 		.word	.LC1-(.LPIC498+8)
 3568 2b90 50000000 		.word	.LC20-(.LPIC503+8)
 3569 2b94 50000000 		.word	.LC5-(.LPIC504+8)
 3570 2b98 50000000 		.word	.LC18-(.LPIC501+8)
 3571 2b9c 50000000 		.word	.LC1-(.LPIC502+8)
 3573              		.hidden	EmulatedInterfaces
 3574              		.global	EmulatedInterfaces
 3575              		.hidden	LVDS_2I2CDevices
 3576              		.global	LVDS_2I2CDevices
 3577              		.hidden	LVDS_1I2CDevices
 3578              		.global	LVDS_1I2CDevices
 3579              		.hidden	ExternalI2CDevices
 3580              		.global	ExternalI2CDevices
 3581              		.hidden	HWMon
 3582              		.global	HWMon
 3583              		.section	.rodata.str1.4
 3584 026f 00       		.align	2
 3585              	.LC24:
 3586 0270 41445437 		.ascii	"ADT7447\000"
 3586      34343700 
 3587              		.hidden	HwmonCmdIndx
 3588              		.global	HwmonCmdIndx
 3589              		.hidden	SystemTemp
ARM GAS  /tmp/ccrI0Ik3.s 			page 65


 3590              		.global	SystemTemp
 3591              		.hidden	ChipsetTemp
 3592              		.global	ChipsetTemp
 3593              		.hidden	CpuTemp
 3594              		.global	CpuTemp
 3595              		.hidden	OpenFiles
 3596              		.global	OpenFiles
 3597              		.align	2
 3598              	.LC25:
 3599 0278 45656550 		.ascii	"EeePExp.EEPROM.EMUL\000"
 3599      4578702E 
 3599      45455052 
 3599      4F4D2E45 
 3599      4D554C00 
 3600              		.hidden	EeePExpEEPROM
 3601              		.global	EeePExpEEPROM
 3602              		.align	2
 3603              	.LC26:
 3604 028c 434F4D30 		.ascii	"COM0R20-CB.EEPROM.EMUL\000"
 3604      5232302D 
 3604      43422E45 
 3604      4550524F 
 3604      4D2E454D 
 3605              		.hidden	COM0CBEEPROM
 3606              		.global	COM0CBEEPROM
 3607 02a3 00       		.align	2
 3608              	.LC27:
 3609 02a4 434F4D30 		.ascii	"COM0R20-M.EEPROM.EMUL\000"
 3609      5232302D 
 3609      4D2E4545 
 3609      50524F4D 
 3609      2E454D55 
 3610              		.hidden	COM0MEEPROM
 3611              		.global	COM0MEEPROM
 3612 02ba 0000     		.align	2
 3613              	.LC28:
 3614 02bc 4550492E 		.ascii	"EPI.EEPROM.EMUL\000"
 3614      45455052 
 3614      4F4D2E45 
 3614      4D554C00 
 3615              		.hidden	EPIEEPROM
 3616              		.global	EPIEEPROM
 3617              		.align	2
 3618              	.LC29:
 3619 02cc 5544532E 		.ascii	"UDS.EEPROM.EMUL\000"
 3619      45455052 
 3619      4F4D2E45 
 3619      4D554C00 
 3620              		.hidden	UDSEEPROM
 3621              		.global	UDSEEPROM
 3622              		.align	2
 3623              	.LC30:
 3624 02dc 4449442E 		.ascii	"DID.EEPROM.EMUL\000"
 3624      45455052 
 3624      4F4D2E45 
 3624      4D554C00 
 3625              		.hidden	DIDEEPROM
ARM GAS  /tmp/ccrI0Ik3.s 			page 66


 3626              		.global	DIDEEPROM
 3627              		.hidden	StdExt
 3628              		.global	StdExt
 3629              		.align	2
 3630              	.LC31:
 3631 02ec 20202000 		.ascii	"   \000"
 3632              		.align	2
 3633              	.LC32:
 3634 02f0 53746400 		.ascii	"Std\000"
 3635              		.align	2
 3636              	.LC33:
 3637 02f4 45787400 		.ascii	"Ext\000"
 3638              		.data
 3639              		.align	2
 3642              	SystemTemp:
 3643 0000 D2       		.ascii	"\322"
 3644 0001 000000   		.space	3
 3647              	ChipsetTemp:
 3648 0004 2E       		.ascii	"."
 3649 0005 000000   		.space	3
 3652              	CpuTemp:
 3653 0008 38       		.ascii	"8"
 3654 0009 000000   		.space	3
 3657              	EPIEEPROM:
 3658 000c 00       		.byte	0
 3659 000d FF       		.byte	-1
 3660 000e FF       		.byte	-1
 3661 000f FF       		.byte	-1
 3662 0010 FF       		.byte	-1
 3663 0011 FF       		.byte	-1
 3664 0012 FF       		.byte	-1
 3665 0013 00       		.byte	0
 3666 0014 0C       		.byte	12
 3667 0015 F4       		.byte	-12
 3668 0016 04       		.byte	4
 3669 0017 00       		.byte	0
 3670 0018 01       		.byte	1
 3671 0019 00       		.byte	0
 3672 001a 00       		.byte	0
 3673 001b 00       		.byte	0
 3674 001c 01       		.byte	1
 3675 001d 0F       		.byte	15
 3676 001e 01       		.byte	1
 3677 001f 03       		.byte	3
 3678 0020 80       		.byte	-128
 3679 0021 00       		.byte	0
 3680 0022 00       		.byte	0
 3681 0023 00       		.byte	0
 3682 0024 EE       		.byte	-18
 3683 0025 00       		.byte	0
 3684 0026 00       		.byte	0
 3685 0027 00       		.byte	0
 3686 0028 00       		.byte	0
 3687 0029 00       		.byte	0
 3688 002a 00       		.byte	0
 3689 002b 00       		.byte	0
 3690 002c 00       		.byte	0
ARM GAS  /tmp/ccrI0Ik3.s 			page 67


 3691 002d 00       		.byte	0
 3692 002e 00       		.byte	0
 3693 002f AF       		.byte	-81
 3694 0030 C0       		.byte	-64
 3695 0031 00       		.byte	0
 3696 0032 45       		.byte	69
 3697 0033 40       		.byte	64
 3698 0034 01       		.byte	1
 3699 0035 01       		.byte	1
 3700 0036 01       		.byte	1
 3701 0037 01       		.byte	1
 3702 0038 01       		.byte	1
 3703 0039 01       		.byte	1
 3704 003a 01       		.byte	1
 3705 003b 01       		.byte	1
 3706 003c 01       		.byte	1
 3707 003d 01       		.byte	1
 3708 003e 01       		.byte	1
 3709 003f 01       		.byte	1
 3710 0040 01       		.byte	1
 3711 0041 01       		.byte	1
 3712 0042 A0       		.byte	-96
 3713 0043 0F       		.byte	15
 3714 0044 20       		.byte	32
 3715 0045 E0       		.byte	-32
 3716 0046 30       		.byte	48
 3717 0047 58       		.byte	88
 3718 0048 19       		.byte	25
 3719 0049 20       		.byte	32
 3720 004a 18       		.byte	24
 3721 004b 48       		.byte	72
 3722 004c 12       		.byte	18
 3723 004d 00       		.byte	0
 3724 004e 00       		.byte	0
 3725 004f 00       		.byte	0
 3726 0050 00       		.byte	0
 3727 0051 00       		.byte	0
 3728 0052 00       		.byte	0
 3729 0053 18       		.byte	24
 3730 0054 00       		.byte	0
 3731 0055 00       		.byte	0
 3732 0056 00       		.byte	0
 3733 0057 FD       		.byte	-3
 3734 0058 00       		.byte	0
 3735 0059 32       		.byte	50
 3736 005a 78       		.byte	120
 3737 005b 1E       		.byte	30
 3738 005c 32       		.byte	50
 3739 005d 05       		.byte	5
 3740 005e 00       		.byte	0
 3741 005f 0A       		.byte	10
 3742 0060 20       		.byte	32
 3743 0061 20       		.byte	32
 3744 0062 20       		.byte	32
 3745 0063 20       		.byte	32
 3746 0064 20       		.byte	32
 3747 0065 20       		.byte	32
ARM GAS  /tmp/ccrI0Ik3.s 			page 68


 3748 0066 00       		.byte	0
 3749 0067 00       		.byte	0
 3750 0068 00       		.byte	0
 3751 0069 FE       		.byte	-2
 3752 006a 00       		.byte	0
 3753 006b 63       		.byte	99
 3754 006c 6F       		.byte	111
 3755 006d 6E       		.byte	110
 3756 006e 67       		.byte	103
 3757 006f 61       		.byte	97
 3758 0070 74       		.byte	116
 3759 0071 65       		.byte	101
 3760 0072 63       		.byte	99
 3761 0073 20       		.byte	32
 3762 0074 41       		.byte	65
 3763 0075 47       		.byte	71
 3764 0076 0A       		.byte	10
 3765 0077 0A       		.byte	10
 3766 0078 00       		.byte	0
 3767 0079 00       		.byte	0
 3768 007a 00       		.byte	0
 3769 007b 0E       		.byte	14
 3770 007c 00       		.byte	0
 3771 007d 00       		.byte	0
 3772 007e 00       		.byte	0
 3773 007f 00       		.byte	0
 3774 0080 00       		.byte	0
 3775 0081 00       		.byte	0
 3776 0082 00       		.byte	0
 3777 0083 00       		.byte	0
 3778 0084 00       		.byte	0
 3779 0085 00       		.byte	0
 3780 0086 00       		.byte	0
 3781 0087 00       		.byte	0
 3782 0088 00       		.byte	0
 3783 0089 00       		.byte	0
 3784 008a 00       		.byte	0
 3785 008b B1       		.byte	-79
 3786 008c 00       		.byte	0
 3787 008d 00       		.byte	0
 3788 008e 00       		.byte	0
 3789 008f 00       		.byte	0
 3790 0090 00       		.byte	0
 3791 0091 00       		.byte	0
 3792 0092 00       		.byte	0
 3793 0093 00       		.byte	0
 3794 0094 00       		.byte	0
 3795 0095 00       		.byte	0
 3796 0096 00       		.byte	0
 3797 0097 00       		.byte	0
 3798 0098 00       		.byte	0
 3799 0099 00       		.byte	0
 3800 009a 00       		.byte	0
 3801 009b 00       		.byte	0
 3802 009c 00       		.byte	0
 3803 009d 00       		.byte	0
 3804 009e 00       		.byte	0
ARM GAS  /tmp/ccrI0Ik3.s 			page 69


 3805 009f 00       		.byte	0
 3806 00a0 00       		.byte	0
 3807 00a1 00       		.byte	0
 3808 00a2 00       		.byte	0
 3809 00a3 00       		.byte	0
 3810 00a4 00       		.byte	0
 3811 00a5 00       		.byte	0
 3812 00a6 00       		.byte	0
 3813 00a7 00       		.byte	0
 3814 00a8 00       		.byte	0
 3815 00a9 00       		.byte	0
 3816 00aa 00       		.byte	0
 3817 00ab 00       		.byte	0
 3818 00ac 00       		.byte	0
 3819 00ad 00       		.byte	0
 3820 00ae 00       		.byte	0
 3821 00af 00       		.byte	0
 3822 00b0 00       		.byte	0
 3823 00b1 00       		.byte	0
 3824 00b2 00       		.byte	0
 3825 00b3 00       		.byte	0
 3826 00b4 00       		.byte	0
 3827 00b5 00       		.byte	0
 3828 00b6 00       		.byte	0
 3829 00b7 00       		.byte	0
 3830 00b8 00       		.byte	0
 3831 00b9 00       		.byte	0
 3832 00ba 00       		.byte	0
 3833 00bb 00       		.byte	0
 3834 00bc 00       		.byte	0
 3835 00bd 00       		.byte	0
 3836 00be 00       		.byte	0
 3837 00bf 00       		.byte	0
 3838 00c0 00       		.byte	0
 3839 00c1 00       		.byte	0
 3840 00c2 00       		.byte	0
 3841 00c3 00       		.byte	0
 3842 00c4 00       		.byte	0
 3843 00c5 00       		.byte	0
 3844 00c6 00       		.byte	0
 3845 00c7 00       		.byte	0
 3846 00c8 00       		.byte	0
 3847 00c9 00       		.byte	0
 3848 00ca 00       		.byte	0
 3849 00cb 00       		.byte	0
 3850 00cc 00       		.byte	0
 3851 00cd 00       		.byte	0
 3852 00ce 00       		.byte	0
 3853 00cf 00       		.byte	0
 3854 00d0 00       		.byte	0
 3855 00d1 00       		.byte	0
 3856 00d2 00       		.byte	0
 3857 00d3 00       		.byte	0
 3858 00d4 00       		.byte	0
 3859 00d5 00       		.byte	0
 3860 00d6 00       		.byte	0
 3861 00d7 00       		.byte	0
ARM GAS  /tmp/ccrI0Ik3.s 			page 70


 3862 00d8 00       		.byte	0
 3863 00d9 00       		.byte	0
 3864 00da 00       		.byte	0
 3865 00db 00       		.byte	0
 3866 00dc 00       		.byte	0
 3867 00dd 00       		.byte	0
 3868 00de 00       		.byte	0
 3869 00df 00       		.byte	0
 3870 00e0 00       		.byte	0
 3871 00e1 00       		.byte	0
 3872 00e2 00       		.byte	0
 3873 00e3 00       		.byte	0
 3874 00e4 00       		.byte	0
 3875 00e5 00       		.byte	0
 3876 00e6 00       		.byte	0
 3877 00e7 00       		.byte	0
 3878 00e8 00       		.byte	0
 3879 00e9 00       		.byte	0
 3880 00ea 00       		.byte	0
 3881 00eb 00       		.byte	0
 3882 00ec 00       		.byte	0
 3883 00ed 00       		.byte	0
 3884 00ee 00       		.byte	0
 3885 00ef 00       		.byte	0
 3886 00f0 00       		.byte	0
 3887 00f1 00       		.byte	0
 3888 00f2 00       		.byte	0
 3889 00f3 00       		.byte	0
 3890 00f4 00       		.byte	0
 3891 00f5 00       		.byte	0
 3892 00f6 00       		.byte	0
 3893 00f7 00       		.byte	0
 3894 00f8 00       		.byte	0
 3895 00f9 00       		.byte	0
 3896 00fa 00       		.byte	0
 3897 00fb 00       		.byte	0
 3898 00fc 00       		.byte	0
 3899 00fd 00       		.byte	0
 3900 00fe 00       		.byte	0
 3901 00ff 00       		.byte	0
 3902 0100 00       		.byte	0
 3903 0101 00       		.byte	0
 3904 0102 00       		.byte	0
 3905 0103 00       		.byte	0
 3906 0104 00       		.byte	0
 3907 0105 00       		.byte	0
 3908 0106 00       		.byte	0
 3909 0107 00       		.byte	0
 3910 0108 00       		.byte	0
 3911 0109 00       		.byte	0
 3912 010a 00       		.byte	0
 3913 010b 00       		.byte	0
 3914 010c 00       		.byte	0
 3915 010d 00       		.byte	0
 3916 010e 00       		.byte	0
 3917 010f 00       		.byte	0
 3918 0110 00       		.byte	0
ARM GAS  /tmp/ccrI0Ik3.s 			page 71


 3919 0111 00       		.byte	0
 3920 0112 00       		.byte	0
 3921 0113 00       		.byte	0
 3922 0114 00       		.byte	0
 3923 0115 00       		.byte	0
 3924 0116 00       		.byte	0
 3925 0117 00       		.byte	0
 3926 0118 00       		.byte	0
 3927 0119 00       		.byte	0
 3928 011a 00       		.byte	0
 3929 011b 00       		.byte	0
 3930 011c 00       		.byte	0
 3931 011d 00       		.byte	0
 3932 011e 00       		.byte	0
 3933 011f 00       		.byte	0
 3934 0120 00       		.byte	0
 3935 0121 00       		.byte	0
 3936 0122 00       		.byte	0
 3937 0123 00       		.byte	0
 3938 0124 00       		.byte	0
 3939 0125 00       		.byte	0
 3940 0126 00       		.byte	0
 3941 0127 00       		.byte	0
 3942 0128 00       		.byte	0
 3943 0129 00       		.byte	0
 3944 012a 00       		.byte	0
 3945 012b 00       		.byte	0
 3946 012c 00       		.byte	0
 3947 012d 00       		.byte	0
 3948 012e 00       		.byte	0
 3949 012f 00       		.byte	0
 3950 0130 00       		.byte	0
 3951 0131 00       		.byte	0
 3952 0132 00       		.byte	0
 3953 0133 00       		.byte	0
 3954 0134 00       		.byte	0
 3955 0135 00       		.byte	0
 3956 0136 00       		.byte	0
 3957 0137 00       		.byte	0
 3958 0138 00       		.byte	0
 3959 0139 00       		.byte	0
 3960 013a 00       		.byte	0
 3961 013b 00       		.byte	0
 3962 013c 00       		.byte	0
 3963 013d 00       		.byte	0
 3964 013e 00       		.byte	0
 3965 013f 00       		.byte	0
 3966 0140 00       		.byte	0
 3967 0141 00       		.byte	0
 3968 0142 00       		.byte	0
 3969 0143 00       		.byte	0
 3970 0144 00       		.byte	0
 3971 0145 00       		.byte	0
 3972 0146 00       		.byte	0
 3973 0147 00       		.byte	0
 3974 0148 00       		.byte	0
 3975 0149 00       		.byte	0
ARM GAS  /tmp/ccrI0Ik3.s 			page 72


 3976 014a 00       		.byte	0
 3977 014b 00       		.byte	0
 3978 014c 00       		.byte	0
 3979 014d 00       		.byte	0
 3980 014e 00       		.byte	0
 3981 014f 00       		.byte	0
 3982 0150 00       		.byte	0
 3983 0151 00       		.byte	0
 3984 0152 00       		.byte	0
 3985 0153 00       		.byte	0
 3986 0154 00       		.byte	0
 3987 0155 00       		.byte	0
 3988 0156 00       		.byte	0
 3989 0157 00       		.byte	0
 3990 0158 00       		.byte	0
 3991 0159 00       		.byte	0
 3992 015a 00       		.byte	0
 3993 015b 00       		.byte	0
 3994 015c 00       		.byte	0
 3995 015d 00       		.byte	0
 3996 015e 00       		.byte	0
 3997 015f 00       		.byte	0
 3998 0160 00       		.byte	0
 3999 0161 00       		.byte	0
 4000 0162 00       		.byte	0
 4001 0163 00       		.byte	0
 4002 0164 00       		.byte	0
 4003 0165 00       		.byte	0
 4004 0166 00       		.byte	0
 4005 0167 00       		.byte	0
 4006 0168 00       		.byte	0
 4007 0169 00       		.byte	0
 4008 016a 00       		.byte	0
 4009 016b 00       		.byte	0
 4010 016c 00       		.byte	0
 4011 016d 00       		.byte	0
 4012 016e 00       		.byte	0
 4013 016f 00       		.byte	0
 4014 0170 00       		.byte	0
 4015 0171 00       		.byte	0
 4016 0172 00       		.byte	0
 4017 0173 00       		.byte	0
 4018 0174 00       		.byte	0
 4019 0175 00       		.byte	0
 4020 0176 00       		.byte	0
 4021 0177 00       		.byte	0
 4022 0178 00       		.byte	0
 4023 0179 00       		.byte	0
 4024 017a 00       		.byte	0
 4025 017b 00       		.byte	0
 4026 017c 00       		.byte	0
 4027 017d 00       		.byte	0
 4028 017e 00       		.byte	0
 4029 017f 00       		.byte	0
 4030 0180 00       		.byte	0
 4031 0181 00       		.byte	0
 4032 0182 00       		.byte	0
ARM GAS  /tmp/ccrI0Ik3.s 			page 73


 4033 0183 00       		.byte	0
 4034 0184 00       		.byte	0
 4035 0185 00       		.byte	0
 4036 0186 00       		.byte	0
 4037 0187 00       		.byte	0
 4038 0188 00       		.byte	0
 4039 0189 00       		.byte	0
 4040 018a 00       		.byte	0
 4041 018b 00       		.byte	0
 4042 018c 00       		.byte	0
 4043 018d 00       		.byte	0
 4044 018e 00       		.byte	0
 4045 018f 00       		.byte	0
 4046 0190 00       		.byte	0
 4047 0191 00       		.byte	0
 4048 0192 00       		.byte	0
 4049 0193 00       		.byte	0
 4050 0194 00       		.byte	0
 4051 0195 00       		.byte	0
 4052 0196 00       		.byte	0
 4053 0197 00       		.byte	0
 4054 0198 00       		.byte	0
 4055 0199 00       		.byte	0
 4056 019a 00       		.byte	0
 4057 019b 00       		.byte	0
 4058 019c 00       		.byte	0
 4059 019d 00       		.byte	0
 4060 019e 00       		.byte	0
 4061 019f 00       		.byte	0
 4062 01a0 00       		.byte	0
 4063 01a1 00       		.byte	0
 4064 01a2 00       		.byte	0
 4065 01a3 00       		.byte	0
 4066 01a4 00       		.byte	0
 4067 01a5 00       		.byte	0
 4068 01a6 00       		.byte	0
 4069 01a7 00       		.byte	0
 4070 01a8 00       		.byte	0
 4071 01a9 00       		.byte	0
 4072 01aa 00       		.byte	0
 4073 01ab 00       		.byte	0
 4074 01ac 00       		.byte	0
 4075 01ad 00       		.byte	0
 4076 01ae 00       		.byte	0
 4077 01af 00       		.byte	0
 4078 01b0 00       		.byte	0
 4079 01b1 00       		.byte	0
 4080 01b2 00       		.byte	0
 4081 01b3 00       		.byte	0
 4082 01b4 00       		.byte	0
 4083 01b5 00       		.byte	0
 4084 01b6 00       		.byte	0
 4085 01b7 00       		.byte	0
 4086 01b8 00       		.byte	0
 4087 01b9 00       		.byte	0
 4088 01ba 00       		.byte	0
 4089 01bb 00       		.byte	0
ARM GAS  /tmp/ccrI0Ik3.s 			page 74


 4090 01bc 00       		.byte	0
 4091 01bd 00       		.byte	0
 4092 01be 00       		.byte	0
 4093 01bf 00       		.byte	0
 4094 01c0 00       		.byte	0
 4095 01c1 00       		.byte	0
 4096 01c2 00       		.byte	0
 4097 01c3 00       		.byte	0
 4098 01c4 00       		.byte	0
 4099 01c5 00       		.byte	0
 4100 01c6 00       		.byte	0
 4101 01c7 00       		.byte	0
 4102 01c8 00       		.byte	0
 4103 01c9 00       		.byte	0
 4104 01ca 00       		.byte	0
 4105 01cb 00       		.byte	0
 4106 01cc 00       		.byte	0
 4107 01cd 00       		.byte	0
 4108 01ce 00       		.byte	0
 4109 01cf 00       		.byte	0
 4110 01d0 00       		.byte	0
 4111 01d1 00       		.byte	0
 4112 01d2 00       		.byte	0
 4113 01d3 00       		.byte	0
 4114 01d4 00       		.byte	0
 4115 01d5 00       		.byte	0
 4116 01d6 00       		.byte	0
 4117 01d7 00       		.byte	0
 4118 01d8 00       		.byte	0
 4119 01d9 00       		.byte	0
 4120 01da 00       		.byte	0
 4121 01db 00       		.byte	0
 4122 01dc 00       		.byte	0
 4123 01dd 00       		.byte	0
 4124 01de 00       		.byte	0
 4125 01df 00       		.byte	0
 4126 01e0 00       		.byte	0
 4127 01e1 00       		.byte	0
 4128 01e2 00       		.byte	0
 4129 01e3 00       		.byte	0
 4130 01e4 00       		.byte	0
 4131 01e5 00       		.byte	0
 4132 01e6 00       		.byte	0
 4133 01e7 00       		.byte	0
 4134 01e8 00       		.byte	0
 4135 01e9 00       		.byte	0
 4136 01ea 00       		.byte	0
 4137 01eb 00       		.byte	0
 4138 01ec 00       		.byte	0
 4139 01ed 00       		.byte	0
 4140 01ee 00       		.byte	0
 4141 01ef 00       		.byte	0
 4142 01f0 00       		.byte	0
 4143 01f1 00       		.byte	0
 4144 01f2 00       		.byte	0
 4145 01f3 00       		.byte	0
 4146 01f4 00       		.byte	0
ARM GAS  /tmp/ccrI0Ik3.s 			page 75


 4147 01f5 00       		.byte	0
 4148 01f6 00       		.byte	0
 4149 01f7 00       		.byte	0
 4150 01f8 00       		.byte	0
 4151 01f9 00       		.byte	0
 4152 01fa 00       		.byte	0
 4153 01fb 00       		.byte	0
 4154 01fc 00       		.byte	0
 4155 01fd 00       		.byte	0
 4156 01fe 00       		.byte	0
 4157 01ff 00       		.byte	0
 4158 0200 00       		.byte	0
 4159 0201 00       		.byte	0
 4160 0202 00       		.byte	0
 4161 0203 00       		.byte	0
 4162 0204 00       		.byte	0
 4163 0205 00       		.byte	0
 4164 0206 00       		.byte	0
 4165 0207 00       		.byte	0
 4166 0208 00       		.byte	0
 4167 0209 00       		.byte	0
 4168 020a 00       		.byte	0
 4169 020b 00       		.byte	0
 4172              	UDSEEPROM:
 4173 020c 00       		.byte	0
 4174 020d FF       		.byte	-1
 4175 020e FF       		.byte	-1
 4176 020f FF       		.byte	-1
 4177 0210 FF       		.byte	-1
 4178 0211 FF       		.byte	-1
 4179 0212 FF       		.byte	-1
 4180 0213 00       		.byte	0
 4181 0214 04       		.byte	4
 4182 0215 21       		.byte	33
 4183 0216 58       		.byte	88
 4184 0217 59       		.byte	89
 4185 0218 71       		.byte	113
 4186 0219 CB       		.byte	-53
 4187 021a A2       		.byte	-94
 4188 021b 04       		.byte	4
 4189 021c 1E       		.byte	30
 4190 021d 11       		.byte	17
 4191 021e 01       		.byte	1
 4192 021f 03       		.byte	3
 4193 0220 80       		.byte	-128
 4194 0221 00       		.byte	0
 4195 0222 00       		.byte	0
 4196 0223 00       		.byte	0
 4197 0224 F6       		.byte	-10
 4198 0225 00       		.byte	0
 4199 0226 00       		.byte	0
 4200 0227 00       		.byte	0
 4201 0228 00       		.byte	0
 4202 0229 00       		.byte	0
 4203 022a 00       		.byte	0
 4204 022b 00       		.byte	0
 4205 022c 00       		.byte	0
ARM GAS  /tmp/ccrI0Ik3.s 			page 76


 4206 022d 00       		.byte	0
 4207 022e 00       		.byte	0
 4208 022f AC       		.byte	-84
 4209 0230 00       		.byte	0
 4210 0231 00       		.byte	0
 4211 0232 01       		.byte	1
 4212 0233 01       		.byte	1
 4213 0234 01       		.byte	1
 4214 0235 01       		.byte	1
 4215 0236 01       		.byte	1
 4216 0237 01       		.byte	1
 4217 0238 01       		.byte	1
 4218 0239 01       		.byte	1
 4219 023a 01       		.byte	1
 4220 023b 01       		.byte	1
 4221 023c 01       		.byte	1
 4222 023d 01       		.byte	1
 4223 023e 01       		.byte	1
 4224 023f 01       		.byte	1
 4225 0240 01       		.byte	1
 4226 0241 01       		.byte	1
 4227 0242 80       		.byte	-128
 4228 0243 0C       		.byte	12
 4229 0244 20       		.byte	32
 4230 0245 00       		.byte	0
 4231 0246 31       		.byte	49
 4232 0247 E0       		.byte	-32
 4233 0248 2D       		.byte	45
 4234 0249 10       		.byte	16
 4235 024a 2A       		.byte	42
 4236 024b 80       		.byte	-128
 4237 024c A2       		.byte	-94
 4238 024d 00       		.byte	0
 4239 024e 00       		.byte	0
 4240 024f 00       		.byte	0
 4241 0250 00       		.byte	0
 4242 0251 00       		.byte	0
 4243 0252 00       		.byte	0
 4244 0253 18       		.byte	24
 4245 0254 00       		.byte	0
 4246 0255 00       		.byte	0
 4247 0256 00       		.byte	0
 4248 0257 00       		.byte	0
 4249 0258 00       		.byte	0
 4250 0259 00       		.byte	0
 4251 025a 00       		.byte	0
 4252 025b 00       		.byte	0
 4253 025c 00       		.byte	0
 4254 025d 00       		.byte	0
 4255 025e 00       		.byte	0
 4256 025f 00       		.byte	0
 4257 0260 00       		.byte	0
 4258 0261 00       		.byte	0
 4259 0262 00       		.byte	0
 4260 0263 00       		.byte	0
 4261 0264 00       		.byte	0
 4262 0265 00       		.byte	0
ARM GAS  /tmp/ccrI0Ik3.s 			page 77


 4263 0266 00       		.byte	0
 4264 0267 00       		.byte	0
 4265 0268 00       		.byte	0
 4266 0269 FE       		.byte	-2
 4267 026a 00       		.byte	0
 4268 026b 4B       		.byte	75
 4269 026c 6F       		.byte	111
 4270 026d 6E       		.byte	110
 4271 026e 74       		.byte	116
 4272 026f 72       		.byte	114
 4273 0270 6F       		.byte	111
 4274 0271 6E       		.byte	110
 4275 0272 5F       		.byte	95
 4276 0273 44       		.byte	68
 4277 0274 45       		.byte	69
 4278 0275 47       		.byte	71
 4279 0276 0A       		.byte	10
 4280 0277 20       		.byte	32
 4281 0278 00       		.byte	0
 4282 0279 00       		.byte	0
 4283 027a 00       		.byte	0
 4284 027b 0F       		.byte	15
 4285 027c 00       		.byte	0
 4286 027d 00       		.byte	0
 4287 027e 0C       		.byte	12
 4288 027f 00       		.byte	0
 4289 0280 DC       		.byte	-36
 4290 0281 FE       		.byte	-2
 4291 0282 00       		.byte	0
 4292 0283 EC       		.byte	-20
 4293 0284 00       		.byte	0
 4294 0285 00       		.byte	0
 4295 0286 00       		.byte	0
 4296 0287 00       		.byte	0
 4297 0288 00       		.byte	0
 4298 0289 11       		.byte	17
 4299 028a 00       		.byte	0
 4300 028b 57       		.byte	87
 4301 028c 00       		.byte	0
 4302 028d 00       		.byte	0
 4303 028e 00       		.byte	0
 4304 028f 00       		.byte	0
 4305 0290 00       		.byte	0
 4306 0291 00       		.byte	0
 4307 0292 00       		.byte	0
 4308 0293 00       		.byte	0
 4309 0294 00       		.byte	0
 4310 0295 00       		.byte	0
 4311 0296 00       		.byte	0
 4312 0297 00       		.byte	0
 4313 0298 00       		.byte	0
 4314 0299 00       		.byte	0
 4315 029a 00       		.byte	0
 4316 029b 00       		.byte	0
 4317 029c 00       		.byte	0
 4318 029d 00       		.byte	0
 4319 029e 00       		.byte	0
ARM GAS  /tmp/ccrI0Ik3.s 			page 78


 4320 029f 00       		.byte	0
 4321 02a0 00       		.byte	0
 4322 02a1 00       		.byte	0
 4323 02a2 00       		.byte	0
 4324 02a3 00       		.byte	0
 4325 02a4 00       		.byte	0
 4326 02a5 00       		.byte	0
 4327 02a6 00       		.byte	0
 4328 02a7 00       		.byte	0
 4329 02a8 00       		.byte	0
 4330 02a9 00       		.byte	0
 4331 02aa 00       		.byte	0
 4332 02ab 00       		.byte	0
 4333 02ac 00       		.byte	0
 4334 02ad 00       		.byte	0
 4335 02ae 00       		.byte	0
 4336 02af 00       		.byte	0
 4337 02b0 00       		.byte	0
 4338 02b1 00       		.byte	0
 4339 02b2 00       		.byte	0
 4340 02b3 00       		.byte	0
 4341 02b4 00       		.byte	0
 4342 02b5 00       		.byte	0
 4343 02b6 00       		.byte	0
 4344 02b7 00       		.byte	0
 4345 02b8 00       		.byte	0
 4346 02b9 00       		.byte	0
 4347 02ba 00       		.byte	0
 4348 02bb 00       		.byte	0
 4349 02bc 00       		.byte	0
 4350 02bd 00       		.byte	0
 4351 02be 00       		.byte	0
 4352 02bf 00       		.byte	0
 4353 02c0 00       		.byte	0
 4354 02c1 00       		.byte	0
 4355 02c2 00       		.byte	0
 4356 02c3 00       		.byte	0
 4357 02c4 00       		.byte	0
 4358 02c5 00       		.byte	0
 4359 02c6 00       		.byte	0
 4360 02c7 00       		.byte	0
 4361 02c8 00       		.byte	0
 4362 02c9 00       		.byte	0
 4363 02ca 00       		.byte	0
 4364 02cb 00       		.byte	0
 4365 02cc 00       		.byte	0
 4366 02cd 00       		.byte	0
 4367 02ce 00       		.byte	0
 4368 02cf 00       		.byte	0
 4369 02d0 00       		.byte	0
 4370 02d1 00       		.byte	0
 4371 02d2 00       		.byte	0
 4372 02d3 00       		.byte	0
 4373 02d4 00       		.byte	0
 4374 02d5 00       		.byte	0
 4375 02d6 00       		.byte	0
 4376 02d7 00       		.byte	0
ARM GAS  /tmp/ccrI0Ik3.s 			page 79


 4377 02d8 00       		.byte	0
 4378 02d9 00       		.byte	0
 4379 02da 00       		.byte	0
 4380 02db 00       		.byte	0
 4381 02dc 00       		.byte	0
 4382 02dd 00       		.byte	0
 4383 02de 00       		.byte	0
 4384 02df 00       		.byte	0
 4385 02e0 00       		.byte	0
 4386 02e1 00       		.byte	0
 4387 02e2 00       		.byte	0
 4388 02e3 00       		.byte	0
 4389 02e4 00       		.byte	0
 4390 02e5 00       		.byte	0
 4391 02e6 00       		.byte	0
 4392 02e7 00       		.byte	0
 4393 02e8 00       		.byte	0
 4394 02e9 00       		.byte	0
 4395 02ea 00       		.byte	0
 4396 02eb 00       		.byte	0
 4397 02ec 00       		.byte	0
 4398 02ed 00       		.byte	0
 4399 02ee 00       		.byte	0
 4400 02ef 00       		.byte	0
 4401 02f0 00       		.byte	0
 4402 02f1 00       		.byte	0
 4403 02f2 00       		.byte	0
 4404 02f3 00       		.byte	0
 4405 02f4 00       		.byte	0
 4406 02f5 00       		.byte	0
 4407 02f6 00       		.byte	0
 4408 02f7 00       		.byte	0
 4409 02f8 00       		.byte	0
 4410 02f9 00       		.byte	0
 4411 02fa 00       		.byte	0
 4412 02fb 00       		.byte	0
 4413 02fc 00       		.byte	0
 4414 02fd 00       		.byte	0
 4415 02fe 00       		.byte	0
 4416 02ff 00       		.byte	0
 4417 0300 00       		.byte	0
 4418 0301 00       		.byte	0
 4419 0302 00       		.byte	0
 4420 0303 00       		.byte	0
 4421 0304 00       		.byte	0
 4422 0305 00       		.byte	0
 4423 0306 00       		.byte	0
 4424 0307 00       		.byte	0
 4425 0308 00       		.byte	0
 4426 0309 00       		.byte	0
 4427 030a 00       		.byte	0
 4428 030b 00       		.byte	0
 4429 030c 00       		.byte	0
 4430 030d 00       		.byte	0
 4431 030e 00       		.byte	0
 4432 030f 00       		.byte	0
 4433 0310 00       		.byte	0
ARM GAS  /tmp/ccrI0Ik3.s 			page 80


 4434 0311 00       		.byte	0
 4435 0312 00       		.byte	0
 4436 0313 00       		.byte	0
 4437 0314 00       		.byte	0
 4438 0315 00       		.byte	0
 4439 0316 00       		.byte	0
 4440 0317 00       		.byte	0
 4441 0318 00       		.byte	0
 4442 0319 00       		.byte	0
 4443 031a 00       		.byte	0
 4444 031b 00       		.byte	0
 4445 031c 00       		.byte	0
 4446 031d 00       		.byte	0
 4447 031e 00       		.byte	0
 4448 031f 00       		.byte	0
 4449 0320 00       		.byte	0
 4450 0321 00       		.byte	0
 4451 0322 00       		.byte	0
 4452 0323 00       		.byte	0
 4453 0324 00       		.byte	0
 4454 0325 00       		.byte	0
 4455 0326 00       		.byte	0
 4456 0327 00       		.byte	0
 4457 0328 00       		.byte	0
 4458 0329 00       		.byte	0
 4459 032a 00       		.byte	0
 4460 032b 00       		.byte	0
 4461 032c 00       		.byte	0
 4462 032d 00       		.byte	0
 4463 032e 00       		.byte	0
 4464 032f 00       		.byte	0
 4465 0330 00       		.byte	0
 4466 0331 00       		.byte	0
 4467 0332 00       		.byte	0
 4468 0333 00       		.byte	0
 4469 0334 00       		.byte	0
 4470 0335 00       		.byte	0
 4471 0336 00       		.byte	0
 4472 0337 00       		.byte	0
 4473 0338 00       		.byte	0
 4474 0339 00       		.byte	0
 4475 033a 00       		.byte	0
 4476 033b 00       		.byte	0
 4477 033c 00       		.byte	0
 4478 033d 00       		.byte	0
 4479 033e 00       		.byte	0
 4480 033f 00       		.byte	0
 4481 0340 00       		.byte	0
 4482 0341 00       		.byte	0
 4483 0342 00       		.byte	0
 4484 0343 00       		.byte	0
 4485 0344 00       		.byte	0
 4486 0345 00       		.byte	0
 4487 0346 00       		.byte	0
 4488 0347 00       		.byte	0
 4489 0348 00       		.byte	0
 4490 0349 00       		.byte	0
ARM GAS  /tmp/ccrI0Ik3.s 			page 81


 4491 034a 00       		.byte	0
 4492 034b 00       		.byte	0
 4493 034c 00       		.byte	0
 4494 034d 00       		.byte	0
 4495 034e 00       		.byte	0
 4496 034f 00       		.byte	0
 4497 0350 00       		.byte	0
 4498 0351 00       		.byte	0
 4499 0352 00       		.byte	0
 4500 0353 00       		.byte	0
 4501 0354 00       		.byte	0
 4502 0355 00       		.byte	0
 4503 0356 00       		.byte	0
 4504 0357 00       		.byte	0
 4505 0358 00       		.byte	0
 4506 0359 00       		.byte	0
 4507 035a 00       		.byte	0
 4508 035b 00       		.byte	0
 4509 035c 00       		.byte	0
 4510 035d 00       		.byte	0
 4511 035e 00       		.byte	0
 4512 035f 00       		.byte	0
 4513 0360 00       		.byte	0
 4514 0361 00       		.byte	0
 4515 0362 00       		.byte	0
 4516 0363 00       		.byte	0
 4517 0364 00       		.byte	0
 4518 0365 00       		.byte	0
 4519 0366 00       		.byte	0
 4520 0367 00       		.byte	0
 4521 0368 00       		.byte	0
 4522 0369 00       		.byte	0
 4523 036a 00       		.byte	0
 4524 036b 00       		.byte	0
 4525 036c 00       		.byte	0
 4526 036d 00       		.byte	0
 4527 036e 00       		.byte	0
 4528 036f 00       		.byte	0
 4529 0370 00       		.byte	0
 4530 0371 00       		.byte	0
 4531 0372 00       		.byte	0
 4532 0373 00       		.byte	0
 4533 0374 00       		.byte	0
 4534 0375 00       		.byte	0
 4535 0376 00       		.byte	0
 4536 0377 00       		.byte	0
 4537 0378 00       		.byte	0
 4538 0379 00       		.byte	0
 4539 037a 00       		.byte	0
 4540 037b 00       		.byte	0
 4541 037c 00       		.byte	0
 4542 037d 00       		.byte	0
 4543 037e 00       		.byte	0
 4544 037f 00       		.byte	0
 4545 0380 00       		.byte	0
 4546 0381 00       		.byte	0
 4547 0382 00       		.byte	0
ARM GAS  /tmp/ccrI0Ik3.s 			page 82


 4548 0383 00       		.byte	0
 4549 0384 00       		.byte	0
 4550 0385 00       		.byte	0
 4551 0386 00       		.byte	0
 4552 0387 00       		.byte	0
 4553 0388 00       		.byte	0
 4554 0389 00       		.byte	0
 4555 038a 00       		.byte	0
 4556 038b 00       		.byte	0
 4557 038c 00       		.byte	0
 4558 038d 00       		.byte	0
 4559 038e 00       		.byte	0
 4560 038f 00       		.byte	0
 4561 0390 00       		.byte	0
 4562 0391 00       		.byte	0
 4563 0392 00       		.byte	0
 4564 0393 00       		.byte	0
 4565 0394 00       		.byte	0
 4566 0395 00       		.byte	0
 4567 0396 00       		.byte	0
 4568 0397 00       		.byte	0
 4569 0398 00       		.byte	0
 4570 0399 00       		.byte	0
 4571 039a 00       		.byte	0
 4572 039b 00       		.byte	0
 4573 039c 00       		.byte	0
 4574 039d 00       		.byte	0
 4575 039e 00       		.byte	0
 4576 039f 00       		.byte	0
 4577 03a0 00       		.byte	0
 4578 03a1 00       		.byte	0
 4579 03a2 00       		.byte	0
 4580 03a3 00       		.byte	0
 4581 03a4 00       		.byte	0
 4582 03a5 00       		.byte	0
 4583 03a6 00       		.byte	0
 4584 03a7 00       		.byte	0
 4585 03a8 00       		.byte	0
 4586 03a9 00       		.byte	0
 4587 03aa 00       		.byte	0
 4588 03ab 00       		.byte	0
 4589 03ac 00       		.byte	0
 4590 03ad 00       		.byte	0
 4591 03ae 00       		.byte	0
 4592 03af 00       		.byte	0
 4593 03b0 00       		.byte	0
 4594 03b1 00       		.byte	0
 4595 03b2 00       		.byte	0
 4596 03b3 00       		.byte	0
 4597 03b4 00       		.byte	0
 4598 03b5 00       		.byte	0
 4599 03b6 00       		.byte	0
 4600 03b7 00       		.byte	0
 4601 03b8 00       		.byte	0
 4602 03b9 00       		.byte	0
 4603 03ba 00       		.byte	0
 4604 03bb 00       		.byte	0
ARM GAS  /tmp/ccrI0Ik3.s 			page 83


 4605 03bc 00       		.byte	0
 4606 03bd 00       		.byte	0
 4607 03be 00       		.byte	0
 4608 03bf 00       		.byte	0
 4609 03c0 00       		.byte	0
 4610 03c1 00       		.byte	0
 4611 03c2 00       		.byte	0
 4612 03c3 00       		.byte	0
 4613 03c4 00       		.byte	0
 4614 03c5 00       		.byte	0
 4615 03c6 00       		.byte	0
 4616 03c7 00       		.byte	0
 4617 03c8 00       		.byte	0
 4618 03c9 00       		.byte	0
 4619 03ca 00       		.byte	0
 4620 03cb 00       		.byte	0
 4621 03cc 00       		.byte	0
 4622 03cd 00       		.byte	0
 4623 03ce 00       		.byte	0
 4624 03cf 00       		.byte	0
 4625 03d0 00       		.byte	0
 4626 03d1 00       		.byte	0
 4627 03d2 00       		.byte	0
 4628 03d3 00       		.byte	0
 4629 03d4 00       		.byte	0
 4630 03d5 00       		.byte	0
 4631 03d6 00       		.byte	0
 4632 03d7 00       		.byte	0
 4633 03d8 00       		.byte	0
 4634 03d9 00       		.byte	0
 4635 03da 00       		.byte	0
 4636 03db 00       		.byte	0
 4637 03dc 00       		.byte	0
 4638 03dd 00       		.byte	0
 4639 03de 00       		.byte	0
 4640 03df 00       		.byte	0
 4641 03e0 00       		.byte	0
 4642 03e1 00       		.byte	0
 4643 03e2 00       		.byte	0
 4644 03e3 00       		.byte	0
 4645 03e4 00       		.byte	0
 4646 03e5 00       		.byte	0
 4647 03e6 00       		.byte	0
 4648 03e7 00       		.byte	0
 4649 03e8 00       		.byte	0
 4650 03e9 00       		.byte	0
 4651 03ea 00       		.byte	0
 4652 03eb 00       		.byte	0
 4653 03ec 00       		.byte	0
 4654 03ed 00       		.byte	0
 4655 03ee 00       		.byte	0
 4656 03ef 00       		.byte	0
 4657 03f0 00       		.byte	0
 4658 03f1 00       		.byte	0
 4659 03f2 00       		.byte	0
 4660 03f3 00       		.byte	0
 4661 03f4 00       		.byte	0
ARM GAS  /tmp/ccrI0Ik3.s 			page 84


 4662 03f5 00       		.byte	0
 4663 03f6 00       		.byte	0
 4664 03f7 00       		.byte	0
 4665 03f8 00       		.byte	0
 4666 03f9 00       		.byte	0
 4667 03fa 00       		.byte	0
 4668 03fb 00       		.byte	0
 4669 03fc 00       		.byte	0
 4670 03fd 00       		.byte	0
 4671 03fe 00       		.byte	0
 4672 03ff 00       		.byte	0
 4673 0400 00       		.byte	0
 4674 0401 00       		.byte	0
 4675 0402 00       		.byte	0
 4676 0403 00       		.byte	0
 4677 0404 00       		.byte	0
 4678 0405 00       		.byte	0
 4679 0406 00       		.byte	0
 4680 0407 00       		.byte	0
 4681 0408 00       		.byte	0
 4682 0409 00       		.byte	0
 4683 040a 00       		.byte	0
 4684 040b 00       		.byte	0
 4687              	DIDEEPROM:
 4688 040c 10       		.byte	16
 4689 040d 4C       		.byte	76
 4690 040e 02       		.byte	2
 4691 040f 00       		.byte	0
 4692 0410 00       		.byte	0
 4693 0411 00       		.byte	0
 4694 0412 0C       		.byte	12
 4695 0413 44       		.byte	68
 4696 0414 45       		.byte	69
 4697 0415 4D       		.byte	77
 4698 0416 56       		.byte	86
 4699 0417 00       		.byte	0
 4700 0418 16       		.byte	22
 4701 0419 00       		.byte	0
 4702 041a 00       		.byte	0
 4703 041b 00       		.byte	0
 4704 041c 1C       		.byte	28
 4705 041d 08       		.byte	8
 4706 041e 00       		.byte	0
 4707 041f 03       		.byte	3
 4708 0420 00       		.byte	0
 4709 0421 14       		.byte	20
 4710 0422 2F       		.byte	47
 4711 0423 2A       		.byte	42
 4712 0424 00       		.byte	0
 4713 0425 80       		.byte	-128
 4714 0426 FF       		.byte	-1
 4715 0427 04       		.byte	4
 4716 0428 97       		.byte	-105
 4717 0429 01       		.byte	1
 4718 042a 2F       		.byte	47
 4719 042b 80       		.byte	-128
 4720 042c 6F       		.byte	111
ARM GAS  /tmp/ccrI0Ik3.s 			page 85


 4721 042d 00       		.byte	0
 4722 042e FF       		.byte	-1
 4723 042f 03       		.byte	3
 4724 0430 29       		.byte	41
 4725 0431 00       		.byte	0
 4726 0432 00       		.byte	0
 4727 0433 80       		.byte	-128
 4728 0434 02       		.byte	2
 4729 0435 00       		.byte	0
 4730 0436 0C       		.byte	12
 4731 0437 00       		.byte	0
 4732 0438 0D       		.byte	13
 4733 0439 14       		.byte	20
 4734 043a 50       		.byte	80
 4735 043b FF       		.byte	-1
 4736 043c 04       		.byte	4
 4737 043d FF       		.byte	-1
 4738 043e 03       		.byte	3
 4739 043f 19       		.byte	25
 4740 0440 03       		.byte	3
 4741 0441 00       		.byte	0
 4742 0442 1E       		.byte	30
 4743 0443 1E       		.byte	30
 4744 0444 07       		.byte	7
 4745 0445 14       		.byte	20
 4746 0446 0D       		.byte	13
 4747 0447 00       		.byte	0
 4748 0448 06       		.byte	6
 4749 0449 0F       		.byte	15
 4750 044a 0F       		.byte	15
 4751 044b 0F       		.byte	15
 4752 044c 64       		.byte	100
 4753 044d 23       		.byte	35
 4754 044e 23       		.byte	35
 4755 044f 0F       		.byte	15
 4756 0450 00       		.byte	0
 4757 0451 0A       		.byte	10
 4758 0452 12       		.byte	18
 4759 0453 00       		.byte	0
 4760 0454 03       		.byte	3
 4761 0455 00       		.byte	0
 4762 0456 00       		.byte	0
 4763 0457 00       		.byte	0
 4764 0458 00       		.byte	0
 4765 0459 00       		.byte	0
 4766 045a 11       		.byte	17
 4767 045b 00       		.byte	0
 4768 045c BC       		.byte	-68
 4769 045d 00       		.byte	0
 4770 045e 00       		.byte	0
 4771 045f 00       		.byte	0
 4772 0460 00       		.byte	0
 4773 0461 00       		.byte	0
 4774 0462 00       		.byte	0
 4775 0463 00       		.byte	0
 4776 0464 00       		.byte	0
 4777 0465 00       		.byte	0
ARM GAS  /tmp/ccrI0Ik3.s 			page 86


 4778 0466 00       		.byte	0
 4779 0467 00       		.byte	0
 4780 0468 00       		.byte	0
 4781 0469 00       		.byte	0
 4782 046a 00       		.byte	0
 4783 046b 00       		.byte	0
 4784 046c 00       		.byte	0
 4785 046d 00       		.byte	0
 4786 046e 00       		.byte	0
 4787 046f 00       		.byte	0
 4788 0470 00       		.byte	0
 4789 0471 00       		.byte	0
 4790 0472 00       		.byte	0
 4791 0473 00       		.byte	0
 4792 0474 00       		.byte	0
 4793 0475 00       		.byte	0
 4794 0476 00       		.byte	0
 4795 0477 00       		.byte	0
 4796 0478 00       		.byte	0
 4797 0479 00       		.byte	0
 4798 047a 00       		.byte	0
 4799 047b 00       		.byte	0
 4800 047c 00       		.byte	0
 4801 047d 00       		.byte	0
 4802 047e 00       		.byte	0
 4803 047f 00       		.byte	0
 4804 0480 00       		.byte	0
 4805 0481 00       		.byte	0
 4806 0482 00       		.byte	0
 4807 0483 00       		.byte	0
 4808 0484 00       		.byte	0
 4809 0485 00       		.byte	0
 4810 0486 00       		.byte	0
 4811 0487 00       		.byte	0
 4812 0488 00       		.byte	0
 4813 0489 00       		.byte	0
 4814 048a 00       		.byte	0
 4815 048b 00       		.byte	0
 4816 048c 00       		.byte	0
 4817 048d 00       		.byte	0
 4818 048e 00       		.byte	0
 4819 048f 00       		.byte	0
 4820 0490 00       		.byte	0
 4821 0491 00       		.byte	0
 4822 0492 00       		.byte	0
 4823 0493 00       		.byte	0
 4824 0494 00       		.byte	0
 4825 0495 00       		.byte	0
 4826 0496 00       		.byte	0
 4827 0497 00       		.byte	0
 4828 0498 00       		.byte	0
 4829 0499 00       		.byte	0
 4830 049a 00       		.byte	0
 4831 049b 00       		.byte	0
 4832 049c 00       		.byte	0
 4833 049d 00       		.byte	0
 4834 049e 00       		.byte	0
ARM GAS  /tmp/ccrI0Ik3.s 			page 87


 4835 049f 00       		.byte	0
 4836 04a0 00       		.byte	0
 4837 04a1 00       		.byte	0
 4838 04a2 00       		.byte	0
 4839 04a3 00       		.byte	0
 4840 04a4 00       		.byte	0
 4841 04a5 00       		.byte	0
 4842 04a6 00       		.byte	0
 4843 04a7 00       		.byte	0
 4844 04a8 00       		.byte	0
 4845 04a9 00       		.byte	0
 4846 04aa 00       		.byte	0
 4847 04ab 00       		.byte	0
 4848 04ac 00       		.byte	0
 4849 04ad 00       		.byte	0
 4850 04ae 00       		.byte	0
 4851 04af 00       		.byte	0
 4852 04b0 00       		.byte	0
 4853 04b1 00       		.byte	0
 4854 04b2 00       		.byte	0
 4855 04b3 00       		.byte	0
 4856 04b4 00       		.byte	0
 4857 04b5 00       		.byte	0
 4858 04b6 00       		.byte	0
 4859 04b7 00       		.byte	0
 4860 04b8 00       		.byte	0
 4861 04b9 00       		.byte	0
 4862 04ba 00       		.byte	0
 4863 04bb 00       		.byte	0
 4864 04bc 00       		.byte	0
 4865 04bd 00       		.byte	0
 4866 04be 00       		.byte	0
 4867 04bf 00       		.byte	0
 4868 04c0 00       		.byte	0
 4869 04c1 00       		.byte	0
 4870 04c2 00       		.byte	0
 4871 04c3 00       		.byte	0
 4872 04c4 00       		.byte	0
 4873 04c5 00       		.byte	0
 4874 04c6 00       		.byte	0
 4875 04c7 00       		.byte	0
 4876 04c8 00       		.byte	0
 4877 04c9 00       		.byte	0
 4878 04ca 00       		.byte	0
 4879 04cb 00       		.byte	0
 4880 04cc 00       		.byte	0
 4881 04cd 00       		.byte	0
 4882 04ce 00       		.byte	0
 4883 04cf 00       		.byte	0
 4884 04d0 00       		.byte	0
 4885 04d1 00       		.byte	0
 4886 04d2 00       		.byte	0
 4887 04d3 00       		.byte	0
 4888 04d4 00       		.byte	0
 4889 04d5 00       		.byte	0
 4890 04d6 00       		.byte	0
 4891 04d7 00       		.byte	0
ARM GAS  /tmp/ccrI0Ik3.s 			page 88


 4892 04d8 00       		.byte	0
 4893 04d9 00       		.byte	0
 4894 04da 00       		.byte	0
 4895 04db 00       		.byte	0
 4896 04dc 00       		.byte	0
 4897 04dd 00       		.byte	0
 4898 04de 00       		.byte	0
 4899 04df 00       		.byte	0
 4900 04e0 00       		.byte	0
 4901 04e1 00       		.byte	0
 4902 04e2 00       		.byte	0
 4903 04e3 00       		.byte	0
 4904 04e4 00       		.byte	0
 4905 04e5 00       		.byte	0
 4906 04e6 00       		.byte	0
 4907 04e7 00       		.byte	0
 4908 04e8 00       		.byte	0
 4909 04e9 00       		.byte	0
 4910 04ea 00       		.byte	0
 4911 04eb 00       		.byte	0
 4912 04ec 00       		.byte	0
 4913 04ed 00       		.byte	0
 4914 04ee 00       		.byte	0
 4915 04ef 00       		.byte	0
 4916 04f0 00       		.byte	0
 4917 04f1 00       		.byte	0
 4918 04f2 00       		.byte	0
 4919 04f3 00       		.byte	0
 4920 04f4 00       		.byte	0
 4921 04f5 00       		.byte	0
 4922 04f6 00       		.byte	0
 4923 04f7 00       		.byte	0
 4924 04f8 00       		.byte	0
 4925 04f9 00       		.byte	0
 4926 04fa 00       		.byte	0
 4927 04fb 00       		.byte	0
 4928 04fc 00       		.byte	0
 4929 04fd 00       		.byte	0
 4930 04fe 00       		.byte	0
 4931 04ff 00       		.byte	0
 4932 0500 00       		.byte	0
 4933 0501 00       		.byte	0
 4934 0502 00       		.byte	0
 4935 0503 00       		.byte	0
 4936 0504 00       		.byte	0
 4937 0505 00       		.byte	0
 4938 0506 00       		.byte	0
 4939 0507 00       		.byte	0
 4940 0508 00       		.byte	0
 4941 0509 00       		.byte	0
 4942 050a 00       		.byte	0
 4943 050b 00       		.byte	0
 4944 050c 00       		.byte	0
 4945 050d 00       		.byte	0
 4946 050e 00       		.byte	0
 4947 050f 00       		.byte	0
 4948 0510 00       		.byte	0
ARM GAS  /tmp/ccrI0Ik3.s 			page 89


 4949 0511 00       		.byte	0
 4950 0512 00       		.byte	0
 4951 0513 00       		.byte	0
 4952 0514 00       		.byte	0
 4953 0515 00       		.byte	0
 4954 0516 00       		.byte	0
 4955 0517 00       		.byte	0
 4956 0518 00       		.byte	0
 4957 0519 00       		.byte	0
 4958 051a 00       		.byte	0
 4959 051b 00       		.byte	0
 4960 051c 00       		.byte	0
 4961 051d 00       		.byte	0
 4962 051e 00       		.byte	0
 4963 051f 00       		.byte	0
 4964 0520 00       		.byte	0
 4965 0521 00       		.byte	0
 4966 0522 00       		.byte	0
 4967 0523 00       		.byte	0
 4968 0524 00       		.byte	0
 4969 0525 00       		.byte	0
 4970 0526 00       		.byte	0
 4971 0527 00       		.byte	0
 4972 0528 00       		.byte	0
 4973 0529 00       		.byte	0
 4974 052a 00       		.byte	0
 4975 052b 00       		.byte	0
 4976 052c 00       		.byte	0
 4977 052d 00       		.byte	0
 4978 052e 00       		.byte	0
 4979 052f 00       		.byte	0
 4980 0530 00       		.byte	0
 4981 0531 00       		.byte	0
 4982 0532 00       		.byte	0
 4983 0533 00       		.byte	0
 4984 0534 00       		.byte	0
 4985 0535 00       		.byte	0
 4986 0536 00       		.byte	0
 4987 0537 00       		.byte	0
 4988 0538 00       		.byte	0
 4989 0539 00       		.byte	0
 4990 053a 00       		.byte	0
 4991 053b 00       		.byte	0
 4992 053c 00       		.byte	0
 4993 053d 00       		.byte	0
 4994 053e 00       		.byte	0
 4995 053f 00       		.byte	0
 4996 0540 00       		.byte	0
 4997 0541 00       		.byte	0
 4998 0542 00       		.byte	0
 4999 0543 00       		.byte	0
 5000 0544 00       		.byte	0
 5001 0545 00       		.byte	0
 5002 0546 00       		.byte	0
 5003 0547 00       		.byte	0
 5004 0548 00       		.byte	0
 5005 0549 00       		.byte	0
ARM GAS  /tmp/ccrI0Ik3.s 			page 90


 5006 054a 00       		.byte	0
 5007 054b 00       		.byte	0
 5008 054c 00       		.byte	0
 5009 054d 00       		.byte	0
 5010 054e 00       		.byte	0
 5011 054f 00       		.byte	0
 5012 0550 00       		.byte	0
 5013 0551 00       		.byte	0
 5014 0552 00       		.byte	0
 5015 0553 00       		.byte	0
 5016 0554 00       		.byte	0
 5017 0555 00       		.byte	0
 5018 0556 00       		.byte	0
 5019 0557 00       		.byte	0
 5020 0558 00       		.byte	0
 5021 0559 00       		.byte	0
 5022 055a 00       		.byte	0
 5023 055b 00       		.byte	0
 5024 055c 00       		.byte	0
 5025 055d 00       		.byte	0
 5026 055e 00       		.byte	0
 5027 055f 00       		.byte	0
 5028 0560 00       		.byte	0
 5029 0561 00       		.byte	0
 5030 0562 00       		.byte	0
 5031 0563 00       		.byte	0
 5032 0564 00       		.byte	0
 5033 0565 00       		.byte	0
 5034 0566 00       		.byte	0
 5035 0567 00       		.byte	0
 5036 0568 00       		.byte	0
 5037 0569 00       		.byte	0
 5038 056a 00       		.byte	0
 5039 056b 00       		.byte	0
 5040 056c 00       		.byte	0
 5041 056d 00       		.byte	0
 5042 056e 00       		.byte	0
 5043 056f 00       		.byte	0
 5044 0570 00       		.byte	0
 5045 0571 00       		.byte	0
 5046 0572 00       		.byte	0
 5047 0573 00       		.byte	0
 5048 0574 00       		.byte	0
 5049 0575 00       		.byte	0
 5050 0576 00       		.byte	0
 5051 0577 00       		.byte	0
 5052 0578 00       		.byte	0
 5053 0579 00       		.byte	0
 5054 057a 00       		.byte	0
 5055 057b 00       		.byte	0
 5056 057c 00       		.byte	0
 5057 057d 00       		.byte	0
 5058 057e 00       		.byte	0
 5059 057f 00       		.byte	0
 5060 0580 00       		.byte	0
 5061 0581 00       		.byte	0
 5062 0582 00       		.byte	0
ARM GAS  /tmp/ccrI0Ik3.s 			page 91


 5063 0583 00       		.byte	0
 5064 0584 00       		.byte	0
 5065 0585 00       		.byte	0
 5066 0586 00       		.byte	0
 5067 0587 00       		.byte	0
 5068 0588 00       		.byte	0
 5069 0589 00       		.byte	0
 5070 058a 00       		.byte	0
 5071 058b 00       		.byte	0
 5072 058c 00       		.byte	0
 5073 058d 00       		.byte	0
 5074 058e 00       		.byte	0
 5075 058f 00       		.byte	0
 5076 0590 00       		.byte	0
 5077 0591 00       		.byte	0
 5078 0592 00       		.byte	0
 5079 0593 00       		.byte	0
 5080 0594 00       		.byte	0
 5081 0595 00       		.byte	0
 5082 0596 00       		.byte	0
 5083 0597 00       		.byte	0
 5084 0598 00       		.byte	0
 5085 0599 00       		.byte	0
 5086 059a 00       		.byte	0
 5087 059b 00       		.byte	0
 5088 059c 00       		.byte	0
 5089 059d 00       		.byte	0
 5090 059e 00       		.byte	0
 5091 059f 00       		.byte	0
 5092 05a0 00       		.byte	0
 5093 05a1 00       		.byte	0
 5094 05a2 00       		.byte	0
 5095 05a3 00       		.byte	0
 5096 05a4 00       		.byte	0
 5097 05a5 00       		.byte	0
 5098 05a6 00       		.byte	0
 5099 05a7 00       		.byte	0
 5100 05a8 00       		.byte	0
 5101 05a9 00       		.byte	0
 5102 05aa 00       		.byte	0
 5103 05ab 00       		.byte	0
 5104 05ac 00       		.byte	0
 5105 05ad 00       		.byte	0
 5106 05ae 00       		.byte	0
 5107 05af 00       		.byte	0
 5108 05b0 00       		.byte	0
 5109 05b1 00       		.byte	0
 5110 05b2 00       		.byte	0
 5111 05b3 00       		.byte	0
 5112 05b4 00       		.byte	0
 5113 05b5 00       		.byte	0
 5114 05b6 00       		.byte	0
 5115 05b7 00       		.byte	0
 5116 05b8 00       		.byte	0
 5117 05b9 00       		.byte	0
 5118 05ba 00       		.byte	0
 5119 05bb 00       		.byte	0
ARM GAS  /tmp/ccrI0Ik3.s 			page 92


 5120 05bc 00       		.byte	0
 5121 05bd 00       		.byte	0
 5122 05be 00       		.byte	0
 5123 05bf 00       		.byte	0
 5124 05c0 00       		.byte	0
 5125 05c1 00       		.byte	0
 5126 05c2 00       		.byte	0
 5127 05c3 00       		.byte	0
 5128 05c4 00       		.byte	0
 5129 05c5 00       		.byte	0
 5130 05c6 00       		.byte	0
 5131 05c7 00       		.byte	0
 5132 05c8 00       		.byte	0
 5133 05c9 00       		.byte	0
 5134 05ca 00       		.byte	0
 5135 05cb 00       		.byte	0
 5136 05cc 00       		.byte	0
 5137 05cd 00       		.byte	0
 5138 05ce 00       		.byte	0
 5139 05cf 00       		.byte	0
 5140 05d0 00       		.byte	0
 5141 05d1 00       		.byte	0
 5142 05d2 00       		.byte	0
 5143 05d3 00       		.byte	0
 5144 05d4 00       		.byte	0
 5145 05d5 00       		.byte	0
 5146 05d6 00       		.byte	0
 5147 05d7 00       		.byte	0
 5148 05d8 00       		.byte	0
 5149 05d9 00       		.byte	0
 5150 05da 00       		.byte	0
 5151 05db 00       		.byte	0
 5152 05dc 00       		.byte	0
 5153 05dd 00       		.byte	0
 5154 05de 00       		.byte	0
 5155 05df 00       		.byte	0
 5156 05e0 00       		.byte	0
 5157 05e1 00       		.byte	0
 5158 05e2 00       		.byte	0
 5159 05e3 00       		.byte	0
 5160 05e4 00       		.byte	0
 5161 05e5 00       		.byte	0
 5162 05e6 00       		.byte	0
 5163 05e7 00       		.byte	0
 5164 05e8 00       		.byte	0
 5165 05e9 00       		.byte	0
 5166 05ea 00       		.byte	0
 5167 05eb 00       		.byte	0
 5168 05ec 00       		.byte	0
 5169 05ed 00       		.byte	0
 5170 05ee 00       		.byte	0
 5171 05ef 00       		.byte	0
 5172 05f0 00       		.byte	0
 5173 05f1 00       		.byte	0
 5174 05f2 00       		.byte	0
 5175 05f3 00       		.byte	0
 5176 05f4 00       		.byte	0
ARM GAS  /tmp/ccrI0Ik3.s 			page 93


 5177 05f5 00       		.byte	0
 5178 05f6 00       		.byte	0
 5179 05f7 00       		.byte	0
 5180 05f8 00       		.byte	0
 5181 05f9 00       		.byte	0
 5182 05fa 00       		.byte	0
 5183 05fb 00       		.byte	0
 5184 05fc 00       		.byte	0
 5185 05fd 00       		.byte	0
 5186 05fe 00       		.byte	0
 5187 05ff 00       		.byte	0
 5188 0600 00       		.byte	0
 5189 0601 00       		.byte	0
 5190 0602 00       		.byte	0
 5191 0603 00       		.byte	0
 5192 0604 00       		.byte	0
 5193 0605 00       		.byte	0
 5194 0606 00       		.byte	0
 5195 0607 00       		.byte	0
 5196 0608 00       		.byte	0
 5197 0609 00       		.byte	0
 5198 060a 00       		.byte	0
 5199 060b 00       		.byte	0
 5200              		.bss
 5201              		.align	2
 5204              	EeePExpEEPROM:
 5205 0000 00000000 		.space	1024
 5205      00000000 
 5205      00000000 
 5205      00000000 
 5205      00000000 
 5208              	COM0CBEEPROM:
 5209 0400 00000000 		.space	4096
 5209      00000000 
 5209      00000000 
 5209      00000000 
 5209      00000000 
 5212              	COM0MEEPROM:
 5213 1400 00000000 		.space	2048
 5213      00000000 
 5213      00000000 
 5213      00000000 
 5213      00000000 
 5214              		.section	.data.rel.local,"aw"
 5215              		.align	2
 5216              		.set	.LANCHOR0,. + 0
 5219              	HWMon:
 5220 0000 01000000 		.word	1
 5221 0004 00000000 		.word	0
 5222 0008 00000000 		.word	0
 5223 000c 70020000 		.word	.LC24
 5224 0010 00000000 		.word	HwmonCmdIndx
 5227              	StdExt:
 5228 0014 EC020000 		.word	.LC31
 5229 0018 F0020000 		.word	.LC32
 5230 001c F4020000 		.word	.LC33
 5233              	DIDEEPromData:
ARM GAS  /tmp/ccrI0Ik3.s 			page 94


 5234 0020 00020000 		.word	512
 5235 0024 02000000 		.word	2
 5236 0028 00010000 		.word	256
 5237 002c 00000000 		.word	0
 5238 0030 00000000 		.word	DIDEEPROM
 5239 0034 DC020000 		.word	.LC30
 5240 0038 00000000 		.word	0
 5243              	UDSEEPromData:
 5244 003c 00020000 		.word	512
 5245 0040 02000000 		.word	2
 5246 0044 10000000 		.word	16
 5247 0048 00000000 		.word	0
 5248 004c 00000000 		.word	UDSEEPROM
 5249 0050 CC020000 		.word	.LC29
 5250 0054 00000000 		.word	0
 5253              	EPIEEPromData:
 5254 0058 00020000 		.word	512
 5255 005c 02000000 		.word	2
 5256 0060 10000000 		.word	16
 5257 0064 00000000 		.word	0
 5258 0068 00000000 		.word	EPIEEPROM
 5259 006c BC020000 		.word	.LC28
 5260 0070 00000000 		.word	0
 5263              	EeePExpEEPromData:
 5264 0074 00040000 		.word	1024
 5265 0078 01000000 		.word	1
 5266 007c 08000000 		.word	8
 5267 0080 00000000 		.word	0
 5268 0084 00000000 		.word	EeePExpEEPROM
 5269 0088 78020000 		.word	.LC25
 5270 008c 00000000 		.word	0
 5273              	COM0CBEEPromData:
 5274 0090 00100000 		.word	4096
 5275 0094 02000000 		.word	2
 5276 0098 40000000 		.word	64
 5277 009c 00000000 		.word	0
 5278 00a0 00000000 		.word	COM0CBEEPROM
 5279 00a4 8C020000 		.word	.LC26
 5280 00a8 00000000 		.word	0
 5283              	COM0MEEPromData:
 5284 00ac 00080000 		.word	2048
 5285 00b0 02000000 		.word	2
 5286 00b4 10000000 		.word	16
 5287 00b8 00000000 		.word	0
 5288 00bc 00000000 		.word	COM0MEEPROM
 5289 00c0 A4020000 		.word	.LC27
 5290 00c4 00000000 		.word	0
 5293              	OpenFiles:
 5294 00c8 74000000 		.word	EeePExpEEPromData
 5295 00cc 90000000 		.word	COM0CBEEPromData
 5296 00d0 AC000000 		.word	COM0MEEPromData
 5297 00d4 58000000 		.word	EPIEEPromData
 5298 00d8 3C000000 		.word	UDSEEPromData
 5299 00dc 20000000 		.word	DIDEEPromData
 5302              	HwmonCmdIndx:
 5303 00e0 10000000 		.word	16
 5304 00e4 01000000 		.word	1
ARM GAS  /tmp/ccrI0Ik3.s 			page 95


 5305 00e8 00000000 		.word	CpuTemp
 5306 00ec 11000000 		.word	17
 5307 00f0 01000000 		.word	1
 5308 00f4 00000000 		.word	ChipsetTemp
 5309 00f8 12000000 		.word	18
 5310 00fc 01000000 		.word	1
 5311 0100 00000000 		.word	SystemTemp
 5312 0104 FFFFFFFF 		.word	-1
 5313 0108 00000000 		.word	0
 5314 010c 00000000 		.word	0
 5315              		.section	.data.rel.ro.local,"aw"
 5316              		.align	2
 5317              		.set	.LANCHOR1,. + 0
 5320              	EmulatedInterfaces:
 5321 0000 00000000 		.word	0
 5322 0004 00000000 		.word	ExternalI2CDevices
 5323 0008 00000100 		.word	65536
 5324 000c 01000000 		.word	1
 5325 0010 00000000 		.word	LVDS_1I2CDevices
 5326 0014 00010000 		.word	256
 5327 0018 02000000 		.word	2
 5328 001c 00000000 		.word	LVDS_2I2CDevices
 5329 0020 20000000 		.word	32
 5332              	LVDS_2I2CDevices:
 5333 0024 A0000000 		.word	160
 5334 0028 00000000 		.word	EmulateEPIEeprom
 5335 002c 00000000 		.word	0
 5336 0030 A4000000 		.word	164
 5337 0034 00000000 		.word	EmulateDIDEeprom
 5338 0038 00000000 		.word	0
 5339 003c FFFFFFFF 		.word	-1
 5340 0040 00000000 		.word	0
 5341 0044 00000000 		.word	0
 5344              	LVDS_1I2CDevices:
 5345 0048 A0000000 		.word	160
 5346 004c 00000000 		.word	EmulateUDSEeprom
 5347 0050 00000000 		.word	0
 5348 0054 A4000000 		.word	164
 5349 0058 00000000 		.word	EmulateDIDEeprom
 5350 005c 00000000 		.word	0
 5351 0060 55F20000 		.word	62037
 5352 0064 00000000 		.word	EmulateDIDEeprom
 5353 0068 00000000 		.word	0
 5354 006c FFFFFFFF 		.word	-1
 5355 0070 00000000 		.word	0
 5356 0074 00000000 		.word	0
 5359              	ExternalI2CDevices:
 5360 0078 52000000 		.word	82
 5361 007c 00000000 		.word	EmulateHWMonDevice
 5362 0080 00000000 		.word	0
 5363 0084 A0000000 		.word	160
 5364 0088 00000000 		.word	EmulateCOM0MEeprom
 5365 008c 00000000 		.word	0
 5366 0090 A2000000 		.word	162
 5367 0094 00000000 		.word	EmulateEeePExpEeprom
 5368 0098 00000000 		.word	0
 5369 009c A4000000 		.word	164
ARM GAS  /tmp/ccrI0Ik3.s 			page 96


 5370 00a0 00000000 		.word	EmulateEeePExpEeprom
 5371 00a4 01000000 		.word	1
 5372 00a8 A6000000 		.word	166
 5373 00ac 00000000 		.word	EmulateEeePExpEeprom
 5374 00b0 02000000 		.word	2
 5375 00b4 A8000000 		.word	168
 5376 00b8 00000000 		.word	EmulateEeePExpEeprom
 5377 00bc 03000000 		.word	3
 5378 00c0 AE000000 		.word	174
 5379 00c4 00000000 		.word	EmulateCOM0CBEeprom
 5380 00c8 00000000 		.word	0
 5381 00cc FFFFFFFF 		.word	-1
 5382 00d0 00000000 		.word	0
 5383 00d4 00000000 		.word	0
 5384              		.ident	"GCC: (Buildroot 2022.02) 11.2.0"
 5385              		.section	.note.GNU-stack,"",%progbits
ARM GAS  /tmp/ccrI0Ik3.s 			page 97

