Archive member included to satisfy reference by file (symbol)

/home/hkh/buildroot-2022.02/output/host/lib/gcc/arm-buildroot-linux-musleabihf/11.2.0/libgcc.a(_udivsi3.o)
                              build/armv71/dbg/EApi.1.0.o (__aeabi_uidivmod)
/home/hkh/buildroot-2022.02/output/host/lib/gcc/arm-buildroot-linux-musleabihf/11.2.0/libgcc.a(_dvmd_lnx.o)
                              /home/hkh/buildroot-2022.02/output/host/lib/gcc/arm-buildroot-linux-musleabihf/11.2.0/libgcc.a(_udivsi3.o) (__aeabi_idiv0)

Discarded input sections

 .note.GNU-stack
                0x0000000000000000        0x0 /home/hkh/buildroot-2022.02/output/host/arm-buildroot-linux-musleabihf/sysroot/lib/crti.o
 .note.GNU-stack
                0x0000000000000000        0x0 /home/hkh/buildroot-2022.02/output/host/lib/gcc/arm-buildroot-linux-musleabihf/11.2.0/crtbeginS.o
 .note.GNU-stack
                0x0000000000000000        0x0 build/armv71/dbg/EApi.1.0.o
 .note.GNU-stack
                0x0000000000000000        0x0 build/armv71/dbg/interp.o
 .note.GNU-stack
                0x0000000000000000        0x0 build/armv71/dbg/Message.o
 .note.GNU-stack
                0x0000000000000000        0x0 /home/hkh/buildroot-2022.02/output/host/lib/gcc/arm-buildroot-linux-musleabihf/11.2.0/libgcc.a(_udivsi3.o)
 .note.GNU-stack
                0x0000000000000000        0x0 /home/hkh/buildroot-2022.02/output/host/lib/gcc/arm-buildroot-linux-musleabihf/11.2.0/libgcc.a(_dvmd_lnx.o)
 .note.GNU-stack
                0x0000000000000000        0x0 /home/hkh/buildroot-2022.02/output/host/lib/gcc/arm-buildroot-linux-musleabihf/11.2.0/crtendS.o
 .note.GNU-stack
                0x0000000000000000        0x0 /home/hkh/buildroot-2022.02/output/host/arm-buildroot-linux-musleabihf/sysroot/lib/crtn.o

Memory Configuration

Name             Origin             Length             Attributes
*default*        0x0000000000000000 0xffffffffffffffff

Linker script and memory map

LOAD /home/hkh/buildroot-2022.02/output/host/arm-buildroot-linux-musleabihf/sysroot/lib/crti.o
LOAD /home/hkh/buildroot-2022.02/output/host/lib/gcc/arm-buildroot-linux-musleabihf/11.2.0/crtbeginS.o
LOAD build/armv71/dbg/EApi.1.0.o
LOAD build/armv71/dbg/interp.o
LOAD build/armv71/dbg/Message.o
LOAD /home/hkh/buildroot-2022.02/output/host/lib/gcc/arm-buildroot-linux-musleabihf/11.2.0/libgcc.a
LOAD /home/hkh/buildroot-2022.02/output/host/lib/gcc/arm-buildroot-linux-musleabihf/11.2.0/../../../../arm-buildroot-linux-musleabihf/lib/libgcc_s.so
START GROUP
LOAD /home/hkh/buildroot-2022.02/output/host/lib/gcc/arm-buildroot-linux-musleabihf/11.2.0/../../../../arm-buildroot-linux-musleabihf/lib/libgcc_s.so.1
LOAD /home/hkh/buildroot-2022.02/output/host/lib/gcc/arm-buildroot-linux-musleabihf/11.2.0/libgcc.a
END GROUP
LOAD /home/hkh/buildroot-2022.02/output/host/arm-buildroot-linux-musleabihf/sysroot/lib/libc.so
LOAD /home/hkh/buildroot-2022.02/output/host/lib/gcc/arm-buildroot-linux-musleabihf/11.2.0/libgcc.a
LOAD /home/hkh/buildroot-2022.02/output/host/lib/gcc/arm-buildroot-linux-musleabihf/11.2.0/../../../../arm-buildroot-linux-musleabihf/lib/libgcc_s.so
START GROUP
LOAD /home/hkh/buildroot-2022.02/output/host/lib/gcc/arm-buildroot-linux-musleabihf/11.2.0/../../../../arm-buildroot-linux-musleabihf/lib/libgcc_s.so.1
LOAD /home/hkh/buildroot-2022.02/output/host/lib/gcc/arm-buildroot-linux-musleabihf/11.2.0/libgcc.a
END GROUP
LOAD /home/hkh/buildroot-2022.02/output/host/lib/gcc/arm-buildroot-linux-musleabihf/11.2.0/crtendS.o
LOAD /home/hkh/buildroot-2022.02/output/host/arm-buildroot-linux-musleabihf/sysroot/lib/crtn.o
                0x0000000000000114                . = (SEGMENT_START ("text-segment", 0x0) + SIZEOF_HEADERS)

.note.gnu.build-id
 *(.note.gnu.build-id)

.hash           0x0000000000000114      0x194
 *(.hash)
 .hash          0x0000000000000114      0x194 /home/hkh/buildroot-2022.02/output/host/arm-buildroot-linux-musleabihf/sysroot/lib/crti.o

.gnu.hash       0x00000000000002a8       0xec
 *(.gnu.hash)
 .gnu.hash      0x00000000000002a8       0xec /home/hkh/buildroot-2022.02/output/host/arm-buildroot-linux-musleabihf/sysroot/lib/crti.o

.dynsym         0x0000000000000394      0x3e0
 *(.dynsym)
 .dynsym        0x0000000000000394      0x3e0 /home/hkh/buildroot-2022.02/output/host/arm-buildroot-linux-musleabihf/sysroot/lib/crti.o

.dynstr         0x0000000000000774      0x36c
 *(.dynstr)
 .dynstr        0x0000000000000774      0x36c /home/hkh/buildroot-2022.02/output/host/arm-buildroot-linux-musleabihf/sysroot/lib/crti.o

.gnu.version    0x0000000000000ae0        0x0
 *(.gnu.version)
 .gnu.version   0x0000000000000ae0        0x0 /home/hkh/buildroot-2022.02/output/host/arm-buildroot-linux-musleabihf/sysroot/lib/crti.o

.gnu.version_d  0x0000000000000ae0        0x0
 *(.gnu.version_d)
 .gnu.version_d
                0x0000000000000ae0        0x0 /home/hkh/buildroot-2022.02/output/host/arm-buildroot-linux-musleabihf/sysroot/lib/crti.o

.gnu.version_r  0x0000000000000ae0        0x0
 *(.gnu.version_r)
 .gnu.version_r
                0x0000000000000ae0        0x0 /home/hkh/buildroot-2022.02/output/host/arm-buildroot-linux-musleabihf/sysroot/lib/crti.o

.rel.dyn        0x0000000000000ae0      0x380
 *(.rel.init)
 *(.rel.text .rel.text.* .rel.gnu.linkonce.t.*)
 .rel.text      0x0000000000000ae0        0x0 /home/hkh/buildroot-2022.02/output/host/arm-buildroot-linux-musleabihf/sysroot/lib/crti.o
 *(.rel.fini)
 *(.rel.rodata .rel.rodata.* .rel.gnu.linkonce.r.*)
 *(.rel.data.rel.ro .rel.data.rel.ro.* .rel.gnu.linkonce.d.rel.ro.*)
 .rel.data.rel.ro.local
                0x0000000000000ae0      0x200 /home/hkh/buildroot-2022.02/output/host/arm-buildroot-linux-musleabihf/sysroot/lib/crti.o
 *(.rel.data .rel.data.* .rel.gnu.linkonce.d.*)
 .rel.data.rel.local
                0x0000000000000ce0      0x118 /home/hkh/buildroot-2022.02/output/host/arm-buildroot-linux-musleabihf/sysroot/lib/crti.o
 *(.rel.tdata .rel.tdata.* .rel.gnu.linkonce.td.*)
 *(.rel.tbss .rel.tbss.* .rel.gnu.linkonce.tb.*)
 *(.rel.ctors)
 *(.rel.dtors)
 *(.rel.got)
 .rel.got       0x0000000000000df8       0x48 /home/hkh/buildroot-2022.02/output/host/arm-buildroot-linux-musleabihf/sysroot/lib/crti.o
 *(.rel.bss .rel.bss.* .rel.gnu.linkonce.b.*)
 *(.rel.iplt)
 .rel.iplt      0x0000000000000e40        0x0 /home/hkh/buildroot-2022.02/output/host/arm-buildroot-linux-musleabihf/sysroot/lib/crti.o
 .rel.init_array
                0x0000000000000e40       0x10 /home/hkh/buildroot-2022.02/output/host/arm-buildroot-linux-musleabihf/sysroot/lib/crti.o
 .rel.fini_array
                0x0000000000000e50       0x10 /home/hkh/buildroot-2022.02/output/host/arm-buildroot-linux-musleabihf/sysroot/lib/crti.o

.rela.dyn
 *(.rela.init)
 *(.rela.text .rela.text.* .rela.gnu.linkonce.t.*)
 *(.rela.fini)
 *(.rela.rodata .rela.rodata.* .rela.gnu.linkonce.r.*)
 *(.rela.data .rela.data.* .rela.gnu.linkonce.d.*)
 *(.rela.tdata .rela.tdata.* .rela.gnu.linkonce.td.*)
 *(.rela.tbss .rela.tbss.* .rela.gnu.linkonce.tb.*)
 *(.rela.ctors)
 *(.rela.dtors)
 *(.rela.got)
 *(.rela.bss .rela.bss.* .rela.gnu.linkonce.b.*)
 *(.rela.iplt)

.rel.plt        0x0000000000000e60       0xe8
 *(.rel.plt)
 .rel.plt       0x0000000000000e60       0xe8 /home/hkh/buildroot-2022.02/output/host/arm-buildroot-linux-musleabihf/sysroot/lib/crti.o

.rela.plt
 *(.rela.plt)

.init           0x0000000000000f48        0xc
 *(SORT_NONE(.init))
 .init          0x0000000000000f48        0x4 /home/hkh/buildroot-2022.02/output/host/arm-buildroot-linux-musleabihf/sysroot/lib/crti.o
                0x0000000000000f48                _init
 .init          0x0000000000000f4c        0x8 /home/hkh/buildroot-2022.02/output/host/arm-buildroot-linux-musleabihf/sysroot/lib/crtn.o

.plt            0x0000000000000f54      0x170
 *(.plt)
 .plt           0x0000000000000f54      0x170 /home/hkh/buildroot-2022.02/output/host/arm-buildroot-linux-musleabihf/sysroot/lib/crti.o

.iplt           0x00000000000010c4        0x0
 *(.iplt)
 .iplt          0x00000000000010c4        0x0 /home/hkh/buildroot-2022.02/output/host/arm-buildroot-linux-musleabihf/sysroot/lib/crti.o

.text           0x00000000000010c4     0x7804
 *(.text.unlikely .text.*_unlikely .text.unlikely.*)
 *(.text.exit .text.exit.*)
 *(.text.startup .text.startup.*)
 *(.text.hot .text.hot.*)
 *(SORT_BY_NAME(.text.sorted.*))
 *(.text .stub .text.* .gnu.linkonce.t.*)
 .text          0x00000000000010c4        0x0 /home/hkh/buildroot-2022.02/output/host/arm-buildroot-linux-musleabihf/sysroot/lib/crti.o
 .text          0x00000000000010c4      0x168 /home/hkh/buildroot-2022.02/output/host/lib/gcc/arm-buildroot-linux-musleabihf/11.2.0/crtbeginS.o
 .text          0x000000000000122c     0x7574 build/armv71/dbg/EApi.1.0.o
                0x000000000000122c                EApiReadIO32
                0x000000000000127c                EApiWriteIO32
                0x00000000000012d0                EApiWriteIO32Delay
                0x0000000000001304                EApiReadIO32Delay
                0x0000000000001334                EApiGPIOGetLevelEmul
                0x0000000000001784                EApiGPIOSetLevelEmul
                0x0000000000001f2c                EApiGPIOGetDirectionEmul
                0x000000000000237c                EApiGPIOSetDirectionEmul
                0x0000000000002b00                EApiGPIOGetDirectionCapsEmul
                0x0000000000002c6c                EmulateEepromFS
                0x0000000000003324                EmulateCmdDevice
                0x0000000000003714                EmulateDIDEeprom
                0x000000000000376c                EmulateUDSEeprom
                0x00000000000037c4                EmulateEPIEeprom
                0x000000000000381c                OpenI2CEepromFiles
                0x0000000000003990                CloseI2CEepromFiles
                0x0000000000003a24                EmulateEeePExpEeprom
                0x0000000000003a7c                EmulateCOM0CBEeprom
                0x0000000000003ad4                EmulateCOM0MEeprom
                0x0000000000003b2c                EmulateHWMonDevice
                0x0000000000003b84                EApiI2CGetBusCapEmul
                0x0000000000003cec                EApiI2CWriteReadEmul
                0x00000000000041a8                DebugMsg
                0x00000000000042ac                EApiInitLib
                0x000000000000434c                EApiUninitLib
                0x0000000000004424                EApiVgaGetBacklightEnableEmul
                0x000000000000458c                EApiVgaSetBacklightEnableEmul
                0x00000000000046f0                EApiVgaGetBacklightBrightnessEmul
                0x0000000000004858                EApiVgaSetBacklightBrightnessEmul
                0x00000000000049bc                EApiBoardGetStringAEmul
                0x0000000000004c10                EApiBoardGetValueEmul
                0x0000000000004d54                EApiStorageCapEmul
                0x0000000000004ea4                EApiStorageAreaReadEmul
                0x0000000000005084                EApiStorageAreaWriteEmul
                0x000000000000536c                OpenEepromFiles
                0x00000000000054a8                CloseEepromFiles
                0x000000000000552c                EApiWDogGetCapEmul
                0x00000000000055e4                EApiWDogStartEmul
                0x000000000000583c                EApiWDogTriggerEmul
                0x0000000000005928                EApiWDogStopEmul
                0x0000000000005a00                EApiSleepns
                0x0000000000005a38                EApiI2CGetBusCap
                0x0000000000005b40                EApiI2CWriteReadRaw
                0x0000000000005eec                EApiI2CReadTransfer
                0x0000000000006348                EApiI2CWriteTransfer
                0x000000000000681c                EApiI2CProbeDevice
                0x00000000000069c0                EApiBoardGetStringA
                0x0000000000006b4c                EApiBoardGetValue
                0x0000000000006ccc                EApiVgaGetBacklightEnable
                0x0000000000006ddc                EApiVgaSetBacklightEnable
                0x0000000000006ef8                EApiVgaGetBacklightBrightness
                0x0000000000007008                EApiVgaSetBacklightBrightness
                0x0000000000007118                EApiGPIOGetLevel
                0x0000000000007294                EApiGPIOSetLevel
                0x00000000000073ac                EApiGPIOGetDirection
                0x0000000000007528                EApiGPIOSetDirection
                0x0000000000007640                EApiGPIOGetDirectionCaps
                0x00000000000077dc                EApiLibInitialize
                0x00000000000078e0                EApiLibUnInitialize
                0x00000000000079e4                EApiWDogGetCap
                0x0000000000007ba0                EApiWDogStart
                0x0000000000007c54                EApiWDogTrigger
                0x0000000000007cf0                EApiWDogStop
                0x0000000000007d8c                EApiStorageCap
                0x0000000000007f28                EApiStorageAreaRead
                0x00000000000081fc                EApiStorageAreaWrite
                0x00000000000083dc                EApiGetErrorStringA
                0x0000000000008478                GetLastOccurance
                0x00000000000084e4                siFormattedMessage_M2
                0x0000000000008624                siFormattedMessage_SC
 .text          0x00000000000087a0        0x0 build/armv71/dbg/interp.o
 .text          0x00000000000087a0       0x50 build/armv71/dbg/Message.o
                0x00000000000087a0                EApiMain
 .text          0x00000000000087f0       0xc8 /home/hkh/buildroot-2022.02/output/host/lib/gcc/arm-buildroot-linux-musleabihf/11.2.0/libgcc.a(_udivsi3.o)
                0x00000000000087f0                __udivsi3
                0x00000000000087f0                __aeabi_uidiv
                0x0000000000008898                __aeabi_uidivmod
 .text          0x00000000000088b8       0x10 /home/hkh/buildroot-2022.02/output/host/lib/gcc/arm-buildroot-linux-musleabihf/11.2.0/libgcc.a(_dvmd_lnx.o)
                0x00000000000088b8                __aeabi_ldiv0
                0x00000000000088b8                __aeabi_idiv0
 .text          0x00000000000088c8        0x0 /home/hkh/buildroot-2022.02/output/host/lib/gcc/arm-buildroot-linux-musleabihf/11.2.0/crtendS.o
 .text          0x00000000000088c8        0x0 /home/hkh/buildroot-2022.02/output/host/arm-buildroot-linux-musleabihf/sysroot/lib/crtn.o
 *(.gnu.warning)
 *(.glue_7t)
 .glue_7t       0x00000000000088c8        0x0 linker stubs
 *(.glue_7)
 .glue_7        0x00000000000088c8        0x0 linker stubs
 *(.vfp11_veneer)
 .vfp11_veneer  0x00000000000088c8        0x0 linker stubs
 *(.v4_bx)
 .v4_bx         0x00000000000088c8        0x0 linker stubs

.fini           0x00000000000088c8        0xc
 *(SORT_NONE(.fini))
 .fini          0x00000000000088c8        0x4 /home/hkh/buildroot-2022.02/output/host/arm-buildroot-linux-musleabihf/sysroot/lib/crti.o
                0x00000000000088c8                _fini
 .fini          0x00000000000088cc        0x8 /home/hkh/buildroot-2022.02/output/host/arm-buildroot-linux-musleabihf/sysroot/lib/crtn.o
                [!provide]                        PROVIDE (__etext = .)
                [!provide]                        PROVIDE (_etext = .)
                [!provide]                        PROVIDE (etext = .)

.rodata         0x00000000000088d4     0x1394
 *(.rodata .rodata.* .gnu.linkonce.r.*)
 .rodata        0x00000000000088d4       0x90 /home/hkh/buildroot-2022.02/output/host/lib/gcc/arm-buildroot-linux-musleabihf/11.2.0/crtbeginS.o
 .rodata        0x0000000000008964     0x1271 build/armv71/dbg/EApi.1.0.o
                0x000000000000907c                ValueLookup
                0x0000000000009b94                cszLogFormat
 *fill*         0x0000000000009bd5        0x3 
 .rodata        0x0000000000009bd8       0x90 /home/hkh/buildroot-2022.02/output/host/lib/gcc/arm-buildroot-linux-musleabihf/11.2.0/crtendS.o

.interp         0x0000000000009c68       0x1c
 .interp        0x0000000000009c68       0x1c build/armv71/dbg/interp.o
                0x0000000000009c68                __invoke_dynamic_linker__

.rodata1
 *(.rodata1)

.ARM.extab
 *(.ARM.extab* .gnu.linkonce.armextab.*)

.ARM.exidx      0x0000000000009c84        0x0
                [!provide]                        PROVIDE (__exidx_start = .)
 *(.ARM.exidx* .gnu.linkonce.armexidx.*)
                [!provide]                        PROVIDE (__exidx_end = .)

.eh_frame_hdr
 *(.eh_frame_hdr)
 *(.eh_frame_entry .eh_frame_entry.*)

.eh_frame       0x0000000000009c84        0x4
 *(.eh_frame)
 .eh_frame      0x0000000000009c84        0x0 /home/hkh/buildroot-2022.02/output/host/lib/gcc/arm-buildroot-linux-musleabihf/11.2.0/crtbeginS.o
 .eh_frame      0x0000000000009c84        0x4 /home/hkh/buildroot-2022.02/output/host/lib/gcc/arm-buildroot-linux-musleabihf/11.2.0/crtendS.o
 *(.eh_frame.*)

.gcc_except_table
 *(.gcc_except_table .gcc_except_table.*)

.gnu_extab
 *(.gnu_extab*)

.exception_ranges
 *(.exception_ranges*)
                0x000000000001ab74                . = DATA_SEGMENT_ALIGN (CONSTANT (MAXPAGESIZE), CONSTANT (COMMONPAGESIZE))

.eh_frame
 *(.eh_frame)
 *(.eh_frame.*)

.gnu_extab
 *(.gnu_extab)

.gcc_except_table
 *(.gcc_except_table .gcc_except_table.*)

.exception_ranges
 *(.exception_ranges*)

.tdata
 *(.tdata .tdata.* .gnu.linkonce.td.*)

.tbss
 *(.tbss .tbss.* .gnu.linkonce.tb.*)
 *(.tcommon)

.preinit_array
 *(.preinit_array)

.init_array     0x000000000001ab74        0x8
 *(SORT_BY_INIT_PRIORITY(.init_array.*) SORT_BY_INIT_PRIORITY(.ctors.*))
 *(.init_array EXCLUDE_FILE(*crtend?.o *crtend.o *crtbegin?.o *crtbegin.o) .ctors)
 .init_array    0x000000000001ab74        0x4 /home/hkh/buildroot-2022.02/output/host/lib/gcc/arm-buildroot-linux-musleabihf/11.2.0/crtbeginS.o
 .init_array    0x000000000001ab78        0x4 build/armv71/dbg/EApi.1.0.o

.fini_array     0x000000000001ab7c        0x8
 *(SORT_BY_INIT_PRIORITY(.fini_array.*) SORT_BY_INIT_PRIORITY(.dtors.*))
 *(.fini_array EXCLUDE_FILE(*crtend?.o *crtend.o *crtbegin?.o *crtbegin.o) .dtors)
 .fini_array    0x000000000001ab7c        0x4 /home/hkh/buildroot-2022.02/output/host/lib/gcc/arm-buildroot-linux-musleabihf/11.2.0/crtbeginS.o
 .fini_array    0x000000000001ab80        0x4 build/armv71/dbg/EApi.1.0.o

.ctors
 *crtbegin.o(.ctors)
 *crtbegin?.o(.ctors)
 *(EXCLUDE_FILE(*crtend?.o *crtend.o) .ctors)
 *(SORT_BY_NAME(.ctors.*))
 *(.ctors)

.dtors
 *crtbegin.o(.dtors)
 *crtbegin?.o(.dtors)
 *(EXCLUDE_FILE(*crtend?.o *crtend.o) .dtors)
 *(SORT_BY_NAME(.dtors.*))
 *(.dtors)

.jcr
 *(.jcr)

.data.rel.ro    0x000000000001ab84      0x2f0
 *(.data.rel.ro.local* .gnu.linkonce.d.rel.ro.local.*)
 .data.rel.ro.local
                0x000000000001ab84      0x2f0 build/armv71/dbg/EApi.1.0.o
                0x000000000001ab84                GpioMappingID0
                0x000000000001abcc                GpioMappingID1
                0x000000000001abdc                GpioMappingID2
                0x000000000001abec                GpioMappingID3
                0x000000000001abfc                GpioMappingID4
                0x000000000001ac0c                GpioMappingID5
                0x000000000001ac1c                GpioMappingID6
                0x000000000001ac2c                GpioMappingID7
                0x000000000001ac3c                GpioMappingID8
                0x000000000001ac4c                GPIOIDMapping
                0x000000000001acdc                ExternalI2CDevices
                0x000000000001ad3c                LVDS_1I2CDevices
                0x000000000001ad6c                LVDS_2I2CDevices
                0x000000000001ad90                EmulatedInterfaces
                0x000000000001adb4                StringLookup
                0x000000000001addc                ErrorLookupA
 *(.data.rel.ro .data.rel.ro.* .gnu.linkonce.d.rel.ro.*)
 .data.rel.ro   0x000000000001ae74        0x0 /home/hkh/buildroot-2022.02/output/host/arm-buildroot-linux-musleabihf/sysroot/lib/crti.o

.dynamic        0x000000000001ae74       0xe8
 *(.dynamic)
 .dynamic       0x000000000001ae74       0xe8 /home/hkh/buildroot-2022.02/output/host/arm-buildroot-linux-musleabihf/sysroot/lib/crti.o
                0x000000000001ae74                _DYNAMIC

.got            0x000000000001af5c       0xa4
 *(.got.plt)
 .got.plt       0x000000000001af5c       0x80 /home/hkh/buildroot-2022.02/output/host/arm-buildroot-linux-musleabihf/sysroot/lib/crti.o
                0x000000000001af5c                _GLOBAL_OFFSET_TABLE_
 *(.igot.plt)
 .igot.plt      0x000000000001afdc        0x0 /home/hkh/buildroot-2022.02/output/host/arm-buildroot-linux-musleabihf/sysroot/lib/crti.o
 *(.got)
 .got           0x000000000001afdc       0x24 /home/hkh/buildroot-2022.02/output/host/arm-buildroot-linux-musleabihf/sysroot/lib/crti.o
 *(.igot)
                0x000000000001b000                . = DATA_SEGMENT_RELRO_END (., 0x0)

.data           0x000000000001b000      0x933
                [!provide]                        PROVIDE (__data_start = .)
 *(.data .data.* .gnu.linkonce.d.*)
 .data          0x000000000001b000        0x0 /home/hkh/buildroot-2022.02/output/host/arm-buildroot-linux-musleabihf/sysroot/lib/crti.o
 .data          0x000000000001b000        0x0 /home/hkh/buildroot-2022.02/output/host/lib/gcc/arm-buildroot-linux-musleabihf/11.2.0/crtbeginS.o
 .data.rel.local
                0x000000000001b000        0x4 /home/hkh/buildroot-2022.02/output/host/lib/gcc/arm-buildroot-linux-musleabihf/11.2.0/crtbeginS.o
                0x000000000001b000                __dso_handle
 .data          0x000000000001b004      0x634 build/armv71/dbg/EApi.1.0.o
                0x000000000001b014                DIDEEPROM
                0x000000000001b214                UDSEEPROM
                0x000000000001b414                EPIEEPROM
                0x000000000001b614                CpuTemp
                0x000000000001b618                ChipsetTemp
                0x000000000001b61c                SystemTemp
 .data.rel.local
                0x000000000001b638      0x178 build/armv71/dbg/EApi.1.0.o
                0x000000000001b638                Port1Desc
                0x000000000001b654                Port2Desc
                0x000000000001b670                StdExt
                0x000000000001b724                OpenFiles
                0x000000000001b73c                HwmonCmdIndx
                0x000000000001b76c                HWMon
                0x000000000001b780                StorageAreaTbl
 .data          0x000000000001b7b0        0x0 build/armv71/dbg/interp.o
 .data          0x000000000001b7b0      0x183 build/armv71/dbg/Message.o
                0x000000000001b7b0                Header
 .data          0x000000000001b933        0x0 /home/hkh/buildroot-2022.02/output/host/lib/gcc/arm-buildroot-linux-musleabihf/11.2.0/libgcc.a(_udivsi3.o)
 .data          0x000000000001b933        0x0 /home/hkh/buildroot-2022.02/output/host/lib/gcc/arm-buildroot-linux-musleabihf/11.2.0/libgcc.a(_dvmd_lnx.o)
 .data          0x000000000001b933        0x0 /home/hkh/buildroot-2022.02/output/host/lib/gcc/arm-buildroot-linux-musleabihf/11.2.0/crtendS.o
 .data          0x000000000001b933        0x0 /home/hkh/buildroot-2022.02/output/host/arm-buildroot-linux-musleabihf/sysroot/lib/crtn.o

.tm_clone_table
                0x000000000001b934        0x0
 .tm_clone_table
                0x000000000001b934        0x0 /home/hkh/buildroot-2022.02/output/host/lib/gcc/arm-buildroot-linux-musleabihf/11.2.0/crtbeginS.o
 .tm_clone_table
                0x000000000001b934        0x0 /home/hkh/buildroot-2022.02/output/host/lib/gcc/arm-buildroot-linux-musleabihf/11.2.0/crtendS.o

.data1
 *(.data1)
                [!provide]                        PROVIDE (_edata = .)
                [!provide]                        PROVIDE (edata = .)
                0x000000000001b934                . = .
                [!provide]                        PROVIDE (__bss_start = .)
                [!provide]                        PROVIDE (__bss_start__ = .)

.bss            0x000000000001b934     0x2c48
 *(.dynbss)
 .dynbss        0x000000000001b934        0x0 /home/hkh/buildroot-2022.02/output/host/arm-buildroot-linux-musleabihf/sysroot/lib/crti.o
 *(.bss .bss.* .gnu.linkonce.b.*)
 .bss           0x000000000001b934        0x0 /home/hkh/buildroot-2022.02/output/host/arm-buildroot-linux-musleabihf/sysroot/lib/crti.o
 .bss           0x000000000001b934       0x1c /home/hkh/buildroot-2022.02/output/host/lib/gcc/arm-buildroot-linux-musleabihf/11.2.0/crtbeginS.o
 .bss           0x000000000001b950     0x2c2c build/armv71/dbg/EApi.1.0.o
                0x000000000001b950                COM0MEEPROM
                0x000000000001c150                COM0CBEEPROM
                0x000000000001d150                EeePExpEEPROM
                0x000000000001d550                OutputStream
                0x000000000001e578                Initialized
 .bss           0x000000000001e57c        0x0 build/armv71/dbg/interp.o
 .bss           0x000000000001e57c        0x0 build/armv71/dbg/Message.o
 .bss           0x000000000001e57c        0x0 /home/hkh/buildroot-2022.02/output/host/lib/gcc/arm-buildroot-linux-musleabihf/11.2.0/libgcc.a(_udivsi3.o)
 .bss           0x000000000001e57c        0x0 /home/hkh/buildroot-2022.02/output/host/lib/gcc/arm-buildroot-linux-musleabihf/11.2.0/libgcc.a(_dvmd_lnx.o)
 .bss           0x000000000001e57c        0x0 /home/hkh/buildroot-2022.02/output/host/lib/gcc/arm-buildroot-linux-musleabihf/11.2.0/crtendS.o
 .bss           0x000000000001e57c        0x0 /home/hkh/buildroot-2022.02/output/host/arm-buildroot-linux-musleabihf/sysroot/lib/crtn.o
 *(COMMON)
                0x000000000001e57c                . = ALIGN ((. != 0x0)?0x4:0x1)
                [!provide]                        PROVIDE (_bss_end__ = .)
                [!provide]                        PROVIDE (__bss_end__ = .)
                0x000000000001e57c                . = ALIGN (0x4)
                0x000000000001e57c                . = SEGMENT_START ("ldata-segment", .)
                0x000000000001e57c                . = ALIGN (0x4)
                [!provide]                        PROVIDE (__end__ = .)
                [!provide]                        PROVIDE (_end = .)
                [!provide]                        PROVIDE (end = .)
                0x000000000001e57c                . = DATA_SEGMENT_END (.)

.stab
 *(.stab)

.stabstr
 *(.stabstr)

.stab.excl
 *(.stab.excl)

.stab.exclstr
 *(.stab.exclstr)

.stab.index
 *(.stab.index)

.stab.indexstr
 *(.stab.indexstr)

.comment        0x0000000000000000       0x20
 *(.comment)
 .comment       0x0000000000000000       0x20 /home/hkh/buildroot-2022.02/output/host/lib/gcc/arm-buildroot-linux-musleabihf/11.2.0/crtbeginS.o
                                         0x21 (size before relaxing)
 .comment       0x0000000000000020      0x14a build/armv71/dbg/EApi.1.0.o
 .comment       0x0000000000000020       0x21 build/armv71/dbg/interp.o
 .comment       0x0000000000000020       0x21 build/armv71/dbg/Message.o
 .comment       0x0000000000000020       0x21 /home/hkh/buildroot-2022.02/output/host/lib/gcc/arm-buildroot-linux-musleabihf/11.2.0/crtendS.o

.ARM.attributes
                0x0000000000000000       0x33
 .ARM.attributes
                0x0000000000000000       0x23 /home/hkh/buildroot-2022.02/output/host/arm-buildroot-linux-musleabihf/sysroot/lib/crti.o
 .ARM.attributes
                0x0000000000000023       0x37 /home/hkh/buildroot-2022.02/output/host/lib/gcc/arm-buildroot-linux-musleabihf/11.2.0/crtbeginS.o
 .ARM.attributes
                0x000000000000005a       0x37 build/armv71/dbg/EApi.1.0.o
 .ARM.attributes
                0x0000000000000091       0x3d build/armv71/dbg/interp.o
 .ARM.attributes
                0x00000000000000ce       0x37 build/armv71/dbg/Message.o
 .ARM.attributes
                0x0000000000000105       0x25 /home/hkh/buildroot-2022.02/output/host/lib/gcc/arm-buildroot-linux-musleabihf/11.2.0/libgcc.a(_udivsi3.o)
 .ARM.attributes
                0x000000000000012a       0x25 /home/hkh/buildroot-2022.02/output/host/lib/gcc/arm-buildroot-linux-musleabihf/11.2.0/libgcc.a(_dvmd_lnx.o)
 .ARM.attributes
                0x000000000000014f       0x3d /home/hkh/buildroot-2022.02/output/host/lib/gcc/arm-buildroot-linux-musleabihf/11.2.0/crtendS.o
 .ARM.attributes
                0x000000000000018c       0x23 /home/hkh/buildroot-2022.02/output/host/arm-buildroot-linux-musleabihf/sysroot/lib/crtn.o

.gnu.build.attributes
 *(.gnu.build.attributes .gnu.build.attributes.*)

.debug
 *(.debug)

.line
 *(.line)

.debug_srcinfo
 *(.debug_srcinfo)

.debug_sfnames
 *(.debug_sfnames)

.debug_aranges  0x0000000000000000      0x1b8
 *(.debug_aranges)
 .debug_aranges
                0x0000000000000000      0x140 build/armv71/dbg/EApi.1.0.o
 .debug_aranges
                0x0000000000000140       0x18 build/armv71/dbg/interp.o
 .debug_aranges
                0x0000000000000158       0x20 build/armv71/dbg/Message.o
 .debug_aranges
                0x0000000000000178       0x20 /home/hkh/buildroot-2022.02/output/host/lib/gcc/arm-buildroot-linux-musleabihf/11.2.0/libgcc.a(_udivsi3.o)
 .debug_aranges
                0x0000000000000198       0x20 /home/hkh/buildroot-2022.02/output/host/lib/gcc/arm-buildroot-linux-musleabihf/11.2.0/libgcc.a(_dvmd_lnx.o)

.debug_pubnames
 *(.debug_pubnames)

.debug_info     0x0000000000000000     0x34c8
 *(.debug_info .gnu.linkonce.wi.*)
 .debug_info    0x0000000000000000     0x3342 build/armv71/dbg/EApi.1.0.o
 .debug_info    0x0000000000003342       0x59 build/armv71/dbg/interp.o
 .debug_info    0x000000000000339b       0xe4 build/armv71/dbg/Message.o
 .debug_info    0x000000000000347f       0x25 /home/hkh/buildroot-2022.02/output/host/lib/gcc/arm-buildroot-linux-musleabihf/11.2.0/libgcc.a(_udivsi3.o)
 .debug_info    0x00000000000034a4       0x24 /home/hkh/buildroot-2022.02/output/host/lib/gcc/arm-buildroot-linux-musleabihf/11.2.0/libgcc.a(_dvmd_lnx.o)

.debug_abbrev   0x0000000000000000      0xfc7
 *(.debug_abbrev)
 .debug_abbrev  0x0000000000000000      0xea5 build/armv71/dbg/EApi.1.0.o
 .debug_abbrev  0x0000000000000ea5       0x47 build/armv71/dbg/interp.o
 .debug_abbrev  0x0000000000000eec       0xb3 build/armv71/dbg/Message.o
 .debug_abbrev  0x0000000000000f9f       0x14 /home/hkh/buildroot-2022.02/output/host/lib/gcc/arm-buildroot-linux-musleabihf/11.2.0/libgcc.a(_udivsi3.o)
 .debug_abbrev  0x0000000000000fb3       0x14 /home/hkh/buildroot-2022.02/output/host/lib/gcc/arm-buildroot-linux-musleabihf/11.2.0/libgcc.a(_dvmd_lnx.o)

.debug_line     0x0000000000000000     0x2425
 *(.debug_line .debug_line.* .debug_line_end)
 .debug_line    0x0000000000000000     0x2295 build/armv71/dbg/EApi.1.0.o
 .debug_line    0x0000000000002295       0x29 build/armv71/dbg/interp.o
 .debug_line    0x00000000000022be       0xb2 build/armv71/dbg/Message.o
 .debug_line    0x0000000000002370       0x66 /home/hkh/buildroot-2022.02/output/host/lib/gcc/arm-buildroot-linux-musleabihf/11.2.0/libgcc.a(_udivsi3.o)
 .debug_line    0x00000000000023d6       0x4f /home/hkh/buildroot-2022.02/output/host/lib/gcc/arm-buildroot-linux-musleabihf/11.2.0/libgcc.a(_dvmd_lnx.o)

.debug_frame    0x0000000000000000      0xa70
 *(.debug_frame)
 .debug_frame   0x0000000000000000      0x9fc build/armv71/dbg/EApi.1.0.o
 .debug_frame   0x00000000000009fc       0x2c build/armv71/dbg/Message.o
 .debug_frame   0x0000000000000a28       0x20 /home/hkh/buildroot-2022.02/output/host/lib/gcc/arm-buildroot-linux-musleabihf/11.2.0/libgcc.a(_udivsi3.o)
 .debug_frame   0x0000000000000a48       0x28 /home/hkh/buildroot-2022.02/output/host/lib/gcc/arm-buildroot-linux-musleabihf/11.2.0/libgcc.a(_dvmd_lnx.o)

.debug_str      0x0000000000000000     0x1261
 *(.debug_str)
 .debug_str     0x0000000000000000     0x119c build/armv71/dbg/EApi.1.0.o
                                       0x2675 (size before relaxing)
 .debug_str     0x000000000000119c       0x23 build/armv71/dbg/interp.o
                                        0x11b (size before relaxing)
 .debug_str     0x00000000000011bf       0x1f build/armv71/dbg/Message.o
                                        0x19c (size before relaxing)
 .debug_str     0x00000000000011de       0x83 /home/hkh/buildroot-2022.02/output/host/lib/gcc/arm-buildroot-linux-musleabihf/11.2.0/libgcc.a(_udivsi3.o)
 .debug_str     0x0000000000001261       0x83 /home/hkh/buildroot-2022.02/output/host/lib/gcc/arm-buildroot-linux-musleabihf/11.2.0/libgcc.a(_dvmd_lnx.o)

.debug_loc
 *(.debug_loc)

.debug_macinfo
 *(.debug_macinfo)

.debug_weaknames
 *(.debug_weaknames)

.debug_funcnames
 *(.debug_funcnames)

.debug_typenames
 *(.debug_typenames)

.debug_varnames
 *(.debug_varnames)

.debug_pubtypes
 *(.debug_pubtypes)

.debug_ranges
 *(.debug_ranges)

.debug_addr
 *(.debug_addr)

.debug_line_str
                0x0000000000000000       0x27
 *(.debug_line_str)
 .debug_line_str
                0x0000000000000000       0x27 /home/hkh/buildroot-2022.02/output/host/lib/gcc/arm-buildroot-linux-musleabihf/11.2.0/libgcc.a(_udivsi3.o)
                                         0x4e (size before relaxing)
 .debug_line_str
                0x0000000000000027       0x4e /home/hkh/buildroot-2022.02/output/host/lib/gcc/arm-buildroot-linux-musleabihf/11.2.0/libgcc.a(_dvmd_lnx.o)

.debug_loclists
 *(.debug_loclists)

.debug_macro
 *(.debug_macro)

.debug_names
 *(.debug_names)

.debug_rnglists
 *(.debug_rnglists)

.debug_str_offsets
 *(.debug_str_offsets)

.debug_sup
 *(.debug_sup)

.gnu.attributes
 *(.gnu.attributes)

.note.gnu.arm.ident
 *(.note.gnu.arm.ident)

/DISCARD/
 *(.note.GNU-stack)
 *(.gnu_debuglink)
 *(.gnu.lto_*)
OUTPUT(../../apps/bin/mx6/armv71/dbg/libEApiPMG.so.1.0 elf32-littlearm)
LOAD linker stubs
