	.cpu cortex-a9
	.eabi_attribute 28, 1
	.eabi_attribute 20, 1
	.eabi_attribute 21, 1
	.eabi_attribute 23, 3
	.eabi_attribute 24, 1
	.eabi_attribute 25, 1
	.eabi_attribute 26, 2
	.eabi_attribute 30, 6
	.eabi_attribute 34, 1
	.eabi_attribute 18, 4
	.file	"EApiEmulI2C.c"
	.text
.Ltext0:
	.cfi_sections	.debug_frame
	.hidden	StdExt
	.global	StdExt
	.section	.rodata
	.align	2
.LC0:
	.ascii	"   \000"
	.align	2
.LC1:
	.ascii	"Std\000"
	.align	2
.LC2:
	.ascii	"Ext\000"
	.section	.data.rel.local,"aw"
	.align	2
	.type	StdExt, %object
	.size	StdExt, 12
StdExt:
	.word	.LC0
	.word	.LC1
	.word	.LC2
	.section	.rodata
	.align	2
.LC3:
	.ascii	"EmulateEepromFS\000"
	.align	2
.LC4:
	.ascii	"/home/hkh/git/eapidk-code-r76-trunk/lib/linux/../EA"
	.ascii	"piEmulI2C.c\000"
	.align	2
.LC5:
	.ascii	"%3s CIDX=%04lX Arg1=%1lX DLEN=%04lX PLEN=%04lX WLEN"
	.ascii	"=%04lX RLEN=%04lX %02X,%02X,%02X,%02X\012\000"
	.align	2
.LC6:
	.ascii	"STD INDEX Sent to EXT INDEX EEPROM\000"
	.align	2
.LC7:
	.ascii	"%s\012\000"
	.global	__aeabi_uidivmod
	.align	2
.LC8:
	.ascii	"CINDX=%04lX PLEN=%04lX EPLEN=%04lX\012\000"
	.align	2
.LC9:
	.ascii	"Device Page Wrap around\000"
	.align	2
.LC10:
	.ascii	"Device Write Wrap around\000"
	.align	2
.LC11:
	.ascii	"Device Write Error\000"
	.align	2
.LC12:
	.ascii	"Device Read Wrap around\000"
	.align	2
.LC13:
	.ascii	"Device Read Error\000"
	.align	2
.LC14:
	.ascii	"\000"
	.text
	.align	2
	.global	EmulateEepromFS
	.hidden	EmulateEepromFS
	.arch armv7-a
	.arch_extension mp
	.arch_extension sec
	.syntax unified
	.arm
	.fpu vfpv3
	.type	EmulateEepromFS, %function
EmulateEepromFS:
.LFB1:
	.file 1 "/home/hkh/git/eapidk-code-r76-trunk/lib/linux/../EApiEmulI2C.c"
	.loc 1 118 1
	.cfi_startproc
	@ args = 8, pretend = 0, frame = 24
	@ frame_needed = 1, uses_anonymous_args = 0
	push	{r4, r5, r6, fp, lr}
	.cfi_def_cfa_offset 20
	.cfi_offset 4, -20
	.cfi_offset 5, -16
	.cfi_offset 6, -12
	.cfi_offset 11, -8
	.cfi_offset 14, -4
	add	fp, sp, #16
	.cfi_def_cfa 11, 4
	sub	sp, sp, #84
	str	r0, [fp, #-32]
	str	r1, [fp, #-36]
	str	r2, [fp, #-40]
	str	r3, [fp, #-44]
	.loc 1 119 16
	mov	r3, #0
	str	r3, [fp, #-24]
	.loc 1 127 22
	ldr	r3, [fp, #-36]
	ldr	r3, [r3, #20]
	.loc 1 130 29
	ldr	r2, [fp, #-36]
	ldr	r1, [r2, #4]
	.loc 1 122 9
	ldr	r2, .L16
.LPIC0:
	add	r2, pc, r2
	ldr	r2, [r2, r1, lsl #2]
	ldr	r1, [fp, #-36]
	ldr	r1, [r1, #12]
	.loc 1 133 22
	ldr	r0, [fp, #-36]
	ldr	r0, [r0]
	.loc 1 134 22
	ldr	ip, [fp, #-36]
	ldr	ip, [ip, #8]
	.loc 1 137 23
	ldr	lr, [fp, #-40]
	ldrb	lr, [lr]	@ zero_extendqisi2
	.loc 1 122 9
	mov	r4, lr
	.loc 1 138 23
	ldr	lr, [fp, #-40]
	add	lr, lr, #1
	ldrb	lr, [lr]	@ zero_extendqisi2
	.loc 1 122 9
	mov	r5, lr
	.loc 1 139 23
	ldr	lr, [fp, #-40]
	add	lr, lr, #2
	ldrb	lr, [lr]	@ zero_extendqisi2
	.loc 1 122 9
	mov	r6, lr
	.loc 1 140 23
	ldr	lr, [fp, #-40]
	add	lr, lr, #3
	ldrb	lr, [lr]	@ zero_extendqisi2
	.loc 1 122 9
	str	lr, [sp, #48]
	str	r6, [sp, #44]
	str	r5, [sp, #40]
	str	r4, [sp, #36]
	ldr	lr, [fp, #8]
	str	lr, [sp, #32]
	ldr	lr, [fp, #-44]
	str	lr, [sp, #28]
	str	ip, [sp, #24]
	str	r0, [sp, #20]
	ldr	r0, [fp, #-32]
	str	r0, [sp, #16]
	str	r1, [sp, #12]
	str	r2, [sp, #8]
	ldr	r2, .L16+4
.LPIC1:
	add	r2, pc, r2
	str	r2, [sp, #4]
	str	r3, [sp]
	mov	r3, #126
	ldr	r2, .L16+8
.LPIC2:
	add	r2, pc, r2
	ldr	r1, .L16+12
.LPIC3:
	add	r1, pc, r1
	mov	r0, #76
	bl	siFormattedMessage_M2(PLT)
	.loc 1 143 5
	ldr	r3, [fp, #-44]
	cmp	r3, #0
	beq	.L2
	.loc 1 145 20
	ldr	r3, [fp, #-36]
	ldr	r3, [r3, #4]
	.loc 1 145 5
	cmp	r3, #1
	beq	.L3
	cmp	r3, #2
	beq	.L4
	.loc 1 171 9
	b	.L6
.L3:
	.loc 1 148 35
	ldr	r3, [fp, #-40]
	add	r2, r3, #1
	str	r2, [fp, #-40]
	.loc 1 148 26
	ldrb	r3, [r3]	@ zero_extendqisi2
	mov	r2, r3
	.loc 1 148 25
	ldr	r3, [fp, #-36]
	str	r2, [r3, #12]
	.loc 1 149 18
	ldr	r3, [fp, #-44]
	sub	r3, r3, #1
	str	r3, [fp, #-44]
	.loc 1 150 25
	ldr	r3, [fp, #-36]
	ldr	r2, [r3, #12]
	.loc 1 150 31
	ldr	r3, [fp, #-32]
	lsl	r3, r3, #8
	.loc 1 150 25
	orr	r2, r2, r3
	ldr	r3, [fp, #-36]
	str	r2, [r3, #12]
	.loc 1 152 9
	movw	r0, #24464
	movt	r0, 1
	bl	EApiSleepns(PLT)
	.loc 1 153 9
	b	.L6
.L4:
	.loc 1 156 9
	ldr	r3, [fp, #-44]
	cmp	r3, #1
	bhi	.L7
	.loc 1 156 9 is_stmt 0 discriminator 1
	ldr	r3, .L16+16
.LPIC4:
	add	r3, pc, r3
	str	r3, [sp, #8]
	ldr	r3, .L16+20
.LPIC5:
	add	r3, pc, r3
	str	r3, [sp, #4]
	mvn	r3, #1280
	str	r3, [sp]
	mov	r3, #156
	ldr	r2, .L16+24
.LPIC6:
	add	r2, pc, r2
	ldr	r1, .L16+28
.LPIC7:
	add	r1, pc, r1
	mov	r0, #69
	bl	siFormattedMessage_SC(PLT)
	mvn	r3, #1280
	str	r3, [fp, #-24]
	b	.L8
.L7:
	.loc 1 163 35 is_stmt 1
	ldr	r3, [fp, #-40]
	ldrb	r3, [r3]	@ zero_extendqisi2
	.loc 1 163 38
	lsl	r3, r3, #8
	mov	r2, r3
	.loc 1 163 26
	ldr	r3, [fp, #-36]
	str	r2, [r3, #12]
	.loc 1 164 25
	ldr	r3, [fp, #-36]
	ldr	r3, [r3, #12]
	.loc 1 164 35
	ldr	r2, [fp, #-40]
	add	r2, r2, #1
	ldrb	r2, [r2]	@ zero_extendqisi2
	.loc 1 164 25
	orr	r2, r3, r2
	ldr	r3, [fp, #-36]
	str	r2, [r3, #12]
	.loc 1 165 17
	ldr	r3, [fp, #-40]
	add	r3, r3, #2
	str	r3, [fp, #-40]
	.loc 1 166 18
	ldr	r3, [fp, #-44]
	sub	r3, r3, #2
	str	r3, [fp, #-44]
	.loc 1 167 25
	ldr	r3, [fp, #-36]
	ldr	r2, [r3, #12]
	.loc 1 167 31
	ldr	r3, [fp, #-32]
	lsl	r3, r3, #16
	.loc 1 167 25
	orr	r2, r2, r3
	ldr	r3, [fp, #-36]
	str	r2, [r3, #12]
	.loc 1 168 9
	movw	r0, #48928
	movt	r0, 2
	bl	EApiSleepns(PLT)
	.loc 1 169 9
	nop
.L6:
	.loc 1 179 22
	ldr	r3, [fp, #-36]
	ldr	r4, [r3, #20]
	.loc 1 174 9
	ldr	r3, [fp, #-36]
	ldr	r5, [r3, #12]
	.loc 1 182 22
	ldr	r3, [fp, #-36]
	ldr	r2, [r3, #12]
	.loc 1 182 39
	ldr	r3, [fp, #-36]
	ldr	r3, [r3, #8]
	.loc 1 174 9
	mov	r1, r3
	mov	r0, r2
	bl	__aeabi_uidivmod(PLT)
	mov	r3, r1
	mov	r6, r3
	.loc 1 183 23
	ldr	r3, [fp, #-36]
	ldr	r2, [r3, #12]
	.loc 1 183 40
	ldr	r3, [fp, #-36]
	ldr	r3, [r3, #8]
	.loc 1 183 32
	mov	r1, r3
	mov	r0, r2
	bl	__aeabi_uidivmod(PLT)
	mov	r3, r1
	mov	r2, r3
	.loc 1 174 9
	ldr	r3, [fp, #-44]
	add	r3, r2, r3
	str	r3, [sp, #16]
	str	r6, [sp, #12]
	str	r5, [sp, #8]
	ldr	r3, .L16+32
.LPIC8:
	add	r3, pc, r3
	str	r3, [sp, #4]
	str	r4, [sp]
	mov	r3, #178
	ldr	r2, .L16+36
.LPIC9:
	add	r2, pc, r2
	ldr	r1, .L16+40
.LPIC10:
	add	r1, pc, r1
	mov	r0, #76
	bl	siFormattedMessage_M2(PLT)
	.loc 1 186 7
	ldr	r3, [fp, #-44]
	cmp	r3, #0
	beq	.L2
	.loc 1 188 7
	ldr	r3, [fp, #-36]
	ldr	r2, [r3, #12]
	ldr	r3, [fp, #-36]
	ldr	r3, [r3, #8]
	mov	r1, r3
	mov	r0, r2
	bl	__aeabi_uidivmod(PLT)
	mov	r3, r1
	mov	r2, r3
	ldr	r3, [fp, #-44]
	add	r2, r2, r3
	ldr	r3, [fp, #-36]
	ldr	r3, [r3, #8]
	cmp	r2, r3
	bls	.L9
	.loc 1 188 7 is_stmt 0 discriminator 1
	ldr	r3, .L16+44
.LPIC11:
	add	r3, pc, r3
	str	r3, [sp, #8]
	ldr	r3, .L16+48
.LPIC12:
	add	r3, pc, r3
	str	r3, [sp, #4]
	movw	r3, #64254
	movt	r3, 65535
	str	r3, [sp]
	mov	r3, #188
	ldr	r2, .L16+52
.LPIC13:
	add	r2, pc, r2
	ldr	r1, .L16+56
.LPIC14:
	add	r1, pc, r1
	mov	r0, #69
	bl	siFormattedMessage_SC(PLT)
	movw	r3, #64254
	movt	r3, 65535
	str	r3, [fp, #-24]
	b	.L8
.L9:
	.loc 1 194 7 is_stmt 1
	ldr	r3, [fp, #-36]
	ldr	r2, [r3, #12]
	ldr	r3, [fp, #-44]
	add	r2, r2, r3
	ldr	r3, [fp, #-36]
	ldr	r3, [r3]
	cmp	r2, r3
	bls	.L10
	.loc 1 194 7 is_stmt 0 discriminator 1
	ldr	r3, .L16+60
.LPIC15:
	add	r3, pc, r3
	str	r3, [sp, #8]
	ldr	r3, .L16+64
.LPIC16:
	add	r3, pc, r3
	str	r3, [sp, #4]
	movw	r3, #64254
	movt	r3, 65535
	str	r3, [sp]
	mov	r3, #194
	ldr	r2, .L16+68
.LPIC17:
	add	r2, pc, r2
	ldr	r1, .L16+72
.LPIC18:
	add	r1, pc, r1
	mov	r0, #69
	bl	siFormattedMessage_SC(PLT)
	movw	r3, #64254
	movt	r3, 65535
	str	r3, [fp, #-24]
	b	.L8
.L10:
	.loc 1 201 7 is_stmt 1
	ldr	r2, [fp, #-44]
	movw	r3, #24464
	movt	r3, 1
	mul	r3, r3, r2
	mov	r0, r3
	bl	EApiSleepns(PLT)
	.loc 1 202 7
	ldr	r3, [fp, #-36]
	ldr	r0, [r3, #24]
	.loc 1 202 38
	ldr	r3, [fp, #-36]
	ldr	r3, [r3, #12]
	.loc 1 202 7
	mov	r2, #0
	mov	r1, r3
	bl	fseek(PLT)
	.loc 1 203 7
	ldr	r3, [fp, #-36]
	ldr	r3, [r3, #24]
	ldr	r2, [fp, #-44]
	mov	r1, #1
	ldr	r0, [fp, #-40]
	bl	fwrite(PLT)
	mov	r2, r0
	ldr	r3, [fp, #-44]
	cmp	r3, r2
	beq	.L11
	.loc 1 203 7 is_stmt 0 discriminator 1
	ldr	r3, .L16+76
.LPIC19:
	add	r3, pc, r3
	str	r3, [sp, #8]
	ldr	r3, .L16+80
.LPIC20:
	add	r3, pc, r3
	str	r3, [sp, #4]
	movw	r3, #64254
	movt	r3, 65535
	str	r3, [sp]
	mov	r3, #203
	ldr	r2, .L16+84
.LPIC21:
	add	r2, pc, r2
	ldr	r1, .L16+88
.LPIC22:
	add	r1, pc, r1
	mov	r0, #69
	bl	siFormattedMessage_SC(PLT)
	movw	r3, #64254
	movt	r3, 65535
	str	r3, [fp, #-24]
	b	.L8
.L11:
	.loc 1 209 23 is_stmt 1
	ldr	r3, [fp, #-36]
	ldr	r2, [r3, #12]
	ldr	r3, [fp, #-44]
	add	r2, r2, r3
	ldr	r3, [fp, #-36]
	str	r2, [r3, #12]
.L2:
	.loc 1 213 5
	ldr	r3, [fp, #8]
	cmp	r3, #0
	beq	.L12
	.loc 1 215 5
	ldr	r3, [fp, #-36]
	ldr	r2, [r3, #12]
	ldr	r3, [fp, #8]
	add	r2, r2, r3
	ldr	r3, [fp, #-36]
	ldr	r3, [r3]
	cmp	r2, r3
	bls	.L13
	.loc 1 215 5 is_stmt 0 discriminator 1
	ldr	r3, .L16+92
.LPIC23:
	add	r3, pc, r3
	str	r3, [sp, #8]
	ldr	r3, .L16+96
.LPIC24:
	add	r3, pc, r3
	str	r3, [sp, #4]
	mvn	r3, #1280
	str	r3, [sp]
	mov	r3, #215
	ldr	r2, .L16+100
.LPIC25:
	add	r2, pc, r2
	ldr	r1, .L16+104
.LPIC26:
	add	r1, pc, r1
	mov	r0, #69
	bl	siFormattedMessage_SC(PLT)
	mvn	r3, #1280
	str	r3, [fp, #-24]
	b	.L8
.L13:
	.loc 1 222 5 is_stmt 1
	ldr	r2, [fp, #8]
	movw	r3, #24464
	movt	r3, 1
	mul	r3, r3, r2
	mov	r0, r3
	bl	EApiSleepns(PLT)
	.loc 1 223 5
	ldr	r3, [fp, #-36]
	ldr	r0, [r3, #24]
	.loc 1 223 36
	ldr	r3, [fp, #-36]
	ldr	r3, [r3, #12]
	.loc 1 223 5
	mov	r2, #0
	mov	r1, r3
	bl	fseek(PLT)
	.loc 1 224 5
	ldr	r3, [fp, #-36]
	ldr	r3, [r3, #24]
	ldr	r2, [fp, #8]
	mov	r1, #1
	ldr	r0, [fp, #4]
	bl	fread(PLT)
	mov	r2, r0
	ldr	r3, [fp, #8]
	cmp	r3, r2
	beq	.L14
	.loc 1 224 5 is_stmt 0 discriminator 1
	ldr	r3, .L16+108
.LPIC27:
	add	r3, pc, r3
	str	r3, [sp, #8]
	ldr	r3, .L16+112
.LPIC28:
	add	r3, pc, r3
	str	r3, [sp, #4]
	mvn	r3, #1280
	str	r3, [sp]
	mov	r3, #224
	ldr	r2, .L16+116
.LPIC29:
	add	r2, pc, r2
	ldr	r1, .L16+120
.LPIC30:
	add	r1, pc, r1
	mov	r0, #69
	bl	siFormattedMessage_SC(PLT)
	mvn	r3, #1280
	str	r3, [fp, #-24]
	b	.L8
.L14:
	.loc 1 230 21 is_stmt 1
	ldr	r3, [fp, #-36]
	ldr	r2, [r3, #12]
	ldr	r3, [fp, #8]
	add	r2, r2, r3
	ldr	r3, [fp, #-36]
	str	r2, [r3, #12]
.L12:
	.loc 1 232 3
	ldr	r3, .L16+124
.LPIC31:
	add	r3, pc, r3
	str	r3, [sp, #8]
	ldr	r3, .L16+128
.LPIC32:
	add	r3, pc, r3
	str	r3, [sp, #4]
	mov	r3, #0
	str	r3, [sp]
	mov	r3, #232
	ldr	r2, .L16+132
.LPIC33:
	add	r2, pc, r2
	ldr	r1, .L16+136
.LPIC34:
	add	r1, pc, r1
	mov	r0, #76
	bl	siFormattedMessage_SC(PLT)
	mov	r3, #0
	str	r3, [fp, #-24]
	nop
.L8:
	.loc 1 235 10
	ldr	r3, [fp, #-24]
	.loc 1 236 1
	mov	r0, r3
	sub	sp, fp, #16
	.cfi_def_cfa 13, 20
	@ sp needed
	pop	{r4, r5, r6, fp, pc}
.L17:
	.align	2
.L16:
	.word	StdExt-(.LPIC0+8)
	.word	.LC5-(.LPIC1+8)
	.word	.LC3-(.LPIC2+8)
	.word	.LC4-(.LPIC3+8)
	.word	.LC6-(.LPIC4+8)
	.word	.LC7-(.LPIC5+8)
	.word	.LC3-(.LPIC6+8)
	.word	.LC4-(.LPIC7+8)
	.word	.LC8-(.LPIC8+8)
	.word	.LC3-(.LPIC9+8)
	.word	.LC4-(.LPIC10+8)
	.word	.LC9-(.LPIC11+8)
	.word	.LC7-(.LPIC12+8)
	.word	.LC3-(.LPIC13+8)
	.word	.LC4-(.LPIC14+8)
	.word	.LC10-(.LPIC15+8)
	.word	.LC7-(.LPIC16+8)
	.word	.LC3-(.LPIC17+8)
	.word	.LC4-(.LPIC18+8)
	.word	.LC11-(.LPIC19+8)
	.word	.LC7-(.LPIC20+8)
	.word	.LC3-(.LPIC21+8)
	.word	.LC4-(.LPIC22+8)
	.word	.LC12-(.LPIC23+8)
	.word	.LC7-(.LPIC24+8)
	.word	.LC3-(.LPIC25+8)
	.word	.LC4-(.LPIC26+8)
	.word	.LC13-(.LPIC27+8)
	.word	.LC7-(.LPIC28+8)
	.word	.LC3-(.LPIC29+8)
	.word	.LC4-(.LPIC30+8)
	.word	.LC14-(.LPIC31+8)
	.word	.LC7-(.LPIC32+8)
	.word	.LC3-(.LPIC33+8)
	.word	.LC4-(.LPIC34+8)
	.cfi_endproc
.LFE1:
	.size	EmulateEepromFS, .-EmulateEepromFS
	.section	.rodata
	.align	2
.LC15:
	.ascii	"EmulateCmdDevice\000"
	.align	2
.LC16:
	.ascii	"%3s CCMD=%04lX Arg1=%1lX WLEN=%04lX RLEN=%04lX %02X"
	.ascii	",%02X,%02X,%02X\012\000"
	.text
	.align	2
	.global	EmulateCmdDevice
	.hidden	EmulateCmdDevice
	.syntax unified
	.arm
	.fpu vfpv3
	.type	EmulateCmdDevice, %function
EmulateCmdDevice:
.LFB2:
	.loc 1 248 1
	.cfi_startproc
	@ args = 8, pretend = 0, frame = 32
	@ frame_needed = 1, uses_anonymous_args = 0
	push	{r4, fp, lr}
	.cfi_def_cfa_offset 12
	.cfi_offset 4, -12
	.cfi_offset 11, -8
	.cfi_offset 14, -4
	add	fp, sp, #8
	.cfi_def_cfa 11, 4
	sub	sp, sp, #84
	str	r0, [fp, #-32]
	str	r1, [fp, #-36]
	str	r2, [fp, #-40]
	str	r3, [fp, #-44]
	.loc 1 249 16
	mov	r3, #0
	str	r3, [fp, #-24]
	.loc 1 259 22
	ldr	r3, [fp, #-36]
	ldr	r3, [r3, #12]
	.loc 1 262 29
	ldr	r2, [fp, #-36]
	ldr	r1, [r2]
	.loc 1 254 9
	ldr	r2, .L35
.LPIC35:
	add	r2, pc, r2
	ldr	r2, [r2, r1, lsl #2]
	ldr	r1, [fp, #-36]
	ldr	r1, [r1, #4]
	.loc 1 267 23
	ldr	r0, [fp, #-40]
	ldrb	r0, [r0]	@ zero_extendqisi2
	.loc 1 254 9
	mov	ip, r0
	.loc 1 268 23
	ldr	r0, [fp, #-40]
	add	r0, r0, #1
	ldrb	r0, [r0]	@ zero_extendqisi2
	.loc 1 254 9
	mov	lr, r0
	.loc 1 269 23
	ldr	r0, [fp, #-40]
	add	r0, r0, #2
	ldrb	r0, [r0]	@ zero_extendqisi2
	.loc 1 254 9
	mov	r4, r0
	.loc 1 270 23
	ldr	r0, [fp, #-40]
	add	r0, r0, #3
	ldrb	r0, [r0]	@ zero_extendqisi2
	.loc 1 254 9
	str	r0, [sp, #40]
	str	r4, [sp, #36]
	str	lr, [sp, #32]
	str	ip, [sp, #28]
	ldr	r0, [fp, #8]
	str	r0, [sp, #24]
	ldr	r0, [fp, #-44]
	str	r0, [sp, #20]
	ldr	r0, [fp, #-32]
	str	r0, [sp, #16]
	str	r1, [sp, #12]
	str	r2, [sp, #8]
	ldr	r2, .L35+4
.LPIC36:
	add	r2, pc, r2
	str	r2, [sp, #4]
	str	r3, [sp]
	movw	r3, #258
	ldr	r2, .L35+8
.LPIC37:
	add	r2, pc, r2
	ldr	r1, .L35+12
.LPIC38:
	add	r1, pc, r1
	mov	r0, #76
	bl	siFormattedMessage_M2(PLT)
	.loc 1 273 5
	ldr	r3, [fp, #-44]
	cmp	r3, #0
	beq	.L19
	.loc 1 275 20
	ldr	r3, [fp, #-36]
	ldr	r3, [r3]
	.loc 1 275 5
	cmp	r3, #1
	beq	.L20
	cmp	r3, #2
	beq	.L21
	.loc 1 298 9
	b	.L23
.L20:
	.loc 1 278 38
	ldr	r3, [fp, #-40]
	add	r2, r3, #1
	str	r2, [fp, #-40]
	.loc 1 278 29
	ldrb	r3, [r3]	@ zero_extendqisi2
	mov	r2, r3
	.loc 1 278 28
	ldr	r3, [fp, #-36]
	str	r2, [r3, #4]
	.loc 1 279 18
	ldr	r3, [fp, #-44]
	sub	r3, r3, #1
	str	r3, [fp, #-44]
	.loc 1 280 9
	movw	r0, #24464
	movt	r0, 1
	bl	EApiSleepns(PLT)
	.loc 1 281 9
	b	.L23
.L21:
	.loc 1 284 9
	ldr	r3, [fp, #-44]
	cmp	r3, #1
	bhi	.L24
	.loc 1 284 9 is_stmt 0 discriminator 1
	ldr	r3, .L35+16
.LPIC39:
	add	r3, pc, r3
	str	r3, [sp, #8]
	ldr	r3, .L35+20
.LPIC40:
	add	r3, pc, r3
	str	r3, [sp, #4]
	mvn	r3, #1280
	str	r3, [sp]
	mov	r3, #284
	ldr	r2, .L35+24
.LPIC41:
	add	r2, pc, r2
	ldr	r1, .L35+28
.LPIC42:
	add	r1, pc, r1
	mov	r0, #69
	bl	siFormattedMessage_SC(PLT)
	mvn	r3, #1280
	str	r3, [fp, #-24]
	b	.L25
.L24:
	.loc 1 291 38 is_stmt 1
	ldr	r3, [fp, #-40]
	ldrb	r3, [r3]	@ zero_extendqisi2
	.loc 1 291 41
	lsl	r3, r3, #8
	mov	r2, r3
	.loc 1 291 29
	ldr	r3, [fp, #-36]
	str	r2, [r3, #4]
	.loc 1 292 28
	ldr	r3, [fp, #-36]
	ldr	r3, [r3, #4]
	.loc 1 292 38
	ldr	r2, [fp, #-40]
	add	r2, r2, #1
	ldrb	r2, [r2]	@ zero_extendqisi2
	.loc 1 292 28
	orr	r2, r3, r2
	ldr	r3, [fp, #-36]
	str	r2, [r3, #4]
	.loc 1 293 17
	ldr	r3, [fp, #-40]
	add	r3, r3, #2
	str	r3, [fp, #-40]
	.loc 1 294 18
	ldr	r3, [fp, #-44]
	sub	r3, r3, #2
	str	r3, [fp, #-44]
	.loc 1 295 9
	movw	r0, #48928
	movt	r0, 2
	bl	EApiSleepns(PLT)
	.loc 1 296 9
	nop
.L23:
	.loc 1 300 7
	ldr	r3, [fp, #-44]
	cmp	r3, #0
	beq	.L19
	.loc 1 302 7
	ldr	r2, [fp, #-44]
	movw	r3, #24464
	movt	r3, 1
	mul	r3, r3, r2
	mov	r0, r3
	bl	EApiSleepns(PLT)
	.loc 1 303 18
	ldr	r3, [fp, #-36]
	ldr	r3, [r3, #16]
	str	r3, [fp, #-20]
	.loc 1 303 7
	b	.L26
.L28:
	.loc 1 304 19
	ldr	r3, [fp, #-20]
	ldr	r2, [r3]
	.loc 1 304 33
	ldr	r3, [fp, #-36]
	ldr	r3, [r3, #4]
	.loc 1 304 11
	cmp	r2, r3
	bne	.L27
	.loc 1 305 20
	ldr	r3, [fp, #-20]
	ldr	r3, [r3, #4]
	str	r3, [fp, #-16]
	.loc 1 307 20
	ldr	r3, [fp, #-20]
	ldr	r0, [r3, #8]
	.loc 1 309 42
	ldr	r2, [fp, #8]
	ldr	r3, [fp, #-16]
	cmp	r2, r3
	movcc	r3, r2
	movcs	r3, r3
	.loc 1 306 11
	mov	r2, r3
	ldr	r1, [fp, #4]
	bl	memcpy(PLT)
.L27:
	.loc 1 303 71 discriminator 2
	ldr	r3, [fp, #-20]
	add	r3, r3, #12
	str	r3, [fp, #-20]
.L26:
	.loc 1 303 40 discriminator 1
	ldr	r3, [fp, #-20]
	ldr	r3, [r3]
	.loc 1 303 45 discriminator 1
	cmn	r3, #1
	bne	.L28
.L19:
	.loc 1 315 5
	ldr	r3, [fp, #8]
	cmp	r3, #0
	beq	.L29
	.loc 1 317 5
	ldr	r2, [fp, #8]
	movw	r3, #24464
	movt	r3, 1
	mul	r3, r3, r2
	mov	r0, r3
	bl	EApiSleepns(PLT)
	.loc 1 318 16
	ldr	r3, [fp, #-36]
	ldr	r3, [r3, #16]
	str	r3, [fp, #-20]
	.loc 1 318 5
	b	.L30
.L33:
	.loc 1 319 17
	ldr	r3, [fp, #-20]
	ldr	r2, [r3]
	.loc 1 319 31
	ldr	r3, [fp, #-36]
	ldr	r3, [r3, #4]
	.loc 1 319 9
	cmp	r2, r3
	bne	.L31
	.loc 1 320 18
	ldr	r3, [fp, #-20]
	ldr	r3, [r3, #4]
	str	r3, [fp, #-16]
	.loc 1 321 11
	ldr	r2, [fp, #-16]
	ldr	r3, [fp, #8]
	cmp	r2, r3
	bcs	.L32
	.loc 1 322 35
	ldr	r3, [fp, #-20]
	ldr	r3, [r3, #8]
	.loc 1 322 11
	ldr	r2, [fp, #-16]
	mov	r1, r3
	ldr	r0, [fp, #4]
	bl	memcpy(PLT)
	.loc 1 323 26
	ldr	r2, [fp, #4]
	ldr	r3, [fp, #-16]
	add	r0, r2, r3
	.loc 1 323 46
	ldr	r2, [fp, #8]
	ldr	r3, [fp, #-16]
	sub	r3, r2, r3
	.loc 1 323 11
	mov	r2, #255
	mov	r1, r3
	bl	memset(PLT)
	b	.L31
.L32:
	.loc 1 325 35
	ldr	r3, [fp, #-20]
	ldr	r3, [r3, #8]
	.loc 1 325 11
	ldr	r2, [fp, #8]
	mov	r1, r3
	ldr	r0, [fp, #4]
	bl	memcpy(PLT)
.L31:
	.loc 1 318 69 discriminator 2
	ldr	r3, [fp, #-20]
	add	r3, r3, #12
	str	r3, [fp, #-20]
.L30:
	.loc 1 318 38 discriminator 1
	ldr	r3, [fp, #-20]
	ldr	r3, [r3]
	.loc 1 318 43 discriminator 1
	cmn	r3, #1
	bne	.L33
.L29:
	.loc 1 330 3
	ldr	r3, .L35+32
.LPIC43:
	add	r3, pc, r3
	str	r3, [sp, #8]
	ldr	r3, .L35+36
.LPIC44:
	add	r3, pc, r3
	str	r3, [sp, #4]
	mov	r3, #0
	str	r3, [sp]
	movw	r3, #330
	ldr	r2, .L35+40
.LPIC45:
	add	r2, pc, r2
	ldr	r1, .L35+44
.LPIC46:
	add	r1, pc, r1
	mov	r0, #76
	bl	siFormattedMessage_SC(PLT)
	mov	r3, #0
	str	r3, [fp, #-24]
	nop
.L25:
	.loc 1 333 10
	ldr	r3, [fp, #-24]
	.loc 1 334 1
	mov	r0, r3
	sub	sp, fp, #8
	.cfi_def_cfa 13, 12
	@ sp needed
	pop	{r4, fp, pc}
.L36:
	.align	2
.L35:
	.word	StdExt-(.LPIC35+8)
	.word	.LC16-(.LPIC36+8)
	.word	.LC15-(.LPIC37+8)
	.word	.LC4-(.LPIC38+8)
	.word	.LC6-(.LPIC39+8)
	.word	.LC7-(.LPIC40+8)
	.word	.LC3-(.LPIC41+8)
	.word	.LC4-(.LPIC42+8)
	.word	.LC14-(.LPIC43+8)
	.word	.LC7-(.LPIC44+8)
	.word	.LC3-(.LPIC45+8)
	.word	.LC4-(.LPIC46+8)
	.cfi_endproc
.LFE2:
	.size	EmulateCmdDevice, .-EmulateCmdDevice
	.hidden	DIDEEPROM
	.global	DIDEEPROM
	.data
	.align	2
	.type	DIDEEPROM, %object
	.size	DIDEEPROM, 512
DIDEEPROM:
	.byte	16
	.byte	76
	.byte	2
	.byte	0
	.byte	0
	.byte	0
	.byte	12
	.byte	68
	.byte	69
	.byte	77
	.byte	86
	.byte	0
	.byte	22
	.byte	0
	.byte	0
	.byte	0
	.byte	28
	.byte	8
	.byte	0
	.byte	3
	.byte	0
	.byte	20
	.byte	47
	.byte	42
	.byte	0
	.byte	-128
	.byte	-1
	.byte	4
	.byte	-105
	.byte	1
	.byte	47
	.byte	-128
	.byte	111
	.byte	0
	.byte	-1
	.byte	3
	.byte	41
	.byte	0
	.byte	0
	.byte	-128
	.byte	2
	.byte	0
	.byte	12
	.byte	0
	.byte	13
	.byte	20
	.byte	80
	.byte	-1
	.byte	4
	.byte	-1
	.byte	3
	.byte	25
	.byte	3
	.byte	0
	.byte	30
	.byte	30
	.byte	7
	.byte	20
	.byte	13
	.byte	0
	.byte	6
	.byte	15
	.byte	15
	.byte	15
	.byte	100
	.byte	35
	.byte	35
	.byte	15
	.byte	0
	.byte	10
	.byte	18
	.byte	0
	.byte	3
	.byte	0
	.byte	0
	.byte	0
	.byte	0
	.byte	0
	.byte	17
	.byte	0
	.byte	-68
	.byte	0
	.byte	0
	.byte	0
	.byte	0
	.byte	0
	.byte	0
	.byte	0
	.byte	0
	.byte	0
	.byte	0
	.byte	0
	.byte	0
	.byte	0
	.byte	0
	.byte	0
	.byte	0
	.byte	0
	.byte	0
	.byte	0
	.byte	0
	.byte	0
	.byte	0
	.byte	0
	.byte	0
	.byte	0
	.byte	0
	.byte	0
	.byte	0
	.byte	0
	.byte	0
	.byte	0
	.byte	0
	.byte	0
	.byte	0
	.byte	0
	.byte	0
	.byte	0
	.byte	0
	.byte	0
	.byte	0
	.byte	0
	.byte	0
	.byte	0
	.byte	0
	.byte	0
	.byte	0
	.byte	0
	.byte	0
	.byte	0
	.byte	0
	.byte	0
	.byte	0
	.byte	0
	.byte	0
	.byte	0
	.byte	0
	.byte	0
	.byte	0
	.byte	0
	.byte	0
	.byte	0
	.byte	0
	.byte	0
	.byte	0
	.byte	0
	.byte	0
	.byte	0
	.byte	0
	.byte	0
	.byte	0
	.byte	0
	.byte	0
	.byte	0
	.byte	0
	.byte	0
	.byte	0
	.byte	0
	.byte	0
	.byte	0
	.byte	0
	.byte	0
	.byte	0
	.byte	0
	.byte	0
	.byte	0
	.byte	0
	.byte	0
	.byte	0
	.byte	0
	.byte	0
	.byte	0
	.byte	0
	.byte	0
	.byte	0
	.byte	0
	.byte	0
	.byte	0
	.byte	0
	.byte	0
	.byte	0
	.byte	0
	.byte	0
	.byte	0
	.byte	0
	.byte	0
	.byte	0
	.byte	0
	.byte	0
	.byte	0
	.byte	0
	.byte	0
	.byte	0
	.byte	0
	.byte	0
	.byte	0
	.byte	0
	.byte	0
	.byte	0
	.byte	0
	.byte	0
	.byte	0
	.byte	0
	.byte	0
	.byte	0
	.byte	0
	.byte	0
	.byte	0
	.byte	0
	.byte	0
	.byte	0
	.byte	0
	.byte	0
	.byte	0
	.byte	0
	.byte	0
	.byte	0
	.byte	0
	.byte	0
	.byte	0
	.byte	0
	.byte	0
	.byte	0
	.byte	0
	.byte	0
	.byte	0
	.byte	0
	.byte	0
	.byte	0
	.byte	0
	.byte	0
	.byte	0
	.byte	0
	.byte	0
	.byte	0
	.byte	0
	.byte	0
	.byte	0
	.byte	0
	.byte	0
	.byte	0
	.byte	0
	.byte	0
	.byte	0
	.byte	0
	.byte	0
	.byte	0
	.byte	0
	.byte	0
	.byte	0
	.byte	0
	.byte	0
	.byte	0
	.byte	0
	.byte	0
	.byte	0
	.byte	0
	.byte	0
	.byte	0
	.byte	0
	.byte	0
	.byte	0
	.byte	0
	.byte	0
	.byte	0
	.byte	0
	.byte	0
	.byte	0
	.byte	0
	.byte	0
	.byte	0
	.byte	0
	.byte	0
	.byte	0
	.byte	0
	.byte	0
	.byte	0
	.byte	0
	.byte	0
	.byte	0
	.byte	0
	.byte	0
	.byte	0
	.byte	0
	.byte	0
	.byte	0
	.byte	0
	.byte	0
	.byte	0
	.byte	0
	.byte	0
	.byte	0
	.byte	0
	.byte	0
	.byte	0
	.byte	0
	.byte	0
	.byte	0
	.byte	0
	.byte	0
	.byte	0
	.byte	0
	.byte	0
	.byte	0
	.byte	0
	.byte	0
	.byte	0
	.byte	0
	.byte	0
	.byte	0
	.byte	0
	.byte	0
	.byte	0
	.byte	0
	.byte	0
	.byte	0
	.byte	0
	.byte	0
	.byte	0
	.byte	0
	.byte	0
	.byte	0
	.byte	0
	.byte	0
	.byte	0
	.byte	0
	.byte	0
	.byte	0
	.byte	0
	.byte	0
	.byte	0
	.byte	0
	.byte	0
	.byte	0
	.byte	0
	.byte	0
	.byte	0
	.byte	0
	.byte	0
	.byte	0
	.byte	0
	.byte	0
	.byte	0
	.byte	0
	.byte	0
	.byte	0
	.byte	0
	.byte	0
	.byte	0
	.byte	0
	.byte	0
	.byte	0
	.byte	0
	.byte	0
	.byte	0
	.byte	0
	.byte	0
	.byte	0
	.byte	0
	.byte	0
	.byte	0
	.byte	0
	.byte	0
	.byte	0
	.byte	0
	.byte	0
	.byte	0
	.byte	0
	.byte	0
	.byte	0
	.byte	0
	.byte	0
	.byte	0
	.byte	0
	.byte	0
	.byte	0
	.byte	0
	.byte	0
	.byte	0
	.byte	0
	.byte	0
	.byte	0
	.byte	0
	.byte	0
	.byte	0
	.byte	0
	.byte	0
	.byte	0
	.byte	0
	.byte	0
	.byte	0
	.byte	0
	.byte	0
	.byte	0
	.byte	0
	.byte	0
	.byte	0
	.byte	0
	.byte	0
	.byte	0
	.byte	0
	.byte	0
	.byte	0
	.byte	0
	.byte	0
	.byte	0
	.byte	0
	.byte	0
	.byte	0
	.byte	0
	.byte	0
	.byte	0
	.byte	0
	.byte	0
	.byte	0
	.byte	0
	.byte	0
	.byte	0
	.byte	0
	.byte	0
	.byte	0
	.byte	0
	.byte	0
	.byte	0
	.byte	0
	.byte	0
	.byte	0
	.byte	0
	.byte	0
	.byte	0
	.byte	0
	.byte	0
	.byte	0
	.byte	0
	.byte	0
	.byte	0
	.byte	0
	.byte	0
	.byte	0
	.byte	0
	.byte	0
	.byte	0
	.byte	0
	.byte	0
	.byte	0
	.byte	0
	.byte	0
	.byte	0
	.byte	0
	.byte	0
	.byte	0
	.byte	0
	.byte	0
	.byte	0
	.byte	0
	.byte	0
	.byte	0
	.byte	0
	.byte	0
	.byte	0
	.byte	0
	.byte	0
	.byte	0
	.byte	0
	.byte	0
	.byte	0
	.byte	0
	.byte	0
	.byte	0
	.byte	0
	.byte	0
	.byte	0
	.byte	0
	.byte	0
	.byte	0
	.byte	0
	.byte	0
	.byte	0
	.byte	0
	.byte	0
	.byte	0
	.byte	0
	.byte	0
	.byte	0
	.byte	0
	.byte	0
	.byte	0
	.byte	0
	.byte	0
	.byte	0
	.byte	0
	.byte	0
	.byte	0
	.byte	0
	.byte	0
	.byte	0
	.byte	0
	.byte	0
	.byte	0
	.byte	0
	.byte	0
	.byte	0
	.byte	0
	.byte	0
	.byte	0
	.byte	0
	.byte	0
	.byte	0
	.byte	0
	.byte	0
	.byte	0
	.byte	0
	.section	.rodata
	.align	2
.LC17:
	.ascii	"DID.EEPROM.EMUL\000"
	.section	.data.rel.local
	.align	2
	.type	DIDEEPromData, %object
	.size	DIDEEPromData, 28
DIDEEPromData:
	.word	512
	.word	2
	.word	256
	.word	0
	.word	DIDEEPROM
	.word	.LC17
	.word	0
	.text
	.align	2
	.global	EmulateDIDEeprom
	.hidden	EmulateDIDEeprom
	.syntax unified
	.arm
	.fpu vfpv3
	.type	EmulateDIDEeprom, %function
EmulateDIDEeprom:
.LFB3:
	.loc 1 355 1
	.cfi_startproc
	@ args = 4, pretend = 0, frame = 16
	@ frame_needed = 1, uses_anonymous_args = 0
	push	{fp, lr}
	.cfi_def_cfa_offset 8
	.cfi_offset 11, -8
	.cfi_offset 14, -4
	add	fp, sp, #4
	.cfi_def_cfa 11, 4
	sub	sp, sp, #24
	str	r0, [fp, #-8]
	str	r1, [fp, #-12]
	str	r2, [fp, #-16]
	str	r3, [fp, #-20]
	.loc 1 356 10
	ldr	r3, [fp, #4]
	str	r3, [sp, #4]
	ldr	r3, [fp, #-20]
	str	r3, [sp]
	ldr	r3, [fp, #-16]
	ldr	r2, [fp, #-12]
	ldr	r1, .L39
.LPIC47:
	add	r1, pc, r1
	ldr	r0, [fp, #-8]
	bl	EmulateEepromFS(PLT)
	mov	r3, r0
	.loc 1 364 1
	mov	r0, r3
	sub	sp, fp, #4
	.cfi_def_cfa 13, 8
	@ sp needed
	pop	{fp, pc}
.L40:
	.align	2
.L39:
	.word	DIDEEPromData-(.LPIC47+8)
	.cfi_endproc
.LFE3:
	.size	EmulateDIDEeprom, .-EmulateDIDEeprom
	.hidden	UDSEEPROM
	.global	UDSEEPROM
	.data
	.align	2
	.type	UDSEEPROM, %object
	.size	UDSEEPROM, 512
UDSEEPROM:
	.byte	0
	.byte	-1
	.byte	-1
	.byte	-1
	.byte	-1
	.byte	-1
	.byte	-1
	.byte	0
	.byte	4
	.byte	33
	.byte	88
	.byte	89
	.byte	113
	.byte	-53
	.byte	-94
	.byte	4
	.byte	30
	.byte	17
	.byte	1
	.byte	3
	.byte	-128
	.byte	0
	.byte	0
	.byte	0
	.byte	-10
	.byte	0
	.byte	0
	.byte	0
	.byte	0
	.byte	0
	.byte	0
	.byte	0
	.byte	0
	.byte	0
	.byte	0
	.byte	-84
	.byte	0
	.byte	0
	.byte	1
	.byte	1
	.byte	1
	.byte	1
	.byte	1
	.byte	1
	.byte	1
	.byte	1
	.byte	1
	.byte	1
	.byte	1
	.byte	1
	.byte	1
	.byte	1
	.byte	1
	.byte	1
	.byte	-128
	.byte	12
	.byte	32
	.byte	0
	.byte	49
	.byte	-32
	.byte	45
	.byte	16
	.byte	42
	.byte	-128
	.byte	-94
	.byte	0
	.byte	0
	.byte	0
	.byte	0
	.byte	0
	.byte	0
	.byte	24
	.byte	0
	.byte	0
	.byte	0
	.byte	0
	.byte	0
	.byte	0
	.byte	0
	.byte	0
	.byte	0
	.byte	0
	.byte	0
	.byte	0
	.byte	0
	.byte	0
	.byte	0
	.byte	0
	.byte	0
	.byte	0
	.byte	0
	.byte	0
	.byte	0
	.byte	-2
	.byte	0
	.byte	75
	.byte	111
	.byte	110
	.byte	116
	.byte	114
	.byte	111
	.byte	110
	.byte	95
	.byte	68
	.byte	69
	.byte	71
	.byte	10
	.byte	32
	.byte	0
	.byte	0
	.byte	0
	.byte	15
	.byte	0
	.byte	0
	.byte	12
	.byte	0
	.byte	-36
	.byte	-2
	.byte	0
	.byte	-20
	.byte	0
	.byte	0
	.byte	0
	.byte	0
	.byte	0
	.byte	17
	.byte	0
	.byte	87
	.byte	0
	.byte	0
	.byte	0
	.byte	0
	.byte	0
	.byte	0
	.byte	0
	.byte	0
	.byte	0
	.byte	0
	.byte	0
	.byte	0
	.byte	0
	.byte	0
	.byte	0
	.byte	0
	.byte	0
	.byte	0
	.byte	0
	.byte	0
	.byte	0
	.byte	0
	.byte	0
	.byte	0
	.byte	0
	.byte	0
	.byte	0
	.byte	0
	.byte	0
	.byte	0
	.byte	0
	.byte	0
	.byte	0
	.byte	0
	.byte	0
	.byte	0
	.byte	0
	.byte	0
	.byte	0
	.byte	0
	.byte	0
	.byte	0
	.byte	0
	.byte	0
	.byte	0
	.byte	0
	.byte	0
	.byte	0
	.byte	0
	.byte	0
	.byte	0
	.byte	0
	.byte	0
	.byte	0
	.byte	0
	.byte	0
	.byte	0
	.byte	0
	.byte	0
	.byte	0
	.byte	0
	.byte	0
	.byte	0
	.byte	0
	.byte	0
	.byte	0
	.byte	0
	.byte	0
	.byte	0
	.byte	0
	.byte	0
	.byte	0
	.byte	0
	.byte	0
	.byte	0
	.byte	0
	.byte	0
	.byte	0
	.byte	0
	.byte	0
	.byte	0
	.byte	0
	.byte	0
	.byte	0
	.byte	0
	.byte	0
	.byte	0
	.byte	0
	.byte	0
	.byte	0
	.byte	0
	.byte	0
	.byte	0
	.byte	0
	.byte	0
	.byte	0
	.byte	0
	.byte	0
	.byte	0
	.byte	0
	.byte	0
	.byte	0
	.byte	0
	.byte	0
	.byte	0
	.byte	0
	.byte	0
	.byte	0
	.byte	0
	.byte	0
	.byte	0
	.byte	0
	.byte	0
	.byte	0
	.byte	0
	.byte	0
	.byte	0
	.byte	0
	.byte	0
	.byte	0
	.byte	0
	.byte	0
	.byte	0
	.byte	0
	.byte	0
	.byte	0
	.byte	0
	.byte	0
	.byte	0
	.byte	0
	.byte	0
	.byte	0
	.byte	0
	.byte	0
	.byte	0
	.byte	0
	.byte	0
	.byte	0
	.byte	0
	.byte	0
	.byte	0
	.byte	0
	.byte	0
	.byte	0
	.byte	0
	.byte	0
	.byte	0
	.byte	0
	.byte	0
	.byte	0
	.byte	0
	.byte	0
	.byte	0
	.byte	0
	.byte	0
	.byte	0
	.byte	0
	.byte	0
	.byte	0
	.byte	0
	.byte	0
	.byte	0
	.byte	0
	.byte	0
	.byte	0
	.byte	0
	.byte	0
	.byte	0
	.byte	0
	.byte	0
	.byte	0
	.byte	0
	.byte	0
	.byte	0
	.byte	0
	.byte	0
	.byte	0
	.byte	0
	.byte	0
	.byte	0
	.byte	0
	.byte	0
	.byte	0
	.byte	0
	.byte	0
	.byte	0
	.byte	0
	.byte	0
	.byte	0
	.byte	0
	.byte	0
	.byte	0
	.byte	0
	.byte	0
	.byte	0
	.byte	0
	.byte	0
	.byte	0
	.byte	0
	.byte	0
	.byte	0
	.byte	0
	.byte	0
	.byte	0
	.byte	0
	.byte	0
	.byte	0
	.byte	0
	.byte	0
	.byte	0
	.byte	0
	.byte	0
	.byte	0
	.byte	0
	.byte	0
	.byte	0
	.byte	0
	.byte	0
	.byte	0
	.byte	0
	.byte	0
	.byte	0
	.byte	0
	.byte	0
	.byte	0
	.byte	0
	.byte	0
	.byte	0
	.byte	0
	.byte	0
	.byte	0
	.byte	0
	.byte	0
	.byte	0
	.byte	0
	.byte	0
	.byte	0
	.byte	0
	.byte	0
	.byte	0
	.byte	0
	.byte	0
	.byte	0
	.byte	0
	.byte	0
	.byte	0
	.byte	0
	.byte	0
	.byte	0
	.byte	0
	.byte	0
	.byte	0
	.byte	0
	.byte	0
	.byte	0
	.byte	0
	.byte	0
	.byte	0
	.byte	0
	.byte	0
	.byte	0
	.byte	0
	.byte	0
	.byte	0
	.byte	0
	.byte	0
	.byte	0
	.byte	0
	.byte	0
	.byte	0
	.byte	0
	.byte	0
	.byte	0
	.byte	0
	.byte	0
	.byte	0
	.byte	0
	.byte	0
	.byte	0
	.byte	0
	.byte	0
	.byte	0
	.byte	0
	.byte	0
	.byte	0
	.byte	0
	.byte	0
	.byte	0
	.byte	0
	.byte	0
	.byte	0
	.byte	0
	.byte	0
	.byte	0
	.byte	0
	.byte	0
	.byte	0
	.byte	0
	.byte	0
	.byte	0
	.byte	0
	.byte	0
	.byte	0
	.byte	0
	.byte	0
	.byte	0
	.byte	0
	.byte	0
	.byte	0
	.byte	0
	.byte	0
	.byte	0
	.byte	0
	.byte	0
	.byte	0
	.byte	0
	.byte	0
	.byte	0
	.byte	0
	.byte	0
	.byte	0
	.byte	0
	.byte	0
	.byte	0
	.byte	0
	.byte	0
	.byte	0
	.byte	0
	.byte	0
	.byte	0
	.byte	0
	.byte	0
	.byte	0
	.byte	0
	.byte	0
	.byte	0
	.byte	0
	.byte	0
	.byte	0
	.byte	0
	.byte	0
	.byte	0
	.byte	0
	.byte	0
	.byte	0
	.byte	0
	.byte	0
	.byte	0
	.byte	0
	.byte	0
	.byte	0
	.byte	0
	.byte	0
	.byte	0
	.byte	0
	.byte	0
	.byte	0
	.byte	0
	.byte	0
	.byte	0
	.byte	0
	.byte	0
	.byte	0
	.byte	0
	.byte	0
	.byte	0
	.byte	0
	.byte	0
	.byte	0
	.byte	0
	.byte	0
	.byte	0
	.byte	0
	.byte	0
	.byte	0
	.byte	0
	.byte	0
	.byte	0
	.byte	0
	.byte	0
	.byte	0
	.byte	0
	.byte	0
	.byte	0
	.section	.rodata
	.align	2
.LC18:
	.ascii	"UDS.EEPROM.EMUL\000"
	.section	.data.rel.local
	.align	2
	.type	UDSEEPromData, %object
	.size	UDSEEPromData, 28
UDSEEPromData:
	.word	512
	.word	2
	.word	16
	.word	0
	.word	UDSEEPROM
	.word	.LC18
	.word	0
	.text
	.align	2
	.global	EmulateUDSEeprom
	.hidden	EmulateUDSEeprom
	.syntax unified
	.arm
	.fpu vfpv3
	.type	EmulateUDSEeprom, %function
EmulateUDSEeprom:
.LFB4:
	.loc 1 385 1
	.cfi_startproc
	@ args = 4, pretend = 0, frame = 16
	@ frame_needed = 1, uses_anonymous_args = 0
	push	{fp, lr}
	.cfi_def_cfa_offset 8
	.cfi_offset 11, -8
	.cfi_offset 14, -4
	add	fp, sp, #4
	.cfi_def_cfa 11, 4
	sub	sp, sp, #24
	str	r0, [fp, #-8]
	str	r1, [fp, #-12]
	str	r2, [fp, #-16]
	str	r3, [fp, #-20]
	.loc 1 386 10
	ldr	r3, [fp, #4]
	str	r3, [sp, #4]
	ldr	r3, [fp, #-20]
	str	r3, [sp]
	ldr	r3, [fp, #-16]
	ldr	r2, [fp, #-12]
	ldr	r1, .L43
.LPIC48:
	add	r1, pc, r1
	ldr	r0, [fp, #-8]
	bl	EmulateEepromFS(PLT)
	mov	r3, r0
	.loc 1 394 1
	mov	r0, r3
	sub	sp, fp, #4
	.cfi_def_cfa 13, 8
	@ sp needed
	pop	{fp, pc}
.L44:
	.align	2
.L43:
	.word	UDSEEPromData-(.LPIC48+8)
	.cfi_endproc
.LFE4:
	.size	EmulateUDSEeprom, .-EmulateUDSEeprom
	.hidden	EPIEEPROM
	.global	EPIEEPROM
	.data
	.align	2
	.type	EPIEEPROM, %object
	.size	EPIEEPROM, 512
EPIEEPROM:
	.byte	0
	.byte	-1
	.byte	-1
	.byte	-1
	.byte	-1
	.byte	-1
	.byte	-1
	.byte	0
	.byte	12
	.byte	-12
	.byte	4
	.byte	0
	.byte	1
	.byte	0
	.byte	0
	.byte	0
	.byte	1
	.byte	15
	.byte	1
	.byte	3
	.byte	-128
	.byte	0
	.byte	0
	.byte	0
	.byte	-18
	.byte	0
	.byte	0
	.byte	0
	.byte	0
	.byte	0
	.byte	0
	.byte	0
	.byte	0
	.byte	0
	.byte	0
	.byte	-81
	.byte	-64
	.byte	0
	.byte	69
	.byte	64
	.byte	1
	.byte	1
	.byte	1
	.byte	1
	.byte	1
	.byte	1
	.byte	1
	.byte	1
	.byte	1
	.byte	1
	.byte	1
	.byte	1
	.byte	1
	.byte	1
	.byte	-96
	.byte	15
	.byte	32
	.byte	-32
	.byte	48
	.byte	88
	.byte	25
	.byte	32
	.byte	24
	.byte	72
	.byte	18
	.byte	0
	.byte	0
	.byte	0
	.byte	0
	.byte	0
	.byte	0
	.byte	24
	.byte	0
	.byte	0
	.byte	0
	.byte	-3
	.byte	0
	.byte	50
	.byte	120
	.byte	30
	.byte	50
	.byte	5
	.byte	0
	.byte	10
	.byte	32
	.byte	32
	.byte	32
	.byte	32
	.byte	32
	.byte	32
	.byte	0
	.byte	0
	.byte	0
	.byte	-2
	.byte	0
	.byte	99
	.byte	111
	.byte	110
	.byte	103
	.byte	97
	.byte	116
	.byte	101
	.byte	99
	.byte	32
	.byte	65
	.byte	71
	.byte	10
	.byte	10
	.byte	0
	.byte	0
	.byte	0
	.byte	14
	.byte	0
	.byte	0
	.byte	0
	.byte	0
	.byte	0
	.byte	0
	.byte	0
	.byte	0
	.byte	0
	.byte	0
	.byte	0
	.byte	0
	.byte	0
	.byte	0
	.byte	0
	.byte	-79
	.byte	0
	.byte	0
	.byte	0
	.byte	0
	.byte	0
	.byte	0
	.byte	0
	.byte	0
	.byte	0
	.byte	0
	.byte	0
	.byte	0
	.byte	0
	.byte	0
	.byte	0
	.byte	0
	.byte	0
	.byte	0
	.byte	0
	.byte	0
	.byte	0
	.byte	0
	.byte	0
	.byte	0
	.byte	0
	.byte	0
	.byte	0
	.byte	0
	.byte	0
	.byte	0
	.byte	0
	.byte	0
	.byte	0
	.byte	0
	.byte	0
	.byte	0
	.byte	0
	.byte	0
	.byte	0
	.byte	0
	.byte	0
	.byte	0
	.byte	0
	.byte	0
	.byte	0
	.byte	0
	.byte	0
	.byte	0
	.byte	0
	.byte	0
	.byte	0
	.byte	0
	.byte	0
	.byte	0
	.byte	0
	.byte	0
	.byte	0
	.byte	0
	.byte	0
	.byte	0
	.byte	0
	.byte	0
	.byte	0
	.byte	0
	.byte	0
	.byte	0
	.byte	0
	.byte	0
	.byte	0
	.byte	0
	.byte	0
	.byte	0
	.byte	0
	.byte	0
	.byte	0
	.byte	0
	.byte	0
	.byte	0
	.byte	0
	.byte	0
	.byte	0
	.byte	0
	.byte	0
	.byte	0
	.byte	0
	.byte	0
	.byte	0
	.byte	0
	.byte	0
	.byte	0
	.byte	0
	.byte	0
	.byte	0
	.byte	0
	.byte	0
	.byte	0
	.byte	0
	.byte	0
	.byte	0
	.byte	0
	.byte	0
	.byte	0
	.byte	0
	.byte	0
	.byte	0
	.byte	0
	.byte	0
	.byte	0
	.byte	0
	.byte	0
	.byte	0
	.byte	0
	.byte	0
	.byte	0
	.byte	0
	.byte	0
	.byte	0
	.byte	0
	.byte	0
	.byte	0
	.byte	0
	.byte	0
	.byte	0
	.byte	0
	.byte	0
	.byte	0
	.byte	0
	.byte	0
	.byte	0
	.byte	0
	.byte	0
	.byte	0
	.byte	0
	.byte	0
	.byte	0
	.byte	0
	.byte	0
	.byte	0
	.byte	0
	.byte	0
	.byte	0
	.byte	0
	.byte	0
	.byte	0
	.byte	0
	.byte	0
	.byte	0
	.byte	0
	.byte	0
	.byte	0
	.byte	0
	.byte	0
	.byte	0
	.byte	0
	.byte	0
	.byte	0
	.byte	0
	.byte	0
	.byte	0
	.byte	0
	.byte	0
	.byte	0
	.byte	0
	.byte	0
	.byte	0
	.byte	0
	.byte	0
	.byte	0
	.byte	0
	.byte	0
	.byte	0
	.byte	0
	.byte	0
	.byte	0
	.byte	0
	.byte	0
	.byte	0
	.byte	0
	.byte	0
	.byte	0
	.byte	0
	.byte	0
	.byte	0
	.byte	0
	.byte	0
	.byte	0
	.byte	0
	.byte	0
	.byte	0
	.byte	0
	.byte	0
	.byte	0
	.byte	0
	.byte	0
	.byte	0
	.byte	0
	.byte	0
	.byte	0
	.byte	0
	.byte	0
	.byte	0
	.byte	0
	.byte	0
	.byte	0
	.byte	0
	.byte	0
	.byte	0
	.byte	0
	.byte	0
	.byte	0
	.byte	0
	.byte	0
	.byte	0
	.byte	0
	.byte	0
	.byte	0
	.byte	0
	.byte	0
	.byte	0
	.byte	0
	.byte	0
	.byte	0
	.byte	0
	.byte	0
	.byte	0
	.byte	0
	.byte	0
	.byte	0
	.byte	0
	.byte	0
	.byte	0
	.byte	0
	.byte	0
	.byte	0
	.byte	0
	.byte	0
	.byte	0
	.byte	0
	.byte	0
	.byte	0
	.byte	0
	.byte	0
	.byte	0
	.byte	0
	.byte	0
	.byte	0
	.byte	0
	.byte	0
	.byte	0
	.byte	0
	.byte	0
	.byte	0
	.byte	0
	.byte	0
	.byte	0
	.byte	0
	.byte	0
	.byte	0
	.byte	0
	.byte	0
	.byte	0
	.byte	0
	.byte	0
	.byte	0
	.byte	0
	.byte	0
	.byte	0
	.byte	0
	.byte	0
	.byte	0
	.byte	0
	.byte	0
	.byte	0
	.byte	0
	.byte	0
	.byte	0
	.byte	0
	.byte	0
	.byte	0
	.byte	0
	.byte	0
	.byte	0
	.byte	0
	.byte	0
	.byte	0
	.byte	0
	.byte	0
	.byte	0
	.byte	0
	.byte	0
	.byte	0
	.byte	0
	.byte	0
	.byte	0
	.byte	0
	.byte	0
	.byte	0
	.byte	0
	.byte	0
	.byte	0
	.byte	0
	.byte	0
	.byte	0
	.byte	0
	.byte	0
	.byte	0
	.byte	0
	.byte	0
	.byte	0
	.byte	0
	.byte	0
	.byte	0
	.byte	0
	.byte	0
	.byte	0
	.byte	0
	.byte	0
	.byte	0
	.byte	0
	.byte	0
	.byte	0
	.byte	0
	.byte	0
	.byte	0
	.byte	0
	.byte	0
	.byte	0
	.byte	0
	.byte	0
	.byte	0
	.byte	0
	.byte	0
	.byte	0
	.byte	0
	.byte	0
	.byte	0
	.byte	0
	.byte	0
	.byte	0
	.byte	0
	.byte	0
	.byte	0
	.byte	0
	.byte	0
	.byte	0
	.byte	0
	.byte	0
	.byte	0
	.byte	0
	.byte	0
	.byte	0
	.byte	0
	.byte	0
	.byte	0
	.byte	0
	.byte	0
	.byte	0
	.byte	0
	.byte	0
	.byte	0
	.byte	0
	.byte	0
	.byte	0
	.byte	0
	.byte	0
	.byte	0
	.byte	0
	.byte	0
	.byte	0
	.byte	0
	.byte	0
	.byte	0
	.byte	0
	.byte	0
	.byte	0
	.byte	0
	.byte	0
	.byte	0
	.byte	0
	.byte	0
	.byte	0
	.byte	0
	.byte	0
	.byte	0
	.section	.rodata
	.align	2
.LC19:
	.ascii	"EPI.EEPROM.EMUL\000"
	.section	.data.rel.local
	.align	2
	.type	EPIEEPromData, %object
	.size	EPIEEPromData, 28
EPIEEPromData:
	.word	512
	.word	2
	.word	16
	.word	0
	.word	EPIEEPROM
	.word	.LC19
	.word	0
	.text
	.align	2
	.global	EmulateEPIEeprom
	.hidden	EmulateEPIEeprom
	.syntax unified
	.arm
	.fpu vfpv3
	.type	EmulateEPIEeprom, %function
EmulateEPIEeprom:
.LFB5:
	.loc 1 416 1
	.cfi_startproc
	@ args = 4, pretend = 0, frame = 16
	@ frame_needed = 1, uses_anonymous_args = 0
	push	{fp, lr}
	.cfi_def_cfa_offset 8
	.cfi_offset 11, -8
	.cfi_offset 14, -4
	add	fp, sp, #4
	.cfi_def_cfa 11, 4
	sub	sp, sp, #24
	str	r0, [fp, #-8]
	str	r1, [fp, #-12]
	str	r2, [fp, #-16]
	str	r3, [fp, #-20]
	.loc 1 417 10
	ldr	r3, [fp, #4]
	str	r3, [sp, #4]
	ldr	r3, [fp, #-20]
	str	r3, [sp]
	ldr	r3, [fp, #-16]
	ldr	r2, [fp, #-12]
	ldr	r1, .L47
.LPIC49:
	add	r1, pc, r1
	ldr	r0, [fp, #-8]
	bl	EmulateEepromFS(PLT)
	mov	r3, r0
	.loc 1 425 1
	mov	r0, r3
	sub	sp, fp, #4
	.cfi_def_cfa 13, 8
	@ sp needed
	pop	{fp, pc}
.L48:
	.align	2
.L47:
	.word	EPIEEPromData-(.LPIC49+8)
	.cfi_endproc
.LFE5:
	.size	EmulateEPIEeprom, .-EmulateEPIEeprom
	.hidden	COM0MEEPROM
	.global	COM0MEEPROM
	.bss
	.align	2
	.type	COM0MEEPROM, %object
	.size	COM0MEEPROM, 2048
COM0MEEPROM:
	.space	2048
	.section	.rodata
	.align	2
.LC20:
	.ascii	"COM0R20-M.EEPROM.EMUL\000"
	.section	.data.rel.local
	.align	2
	.type	COM0MEEPromData, %object
	.size	COM0MEEPromData, 28
COM0MEEPromData:
	.word	2048
	.word	2
	.word	16
	.word	0
	.word	COM0MEEPROM
	.word	.LC20
	.word	0
	.hidden	COM0CBEEPROM
	.global	COM0CBEEPROM
	.bss
	.align	2
	.type	COM0CBEEPROM, %object
	.size	COM0CBEEPROM, 4096
COM0CBEEPROM:
	.space	4096
	.section	.rodata
	.align	2
.LC21:
	.ascii	"COM0R20-CB.EEPROM.EMUL\000"
	.section	.data.rel.local
	.align	2
	.type	COM0CBEEPromData, %object
	.size	COM0CBEEPromData, 28
COM0CBEEPromData:
	.word	4096
	.word	2
	.word	64
	.word	0
	.word	COM0CBEEPROM
	.word	.LC21
	.word	0
	.hidden	EeePExpEEPROM
	.global	EeePExpEEPROM
	.bss
	.align	2
	.type	EeePExpEEPROM, %object
	.size	EeePExpEEPROM, 1024
EeePExpEEPROM:
	.space	1024
	.section	.rodata
	.align	2
.LC22:
	.ascii	"EeePExp.EEPROM.EMUL\000"
	.section	.data.rel.local
	.align	2
	.type	EeePExpEEPromData, %object
	.size	EeePExpEEPromData, 28
EeePExpEEPromData:
	.word	1024
	.word	1
	.word	8
	.word	0
	.word	EeePExpEEPROM
	.word	.LC22
	.word	0
	.hidden	OpenFiles
	.global	OpenFiles
	.align	2
	.type	OpenFiles, %object
	.size	OpenFiles, 24
OpenFiles:
	.word	EeePExpEEPromData
	.word	COM0CBEEPromData
	.word	COM0MEEPromData
	.word	EPIEEPromData
	.word	UDSEEPromData
	.word	DIDEEPromData
	.section	.rodata
	.align	2
.LC23:
	.ascii	"rb+\000"
	.align	2
.LC24:
	.ascii	"wb+\000"
	.text
	.align	2
	.global	OpenI2CEepromFiles
	.hidden	OpenI2CEepromFiles
	.syntax unified
	.arm
	.fpu vfpv3
	.type	OpenI2CEepromFiles, %function
OpenI2CEepromFiles:
.LFB6:
	.loc 1 472 1
	.cfi_startproc
	@ args = 0, pretend = 0, frame = 8
	@ frame_needed = 1, uses_anonymous_args = 0
	push	{r4, fp, lr}
	.cfi_def_cfa_offset 12
	.cfi_offset 4, -12
	.cfi_offset 11, -8
	.cfi_offset 14, -4
	add	fp, sp, #8
	.cfi_def_cfa 11, 4
	sub	sp, sp, #12
	.loc 1 474 21
	ldr	r3, .L55
.LPIC50:
	add	r3, pc, r3
	str	r3, [fp, #-16]
	.loc 1 475 8
	mov	r3, #6
	str	r3, [fp, #-20]
	.loc 1 475 3
	b	.L50
.L53:
	.loc 1 476 35
	ldr	r3, [fp, #-16]
	ldr	r3, [r3]
	.loc 1 476 47
	ldr	r2, [r3, #20]
	.loc 1 476 6
	ldr	r3, [fp, #-16]
	ldr	r4, [r3]
	.loc 1 476 28
	ldr	r3, .L55+4
.LPIC51:
	add	r3, pc, r3
	mov	r1, r3
	mov	r0, r2
	bl	fopen(PLT)
	mov	r3, r0
	.loc 1 476 27
	str	r3, [r4, #24]
	.loc 1 477 9
	ldr	r3, [fp, #-16]
	ldr	r3, [r3]
	.loc 1 477 21
	ldr	r3, [r3, #24]
	.loc 1 477 7
	cmp	r3, #0
	bne	.L51
	.loc 1 478 37
	ldr	r3, [fp, #-16]
	ldr	r3, [r3]
	.loc 1 478 49
	ldr	r2, [r3, #20]
	.loc 1 478 8
	ldr	r3, [fp, #-16]
	ldr	r4, [r3]
	.loc 1 478 30
	ldr	r3, .L55+8
.LPIC52:
	add	r3, pc, r3
	mov	r1, r3
	mov	r0, r2
	bl	fopen(PLT)
	mov	r3, r0
	.loc 1 478 29
	str	r3, [r4, #24]
.L51:
	.loc 1 480 9
	ldr	r3, [fp, #-16]
	ldr	r3, [r3]
	.loc 1 480 21
	ldr	r3, [r3, #24]
	.loc 1 480 7
	cmp	r3, #0
	beq	.L52
	.loc 1 481 16
	ldr	r3, [fp, #-16]
	ldr	r3, [r3]
	.loc 1 481 9
	ldr	r3, [r3, #24]
	mov	r2, #2
	mov	r1, #0
	mov	r0, r3
	bl	fseek(PLT)
	.loc 1 482 19
	ldr	r3, [fp, #-16]
	ldr	r3, [r3]
	.loc 1 482 12
	ldr	r3, [r3, #24]
	mov	r0, r3
	bl	ftell(PLT)
	mov	r2, r0
	.loc 1 482 51
	ldr	r3, [fp, #-16]
	ldr	r3, [r3]
	.loc 1 482 63
	ldr	r3, [r3]
	.loc 1 482 11
	cmp	r2, r3
	bge	.L52
	.loc 1 483 19
	ldr	r3, [fp, #-16]
	ldr	r3, [r3]
	.loc 1 483 11
	ldr	r3, [r3, #24]
	mov	r0, r3
	bl	rewind(PLT)
	.loc 1 484 19
	ldr	r3, [fp, #-16]
	ldr	r3, [r3]
	.loc 1 484 31
	ldr	r0, [r3, #16]
	.loc 1 484 63
	ldr	r3, [fp, #-16]
	ldr	r3, [r3]
	.loc 1 484 75
	ldr	r2, [r3]
	.loc 1 484 87
	ldr	r3, [fp, #-16]
	ldr	r3, [r3]
	.loc 1 484 11
	ldr	r3, [r3, #24]
	mov	r1, #1
	bl	fwrite(PLT)
.L52:
	.loc 1 475 36 discriminator 2
	ldr	r3, [fp, #-20]
	sub	r3, r3, #1
	str	r3, [fp, #-20]
	.loc 1 475 50 discriminator 2
	ldr	r3, [fp, #-16]
	add	r3, r3, #4
	str	r3, [fp, #-16]
.L50:
	.loc 1 475 32 discriminator 1
	ldr	r3, [fp, #-20]
	cmp	r3, #0
	bne	.L53
	.loc 1 488 10
	mov	r3, #0
	.loc 1 489 1
	mov	r0, r3
	sub	sp, fp, #8
	.cfi_def_cfa 13, 12
	@ sp needed
	pop	{r4, fp, pc}
.L56:
	.align	2
.L55:
	.word	OpenFiles-(.LPIC50+8)
	.word	.LC23-(.LPIC51+8)
	.word	.LC24-(.LPIC52+8)
	.cfi_endproc
.LFE6:
	.size	OpenI2CEepromFiles, .-OpenI2CEepromFiles
	.align	2
	.global	CloseI2CEepromFiles
	.hidden	CloseI2CEepromFiles
	.syntax unified
	.arm
	.fpu vfpv3
	.type	CloseI2CEepromFiles, %function
CloseI2CEepromFiles:
.LFB7:
	.loc 1 492 1
	.cfi_startproc
	@ args = 0, pretend = 0, frame = 8
	@ frame_needed = 1, uses_anonymous_args = 0
	push	{fp, lr}
	.cfi_def_cfa_offset 8
	.cfi_offset 11, -8
	.cfi_offset 14, -4
	add	fp, sp, #4
	.cfi_def_cfa 11, 4
	sub	sp, sp, #8
	.loc 1 494 21
	ldr	r3, .L62
.LPIC53:
	add	r3, pc, r3
	str	r3, [fp, #-8]
	.loc 1 495 8
	mov	r3, #6
	str	r3, [fp, #-12]
	.loc 1 495 3
	b	.L58
.L60:
	.loc 1 496 9
	ldr	r3, [fp, #-8]
	ldr	r3, [r3]
	.loc 1 496 21
	ldr	r3, [r3, #24]
	.loc 1 496 7
	cmp	r3, #0
	beq	.L59
	.loc 1 497 15
	ldr	r3, [fp, #-8]
	ldr	r3, [r3]
	.loc 1 497 7
	ldr	r3, [r3, #24]
	mov	r0, r3
	bl	fclose(PLT)
	.loc 1 498 8
	ldr	r3, [fp, #-8]
	ldr	r3, [r3]
	.loc 1 498 29
	mov	r2, #0
	str	r2, [r3, #24]
.L59:
	.loc 1 495 36 discriminator 2
	ldr	r3, [fp, #-12]
	sub	r3, r3, #1
	str	r3, [fp, #-12]
	.loc 1 495 50 discriminator 2
	ldr	r3, [fp, #-8]
	add	r3, r3, #4
	str	r3, [fp, #-8]
.L58:
	.loc 1 495 32 discriminator 1
	ldr	r3, [fp, #-12]
	cmp	r3, #0
	bne	.L60
	.loc 1 501 10
	mov	r3, #0
	.loc 1 502 1
	mov	r0, r3
	sub	sp, fp, #4
	.cfi_def_cfa 13, 8
	@ sp needed
	pop	{fp, pc}
.L63:
	.align	2
.L62:
	.word	OpenFiles-(.LPIC53+8)
	.cfi_endproc
.LFE7:
	.size	CloseI2CEepromFiles, .-CloseI2CEepromFiles
	.align	2
	.global	EmulateEeePExpEeprom
	.hidden	EmulateEeePExpEeprom
	.syntax unified
	.arm
	.fpu vfpv3
	.type	EmulateEeePExpEeprom, %function
EmulateEeePExpEeprom:
.LFB8:
	.loc 1 512 1
	.cfi_startproc
	@ args = 4, pretend = 0, frame = 16
	@ frame_needed = 1, uses_anonymous_args = 0
	push	{fp, lr}
	.cfi_def_cfa_offset 8
	.cfi_offset 11, -8
	.cfi_offset 14, -4
	add	fp, sp, #4
	.cfi_def_cfa 11, 4
	sub	sp, sp, #24
	str	r0, [fp, #-8]
	str	r1, [fp, #-12]
	str	r2, [fp, #-16]
	str	r3, [fp, #-20]
	.loc 1 513 10
	ldr	r3, [fp, #4]
	str	r3, [sp, #4]
	ldr	r3, [fp, #-20]
	str	r3, [sp]
	ldr	r3, [fp, #-16]
	ldr	r2, [fp, #-12]
	ldr	r1, .L66
.LPIC54:
	add	r1, pc, r1
	ldr	r0, [fp, #-8]
	bl	EmulateEepromFS(PLT)
	mov	r3, r0
	.loc 1 521 1
	mov	r0, r3
	sub	sp, fp, #4
	.cfi_def_cfa 13, 8
	@ sp needed
	pop	{fp, pc}
.L67:
	.align	2
.L66:
	.word	EeePExpEEPromData-(.LPIC54+8)
	.cfi_endproc
.LFE8:
	.size	EmulateEeePExpEeprom, .-EmulateEeePExpEeprom
	.align	2
	.global	EmulateCOM0CBEeprom
	.hidden	EmulateCOM0CBEeprom
	.syntax unified
	.arm
	.fpu vfpv3
	.type	EmulateCOM0CBEeprom, %function
EmulateCOM0CBEeprom:
.LFB9:
	.loc 1 532 1
	.cfi_startproc
	@ args = 4, pretend = 0, frame = 16
	@ frame_needed = 1, uses_anonymous_args = 0
	push	{fp, lr}
	.cfi_def_cfa_offset 8
	.cfi_offset 11, -8
	.cfi_offset 14, -4
	add	fp, sp, #4
	.cfi_def_cfa 11, 4
	sub	sp, sp, #24
	str	r0, [fp, #-8]
	str	r1, [fp, #-12]
	str	r2, [fp, #-16]
	str	r3, [fp, #-20]
	.loc 1 533 10
	ldr	r3, [fp, #4]
	str	r3, [sp, #4]
	ldr	r3, [fp, #-20]
	str	r3, [sp]
	ldr	r3, [fp, #-16]
	ldr	r2, [fp, #-12]
	ldr	r1, .L70
.LPIC55:
	add	r1, pc, r1
	ldr	r0, [fp, #-8]
	bl	EmulateEepromFS(PLT)
	mov	r3, r0
	.loc 1 541 1
	mov	r0, r3
	sub	sp, fp, #4
	.cfi_def_cfa 13, 8
	@ sp needed
	pop	{fp, pc}
.L71:
	.align	2
.L70:
	.word	COM0CBEEPromData-(.LPIC55+8)
	.cfi_endproc
.LFE9:
	.size	EmulateCOM0CBEeprom, .-EmulateCOM0CBEeprom
	.align	2
	.global	EmulateCOM0MEeprom
	.hidden	EmulateCOM0MEeprom
	.syntax unified
	.arm
	.fpu vfpv3
	.type	EmulateCOM0MEeprom, %function
EmulateCOM0MEeprom:
.LFB10:
	.loc 1 551 1
	.cfi_startproc
	@ args = 4, pretend = 0, frame = 16
	@ frame_needed = 1, uses_anonymous_args = 0
	push	{fp, lr}
	.cfi_def_cfa_offset 8
	.cfi_offset 11, -8
	.cfi_offset 14, -4
	add	fp, sp, #4
	.cfi_def_cfa 11, 4
	sub	sp, sp, #24
	str	r0, [fp, #-8]
	str	r1, [fp, #-12]
	str	r2, [fp, #-16]
	str	r3, [fp, #-20]
	.loc 1 552 10
	ldr	r3, [fp, #4]
	str	r3, [sp, #4]
	ldr	r3, [fp, #-20]
	str	r3, [sp]
	ldr	r3, [fp, #-16]
	ldr	r2, [fp, #-12]
	ldr	r1, .L74
.LPIC56:
	add	r1, pc, r1
	ldr	r0, [fp, #-8]
	bl	EmulateEepromFS(PLT)
	mov	r3, r0
	.loc 1 560 1
	mov	r0, r3
	sub	sp, fp, #4
	.cfi_def_cfa 13, 8
	@ sp needed
	pop	{fp, pc}
.L75:
	.align	2
.L74:
	.word	COM0MEEPromData-(.LPIC56+8)
	.cfi_endproc
.LFE10:
	.size	EmulateCOM0MEeprom, .-EmulateCOM0MEeprom
	.hidden	CpuTemp
	.global	CpuTemp
	.data
	.align	2
	.type	CpuTemp, %object
	.size	CpuTemp, 1
CpuTemp:
	.ascii	"8"
	.hidden	ChipsetTemp
	.global	ChipsetTemp
	.align	2
	.type	ChipsetTemp, %object
	.size	ChipsetTemp, 1
ChipsetTemp:
	.ascii	"."
	.hidden	SystemTemp
	.global	SystemTemp
	.align	2
	.type	SystemTemp, %object
	.size	SystemTemp, 1
SystemTemp:
	.ascii	"\322"
	.hidden	HwmonCmdIndx
	.global	HwmonCmdIndx
	.section	.data.rel.local
	.align	2
	.type	HwmonCmdIndx, %object
	.size	HwmonCmdIndx, 48
HwmonCmdIndx:
	.word	16
	.word	1
	.word	CpuTemp
	.word	17
	.word	1
	.word	ChipsetTemp
	.word	18
	.word	1
	.word	SystemTemp
	.word	-1
	.word	0
	.word	0
	.hidden	HWMon
	.global	HWMon
	.section	.rodata
	.align	2
.LC25:
	.ascii	"ADT7447\000"
	.section	.data.rel.local
	.align	2
	.type	HWMon, %object
	.size	HWMon, 20
HWMon:
	.word	1
	.word	0
	.word	0
	.word	.LC25
	.word	HwmonCmdIndx
	.text
	.align	2
	.global	EmulateHWMonDevice
	.hidden	EmulateHWMonDevice
	.syntax unified
	.arm
	.fpu vfpv3
	.type	EmulateHWMonDevice, %function
EmulateHWMonDevice:
.LFB11:
	.loc 1 586 1
	.cfi_startproc
	@ args = 4, pretend = 0, frame = 16
	@ frame_needed = 1, uses_anonymous_args = 0
	push	{fp, lr}
	.cfi_def_cfa_offset 8
	.cfi_offset 11, -8
	.cfi_offset 14, -4
	add	fp, sp, #4
	.cfi_def_cfa 11, 4
	sub	sp, sp, #24
	str	r0, [fp, #-8]
	str	r1, [fp, #-12]
	str	r2, [fp, #-16]
	str	r3, [fp, #-20]
	.loc 1 587 10
	ldr	r3, [fp, #4]
	str	r3, [sp, #4]
	ldr	r3, [fp, #-20]
	str	r3, [sp]
	ldr	r3, [fp, #-16]
	ldr	r2, [fp, #-12]
	ldr	r1, .L78
.LPIC57:
	add	r1, pc, r1
	ldr	r0, [fp, #-8]
	bl	EmulateCmdDevice(PLT)
	mov	r3, r0
	.loc 1 595 1
	mov	r0, r3
	sub	sp, fp, #4
	.cfi_def_cfa 13, 8
	@ sp needed
	pop	{fp, pc}
.L79:
	.align	2
.L78:
	.word	HWMon-(.LPIC57+8)
	.cfi_endproc
.LFE11:
	.size	EmulateHWMonDevice, .-EmulateHWMonDevice
	.hidden	ExternalI2CDevices
	.global	ExternalI2CDevices
	.section	.data.rel.ro.local,"aw"
	.align	2
	.type	ExternalI2CDevices, %object
	.size	ExternalI2CDevices, 96
ExternalI2CDevices:
	.word	82
	.word	EmulateHWMonDevice
	.word	0
	.word	160
	.word	EmulateCOM0MEeprom
	.word	0
	.word	162
	.word	EmulateEeePExpEeprom
	.word	0
	.word	164
	.word	EmulateEeePExpEeprom
	.word	1
	.word	166
	.word	EmulateEeePExpEeprom
	.word	2
	.word	168
	.word	EmulateEeePExpEeprom
	.word	3
	.word	174
	.word	EmulateCOM0CBEeprom
	.word	0
	.word	-1
	.word	0
	.word	0
	.hidden	LVDS_1I2CDevices
	.global	LVDS_1I2CDevices
	.align	2
	.type	LVDS_1I2CDevices, %object
	.size	LVDS_1I2CDevices, 48
LVDS_1I2CDevices:
	.word	160
	.word	EmulateUDSEeprom
	.word	0
	.word	164
	.word	EmulateDIDEeprom
	.word	0
	.word	62037
	.word	EmulateDIDEeprom
	.word	0
	.word	-1
	.word	0
	.word	0
	.hidden	LVDS_2I2CDevices
	.global	LVDS_2I2CDevices
	.align	2
	.type	LVDS_2I2CDevices, %object
	.size	LVDS_2I2CDevices, 36
LVDS_2I2CDevices:
	.word	160
	.word	EmulateEPIEeprom
	.word	0
	.word	164
	.word	EmulateDIDEeprom
	.word	0
	.word	-1
	.word	0
	.word	0
	.hidden	EmulatedInterfaces
	.global	EmulatedInterfaces
	.align	2
	.type	EmulatedInterfaces, %object
	.size	EmulatedInterfaces, 36
EmulatedInterfaces:
	.word	0
	.word	ExternalI2CDevices
	.word	65536
	.word	1
	.word	LVDS_1I2CDevices
	.word	256
	.word	2
	.word	LVDS_2I2CDevices
	.word	32
	.section	.rodata
	.align	2
.LC26:
	.ascii	"EApiI2CGetBusCapEmul\000"
	.align	2
.LC27:
	.ascii	"Unrecognised I2C ID\000"
	.text
	.align	2
	.global	EApiI2CGetBusCapEmul
	.syntax unified
	.arm
	.fpu vfpv3
	.type	EApiI2CGetBusCapEmul, %function
EApiI2CGetBusCapEmul:
.LFB12:
	.loc 1 647 1
	.cfi_startproc
	@ args = 0, pretend = 0, frame = 16
	@ frame_needed = 1, uses_anonymous_args = 0
	push	{fp, lr}
	.cfi_def_cfa_offset 8
	.cfi_offset 11, -8
	.cfi_offset 14, -4
	add	fp, sp, #4
	.cfi_def_cfa 11, 4
	sub	sp, sp, #32
	str	r0, [fp, #-16]
	str	r1, [fp, #-20]
	.loc 1 648 16
	mov	r3, #0
	str	r3, [fp, #-12]
	.loc 1 651 8
	mov	r3, #0
	str	r3, [fp, #-8]
	.loc 1 651 3
	b	.L81
.L84:
	.loc 1 653 31
	ldr	r1, .L86
.LPIC58:
	add	r1, pc, r1
	ldr	r2, [fp, #-8]
	mov	r3, r2
	lsl	r3, r3, #1
	add	r3, r3, r2
	lsl	r3, r3, #2
	add	r3, r1, r3
	ldr	r3, [r3]
	.loc 1 653 9
	ldr	r2, [fp, #-16]
	cmp	r2, r3
	bne	.L82
	.loc 1 655 44
	ldr	r1, .L86+4
.LPIC59:
	add	r1, pc, r1
	ldr	r2, [fp, #-8]
	mov	r3, r2
	lsl	r3, r3, #1
	add	r3, r3, r2
	lsl	r3, r3, #2
	add	r3, r1, r3
	add	r3, r3, #8
	ldr	r2, [r3]
	.loc 1 655 22
	ldr	r3, [fp, #-20]
	str	r2, [r3]
	.loc 1 656 11
	ldr	r3, .L86+8
.LPIC60:
	add	r3, pc, r3
	str	r3, [sp, #8]
	ldr	r3, .L86+12
.LPIC61:
	add	r3, pc, r3
	str	r3, [sp, #4]
	mov	r3, #0
	str	r3, [sp]
	mov	r3, #656
	ldr	r2, .L86+16
.LPIC62:
	add	r2, pc, r2
	ldr	r1, .L86+20
.LPIC63:
	add	r1, pc, r1
	mov	r0, #76
	bl	siFormattedMessage_SC(PLT)
	mov	r3, #0
	str	r3, [fp, #-12]
	b	.L83
.L82:
	.loc 1 651 45 discriminator 2
	ldr	r3, [fp, #-8]
	add	r3, r3, #1
	str	r3, [fp, #-8]
.L81:
	.loc 1 651 12 discriminator 1
	ldr	r3, [fp, #-8]
	cmp	r3, #2
	bls	.L84
	.loc 1 663 3
	ldr	r3, .L86+24
.LPIC64:
	add	r3, pc, r3
	str	r3, [sp, #8]
	ldr	r3, .L86+28
.LPIC65:
	add	r3, pc, r3
	str	r3, [sp, #4]
	mvn	r3, #768
	str	r3, [sp]
	movw	r3, #663
	ldr	r2, .L86+32
.LPIC66:
	add	r2, pc, r2
	ldr	r1, .L86+36
.LPIC67:
	add	r1, pc, r1
	mov	r0, #69
	bl	siFormattedMessage_SC(PLT)
	mvn	r3, #768
	str	r3, [fp, #-12]
	nop
.L83:
	.loc 1 670 10
	ldr	r3, [fp, #-12]
	.loc 1 671 1
	mov	r0, r3
	sub	sp, fp, #4
	.cfi_def_cfa 13, 8
	@ sp needed
	pop	{fp, pc}
.L87:
	.align	2
.L86:
	.word	EmulatedInterfaces-(.LPIC58+8)
	.word	EmulatedInterfaces-(.LPIC59+8)
	.word	.LC14-(.LPIC60+8)
	.word	.LC7-(.LPIC61+8)
	.word	.LC26-(.LPIC62+8)
	.word	.LC4-(.LPIC63+8)
	.word	.LC27-(.LPIC64+8)
	.word	.LC7-(.LPIC65+8)
	.word	.LC26-(.LPIC66+8)
	.word	.LC4-(.LPIC67+8)
	.cfi_endproc
.LFE12:
	.size	EApiI2CGetBusCapEmul, .-EApiI2CGetBusCapEmul
	.section	.rodata
	.align	2
.LC28:
	.ascii	"EApiI2CWriteReadEmul\000"
	.align	2
.LC29:
	.ascii	"WriteBCnt>(pMaxBlkLen+1)\000"
	.align	2
.LC30:
	.ascii	"ReadBCnt>(pMaxBlkLen+1)\000"
	.align	2
.LC31:
	.ascii	"ADDR=%02X\012\000"
	.align	2
.LC32:
	.ascii	"Info\000"
	.align	2
.LC33:
	.ascii	"Device Not Present\000"
	.text
	.align	2
	.global	EApiI2CWriteReadEmul
	.syntax unified
	.arm
	.fpu vfpv3
	.type	EApiI2CWriteReadEmul, %function
EApiI2CWriteReadEmul:
.LFB13:
	.loc 1 692 1
	.cfi_startproc
	@ args = 8, pretend = 0, frame = 32
	@ frame_needed = 1, uses_anonymous_args = 0
	push	{r4, fp, lr}
	.cfi_def_cfa_offset 12
	.cfi_offset 4, -12
	.cfi_offset 11, -8
	.cfi_offset 14, -4
	add	fp, sp, #8
	.cfi_def_cfa 11, 4
	sub	sp, sp, #52
	str	r0, [fp, #-32]
	str	r2, [fp, #-40]
	str	r3, [fp, #-44]
	mov	r3, r1
	strb	r3, [fp, #-33]
	.loc 1 693 16
	mov	r3, #0
	str	r3, [fp, #-28]
	.loc 1 697 8
	mov	r3, #0
	str	r3, [fp, #-24]
	.loc 1 697 3
	b	.L89
.L104:
	.loc 1 699 31
	ldr	r1, .L105
.LPIC68:
	add	r1, pc, r1
	ldr	r2, [fp, #-24]
	mov	r3, r2
	lsl	r3, r3, #1
	add	r3, r3, r2
	lsl	r3, r3, #2
	add	r3, r1, r3
	ldr	r3, [r3]
	.loc 1 699 9
	ldr	r2, [fp, #-32]
	cmp	r2, r3
	bne	.L90
	.loc 1 701 2
	ldr	r1, .L105+4
.LPIC69:
	add	r1, pc, r1
	ldr	r2, [fp, #-24]
	mov	r3, r2
	lsl	r3, r3, #1
	add	r3, r3, r2
	lsl	r3, r3, #2
	add	r3, r1, r3
	add	r3, r3, #8
	ldr	r3, [r3]
	add	r3, r3, #1
	ldr	r2, [fp, #-44]
	cmp	r2, r3
	bls	.L91
	.loc 1 701 2 is_stmt 0 discriminator 1
	ldr	r3, .L105+8
.LPIC70:
	add	r3, pc, r3
	str	r3, [sp, #8]
	ldr	r3, .L105+12
.LPIC71:
	add	r3, pc, r3
	str	r3, [sp, #4]
	movw	r3, #65277
	movt	r3, 65535
	str	r3, [sp]
	movw	r3, #701
	ldr	r2, .L105+16
.LPIC72:
	add	r2, pc, r2
	ldr	r1, .L105+20
.LPIC73:
	add	r1, pc, r1
	mov	r0, #69
	bl	siFormattedMessage_SC(PLT)
	movw	r3, #65277
	movt	r3, 65535
	str	r3, [fp, #-28]
	b	.L92
.L91:
	.loc 1 707 2 is_stmt 1
	ldr	r1, .L105+24
.LPIC74:
	add	r1, pc, r1
	ldr	r2, [fp, #-24]
	mov	r3, r2
	lsl	r3, r3, #1
	add	r3, r3, r2
	lsl	r3, r3, #2
	add	r3, r1, r3
	add	r3, r3, #8
	ldr	r3, [r3]
	add	r3, r3, #1
	ldr	r2, [fp, #8]
	cmp	r2, r3
	bls	.L93
	.loc 1 707 2 is_stmt 0 discriminator 1
	ldr	r3, .L105+28
.LPIC75:
	add	r3, pc, r3
	str	r3, [sp, #8]
	ldr	r3, .L105+32
.LPIC76:
	add	r3, pc, r3
	str	r3, [sp, #4]
	movw	r3, #65277
	movt	r3, 65535
	str	r3, [sp]
	movw	r3, #707
	ldr	r2, .L105+36
.LPIC77:
	add	r2, pc, r2
	ldr	r1, .L105+40
.LPIC78:
	add	r1, pc, r1
	mov	r0, #69
	bl	siFormattedMessage_SC(PLT)
	movw	r3, #65277
	movt	r3, 65535
	str	r3, [fp, #-28]
	b	.L92
.L93:
	.loc 1 713 12 is_stmt 1
	ldrb	r3, [fp, #-33]	@ zero_extendqisi2
	lsl	r3, r3, #8
	and	r3, r3, #63488
	.loc 1 713 11
	cmp	r3, #61440
	bne	.L94
	.loc 1 714 23
	ldrb	r3, [fp, #-33]	@ zero_extendqisi2
	lsl	r3, r3, #8
	.loc 1 714 18
	str	r3, [fp, #-16]
	.loc 1 715 20
	ldr	r3, [fp, #-40]
	ldrb	r3, [r3]	@ zero_extendqisi2
	mov	r2, r3
	.loc 1 715 18
	ldr	r3, [fp, #-16]
	orr	r3, r3, r2
	str	r3, [fp, #-16]
	.loc 1 716 19
	ldr	r3, [fp, #-40]
	add	r3, r3, #1
	str	r3, [fp, #-40]
	.loc 1 717 20
	ldr	r3, [fp, #-44]
	sub	r3, r3, #1
	str	r3, [fp, #-44]
	b	.L95
.L94:
	.loc 1 720 18
	ldrb	r3, [fp, #-33]	@ zero_extendqisi2
	str	r3, [fp, #-16]
.L95:
	.loc 1 723 9
	ldr	r3, [fp, #-16]
	str	r3, [sp, #8]
	ldr	r3, .L105+44
.LPIC79:
	add	r3, pc, r3
	str	r3, [sp, #4]
	ldr	r3, .L105+48
.LPIC80:
	add	r3, pc, r3
	str	r3, [sp]
	movw	r3, #727
	ldr	r2, .L105+52
.LPIC81:
	add	r2, pc, r2
	ldr	r1, .L105+56
.LPIC82:
	add	r1, pc, r1
	mov	r0, #76
	bl	siFormattedMessage_M2(PLT)
	.loc 1 733 15
	mov	r3, #0
	str	r3, [fp, #-20]
	.loc 1 733 9
	b	.L96
.L103:
	.loc 1 738 35
	ldr	r1, .L105+60
.LPIC83:
	add	r1, pc, r1
	ldr	r2, [fp, #-24]
	mov	r3, r2
	lsl	r3, r3, #1
	add	r3, r3, r2
	lsl	r3, r3, #2
	add	r3, r1, r3
	add	r3, r3, #4
	ldr	r1, [r3]
	.loc 1 738 47
	ldr	r2, [fp, #-20]
	mov	r3, r2
	lsl	r3, r3, #1
	add	r3, r3, r2
	lsl	r3, r3, #2
	add	r3, r1, r3
	.loc 1 738 51
	ldr	r3, [r3]
	.loc 1 738 13
	ldr	r2, [fp, #-16]
	cmp	r2, r3
	bne	.L97
	.loc 1 739 41
	ldr	r1, .L105+64
.LPIC84:
	add	r1, pc, r1
	ldr	r2, [fp, #-24]
	mov	r3, r2
	lsl	r3, r3, #1
	add	r3, r3, r2
	lsl	r3, r3, #2
	add	r3, r1, r3
	add	r3, r3, #4
	ldr	r1, [r3]
	.loc 1 739 53
	ldr	r2, [fp, #-20]
	mov	r3, r2
	lsl	r3, r3, #1
	add	r3, r3, r2
	lsl	r3, r3, #2
	add	r3, r1, r3
	.loc 1 739 57
	ldr	r4, [r3, #4]
	.loc 1 740 38
	ldr	r1, .L105+68
.LPIC85:
	add	r1, pc, r1
	ldr	r2, [fp, #-24]
	mov	r3, r2
	lsl	r3, r3, #1
	add	r3, r3, r2
	lsl	r3, r3, #2
	add	r3, r1, r3
	add	r3, r3, #4
	ldr	r1, [r3]
	.loc 1 740 50
	ldr	r2, [fp, #-20]
	mov	r3, r2
	lsl	r3, r3, #1
	add	r3, r3, r2
	lsl	r3, r3, #2
	add	r3, r1, r3
	.loc 1 740 54
	ldr	r0, [r3, #8]
	.loc 1 739 20
	ldr	r3, [fp, #-44]
	cmp	r3, #0
	beq	.L98
	.loc 1 739 20 is_stmt 0 discriminator 1
	ldr	r3, [fp, #-44]
	sub	r2, r3, #1
	b	.L99
.L98:
	.loc 1 739 20 discriminator 2
	mov	r2, #0
.L99:
	.loc 1 739 20 discriminator 4
	ldr	r3, [fp, #8]
	cmp	r3, #0
	beq	.L100
	.loc 1 739 20 discriminator 5
	ldr	r3, [fp, #8]
	sub	r3, r3, #1
	b	.L101
.L100:
	.loc 1 739 20 discriminator 6
	mov	r3, #0
.L101:
	.loc 1 739 20 discriminator 8
	str	r3, [sp]
	ldr	r3, [fp, #4]
	ldr	r1, [fp, #-40]
	blx	r4
.LVL0:
	mov	r3, r0
	b	.L102
.L97:
	.loc 1 735 15 is_stmt 1
	ldr	r3, [fp, #-20]
	add	r3, r3, #1
	str	r3, [fp, #-20]
.L96:
	.loc 1 734 34
	ldr	r1, .L105+72
.LPIC86:
	add	r1, pc, r1
	ldr	r2, [fp, #-24]
	mov	r3, r2
	lsl	r3, r3, #1
	add	r3, r3, r2
	lsl	r3, r3, #2
	add	r3, r1, r3
	add	r3, r3, #4
	ldr	r1, [r3]
	.loc 1 734 46
	ldr	r2, [fp, #-20]
	mov	r3, r2
	lsl	r3, r3, #1
	add	r3, r3, r2
	lsl	r3, r3, #2
	add	r3, r1, r3
	.loc 1 734 50
	ldr	r3, [r3]
	.loc 1 734 58
	cmn	r3, #1
	bne	.L103
	.loc 1 749 9
	ldr	r3, .L105+76
.LPIC87:
	add	r3, pc, r3
	str	r3, [sp, #8]
	ldr	r3, .L105+80
.LPIC88:
	add	r3, pc, r3
	str	r3, [sp, #4]
	mvn	r3, #1024
	str	r3, [sp]
	movw	r3, #749
	ldr	r2, .L105+84
.LPIC89:
	add	r2, pc, r2
	ldr	r1, .L105+88
.LPIC90:
	add	r1, pc, r1
	mov	r0, #69
	bl	siFormattedMessage_SC(PLT)
	mvn	r3, #1024
	str	r3, [fp, #-28]
	b	.L92
.L90:
	.loc 1 697 45 discriminator 2
	ldr	r3, [fp, #-24]
	add	r3, r3, #1
	str	r3, [fp, #-24]
.L89:
	.loc 1 697 12 discriminator 1
	ldr	r3, [fp, #-24]
	cmp	r3, #2
	bls	.L104
	.loc 1 757 3
	ldr	r3, .L105+92
.LPIC91:
	add	r3, pc, r3
	str	r3, [sp, #8]
	ldr	r3, .L105+96
.LPIC92:
	add	r3, pc, r3
	str	r3, [sp, #4]
	mvn	r3, #768
	str	r3, [sp]
	movw	r3, #757
	ldr	r2, .L105+100
.LPIC93:
	add	r2, pc, r2
	ldr	r1, .L105+104
.LPIC94:
	add	r1, pc, r1
	mov	r0, #69
	bl	siFormattedMessage_SC(PLT)
	mvn	r3, #768
	str	r3, [fp, #-28]
	nop
.L92:
	.loc 1 764 10
	ldr	r3, [fp, #-28]
.L102:
	.loc 1 765 1
	mov	r0, r3
	sub	sp, fp, #8
	.cfi_def_cfa 13, 12
	@ sp needed
	pop	{r4, fp, pc}
.L106:
	.align	2
.L105:
	.word	EmulatedInterfaces-(.LPIC68+8)
	.word	EmulatedInterfaces-(.LPIC69+8)
	.word	.LC29-(.LPIC70+8)
	.word	.LC7-(.LPIC71+8)
	.word	.LC28-(.LPIC72+8)
	.word	.LC4-(.LPIC73+8)
	.word	EmulatedInterfaces-(.LPIC74+8)
	.word	.LC30-(.LPIC75+8)
	.word	.LC7-(.LPIC76+8)
	.word	.LC28-(.LPIC77+8)
	.word	.LC4-(.LPIC78+8)
	.word	.LC31-(.LPIC79+8)
	.word	.LC32-(.LPIC80+8)
	.word	.LC28-(.LPIC81+8)
	.word	.LC4-(.LPIC82+8)
	.word	EmulatedInterfaces-(.LPIC83+8)
	.word	EmulatedInterfaces-(.LPIC84+8)
	.word	EmulatedInterfaces-(.LPIC85+8)
	.word	EmulatedInterfaces-(.LPIC86+8)
	.word	.LC33-(.LPIC87+8)
	.word	.LC7-(.LPIC88+8)
	.word	.LC28-(.LPIC89+8)
	.word	.LC4-(.LPIC90+8)
	.word	.LC27-(.LPIC91+8)
	.word	.LC7-(.LPIC92+8)
	.word	.LC28-(.LPIC93+8)
	.word	.LC4-(.LPIC94+8)
	.cfi_endproc
.LFE13:
	.size	EApiI2CWriteReadEmul, .-EApiI2CWriteReadEmul
.Letext0:
	.file 2 "/home/hkh/buildroot-2022.02/output/host/arm-buildroot-linux-musleabihf/sysroot/usr/include/bits/alltypes.h"
	.file 3 "../../include/EApi.h"
	.file 4 "/home/hkh/git/eapidk-code-r76-trunk/lib/linux/../DIDData.h"
	.file 5 "/home/hkh/git/eapidk-code-r76-trunk/lib/linux/../UDSData.h"
	.file 6 "/home/hkh/git/eapidk-code-r76-trunk/lib/linux/../EPIData.h"
	.file 7 "/home/hkh/buildroot-2022.02/output/host/arm-buildroot-linux-musleabihf/sysroot/usr/include/stdio.h"
	.file 8 "/home/hkh/buildroot-2022.02/output/host/arm-buildroot-linux-musleabihf/sysroot/usr/include/string.h"
	.file 9 "../include/DbgChk.h"
	.file 10 "../../include/linux/EApiOs.h"
	.section	.note.GNU-stack,"",%progbits
