ARM GAS  /tmp/ccJiIEBf.s 			page 1


   1              		.cpu cortex-a9
   2              		.eabi_attribute 28, 1
   3              		.eabi_attribute 20, 1
   4              		.eabi_attribute 21, 1
   5              		.eabi_attribute 23, 3
   6              		.eabi_attribute 24, 1
   7              		.eabi_attribute 25, 1
   8              		.eabi_attribute 26, 2
   9              		.eabi_attribute 30, 6
  10              		.eabi_attribute 34, 1
  11              		.eabi_attribute 18, 4
  12              		.file	"EApiEmulI2C.c"
  13              		.text
  14              	.Ltext0:
  15              		.cfi_sections	.debug_frame
  16              		.hidden	StdExt
  17              		.global	StdExt
  18              		.section	.rodata
  19              		.align	2
  20              	.LC0:
  21 0000 20202000 		.ascii	"   \000"
  22              		.align	2
  23              	.LC1:
  24 0004 53746400 		.ascii	"Std\000"
  25              		.align	2
  26              	.LC2:
  27 0008 45787400 		.ascii	"Ext\000"
  28              		.section	.data.rel.local,"aw"
  29              		.align	2
  32              	StdExt:
  33 0000 00000000 		.word	.LC0
  34 0004 04000000 		.word	.LC1
  35 0008 08000000 		.word	.LC2
  36              		.section	.rodata
  37              		.align	2
  38              	.LC3:
  39 000c 456D756C 		.ascii	"EmulateEepromFS\000"
  39      61746545 
  39      6570726F 
  39      6D465300 
  40              		.align	2
  41              	.LC4:
  42 001c 2F686F6D 		.ascii	"/home/hkh/git/eapidk-code-r76-trunk/lib/linux/../EA"
  42      652F686B 
  42      682F6769 
  42      742F6561 
  42      7069646B 
  43 004f 7069456D 		.ascii	"piEmulI2C.c\000"
  43      756C4932 
  43      432E6300 
  44 005b 00       		.align	2
  45              	.LC5:
  46 005c 25337320 		.ascii	"%3s CIDX=%04lX Arg1=%1lX DLEN=%04lX PLEN=%04lX WLEN"
  46      43494458 
  46      3D253034 
  46      6C582041 
  46      7267313D 
ARM GAS  /tmp/ccJiIEBf.s 			page 2


  47 008f 3D253034 		.ascii	"=%04lX RLEN=%04lX %02X,%02X,%02X,%02X\012\000"
  47      6C582052 
  47      4C454E3D 
  47      2530346C 
  47      58202530 
  48 00b6 0000     		.align	2
  49              	.LC6:
  50 00b8 53544420 		.ascii	"STD INDEX Sent to EXT INDEX EEPROM\000"
  50      494E4445 
  50      58205365 
  50      6E742074 
  50      6F204558 
  51 00db 00       		.align	2
  52              	.LC7:
  53 00dc 25730A00 		.ascii	"%s\012\000"
  54              		.global	__aeabi_uidivmod
  55              		.align	2
  56              	.LC8:
  57 00e0 43494E44 		.ascii	"CINDX=%04lX PLEN=%04lX EPLEN=%04lX\012\000"
  57      583D2530 
  57      346C5820 
  57      504C454E 
  57      3D253034 
  58              		.align	2
  59              	.LC9:
  60 0104 44657669 		.ascii	"Device Page Wrap around\000"
  60      63652050 
  60      61676520 
  60      57726170 
  60      2061726F 
  61              		.align	2
  62              	.LC10:
  63 011c 44657669 		.ascii	"Device Write Wrap around\000"
  63      63652057 
  63      72697465 
  63      20577261 
  63      70206172 
  64 0135 000000   		.align	2
  65              	.LC11:
  66 0138 44657669 		.ascii	"Device Write Error\000"
  66      63652057 
  66      72697465 
  66      20457272 
  66      6F7200
  67 014b 00       		.align	2
  68              	.LC12:
  69 014c 44657669 		.ascii	"Device Read Wrap around\000"
  69      63652052 
  69      65616420 
  69      57726170 
  69      2061726F 
  70              		.align	2
  71              	.LC13:
  72 0164 44657669 		.ascii	"Device Read Error\000"
  72      63652052 
  72      65616420 
  72      4572726F 
ARM GAS  /tmp/ccJiIEBf.s 			page 3


  72      7200
  73 0176 0000     		.align	2
  74              	.LC14:
  75 0178 00       		.ascii	"\000"
  76              		.text
  77              		.align	2
  78              		.global	EmulateEepromFS
  79              		.hidden	EmulateEepromFS
  80              		.arch armv7-a
  81              		.arch_extension mp
  82              		.arch_extension sec
  83              		.syntax unified
  84              		.arm
  85              		.fpu vfpv3
  87              	EmulateEepromFS:
  88              	.LFB1:
  89              		.file 1 "/home/hkh/git/eapidk-code-r76-trunk/lib/linux/../EApiEmulI2C.c"
   1:/home/hkh/git/eapidk-code-r76-trunk/lib/linux/../EApiEmulI2C.c **** /*
   2:/home/hkh/git/eapidk-code-r76-trunk/lib/linux/../EApiEmulI2C.c ****  *<KHeader>
   3:/home/hkh/git/eapidk-code-r76-trunk/lib/linux/../EApiEmulI2C.c ****  *+=========================================================================
   4:/home/hkh/git/eapidk-code-r76-trunk/lib/linux/../EApiEmulI2C.c ****  *I  Project Name: EApiDK Embedded Application Development Kit
   5:/home/hkh/git/eapidk-code-r76-trunk/lib/linux/../EApiEmulI2C.c ****  *+=========================================================================
   6:/home/hkh/git/eapidk-code-r76-trunk/lib/linux/../EApiEmulI2C.c ****  *I  $HeadURL: file:///svn/p/eapidk/code/trunk/lib/EApiEmulI2C.c $
   7:/home/hkh/git/eapidk-code-r76-trunk/lib/linux/../EApiEmulI2C.c ****  *+=========================================================================
   8:/home/hkh/git/eapidk-code-r76-trunk/lib/linux/../EApiEmulI2C.c ****  *I   Copyright: Copyright (c) 2002-2009, Kontron Embedded Modules GmbH
   9:/home/hkh/git/eapidk-code-r76-trunk/lib/linux/../EApiEmulI2C.c ****  *I      Author: John Kearney,                  John.Kearney@kontron.com
  10:/home/hkh/git/eapidk-code-r76-trunk/lib/linux/../EApiEmulI2C.c ****  *I
  11:/home/hkh/git/eapidk-code-r76-trunk/lib/linux/../EApiEmulI2C.c ****  *I     License: All rights reserved. This program and the accompanying 
  12:/home/hkh/git/eapidk-code-r76-trunk/lib/linux/../EApiEmulI2C.c ****  *I              materials are licensed and made available under the 
  13:/home/hkh/git/eapidk-code-r76-trunk/lib/linux/../EApiEmulI2C.c ****  *I              terms and conditions of the BSD License which 
  14:/home/hkh/git/eapidk-code-r76-trunk/lib/linux/../EApiEmulI2C.c ****  *I              accompanies this distribution. The full text of the 
  15:/home/hkh/git/eapidk-code-r76-trunk/lib/linux/../EApiEmulI2C.c ****  *I              license may be found at 
  16:/home/hkh/git/eapidk-code-r76-trunk/lib/linux/../EApiEmulI2C.c ****  *I              http://opensource.org/licenses/bsd-license.php
  17:/home/hkh/git/eapidk-code-r76-trunk/lib/linux/../EApiEmulI2C.c ****  *I              
  18:/home/hkh/git/eapidk-code-r76-trunk/lib/linux/../EApiEmulI2C.c ****  *I              THE PROGRAM IS DISTRIBUTED UNDER THE BSD LICENSE ON AN "
  19:/home/hkh/git/eapidk-code-r76-trunk/lib/linux/../EApiEmulI2C.c ****  *I              AS IS" BASIS, WITHOUT WARRANTIES OR REPRESENTATIONS OF 
  20:/home/hkh/git/eapidk-code-r76-trunk/lib/linux/../EApiEmulI2C.c ****  *I              ANY KIND, EITHER EXPRESS OR IMPLIED.
  21:/home/hkh/git/eapidk-code-r76-trunk/lib/linux/../EApiEmulI2C.c ****  *I
  22:/home/hkh/git/eapidk-code-r76-trunk/lib/linux/../EApiEmulI2C.c ****  *I Description: Auto Created for EApiEmulI2C.c
  23:/home/hkh/git/eapidk-code-r76-trunk/lib/linux/../EApiEmulI2C.c ****  *I
  24:/home/hkh/git/eapidk-code-r76-trunk/lib/linux/../EApiEmulI2C.c ****  *+-------------------------------------------------------------------------
  25:/home/hkh/git/eapidk-code-r76-trunk/lib/linux/../EApiEmulI2C.c ****  *I
  26:/home/hkh/git/eapidk-code-r76-trunk/lib/linux/../EApiEmulI2C.c ****  *I  File Name            : EApiEmulI2C.c
  27:/home/hkh/git/eapidk-code-r76-trunk/lib/linux/../EApiEmulI2C.c ****  *I  File Location        : lib
  28:/home/hkh/git/eapidk-code-r76-trunk/lib/linux/../EApiEmulI2C.c ****  *I  Last committed       : $Revision: 74 $
  29:/home/hkh/git/eapidk-code-r76-trunk/lib/linux/../EApiEmulI2C.c ****  *I  Last changed by      : $Author: dethrophes $
  30:/home/hkh/git/eapidk-code-r76-trunk/lib/linux/../EApiEmulI2C.c ****  *I  Last changed date    : $Date: 2010-06-23 19:26:50 +0000 (Wed, 23 Jun 2010) $
  31:/home/hkh/git/eapidk-code-r76-trunk/lib/linux/../EApiEmulI2C.c ****  *I  ID                   : $Id: EApiEmulI2C.c 74 2010-06-23 19:26:50Z dethrophes $
  32:/home/hkh/git/eapidk-code-r76-trunk/lib/linux/../EApiEmulI2C.c ****  *I
  33:/home/hkh/git/eapidk-code-r76-trunk/lib/linux/../EApiEmulI2C.c ****  *+=========================================================================
  34:/home/hkh/git/eapidk-code-r76-trunk/lib/linux/../EApiEmulI2C.c ****  *</KHeader>
  35:/home/hkh/git/eapidk-code-r76-trunk/lib/linux/../EApiEmulI2C.c ****  */
  36:/home/hkh/git/eapidk-code-r76-trunk/lib/linux/../EApiEmulI2C.c **** 
  37:/home/hkh/git/eapidk-code-r76-trunk/lib/linux/../EApiEmulI2C.c **** #include <EApiLib.h>
  38:/home/hkh/git/eapidk-code-r76-trunk/lib/linux/../EApiEmulI2C.c **** #include <stdio.h>
  39:/home/hkh/git/eapidk-code-r76-trunk/lib/linux/../EApiEmulI2C.c **** 
  40:/home/hkh/git/eapidk-code-r76-trunk/lib/linux/../EApiEmulI2C.c **** #define END_OF_LIST_MARK ((uint32_t)-1)
ARM GAS  /tmp/ccJiIEBf.s 			page 4


  41:/home/hkh/git/eapidk-code-r76-trunk/lib/linux/../EApiEmulI2C.c **** 
  42:/home/hkh/git/eapidk-code-r76-trunk/lib/linux/../EApiEmulI2C.c **** 
  43:/home/hkh/git/eapidk-code-r76-trunk/lib/linux/../EApiEmulI2C.c **** /*
  44:/home/hkh/git/eapidk-code-r76-trunk/lib/linux/../EApiEmulI2C.c ****  *
  45:/home/hkh/git/eapidk-code-r76-trunk/lib/linux/../EApiEmulI2C.c ****  *  
  46:/home/hkh/git/eapidk-code-r76-trunk/lib/linux/../EApiEmulI2C.c ****  *
  47:/home/hkh/git/eapidk-code-r76-trunk/lib/linux/../EApiEmulI2C.c ****  *      I2C  Emulation
  48:/home/hkh/git/eapidk-code-r76-trunk/lib/linux/../EApiEmulI2C.c ****  *
  49:/home/hkh/git/eapidk-code-r76-trunk/lib/linux/../EApiEmulI2C.c ****  *
  50:/home/hkh/git/eapidk-code-r76-trunk/lib/linux/../EApiEmulI2C.c ****  *
  51:/home/hkh/git/eapidk-code-r76-trunk/lib/linux/../EApiEmulI2C.c ****  */
  52:/home/hkh/git/eapidk-code-r76-trunk/lib/linux/../EApiEmulI2C.c **** #define I2C_EMUL_FREQ  100000
  53:/home/hkh/git/eapidk-code-r76-trunk/lib/linux/../EApiEmulI2C.c **** #define I2C_EMUL_BYTE_DELAY_NS (1000000000/I2C_EMUL_FREQ*(8+1))
  54:/home/hkh/git/eapidk-code-r76-trunk/lib/linux/../EApiEmulI2C.c **** typedef 
  55:/home/hkh/git/eapidk-code-r76-trunk/lib/linux/../EApiEmulI2C.c **** EApiStatus_t 
  56:/home/hkh/git/eapidk-code-r76-trunk/lib/linux/../EApiEmulI2C.c **** I2CDevEmulator_t(
  57:/home/hkh/git/eapidk-code-r76-trunk/lib/linux/../EApiEmulI2C.c ****     __IN uint32_t Arg1      , 
  58:/home/hkh/git/eapidk-code-r76-trunk/lib/linux/../EApiEmulI2C.c ****     __IN void    *pWBuffer  , 
  59:/home/hkh/git/eapidk-code-r76-trunk/lib/linux/../EApiEmulI2C.c ****     __IN uint32_t WriteBCnt , 
  60:/home/hkh/git/eapidk-code-r76-trunk/lib/linux/../EApiEmulI2C.c ****     __OUT void   *pRBuffer  , 
  61:/home/hkh/git/eapidk-code-r76-trunk/lib/linux/../EApiEmulI2C.c ****     __IN uint32_t ReadBCnt
  62:/home/hkh/git/eapidk-code-r76-trunk/lib/linux/../EApiEmulI2C.c ****     );
  63:/home/hkh/git/eapidk-code-r76-trunk/lib/linux/../EApiEmulI2C.c **** 
  64:/home/hkh/git/eapidk-code-r76-trunk/lib/linux/../EApiEmulI2C.c **** I2CDevEmulator_t EmulateDIDEeprom     ;
  65:/home/hkh/git/eapidk-code-r76-trunk/lib/linux/../EApiEmulI2C.c **** I2CDevEmulator_t EmulateUDSEeprom     ;
  66:/home/hkh/git/eapidk-code-r76-trunk/lib/linux/../EApiEmulI2C.c **** I2CDevEmulator_t EmulateEPIEeprom     ;
  67:/home/hkh/git/eapidk-code-r76-trunk/lib/linux/../EApiEmulI2C.c **** I2CDevEmulator_t EmulateEeePExpEeprom ;
  68:/home/hkh/git/eapidk-code-r76-trunk/lib/linux/../EApiEmulI2C.c **** I2CDevEmulator_t EmulateCOM0MEeprom   ;
  69:/home/hkh/git/eapidk-code-r76-trunk/lib/linux/../EApiEmulI2C.c **** I2CDevEmulator_t EmulateCOM0CBEeprom  ;
  70:/home/hkh/git/eapidk-code-r76-trunk/lib/linux/../EApiEmulI2C.c **** 
  71:/home/hkh/git/eapidk-code-r76-trunk/lib/linux/../EApiEmulI2C.c **** typedef struct CmdDesc_s{
  72:/home/hkh/git/eapidk-code-r76-trunk/lib/linux/../EApiEmulI2C.c ****   const unsigned long Cmd           ; /* Cmd */
  73:/home/hkh/git/eapidk-code-r76-trunk/lib/linux/../EApiEmulI2C.c ****   const unsigned long CmdBlockLen   ; /* Cmd Buffer Length */
  74:/home/hkh/git/eapidk-code-r76-trunk/lib/linux/../EApiEmulI2C.c ****   void     *const     pBuffer       ; /* Cmd Content */ 
  75:/home/hkh/git/eapidk-code-r76-trunk/lib/linux/../EApiEmulI2C.c **** }CmdDesc_t;
  76:/home/hkh/git/eapidk-code-r76-trunk/lib/linux/../EApiEmulI2C.c **** typedef struct CmdDeviceCfgData_s{
  77:/home/hkh/git/eapidk-code-r76-trunk/lib/linux/../EApiEmulI2C.c ****   const unsigned long ExtendedCmd   ; /* Ext/Std Index */
  78:/home/hkh/git/eapidk-code-r76-trunk/lib/linux/../EApiEmulI2C.c ****   unsigned long       CurrentCmd    ; /* Ext/Std Index */
  79:/home/hkh/git/eapidk-code-r76-trunk/lib/linux/../EApiEmulI2C.c ****   unsigned long       CurrentOffset ; /* Ext/Std Index */
  80:/home/hkh/git/eapidk-code-r76-trunk/lib/linux/../EApiEmulI2C.c ****   const char *const   cszDeviceName ;
  81:/home/hkh/git/eapidk-code-r76-trunk/lib/linux/../EApiEmulI2C.c ****   CmdDesc_t *const    Cmds          ; /* Commands Buffer pointer */ 
  82:/home/hkh/git/eapidk-code-r76-trunk/lib/linux/../EApiEmulI2C.c **** }CmdDeviceCfgData_t;
  83:/home/hkh/git/eapidk-code-r76-trunk/lib/linux/../EApiEmulI2C.c **** 
  84:/home/hkh/git/eapidk-code-r76-trunk/lib/linux/../EApiEmulI2C.c **** typedef struct EepromCfgData_s{
  85:/home/hkh/git/eapidk-code-r76-trunk/lib/linux/../EApiEmulI2C.c ****   const unsigned long ByteLen       ; /* EEPROM Length */
  86:/home/hkh/git/eapidk-code-r76-trunk/lib/linux/../EApiEmulI2C.c ****   const unsigned long ExtendedCmd   ; /* Ext/Std Index */
  87:/home/hkh/git/eapidk-code-r76-trunk/lib/linux/../EApiEmulI2C.c ****   const unsigned long PageLength    ; /* Write Page Alignment size */
  88:/home/hkh/git/eapidk-code-r76-trunk/lib/linux/../EApiEmulI2C.c **** #define STD_INDEX 1                  
  89:/home/hkh/git/eapidk-code-r76-trunk/lib/linux/../EApiEmulI2C.c **** #define EXT_INDEX 2                  
  90:/home/hkh/git/eapidk-code-r76-trunk/lib/linux/../EApiEmulI2C.c ****   unsigned long       CurIndx       ; /* Current Index Value */
  91:/home/hkh/git/eapidk-code-r76-trunk/lib/linux/../EApiEmulI2C.c ****   uint8_t  *const     pu8DBuffer    ; /* Eeprom pBuffer Pointer */ 
  92:/home/hkh/git/eapidk-code-r76-trunk/lib/linux/../EApiEmulI2C.c ****   const char *const   cszFilename   ;
  93:/home/hkh/git/eapidk-code-r76-trunk/lib/linux/../EApiEmulI2C.c ****   FILE     *FStream;
  94:/home/hkh/git/eapidk-code-r76-trunk/lib/linux/../EApiEmulI2C.c **** }EepromCfgData_t;
  95:/home/hkh/git/eapidk-code-r76-trunk/lib/linux/../EApiEmulI2C.c **** 
  96:/home/hkh/git/eapidk-code-r76-trunk/lib/linux/../EApiEmulI2C.c **** typedef struct BusDevicesTbl_s{
  97:/home/hkh/git/eapidk-code-r76-trunk/lib/linux/../EApiEmulI2C.c ****   const unsigned long     EncAddr   ; /* Device Address */
ARM GAS  /tmp/ccJiIEBf.s 			page 5


  98:/home/hkh/git/eapidk-code-r76-trunk/lib/linux/../EApiEmulI2C.c ****   I2CDevEmulator_t *const Emulator  ; /* Emulator */
  99:/home/hkh/git/eapidk-code-r76-trunk/lib/linux/../EApiEmulI2C.c ****   const unsigned long     Arg1      ; /* Argument to pass to Emulator */
 100:/home/hkh/git/eapidk-code-r76-trunk/lib/linux/../EApiEmulI2C.c **** }BusDevicesTbl_t;
 101:/home/hkh/git/eapidk-code-r76-trunk/lib/linux/../EApiEmulI2C.c **** #if (STRICT_VALIDATION>1)
 102:/home/hkh/git/eapidk-code-r76-trunk/lib/linux/../EApiEmulI2C.c **** char * StdExt[]={
 103:/home/hkh/git/eapidk-code-r76-trunk/lib/linux/../EApiEmulI2C.c ****   "   ",
 104:/home/hkh/git/eapidk-code-r76-trunk/lib/linux/../EApiEmulI2C.c ****   "Std",
 105:/home/hkh/git/eapidk-code-r76-trunk/lib/linux/../EApiEmulI2C.c ****   "Ext"
 106:/home/hkh/git/eapidk-code-r76-trunk/lib/linux/../EApiEmulI2C.c **** };
 107:/home/hkh/git/eapidk-code-r76-trunk/lib/linux/../EApiEmulI2C.c **** #endif
 108:/home/hkh/git/eapidk-code-r76-trunk/lib/linux/../EApiEmulI2C.c **** 
 109:/home/hkh/git/eapidk-code-r76-trunk/lib/linux/../EApiEmulI2C.c **** EApiStatus_t 
 110:/home/hkh/git/eapidk-code-r76-trunk/lib/linux/../EApiEmulI2C.c **** EmulateEepromFS(
 111:/home/hkh/git/eapidk-code-r76-trunk/lib/linux/../EApiEmulI2C.c ****     __IN unsigned long    Arg1      , 
 112:/home/hkh/git/eapidk-code-r76-trunk/lib/linux/../EApiEmulI2C.c ****     __IN EepromCfgData_t *CfgData   , 
 113:/home/hkh/git/eapidk-code-r76-trunk/lib/linux/../EApiEmulI2C.c ****     __IN uint8_t         *pWBuffer  , 
 114:/home/hkh/git/eapidk-code-r76-trunk/lib/linux/../EApiEmulI2C.c ****     __IN unsigned long    WriteBCnt , 
 115:/home/hkh/git/eapidk-code-r76-trunk/lib/linux/../EApiEmulI2C.c ****     __OUT uint8_t        *pRBuffer  , 
 116:/home/hkh/git/eapidk-code-r76-trunk/lib/linux/../EApiEmulI2C.c ****     __IN unsigned long    ReadBCnt
 117:/home/hkh/git/eapidk-code-r76-trunk/lib/linux/../EApiEmulI2C.c ****     )
 118:/home/hkh/git/eapidk-code-r76-trunk/lib/linux/../EApiEmulI2C.c **** {
  90              		.loc 1 118 1
  91              		.cfi_startproc
  92              		@ args = 8, pretend = 0, frame = 24
  93              		@ frame_needed = 1, uses_anonymous_args = 0
  94 0000 70482DE9 		push	{r4, r5, r6, fp, lr}
  95              		.cfi_def_cfa_offset 20
  96              		.cfi_offset 4, -20
  97              		.cfi_offset 5, -16
  98              		.cfi_offset 6, -12
  99              		.cfi_offset 11, -8
 100              		.cfi_offset 14, -4
 101 0004 10B08DE2 		add	fp, sp, #16
 102              		.cfi_def_cfa 11, 4
 103 0008 54D04DE2 		sub	sp, sp, #84
 104 000c 20000BE5 		str	r0, [fp, #-32]
 105 0010 24100BE5 		str	r1, [fp, #-36]
 106 0014 28200BE5 		str	r2, [fp, #-40]
 107 0018 2C300BE5 		str	r3, [fp, #-44]
 119:/home/hkh/git/eapidk-code-r76-trunk/lib/linux/../EApiEmulI2C.c ****   EApiStatus_t StatusCode=EAPI_STATUS_SUCCESS;
 108              		.loc 1 119 16
 109 001c 0030A0E3 		mov	r3, #0
 110 0020 18300BE5 		str	r3, [fp, #-24]
 120:/home/hkh/git/eapidk-code-r76-trunk/lib/linux/../EApiEmulI2C.c ****   
 121:/home/hkh/git/eapidk-code-r76-trunk/lib/linux/../EApiEmulI2C.c **** #if (STRICT_VALIDATION>1)
 122:/home/hkh/git/eapidk-code-r76-trunk/lib/linux/../EApiEmulI2C.c ****         siFormattedMessage_M2(
 123:/home/hkh/git/eapidk-code-r76-trunk/lib/linux/../EApiEmulI2C.c ****               'L'                   ,
 124:/home/hkh/git/eapidk-code-r76-trunk/lib/linux/../EApiEmulI2C.c ****               __FILE__              ,
 125:/home/hkh/git/eapidk-code-r76-trunk/lib/linux/../EApiEmulI2C.c ****               "EmulateEepromFS"     ,
 126:/home/hkh/git/eapidk-code-r76-trunk/lib/linux/../EApiEmulI2C.c ****               __LINE__              ,
 127:/home/hkh/git/eapidk-code-r76-trunk/lib/linux/../EApiEmulI2C.c ****               CfgData->cszFilename,
 111              		.loc 1 127 22
 112 0024 24301BE5 		ldr	r3, [fp, #-36]
 113 0028 143093E5 		ldr	r3, [r3, #20]
 128:/home/hkh/git/eapidk-code-r76-trunk/lib/linux/../EApiEmulI2C.c ****               "%3s CIDX=%04lX Arg1=%1lX DLEN=%04lX PLEN=%04lX"
 129:/home/hkh/git/eapidk-code-r76-trunk/lib/linux/../EApiEmulI2C.c ****               " WLEN=%04lX RLEN=%04lX %02"PRIX8",%02"PRIX8",%02"PRIX8",%02"PRIX8"\n", 
 130:/home/hkh/git/eapidk-code-r76-trunk/lib/linux/../EApiEmulI2C.c ****               StdExt[CfgData->ExtendedCmd], 
ARM GAS  /tmp/ccJiIEBf.s 			page 6


 114              		.loc 1 130 29
 115 002c 24201BE5 		ldr	r2, [fp, #-36]
 116 0030 041092E5 		ldr	r1, [r2, #4]
 122:/home/hkh/git/eapidk-code-r76-trunk/lib/linux/../EApiEmulI2C.c ****               'L'                   ,
 117              		.loc 1 122 9
 118 0034 F0259FE5 		ldr	r2, .L16
 119              	.LPIC0:
 120 0038 02208FE0 		add	r2, pc, r2
 121 003c 012192E7 		ldr	r2, [r2, r1, lsl #2]
 122 0040 24101BE5 		ldr	r1, [fp, #-36]
 123 0044 0C1091E5 		ldr	r1, [r1, #12]
 131:/home/hkh/git/eapidk-code-r76-trunk/lib/linux/../EApiEmulI2C.c ****               CfgData->CurIndx, 
 132:/home/hkh/git/eapidk-code-r76-trunk/lib/linux/../EApiEmulI2C.c ****               Arg1, 
 133:/home/hkh/git/eapidk-code-r76-trunk/lib/linux/../EApiEmulI2C.c ****               CfgData->ByteLen, 
 124              		.loc 1 133 22
 125 0048 24001BE5 		ldr	r0, [fp, #-36]
 126 004c 000090E5 		ldr	r0, [r0]
 134:/home/hkh/git/eapidk-code-r76-trunk/lib/linux/../EApiEmulI2C.c ****               CfgData->PageLength, 
 127              		.loc 1 134 22
 128 0050 24C01BE5 		ldr	ip, [fp, #-36]
 129 0054 08C09CE5 		ldr	ip, [ip, #8]
 135:/home/hkh/git/eapidk-code-r76-trunk/lib/linux/../EApiEmulI2C.c ****               WriteBCnt, 
 136:/home/hkh/git/eapidk-code-r76-trunk/lib/linux/../EApiEmulI2C.c ****               ReadBCnt, 
 137:/home/hkh/git/eapidk-code-r76-trunk/lib/linux/../EApiEmulI2C.c ****               pWBuffer[0],
 130              		.loc 1 137 23
 131 0058 28E01BE5 		ldr	lr, [fp, #-40]
 132 005c 00E0DEE5 		ldrb	lr, [lr]	@ zero_extendqisi2
 122:/home/hkh/git/eapidk-code-r76-trunk/lib/linux/../EApiEmulI2C.c ****               'L'                   ,
 133              		.loc 1 122 9
 134 0060 0E40A0E1 		mov	r4, lr
 138:/home/hkh/git/eapidk-code-r76-trunk/lib/linux/../EApiEmulI2C.c ****               pWBuffer[1],
 135              		.loc 1 138 23
 136 0064 28E01BE5 		ldr	lr, [fp, #-40]
 137 0068 01E08EE2 		add	lr, lr, #1
 138 006c 00E0DEE5 		ldrb	lr, [lr]	@ zero_extendqisi2
 122:/home/hkh/git/eapidk-code-r76-trunk/lib/linux/../EApiEmulI2C.c ****               'L'                   ,
 139              		.loc 1 122 9
 140 0070 0E50A0E1 		mov	r5, lr
 139:/home/hkh/git/eapidk-code-r76-trunk/lib/linux/../EApiEmulI2C.c ****               pWBuffer[2],
 141              		.loc 1 139 23
 142 0074 28E01BE5 		ldr	lr, [fp, #-40]
 143 0078 02E08EE2 		add	lr, lr, #2
 144 007c 00E0DEE5 		ldrb	lr, [lr]	@ zero_extendqisi2
 122:/home/hkh/git/eapidk-code-r76-trunk/lib/linux/../EApiEmulI2C.c ****               'L'                   ,
 145              		.loc 1 122 9
 146 0080 0E60A0E1 		mov	r6, lr
 140:/home/hkh/git/eapidk-code-r76-trunk/lib/linux/../EApiEmulI2C.c ****               pWBuffer[3]
 147              		.loc 1 140 23
 148 0084 28E01BE5 		ldr	lr, [fp, #-40]
 149 0088 03E08EE2 		add	lr, lr, #3
 150 008c 00E0DEE5 		ldrb	lr, [lr]	@ zero_extendqisi2
 122:/home/hkh/git/eapidk-code-r76-trunk/lib/linux/../EApiEmulI2C.c ****               'L'                   ,
 151              		.loc 1 122 9
 152 0090 30E08DE5 		str	lr, [sp, #48]
 153 0094 2C608DE5 		str	r6, [sp, #44]
 154 0098 28508DE5 		str	r5, [sp, #40]
 155 009c 24408DE5 		str	r4, [sp, #36]
ARM GAS  /tmp/ccJiIEBf.s 			page 7


 156 00a0 08E09BE5 		ldr	lr, [fp, #8]
 157 00a4 20E08DE5 		str	lr, [sp, #32]
 158 00a8 2CE01BE5 		ldr	lr, [fp, #-44]
 159 00ac 1CE08DE5 		str	lr, [sp, #28]
 160 00b0 18C08DE5 		str	ip, [sp, #24]
 161 00b4 14008DE5 		str	r0, [sp, #20]
 162 00b8 20001BE5 		ldr	r0, [fp, #-32]
 163 00bc 10008DE5 		str	r0, [sp, #16]
 164 00c0 0C108DE5 		str	r1, [sp, #12]
 165 00c4 08208DE5 		str	r2, [sp, #8]
 166 00c8 60259FE5 		ldr	r2, .L16+4
 167              	.LPIC1:
 168 00cc 02208FE0 		add	r2, pc, r2
 169 00d0 04208DE5 		str	r2, [sp, #4]
 170 00d4 00308DE5 		str	r3, [sp]
 171 00d8 7E30A0E3 		mov	r3, #126
 172 00dc 50259FE5 		ldr	r2, .L16+8
 173              	.LPIC2:
 174 00e0 02208FE0 		add	r2, pc, r2
 175 00e4 4C159FE5 		ldr	r1, .L16+12
 176              	.LPIC3:
 177 00e8 01108FE0 		add	r1, pc, r1
 178 00ec 4C00A0E3 		mov	r0, #76
 179 00f0 FEFFFFEB 		bl	siFormattedMessage_M2(PLT)
 141:/home/hkh/git/eapidk-code-r76-trunk/lib/linux/../EApiEmulI2C.c ****             );
 142:/home/hkh/git/eapidk-code-r76-trunk/lib/linux/../EApiEmulI2C.c **** #endif
 143:/home/hkh/git/eapidk-code-r76-trunk/lib/linux/../EApiEmulI2C.c ****   if(WriteBCnt)
 180              		.loc 1 143 5
 181 00f4 2C301BE5 		ldr	r3, [fp, #-44]
 182 00f8 000053E3 		cmp	r3, #0
 183 00fc E800000A 		beq	.L2
 144:/home/hkh/git/eapidk-code-r76-trunk/lib/linux/../EApiEmulI2C.c ****   {
 145:/home/hkh/git/eapidk-code-r76-trunk/lib/linux/../EApiEmulI2C.c ****     switch((CfgData->ExtendedCmd))  {      /* Emulate Standard IDX/CMD 
 184              		.loc 1 145 20
 185 0100 24301BE5 		ldr	r3, [fp, #-36]
 186 0104 043093E5 		ldr	r3, [r3, #4]
 187              		.loc 1 145 5
 188 0108 010053E3 		cmp	r3, #1
 189 010c 0200000A 		beq	.L3
 190 0110 020053E3 		cmp	r3, #2
 191 0114 1500000A 		beq	.L4
 146:/home/hkh/git/eapidk-code-r76-trunk/lib/linux/../EApiEmulI2C.c ****                                                     Device */
 147:/home/hkh/git/eapidk-code-r76-trunk/lib/linux/../EApiEmulI2C.c ****       case STD_INDEX:
 148:/home/hkh/git/eapidk-code-r76-trunk/lib/linux/../EApiEmulI2C.c ****         CfgData->CurIndx=*pWBuffer++;
 149:/home/hkh/git/eapidk-code-r76-trunk/lib/linux/../EApiEmulI2C.c ****         WriteBCnt--;
 150:/home/hkh/git/eapidk-code-r76-trunk/lib/linux/../EApiEmulI2C.c ****         CfgData->CurIndx|=Arg1<<8;                 /* Add the Device Address 
 151:/home/hkh/git/eapidk-code-r76-trunk/lib/linux/../EApiEmulI2C.c ****                                                       Index */
 152:/home/hkh/git/eapidk-code-r76-trunk/lib/linux/../EApiEmulI2C.c ****         EAPI_EMUL_DELAY_NS(I2C_EMUL_BYTE_DELAY_NS);
 153:/home/hkh/git/eapidk-code-r76-trunk/lib/linux/../EApiEmulI2C.c ****         break;
 154:/home/hkh/git/eapidk-code-r76-trunk/lib/linux/../EApiEmulI2C.c ****       case EXT_INDEX:                             /* Emulate Extended IDX/CMD
 155:/home/hkh/git/eapidk-code-r76-trunk/lib/linux/../EApiEmulI2C.c ****                                                     Device */
 156:/home/hkh/git/eapidk-code-r76-trunk/lib/linux/../EApiEmulI2C.c ****         EAPI_LIB_RETURN_ERROR_IF(
 157:/home/hkh/git/eapidk-code-r76-trunk/lib/linux/../EApiEmulI2C.c ****             EmulateEepromFS, 
 158:/home/hkh/git/eapidk-code-r76-trunk/lib/linux/../EApiEmulI2C.c ****             WriteBCnt<2, 
 159:/home/hkh/git/eapidk-code-r76-trunk/lib/linux/../EApiEmulI2C.c ****             EAPI_STATUS_READ_ERROR, 
 160:/home/hkh/git/eapidk-code-r76-trunk/lib/linux/../EApiEmulI2C.c ****             "STD INDEX Sent to EXT INDEX EEPROM"
 161:/home/hkh/git/eapidk-code-r76-trunk/lib/linux/../EApiEmulI2C.c ****             );
ARM GAS  /tmp/ccJiIEBf.s 			page 8


 162:/home/hkh/git/eapidk-code-r76-trunk/lib/linux/../EApiEmulI2C.c **** 
 163:/home/hkh/git/eapidk-code-r76-trunk/lib/linux/../EApiEmulI2C.c ****         CfgData->CurIndx =pWBuffer[0]<<8;
 164:/home/hkh/git/eapidk-code-r76-trunk/lib/linux/../EApiEmulI2C.c ****         CfgData->CurIndx|=pWBuffer[1];
 165:/home/hkh/git/eapidk-code-r76-trunk/lib/linux/../EApiEmulI2C.c ****         pWBuffer+=2;
 166:/home/hkh/git/eapidk-code-r76-trunk/lib/linux/../EApiEmulI2C.c ****         WriteBCnt-=2;
 167:/home/hkh/git/eapidk-code-r76-trunk/lib/linux/../EApiEmulI2C.c ****         CfgData->CurIndx|=Arg1<<16;                /* Add the Device Address Index */
 168:/home/hkh/git/eapidk-code-r76-trunk/lib/linux/../EApiEmulI2C.c ****         EAPI_EMUL_DELAY_NS(I2C_EMUL_BYTE_DELAY_NS*2);
 169:/home/hkh/git/eapidk-code-r76-trunk/lib/linux/../EApiEmulI2C.c ****         break;
 170:/home/hkh/git/eapidk-code-r76-trunk/lib/linux/../EApiEmulI2C.c ****       default:
 171:/home/hkh/git/eapidk-code-r76-trunk/lib/linux/../EApiEmulI2C.c ****         break;
 192              		.loc 1 171 9
 193 0118 480000EA 		b	.L6
 194              	.L3:
 148:/home/hkh/git/eapidk-code-r76-trunk/lib/linux/../EApiEmulI2C.c ****         WriteBCnt--;
 195              		.loc 1 148 35
 196 011c 28301BE5 		ldr	r3, [fp, #-40]
 197 0120 012083E2 		add	r2, r3, #1
 198 0124 28200BE5 		str	r2, [fp, #-40]
 148:/home/hkh/git/eapidk-code-r76-trunk/lib/linux/../EApiEmulI2C.c ****         WriteBCnt--;
 199              		.loc 1 148 26
 200 0128 0030D3E5 		ldrb	r3, [r3]	@ zero_extendqisi2
 201 012c 0320A0E1 		mov	r2, r3
 148:/home/hkh/git/eapidk-code-r76-trunk/lib/linux/../EApiEmulI2C.c ****         WriteBCnt--;
 202              		.loc 1 148 25
 203 0130 24301BE5 		ldr	r3, [fp, #-36]
 204 0134 0C2083E5 		str	r2, [r3, #12]
 149:/home/hkh/git/eapidk-code-r76-trunk/lib/linux/../EApiEmulI2C.c ****         CfgData->CurIndx|=Arg1<<8;                 /* Add the Device Address 
 205              		.loc 1 149 18
 206 0138 2C301BE5 		ldr	r3, [fp, #-44]
 207 013c 013043E2 		sub	r3, r3, #1
 208 0140 2C300BE5 		str	r3, [fp, #-44]
 150:/home/hkh/git/eapidk-code-r76-trunk/lib/linux/../EApiEmulI2C.c ****                                                       Index */
 209              		.loc 1 150 25
 210 0144 24301BE5 		ldr	r3, [fp, #-36]
 211 0148 0C2093E5 		ldr	r2, [r3, #12]
 150:/home/hkh/git/eapidk-code-r76-trunk/lib/linux/../EApiEmulI2C.c ****                                                       Index */
 212              		.loc 1 150 31
 213 014c 20301BE5 		ldr	r3, [fp, #-32]
 214 0150 0334A0E1 		lsl	r3, r3, #8
 150:/home/hkh/git/eapidk-code-r76-trunk/lib/linux/../EApiEmulI2C.c ****                                                       Index */
 215              		.loc 1 150 25
 216 0154 032082E1 		orr	r2, r2, r3
 217 0158 24301BE5 		ldr	r3, [fp, #-36]
 218 015c 0C2083E5 		str	r2, [r3, #12]
 152:/home/hkh/git/eapidk-code-r76-trunk/lib/linux/../EApiEmulI2C.c ****         break;
 219              		.loc 1 152 9
 220 0160 900F05E3 		movw	r0, #24464
 221 0164 010040E3 		movt	r0, 1
 222 0168 FEFFFFEB 		bl	EApiSleepns(PLT)
 153:/home/hkh/git/eapidk-code-r76-trunk/lib/linux/../EApiEmulI2C.c ****       case EXT_INDEX:                             /* Emulate Extended IDX/CMD
 223              		.loc 1 153 9
 224 016c 330000EA 		b	.L6
 225              	.L4:
 156:/home/hkh/git/eapidk-code-r76-trunk/lib/linux/../EApiEmulI2C.c ****             EmulateEepromFS, 
 226              		.loc 1 156 9
 227 0170 2C301BE5 		ldr	r3, [fp, #-44]
 228 0174 010053E3 		cmp	r3, #1
ARM GAS  /tmp/ccJiIEBf.s 			page 9


 229 0178 1100008A 		bhi	.L7
 156:/home/hkh/git/eapidk-code-r76-trunk/lib/linux/../EApiEmulI2C.c ****             EmulateEepromFS, 
 230              		.loc 1 156 9 is_stmt 0 discriminator 1
 231 017c B8349FE5 		ldr	r3, .L16+16
 232              	.LPIC4:
 233 0180 03308FE0 		add	r3, pc, r3
 234 0184 08308DE5 		str	r3, [sp, #8]
 235 0188 B0349FE5 		ldr	r3, .L16+20
 236              	.LPIC5:
 237 018c 03308FE0 		add	r3, pc, r3
 238 0190 04308DE5 		str	r3, [sp, #4]
 239 0194 053CE0E3 		mvn	r3, #1280
 240 0198 00308DE5 		str	r3, [sp]
 241 019c 9C30A0E3 		mov	r3, #156
 242 01a0 9C249FE5 		ldr	r2, .L16+24
 243              	.LPIC6:
 244 01a4 02208FE0 		add	r2, pc, r2
 245 01a8 98149FE5 		ldr	r1, .L16+28
 246              	.LPIC7:
 247 01ac 01108FE0 		add	r1, pc, r1
 248 01b0 4500A0E3 		mov	r0, #69
 249 01b4 FEFFFFEB 		bl	siFormattedMessage_SC(PLT)
 250 01b8 053CE0E3 		mvn	r3, #1280
 251 01bc 18300BE5 		str	r3, [fp, #-24]
 252 01c0 150100EA 		b	.L8
 253              	.L7:
 163:/home/hkh/git/eapidk-code-r76-trunk/lib/linux/../EApiEmulI2C.c ****         CfgData->CurIndx|=pWBuffer[1];
 254              		.loc 1 163 35 is_stmt 1
 255 01c4 28301BE5 		ldr	r3, [fp, #-40]
 256 01c8 0030D3E5 		ldrb	r3, [r3]	@ zero_extendqisi2
 163:/home/hkh/git/eapidk-code-r76-trunk/lib/linux/../EApiEmulI2C.c ****         CfgData->CurIndx|=pWBuffer[1];
 257              		.loc 1 163 38
 258 01cc 0334A0E1 		lsl	r3, r3, #8
 259 01d0 0320A0E1 		mov	r2, r3
 163:/home/hkh/git/eapidk-code-r76-trunk/lib/linux/../EApiEmulI2C.c ****         CfgData->CurIndx|=pWBuffer[1];
 260              		.loc 1 163 26
 261 01d4 24301BE5 		ldr	r3, [fp, #-36]
 262 01d8 0C2083E5 		str	r2, [r3, #12]
 164:/home/hkh/git/eapidk-code-r76-trunk/lib/linux/../EApiEmulI2C.c ****         pWBuffer+=2;
 263              		.loc 1 164 25
 264 01dc 24301BE5 		ldr	r3, [fp, #-36]
 265 01e0 0C3093E5 		ldr	r3, [r3, #12]
 164:/home/hkh/git/eapidk-code-r76-trunk/lib/linux/../EApiEmulI2C.c ****         pWBuffer+=2;
 266              		.loc 1 164 35
 267 01e4 28201BE5 		ldr	r2, [fp, #-40]
 268 01e8 012082E2 		add	r2, r2, #1
 269 01ec 0020D2E5 		ldrb	r2, [r2]	@ zero_extendqisi2
 164:/home/hkh/git/eapidk-code-r76-trunk/lib/linux/../EApiEmulI2C.c ****         pWBuffer+=2;
 270              		.loc 1 164 25
 271 01f0 022083E1 		orr	r2, r3, r2
 272 01f4 24301BE5 		ldr	r3, [fp, #-36]
 273 01f8 0C2083E5 		str	r2, [r3, #12]
 165:/home/hkh/git/eapidk-code-r76-trunk/lib/linux/../EApiEmulI2C.c ****         WriteBCnt-=2;
 274              		.loc 1 165 17
 275 01fc 28301BE5 		ldr	r3, [fp, #-40]
 276 0200 023083E2 		add	r3, r3, #2
 277 0204 28300BE5 		str	r3, [fp, #-40]
ARM GAS  /tmp/ccJiIEBf.s 			page 10


 166:/home/hkh/git/eapidk-code-r76-trunk/lib/linux/../EApiEmulI2C.c ****         CfgData->CurIndx|=Arg1<<16;                /* Add the Device Address Index */
 278              		.loc 1 166 18
 279 0208 2C301BE5 		ldr	r3, [fp, #-44]
 280 020c 023043E2 		sub	r3, r3, #2
 281 0210 2C300BE5 		str	r3, [fp, #-44]
 167:/home/hkh/git/eapidk-code-r76-trunk/lib/linux/../EApiEmulI2C.c ****         EAPI_EMUL_DELAY_NS(I2C_EMUL_BYTE_DELAY_NS*2);
 282              		.loc 1 167 25
 283 0214 24301BE5 		ldr	r3, [fp, #-36]
 284 0218 0C2093E5 		ldr	r2, [r3, #12]
 167:/home/hkh/git/eapidk-code-r76-trunk/lib/linux/../EApiEmulI2C.c ****         EAPI_EMUL_DELAY_NS(I2C_EMUL_BYTE_DELAY_NS*2);
 285              		.loc 1 167 31
 286 021c 20301BE5 		ldr	r3, [fp, #-32]
 287 0220 0338A0E1 		lsl	r3, r3, #16
 167:/home/hkh/git/eapidk-code-r76-trunk/lib/linux/../EApiEmulI2C.c ****         EAPI_EMUL_DELAY_NS(I2C_EMUL_BYTE_DELAY_NS*2);
 288              		.loc 1 167 25
 289 0224 032082E1 		orr	r2, r2, r3
 290 0228 24301BE5 		ldr	r3, [fp, #-36]
 291 022c 0C2083E5 		str	r2, [r3, #12]
 168:/home/hkh/git/eapidk-code-r76-trunk/lib/linux/../EApiEmulI2C.c ****         break;
 292              		.loc 1 168 9
 293 0230 200F0BE3 		movw	r0, #48928
 294 0234 020040E3 		movt	r0, 2
 295 0238 FEFFFFEB 		bl	EApiSleepns(PLT)
 169:/home/hkh/git/eapidk-code-r76-trunk/lib/linux/../EApiEmulI2C.c ****       default:
 296              		.loc 1 169 9
 297 023c 00F020E3 		nop
 298              	.L6:
 172:/home/hkh/git/eapidk-code-r76-trunk/lib/linux/../EApiEmulI2C.c ****     }
 173:/home/hkh/git/eapidk-code-r76-trunk/lib/linux/../EApiEmulI2C.c **** #if (STRICT_VALIDATION>1)
 174:/home/hkh/git/eapidk-code-r76-trunk/lib/linux/../EApiEmulI2C.c ****         siFormattedMessage_M2(
 175:/home/hkh/git/eapidk-code-r76-trunk/lib/linux/../EApiEmulI2C.c ****               'L'                   ,
 176:/home/hkh/git/eapidk-code-r76-trunk/lib/linux/../EApiEmulI2C.c ****               __FILE__                              ,
 177:/home/hkh/git/eapidk-code-r76-trunk/lib/linux/../EApiEmulI2C.c ****               "EmulateEepromFS"                     ,
 178:/home/hkh/git/eapidk-code-r76-trunk/lib/linux/../EApiEmulI2C.c ****               __LINE__                              ,
 179:/home/hkh/git/eapidk-code-r76-trunk/lib/linux/../EApiEmulI2C.c ****               CfgData->cszFilename                  ,
 299              		.loc 1 179 22
 300 0240 24301BE5 		ldr	r3, [fp, #-36]
 301 0244 144093E5 		ldr	r4, [r3, #20]
 174:/home/hkh/git/eapidk-code-r76-trunk/lib/linux/../EApiEmulI2C.c ****               'L'                   ,
 302              		.loc 1 174 9
 303 0248 24301BE5 		ldr	r3, [fp, #-36]
 304 024c 0C5093E5 		ldr	r5, [r3, #12]
 180:/home/hkh/git/eapidk-code-r76-trunk/lib/linux/../EApiEmulI2C.c ****               "CINDX=%04lX PLEN=%04lX EPLEN=%04lX\n",
 181:/home/hkh/git/eapidk-code-r76-trunk/lib/linux/../EApiEmulI2C.c ****               CfgData->CurIndx                      , 
 182:/home/hkh/git/eapidk-code-r76-trunk/lib/linux/../EApiEmulI2C.c ****               CfgData->CurIndx%CfgData->PageLength  ,
 305              		.loc 1 182 22
 306 0250 24301BE5 		ldr	r3, [fp, #-36]
 307 0254 0C2093E5 		ldr	r2, [r3, #12]
 308              		.loc 1 182 39
 309 0258 24301BE5 		ldr	r3, [fp, #-36]
 310 025c 083093E5 		ldr	r3, [r3, #8]
 174:/home/hkh/git/eapidk-code-r76-trunk/lib/linux/../EApiEmulI2C.c ****               'L'                   ,
 311              		.loc 1 174 9
 312 0260 0310A0E1 		mov	r1, r3
 313 0264 0200A0E1 		mov	r0, r2
 314 0268 FEFFFFEB 		bl	__aeabi_uidivmod(PLT)
 315 026c 0130A0E1 		mov	r3, r1
ARM GAS  /tmp/ccJiIEBf.s 			page 11


 316 0270 0360A0E1 		mov	r6, r3
 183:/home/hkh/git/eapidk-code-r76-trunk/lib/linux/../EApiEmulI2C.c ****               (CfgData->CurIndx%CfgData->PageLength)+WriteBCnt
 317              		.loc 1 183 23
 318 0274 24301BE5 		ldr	r3, [fp, #-36]
 319 0278 0C2093E5 		ldr	r2, [r3, #12]
 320              		.loc 1 183 40
 321 027c 24301BE5 		ldr	r3, [fp, #-36]
 322 0280 083093E5 		ldr	r3, [r3, #8]
 323              		.loc 1 183 32
 324 0284 0310A0E1 		mov	r1, r3
 325 0288 0200A0E1 		mov	r0, r2
 326 028c FEFFFFEB 		bl	__aeabi_uidivmod(PLT)
 327 0290 0130A0E1 		mov	r3, r1
 328 0294 0320A0E1 		mov	r2, r3
 174:/home/hkh/git/eapidk-code-r76-trunk/lib/linux/../EApiEmulI2C.c ****               'L'                   ,
 329              		.loc 1 174 9
 330 0298 2C301BE5 		ldr	r3, [fp, #-44]
 331 029c 033082E0 		add	r3, r2, r3
 332 02a0 10308DE5 		str	r3, [sp, #16]
 333 02a4 0C608DE5 		str	r6, [sp, #12]
 334 02a8 08508DE5 		str	r5, [sp, #8]
 335 02ac 98339FE5 		ldr	r3, .L16+32
 336              	.LPIC8:
 337 02b0 03308FE0 		add	r3, pc, r3
 338 02b4 04308DE5 		str	r3, [sp, #4]
 339 02b8 00408DE5 		str	r4, [sp]
 340 02bc B230A0E3 		mov	r3, #178
 341 02c0 88239FE5 		ldr	r2, .L16+36
 342              	.LPIC9:
 343 02c4 02208FE0 		add	r2, pc, r2
 344 02c8 84139FE5 		ldr	r1, .L16+40
 345              	.LPIC10:
 346 02cc 01108FE0 		add	r1, pc, r1
 347 02d0 4C00A0E3 		mov	r0, #76
 348 02d4 FEFFFFEB 		bl	siFormattedMessage_M2(PLT)
 184:/home/hkh/git/eapidk-code-r76-trunk/lib/linux/../EApiEmulI2C.c ****             );
 185:/home/hkh/git/eapidk-code-r76-trunk/lib/linux/../EApiEmulI2C.c **** #endif
 186:/home/hkh/git/eapidk-code-r76-trunk/lib/linux/../EApiEmulI2C.c ****     if(WriteBCnt)
 349              		.loc 1 186 7
 350 02d8 2C301BE5 		ldr	r3, [fp, #-44]
 351 02dc 000053E3 		cmp	r3, #0
 352 02e0 6F00000A 		beq	.L2
 187:/home/hkh/git/eapidk-code-r76-trunk/lib/linux/../EApiEmulI2C.c ****     {
 188:/home/hkh/git/eapidk-code-r76-trunk/lib/linux/../EApiEmulI2C.c ****       EAPI_LIB_RETURN_ERROR_IF(
 353              		.loc 1 188 7
 354 02e4 24301BE5 		ldr	r3, [fp, #-36]
 355 02e8 0C2093E5 		ldr	r2, [r3, #12]
 356 02ec 24301BE5 		ldr	r3, [fp, #-36]
 357 02f0 083093E5 		ldr	r3, [r3, #8]
 358 02f4 0310A0E1 		mov	r1, r3
 359 02f8 0200A0E1 		mov	r0, r2
 360 02fc FEFFFFEB 		bl	__aeabi_uidivmod(PLT)
 361 0300 0130A0E1 		mov	r3, r1
 362 0304 0320A0E1 		mov	r2, r3
 363 0308 2C301BE5 		ldr	r3, [fp, #-44]
 364 030c 032082E0 		add	r2, r2, r3
 365 0310 24301BE5 		ldr	r3, [fp, #-36]
ARM GAS  /tmp/ccJiIEBf.s 			page 12


 366 0314 083093E5 		ldr	r3, [r3, #8]
 367 0318 030052E1 		cmp	r2, r3
 368 031c 1300009A 		bls	.L9
 369              		.loc 1 188 7 is_stmt 0 discriminator 1
 370 0320 30339FE5 		ldr	r3, .L16+44
 371              	.LPIC11:
 372 0324 03308FE0 		add	r3, pc, r3
 373 0328 08308DE5 		str	r3, [sp, #8]
 374 032c 28339FE5 		ldr	r3, .L16+48
 375              	.LPIC12:
 376 0330 03308FE0 		add	r3, pc, r3
 377 0334 04308DE5 		str	r3, [sp, #4]
 378 0338 FE3A0FE3 		movw	r3, #64254
 379 033c FF3F4FE3 		movt	r3, 65535
 380 0340 00308DE5 		str	r3, [sp]
 381 0344 BC30A0E3 		mov	r3, #188
 382 0348 10239FE5 		ldr	r2, .L16+52
 383              	.LPIC13:
 384 034c 02208FE0 		add	r2, pc, r2
 385 0350 0C139FE5 		ldr	r1, .L16+56
 386              	.LPIC14:
 387 0354 01108FE0 		add	r1, pc, r1
 388 0358 4500A0E3 		mov	r0, #69
 389 035c FEFFFFEB 		bl	siFormattedMessage_SC(PLT)
 390 0360 FE3A0FE3 		movw	r3, #64254
 391 0364 FF3F4FE3 		movt	r3, 65535
 392 0368 18300BE5 		str	r3, [fp, #-24]
 393 036c AA0000EA 		b	.L8
 394              	.L9:
 189:/home/hkh/git/eapidk-code-r76-trunk/lib/linux/../EApiEmulI2C.c ****           EmulateEepromFS,
 190:/home/hkh/git/eapidk-code-r76-trunk/lib/linux/../EApiEmulI2C.c ****           ((CfgData->CurIndx%CfgData->PageLength)+WriteBCnt)>CfgData->PageLength,
 191:/home/hkh/git/eapidk-code-r76-trunk/lib/linux/../EApiEmulI2C.c ****           EAPI_STATUS_WRITE_ERROR, 
 192:/home/hkh/git/eapidk-code-r76-trunk/lib/linux/../EApiEmulI2C.c ****           "Device Page Wrap around"
 193:/home/hkh/git/eapidk-code-r76-trunk/lib/linux/../EApiEmulI2C.c ****           );
 194:/home/hkh/git/eapidk-code-r76-trunk/lib/linux/../EApiEmulI2C.c ****       EAPI_LIB_RETURN_ERROR_IF(
 395              		.loc 1 194 7 is_stmt 1
 396 0370 24301BE5 		ldr	r3, [fp, #-36]
 397 0374 0C2093E5 		ldr	r2, [r3, #12]
 398 0378 2C301BE5 		ldr	r3, [fp, #-44]
 399 037c 032082E0 		add	r2, r2, r3
 400 0380 24301BE5 		ldr	r3, [fp, #-36]
 401 0384 003093E5 		ldr	r3, [r3]
 402 0388 030052E1 		cmp	r2, r3
 403 038c 1300009A 		bls	.L10
 404              		.loc 1 194 7 is_stmt 0 discriminator 1
 405 0390 D0329FE5 		ldr	r3, .L16+60
 406              	.LPIC15:
 407 0394 03308FE0 		add	r3, pc, r3
 408 0398 08308DE5 		str	r3, [sp, #8]
 409 039c C8329FE5 		ldr	r3, .L16+64
 410              	.LPIC16:
 411 03a0 03308FE0 		add	r3, pc, r3
 412 03a4 04308DE5 		str	r3, [sp, #4]
 413 03a8 FE3A0FE3 		movw	r3, #64254
 414 03ac FF3F4FE3 		movt	r3, 65535
 415 03b0 00308DE5 		str	r3, [sp]
 416 03b4 C230A0E3 		mov	r3, #194
ARM GAS  /tmp/ccJiIEBf.s 			page 13


 417 03b8 B0229FE5 		ldr	r2, .L16+68
 418              	.LPIC17:
 419 03bc 02208FE0 		add	r2, pc, r2
 420 03c0 AC129FE5 		ldr	r1, .L16+72
 421              	.LPIC18:
 422 03c4 01108FE0 		add	r1, pc, r1
 423 03c8 4500A0E3 		mov	r0, #69
 424 03cc FEFFFFEB 		bl	siFormattedMessage_SC(PLT)
 425 03d0 FE3A0FE3 		movw	r3, #64254
 426 03d4 FF3F4FE3 		movt	r3, 65535
 427 03d8 18300BE5 		str	r3, [fp, #-24]
 428 03dc 8E0000EA 		b	.L8
 429              	.L10:
 195:/home/hkh/git/eapidk-code-r76-trunk/lib/linux/../EApiEmulI2C.c ****           EmulateEepromFS,
 196:/home/hkh/git/eapidk-code-r76-trunk/lib/linux/../EApiEmulI2C.c ****           (CfgData->CurIndx+WriteBCnt)>CfgData->ByteLen   , 
 197:/home/hkh/git/eapidk-code-r76-trunk/lib/linux/../EApiEmulI2C.c ****           EAPI_STATUS_WRITE_ERROR, 
 198:/home/hkh/git/eapidk-code-r76-trunk/lib/linux/../EApiEmulI2C.c ****           "Device Write Wrap around"
 199:/home/hkh/git/eapidk-code-r76-trunk/lib/linux/../EApiEmulI2C.c ****           );
 200:/home/hkh/git/eapidk-code-r76-trunk/lib/linux/../EApiEmulI2C.c **** 
 201:/home/hkh/git/eapidk-code-r76-trunk/lib/linux/../EApiEmulI2C.c ****       EAPI_EMUL_DELAY_NS(I2C_EMUL_BYTE_DELAY_NS*WriteBCnt);
 430              		.loc 1 201 7 is_stmt 1
 431 03e0 2C201BE5 		ldr	r2, [fp, #-44]
 432 03e4 903F05E3 		movw	r3, #24464
 433 03e8 013040E3 		movt	r3, 1
 434 03ec 930203E0 		mul	r3, r3, r2
 435 03f0 0300A0E1 		mov	r0, r3
 436 03f4 FEFFFFEB 		bl	EApiSleepns(PLT)
 202:/home/hkh/git/eapidk-code-r76-trunk/lib/linux/../EApiEmulI2C.c ****       fseek(CfgData->FStream, CfgData->CurIndx, SEEK_SET);
 437              		.loc 1 202 7
 438 03f8 24301BE5 		ldr	r3, [fp, #-36]
 439 03fc 180093E5 		ldr	r0, [r3, #24]
 440              		.loc 1 202 38
 441 0400 24301BE5 		ldr	r3, [fp, #-36]
 442 0404 0C3093E5 		ldr	r3, [r3, #12]
 443              		.loc 1 202 7
 444 0408 0020A0E3 		mov	r2, #0
 445 040c 0310A0E1 		mov	r1, r3
 446 0410 FEFFFFEB 		bl	fseek(PLT)
 203:/home/hkh/git/eapidk-code-r76-trunk/lib/linux/../EApiEmulI2C.c ****       EAPI_LIB_RETURN_ERROR_IF(
 447              		.loc 1 203 7
 448 0414 24301BE5 		ldr	r3, [fp, #-36]
 449 0418 183093E5 		ldr	r3, [r3, #24]
 450 041c 2C201BE5 		ldr	r2, [fp, #-44]
 451 0420 0110A0E3 		mov	r1, #1
 452 0424 28001BE5 		ldr	r0, [fp, #-40]
 453 0428 FEFFFFEB 		bl	fwrite(PLT)
 454 042c 0020A0E1 		mov	r2, r0
 455 0430 2C301BE5 		ldr	r3, [fp, #-44]
 456 0434 020053E1 		cmp	r3, r2
 457 0438 1300000A 		beq	.L11
 458              		.loc 1 203 7 is_stmt 0 discriminator 1
 459 043c 34329FE5 		ldr	r3, .L16+76
 460              	.LPIC19:
 461 0440 03308FE0 		add	r3, pc, r3
 462 0444 08308DE5 		str	r3, [sp, #8]
 463 0448 2C329FE5 		ldr	r3, .L16+80
 464              	.LPIC20:
ARM GAS  /tmp/ccJiIEBf.s 			page 14


 465 044c 03308FE0 		add	r3, pc, r3
 466 0450 04308DE5 		str	r3, [sp, #4]
 467 0454 FE3A0FE3 		movw	r3, #64254
 468 0458 FF3F4FE3 		movt	r3, 65535
 469 045c 00308DE5 		str	r3, [sp]
 470 0460 CB30A0E3 		mov	r3, #203
 471 0464 14229FE5 		ldr	r2, .L16+84
 472              	.LPIC21:
 473 0468 02208FE0 		add	r2, pc, r2
 474 046c 10129FE5 		ldr	r1, .L16+88
 475              	.LPIC22:
 476 0470 01108FE0 		add	r1, pc, r1
 477 0474 4500A0E3 		mov	r0, #69
 478 0478 FEFFFFEB 		bl	siFormattedMessage_SC(PLT)
 479 047c FE3A0FE3 		movw	r3, #64254
 480 0480 FF3F4FE3 		movt	r3, 65535
 481 0484 18300BE5 		str	r3, [fp, #-24]
 482 0488 630000EA 		b	.L8
 483              	.L11:
 204:/home/hkh/git/eapidk-code-r76-trunk/lib/linux/../EApiEmulI2C.c ****           EmulateEepromFS,
 205:/home/hkh/git/eapidk-code-r76-trunk/lib/linux/../EApiEmulI2C.c ****           WriteBCnt!=fwrite(pWBuffer, sizeof(uint8_t), WriteBCnt, CfgData->FStream), 
 206:/home/hkh/git/eapidk-code-r76-trunk/lib/linux/../EApiEmulI2C.c ****           EAPI_STATUS_WRITE_ERROR, 
 207:/home/hkh/git/eapidk-code-r76-trunk/lib/linux/../EApiEmulI2C.c ****           "Device Write Error"
 208:/home/hkh/git/eapidk-code-r76-trunk/lib/linux/../EApiEmulI2C.c ****           );
 209:/home/hkh/git/eapidk-code-r76-trunk/lib/linux/../EApiEmulI2C.c ****       CfgData->CurIndx+=WriteBCnt;
 484              		.loc 1 209 23 is_stmt 1
 485 048c 24301BE5 		ldr	r3, [fp, #-36]
 486 0490 0C2093E5 		ldr	r2, [r3, #12]
 487 0494 2C301BE5 		ldr	r3, [fp, #-44]
 488 0498 032082E0 		add	r2, r2, r3
 489 049c 24301BE5 		ldr	r3, [fp, #-36]
 490 04a0 0C2083E5 		str	r2, [r3, #12]
 491              	.L2:
 210:/home/hkh/git/eapidk-code-r76-trunk/lib/linux/../EApiEmulI2C.c ****     }
 211:/home/hkh/git/eapidk-code-r76-trunk/lib/linux/../EApiEmulI2C.c ****   }
 212:/home/hkh/git/eapidk-code-r76-trunk/lib/linux/../EApiEmulI2C.c **** 
 213:/home/hkh/git/eapidk-code-r76-trunk/lib/linux/../EApiEmulI2C.c ****   if(ReadBCnt)
 492              		.loc 1 213 5
 493 04a4 08309BE5 		ldr	r3, [fp, #8]
 494 04a8 000053E3 		cmp	r3, #0
 495 04ac 4800000A 		beq	.L12
 214:/home/hkh/git/eapidk-code-r76-trunk/lib/linux/../EApiEmulI2C.c ****   {
 215:/home/hkh/git/eapidk-code-r76-trunk/lib/linux/../EApiEmulI2C.c ****     EAPI_LIB_RETURN_ERROR_IF(
 496              		.loc 1 215 5
 497 04b0 24301BE5 		ldr	r3, [fp, #-36]
 498 04b4 0C2093E5 		ldr	r2, [r3, #12]
 499 04b8 08309BE5 		ldr	r3, [fp, #8]
 500 04bc 032082E0 		add	r2, r2, r3
 501 04c0 24301BE5 		ldr	r3, [fp, #-36]
 502 04c4 003093E5 		ldr	r3, [r3]
 503 04c8 030052E1 		cmp	r2, r3
 504 04cc 1100009A 		bls	.L13
 505              		.loc 1 215 5 is_stmt 0 discriminator 1
 506 04d0 B0319FE5 		ldr	r3, .L16+92
 507              	.LPIC23:
 508 04d4 03308FE0 		add	r3, pc, r3
 509 04d8 08308DE5 		str	r3, [sp, #8]
ARM GAS  /tmp/ccJiIEBf.s 			page 15


 510 04dc A8319FE5 		ldr	r3, .L16+96
 511              	.LPIC24:
 512 04e0 03308FE0 		add	r3, pc, r3
 513 04e4 04308DE5 		str	r3, [sp, #4]
 514 04e8 053CE0E3 		mvn	r3, #1280
 515 04ec 00308DE5 		str	r3, [sp]
 516 04f0 D730A0E3 		mov	r3, #215
 517 04f4 94219FE5 		ldr	r2, .L16+100
 518              	.LPIC25:
 519 04f8 02208FE0 		add	r2, pc, r2
 520 04fc 90119FE5 		ldr	r1, .L16+104
 521              	.LPIC26:
 522 0500 01108FE0 		add	r1, pc, r1
 523 0504 4500A0E3 		mov	r0, #69
 524 0508 FEFFFFEB 		bl	siFormattedMessage_SC(PLT)
 525 050c 053CE0E3 		mvn	r3, #1280
 526 0510 18300BE5 		str	r3, [fp, #-24]
 527 0514 400000EA 		b	.L8
 528              	.L13:
 216:/home/hkh/git/eapidk-code-r76-trunk/lib/linux/../EApiEmulI2C.c ****         EmulateEepromFS,
 217:/home/hkh/git/eapidk-code-r76-trunk/lib/linux/../EApiEmulI2C.c ****         (CfgData->CurIndx+ReadBCnt)>CfgData->ByteLen      , 
 218:/home/hkh/git/eapidk-code-r76-trunk/lib/linux/../EApiEmulI2C.c ****         EAPI_STATUS_READ_ERROR, 
 219:/home/hkh/git/eapidk-code-r76-trunk/lib/linux/../EApiEmulI2C.c ****         "Device Read Wrap around"
 220:/home/hkh/git/eapidk-code-r76-trunk/lib/linux/../EApiEmulI2C.c ****         );
 221:/home/hkh/git/eapidk-code-r76-trunk/lib/linux/../EApiEmulI2C.c **** 
 222:/home/hkh/git/eapidk-code-r76-trunk/lib/linux/../EApiEmulI2C.c ****     EAPI_EMUL_DELAY_NS(I2C_EMUL_BYTE_DELAY_NS*ReadBCnt);
 529              		.loc 1 222 5 is_stmt 1
 530 0518 08209BE5 		ldr	r2, [fp, #8]
 531 051c 903F05E3 		movw	r3, #24464
 532 0520 013040E3 		movt	r3, 1
 533 0524 930203E0 		mul	r3, r3, r2
 534 0528 0300A0E1 		mov	r0, r3
 535 052c FEFFFFEB 		bl	EApiSleepns(PLT)
 223:/home/hkh/git/eapidk-code-r76-trunk/lib/linux/../EApiEmulI2C.c ****     fseek(CfgData->FStream, CfgData->CurIndx, SEEK_SET);
 536              		.loc 1 223 5
 537 0530 24301BE5 		ldr	r3, [fp, #-36]
 538 0534 180093E5 		ldr	r0, [r3, #24]
 539              		.loc 1 223 36
 540 0538 24301BE5 		ldr	r3, [fp, #-36]
 541 053c 0C3093E5 		ldr	r3, [r3, #12]
 542              		.loc 1 223 5
 543 0540 0020A0E3 		mov	r2, #0
 544 0544 0310A0E1 		mov	r1, r3
 545 0548 FEFFFFEB 		bl	fseek(PLT)
 224:/home/hkh/git/eapidk-code-r76-trunk/lib/linux/../EApiEmulI2C.c ****     EAPI_LIB_RETURN_ERROR_IF(
 546              		.loc 1 224 5
 547 054c 24301BE5 		ldr	r3, [fp, #-36]
 548 0550 183093E5 		ldr	r3, [r3, #24]
 549 0554 08209BE5 		ldr	r2, [fp, #8]
 550 0558 0110A0E3 		mov	r1, #1
 551 055c 04009BE5 		ldr	r0, [fp, #4]
 552 0560 FEFFFFEB 		bl	fread(PLT)
 553 0564 0020A0E1 		mov	r2, r0
 554 0568 08309BE5 		ldr	r3, [fp, #8]
 555 056c 020053E1 		cmp	r3, r2
 556 0570 1100000A 		beq	.L14
 557              		.loc 1 224 5 is_stmt 0 discriminator 1
ARM GAS  /tmp/ccJiIEBf.s 			page 16


 558 0574 1C319FE5 		ldr	r3, .L16+108
 559              	.LPIC27:
 560 0578 03308FE0 		add	r3, pc, r3
 561 057c 08308DE5 		str	r3, [sp, #8]
 562 0580 14319FE5 		ldr	r3, .L16+112
 563              	.LPIC28:
 564 0584 03308FE0 		add	r3, pc, r3
 565 0588 04308DE5 		str	r3, [sp, #4]
 566 058c 053CE0E3 		mvn	r3, #1280
 567 0590 00308DE5 		str	r3, [sp]
 568 0594 E030A0E3 		mov	r3, #224
 569 0598 00219FE5 		ldr	r2, .L16+116
 570              	.LPIC29:
 571 059c 02208FE0 		add	r2, pc, r2
 572 05a0 FC109FE5 		ldr	r1, .L16+120
 573              	.LPIC30:
 574 05a4 01108FE0 		add	r1, pc, r1
 575 05a8 4500A0E3 		mov	r0, #69
 576 05ac FEFFFFEB 		bl	siFormattedMessage_SC(PLT)
 577 05b0 053CE0E3 		mvn	r3, #1280
 578 05b4 18300BE5 		str	r3, [fp, #-24]
 579 05b8 170000EA 		b	.L8
 580              	.L14:
 225:/home/hkh/git/eapidk-code-r76-trunk/lib/linux/../EApiEmulI2C.c ****         EmulateEepromFS,
 226:/home/hkh/git/eapidk-code-r76-trunk/lib/linux/../EApiEmulI2C.c ****         ReadBCnt!=fread(pRBuffer, sizeof(uint8_t), ReadBCnt, CfgData->FStream), 
 227:/home/hkh/git/eapidk-code-r76-trunk/lib/linux/../EApiEmulI2C.c ****         EAPI_STATUS_READ_ERROR, 
 228:/home/hkh/git/eapidk-code-r76-trunk/lib/linux/../EApiEmulI2C.c ****         "Device Read Error"
 229:/home/hkh/git/eapidk-code-r76-trunk/lib/linux/../EApiEmulI2C.c ****         );
 230:/home/hkh/git/eapidk-code-r76-trunk/lib/linux/../EApiEmulI2C.c ****     CfgData->CurIndx+=ReadBCnt;
 581              		.loc 1 230 21 is_stmt 1
 582 05bc 24301BE5 		ldr	r3, [fp, #-36]
 583 05c0 0C2093E5 		ldr	r2, [r3, #12]
 584 05c4 08309BE5 		ldr	r3, [fp, #8]
 585 05c8 032082E0 		add	r2, r2, r3
 586 05cc 24301BE5 		ldr	r3, [fp, #-36]
 587 05d0 0C2083E5 		str	r2, [r3, #12]
 588              	.L12:
 231:/home/hkh/git/eapidk-code-r76-trunk/lib/linux/../EApiEmulI2C.c ****   }
 232:/home/hkh/git/eapidk-code-r76-trunk/lib/linux/../EApiEmulI2C.c ****   EAPI_LIB_RETURN_SUCCESS(EmulateEepromFS, "");
 589              		.loc 1 232 3
 590 05d4 CC309FE5 		ldr	r3, .L16+124
 591              	.LPIC31:
 592 05d8 03308FE0 		add	r3, pc, r3
 593 05dc 08308DE5 		str	r3, [sp, #8]
 594 05e0 C4309FE5 		ldr	r3, .L16+128
 595              	.LPIC32:
 596 05e4 03308FE0 		add	r3, pc, r3
 597 05e8 04308DE5 		str	r3, [sp, #4]
 598 05ec 0030A0E3 		mov	r3, #0
 599 05f0 00308DE5 		str	r3, [sp]
 600 05f4 E830A0E3 		mov	r3, #232
 601 05f8 B0209FE5 		ldr	r2, .L16+132
 602              	.LPIC33:
 603 05fc 02208FE0 		add	r2, pc, r2
 604 0600 AC109FE5 		ldr	r1, .L16+136
 605              	.LPIC34:
 606 0604 01108FE0 		add	r1, pc, r1
ARM GAS  /tmp/ccJiIEBf.s 			page 17


 607 0608 4C00A0E3 		mov	r0, #76
 608 060c FEFFFFEB 		bl	siFormattedMessage_SC(PLT)
 609 0610 0030A0E3 		mov	r3, #0
 610 0614 18300BE5 		str	r3, [fp, #-24]
 611 0618 00F020E3 		nop
 612              	.L8:
 233:/home/hkh/git/eapidk-code-r76-trunk/lib/linux/../EApiEmulI2C.c **** EAPI_LIB_ASSERT_EXIT
 234:/home/hkh/git/eapidk-code-r76-trunk/lib/linux/../EApiEmulI2C.c **** 
 235:/home/hkh/git/eapidk-code-r76-trunk/lib/linux/../EApiEmulI2C.c ****   return StatusCode;
 613              		.loc 1 235 10
 614 061c 18301BE5 		ldr	r3, [fp, #-24]
 236:/home/hkh/git/eapidk-code-r76-trunk/lib/linux/../EApiEmulI2C.c **** }
 615              		.loc 1 236 1
 616 0620 0300A0E1 		mov	r0, r3
 617 0624 10D04BE2 		sub	sp, fp, #16
 618              		.cfi_def_cfa 13, 20
 619              		@ sp needed
 620 0628 7088BDE8 		pop	{r4, r5, r6, fp, pc}
 621              	.L17:
 622              		.align	2
 623              	.L16:
 624 062c EC050000 		.word	StdExt-(.LPIC0+8)
 625 0630 B8050000 		.word	.LC5-(.LPIC1+8)
 626 0634 58050000 		.word	.LC3-(.LPIC2+8)
 627 0638 64050000 		.word	.LC4-(.LPIC3+8)
 628 063c 6C050000 		.word	.LC6-(.LPIC4+8)
 629 0640 88050000 		.word	.LC7-(.LPIC5+8)
 630 0644 A4040000 		.word	.LC3-(.LPIC6+8)
 631 0648 B0040000 		.word	.LC4-(.LPIC7+8)
 632 064c 74040000 		.word	.LC8-(.LPIC8+8)
 633 0650 90030000 		.word	.LC3-(.LPIC9+8)
 634 0654 9C030000 		.word	.LC4-(.LPIC10+8)
 635 0658 30040000 		.word	.LC9-(.LPIC11+8)
 636 065c 00040000 		.word	.LC7-(.LPIC12+8)
 637 0660 18030000 		.word	.LC3-(.LPIC13+8)
 638 0664 24030000 		.word	.LC4-(.LPIC14+8)
 639 0668 E8030000 		.word	.LC10-(.LPIC15+8)
 640 066c A0030000 		.word	.LC7-(.LPIC16+8)
 641 0670 B8020000 		.word	.LC3-(.LPIC17+8)
 642 0674 C4020000 		.word	.LC4-(.LPIC18+8)
 643 0678 68030000 		.word	.LC11-(.LPIC19+8)
 644 067c 04030000 		.word	.LC7-(.LPIC20+8)
 645 0680 1C020000 		.word	.LC3-(.LPIC21+8)
 646 0684 28020000 		.word	.LC4-(.LPIC22+8)
 647 0688 F8020000 		.word	.LC12-(.LPIC23+8)
 648 068c 80020000 		.word	.LC7-(.LPIC24+8)
 649 0690 9C010000 		.word	.LC3-(.LPIC25+8)
 650 0694 A8010000 		.word	.LC4-(.LPIC26+8)
 651 0698 7C020000 		.word	.LC13-(.LPIC27+8)
 652 069c EC010000 		.word	.LC7-(.LPIC28+8)
 653 06a0 08010000 		.word	.LC3-(.LPIC29+8)
 654 06a4 14010000 		.word	.LC4-(.LPIC30+8)
 655 06a8 40020000 		.word	.LC14-(.LPIC31+8)
 656 06ac 9C010000 		.word	.LC7-(.LPIC32+8)
 657 06b0 B8000000 		.word	.LC3-(.LPIC33+8)
 658 06b4 C4000000 		.word	.LC4-(.LPIC34+8)
 659              		.cfi_endproc
ARM GAS  /tmp/ccJiIEBf.s 			page 18


 660              	.LFE1:
 662              		.section	.rodata
 663 0179 000000   		.align	2
 664              	.LC15:
 665 017c 456D756C 		.ascii	"EmulateCmdDevice\000"
 665      61746543 
 665      6D644465 
 665      76696365 
 665      00
 666 018d 000000   		.align	2
 667              	.LC16:
 668 0190 25337320 		.ascii	"%3s CCMD=%04lX Arg1=%1lX WLEN=%04lX RLEN=%04lX %02X"
 668      43434D44 
 668      3D253034 
 668      6C582041 
 668      7267313D 
 669 01c3 2C253032 		.ascii	",%02X,%02X,%02X\012\000"
 669      582C2530 
 669      32582C25 
 669      3032580A 
 669      00
 670              		.text
 671              		.align	2
 672              		.global	EmulateCmdDevice
 673              		.hidden	EmulateCmdDevice
 674              		.syntax unified
 675              		.arm
 676              		.fpu vfpv3
 678              	EmulateCmdDevice:
 679              	.LFB2:
 237:/home/hkh/git/eapidk-code-r76-trunk/lib/linux/../EApiEmulI2C.c **** 
 238:/home/hkh/git/eapidk-code-r76-trunk/lib/linux/../EApiEmulI2C.c **** 
 239:/home/hkh/git/eapidk-code-r76-trunk/lib/linux/../EApiEmulI2C.c **** EApiStatus_t 
 240:/home/hkh/git/eapidk-code-r76-trunk/lib/linux/../EApiEmulI2C.c **** EmulateCmdDevice(
 241:/home/hkh/git/eapidk-code-r76-trunk/lib/linux/../EApiEmulI2C.c ****     __IN unsigned long        Arg1      , 
 242:/home/hkh/git/eapidk-code-r76-trunk/lib/linux/../EApiEmulI2C.c ****     __IN CmdDeviceCfgData_t  *CfgData   , 
 243:/home/hkh/git/eapidk-code-r76-trunk/lib/linux/../EApiEmulI2C.c ****     __IN uint8_t             *pWBuffer  , 
 244:/home/hkh/git/eapidk-code-r76-trunk/lib/linux/../EApiEmulI2C.c ****     __IN unsigned long        WriteBCnt , 
 245:/home/hkh/git/eapidk-code-r76-trunk/lib/linux/../EApiEmulI2C.c ****     __OUT uint8_t            *pRBuffer  , 
 246:/home/hkh/git/eapidk-code-r76-trunk/lib/linux/../EApiEmulI2C.c ****     __IN unsigned long        ReadBCnt
 247:/home/hkh/git/eapidk-code-r76-trunk/lib/linux/../EApiEmulI2C.c ****     )
 248:/home/hkh/git/eapidk-code-r76-trunk/lib/linux/../EApiEmulI2C.c **** {
 680              		.loc 1 248 1
 681              		.cfi_startproc
 682              		@ args = 8, pretend = 0, frame = 32
 683              		@ frame_needed = 1, uses_anonymous_args = 0
 684 06b8 10482DE9 		push	{r4, fp, lr}
 685              		.cfi_def_cfa_offset 12
 686              		.cfi_offset 4, -12
 687              		.cfi_offset 11, -8
 688              		.cfi_offset 14, -4
 689 06bc 08B08DE2 		add	fp, sp, #8
 690              		.cfi_def_cfa 11, 4
 691 06c0 54D04DE2 		sub	sp, sp, #84
 692 06c4 20000BE5 		str	r0, [fp, #-32]
 693 06c8 24100BE5 		str	r1, [fp, #-36]
 694 06cc 28200BE5 		str	r2, [fp, #-40]
ARM GAS  /tmp/ccJiIEBf.s 			page 19


 695 06d0 2C300BE5 		str	r3, [fp, #-44]
 249:/home/hkh/git/eapidk-code-r76-trunk/lib/linux/../EApiEmulI2C.c ****   EApiStatus_t StatusCode=EAPI_STATUS_SUCCESS;
 696              		.loc 1 249 16
 697 06d4 0030A0E3 		mov	r3, #0
 698 06d8 18300BE5 		str	r3, [fp, #-24]
 250:/home/hkh/git/eapidk-code-r76-trunk/lib/linux/../EApiEmulI2C.c ****     unsigned long ReadBCnt2;
 251:/home/hkh/git/eapidk-code-r76-trunk/lib/linux/../EApiEmulI2C.c ****     CmdDesc_t *pCurCmd;
 252:/home/hkh/git/eapidk-code-r76-trunk/lib/linux/../EApiEmulI2C.c ****   
 253:/home/hkh/git/eapidk-code-r76-trunk/lib/linux/../EApiEmulI2C.c **** #if (STRICT_VALIDATION>1)
 254:/home/hkh/git/eapidk-code-r76-trunk/lib/linux/../EApiEmulI2C.c ****         siFormattedMessage_M2(
 255:/home/hkh/git/eapidk-code-r76-trunk/lib/linux/../EApiEmulI2C.c ****               'L'                   ,
 256:/home/hkh/git/eapidk-code-r76-trunk/lib/linux/../EApiEmulI2C.c ****               __FILE__              ,
 257:/home/hkh/git/eapidk-code-r76-trunk/lib/linux/../EApiEmulI2C.c ****               "EmulateCmdDevice"    ,
 258:/home/hkh/git/eapidk-code-r76-trunk/lib/linux/../EApiEmulI2C.c ****               __LINE__              ,
 259:/home/hkh/git/eapidk-code-r76-trunk/lib/linux/../EApiEmulI2C.c ****               CfgData->cszDeviceName,
 699              		.loc 1 259 22
 700 06dc 24301BE5 		ldr	r3, [fp, #-36]
 701 06e0 0C3093E5 		ldr	r3, [r3, #12]
 260:/home/hkh/git/eapidk-code-r76-trunk/lib/linux/../EApiEmulI2C.c ****               "%3s CCMD=%04lX Arg1=%1lX WLEN=%04lX RLEN=%04lX %02"PRIX8
 261:/home/hkh/git/eapidk-code-r76-trunk/lib/linux/../EApiEmulI2C.c ****               ",%02"PRIX8",%02"PRIX8",%02"PRIX8"\n", 
 262:/home/hkh/git/eapidk-code-r76-trunk/lib/linux/../EApiEmulI2C.c ****               StdExt[CfgData->ExtendedCmd], 
 702              		.loc 1 262 29
 703 06e4 24201BE5 		ldr	r2, [fp, #-36]
 704 06e8 001092E5 		ldr	r1, [r2]
 254:/home/hkh/git/eapidk-code-r76-trunk/lib/linux/../EApiEmulI2C.c ****               'L'                   ,
 705              		.loc 1 254 9
 706 06ec 84239FE5 		ldr	r2, .L35
 707              	.LPIC35:
 708 06f0 02208FE0 		add	r2, pc, r2
 709 06f4 012192E7 		ldr	r2, [r2, r1, lsl #2]
 710 06f8 24101BE5 		ldr	r1, [fp, #-36]
 711 06fc 041091E5 		ldr	r1, [r1, #4]
 263:/home/hkh/git/eapidk-code-r76-trunk/lib/linux/../EApiEmulI2C.c ****               CfgData->CurrentCmd, 
 264:/home/hkh/git/eapidk-code-r76-trunk/lib/linux/../EApiEmulI2C.c ****               Arg1, 
 265:/home/hkh/git/eapidk-code-r76-trunk/lib/linux/../EApiEmulI2C.c ****               WriteBCnt, 
 266:/home/hkh/git/eapidk-code-r76-trunk/lib/linux/../EApiEmulI2C.c ****               ReadBCnt, 
 267:/home/hkh/git/eapidk-code-r76-trunk/lib/linux/../EApiEmulI2C.c ****               pWBuffer[0],
 712              		.loc 1 267 23
 713 0700 28001BE5 		ldr	r0, [fp, #-40]
 714 0704 0000D0E5 		ldrb	r0, [r0]	@ zero_extendqisi2
 254:/home/hkh/git/eapidk-code-r76-trunk/lib/linux/../EApiEmulI2C.c ****               'L'                   ,
 715              		.loc 1 254 9
 716 0708 00C0A0E1 		mov	ip, r0
 268:/home/hkh/git/eapidk-code-r76-trunk/lib/linux/../EApiEmulI2C.c ****               pWBuffer[1],
 717              		.loc 1 268 23
 718 070c 28001BE5 		ldr	r0, [fp, #-40]
 719 0710 010080E2 		add	r0, r0, #1
 720 0714 0000D0E5 		ldrb	r0, [r0]	@ zero_extendqisi2
 254:/home/hkh/git/eapidk-code-r76-trunk/lib/linux/../EApiEmulI2C.c ****               'L'                   ,
 721              		.loc 1 254 9
 722 0718 00E0A0E1 		mov	lr, r0
 269:/home/hkh/git/eapidk-code-r76-trunk/lib/linux/../EApiEmulI2C.c ****               pWBuffer[2],
 723              		.loc 1 269 23
 724 071c 28001BE5 		ldr	r0, [fp, #-40]
 725 0720 020080E2 		add	r0, r0, #2
 726 0724 0000D0E5 		ldrb	r0, [r0]	@ zero_extendqisi2
 254:/home/hkh/git/eapidk-code-r76-trunk/lib/linux/../EApiEmulI2C.c ****               'L'                   ,
ARM GAS  /tmp/ccJiIEBf.s 			page 20


 727              		.loc 1 254 9
 728 0728 0040A0E1 		mov	r4, r0
 270:/home/hkh/git/eapidk-code-r76-trunk/lib/linux/../EApiEmulI2C.c ****               pWBuffer[3]
 729              		.loc 1 270 23
 730 072c 28001BE5 		ldr	r0, [fp, #-40]
 731 0730 030080E2 		add	r0, r0, #3
 732 0734 0000D0E5 		ldrb	r0, [r0]	@ zero_extendqisi2
 254:/home/hkh/git/eapidk-code-r76-trunk/lib/linux/../EApiEmulI2C.c ****               'L'                   ,
 733              		.loc 1 254 9
 734 0738 28008DE5 		str	r0, [sp, #40]
 735 073c 24408DE5 		str	r4, [sp, #36]
 736 0740 20E08DE5 		str	lr, [sp, #32]
 737 0744 1CC08DE5 		str	ip, [sp, #28]
 738 0748 08009BE5 		ldr	r0, [fp, #8]
 739 074c 18008DE5 		str	r0, [sp, #24]
 740 0750 2C001BE5 		ldr	r0, [fp, #-44]
 741 0754 14008DE5 		str	r0, [sp, #20]
 742 0758 20001BE5 		ldr	r0, [fp, #-32]
 743 075c 10008DE5 		str	r0, [sp, #16]
 744 0760 0C108DE5 		str	r1, [sp, #12]
 745 0764 08208DE5 		str	r2, [sp, #8]
 746 0768 0C239FE5 		ldr	r2, .L35+4
 747              	.LPIC36:
 748 076c 02208FE0 		add	r2, pc, r2
 749 0770 04208DE5 		str	r2, [sp, #4]
 750 0774 00308DE5 		str	r3, [sp]
 751 0778 023100E3 		movw	r3, #258
 752 077c FC229FE5 		ldr	r2, .L35+8
 753              	.LPIC37:
 754 0780 02208FE0 		add	r2, pc, r2
 755 0784 F8129FE5 		ldr	r1, .L35+12
 756              	.LPIC38:
 757 0788 01108FE0 		add	r1, pc, r1
 758 078c 4C00A0E3 		mov	r0, #76
 759 0790 FEFFFFEB 		bl	siFormattedMessage_M2(PLT)
 271:/home/hkh/git/eapidk-code-r76-trunk/lib/linux/../EApiEmulI2C.c ****             );
 272:/home/hkh/git/eapidk-code-r76-trunk/lib/linux/../EApiEmulI2C.c **** #endif
 273:/home/hkh/git/eapidk-code-r76-trunk/lib/linux/../EApiEmulI2C.c ****   if(WriteBCnt)
 760              		.loc 1 273 5
 761 0794 2C301BE5 		ldr	r3, [fp, #-44]
 762 0798 000053E3 		cmp	r3, #0
 763 079c 6800000A 		beq	.L19
 274:/home/hkh/git/eapidk-code-r76-trunk/lib/linux/../EApiEmulI2C.c ****   {
 275:/home/hkh/git/eapidk-code-r76-trunk/lib/linux/../EApiEmulI2C.c ****     switch((CfgData->ExtendedCmd))  {      /* Emulate Standard IDX/CMD 
 764              		.loc 1 275 20
 765 07a0 24301BE5 		ldr	r3, [fp, #-36]
 766 07a4 003093E5 		ldr	r3, [r3]
 767              		.loc 1 275 5
 768 07a8 010053E3 		cmp	r3, #1
 769 07ac 0200000A 		beq	.L20
 770 07b0 020053E3 		cmp	r3, #2
 771 07b4 0E00000A 		beq	.L21
 276:/home/hkh/git/eapidk-code-r76-trunk/lib/linux/../EApiEmulI2C.c ****                                                     Device */
 277:/home/hkh/git/eapidk-code-r76-trunk/lib/linux/../EApiEmulI2C.c ****       case STD_INDEX:
 278:/home/hkh/git/eapidk-code-r76-trunk/lib/linux/../EApiEmulI2C.c ****         CfgData->CurrentCmd=*pWBuffer++;
 279:/home/hkh/git/eapidk-code-r76-trunk/lib/linux/../EApiEmulI2C.c ****         WriteBCnt--;
 280:/home/hkh/git/eapidk-code-r76-trunk/lib/linux/../EApiEmulI2C.c ****         EAPI_EMUL_DELAY_NS(I2C_EMUL_BYTE_DELAY_NS);
ARM GAS  /tmp/ccJiIEBf.s 			page 21


 281:/home/hkh/git/eapidk-code-r76-trunk/lib/linux/../EApiEmulI2C.c ****         break;
 282:/home/hkh/git/eapidk-code-r76-trunk/lib/linux/../EApiEmulI2C.c ****       case EXT_INDEX:                             /* Emulate Extended IDX/CMD
 283:/home/hkh/git/eapidk-code-r76-trunk/lib/linux/../EApiEmulI2C.c ****                                                     Device */
 284:/home/hkh/git/eapidk-code-r76-trunk/lib/linux/../EApiEmulI2C.c ****         EAPI_LIB_RETURN_ERROR_IF(
 285:/home/hkh/git/eapidk-code-r76-trunk/lib/linux/../EApiEmulI2C.c ****             EmulateEepromFS, 
 286:/home/hkh/git/eapidk-code-r76-trunk/lib/linux/../EApiEmulI2C.c ****             WriteBCnt<2, 
 287:/home/hkh/git/eapidk-code-r76-trunk/lib/linux/../EApiEmulI2C.c ****             EAPI_STATUS_READ_ERROR, 
 288:/home/hkh/git/eapidk-code-r76-trunk/lib/linux/../EApiEmulI2C.c ****             "STD INDEX Sent to EXT INDEX EEPROM"
 289:/home/hkh/git/eapidk-code-r76-trunk/lib/linux/../EApiEmulI2C.c ****             );
 290:/home/hkh/git/eapidk-code-r76-trunk/lib/linux/../EApiEmulI2C.c **** 
 291:/home/hkh/git/eapidk-code-r76-trunk/lib/linux/../EApiEmulI2C.c ****         CfgData->CurrentCmd =pWBuffer[0]<<8;
 292:/home/hkh/git/eapidk-code-r76-trunk/lib/linux/../EApiEmulI2C.c ****         CfgData->CurrentCmd|=pWBuffer[1];
 293:/home/hkh/git/eapidk-code-r76-trunk/lib/linux/../EApiEmulI2C.c ****         pWBuffer+=2;
 294:/home/hkh/git/eapidk-code-r76-trunk/lib/linux/../EApiEmulI2C.c ****         WriteBCnt-=2;
 295:/home/hkh/git/eapidk-code-r76-trunk/lib/linux/../EApiEmulI2C.c ****         EAPI_EMUL_DELAY_NS(I2C_EMUL_BYTE_DELAY_NS*2);
 296:/home/hkh/git/eapidk-code-r76-trunk/lib/linux/../EApiEmulI2C.c ****         break;
 297:/home/hkh/git/eapidk-code-r76-trunk/lib/linux/../EApiEmulI2C.c ****       default:
 298:/home/hkh/git/eapidk-code-r76-trunk/lib/linux/../EApiEmulI2C.c ****         break;
 772              		.loc 1 298 9
 773 07b8 3A0000EA 		b	.L23
 774              	.L20:
 278:/home/hkh/git/eapidk-code-r76-trunk/lib/linux/../EApiEmulI2C.c ****         WriteBCnt--;
 775              		.loc 1 278 38
 776 07bc 28301BE5 		ldr	r3, [fp, #-40]
 777 07c0 012083E2 		add	r2, r3, #1
 778 07c4 28200BE5 		str	r2, [fp, #-40]
 278:/home/hkh/git/eapidk-code-r76-trunk/lib/linux/../EApiEmulI2C.c ****         WriteBCnt--;
 779              		.loc 1 278 29
 780 07c8 0030D3E5 		ldrb	r3, [r3]	@ zero_extendqisi2
 781 07cc 0320A0E1 		mov	r2, r3
 278:/home/hkh/git/eapidk-code-r76-trunk/lib/linux/../EApiEmulI2C.c ****         WriteBCnt--;
 782              		.loc 1 278 28
 783 07d0 24301BE5 		ldr	r3, [fp, #-36]
 784 07d4 042083E5 		str	r2, [r3, #4]
 279:/home/hkh/git/eapidk-code-r76-trunk/lib/linux/../EApiEmulI2C.c ****         EAPI_EMUL_DELAY_NS(I2C_EMUL_BYTE_DELAY_NS);
 785              		.loc 1 279 18
 786 07d8 2C301BE5 		ldr	r3, [fp, #-44]
 787 07dc 013043E2 		sub	r3, r3, #1
 788 07e0 2C300BE5 		str	r3, [fp, #-44]
 280:/home/hkh/git/eapidk-code-r76-trunk/lib/linux/../EApiEmulI2C.c ****         break;
 789              		.loc 1 280 9
 790 07e4 900F05E3 		movw	r0, #24464
 791 07e8 010040E3 		movt	r0, 1
 792 07ec FEFFFFEB 		bl	EApiSleepns(PLT)
 281:/home/hkh/git/eapidk-code-r76-trunk/lib/linux/../EApiEmulI2C.c ****       case EXT_INDEX:                             /* Emulate Extended IDX/CMD
 793              		.loc 1 281 9
 794 07f0 2C0000EA 		b	.L23
 795              	.L21:
 284:/home/hkh/git/eapidk-code-r76-trunk/lib/linux/../EApiEmulI2C.c ****             EmulateEepromFS, 
 796              		.loc 1 284 9
 797 07f4 2C301BE5 		ldr	r3, [fp, #-44]
 798 07f8 010053E3 		cmp	r3, #1
 799 07fc 1100008A 		bhi	.L24
 284:/home/hkh/git/eapidk-code-r76-trunk/lib/linux/../EApiEmulI2C.c ****             EmulateEepromFS, 
 800              		.loc 1 284 9 is_stmt 0 discriminator 1
 801 0800 80329FE5 		ldr	r3, .L35+16
 802              	.LPIC39:
ARM GAS  /tmp/ccJiIEBf.s 			page 22


 803 0804 03308FE0 		add	r3, pc, r3
 804 0808 08308DE5 		str	r3, [sp, #8]
 805 080c 78329FE5 		ldr	r3, .L35+20
 806              	.LPIC40:
 807 0810 03308FE0 		add	r3, pc, r3
 808 0814 04308DE5 		str	r3, [sp, #4]
 809 0818 053CE0E3 		mvn	r3, #1280
 810 081c 00308DE5 		str	r3, [sp]
 811 0820 473FA0E3 		mov	r3, #284
 812 0824 64229FE5 		ldr	r2, .L35+24
 813              	.LPIC41:
 814 0828 02208FE0 		add	r2, pc, r2
 815 082c 60129FE5 		ldr	r1, .L35+28
 816              	.LPIC42:
 817 0830 01108FE0 		add	r1, pc, r1
 818 0834 4500A0E3 		mov	r0, #69
 819 0838 FEFFFFEB 		bl	siFormattedMessage_SC(PLT)
 820 083c 053CE0E3 		mvn	r3, #1280
 821 0840 18300BE5 		str	r3, [fp, #-24]
 822 0844 870000EA 		b	.L25
 823              	.L24:
 291:/home/hkh/git/eapidk-code-r76-trunk/lib/linux/../EApiEmulI2C.c ****         CfgData->CurrentCmd|=pWBuffer[1];
 824              		.loc 1 291 38 is_stmt 1
 825 0848 28301BE5 		ldr	r3, [fp, #-40]
 826 084c 0030D3E5 		ldrb	r3, [r3]	@ zero_extendqisi2
 291:/home/hkh/git/eapidk-code-r76-trunk/lib/linux/../EApiEmulI2C.c ****         CfgData->CurrentCmd|=pWBuffer[1];
 827              		.loc 1 291 41
 828 0850 0334A0E1 		lsl	r3, r3, #8
 829 0854 0320A0E1 		mov	r2, r3
 291:/home/hkh/git/eapidk-code-r76-trunk/lib/linux/../EApiEmulI2C.c ****         CfgData->CurrentCmd|=pWBuffer[1];
 830              		.loc 1 291 29
 831 0858 24301BE5 		ldr	r3, [fp, #-36]
 832 085c 042083E5 		str	r2, [r3, #4]
 292:/home/hkh/git/eapidk-code-r76-trunk/lib/linux/../EApiEmulI2C.c ****         pWBuffer+=2;
 833              		.loc 1 292 28
 834 0860 24301BE5 		ldr	r3, [fp, #-36]
 835 0864 043093E5 		ldr	r3, [r3, #4]
 292:/home/hkh/git/eapidk-code-r76-trunk/lib/linux/../EApiEmulI2C.c ****         pWBuffer+=2;
 836              		.loc 1 292 38
 837 0868 28201BE5 		ldr	r2, [fp, #-40]
 838 086c 012082E2 		add	r2, r2, #1
 839 0870 0020D2E5 		ldrb	r2, [r2]	@ zero_extendqisi2
 292:/home/hkh/git/eapidk-code-r76-trunk/lib/linux/../EApiEmulI2C.c ****         pWBuffer+=2;
 840              		.loc 1 292 28
 841 0874 022083E1 		orr	r2, r3, r2
 842 0878 24301BE5 		ldr	r3, [fp, #-36]
 843 087c 042083E5 		str	r2, [r3, #4]
 293:/home/hkh/git/eapidk-code-r76-trunk/lib/linux/../EApiEmulI2C.c ****         WriteBCnt-=2;
 844              		.loc 1 293 17
 845 0880 28301BE5 		ldr	r3, [fp, #-40]
 846 0884 023083E2 		add	r3, r3, #2
 847 0888 28300BE5 		str	r3, [fp, #-40]
 294:/home/hkh/git/eapidk-code-r76-trunk/lib/linux/../EApiEmulI2C.c ****         EAPI_EMUL_DELAY_NS(I2C_EMUL_BYTE_DELAY_NS*2);
 848              		.loc 1 294 18
 849 088c 2C301BE5 		ldr	r3, [fp, #-44]
 850 0890 023043E2 		sub	r3, r3, #2
 851 0894 2C300BE5 		str	r3, [fp, #-44]
ARM GAS  /tmp/ccJiIEBf.s 			page 23


 295:/home/hkh/git/eapidk-code-r76-trunk/lib/linux/../EApiEmulI2C.c ****         break;
 852              		.loc 1 295 9
 853 0898 200F0BE3 		movw	r0, #48928
 854 089c 020040E3 		movt	r0, 2
 855 08a0 FEFFFFEB 		bl	EApiSleepns(PLT)
 296:/home/hkh/git/eapidk-code-r76-trunk/lib/linux/../EApiEmulI2C.c ****       default:
 856              		.loc 1 296 9
 857 08a4 00F020E3 		nop
 858              	.L23:
 299:/home/hkh/git/eapidk-code-r76-trunk/lib/linux/../EApiEmulI2C.c ****     }
 300:/home/hkh/git/eapidk-code-r76-trunk/lib/linux/../EApiEmulI2C.c ****     if(WriteBCnt)
 859              		.loc 1 300 7
 860 08a8 2C301BE5 		ldr	r3, [fp, #-44]
 861 08ac 000053E3 		cmp	r3, #0
 862 08b0 2300000A 		beq	.L19
 301:/home/hkh/git/eapidk-code-r76-trunk/lib/linux/../EApiEmulI2C.c ****     {
 302:/home/hkh/git/eapidk-code-r76-trunk/lib/linux/../EApiEmulI2C.c ****       EAPI_EMUL_DELAY_NS(I2C_EMUL_BYTE_DELAY_NS*WriteBCnt);
 863              		.loc 1 302 7
 864 08b4 2C201BE5 		ldr	r2, [fp, #-44]
 865 08b8 903F05E3 		movw	r3, #24464
 866 08bc 013040E3 		movt	r3, 1
 867 08c0 930203E0 		mul	r3, r3, r2
 868 08c4 0300A0E1 		mov	r0, r3
 869 08c8 FEFFFFEB 		bl	EApiSleepns(PLT)
 303:/home/hkh/git/eapidk-code-r76-trunk/lib/linux/../EApiEmulI2C.c ****       for(pCurCmd=CfgData->Cmds;pCurCmd->Cmd!=END_OF_LIST_MARK;pCurCmd++){
 870              		.loc 1 303 18
 871 08cc 24301BE5 		ldr	r3, [fp, #-36]
 872 08d0 103093E5 		ldr	r3, [r3, #16]
 873 08d4 14300BE5 		str	r3, [fp, #-20]
 874              		.loc 1 303 7
 875 08d8 150000EA 		b	.L26
 876              	.L28:
 304:/home/hkh/git/eapidk-code-r76-trunk/lib/linux/../EApiEmulI2C.c ****         if(pCurCmd->Cmd==CfgData->CurrentCmd){
 877              		.loc 1 304 19
 878 08dc 14301BE5 		ldr	r3, [fp, #-20]
 879 08e0 002093E5 		ldr	r2, [r3]
 880              		.loc 1 304 33
 881 08e4 24301BE5 		ldr	r3, [fp, #-36]
 882 08e8 043093E5 		ldr	r3, [r3, #4]
 883              		.loc 1 304 11
 884 08ec 030052E1 		cmp	r2, r3
 885 08f0 0C00001A 		bne	.L27
 305:/home/hkh/git/eapidk-code-r76-trunk/lib/linux/../EApiEmulI2C.c ****           ReadBCnt2=pCurCmd->CmdBlockLen;
 886              		.loc 1 305 20
 887 08f4 14301BE5 		ldr	r3, [fp, #-20]
 888 08f8 043093E5 		ldr	r3, [r3, #4]
 889 08fc 10300BE5 		str	r3, [fp, #-16]
 306:/home/hkh/git/eapidk-code-r76-trunk/lib/linux/../EApiEmulI2C.c ****           memcpy(
 307:/home/hkh/git/eapidk-code-r76-trunk/lib/linux/../EApiEmulI2C.c ****             pCurCmd->pBuffer, 
 890              		.loc 1 307 20
 891 0900 14301BE5 		ldr	r3, [fp, #-20]
 892 0904 080093E5 		ldr	r0, [r3, #8]
 308:/home/hkh/git/eapidk-code-r76-trunk/lib/linux/../EApiEmulI2C.c ****             pRBuffer, 
 309:/home/hkh/git/eapidk-code-r76-trunk/lib/linux/../EApiEmulI2C.c ****             (ReadBCnt>ReadBCnt2?ReadBCnt2:ReadBCnt)
 893              		.loc 1 309 42
 894 0908 08209BE5 		ldr	r2, [fp, #8]
 895 090c 10301BE5 		ldr	r3, [fp, #-16]
ARM GAS  /tmp/ccJiIEBf.s 			page 24


 896 0910 030052E1 		cmp	r2, r3
 897 0914 0230A031 		movcc	r3, r2
 898 0918 0330A021 		movcs	r3, r3
 306:/home/hkh/git/eapidk-code-r76-trunk/lib/linux/../EApiEmulI2C.c ****           memcpy(
 899              		.loc 1 306 11
 900 091c 0320A0E1 		mov	r2, r3
 901 0920 04109BE5 		ldr	r1, [fp, #4]
 902 0924 FEFFFFEB 		bl	memcpy(PLT)
 903              	.L27:
 303:/home/hkh/git/eapidk-code-r76-trunk/lib/linux/../EApiEmulI2C.c ****         if(pCurCmd->Cmd==CfgData->CurrentCmd){
 904              		.loc 1 303 71 discriminator 2
 905 0928 14301BE5 		ldr	r3, [fp, #-20]
 906 092c 0C3083E2 		add	r3, r3, #12
 907 0930 14300BE5 		str	r3, [fp, #-20]
 908              	.L26:
 303:/home/hkh/git/eapidk-code-r76-trunk/lib/linux/../EApiEmulI2C.c ****         if(pCurCmd->Cmd==CfgData->CurrentCmd){
 909              		.loc 1 303 40 discriminator 1
 910 0934 14301BE5 		ldr	r3, [fp, #-20]
 911 0938 003093E5 		ldr	r3, [r3]
 303:/home/hkh/git/eapidk-code-r76-trunk/lib/linux/../EApiEmulI2C.c ****         if(pCurCmd->Cmd==CfgData->CurrentCmd){
 912              		.loc 1 303 45 discriminator 1
 913 093c 010073E3 		cmn	r3, #1
 914 0940 E5FFFF1A 		bne	.L28
 915              	.L19:
 310:/home/hkh/git/eapidk-code-r76-trunk/lib/linux/../EApiEmulI2C.c ****             );
 311:/home/hkh/git/eapidk-code-r76-trunk/lib/linux/../EApiEmulI2C.c ****         }
 312:/home/hkh/git/eapidk-code-r76-trunk/lib/linux/../EApiEmulI2C.c ****       }
 313:/home/hkh/git/eapidk-code-r76-trunk/lib/linux/../EApiEmulI2C.c ****     }
 314:/home/hkh/git/eapidk-code-r76-trunk/lib/linux/../EApiEmulI2C.c ****   }
 315:/home/hkh/git/eapidk-code-r76-trunk/lib/linux/../EApiEmulI2C.c ****   if(ReadBCnt)
 916              		.loc 1 315 5
 917 0944 08309BE5 		ldr	r3, [fp, #8]
 918 0948 000053E3 		cmp	r3, #0
 919 094c 3300000A 		beq	.L29
 316:/home/hkh/git/eapidk-code-r76-trunk/lib/linux/../EApiEmulI2C.c ****   {
 317:/home/hkh/git/eapidk-code-r76-trunk/lib/linux/../EApiEmulI2C.c ****     EAPI_EMUL_DELAY_NS(I2C_EMUL_BYTE_DELAY_NS*ReadBCnt);
 920              		.loc 1 317 5
 921 0950 08209BE5 		ldr	r2, [fp, #8]
 922 0954 903F05E3 		movw	r3, #24464
 923 0958 013040E3 		movt	r3, 1
 924 095c 930203E0 		mul	r3, r3, r2
 925 0960 0300A0E1 		mov	r0, r3
 926 0964 FEFFFFEB 		bl	EApiSleepns(PLT)
 318:/home/hkh/git/eapidk-code-r76-trunk/lib/linux/../EApiEmulI2C.c ****     for(pCurCmd=CfgData->Cmds;pCurCmd->Cmd!=END_OF_LIST_MARK;pCurCmd++){
 927              		.loc 1 318 16
 928 0968 24301BE5 		ldr	r3, [fp, #-36]
 929 096c 103093E5 		ldr	r3, [r3, #16]
 930 0970 14300BE5 		str	r3, [fp, #-20]
 931              		.loc 1 318 5
 932 0974 250000EA 		b	.L30
 933              	.L33:
 319:/home/hkh/git/eapidk-code-r76-trunk/lib/linux/../EApiEmulI2C.c ****       if(pCurCmd->Cmd==CfgData->CurrentCmd){
 934              		.loc 1 319 17
 935 0978 14301BE5 		ldr	r3, [fp, #-20]
 936 097c 002093E5 		ldr	r2, [r3]
 937              		.loc 1 319 31
 938 0980 24301BE5 		ldr	r3, [fp, #-36]
ARM GAS  /tmp/ccJiIEBf.s 			page 25


 939 0984 043093E5 		ldr	r3, [r3, #4]
 940              		.loc 1 319 9
 941 0988 030052E1 		cmp	r2, r3
 942 098c 1C00001A 		bne	.L31
 320:/home/hkh/git/eapidk-code-r76-trunk/lib/linux/../EApiEmulI2C.c ****         ReadBCnt2=pCurCmd->CmdBlockLen;
 943              		.loc 1 320 18
 944 0990 14301BE5 		ldr	r3, [fp, #-20]
 945 0994 043093E5 		ldr	r3, [r3, #4]
 946 0998 10300BE5 		str	r3, [fp, #-16]
 321:/home/hkh/git/eapidk-code-r76-trunk/lib/linux/../EApiEmulI2C.c ****         if(ReadBCnt2<ReadBCnt){
 947              		.loc 1 321 11
 948 099c 10201BE5 		ldr	r2, [fp, #-16]
 949 09a0 08309BE5 		ldr	r3, [fp, #8]
 950 09a4 030052E1 		cmp	r2, r3
 951 09a8 0F00002A 		bcs	.L32
 322:/home/hkh/git/eapidk-code-r76-trunk/lib/linux/../EApiEmulI2C.c ****           memcpy(pRBuffer, pCurCmd->pBuffer, ReadBCnt2);
 952              		.loc 1 322 35
 953 09ac 14301BE5 		ldr	r3, [fp, #-20]
 954 09b0 083093E5 		ldr	r3, [r3, #8]
 955              		.loc 1 322 11
 956 09b4 10201BE5 		ldr	r2, [fp, #-16]
 957 09b8 0310A0E1 		mov	r1, r3
 958 09bc 04009BE5 		ldr	r0, [fp, #4]
 959 09c0 FEFFFFEB 		bl	memcpy(PLT)
 323:/home/hkh/git/eapidk-code-r76-trunk/lib/linux/../EApiEmulI2C.c ****           memset(pRBuffer+ReadBCnt2, ReadBCnt-ReadBCnt2, 0xFF);
 960              		.loc 1 323 26
 961 09c4 04209BE5 		ldr	r2, [fp, #4]
 962 09c8 10301BE5 		ldr	r3, [fp, #-16]
 963 09cc 030082E0 		add	r0, r2, r3
 964              		.loc 1 323 46
 965 09d0 08209BE5 		ldr	r2, [fp, #8]
 966 09d4 10301BE5 		ldr	r3, [fp, #-16]
 967 09d8 033042E0 		sub	r3, r2, r3
 968              		.loc 1 323 11
 969 09dc FF20A0E3 		mov	r2, #255
 970 09e0 0310A0E1 		mov	r1, r3
 971 09e4 FEFFFFEB 		bl	memset(PLT)
 972 09e8 050000EA 		b	.L31
 973              	.L32:
 324:/home/hkh/git/eapidk-code-r76-trunk/lib/linux/../EApiEmulI2C.c ****         }else{
 325:/home/hkh/git/eapidk-code-r76-trunk/lib/linux/../EApiEmulI2C.c ****           memcpy(pRBuffer, pCurCmd->pBuffer, ReadBCnt);
 974              		.loc 1 325 35
 975 09ec 14301BE5 		ldr	r3, [fp, #-20]
 976 09f0 083093E5 		ldr	r3, [r3, #8]
 977              		.loc 1 325 11
 978 09f4 08209BE5 		ldr	r2, [fp, #8]
 979 09f8 0310A0E1 		mov	r1, r3
 980 09fc 04009BE5 		ldr	r0, [fp, #4]
 981 0a00 FEFFFFEB 		bl	memcpy(PLT)
 982              	.L31:
 318:/home/hkh/git/eapidk-code-r76-trunk/lib/linux/../EApiEmulI2C.c ****       if(pCurCmd->Cmd==CfgData->CurrentCmd){
 983              		.loc 1 318 69 discriminator 2
 984 0a04 14301BE5 		ldr	r3, [fp, #-20]
 985 0a08 0C3083E2 		add	r3, r3, #12
 986 0a0c 14300BE5 		str	r3, [fp, #-20]
 987              	.L30:
 318:/home/hkh/git/eapidk-code-r76-trunk/lib/linux/../EApiEmulI2C.c ****       if(pCurCmd->Cmd==CfgData->CurrentCmd){
ARM GAS  /tmp/ccJiIEBf.s 			page 26


 988              		.loc 1 318 38 discriminator 1
 989 0a10 14301BE5 		ldr	r3, [fp, #-20]
 990 0a14 003093E5 		ldr	r3, [r3]
 318:/home/hkh/git/eapidk-code-r76-trunk/lib/linux/../EApiEmulI2C.c ****       if(pCurCmd->Cmd==CfgData->CurrentCmd){
 991              		.loc 1 318 43 discriminator 1
 992 0a18 010073E3 		cmn	r3, #1
 993 0a1c D5FFFF1A 		bne	.L33
 994              	.L29:
 326:/home/hkh/git/eapidk-code-r76-trunk/lib/linux/../EApiEmulI2C.c ****         }
 327:/home/hkh/git/eapidk-code-r76-trunk/lib/linux/../EApiEmulI2C.c ****       }
 328:/home/hkh/git/eapidk-code-r76-trunk/lib/linux/../EApiEmulI2C.c ****     }
 329:/home/hkh/git/eapidk-code-r76-trunk/lib/linux/../EApiEmulI2C.c ****   }
 330:/home/hkh/git/eapidk-code-r76-trunk/lib/linux/../EApiEmulI2C.c ****   EAPI_LIB_RETURN_SUCCESS(EmulateEepromFS, "");
 995              		.loc 1 330 3
 996 0a20 70309FE5 		ldr	r3, .L35+32
 997              	.LPIC43:
 998 0a24 03308FE0 		add	r3, pc, r3
 999 0a28 08308DE5 		str	r3, [sp, #8]
 1000 0a2c 68309FE5 		ldr	r3, .L35+36
 1001              	.LPIC44:
 1002 0a30 03308FE0 		add	r3, pc, r3
 1003 0a34 04308DE5 		str	r3, [sp, #4]
 1004 0a38 0030A0E3 		mov	r3, #0
 1005 0a3c 00308DE5 		str	r3, [sp]
 1006 0a40 4A3100E3 		movw	r3, #330
 1007 0a44 54209FE5 		ldr	r2, .L35+40
 1008              	.LPIC45:
 1009 0a48 02208FE0 		add	r2, pc, r2
 1010 0a4c 50109FE5 		ldr	r1, .L35+44
 1011              	.LPIC46:
 1012 0a50 01108FE0 		add	r1, pc, r1
 1013 0a54 4C00A0E3 		mov	r0, #76
 1014 0a58 FEFFFFEB 		bl	siFormattedMessage_SC(PLT)
 1015 0a5c 0030A0E3 		mov	r3, #0
 1016 0a60 18300BE5 		str	r3, [fp, #-24]
 1017 0a64 00F020E3 		nop
 1018              	.L25:
 331:/home/hkh/git/eapidk-code-r76-trunk/lib/linux/../EApiEmulI2C.c **** EAPI_LIB_ASSERT_EXIT
 332:/home/hkh/git/eapidk-code-r76-trunk/lib/linux/../EApiEmulI2C.c **** 
 333:/home/hkh/git/eapidk-code-r76-trunk/lib/linux/../EApiEmulI2C.c ****   return StatusCode;
 1019              		.loc 1 333 10
 1020 0a68 18301BE5 		ldr	r3, [fp, #-24]
 334:/home/hkh/git/eapidk-code-r76-trunk/lib/linux/../EApiEmulI2C.c **** }
 1021              		.loc 1 334 1
 1022 0a6c 0300A0E1 		mov	r0, r3
 1023 0a70 08D04BE2 		sub	sp, fp, #8
 1024              		.cfi_def_cfa 13, 12
 1025              		@ sp needed
 1026 0a74 1088BDE8 		pop	{r4, fp, pc}
 1027              	.L36:
 1028              		.align	2
 1029              	.L35:
 1030 0a78 80030000 		.word	StdExt-(.LPIC35+8)
 1031 0a7c 98040000 		.word	.LC16-(.LPIC36+8)
 1032 0a80 74040000 		.word	.LC15-(.LPIC37+8)
 1033 0a84 10030000 		.word	.LC4-(.LPIC38+8)
 1034 0a88 34030000 		.word	.LC6-(.LPIC39+8)
ARM GAS  /tmp/ccJiIEBf.s 			page 27


 1035 0a8c 50030000 		.word	.LC7-(.LPIC40+8)
 1036 0a90 6C020000 		.word	.LC3-(.LPIC41+8)
 1037 0a94 78020000 		.word	.LC4-(.LPIC42+8)
 1038 0a98 E4010000 		.word	.LC14-(.LPIC43+8)
 1039 0a9c 40010000 		.word	.LC7-(.LPIC44+8)
 1040 0aa0 5C000000 		.word	.LC3-(.LPIC45+8)
 1041 0aa4 68000000 		.word	.LC4-(.LPIC46+8)
 1042              		.cfi_endproc
 1043              	.LFE2:
 1045              		.hidden	DIDEEPROM
 1046              		.global	DIDEEPROM
 1047              		.data
 1048              		.align	2
 1051              	DIDEEPROM:
 1052 0000 10       		.byte	16
 1053 0001 4C       		.byte	76
 1054 0002 02       		.byte	2
 1055 0003 00       		.byte	0
 1056 0004 00       		.byte	0
 1057 0005 00       		.byte	0
 1058 0006 0C       		.byte	12
 1059 0007 44       		.byte	68
 1060 0008 45       		.byte	69
 1061 0009 4D       		.byte	77
 1062 000a 56       		.byte	86
 1063 000b 00       		.byte	0
 1064 000c 16       		.byte	22
 1065 000d 00       		.byte	0
 1066 000e 00       		.byte	0
 1067 000f 00       		.byte	0
 1068 0010 1C       		.byte	28
 1069 0011 08       		.byte	8
 1070 0012 00       		.byte	0
 1071 0013 03       		.byte	3
 1072 0014 00       		.byte	0
 1073 0015 14       		.byte	20
 1074 0016 2F       		.byte	47
 1075 0017 2A       		.byte	42
 1076 0018 00       		.byte	0
 1077 0019 80       		.byte	-128
 1078 001a FF       		.byte	-1
 1079 001b 04       		.byte	4
 1080 001c 97       		.byte	-105
 1081 001d 01       		.byte	1
 1082 001e 2F       		.byte	47
 1083 001f 80       		.byte	-128
 1084 0020 6F       		.byte	111
 1085 0021 00       		.byte	0
 1086 0022 FF       		.byte	-1
 1087 0023 03       		.byte	3
 1088 0024 29       		.byte	41
 1089 0025 00       		.byte	0
 1090 0026 00       		.byte	0
 1091 0027 80       		.byte	-128
 1092 0028 02       		.byte	2
 1093 0029 00       		.byte	0
 1094 002a 0C       		.byte	12
ARM GAS  /tmp/ccJiIEBf.s 			page 28


 1095 002b 00       		.byte	0
 1096 002c 0D       		.byte	13
 1097 002d 14       		.byte	20
 1098 002e 50       		.byte	80
 1099 002f FF       		.byte	-1
 1100 0030 04       		.byte	4
 1101 0031 FF       		.byte	-1
 1102 0032 03       		.byte	3
 1103 0033 19       		.byte	25
 1104 0034 03       		.byte	3
 1105 0035 00       		.byte	0
 1106 0036 1E       		.byte	30
 1107 0037 1E       		.byte	30
 1108 0038 07       		.byte	7
 1109 0039 14       		.byte	20
 1110 003a 0D       		.byte	13
 1111 003b 00       		.byte	0
 1112 003c 06       		.byte	6
 1113 003d 0F       		.byte	15
 1114 003e 0F       		.byte	15
 1115 003f 0F       		.byte	15
 1116 0040 64       		.byte	100
 1117 0041 23       		.byte	35
 1118 0042 23       		.byte	35
 1119 0043 0F       		.byte	15
 1120 0044 00       		.byte	0
 1121 0045 0A       		.byte	10
 1122 0046 12       		.byte	18
 1123 0047 00       		.byte	0
 1124 0048 03       		.byte	3
 1125 0049 00       		.byte	0
 1126 004a 00       		.byte	0
 1127 004b 00       		.byte	0
 1128 004c 00       		.byte	0
 1129 004d 00       		.byte	0
 1130 004e 11       		.byte	17
 1131 004f 00       		.byte	0
 1132 0050 BC       		.byte	-68
 1133 0051 00       		.byte	0
 1134 0052 00       		.byte	0
 1135 0053 00       		.byte	0
 1136 0054 00       		.byte	0
 1137 0055 00       		.byte	0
 1138 0056 00       		.byte	0
 1139 0057 00       		.byte	0
 1140 0058 00       		.byte	0
 1141 0059 00       		.byte	0
 1142 005a 00       		.byte	0
 1143 005b 00       		.byte	0
 1144 005c 00       		.byte	0
 1145 005d 00       		.byte	0
 1146 005e 00       		.byte	0
 1147 005f 00       		.byte	0
 1148 0060 00       		.byte	0
 1149 0061 00       		.byte	0
 1150 0062 00       		.byte	0
 1151 0063 00       		.byte	0
ARM GAS  /tmp/ccJiIEBf.s 			page 29


 1152 0064 00       		.byte	0
 1153 0065 00       		.byte	0
 1154 0066 00       		.byte	0
 1155 0067 00       		.byte	0
 1156 0068 00       		.byte	0
 1157 0069 00       		.byte	0
 1158 006a 00       		.byte	0
 1159 006b 00       		.byte	0
 1160 006c 00       		.byte	0
 1161 006d 00       		.byte	0
 1162 006e 00       		.byte	0
 1163 006f 00       		.byte	0
 1164 0070 00       		.byte	0
 1165 0071 00       		.byte	0
 1166 0072 00       		.byte	0
 1167 0073 00       		.byte	0
 1168 0074 00       		.byte	0
 1169 0075 00       		.byte	0
 1170 0076 00       		.byte	0
 1171 0077 00       		.byte	0
 1172 0078 00       		.byte	0
 1173 0079 00       		.byte	0
 1174 007a 00       		.byte	0
 1175 007b 00       		.byte	0
 1176 007c 00       		.byte	0
 1177 007d 00       		.byte	0
 1178 007e 00       		.byte	0
 1179 007f 00       		.byte	0
 1180 0080 00       		.byte	0
 1181 0081 00       		.byte	0
 1182 0082 00       		.byte	0
 1183 0083 00       		.byte	0
 1184 0084 00       		.byte	0
 1185 0085 00       		.byte	0
 1186 0086 00       		.byte	0
 1187 0087 00       		.byte	0
 1188 0088 00       		.byte	0
 1189 0089 00       		.byte	0
 1190 008a 00       		.byte	0
 1191 008b 00       		.byte	0
 1192 008c 00       		.byte	0
 1193 008d 00       		.byte	0
 1194 008e 00       		.byte	0
 1195 008f 00       		.byte	0
 1196 0090 00       		.byte	0
 1197 0091 00       		.byte	0
 1198 0092 00       		.byte	0
 1199 0093 00       		.byte	0
 1200 0094 00       		.byte	0
 1201 0095 00       		.byte	0
 1202 0096 00       		.byte	0
 1203 0097 00       		.byte	0
 1204 0098 00       		.byte	0
 1205 0099 00       		.byte	0
 1206 009a 00       		.byte	0
 1207 009b 00       		.byte	0
 1208 009c 00       		.byte	0
ARM GAS  /tmp/ccJiIEBf.s 			page 30


 1209 009d 00       		.byte	0
 1210 009e 00       		.byte	0
 1211 009f 00       		.byte	0
 1212 00a0 00       		.byte	0
 1213 00a1 00       		.byte	0
 1214 00a2 00       		.byte	0
 1215 00a3 00       		.byte	0
 1216 00a4 00       		.byte	0
 1217 00a5 00       		.byte	0
 1218 00a6 00       		.byte	0
 1219 00a7 00       		.byte	0
 1220 00a8 00       		.byte	0
 1221 00a9 00       		.byte	0
 1222 00aa 00       		.byte	0
 1223 00ab 00       		.byte	0
 1224 00ac 00       		.byte	0
 1225 00ad 00       		.byte	0
 1226 00ae 00       		.byte	0
 1227 00af 00       		.byte	0
 1228 00b0 00       		.byte	0
 1229 00b1 00       		.byte	0
 1230 00b2 00       		.byte	0
 1231 00b3 00       		.byte	0
 1232 00b4 00       		.byte	0
 1233 00b5 00       		.byte	0
 1234 00b6 00       		.byte	0
 1235 00b7 00       		.byte	0
 1236 00b8 00       		.byte	0
 1237 00b9 00       		.byte	0
 1238 00ba 00       		.byte	0
 1239 00bb 00       		.byte	0
 1240 00bc 00       		.byte	0
 1241 00bd 00       		.byte	0
 1242 00be 00       		.byte	0
 1243 00bf 00       		.byte	0
 1244 00c0 00       		.byte	0
 1245 00c1 00       		.byte	0
 1246 00c2 00       		.byte	0
 1247 00c3 00       		.byte	0
 1248 00c4 00       		.byte	0
 1249 00c5 00       		.byte	0
 1250 00c6 00       		.byte	0
 1251 00c7 00       		.byte	0
 1252 00c8 00       		.byte	0
 1253 00c9 00       		.byte	0
 1254 00ca 00       		.byte	0
 1255 00cb 00       		.byte	0
 1256 00cc 00       		.byte	0
 1257 00cd 00       		.byte	0
 1258 00ce 00       		.byte	0
 1259 00cf 00       		.byte	0
 1260 00d0 00       		.byte	0
 1261 00d1 00       		.byte	0
 1262 00d2 00       		.byte	0
 1263 00d3 00       		.byte	0
 1264 00d4 00       		.byte	0
 1265 00d5 00       		.byte	0
ARM GAS  /tmp/ccJiIEBf.s 			page 31


 1266 00d6 00       		.byte	0
 1267 00d7 00       		.byte	0
 1268 00d8 00       		.byte	0
 1269 00d9 00       		.byte	0
 1270 00da 00       		.byte	0
 1271 00db 00       		.byte	0
 1272 00dc 00       		.byte	0
 1273 00dd 00       		.byte	0
 1274 00de 00       		.byte	0
 1275 00df 00       		.byte	0
 1276 00e0 00       		.byte	0
 1277 00e1 00       		.byte	0
 1278 00e2 00       		.byte	0
 1279 00e3 00       		.byte	0
 1280 00e4 00       		.byte	0
 1281 00e5 00       		.byte	0
 1282 00e6 00       		.byte	0
 1283 00e7 00       		.byte	0
 1284 00e8 00       		.byte	0
 1285 00e9 00       		.byte	0
 1286 00ea 00       		.byte	0
 1287 00eb 00       		.byte	0
 1288 00ec 00       		.byte	0
 1289 00ed 00       		.byte	0
 1290 00ee 00       		.byte	0
 1291 00ef 00       		.byte	0
 1292 00f0 00       		.byte	0
 1293 00f1 00       		.byte	0
 1294 00f2 00       		.byte	0
 1295 00f3 00       		.byte	0
 1296 00f4 00       		.byte	0
 1297 00f5 00       		.byte	0
 1298 00f6 00       		.byte	0
 1299 00f7 00       		.byte	0
 1300 00f8 00       		.byte	0
 1301 00f9 00       		.byte	0
 1302 00fa 00       		.byte	0
 1303 00fb 00       		.byte	0
 1304 00fc 00       		.byte	0
 1305 00fd 00       		.byte	0
 1306 00fe 00       		.byte	0
 1307 00ff 00       		.byte	0
 1308 0100 00       		.byte	0
 1309 0101 00       		.byte	0
 1310 0102 00       		.byte	0
 1311 0103 00       		.byte	0
 1312 0104 00       		.byte	0
 1313 0105 00       		.byte	0
 1314 0106 00       		.byte	0
 1315 0107 00       		.byte	0
 1316 0108 00       		.byte	0
 1317 0109 00       		.byte	0
 1318 010a 00       		.byte	0
 1319 010b 00       		.byte	0
 1320 010c 00       		.byte	0
 1321 010d 00       		.byte	0
 1322 010e 00       		.byte	0
ARM GAS  /tmp/ccJiIEBf.s 			page 32


 1323 010f 00       		.byte	0
 1324 0110 00       		.byte	0
 1325 0111 00       		.byte	0
 1326 0112 00       		.byte	0
 1327 0113 00       		.byte	0
 1328 0114 00       		.byte	0
 1329 0115 00       		.byte	0
 1330 0116 00       		.byte	0
 1331 0117 00       		.byte	0
 1332 0118 00       		.byte	0
 1333 0119 00       		.byte	0
 1334 011a 00       		.byte	0
 1335 011b 00       		.byte	0
 1336 011c 00       		.byte	0
 1337 011d 00       		.byte	0
 1338 011e 00       		.byte	0
 1339 011f 00       		.byte	0
 1340 0120 00       		.byte	0
 1341 0121 00       		.byte	0
 1342 0122 00       		.byte	0
 1343 0123 00       		.byte	0
 1344 0124 00       		.byte	0
 1345 0125 00       		.byte	0
 1346 0126 00       		.byte	0
 1347 0127 00       		.byte	0
 1348 0128 00       		.byte	0
 1349 0129 00       		.byte	0
 1350 012a 00       		.byte	0
 1351 012b 00       		.byte	0
 1352 012c 00       		.byte	0
 1353 012d 00       		.byte	0
 1354 012e 00       		.byte	0
 1355 012f 00       		.byte	0
 1356 0130 00       		.byte	0
 1357 0131 00       		.byte	0
 1358 0132 00       		.byte	0
 1359 0133 00       		.byte	0
 1360 0134 00       		.byte	0
 1361 0135 00       		.byte	0
 1362 0136 00       		.byte	0
 1363 0137 00       		.byte	0
 1364 0138 00       		.byte	0
 1365 0139 00       		.byte	0
 1366 013a 00       		.byte	0
 1367 013b 00       		.byte	0
 1368 013c 00       		.byte	0
 1369 013d 00       		.byte	0
 1370 013e 00       		.byte	0
 1371 013f 00       		.byte	0
 1372 0140 00       		.byte	0
 1373 0141 00       		.byte	0
 1374 0142 00       		.byte	0
 1375 0143 00       		.byte	0
 1376 0144 00       		.byte	0
 1377 0145 00       		.byte	0
 1378 0146 00       		.byte	0
 1379 0147 00       		.byte	0
ARM GAS  /tmp/ccJiIEBf.s 			page 33


 1380 0148 00       		.byte	0
 1381 0149 00       		.byte	0
 1382 014a 00       		.byte	0
 1383 014b 00       		.byte	0
 1384 014c 00       		.byte	0
 1385 014d 00       		.byte	0
 1386 014e 00       		.byte	0
 1387 014f 00       		.byte	0
 1388 0150 00       		.byte	0
 1389 0151 00       		.byte	0
 1390 0152 00       		.byte	0
 1391 0153 00       		.byte	0
 1392 0154 00       		.byte	0
 1393 0155 00       		.byte	0
 1394 0156 00       		.byte	0
 1395 0157 00       		.byte	0
 1396 0158 00       		.byte	0
 1397 0159 00       		.byte	0
 1398 015a 00       		.byte	0
 1399 015b 00       		.byte	0
 1400 015c 00       		.byte	0
 1401 015d 00       		.byte	0
 1402 015e 00       		.byte	0
 1403 015f 00       		.byte	0
 1404 0160 00       		.byte	0
 1405 0161 00       		.byte	0
 1406 0162 00       		.byte	0
 1407 0163 00       		.byte	0
 1408 0164 00       		.byte	0
 1409 0165 00       		.byte	0
 1410 0166 00       		.byte	0
 1411 0167 00       		.byte	0
 1412 0168 00       		.byte	0
 1413 0169 00       		.byte	0
 1414 016a 00       		.byte	0
 1415 016b 00       		.byte	0
 1416 016c 00       		.byte	0
 1417 016d 00       		.byte	0
 1418 016e 00       		.byte	0
 1419 016f 00       		.byte	0
 1420 0170 00       		.byte	0
 1421 0171 00       		.byte	0
 1422 0172 00       		.byte	0
 1423 0173 00       		.byte	0
 1424 0174 00       		.byte	0
 1425 0175 00       		.byte	0
 1426 0176 00       		.byte	0
 1427 0177 00       		.byte	0
 1428 0178 00       		.byte	0
 1429 0179 00       		.byte	0
 1430 017a 00       		.byte	0
 1431 017b 00       		.byte	0
 1432 017c 00       		.byte	0
 1433 017d 00       		.byte	0
 1434 017e 00       		.byte	0
 1435 017f 00       		.byte	0
 1436 0180 00       		.byte	0
ARM GAS  /tmp/ccJiIEBf.s 			page 34


 1437 0181 00       		.byte	0
 1438 0182 00       		.byte	0
 1439 0183 00       		.byte	0
 1440 0184 00       		.byte	0
 1441 0185 00       		.byte	0
 1442 0186 00       		.byte	0
 1443 0187 00       		.byte	0
 1444 0188 00       		.byte	0
 1445 0189 00       		.byte	0
 1446 018a 00       		.byte	0
 1447 018b 00       		.byte	0
 1448 018c 00       		.byte	0
 1449 018d 00       		.byte	0
 1450 018e 00       		.byte	0
 1451 018f 00       		.byte	0
 1452 0190 00       		.byte	0
 1453 0191 00       		.byte	0
 1454 0192 00       		.byte	0
 1455 0193 00       		.byte	0
 1456 0194 00       		.byte	0
 1457 0195 00       		.byte	0
 1458 0196 00       		.byte	0
 1459 0197 00       		.byte	0
 1460 0198 00       		.byte	0
 1461 0199 00       		.byte	0
 1462 019a 00       		.byte	0
 1463 019b 00       		.byte	0
 1464 019c 00       		.byte	0
 1465 019d 00       		.byte	0
 1466 019e 00       		.byte	0
 1467 019f 00       		.byte	0
 1468 01a0 00       		.byte	0
 1469 01a1 00       		.byte	0
 1470 01a2 00       		.byte	0
 1471 01a3 00       		.byte	0
 1472 01a4 00       		.byte	0
 1473 01a5 00       		.byte	0
 1474 01a6 00       		.byte	0
 1475 01a7 00       		.byte	0
 1476 01a8 00       		.byte	0
 1477 01a9 00       		.byte	0
 1478 01aa 00       		.byte	0
 1479 01ab 00       		.byte	0
 1480 01ac 00       		.byte	0
 1481 01ad 00       		.byte	0
 1482 01ae 00       		.byte	0
 1483 01af 00       		.byte	0
 1484 01b0 00       		.byte	0
 1485 01b1 00       		.byte	0
 1486 01b2 00       		.byte	0
 1487 01b3 00       		.byte	0
 1488 01b4 00       		.byte	0
 1489 01b5 00       		.byte	0
 1490 01b6 00       		.byte	0
 1491 01b7 00       		.byte	0
 1492 01b8 00       		.byte	0
 1493 01b9 00       		.byte	0
ARM GAS  /tmp/ccJiIEBf.s 			page 35


 1494 01ba 00       		.byte	0
 1495 01bb 00       		.byte	0
 1496 01bc 00       		.byte	0
 1497 01bd 00       		.byte	0
 1498 01be 00       		.byte	0
 1499 01bf 00       		.byte	0
 1500 01c0 00       		.byte	0
 1501 01c1 00       		.byte	0
 1502 01c2 00       		.byte	0
 1503 01c3 00       		.byte	0
 1504 01c4 00       		.byte	0
 1505 01c5 00       		.byte	0
 1506 01c6 00       		.byte	0
 1507 01c7 00       		.byte	0
 1508 01c8 00       		.byte	0
 1509 01c9 00       		.byte	0
 1510 01ca 00       		.byte	0
 1511 01cb 00       		.byte	0
 1512 01cc 00       		.byte	0
 1513 01cd 00       		.byte	0
 1514 01ce 00       		.byte	0
 1515 01cf 00       		.byte	0
 1516 01d0 00       		.byte	0
 1517 01d1 00       		.byte	0
 1518 01d2 00       		.byte	0
 1519 01d3 00       		.byte	0
 1520 01d4 00       		.byte	0
 1521 01d5 00       		.byte	0
 1522 01d6 00       		.byte	0
 1523 01d7 00       		.byte	0
 1524 01d8 00       		.byte	0
 1525 01d9 00       		.byte	0
 1526 01da 00       		.byte	0
 1527 01db 00       		.byte	0
 1528 01dc 00       		.byte	0
 1529 01dd 00       		.byte	0
 1530 01de 00       		.byte	0
 1531 01df 00       		.byte	0
 1532 01e0 00       		.byte	0
 1533 01e1 00       		.byte	0
 1534 01e2 00       		.byte	0
 1535 01e3 00       		.byte	0
 1536 01e4 00       		.byte	0
 1537 01e5 00       		.byte	0
 1538 01e6 00       		.byte	0
 1539 01e7 00       		.byte	0
 1540 01e8 00       		.byte	0
 1541 01e9 00       		.byte	0
 1542 01ea 00       		.byte	0
 1543 01eb 00       		.byte	0
 1544 01ec 00       		.byte	0
 1545 01ed 00       		.byte	0
 1546 01ee 00       		.byte	0
 1547 01ef 00       		.byte	0
 1548 01f0 00       		.byte	0
 1549 01f1 00       		.byte	0
 1550 01f2 00       		.byte	0
ARM GAS  /tmp/ccJiIEBf.s 			page 36


 1551 01f3 00       		.byte	0
 1552 01f4 00       		.byte	0
 1553 01f5 00       		.byte	0
 1554 01f6 00       		.byte	0
 1555 01f7 00       		.byte	0
 1556 01f8 00       		.byte	0
 1557 01f9 00       		.byte	0
 1558 01fa 00       		.byte	0
 1559 01fb 00       		.byte	0
 1560 01fc 00       		.byte	0
 1561 01fd 00       		.byte	0
 1562 01fe 00       		.byte	0
 1563 01ff 00       		.byte	0
 1564              		.section	.rodata
 1565              		.align	2
 1566              	.LC17:
 1567 01d4 4449442E 		.ascii	"DID.EEPROM.EMUL\000"
 1567      45455052 
 1567      4F4D2E45 
 1567      4D554C00 
 1568              		.section	.data.rel.local
 1569              		.align	2
 1572              	DIDEEPromData:
 1573 000c 00020000 		.word	512
 1574 0010 02000000 		.word	2
 1575 0014 00010000 		.word	256
 1576 0018 00000000 		.word	0
 1577 001c 00000000 		.word	DIDEEPROM
 1578 0020 D4010000 		.word	.LC17
 1579 0024 00000000 		.word	0
 1580              		.text
 1581              		.align	2
 1582              		.global	EmulateDIDEeprom
 1583              		.hidden	EmulateDIDEeprom
 1584              		.syntax unified
 1585              		.arm
 1586              		.fpu vfpv3
 1588              	EmulateDIDEeprom:
 1589              	.LFB3:
 335:/home/hkh/git/eapidk-code-r76-trunk/lib/linux/../EApiEmulI2C.c **** #define bin_data DIDEEPROM
 336:/home/hkh/git/eapidk-code-r76-trunk/lib/linux/../EApiEmulI2C.c **** #include "DIDData.h"
 337:/home/hkh/git/eapidk-code-r76-trunk/lib/linux/../EApiEmulI2C.c **** #undef bin_data
 338:/home/hkh/git/eapidk-code-r76-trunk/lib/linux/../EApiEmulI2C.c **** static EepromCfgData_t DIDEEPromData={
 339:/home/hkh/git/eapidk-code-r76-trunk/lib/linux/../EApiEmulI2C.c ****   sizeof(DIDEEPROM),  /* EEPROM Length */
 340:/home/hkh/git/eapidk-code-r76-trunk/lib/linux/../EApiEmulI2C.c ****   EXT_INDEX        ,  /* Ext/Std Index */
 341:/home/hkh/git/eapidk-code-r76-trunk/lib/linux/../EApiEmulI2C.c ****   256              ,  /* Device Page Length */
 342:/home/hkh/git/eapidk-code-r76-trunk/lib/linux/../EApiEmulI2C.c ****   0                ,  /* Current Index Value */
 343:/home/hkh/git/eapidk-code-r76-trunk/lib/linux/../EApiEmulI2C.c ****   DIDEEPROM        ,  /* EEPROM pBuffer Pointer */
 344:/home/hkh/git/eapidk-code-r76-trunk/lib/linux/../EApiEmulI2C.c ****   "DID.EEPROM.EMUL",
 345:/home/hkh/git/eapidk-code-r76-trunk/lib/linux/../EApiEmulI2C.c ****   NULL
 346:/home/hkh/git/eapidk-code-r76-trunk/lib/linux/../EApiEmulI2C.c **** };
 347:/home/hkh/git/eapidk-code-r76-trunk/lib/linux/../EApiEmulI2C.c **** EApiStatus_t 
 348:/home/hkh/git/eapidk-code-r76-trunk/lib/linux/../EApiEmulI2C.c **** EmulateDIDEeprom(
 349:/home/hkh/git/eapidk-code-r76-trunk/lib/linux/../EApiEmulI2C.c ****     __IN uint32_t Arg1      , 
 350:/home/hkh/git/eapidk-code-r76-trunk/lib/linux/../EApiEmulI2C.c ****     __IN void    *pWBuffer  , 
 351:/home/hkh/git/eapidk-code-r76-trunk/lib/linux/../EApiEmulI2C.c ****     __IN uint32_t WriteBCnt , 
 352:/home/hkh/git/eapidk-code-r76-trunk/lib/linux/../EApiEmulI2C.c ****     __OUT void   *pRBuffer  , 
ARM GAS  /tmp/ccJiIEBf.s 			page 37


 353:/home/hkh/git/eapidk-code-r76-trunk/lib/linux/../EApiEmulI2C.c ****     __IN uint32_t ReadBCnt
 354:/home/hkh/git/eapidk-code-r76-trunk/lib/linux/../EApiEmulI2C.c ****     )
 355:/home/hkh/git/eapidk-code-r76-trunk/lib/linux/../EApiEmulI2C.c **** {
 1590              		.loc 1 355 1
 1591              		.cfi_startproc
 1592              		@ args = 4, pretend = 0, frame = 16
 1593              		@ frame_needed = 1, uses_anonymous_args = 0
 1594 0aa8 00482DE9 		push	{fp, lr}
 1595              		.cfi_def_cfa_offset 8
 1596              		.cfi_offset 11, -8
 1597              		.cfi_offset 14, -4
 1598 0aac 04B08DE2 		add	fp, sp, #4
 1599              		.cfi_def_cfa 11, 4
 1600 0ab0 18D04DE2 		sub	sp, sp, #24
 1601 0ab4 08000BE5 		str	r0, [fp, #-8]
 1602 0ab8 0C100BE5 		str	r1, [fp, #-12]
 1603 0abc 10200BE5 		str	r2, [fp, #-16]
 1604 0ac0 14300BE5 		str	r3, [fp, #-20]
 356:/home/hkh/git/eapidk-code-r76-trunk/lib/linux/../EApiEmulI2C.c ****   return EmulateEepromFS(
 1605              		.loc 1 356 10
 1606 0ac4 04309BE5 		ldr	r3, [fp, #4]
 1607 0ac8 04308DE5 		str	r3, [sp, #4]
 1608 0acc 14301BE5 		ldr	r3, [fp, #-20]
 1609 0ad0 00308DE5 		str	r3, [sp]
 1610 0ad4 10301BE5 		ldr	r3, [fp, #-16]
 1611 0ad8 0C201BE5 		ldr	r2, [fp, #-12]
 1612 0adc 18109FE5 		ldr	r1, .L39
 1613              	.LPIC47:
 1614 0ae0 01108FE0 		add	r1, pc, r1
 1615 0ae4 08001BE5 		ldr	r0, [fp, #-8]
 1616 0ae8 FEFFFFEB 		bl	EmulateEepromFS(PLT)
 1617 0aec 0030A0E1 		mov	r3, r0
 357:/home/hkh/git/eapidk-code-r76-trunk/lib/linux/../EApiEmulI2C.c ****       Arg1, 
 358:/home/hkh/git/eapidk-code-r76-trunk/lib/linux/../EApiEmulI2C.c ****       &DIDEEPromData, 
 359:/home/hkh/git/eapidk-code-r76-trunk/lib/linux/../EApiEmulI2C.c ****       pWBuffer, 
 360:/home/hkh/git/eapidk-code-r76-trunk/lib/linux/../EApiEmulI2C.c ****       WriteBCnt, 
 361:/home/hkh/git/eapidk-code-r76-trunk/lib/linux/../EApiEmulI2C.c ****       pRBuffer, 
 362:/home/hkh/git/eapidk-code-r76-trunk/lib/linux/../EApiEmulI2C.c ****       ReadBCnt
 363:/home/hkh/git/eapidk-code-r76-trunk/lib/linux/../EApiEmulI2C.c ****       );
 364:/home/hkh/git/eapidk-code-r76-trunk/lib/linux/../EApiEmulI2C.c **** }
 1618              		.loc 1 364 1
 1619 0af0 0300A0E1 		mov	r0, r3
 1620 0af4 04D04BE2 		sub	sp, fp, #4
 1621              		.cfi_def_cfa 13, 8
 1622              		@ sp needed
 1623 0af8 0088BDE8 		pop	{fp, pc}
 1624              	.L40:
 1625              		.align	2
 1626              	.L39:
 1627 0afc 20000000 		.word	DIDEEPromData-(.LPIC47+8)
 1628              		.cfi_endproc
 1629              	.LFE3:
 1631              		.hidden	UDSEEPROM
 1632              		.global	UDSEEPROM
 1633              		.data
 1634              		.align	2
 1637              	UDSEEPROM:
ARM GAS  /tmp/ccJiIEBf.s 			page 38


 1638 0200 00       		.byte	0
 1639 0201 FF       		.byte	-1
 1640 0202 FF       		.byte	-1
 1641 0203 FF       		.byte	-1
 1642 0204 FF       		.byte	-1
 1643 0205 FF       		.byte	-1
 1644 0206 FF       		.byte	-1
 1645 0207 00       		.byte	0
 1646 0208 04       		.byte	4
 1647 0209 21       		.byte	33
 1648 020a 58       		.byte	88
 1649 020b 59       		.byte	89
 1650 020c 71       		.byte	113
 1651 020d CB       		.byte	-53
 1652 020e A2       		.byte	-94
 1653 020f 04       		.byte	4
 1654 0210 1E       		.byte	30
 1655 0211 11       		.byte	17
 1656 0212 01       		.byte	1
 1657 0213 03       		.byte	3
 1658 0214 80       		.byte	-128
 1659 0215 00       		.byte	0
 1660 0216 00       		.byte	0
 1661 0217 00       		.byte	0
 1662 0218 F6       		.byte	-10
 1663 0219 00       		.byte	0
 1664 021a 00       		.byte	0
 1665 021b 00       		.byte	0
 1666 021c 00       		.byte	0
 1667 021d 00       		.byte	0
 1668 021e 00       		.byte	0
 1669 021f 00       		.byte	0
 1670 0220 00       		.byte	0
 1671 0221 00       		.byte	0
 1672 0222 00       		.byte	0
 1673 0223 AC       		.byte	-84
 1674 0224 00       		.byte	0
 1675 0225 00       		.byte	0
 1676 0226 01       		.byte	1
 1677 0227 01       		.byte	1
 1678 0228 01       		.byte	1
 1679 0229 01       		.byte	1
 1680 022a 01       		.byte	1
 1681 022b 01       		.byte	1
 1682 022c 01       		.byte	1
 1683 022d 01       		.byte	1
 1684 022e 01       		.byte	1
 1685 022f 01       		.byte	1
 1686 0230 01       		.byte	1
 1687 0231 01       		.byte	1
 1688 0232 01       		.byte	1
 1689 0233 01       		.byte	1
 1690 0234 01       		.byte	1
 1691 0235 01       		.byte	1
 1692 0236 80       		.byte	-128
 1693 0237 0C       		.byte	12
 1694 0238 20       		.byte	32
ARM GAS  /tmp/ccJiIEBf.s 			page 39


 1695 0239 00       		.byte	0
 1696 023a 31       		.byte	49
 1697 023b E0       		.byte	-32
 1698 023c 2D       		.byte	45
 1699 023d 10       		.byte	16
 1700 023e 2A       		.byte	42
 1701 023f 80       		.byte	-128
 1702 0240 A2       		.byte	-94
 1703 0241 00       		.byte	0
 1704 0242 00       		.byte	0
 1705 0243 00       		.byte	0
 1706 0244 00       		.byte	0
 1707 0245 00       		.byte	0
 1708 0246 00       		.byte	0
 1709 0247 18       		.byte	24
 1710 0248 00       		.byte	0
 1711 0249 00       		.byte	0
 1712 024a 00       		.byte	0
 1713 024b 00       		.byte	0
 1714 024c 00       		.byte	0
 1715 024d 00       		.byte	0
 1716 024e 00       		.byte	0
 1717 024f 00       		.byte	0
 1718 0250 00       		.byte	0
 1719 0251 00       		.byte	0
 1720 0252 00       		.byte	0
 1721 0253 00       		.byte	0
 1722 0254 00       		.byte	0
 1723 0255 00       		.byte	0
 1724 0256 00       		.byte	0
 1725 0257 00       		.byte	0
 1726 0258 00       		.byte	0
 1727 0259 00       		.byte	0
 1728 025a 00       		.byte	0
 1729 025b 00       		.byte	0
 1730 025c 00       		.byte	0
 1731 025d FE       		.byte	-2
 1732 025e 00       		.byte	0
 1733 025f 4B       		.byte	75
 1734 0260 6F       		.byte	111
 1735 0261 6E       		.byte	110
 1736 0262 74       		.byte	116
 1737 0263 72       		.byte	114
 1738 0264 6F       		.byte	111
 1739 0265 6E       		.byte	110
 1740 0266 5F       		.byte	95
 1741 0267 44       		.byte	68
 1742 0268 45       		.byte	69
 1743 0269 47       		.byte	71
 1744 026a 0A       		.byte	10
 1745 026b 20       		.byte	32
 1746 026c 00       		.byte	0
 1747 026d 00       		.byte	0
 1748 026e 00       		.byte	0
 1749 026f 0F       		.byte	15
 1750 0270 00       		.byte	0
 1751 0271 00       		.byte	0
ARM GAS  /tmp/ccJiIEBf.s 			page 40


 1752 0272 0C       		.byte	12
 1753 0273 00       		.byte	0
 1754 0274 DC       		.byte	-36
 1755 0275 FE       		.byte	-2
 1756 0276 00       		.byte	0
 1757 0277 EC       		.byte	-20
 1758 0278 00       		.byte	0
 1759 0279 00       		.byte	0
 1760 027a 00       		.byte	0
 1761 027b 00       		.byte	0
 1762 027c 00       		.byte	0
 1763 027d 11       		.byte	17
 1764 027e 00       		.byte	0
 1765 027f 57       		.byte	87
 1766 0280 00       		.byte	0
 1767 0281 00       		.byte	0
 1768 0282 00       		.byte	0
 1769 0283 00       		.byte	0
 1770 0284 00       		.byte	0
 1771 0285 00       		.byte	0
 1772 0286 00       		.byte	0
 1773 0287 00       		.byte	0
 1774 0288 00       		.byte	0
 1775 0289 00       		.byte	0
 1776 028a 00       		.byte	0
 1777 028b 00       		.byte	0
 1778 028c 00       		.byte	0
 1779 028d 00       		.byte	0
 1780 028e 00       		.byte	0
 1781 028f 00       		.byte	0
 1782 0290 00       		.byte	0
 1783 0291 00       		.byte	0
 1784 0292 00       		.byte	0
 1785 0293 00       		.byte	0
 1786 0294 00       		.byte	0
 1787 0295 00       		.byte	0
 1788 0296 00       		.byte	0
 1789 0297 00       		.byte	0
 1790 0298 00       		.byte	0
 1791 0299 00       		.byte	0
 1792 029a 00       		.byte	0
 1793 029b 00       		.byte	0
 1794 029c 00       		.byte	0
 1795 029d 00       		.byte	0
 1796 029e 00       		.byte	0
 1797 029f 00       		.byte	0
 1798 02a0 00       		.byte	0
 1799 02a1 00       		.byte	0
 1800 02a2 00       		.byte	0
 1801 02a3 00       		.byte	0
 1802 02a4 00       		.byte	0
 1803 02a5 00       		.byte	0
 1804 02a6 00       		.byte	0
 1805 02a7 00       		.byte	0
 1806 02a8 00       		.byte	0
 1807 02a9 00       		.byte	0
 1808 02aa 00       		.byte	0
ARM GAS  /tmp/ccJiIEBf.s 			page 41


 1809 02ab 00       		.byte	0
 1810 02ac 00       		.byte	0
 1811 02ad 00       		.byte	0
 1812 02ae 00       		.byte	0
 1813 02af 00       		.byte	0
 1814 02b0 00       		.byte	0
 1815 02b1 00       		.byte	0
 1816 02b2 00       		.byte	0
 1817 02b3 00       		.byte	0
 1818 02b4 00       		.byte	0
 1819 02b5 00       		.byte	0
 1820 02b6 00       		.byte	0
 1821 02b7 00       		.byte	0
 1822 02b8 00       		.byte	0
 1823 02b9 00       		.byte	0
 1824 02ba 00       		.byte	0
 1825 02bb 00       		.byte	0
 1826 02bc 00       		.byte	0
 1827 02bd 00       		.byte	0
 1828 02be 00       		.byte	0
 1829 02bf 00       		.byte	0
 1830 02c0 00       		.byte	0
 1831 02c1 00       		.byte	0
 1832 02c2 00       		.byte	0
 1833 02c3 00       		.byte	0
 1834 02c4 00       		.byte	0
 1835 02c5 00       		.byte	0
 1836 02c6 00       		.byte	0
 1837 02c7 00       		.byte	0
 1838 02c8 00       		.byte	0
 1839 02c9 00       		.byte	0
 1840 02ca 00       		.byte	0
 1841 02cb 00       		.byte	0
 1842 02cc 00       		.byte	0
 1843 02cd 00       		.byte	0
 1844 02ce 00       		.byte	0
 1845 02cf 00       		.byte	0
 1846 02d0 00       		.byte	0
 1847 02d1 00       		.byte	0
 1848 02d2 00       		.byte	0
 1849 02d3 00       		.byte	0
 1850 02d4 00       		.byte	0
 1851 02d5 00       		.byte	0
 1852 02d6 00       		.byte	0
 1853 02d7 00       		.byte	0
 1854 02d8 00       		.byte	0
 1855 02d9 00       		.byte	0
 1856 02da 00       		.byte	0
 1857 02db 00       		.byte	0
 1858 02dc 00       		.byte	0
 1859 02dd 00       		.byte	0
 1860 02de 00       		.byte	0
 1861 02df 00       		.byte	0
 1862 02e0 00       		.byte	0
 1863 02e1 00       		.byte	0
 1864 02e2 00       		.byte	0
 1865 02e3 00       		.byte	0
ARM GAS  /tmp/ccJiIEBf.s 			page 42


 1866 02e4 00       		.byte	0
 1867 02e5 00       		.byte	0
 1868 02e6 00       		.byte	0
 1869 02e7 00       		.byte	0
 1870 02e8 00       		.byte	0
 1871 02e9 00       		.byte	0
 1872 02ea 00       		.byte	0
 1873 02eb 00       		.byte	0
 1874 02ec 00       		.byte	0
 1875 02ed 00       		.byte	0
 1876 02ee 00       		.byte	0
 1877 02ef 00       		.byte	0
 1878 02f0 00       		.byte	0
 1879 02f1 00       		.byte	0
 1880 02f2 00       		.byte	0
 1881 02f3 00       		.byte	0
 1882 02f4 00       		.byte	0
 1883 02f5 00       		.byte	0
 1884 02f6 00       		.byte	0
 1885 02f7 00       		.byte	0
 1886 02f8 00       		.byte	0
 1887 02f9 00       		.byte	0
 1888 02fa 00       		.byte	0
 1889 02fb 00       		.byte	0
 1890 02fc 00       		.byte	0
 1891 02fd 00       		.byte	0
 1892 02fe 00       		.byte	0
 1893 02ff 00       		.byte	0
 1894 0300 00       		.byte	0
 1895 0301 00       		.byte	0
 1896 0302 00       		.byte	0
 1897 0303 00       		.byte	0
 1898 0304 00       		.byte	0
 1899 0305 00       		.byte	0
 1900 0306 00       		.byte	0
 1901 0307 00       		.byte	0
 1902 0308 00       		.byte	0
 1903 0309 00       		.byte	0
 1904 030a 00       		.byte	0
 1905 030b 00       		.byte	0
 1906 030c 00       		.byte	0
 1907 030d 00       		.byte	0
 1908 030e 00       		.byte	0
 1909 030f 00       		.byte	0
 1910 0310 00       		.byte	0
 1911 0311 00       		.byte	0
 1912 0312 00       		.byte	0
 1913 0313 00       		.byte	0
 1914 0314 00       		.byte	0
 1915 0315 00       		.byte	0
 1916 0316 00       		.byte	0
 1917 0317 00       		.byte	0
 1918 0318 00       		.byte	0
 1919 0319 00       		.byte	0
 1920 031a 00       		.byte	0
 1921 031b 00       		.byte	0
 1922 031c 00       		.byte	0
ARM GAS  /tmp/ccJiIEBf.s 			page 43


 1923 031d 00       		.byte	0
 1924 031e 00       		.byte	0
 1925 031f 00       		.byte	0
 1926 0320 00       		.byte	0
 1927 0321 00       		.byte	0
 1928 0322 00       		.byte	0
 1929 0323 00       		.byte	0
 1930 0324 00       		.byte	0
 1931 0325 00       		.byte	0
 1932 0326 00       		.byte	0
 1933 0327 00       		.byte	0
 1934 0328 00       		.byte	0
 1935 0329 00       		.byte	0
 1936 032a 00       		.byte	0
 1937 032b 00       		.byte	0
 1938 032c 00       		.byte	0
 1939 032d 00       		.byte	0
 1940 032e 00       		.byte	0
 1941 032f 00       		.byte	0
 1942 0330 00       		.byte	0
 1943 0331 00       		.byte	0
 1944 0332 00       		.byte	0
 1945 0333 00       		.byte	0
 1946 0334 00       		.byte	0
 1947 0335 00       		.byte	0
 1948 0336 00       		.byte	0
 1949 0337 00       		.byte	0
 1950 0338 00       		.byte	0
 1951 0339 00       		.byte	0
 1952 033a 00       		.byte	0
 1953 033b 00       		.byte	0
 1954 033c 00       		.byte	0
 1955 033d 00       		.byte	0
 1956 033e 00       		.byte	0
 1957 033f 00       		.byte	0
 1958 0340 00       		.byte	0
 1959 0341 00       		.byte	0
 1960 0342 00       		.byte	0
 1961 0343 00       		.byte	0
 1962 0344 00       		.byte	0
 1963 0345 00       		.byte	0
 1964 0346 00       		.byte	0
 1965 0347 00       		.byte	0
 1966 0348 00       		.byte	0
 1967 0349 00       		.byte	0
 1968 034a 00       		.byte	0
 1969 034b 00       		.byte	0
 1970 034c 00       		.byte	0
 1971 034d 00       		.byte	0
 1972 034e 00       		.byte	0
 1973 034f 00       		.byte	0
 1974 0350 00       		.byte	0
 1975 0351 00       		.byte	0
 1976 0352 00       		.byte	0
 1977 0353 00       		.byte	0
 1978 0354 00       		.byte	0
 1979 0355 00       		.byte	0
ARM GAS  /tmp/ccJiIEBf.s 			page 44


 1980 0356 00       		.byte	0
 1981 0357 00       		.byte	0
 1982 0358 00       		.byte	0
 1983 0359 00       		.byte	0
 1984 035a 00       		.byte	0
 1985 035b 00       		.byte	0
 1986 035c 00       		.byte	0
 1987 035d 00       		.byte	0
 1988 035e 00       		.byte	0
 1989 035f 00       		.byte	0
 1990 0360 00       		.byte	0
 1991 0361 00       		.byte	0
 1992 0362 00       		.byte	0
 1993 0363 00       		.byte	0
 1994 0364 00       		.byte	0
 1995 0365 00       		.byte	0
 1996 0366 00       		.byte	0
 1997 0367 00       		.byte	0
 1998 0368 00       		.byte	0
 1999 0369 00       		.byte	0
 2000 036a 00       		.byte	0
 2001 036b 00       		.byte	0
 2002 036c 00       		.byte	0
 2003 036d 00       		.byte	0
 2004 036e 00       		.byte	0
 2005 036f 00       		.byte	0
 2006 0370 00       		.byte	0
 2007 0371 00       		.byte	0
 2008 0372 00       		.byte	0
 2009 0373 00       		.byte	0
 2010 0374 00       		.byte	0
 2011 0375 00       		.byte	0
 2012 0376 00       		.byte	0
 2013 0377 00       		.byte	0
 2014 0378 00       		.byte	0
 2015 0379 00       		.byte	0
 2016 037a 00       		.byte	0
 2017 037b 00       		.byte	0
 2018 037c 00       		.byte	0
 2019 037d 00       		.byte	0
 2020 037e 00       		.byte	0
 2021 037f 00       		.byte	0
 2022 0380 00       		.byte	0
 2023 0381 00       		.byte	0
 2024 0382 00       		.byte	0
 2025 0383 00       		.byte	0
 2026 0384 00       		.byte	0
 2027 0385 00       		.byte	0
 2028 0386 00       		.byte	0
 2029 0387 00       		.byte	0
 2030 0388 00       		.byte	0
 2031 0389 00       		.byte	0
 2032 038a 00       		.byte	0
 2033 038b 00       		.byte	0
 2034 038c 00       		.byte	0
 2035 038d 00       		.byte	0
 2036 038e 00       		.byte	0
ARM GAS  /tmp/ccJiIEBf.s 			page 45


 2037 038f 00       		.byte	0
 2038 0390 00       		.byte	0
 2039 0391 00       		.byte	0
 2040 0392 00       		.byte	0
 2041 0393 00       		.byte	0
 2042 0394 00       		.byte	0
 2043 0395 00       		.byte	0
 2044 0396 00       		.byte	0
 2045 0397 00       		.byte	0
 2046 0398 00       		.byte	0
 2047 0399 00       		.byte	0
 2048 039a 00       		.byte	0
 2049 039b 00       		.byte	0
 2050 039c 00       		.byte	0
 2051 039d 00       		.byte	0
 2052 039e 00       		.byte	0
 2053 039f 00       		.byte	0
 2054 03a0 00       		.byte	0
 2055 03a1 00       		.byte	0
 2056 03a2 00       		.byte	0
 2057 03a3 00       		.byte	0
 2058 03a4 00       		.byte	0
 2059 03a5 00       		.byte	0
 2060 03a6 00       		.byte	0
 2061 03a7 00       		.byte	0
 2062 03a8 00       		.byte	0
 2063 03a9 00       		.byte	0
 2064 03aa 00       		.byte	0
 2065 03ab 00       		.byte	0
 2066 03ac 00       		.byte	0
 2067 03ad 00       		.byte	0
 2068 03ae 00       		.byte	0
 2069 03af 00       		.byte	0
 2070 03b0 00       		.byte	0
 2071 03b1 00       		.byte	0
 2072 03b2 00       		.byte	0
 2073 03b3 00       		.byte	0
 2074 03b4 00       		.byte	0
 2075 03b5 00       		.byte	0
 2076 03b6 00       		.byte	0
 2077 03b7 00       		.byte	0
 2078 03b8 00       		.byte	0
 2079 03b9 00       		.byte	0
 2080 03ba 00       		.byte	0
 2081 03bb 00       		.byte	0
 2082 03bc 00       		.byte	0
 2083 03bd 00       		.byte	0
 2084 03be 00       		.byte	0
 2085 03bf 00       		.byte	0
 2086 03c0 00       		.byte	0
 2087 03c1 00       		.byte	0
 2088 03c2 00       		.byte	0
 2089 03c3 00       		.byte	0
 2090 03c4 00       		.byte	0
 2091 03c5 00       		.byte	0
 2092 03c6 00       		.byte	0
 2093 03c7 00       		.byte	0
ARM GAS  /tmp/ccJiIEBf.s 			page 46


 2094 03c8 00       		.byte	0
 2095 03c9 00       		.byte	0
 2096 03ca 00       		.byte	0
 2097 03cb 00       		.byte	0
 2098 03cc 00       		.byte	0
 2099 03cd 00       		.byte	0
 2100 03ce 00       		.byte	0
 2101 03cf 00       		.byte	0
 2102 03d0 00       		.byte	0
 2103 03d1 00       		.byte	0
 2104 03d2 00       		.byte	0
 2105 03d3 00       		.byte	0
 2106 03d4 00       		.byte	0
 2107 03d5 00       		.byte	0
 2108 03d6 00       		.byte	0
 2109 03d7 00       		.byte	0
 2110 03d8 00       		.byte	0
 2111 03d9 00       		.byte	0
 2112 03da 00       		.byte	0
 2113 03db 00       		.byte	0
 2114 03dc 00       		.byte	0
 2115 03dd 00       		.byte	0
 2116 03de 00       		.byte	0
 2117 03df 00       		.byte	0
 2118 03e0 00       		.byte	0
 2119 03e1 00       		.byte	0
 2120 03e2 00       		.byte	0
 2121 03e3 00       		.byte	0
 2122 03e4 00       		.byte	0
 2123 03e5 00       		.byte	0
 2124 03e6 00       		.byte	0
 2125 03e7 00       		.byte	0
 2126 03e8 00       		.byte	0
 2127 03e9 00       		.byte	0
 2128 03ea 00       		.byte	0
 2129 03eb 00       		.byte	0
 2130 03ec 00       		.byte	0
 2131 03ed 00       		.byte	0
 2132 03ee 00       		.byte	0
 2133 03ef 00       		.byte	0
 2134 03f0 00       		.byte	0
 2135 03f1 00       		.byte	0
 2136 03f2 00       		.byte	0
 2137 03f3 00       		.byte	0
 2138 03f4 00       		.byte	0
 2139 03f5 00       		.byte	0
 2140 03f6 00       		.byte	0
 2141 03f7 00       		.byte	0
 2142 03f8 00       		.byte	0
 2143 03f9 00       		.byte	0
 2144 03fa 00       		.byte	0
 2145 03fb 00       		.byte	0
 2146 03fc 00       		.byte	0
 2147 03fd 00       		.byte	0
 2148 03fe 00       		.byte	0
 2149 03ff 00       		.byte	0
 2150              		.section	.rodata
ARM GAS  /tmp/ccJiIEBf.s 			page 47


 2151              		.align	2
 2152              	.LC18:
 2153 01e4 5544532E 		.ascii	"UDS.EEPROM.EMUL\000"
 2153      45455052 
 2153      4F4D2E45 
 2153      4D554C00 
 2154              		.section	.data.rel.local
 2155              		.align	2
 2158              	UDSEEPromData:
 2159 0028 00020000 		.word	512
 2160 002c 02000000 		.word	2
 2161 0030 10000000 		.word	16
 2162 0034 00000000 		.word	0
 2163 0038 00000000 		.word	UDSEEPROM
 2164 003c E4010000 		.word	.LC18
 2165 0040 00000000 		.word	0
 2166              		.text
 2167              		.align	2
 2168              		.global	EmulateUDSEeprom
 2169              		.hidden	EmulateUDSEeprom
 2170              		.syntax unified
 2171              		.arm
 2172              		.fpu vfpv3
 2174              	EmulateUDSEeprom:
 2175              	.LFB4:
 365:/home/hkh/git/eapidk-code-r76-trunk/lib/linux/../EApiEmulI2C.c **** #define bin_data UDSEEPROM
 366:/home/hkh/git/eapidk-code-r76-trunk/lib/linux/../EApiEmulI2C.c **** #include "UDSData.h"
 367:/home/hkh/git/eapidk-code-r76-trunk/lib/linux/../EApiEmulI2C.c **** #undef bin_data
 368:/home/hkh/git/eapidk-code-r76-trunk/lib/linux/../EApiEmulI2C.c **** static EepromCfgData_t UDSEEPromData={
 369:/home/hkh/git/eapidk-code-r76-trunk/lib/linux/../EApiEmulI2C.c ****   sizeof(UDSEEPROM),  /* EEPROM Length */
 370:/home/hkh/git/eapidk-code-r76-trunk/lib/linux/../EApiEmulI2C.c ****   EXT_INDEX        ,  /* Ext/Std Index */
 371:/home/hkh/git/eapidk-code-r76-trunk/lib/linux/../EApiEmulI2C.c ****   16               ,  /* Device Page Length */
 372:/home/hkh/git/eapidk-code-r76-trunk/lib/linux/../EApiEmulI2C.c ****   0                ,  /* Current Index Value */
 373:/home/hkh/git/eapidk-code-r76-trunk/lib/linux/../EApiEmulI2C.c ****   UDSEEPROM        ,  /* EEPROM pBuffer Pointer */
 374:/home/hkh/git/eapidk-code-r76-trunk/lib/linux/../EApiEmulI2C.c ****   "UDS.EEPROM.EMUL",
 375:/home/hkh/git/eapidk-code-r76-trunk/lib/linux/../EApiEmulI2C.c ****   NULL
 376:/home/hkh/git/eapidk-code-r76-trunk/lib/linux/../EApiEmulI2C.c **** };
 377:/home/hkh/git/eapidk-code-r76-trunk/lib/linux/../EApiEmulI2C.c **** EApiStatus_t 
 378:/home/hkh/git/eapidk-code-r76-trunk/lib/linux/../EApiEmulI2C.c **** EmulateUDSEeprom(
 379:/home/hkh/git/eapidk-code-r76-trunk/lib/linux/../EApiEmulI2C.c ****     __IN uint32_t Arg1      , 
 380:/home/hkh/git/eapidk-code-r76-trunk/lib/linux/../EApiEmulI2C.c ****     __IN void    *pWBuffer  , 
 381:/home/hkh/git/eapidk-code-r76-trunk/lib/linux/../EApiEmulI2C.c ****     __IN uint32_t WriteBCnt , 
 382:/home/hkh/git/eapidk-code-r76-trunk/lib/linux/../EApiEmulI2C.c ****     __OUT void   *pRBuffer  , 
 383:/home/hkh/git/eapidk-code-r76-trunk/lib/linux/../EApiEmulI2C.c ****     __IN uint32_t ReadBCnt
 384:/home/hkh/git/eapidk-code-r76-trunk/lib/linux/../EApiEmulI2C.c ****     )
 385:/home/hkh/git/eapidk-code-r76-trunk/lib/linux/../EApiEmulI2C.c **** {
 2176              		.loc 1 385 1
 2177              		.cfi_startproc
 2178              		@ args = 4, pretend = 0, frame = 16
 2179              		@ frame_needed = 1, uses_anonymous_args = 0
 2180 0b00 00482DE9 		push	{fp, lr}
 2181              		.cfi_def_cfa_offset 8
 2182              		.cfi_offset 11, -8
 2183              		.cfi_offset 14, -4
 2184 0b04 04B08DE2 		add	fp, sp, #4
 2185              		.cfi_def_cfa 11, 4
 2186 0b08 18D04DE2 		sub	sp, sp, #24
ARM GAS  /tmp/ccJiIEBf.s 			page 48


 2187 0b0c 08000BE5 		str	r0, [fp, #-8]
 2188 0b10 0C100BE5 		str	r1, [fp, #-12]
 2189 0b14 10200BE5 		str	r2, [fp, #-16]
 2190 0b18 14300BE5 		str	r3, [fp, #-20]
 386:/home/hkh/git/eapidk-code-r76-trunk/lib/linux/../EApiEmulI2C.c ****   return EmulateEepromFS(
 2191              		.loc 1 386 10
 2192 0b1c 04309BE5 		ldr	r3, [fp, #4]
 2193 0b20 04308DE5 		str	r3, [sp, #4]
 2194 0b24 14301BE5 		ldr	r3, [fp, #-20]
 2195 0b28 00308DE5 		str	r3, [sp]
 2196 0b2c 10301BE5 		ldr	r3, [fp, #-16]
 2197 0b30 0C201BE5 		ldr	r2, [fp, #-12]
 2198 0b34 18109FE5 		ldr	r1, .L43
 2199              	.LPIC48:
 2200 0b38 01108FE0 		add	r1, pc, r1
 2201 0b3c 08001BE5 		ldr	r0, [fp, #-8]
 2202 0b40 FEFFFFEB 		bl	EmulateEepromFS(PLT)
 2203 0b44 0030A0E1 		mov	r3, r0
 387:/home/hkh/git/eapidk-code-r76-trunk/lib/linux/../EApiEmulI2C.c ****       Arg1, 
 388:/home/hkh/git/eapidk-code-r76-trunk/lib/linux/../EApiEmulI2C.c ****       &UDSEEPromData, 
 389:/home/hkh/git/eapidk-code-r76-trunk/lib/linux/../EApiEmulI2C.c ****       pWBuffer, 
 390:/home/hkh/git/eapidk-code-r76-trunk/lib/linux/../EApiEmulI2C.c ****       WriteBCnt, 
 391:/home/hkh/git/eapidk-code-r76-trunk/lib/linux/../EApiEmulI2C.c ****       pRBuffer, 
 392:/home/hkh/git/eapidk-code-r76-trunk/lib/linux/../EApiEmulI2C.c ****       ReadBCnt
 393:/home/hkh/git/eapidk-code-r76-trunk/lib/linux/../EApiEmulI2C.c ****       );
 394:/home/hkh/git/eapidk-code-r76-trunk/lib/linux/../EApiEmulI2C.c **** }
 2204              		.loc 1 394 1
 2205 0b48 0300A0E1 		mov	r0, r3
 2206 0b4c 04D04BE2 		sub	sp, fp, #4
 2207              		.cfi_def_cfa 13, 8
 2208              		@ sp needed
 2209 0b50 0088BDE8 		pop	{fp, pc}
 2210              	.L44:
 2211              		.align	2
 2212              	.L43:
 2213 0b54 3C000000 		.word	UDSEEPromData-(.LPIC48+8)
 2214              		.cfi_endproc
 2215              	.LFE4:
 2217              		.hidden	EPIEEPROM
 2218              		.global	EPIEEPROM
 2219              		.data
 2220              		.align	2
 2223              	EPIEEPROM:
 2224 0400 00       		.byte	0
 2225 0401 FF       		.byte	-1
 2226 0402 FF       		.byte	-1
 2227 0403 FF       		.byte	-1
 2228 0404 FF       		.byte	-1
 2229 0405 FF       		.byte	-1
 2230 0406 FF       		.byte	-1
 2231 0407 00       		.byte	0
 2232 0408 0C       		.byte	12
 2233 0409 F4       		.byte	-12
 2234 040a 04       		.byte	4
 2235 040b 00       		.byte	0
 2236 040c 01       		.byte	1
 2237 040d 00       		.byte	0
ARM GAS  /tmp/ccJiIEBf.s 			page 49


 2238 040e 00       		.byte	0
 2239 040f 00       		.byte	0
 2240 0410 01       		.byte	1
 2241 0411 0F       		.byte	15
 2242 0412 01       		.byte	1
 2243 0413 03       		.byte	3
 2244 0414 80       		.byte	-128
 2245 0415 00       		.byte	0
 2246 0416 00       		.byte	0
 2247 0417 00       		.byte	0
 2248 0418 EE       		.byte	-18
 2249 0419 00       		.byte	0
 2250 041a 00       		.byte	0
 2251 041b 00       		.byte	0
 2252 041c 00       		.byte	0
 2253 041d 00       		.byte	0
 2254 041e 00       		.byte	0
 2255 041f 00       		.byte	0
 2256 0420 00       		.byte	0
 2257 0421 00       		.byte	0
 2258 0422 00       		.byte	0
 2259 0423 AF       		.byte	-81
 2260 0424 C0       		.byte	-64
 2261 0425 00       		.byte	0
 2262 0426 45       		.byte	69
 2263 0427 40       		.byte	64
 2264 0428 01       		.byte	1
 2265 0429 01       		.byte	1
 2266 042a 01       		.byte	1
 2267 042b 01       		.byte	1
 2268 042c 01       		.byte	1
 2269 042d 01       		.byte	1
 2270 042e 01       		.byte	1
 2271 042f 01       		.byte	1
 2272 0430 01       		.byte	1
 2273 0431 01       		.byte	1
 2274 0432 01       		.byte	1
 2275 0433 01       		.byte	1
 2276 0434 01       		.byte	1
 2277 0435 01       		.byte	1
 2278 0436 A0       		.byte	-96
 2279 0437 0F       		.byte	15
 2280 0438 20       		.byte	32
 2281 0439 E0       		.byte	-32
 2282 043a 30       		.byte	48
 2283 043b 58       		.byte	88
 2284 043c 19       		.byte	25
 2285 043d 20       		.byte	32
 2286 043e 18       		.byte	24
 2287 043f 48       		.byte	72
 2288 0440 12       		.byte	18
 2289 0441 00       		.byte	0
 2290 0442 00       		.byte	0
 2291 0443 00       		.byte	0
 2292 0444 00       		.byte	0
 2293 0445 00       		.byte	0
 2294 0446 00       		.byte	0
ARM GAS  /tmp/ccJiIEBf.s 			page 50


 2295 0447 18       		.byte	24
 2296 0448 00       		.byte	0
 2297 0449 00       		.byte	0
 2298 044a 00       		.byte	0
 2299 044b FD       		.byte	-3
 2300 044c 00       		.byte	0
 2301 044d 32       		.byte	50
 2302 044e 78       		.byte	120
 2303 044f 1E       		.byte	30
 2304 0450 32       		.byte	50
 2305 0451 05       		.byte	5
 2306 0452 00       		.byte	0
 2307 0453 0A       		.byte	10
 2308 0454 20       		.byte	32
 2309 0455 20       		.byte	32
 2310 0456 20       		.byte	32
 2311 0457 20       		.byte	32
 2312 0458 20       		.byte	32
 2313 0459 20       		.byte	32
 2314 045a 00       		.byte	0
 2315 045b 00       		.byte	0
 2316 045c 00       		.byte	0
 2317 045d FE       		.byte	-2
 2318 045e 00       		.byte	0
 2319 045f 63       		.byte	99
 2320 0460 6F       		.byte	111
 2321 0461 6E       		.byte	110
 2322 0462 67       		.byte	103
 2323 0463 61       		.byte	97
 2324 0464 74       		.byte	116
 2325 0465 65       		.byte	101
 2326 0466 63       		.byte	99
 2327 0467 20       		.byte	32
 2328 0468 41       		.byte	65
 2329 0469 47       		.byte	71
 2330 046a 0A       		.byte	10
 2331 046b 0A       		.byte	10
 2332 046c 00       		.byte	0
 2333 046d 00       		.byte	0
 2334 046e 00       		.byte	0
 2335 046f 0E       		.byte	14
 2336 0470 00       		.byte	0
 2337 0471 00       		.byte	0
 2338 0472 00       		.byte	0
 2339 0473 00       		.byte	0
 2340 0474 00       		.byte	0
 2341 0475 00       		.byte	0
 2342 0476 00       		.byte	0
 2343 0477 00       		.byte	0
 2344 0478 00       		.byte	0
 2345 0479 00       		.byte	0
 2346 047a 00       		.byte	0
 2347 047b 00       		.byte	0
 2348 047c 00       		.byte	0
 2349 047d 00       		.byte	0
 2350 047e 00       		.byte	0
 2351 047f B1       		.byte	-79
ARM GAS  /tmp/ccJiIEBf.s 			page 51


 2352 0480 00       		.byte	0
 2353 0481 00       		.byte	0
 2354 0482 00       		.byte	0
 2355 0483 00       		.byte	0
 2356 0484 00       		.byte	0
 2357 0485 00       		.byte	0
 2358 0486 00       		.byte	0
 2359 0487 00       		.byte	0
 2360 0488 00       		.byte	0
 2361 0489 00       		.byte	0
 2362 048a 00       		.byte	0
 2363 048b 00       		.byte	0
 2364 048c 00       		.byte	0
 2365 048d 00       		.byte	0
 2366 048e 00       		.byte	0
 2367 048f 00       		.byte	0
 2368 0490 00       		.byte	0
 2369 0491 00       		.byte	0
 2370 0492 00       		.byte	0
 2371 0493 00       		.byte	0
 2372 0494 00       		.byte	0
 2373 0495 00       		.byte	0
 2374 0496 00       		.byte	0
 2375 0497 00       		.byte	0
 2376 0498 00       		.byte	0
 2377 0499 00       		.byte	0
 2378 049a 00       		.byte	0
 2379 049b 00       		.byte	0
 2380 049c 00       		.byte	0
 2381 049d 00       		.byte	0
 2382 049e 00       		.byte	0
 2383 049f 00       		.byte	0
 2384 04a0 00       		.byte	0
 2385 04a1 00       		.byte	0
 2386 04a2 00       		.byte	0
 2387 04a3 00       		.byte	0
 2388 04a4 00       		.byte	0
 2389 04a5 00       		.byte	0
 2390 04a6 00       		.byte	0
 2391 04a7 00       		.byte	0
 2392 04a8 00       		.byte	0
 2393 04a9 00       		.byte	0
 2394 04aa 00       		.byte	0
 2395 04ab 00       		.byte	0
 2396 04ac 00       		.byte	0
 2397 04ad 00       		.byte	0
 2398 04ae 00       		.byte	0
 2399 04af 00       		.byte	0
 2400 04b0 00       		.byte	0
 2401 04b1 00       		.byte	0
 2402 04b2 00       		.byte	0
 2403 04b3 00       		.byte	0
 2404 04b4 00       		.byte	0
 2405 04b5 00       		.byte	0
 2406 04b6 00       		.byte	0
 2407 04b7 00       		.byte	0
 2408 04b8 00       		.byte	0
ARM GAS  /tmp/ccJiIEBf.s 			page 52


 2409 04b9 00       		.byte	0
 2410 04ba 00       		.byte	0
 2411 04bb 00       		.byte	0
 2412 04bc 00       		.byte	0
 2413 04bd 00       		.byte	0
 2414 04be 00       		.byte	0
 2415 04bf 00       		.byte	0
 2416 04c0 00       		.byte	0
 2417 04c1 00       		.byte	0
 2418 04c2 00       		.byte	0
 2419 04c3 00       		.byte	0
 2420 04c4 00       		.byte	0
 2421 04c5 00       		.byte	0
 2422 04c6 00       		.byte	0
 2423 04c7 00       		.byte	0
 2424 04c8 00       		.byte	0
 2425 04c9 00       		.byte	0
 2426 04ca 00       		.byte	0
 2427 04cb 00       		.byte	0
 2428 04cc 00       		.byte	0
 2429 04cd 00       		.byte	0
 2430 04ce 00       		.byte	0
 2431 04cf 00       		.byte	0
 2432 04d0 00       		.byte	0
 2433 04d1 00       		.byte	0
 2434 04d2 00       		.byte	0
 2435 04d3 00       		.byte	0
 2436 04d4 00       		.byte	0
 2437 04d5 00       		.byte	0
 2438 04d6 00       		.byte	0
 2439 04d7 00       		.byte	0
 2440 04d8 00       		.byte	0
 2441 04d9 00       		.byte	0
 2442 04da 00       		.byte	0
 2443 04db 00       		.byte	0
 2444 04dc 00       		.byte	0
 2445 04dd 00       		.byte	0
 2446 04de 00       		.byte	0
 2447 04df 00       		.byte	0
 2448 04e0 00       		.byte	0
 2449 04e1 00       		.byte	0
 2450 04e2 00       		.byte	0
 2451 04e3 00       		.byte	0
 2452 04e4 00       		.byte	0
 2453 04e5 00       		.byte	0
 2454 04e6 00       		.byte	0
 2455 04e7 00       		.byte	0
 2456 04e8 00       		.byte	0
 2457 04e9 00       		.byte	0
 2458 04ea 00       		.byte	0
 2459 04eb 00       		.byte	0
 2460 04ec 00       		.byte	0
 2461 04ed 00       		.byte	0
 2462 04ee 00       		.byte	0
 2463 04ef 00       		.byte	0
 2464 04f0 00       		.byte	0
 2465 04f1 00       		.byte	0
ARM GAS  /tmp/ccJiIEBf.s 			page 53


 2466 04f2 00       		.byte	0
 2467 04f3 00       		.byte	0
 2468 04f4 00       		.byte	0
 2469 04f5 00       		.byte	0
 2470 04f6 00       		.byte	0
 2471 04f7 00       		.byte	0
 2472 04f8 00       		.byte	0
 2473 04f9 00       		.byte	0
 2474 04fa 00       		.byte	0
 2475 04fb 00       		.byte	0
 2476 04fc 00       		.byte	0
 2477 04fd 00       		.byte	0
 2478 04fe 00       		.byte	0
 2479 04ff 00       		.byte	0
 2480 0500 00       		.byte	0
 2481 0501 00       		.byte	0
 2482 0502 00       		.byte	0
 2483 0503 00       		.byte	0
 2484 0504 00       		.byte	0
 2485 0505 00       		.byte	0
 2486 0506 00       		.byte	0
 2487 0507 00       		.byte	0
 2488 0508 00       		.byte	0
 2489 0509 00       		.byte	0
 2490 050a 00       		.byte	0
 2491 050b 00       		.byte	0
 2492 050c 00       		.byte	0
 2493 050d 00       		.byte	0
 2494 050e 00       		.byte	0
 2495 050f 00       		.byte	0
 2496 0510 00       		.byte	0
 2497 0511 00       		.byte	0
 2498 0512 00       		.byte	0
 2499 0513 00       		.byte	0
 2500 0514 00       		.byte	0
 2501 0515 00       		.byte	0
 2502 0516 00       		.byte	0
 2503 0517 00       		.byte	0
 2504 0518 00       		.byte	0
 2505 0519 00       		.byte	0
 2506 051a 00       		.byte	0
 2507 051b 00       		.byte	0
 2508 051c 00       		.byte	0
 2509 051d 00       		.byte	0
 2510 051e 00       		.byte	0
 2511 051f 00       		.byte	0
 2512 0520 00       		.byte	0
 2513 0521 00       		.byte	0
 2514 0522 00       		.byte	0
 2515 0523 00       		.byte	0
 2516 0524 00       		.byte	0
 2517 0525 00       		.byte	0
 2518 0526 00       		.byte	0
 2519 0527 00       		.byte	0
 2520 0528 00       		.byte	0
 2521 0529 00       		.byte	0
 2522 052a 00       		.byte	0
ARM GAS  /tmp/ccJiIEBf.s 			page 54


 2523 052b 00       		.byte	0
 2524 052c 00       		.byte	0
 2525 052d 00       		.byte	0
 2526 052e 00       		.byte	0
 2527 052f 00       		.byte	0
 2528 0530 00       		.byte	0
 2529 0531 00       		.byte	0
 2530 0532 00       		.byte	0
 2531 0533 00       		.byte	0
 2532 0534 00       		.byte	0
 2533 0535 00       		.byte	0
 2534 0536 00       		.byte	0
 2535 0537 00       		.byte	0
 2536 0538 00       		.byte	0
 2537 0539 00       		.byte	0
 2538 053a 00       		.byte	0
 2539 053b 00       		.byte	0
 2540 053c 00       		.byte	0
 2541 053d 00       		.byte	0
 2542 053e 00       		.byte	0
 2543 053f 00       		.byte	0
 2544 0540 00       		.byte	0
 2545 0541 00       		.byte	0
 2546 0542 00       		.byte	0
 2547 0543 00       		.byte	0
 2548 0544 00       		.byte	0
 2549 0545 00       		.byte	0
 2550 0546 00       		.byte	0
 2551 0547 00       		.byte	0
 2552 0548 00       		.byte	0
 2553 0549 00       		.byte	0
 2554 054a 00       		.byte	0
 2555 054b 00       		.byte	0
 2556 054c 00       		.byte	0
 2557 054d 00       		.byte	0
 2558 054e 00       		.byte	0
 2559 054f 00       		.byte	0
 2560 0550 00       		.byte	0
 2561 0551 00       		.byte	0
 2562 0552 00       		.byte	0
 2563 0553 00       		.byte	0
 2564 0554 00       		.byte	0
 2565 0555 00       		.byte	0
 2566 0556 00       		.byte	0
 2567 0557 00       		.byte	0
 2568 0558 00       		.byte	0
 2569 0559 00       		.byte	0
 2570 055a 00       		.byte	0
 2571 055b 00       		.byte	0
 2572 055c 00       		.byte	0
 2573 055d 00       		.byte	0
 2574 055e 00       		.byte	0
 2575 055f 00       		.byte	0
 2576 0560 00       		.byte	0
 2577 0561 00       		.byte	0
 2578 0562 00       		.byte	0
 2579 0563 00       		.byte	0
ARM GAS  /tmp/ccJiIEBf.s 			page 55


 2580 0564 00       		.byte	0
 2581 0565 00       		.byte	0
 2582 0566 00       		.byte	0
 2583 0567 00       		.byte	0
 2584 0568 00       		.byte	0
 2585 0569 00       		.byte	0
 2586 056a 00       		.byte	0
 2587 056b 00       		.byte	0
 2588 056c 00       		.byte	0
 2589 056d 00       		.byte	0
 2590 056e 00       		.byte	0
 2591 056f 00       		.byte	0
 2592 0570 00       		.byte	0
 2593 0571 00       		.byte	0
 2594 0572 00       		.byte	0
 2595 0573 00       		.byte	0
 2596 0574 00       		.byte	0
 2597 0575 00       		.byte	0
 2598 0576 00       		.byte	0
 2599 0577 00       		.byte	0
 2600 0578 00       		.byte	0
 2601 0579 00       		.byte	0
 2602 057a 00       		.byte	0
 2603 057b 00       		.byte	0
 2604 057c 00       		.byte	0
 2605 057d 00       		.byte	0
 2606 057e 00       		.byte	0
 2607 057f 00       		.byte	0
 2608 0580 00       		.byte	0
 2609 0581 00       		.byte	0
 2610 0582 00       		.byte	0
 2611 0583 00       		.byte	0
 2612 0584 00       		.byte	0
 2613 0585 00       		.byte	0
 2614 0586 00       		.byte	0
 2615 0587 00       		.byte	0
 2616 0588 00       		.byte	0
 2617 0589 00       		.byte	0
 2618 058a 00       		.byte	0
 2619 058b 00       		.byte	0
 2620 058c 00       		.byte	0
 2621 058d 00       		.byte	0
 2622 058e 00       		.byte	0
 2623 058f 00       		.byte	0
 2624 0590 00       		.byte	0
 2625 0591 00       		.byte	0
 2626 0592 00       		.byte	0
 2627 0593 00       		.byte	0
 2628 0594 00       		.byte	0
 2629 0595 00       		.byte	0
 2630 0596 00       		.byte	0
 2631 0597 00       		.byte	0
 2632 0598 00       		.byte	0
 2633 0599 00       		.byte	0
 2634 059a 00       		.byte	0
 2635 059b 00       		.byte	0
 2636 059c 00       		.byte	0
ARM GAS  /tmp/ccJiIEBf.s 			page 56


 2637 059d 00       		.byte	0
 2638 059e 00       		.byte	0
 2639 059f 00       		.byte	0
 2640 05a0 00       		.byte	0
 2641 05a1 00       		.byte	0
 2642 05a2 00       		.byte	0
 2643 05a3 00       		.byte	0
 2644 05a4 00       		.byte	0
 2645 05a5 00       		.byte	0
 2646 05a6 00       		.byte	0
 2647 05a7 00       		.byte	0
 2648 05a8 00       		.byte	0
 2649 05a9 00       		.byte	0
 2650 05aa 00       		.byte	0
 2651 05ab 00       		.byte	0
 2652 05ac 00       		.byte	0
 2653 05ad 00       		.byte	0
 2654 05ae 00       		.byte	0
 2655 05af 00       		.byte	0
 2656 05b0 00       		.byte	0
 2657 05b1 00       		.byte	0
 2658 05b2 00       		.byte	0
 2659 05b3 00       		.byte	0
 2660 05b4 00       		.byte	0
 2661 05b5 00       		.byte	0
 2662 05b6 00       		.byte	0
 2663 05b7 00       		.byte	0
 2664 05b8 00       		.byte	0
 2665 05b9 00       		.byte	0
 2666 05ba 00       		.byte	0
 2667 05bb 00       		.byte	0
 2668 05bc 00       		.byte	0
 2669 05bd 00       		.byte	0
 2670 05be 00       		.byte	0
 2671 05bf 00       		.byte	0
 2672 05c0 00       		.byte	0
 2673 05c1 00       		.byte	0
 2674 05c2 00       		.byte	0
 2675 05c3 00       		.byte	0
 2676 05c4 00       		.byte	0
 2677 05c5 00       		.byte	0
 2678 05c6 00       		.byte	0
 2679 05c7 00       		.byte	0
 2680 05c8 00       		.byte	0
 2681 05c9 00       		.byte	0
 2682 05ca 00       		.byte	0
 2683 05cb 00       		.byte	0
 2684 05cc 00       		.byte	0
 2685 05cd 00       		.byte	0
 2686 05ce 00       		.byte	0
 2687 05cf 00       		.byte	0
 2688 05d0 00       		.byte	0
 2689 05d1 00       		.byte	0
 2690 05d2 00       		.byte	0
 2691 05d3 00       		.byte	0
 2692 05d4 00       		.byte	0
 2693 05d5 00       		.byte	0
ARM GAS  /tmp/ccJiIEBf.s 			page 57


 2694 05d6 00       		.byte	0
 2695 05d7 00       		.byte	0
 2696 05d8 00       		.byte	0
 2697 05d9 00       		.byte	0
 2698 05da 00       		.byte	0
 2699 05db 00       		.byte	0
 2700 05dc 00       		.byte	0
 2701 05dd 00       		.byte	0
 2702 05de 00       		.byte	0
 2703 05df 00       		.byte	0
 2704 05e0 00       		.byte	0
 2705 05e1 00       		.byte	0
 2706 05e2 00       		.byte	0
 2707 05e3 00       		.byte	0
 2708 05e4 00       		.byte	0
 2709 05e5 00       		.byte	0
 2710 05e6 00       		.byte	0
 2711 05e7 00       		.byte	0
 2712 05e8 00       		.byte	0
 2713 05e9 00       		.byte	0
 2714 05ea 00       		.byte	0
 2715 05eb 00       		.byte	0
 2716 05ec 00       		.byte	0
 2717 05ed 00       		.byte	0
 2718 05ee 00       		.byte	0
 2719 05ef 00       		.byte	0
 2720 05f0 00       		.byte	0
 2721 05f1 00       		.byte	0
 2722 05f2 00       		.byte	0
 2723 05f3 00       		.byte	0
 2724 05f4 00       		.byte	0
 2725 05f5 00       		.byte	0
 2726 05f6 00       		.byte	0
 2727 05f7 00       		.byte	0
 2728 05f8 00       		.byte	0
 2729 05f9 00       		.byte	0
 2730 05fa 00       		.byte	0
 2731 05fb 00       		.byte	0
 2732 05fc 00       		.byte	0
 2733 05fd 00       		.byte	0
 2734 05fe 00       		.byte	0
 2735 05ff 00       		.byte	0
 2736              		.section	.rodata
 2737              		.align	2
 2738              	.LC19:
 2739 01f4 4550492E 		.ascii	"EPI.EEPROM.EMUL\000"
 2739      45455052 
 2739      4F4D2E45 
 2739      4D554C00 
 2740              		.section	.data.rel.local
 2741              		.align	2
 2744              	EPIEEPromData:
 2745 0044 00020000 		.word	512
 2746 0048 02000000 		.word	2
 2747 004c 10000000 		.word	16
 2748 0050 00000000 		.word	0
 2749 0054 00000000 		.word	EPIEEPROM
ARM GAS  /tmp/ccJiIEBf.s 			page 58


 2750 0058 F4010000 		.word	.LC19
 2751 005c 00000000 		.word	0
 2752              		.text
 2753              		.align	2
 2754              		.global	EmulateEPIEeprom
 2755              		.hidden	EmulateEPIEeprom
 2756              		.syntax unified
 2757              		.arm
 2758              		.fpu vfpv3
 2760              	EmulateEPIEeprom:
 2761              	.LFB5:
 395:/home/hkh/git/eapidk-code-r76-trunk/lib/linux/../EApiEmulI2C.c **** #define bin_data EPIEEPROM
 396:/home/hkh/git/eapidk-code-r76-trunk/lib/linux/../EApiEmulI2C.c **** #include "EPIData.h"
 397:/home/hkh/git/eapidk-code-r76-trunk/lib/linux/../EApiEmulI2C.c **** #undef bin_data
 398:/home/hkh/git/eapidk-code-r76-trunk/lib/linux/../EApiEmulI2C.c **** static EepromCfgData_t EPIEEPromData={
 399:/home/hkh/git/eapidk-code-r76-trunk/lib/linux/../EApiEmulI2C.c ****   sizeof(EPIEEPROM),  /* EEPROM Length */
 400:/home/hkh/git/eapidk-code-r76-trunk/lib/linux/../EApiEmulI2C.c ****   EXT_INDEX        ,  /* Ext/Std Index */
 401:/home/hkh/git/eapidk-code-r76-trunk/lib/linux/../EApiEmulI2C.c ****   16               ,  /* Device Page Length */
 402:/home/hkh/git/eapidk-code-r76-trunk/lib/linux/../EApiEmulI2C.c ****   0                ,  /* Current Index Value */
 403:/home/hkh/git/eapidk-code-r76-trunk/lib/linux/../EApiEmulI2C.c ****   EPIEEPROM        ,  /* EEPROM pBuffer Pointer */ 
 404:/home/hkh/git/eapidk-code-r76-trunk/lib/linux/../EApiEmulI2C.c ****   "EPI.EEPROM.EMUL",
 405:/home/hkh/git/eapidk-code-r76-trunk/lib/linux/../EApiEmulI2C.c ****   NULL
 406:/home/hkh/git/eapidk-code-r76-trunk/lib/linux/../EApiEmulI2C.c **** };
 407:/home/hkh/git/eapidk-code-r76-trunk/lib/linux/../EApiEmulI2C.c **** 
 408:/home/hkh/git/eapidk-code-r76-trunk/lib/linux/../EApiEmulI2C.c **** EApiStatus_t 
 409:/home/hkh/git/eapidk-code-r76-trunk/lib/linux/../EApiEmulI2C.c **** EmulateEPIEeprom(
 410:/home/hkh/git/eapidk-code-r76-trunk/lib/linux/../EApiEmulI2C.c ****     __IN uint32_t Arg1      , 
 411:/home/hkh/git/eapidk-code-r76-trunk/lib/linux/../EApiEmulI2C.c ****     __IN void    *pWBuffer  , 
 412:/home/hkh/git/eapidk-code-r76-trunk/lib/linux/../EApiEmulI2C.c ****     __IN uint32_t WriteBCnt , 
 413:/home/hkh/git/eapidk-code-r76-trunk/lib/linux/../EApiEmulI2C.c ****     __OUT void   *pRBuffer  , 
 414:/home/hkh/git/eapidk-code-r76-trunk/lib/linux/../EApiEmulI2C.c ****     __IN uint32_t ReadBCnt
 415:/home/hkh/git/eapidk-code-r76-trunk/lib/linux/../EApiEmulI2C.c ****     )
 416:/home/hkh/git/eapidk-code-r76-trunk/lib/linux/../EApiEmulI2C.c **** {
 2762              		.loc 1 416 1
 2763              		.cfi_startproc
 2764              		@ args = 4, pretend = 0, frame = 16
 2765              		@ frame_needed = 1, uses_anonymous_args = 0
 2766 0b58 00482DE9 		push	{fp, lr}
 2767              		.cfi_def_cfa_offset 8
 2768              		.cfi_offset 11, -8
 2769              		.cfi_offset 14, -4
 2770 0b5c 04B08DE2 		add	fp, sp, #4
 2771              		.cfi_def_cfa 11, 4
 2772 0b60 18D04DE2 		sub	sp, sp, #24
 2773 0b64 08000BE5 		str	r0, [fp, #-8]
 2774 0b68 0C100BE5 		str	r1, [fp, #-12]
 2775 0b6c 10200BE5 		str	r2, [fp, #-16]
 2776 0b70 14300BE5 		str	r3, [fp, #-20]
 417:/home/hkh/git/eapidk-code-r76-trunk/lib/linux/../EApiEmulI2C.c ****   return EmulateEepromFS(
 2777              		.loc 1 417 10
 2778 0b74 04309BE5 		ldr	r3, [fp, #4]
 2779 0b78 04308DE5 		str	r3, [sp, #4]
 2780 0b7c 14301BE5 		ldr	r3, [fp, #-20]
 2781 0b80 00308DE5 		str	r3, [sp]
 2782 0b84 10301BE5 		ldr	r3, [fp, #-16]
 2783 0b88 0C201BE5 		ldr	r2, [fp, #-12]
 2784 0b8c 18109FE5 		ldr	r1, .L47
ARM GAS  /tmp/ccJiIEBf.s 			page 59


 2785              	.LPIC49:
 2786 0b90 01108FE0 		add	r1, pc, r1
 2787 0b94 08001BE5 		ldr	r0, [fp, #-8]
 2788 0b98 FEFFFFEB 		bl	EmulateEepromFS(PLT)
 2789 0b9c 0030A0E1 		mov	r3, r0
 418:/home/hkh/git/eapidk-code-r76-trunk/lib/linux/../EApiEmulI2C.c ****       Arg1, 
 419:/home/hkh/git/eapidk-code-r76-trunk/lib/linux/../EApiEmulI2C.c ****       &EPIEEPromData, 
 420:/home/hkh/git/eapidk-code-r76-trunk/lib/linux/../EApiEmulI2C.c ****       pWBuffer, 
 421:/home/hkh/git/eapidk-code-r76-trunk/lib/linux/../EApiEmulI2C.c ****       WriteBCnt, 
 422:/home/hkh/git/eapidk-code-r76-trunk/lib/linux/../EApiEmulI2C.c ****       pRBuffer, 
 423:/home/hkh/git/eapidk-code-r76-trunk/lib/linux/../EApiEmulI2C.c ****       ReadBCnt
 424:/home/hkh/git/eapidk-code-r76-trunk/lib/linux/../EApiEmulI2C.c ****       );
 425:/home/hkh/git/eapidk-code-r76-trunk/lib/linux/../EApiEmulI2C.c **** }
 2790              		.loc 1 425 1
 2791 0ba0 0300A0E1 		mov	r0, r3
 2792 0ba4 04D04BE2 		sub	sp, fp, #4
 2793              		.cfi_def_cfa 13, 8
 2794              		@ sp needed
 2795 0ba8 0088BDE8 		pop	{fp, pc}
 2796              	.L48:
 2797              		.align	2
 2798              	.L47:
 2799 0bac 58000000 		.word	EPIEEPromData-(.LPIC49+8)
 2800              		.cfi_endproc
 2801              	.LFE5:
 2803              		.hidden	COM0MEEPROM
 2804              		.global	COM0MEEPROM
 2805              		.bss
 2806              		.align	2
 2809              	COM0MEEPROM:
 2810 0000 00000000 		.space	2048
 2810      00000000 
 2810      00000000 
 2810      00000000 
 2810      00000000 
 2811              		.section	.rodata
 2812              		.align	2
 2813              	.LC20:
 2814 0204 434F4D30 		.ascii	"COM0R20-M.EEPROM.EMUL\000"
 2814      5232302D 
 2814      4D2E4545 
 2814      50524F4D 
 2814      2E454D55 
 2815              		.section	.data.rel.local
 2816              		.align	2
 2819              	COM0MEEPromData:
 2820 0060 00080000 		.word	2048
 2821 0064 02000000 		.word	2
 2822 0068 10000000 		.word	16
 2823 006c 00000000 		.word	0
 2824 0070 00000000 		.word	COM0MEEPROM
 2825 0074 04020000 		.word	.LC20
 2826 0078 00000000 		.word	0
 2827              		.hidden	COM0CBEEPROM
 2828              		.global	COM0CBEEPROM
 2829              		.bss
 2830              		.align	2
ARM GAS  /tmp/ccJiIEBf.s 			page 60


 2833              	COM0CBEEPROM:
 2834 0800 00000000 		.space	4096
 2834      00000000 
 2834      00000000 
 2834      00000000 
 2834      00000000 
 2835              		.section	.rodata
 2836 021a 0000     		.align	2
 2837              	.LC21:
 2838 021c 434F4D30 		.ascii	"COM0R20-CB.EEPROM.EMUL\000"
 2838      5232302D 
 2838      43422E45 
 2838      4550524F 
 2838      4D2E454D 
 2839              		.section	.data.rel.local
 2840              		.align	2
 2843              	COM0CBEEPromData:
 2844 007c 00100000 		.word	4096
 2845 0080 02000000 		.word	2
 2846 0084 40000000 		.word	64
 2847 0088 00000000 		.word	0
 2848 008c 00000000 		.word	COM0CBEEPROM
 2849 0090 1C020000 		.word	.LC21
 2850 0094 00000000 		.word	0
 2851              		.hidden	EeePExpEEPROM
 2852              		.global	EeePExpEEPROM
 2853              		.bss
 2854              		.align	2
 2857              	EeePExpEEPROM:
 2858 1800 00000000 		.space	1024
 2858      00000000 
 2858      00000000 
 2858      00000000 
 2858      00000000 
 2859              		.section	.rodata
 2860 0233 00       		.align	2
 2861              	.LC22:
 2862 0234 45656550 		.ascii	"EeePExp.EEPROM.EMUL\000"
 2862      4578702E 
 2862      45455052 
 2862      4F4D2E45 
 2862      4D554C00 
 2863              		.section	.data.rel.local
 2864              		.align	2
 2867              	EeePExpEEPromData:
 2868 0098 00040000 		.word	1024
 2869 009c 01000000 		.word	1
 2870 00a0 08000000 		.word	8
 2871 00a4 00000000 		.word	0
 2872 00a8 00000000 		.word	EeePExpEEPROM
 2873 00ac 34020000 		.word	.LC22
 2874 00b0 00000000 		.word	0
 2875              		.hidden	OpenFiles
 2876              		.global	OpenFiles
 2877              		.align	2
 2880              	OpenFiles:
 2881 00b4 98000000 		.word	EeePExpEEPromData
ARM GAS  /tmp/ccJiIEBf.s 			page 61


 2882 00b8 7C000000 		.word	COM0CBEEPromData
 2883 00bc 60000000 		.word	COM0MEEPromData
 2884 00c0 44000000 		.word	EPIEEPromData
 2885 00c4 28000000 		.word	UDSEEPromData
 2886 00c8 0C000000 		.word	DIDEEPromData
 2887              		.section	.rodata
 2888              		.align	2
 2889              	.LC23:
 2890 0248 72622B00 		.ascii	"rb+\000"
 2891              		.align	2
 2892              	.LC24:
 2893 024c 77622B00 		.ascii	"wb+\000"
 2894              		.text
 2895              		.align	2
 2896              		.global	OpenI2CEepromFiles
 2897              		.hidden	OpenI2CEepromFiles
 2898              		.syntax unified
 2899              		.arm
 2900              		.fpu vfpv3
 2902              	OpenI2CEepromFiles:
 2903              	.LFB6:
 426:/home/hkh/git/eapidk-code-r76-trunk/lib/linux/../EApiEmulI2C.c **** /* #define bin_data PICMGEEPROM
 427:/home/hkh/git/eapidk-code-r76-trunk/lib/linux/../EApiEmulI2C.c ****  * #include "EPIData.h"
 428:/home/hkh/git/eapidk-code-r76-trunk/lib/linux/../EApiEmulI2C.c ****  * #undef bin_data
 429:/home/hkh/git/eapidk-code-r76-trunk/lib/linux/../EApiEmulI2C.c ****  */
 430:/home/hkh/git/eapidk-code-r76-trunk/lib/linux/../EApiEmulI2C.c **** uint8_t COM0MEEPROM[2048]={0};
 431:/home/hkh/git/eapidk-code-r76-trunk/lib/linux/../EApiEmulI2C.c **** static EepromCfgData_t COM0MEEPromData={
 432:/home/hkh/git/eapidk-code-r76-trunk/lib/linux/../EApiEmulI2C.c ****   sizeof(COM0MEEPROM),  /* EEPROM Length */
 433:/home/hkh/git/eapidk-code-r76-trunk/lib/linux/../EApiEmulI2C.c ****   EXT_INDEX          ,  /* Ext/Std Index */
 434:/home/hkh/git/eapidk-code-r76-trunk/lib/linux/../EApiEmulI2C.c ****   16                 ,  /* Max Block Write Length */
 435:/home/hkh/git/eapidk-code-r76-trunk/lib/linux/../EApiEmulI2C.c ****   0                  ,  /* Current Index Value */
 436:/home/hkh/git/eapidk-code-r76-trunk/lib/linux/../EApiEmulI2C.c ****   COM0MEEPROM        ,  /* EEPROM pBuffer Pointer */ 
 437:/home/hkh/git/eapidk-code-r76-trunk/lib/linux/../EApiEmulI2C.c ****   "COM0R20-M.EEPROM.EMUL" ,
 438:/home/hkh/git/eapidk-code-r76-trunk/lib/linux/../EApiEmulI2C.c ****   NULL
 439:/home/hkh/git/eapidk-code-r76-trunk/lib/linux/../EApiEmulI2C.c **** };
 440:/home/hkh/git/eapidk-code-r76-trunk/lib/linux/../EApiEmulI2C.c **** uint8_t COM0CBEEPROM[4096]={0};
 441:/home/hkh/git/eapidk-code-r76-trunk/lib/linux/../EApiEmulI2C.c **** static EepromCfgData_t COM0CBEEPromData={
 442:/home/hkh/git/eapidk-code-r76-trunk/lib/linux/../EApiEmulI2C.c ****   sizeof(COM0CBEEPROM), /* EEPROM Length */
 443:/home/hkh/git/eapidk-code-r76-trunk/lib/linux/../EApiEmulI2C.c ****   EXT_INDEX          ,  /* Ext/Std Index */
 444:/home/hkh/git/eapidk-code-r76-trunk/lib/linux/../EApiEmulI2C.c ****   64                 ,  /* Max Block Write Length */
 445:/home/hkh/git/eapidk-code-r76-trunk/lib/linux/../EApiEmulI2C.c ****   0                  ,  /* Current Index Value */
 446:/home/hkh/git/eapidk-code-r76-trunk/lib/linux/../EApiEmulI2C.c ****   COM0CBEEPROM       ,  /* EEPROM pBuffer Pointer */ 
 447:/home/hkh/git/eapidk-code-r76-trunk/lib/linux/../EApiEmulI2C.c ****   "COM0R20-CB.EEPROM.EMUL",
 448:/home/hkh/git/eapidk-code-r76-trunk/lib/linux/../EApiEmulI2C.c ****   NULL
 449:/home/hkh/git/eapidk-code-r76-trunk/lib/linux/../EApiEmulI2C.c **** };
 450:/home/hkh/git/eapidk-code-r76-trunk/lib/linux/../EApiEmulI2C.c **** uint8_t EeePExpEEPROM[1024]={0};
 451:/home/hkh/git/eapidk-code-r76-trunk/lib/linux/../EApiEmulI2C.c **** static EepromCfgData_t EeePExpEEPromData={
 452:/home/hkh/git/eapidk-code-r76-trunk/lib/linux/../EApiEmulI2C.c ****   sizeof(EeePExpEEPROM), /* EEPROM Length */
 453:/home/hkh/git/eapidk-code-r76-trunk/lib/linux/../EApiEmulI2C.c ****   STD_INDEX          ,  /* Ext/Std Index */
 454:/home/hkh/git/eapidk-code-r76-trunk/lib/linux/../EApiEmulI2C.c ****   8                  ,  /* Max Block Write Length */
 455:/home/hkh/git/eapidk-code-r76-trunk/lib/linux/../EApiEmulI2C.c ****   0                  ,  /* Current Index Value */
 456:/home/hkh/git/eapidk-code-r76-trunk/lib/linux/../EApiEmulI2C.c ****   EeePExpEEPROM      ,  /* EEPROM pBuffer Pointer */ 
 457:/home/hkh/git/eapidk-code-r76-trunk/lib/linux/../EApiEmulI2C.c ****   "EeePExp.EEPROM.EMUL",
 458:/home/hkh/git/eapidk-code-r76-trunk/lib/linux/../EApiEmulI2C.c ****   NULL
 459:/home/hkh/git/eapidk-code-r76-trunk/lib/linux/../EApiEmulI2C.c **** };
 460:/home/hkh/git/eapidk-code-r76-trunk/lib/linux/../EApiEmulI2C.c **** EepromCfgData_t *OpenFiles[]={
 461:/home/hkh/git/eapidk-code-r76-trunk/lib/linux/../EApiEmulI2C.c ****   &EeePExpEEPromData,
ARM GAS  /tmp/ccJiIEBf.s 			page 62


 462:/home/hkh/git/eapidk-code-r76-trunk/lib/linux/../EApiEmulI2C.c ****   &COM0CBEEPromData,
 463:/home/hkh/git/eapidk-code-r76-trunk/lib/linux/../EApiEmulI2C.c ****   &COM0MEEPromData,
 464:/home/hkh/git/eapidk-code-r76-trunk/lib/linux/../EApiEmulI2C.c ****   &EPIEEPromData,
 465:/home/hkh/git/eapidk-code-r76-trunk/lib/linux/../EApiEmulI2C.c ****   &UDSEEPromData,
 466:/home/hkh/git/eapidk-code-r76-trunk/lib/linux/../EApiEmulI2C.c ****   &DIDEEPromData,
 467:/home/hkh/git/eapidk-code-r76-trunk/lib/linux/../EApiEmulI2C.c **** };
 468:/home/hkh/git/eapidk-code-r76-trunk/lib/linux/../EApiEmulI2C.c **** 
 469:/home/hkh/git/eapidk-code-r76-trunk/lib/linux/../EApiEmulI2C.c **** 
 470:/home/hkh/git/eapidk-code-r76-trunk/lib/linux/../EApiEmulI2C.c **** EApiStatus_t 
 471:/home/hkh/git/eapidk-code-r76-trunk/lib/linux/../EApiEmulI2C.c **** OpenI2CEepromFiles(void)
 472:/home/hkh/git/eapidk-code-r76-trunk/lib/linux/../EApiEmulI2C.c **** {
 2904              		.loc 1 472 1
 2905              		.cfi_startproc
 2906              		@ args = 0, pretend = 0, frame = 8
 2907              		@ frame_needed = 1, uses_anonymous_args = 0
 2908 0bb0 10482DE9 		push	{r4, fp, lr}
 2909              		.cfi_def_cfa_offset 12
 2910              		.cfi_offset 4, -12
 2911              		.cfi_offset 11, -8
 2912              		.cfi_offset 14, -4
 2913 0bb4 08B08DE2 		add	fp, sp, #8
 2914              		.cfi_def_cfa 11, 4
 2915 0bb8 0CD04DE2 		sub	sp, sp, #12
 473:/home/hkh/git/eapidk-code-r76-trunk/lib/linux/../EApiEmulI2C.c ****   int i;
 474:/home/hkh/git/eapidk-code-r76-trunk/lib/linux/../EApiEmulI2C.c ****   EepromCfgData_t **pOpenFiles=OpenFiles;
 2916              		.loc 1 474 21
 2917 0bbc 54319FE5 		ldr	r3, .L55
 2918              	.LPIC50:
 2919 0bc0 03308FE0 		add	r3, pc, r3
 2920 0bc4 10300BE5 		str	r3, [fp, #-16]
 475:/home/hkh/git/eapidk-code-r76-trunk/lib/linux/../EApiEmulI2C.c ****   for(i=ARRAY_SIZE(OpenFiles); i; i--, pOpenFiles++){
 2921              		.loc 1 475 8
 2922 0bc8 0630A0E3 		mov	r3, #6
 2923 0bcc 14300BE5 		str	r3, [fp, #-20]
 2924              		.loc 1 475 3
 2925 0bd0 490000EA 		b	.L50
 2926              	.L53:
 476:/home/hkh/git/eapidk-code-r76-trunk/lib/linux/../EApiEmulI2C.c ****     (*pOpenFiles)->FStream=fopen((*pOpenFiles)->cszFilename, "rb+");
 2927              		.loc 1 476 35
 2928 0bd4 10301BE5 		ldr	r3, [fp, #-16]
 2929 0bd8 003093E5 		ldr	r3, [r3]
 2930              		.loc 1 476 47
 2931 0bdc 142093E5 		ldr	r2, [r3, #20]
 2932              		.loc 1 476 6
 2933 0be0 10301BE5 		ldr	r3, [fp, #-16]
 2934 0be4 004093E5 		ldr	r4, [r3]
 2935              		.loc 1 476 28
 2936 0be8 2C319FE5 		ldr	r3, .L55+4
 2937              	.LPIC51:
 2938 0bec 03308FE0 		add	r3, pc, r3
 2939 0bf0 0310A0E1 		mov	r1, r3
 2940 0bf4 0200A0E1 		mov	r0, r2
 2941 0bf8 FEFFFFEB 		bl	fopen(PLT)
 2942 0bfc 0030A0E1 		mov	r3, r0
 2943              		.loc 1 476 27
 2944 0c00 183084E5 		str	r3, [r4, #24]
 477:/home/hkh/git/eapidk-code-r76-trunk/lib/linux/../EApiEmulI2C.c ****     if((*pOpenFiles)->FStream==NULL){
ARM GAS  /tmp/ccJiIEBf.s 			page 63


 2945              		.loc 1 477 9
 2946 0c04 10301BE5 		ldr	r3, [fp, #-16]
 2947 0c08 003093E5 		ldr	r3, [r3]
 2948              		.loc 1 477 21
 2949 0c0c 183093E5 		ldr	r3, [r3, #24]
 2950              		.loc 1 477 7
 2951 0c10 000053E3 		cmp	r3, #0
 2952 0c14 0B00001A 		bne	.L51
 478:/home/hkh/git/eapidk-code-r76-trunk/lib/linux/../EApiEmulI2C.c ****       (*pOpenFiles)->FStream=fopen((*pOpenFiles)->cszFilename, "wb+");
 2953              		.loc 1 478 37
 2954 0c18 10301BE5 		ldr	r3, [fp, #-16]
 2955 0c1c 003093E5 		ldr	r3, [r3]
 2956              		.loc 1 478 49
 2957 0c20 142093E5 		ldr	r2, [r3, #20]
 2958              		.loc 1 478 8
 2959 0c24 10301BE5 		ldr	r3, [fp, #-16]
 2960 0c28 004093E5 		ldr	r4, [r3]
 2961              		.loc 1 478 30
 2962 0c2c EC309FE5 		ldr	r3, .L55+8
 2963              	.LPIC52:
 2964 0c30 03308FE0 		add	r3, pc, r3
 2965 0c34 0310A0E1 		mov	r1, r3
 2966 0c38 0200A0E1 		mov	r0, r2
 2967 0c3c FEFFFFEB 		bl	fopen(PLT)
 2968 0c40 0030A0E1 		mov	r3, r0
 2969              		.loc 1 478 29
 2970 0c44 183084E5 		str	r3, [r4, #24]
 2971              	.L51:
 479:/home/hkh/git/eapidk-code-r76-trunk/lib/linux/../EApiEmulI2C.c ****     }
 480:/home/hkh/git/eapidk-code-r76-trunk/lib/linux/../EApiEmulI2C.c ****     if((*pOpenFiles)->FStream!=NULL){
 2972              		.loc 1 480 9
 2973 0c48 10301BE5 		ldr	r3, [fp, #-16]
 2974 0c4c 003093E5 		ldr	r3, [r3]
 2975              		.loc 1 480 21
 2976 0c50 183093E5 		ldr	r3, [r3, #24]
 2977              		.loc 1 480 7
 2978 0c54 000053E3 		cmp	r3, #0
 2979 0c58 2100000A 		beq	.L52
 481:/home/hkh/git/eapidk-code-r76-trunk/lib/linux/../EApiEmulI2C.c ****         fseek((*pOpenFiles)->FStream, 0, SEEK_END);
 2980              		.loc 1 481 16
 2981 0c5c 10301BE5 		ldr	r3, [fp, #-16]
 2982 0c60 003093E5 		ldr	r3, [r3]
 2983              		.loc 1 481 9
 2984 0c64 183093E5 		ldr	r3, [r3, #24]
 2985 0c68 0220A0E3 		mov	r2, #2
 2986 0c6c 0010A0E3 		mov	r1, #0
 2987 0c70 0300A0E1 		mov	r0, r3
 2988 0c74 FEFFFFEB 		bl	fseek(PLT)
 482:/home/hkh/git/eapidk-code-r76-trunk/lib/linux/../EApiEmulI2C.c ****         if(ftell((*pOpenFiles)->FStream)<(signed)(*pOpenFiles)->ByteLen){
 2989              		.loc 1 482 19
 2990 0c78 10301BE5 		ldr	r3, [fp, #-16]
 2991 0c7c 003093E5 		ldr	r3, [r3]
 2992              		.loc 1 482 12
 2993 0c80 183093E5 		ldr	r3, [r3, #24]
 2994 0c84 0300A0E1 		mov	r0, r3
 2995 0c88 FEFFFFEB 		bl	ftell(PLT)
 2996 0c8c 0020A0E1 		mov	r2, r0
ARM GAS  /tmp/ccJiIEBf.s 			page 64


 2997              		.loc 1 482 51
 2998 0c90 10301BE5 		ldr	r3, [fp, #-16]
 2999 0c94 003093E5 		ldr	r3, [r3]
 3000              		.loc 1 482 63
 3001 0c98 003093E5 		ldr	r3, [r3]
 3002              		.loc 1 482 11
 3003 0c9c 030052E1 		cmp	r2, r3
 3004 0ca0 0F0000AA 		bge	.L52
 483:/home/hkh/git/eapidk-code-r76-trunk/lib/linux/../EApiEmulI2C.c ****           rewind((*pOpenFiles)->FStream);
 3005              		.loc 1 483 19
 3006 0ca4 10301BE5 		ldr	r3, [fp, #-16]
 3007 0ca8 003093E5 		ldr	r3, [r3]
 3008              		.loc 1 483 11
 3009 0cac 183093E5 		ldr	r3, [r3, #24]
 3010 0cb0 0300A0E1 		mov	r0, r3
 3011 0cb4 FEFFFFEB 		bl	rewind(PLT)
 484:/home/hkh/git/eapidk-code-r76-trunk/lib/linux/../EApiEmulI2C.c ****           fwrite((*pOpenFiles)->pu8DBuffer, sizeof(uint8_t), (*pOpenFiles)->ByteLen, (*pOpenFiles)-
 3012              		.loc 1 484 19
 3013 0cb8 10301BE5 		ldr	r3, [fp, #-16]
 3014 0cbc 003093E5 		ldr	r3, [r3]
 3015              		.loc 1 484 31
 3016 0cc0 100093E5 		ldr	r0, [r3, #16]
 3017              		.loc 1 484 63
 3018 0cc4 10301BE5 		ldr	r3, [fp, #-16]
 3019 0cc8 003093E5 		ldr	r3, [r3]
 3020              		.loc 1 484 75
 3021 0ccc 002093E5 		ldr	r2, [r3]
 3022              		.loc 1 484 87
 3023 0cd0 10301BE5 		ldr	r3, [fp, #-16]
 3024 0cd4 003093E5 		ldr	r3, [r3]
 3025              		.loc 1 484 11
 3026 0cd8 183093E5 		ldr	r3, [r3, #24]
 3027 0cdc 0110A0E3 		mov	r1, #1
 3028 0ce0 FEFFFFEB 		bl	fwrite(PLT)
 3029              	.L52:
 475:/home/hkh/git/eapidk-code-r76-trunk/lib/linux/../EApiEmulI2C.c ****     (*pOpenFiles)->FStream=fopen((*pOpenFiles)->cszFilename, "rb+");
 3030              		.loc 1 475 36 discriminator 2
 3031 0ce4 14301BE5 		ldr	r3, [fp, #-20]
 3032 0ce8 013043E2 		sub	r3, r3, #1
 3033 0cec 14300BE5 		str	r3, [fp, #-20]
 475:/home/hkh/git/eapidk-code-r76-trunk/lib/linux/../EApiEmulI2C.c ****     (*pOpenFiles)->FStream=fopen((*pOpenFiles)->cszFilename, "rb+");
 3034              		.loc 1 475 50 discriminator 2
 3035 0cf0 10301BE5 		ldr	r3, [fp, #-16]
 3036 0cf4 043083E2 		add	r3, r3, #4
 3037 0cf8 10300BE5 		str	r3, [fp, #-16]
 3038              	.L50:
 475:/home/hkh/git/eapidk-code-r76-trunk/lib/linux/../EApiEmulI2C.c ****     (*pOpenFiles)->FStream=fopen((*pOpenFiles)->cszFilename, "rb+");
 3039              		.loc 1 475 32 discriminator 1
 3040 0cfc 14301BE5 		ldr	r3, [fp, #-20]
 3041 0d00 000053E3 		cmp	r3, #0
 3042 0d04 B2FFFF1A 		bne	.L53
 485:/home/hkh/git/eapidk-code-r76-trunk/lib/linux/../EApiEmulI2C.c ****       }
 486:/home/hkh/git/eapidk-code-r76-trunk/lib/linux/../EApiEmulI2C.c ****     }
 487:/home/hkh/git/eapidk-code-r76-trunk/lib/linux/../EApiEmulI2C.c ****   }
 488:/home/hkh/git/eapidk-code-r76-trunk/lib/linux/../EApiEmulI2C.c ****   return EAPI_STATUS_SUCCESS;
 3043              		.loc 1 488 10
 3044 0d08 0030A0E3 		mov	r3, #0
ARM GAS  /tmp/ccJiIEBf.s 			page 65


 489:/home/hkh/git/eapidk-code-r76-trunk/lib/linux/../EApiEmulI2C.c **** }
 3045              		.loc 1 489 1
 3046 0d0c 0300A0E1 		mov	r0, r3
 3047 0d10 08D04BE2 		sub	sp, fp, #8
 3048              		.cfi_def_cfa 13, 12
 3049              		@ sp needed
 3050 0d14 1088BDE8 		pop	{r4, fp, pc}
 3051              	.L56:
 3052              		.align	2
 3053              	.L55:
 3054 0d18 50010000 		.word	OpenFiles-(.LPIC50+8)
 3055 0d1c 70030000 		.word	.LC23-(.LPIC51+8)
 3056 0d20 34030000 		.word	.LC24-(.LPIC52+8)
 3057              		.cfi_endproc
 3058              	.LFE6:
 3060              		.align	2
 3061              		.global	CloseI2CEepromFiles
 3062              		.hidden	CloseI2CEepromFiles
 3063              		.syntax unified
 3064              		.arm
 3065              		.fpu vfpv3
 3067              	CloseI2CEepromFiles:
 3068              	.LFB7:
 490:/home/hkh/git/eapidk-code-r76-trunk/lib/linux/../EApiEmulI2C.c **** EApiStatus_t 
 491:/home/hkh/git/eapidk-code-r76-trunk/lib/linux/../EApiEmulI2C.c **** CloseI2CEepromFiles(void)
 492:/home/hkh/git/eapidk-code-r76-trunk/lib/linux/../EApiEmulI2C.c **** {
 3069              		.loc 1 492 1
 3070              		.cfi_startproc
 3071              		@ args = 0, pretend = 0, frame = 8
 3072              		@ frame_needed = 1, uses_anonymous_args = 0
 3073 0d24 00482DE9 		push	{fp, lr}
 3074              		.cfi_def_cfa_offset 8
 3075              		.cfi_offset 11, -8
 3076              		.cfi_offset 14, -4
 3077 0d28 04B08DE2 		add	fp, sp, #4
 3078              		.cfi_def_cfa 11, 4
 3079 0d2c 08D04DE2 		sub	sp, sp, #8
 493:/home/hkh/git/eapidk-code-r76-trunk/lib/linux/../EApiEmulI2C.c ****   int i;
 494:/home/hkh/git/eapidk-code-r76-trunk/lib/linux/../EApiEmulI2C.c ****   EepromCfgData_t **pOpenFiles=OpenFiles;
 3080              		.loc 1 494 21
 3081 0d30 7C309FE5 		ldr	r3, .L62
 3082              	.LPIC53:
 3083 0d34 03308FE0 		add	r3, pc, r3
 3084 0d38 08300BE5 		str	r3, [fp, #-8]
 495:/home/hkh/git/eapidk-code-r76-trunk/lib/linux/../EApiEmulI2C.c ****   for(i=ARRAY_SIZE(OpenFiles); i; i--, pOpenFiles++){
 3085              		.loc 1 495 8
 3086 0d3c 0630A0E3 		mov	r3, #6
 3087 0d40 0C300BE5 		str	r3, [fp, #-12]
 3088              		.loc 1 495 3
 3089 0d44 130000EA 		b	.L58
 3090              	.L60:
 496:/home/hkh/git/eapidk-code-r76-trunk/lib/linux/../EApiEmulI2C.c ****     if((*pOpenFiles)->FStream!=NULL){
 3091              		.loc 1 496 9
 3092 0d48 08301BE5 		ldr	r3, [fp, #-8]
 3093 0d4c 003093E5 		ldr	r3, [r3]
 3094              		.loc 1 496 21
 3095 0d50 183093E5 		ldr	r3, [r3, #24]
ARM GAS  /tmp/ccJiIEBf.s 			page 66


 3096              		.loc 1 496 7
 3097 0d54 000053E3 		cmp	r3, #0
 3098 0d58 0800000A 		beq	.L59
 497:/home/hkh/git/eapidk-code-r76-trunk/lib/linux/../EApiEmulI2C.c ****       fclose((*pOpenFiles)->FStream);
 3099              		.loc 1 497 15
 3100 0d5c 08301BE5 		ldr	r3, [fp, #-8]
 3101 0d60 003093E5 		ldr	r3, [r3]
 3102              		.loc 1 497 7
 3103 0d64 183093E5 		ldr	r3, [r3, #24]
 3104 0d68 0300A0E1 		mov	r0, r3
 3105 0d6c FEFFFFEB 		bl	fclose(PLT)
 498:/home/hkh/git/eapidk-code-r76-trunk/lib/linux/../EApiEmulI2C.c ****       (*pOpenFiles)->FStream=NULL;
 3106              		.loc 1 498 8
 3107 0d70 08301BE5 		ldr	r3, [fp, #-8]
 3108 0d74 003093E5 		ldr	r3, [r3]
 3109              		.loc 1 498 29
 3110 0d78 0020A0E3 		mov	r2, #0
 3111 0d7c 182083E5 		str	r2, [r3, #24]
 3112              	.L59:
 495:/home/hkh/git/eapidk-code-r76-trunk/lib/linux/../EApiEmulI2C.c ****     if((*pOpenFiles)->FStream!=NULL){
 3113              		.loc 1 495 36 discriminator 2
 3114 0d80 0C301BE5 		ldr	r3, [fp, #-12]
 3115 0d84 013043E2 		sub	r3, r3, #1
 3116 0d88 0C300BE5 		str	r3, [fp, #-12]
 495:/home/hkh/git/eapidk-code-r76-trunk/lib/linux/../EApiEmulI2C.c ****     if((*pOpenFiles)->FStream!=NULL){
 3117              		.loc 1 495 50 discriminator 2
 3118 0d8c 08301BE5 		ldr	r3, [fp, #-8]
 3119 0d90 043083E2 		add	r3, r3, #4
 3120 0d94 08300BE5 		str	r3, [fp, #-8]
 3121              	.L58:
 495:/home/hkh/git/eapidk-code-r76-trunk/lib/linux/../EApiEmulI2C.c ****     if((*pOpenFiles)->FStream!=NULL){
 3122              		.loc 1 495 32 discriminator 1
 3123 0d98 0C301BE5 		ldr	r3, [fp, #-12]
 3124 0d9c 000053E3 		cmp	r3, #0
 3125 0da0 E8FFFF1A 		bne	.L60
 499:/home/hkh/git/eapidk-code-r76-trunk/lib/linux/../EApiEmulI2C.c ****     }
 500:/home/hkh/git/eapidk-code-r76-trunk/lib/linux/../EApiEmulI2C.c ****   }
 501:/home/hkh/git/eapidk-code-r76-trunk/lib/linux/../EApiEmulI2C.c ****   return EAPI_STATUS_SUCCESS;
 3126              		.loc 1 501 10
 3127 0da4 0030A0E3 		mov	r3, #0
 502:/home/hkh/git/eapidk-code-r76-trunk/lib/linux/../EApiEmulI2C.c **** }
 3128              		.loc 1 502 1
 3129 0da8 0300A0E1 		mov	r0, r3
 3130 0dac 04D04BE2 		sub	sp, fp, #4
 3131              		.cfi_def_cfa 13, 8
 3132              		@ sp needed
 3133 0db0 0088BDE8 		pop	{fp, pc}
 3134              	.L63:
 3135              		.align	2
 3136              	.L62:
 3137 0db4 78000000 		.word	OpenFiles-(.LPIC53+8)
 3138              		.cfi_endproc
 3139              	.LFE7:
 3141              		.align	2
 3142              		.global	EmulateEeePExpEeprom
 3143              		.hidden	EmulateEeePExpEeprom
 3144              		.syntax unified
ARM GAS  /tmp/ccJiIEBf.s 			page 67


 3145              		.arm
 3146              		.fpu vfpv3
 3148              	EmulateEeePExpEeprom:
 3149              	.LFB8:
 503:/home/hkh/git/eapidk-code-r76-trunk/lib/linux/../EApiEmulI2C.c **** 
 504:/home/hkh/git/eapidk-code-r76-trunk/lib/linux/../EApiEmulI2C.c **** EApiStatus_t 
 505:/home/hkh/git/eapidk-code-r76-trunk/lib/linux/../EApiEmulI2C.c **** EmulateEeePExpEeprom(
 506:/home/hkh/git/eapidk-code-r76-trunk/lib/linux/../EApiEmulI2C.c ****     __IN uint32_t Arg1      , 
 507:/home/hkh/git/eapidk-code-r76-trunk/lib/linux/../EApiEmulI2C.c ****     __IN void    *pWBuffer  , 
 508:/home/hkh/git/eapidk-code-r76-trunk/lib/linux/../EApiEmulI2C.c ****     __IN uint32_t WriteBCnt , 
 509:/home/hkh/git/eapidk-code-r76-trunk/lib/linux/../EApiEmulI2C.c ****     __OUT void   *pRBuffer  , 
 510:/home/hkh/git/eapidk-code-r76-trunk/lib/linux/../EApiEmulI2C.c ****     __IN uint32_t ReadBCnt
 511:/home/hkh/git/eapidk-code-r76-trunk/lib/linux/../EApiEmulI2C.c ****     )
 512:/home/hkh/git/eapidk-code-r76-trunk/lib/linux/../EApiEmulI2C.c **** {
 3150              		.loc 1 512 1
 3151              		.cfi_startproc
 3152              		@ args = 4, pretend = 0, frame = 16
 3153              		@ frame_needed = 1, uses_anonymous_args = 0
 3154 0db8 00482DE9 		push	{fp, lr}
 3155              		.cfi_def_cfa_offset 8
 3156              		.cfi_offset 11, -8
 3157              		.cfi_offset 14, -4
 3158 0dbc 04B08DE2 		add	fp, sp, #4
 3159              		.cfi_def_cfa 11, 4
 3160 0dc0 18D04DE2 		sub	sp, sp, #24
 3161 0dc4 08000BE5 		str	r0, [fp, #-8]
 3162 0dc8 0C100BE5 		str	r1, [fp, #-12]
 3163 0dcc 10200BE5 		str	r2, [fp, #-16]
 3164 0dd0 14300BE5 		str	r3, [fp, #-20]
 513:/home/hkh/git/eapidk-code-r76-trunk/lib/linux/../EApiEmulI2C.c ****   return EmulateEepromFS(
 3165              		.loc 1 513 10
 3166 0dd4 04309BE5 		ldr	r3, [fp, #4]
 3167 0dd8 04308DE5 		str	r3, [sp, #4]
 3168 0ddc 14301BE5 		ldr	r3, [fp, #-20]
 3169 0de0 00308DE5 		str	r3, [sp]
 3170 0de4 10301BE5 		ldr	r3, [fp, #-16]
 3171 0de8 0C201BE5 		ldr	r2, [fp, #-12]
 3172 0dec 18109FE5 		ldr	r1, .L66
 3173              	.LPIC54:
 3174 0df0 01108FE0 		add	r1, pc, r1
 3175 0df4 08001BE5 		ldr	r0, [fp, #-8]
 3176 0df8 FEFFFFEB 		bl	EmulateEepromFS(PLT)
 3177 0dfc 0030A0E1 		mov	r3, r0
 514:/home/hkh/git/eapidk-code-r76-trunk/lib/linux/../EApiEmulI2C.c ****       Arg1, 
 515:/home/hkh/git/eapidk-code-r76-trunk/lib/linux/../EApiEmulI2C.c ****       &EeePExpEEPromData, 
 516:/home/hkh/git/eapidk-code-r76-trunk/lib/linux/../EApiEmulI2C.c ****       pWBuffer, 
 517:/home/hkh/git/eapidk-code-r76-trunk/lib/linux/../EApiEmulI2C.c ****       WriteBCnt, 
 518:/home/hkh/git/eapidk-code-r76-trunk/lib/linux/../EApiEmulI2C.c ****       pRBuffer, 
 519:/home/hkh/git/eapidk-code-r76-trunk/lib/linux/../EApiEmulI2C.c ****       ReadBCnt
 520:/home/hkh/git/eapidk-code-r76-trunk/lib/linux/../EApiEmulI2C.c ****       );
 521:/home/hkh/git/eapidk-code-r76-trunk/lib/linux/../EApiEmulI2C.c **** }
 3178              		.loc 1 521 1
 3179 0e00 0300A0E1 		mov	r0, r3
 3180 0e04 04D04BE2 		sub	sp, fp, #4
 3181              		.cfi_def_cfa 13, 8
 3182              		@ sp needed
 3183 0e08 0088BDE8 		pop	{fp, pc}
ARM GAS  /tmp/ccJiIEBf.s 			page 68


 3184              	.L67:
 3185              		.align	2
 3186              	.L66:
 3187 0e0c AC000000 		.word	EeePExpEEPromData-(.LPIC54+8)
 3188              		.cfi_endproc
 3189              	.LFE8:
 3191              		.align	2
 3192              		.global	EmulateCOM0CBEeprom
 3193              		.hidden	EmulateCOM0CBEeprom
 3194              		.syntax unified
 3195              		.arm
 3196              		.fpu vfpv3
 3198              	EmulateCOM0CBEeprom:
 3199              	.LFB9:
 522:/home/hkh/git/eapidk-code-r76-trunk/lib/linux/../EApiEmulI2C.c **** 
 523:/home/hkh/git/eapidk-code-r76-trunk/lib/linux/../EApiEmulI2C.c **** 
 524:/home/hkh/git/eapidk-code-r76-trunk/lib/linux/../EApiEmulI2C.c **** EApiStatus_t 
 525:/home/hkh/git/eapidk-code-r76-trunk/lib/linux/../EApiEmulI2C.c **** EmulateCOM0CBEeprom(
 526:/home/hkh/git/eapidk-code-r76-trunk/lib/linux/../EApiEmulI2C.c ****     __IN uint32_t Arg1      , 
 527:/home/hkh/git/eapidk-code-r76-trunk/lib/linux/../EApiEmulI2C.c ****     __IN void    *pWBuffer  , 
 528:/home/hkh/git/eapidk-code-r76-trunk/lib/linux/../EApiEmulI2C.c ****     __IN uint32_t WriteBCnt , 
 529:/home/hkh/git/eapidk-code-r76-trunk/lib/linux/../EApiEmulI2C.c ****     __OUT void   *pRBuffer  , 
 530:/home/hkh/git/eapidk-code-r76-trunk/lib/linux/../EApiEmulI2C.c ****     __IN uint32_t ReadBCnt
 531:/home/hkh/git/eapidk-code-r76-trunk/lib/linux/../EApiEmulI2C.c ****     )
 532:/home/hkh/git/eapidk-code-r76-trunk/lib/linux/../EApiEmulI2C.c **** {
 3200              		.loc 1 532 1
 3201              		.cfi_startproc
 3202              		@ args = 4, pretend = 0, frame = 16
 3203              		@ frame_needed = 1, uses_anonymous_args = 0
 3204 0e10 00482DE9 		push	{fp, lr}
 3205              		.cfi_def_cfa_offset 8
 3206              		.cfi_offset 11, -8
 3207              		.cfi_offset 14, -4
 3208 0e14 04B08DE2 		add	fp, sp, #4
 3209              		.cfi_def_cfa 11, 4
 3210 0e18 18D04DE2 		sub	sp, sp, #24
 3211 0e1c 08000BE5 		str	r0, [fp, #-8]
 3212 0e20 0C100BE5 		str	r1, [fp, #-12]
 3213 0e24 10200BE5 		str	r2, [fp, #-16]
 3214 0e28 14300BE5 		str	r3, [fp, #-20]
 533:/home/hkh/git/eapidk-code-r76-trunk/lib/linux/../EApiEmulI2C.c ****   return EmulateEepromFS(
 3215              		.loc 1 533 10
 3216 0e2c 04309BE5 		ldr	r3, [fp, #4]
 3217 0e30 04308DE5 		str	r3, [sp, #4]
 3218 0e34 14301BE5 		ldr	r3, [fp, #-20]
 3219 0e38 00308DE5 		str	r3, [sp]
 3220 0e3c 10301BE5 		ldr	r3, [fp, #-16]
 3221 0e40 0C201BE5 		ldr	r2, [fp, #-12]
 3222 0e44 18109FE5 		ldr	r1, .L70
 3223              	.LPIC55:
 3224 0e48 01108FE0 		add	r1, pc, r1
 3225 0e4c 08001BE5 		ldr	r0, [fp, #-8]
 3226 0e50 FEFFFFEB 		bl	EmulateEepromFS(PLT)
 3227 0e54 0030A0E1 		mov	r3, r0
 534:/home/hkh/git/eapidk-code-r76-trunk/lib/linux/../EApiEmulI2C.c ****       Arg1, 
 535:/home/hkh/git/eapidk-code-r76-trunk/lib/linux/../EApiEmulI2C.c ****       &COM0CBEEPromData, 
 536:/home/hkh/git/eapidk-code-r76-trunk/lib/linux/../EApiEmulI2C.c ****       pWBuffer, 
ARM GAS  /tmp/ccJiIEBf.s 			page 69


 537:/home/hkh/git/eapidk-code-r76-trunk/lib/linux/../EApiEmulI2C.c ****       WriteBCnt, 
 538:/home/hkh/git/eapidk-code-r76-trunk/lib/linux/../EApiEmulI2C.c ****       pRBuffer, 
 539:/home/hkh/git/eapidk-code-r76-trunk/lib/linux/../EApiEmulI2C.c ****       ReadBCnt
 540:/home/hkh/git/eapidk-code-r76-trunk/lib/linux/../EApiEmulI2C.c ****       );
 541:/home/hkh/git/eapidk-code-r76-trunk/lib/linux/../EApiEmulI2C.c **** }
 3228              		.loc 1 541 1
 3229 0e58 0300A0E1 		mov	r0, r3
 3230 0e5c 04D04BE2 		sub	sp, fp, #4
 3231              		.cfi_def_cfa 13, 8
 3232              		@ sp needed
 3233 0e60 0088BDE8 		pop	{fp, pc}
 3234              	.L71:
 3235              		.align	2
 3236              	.L70:
 3237 0e64 90000000 		.word	COM0CBEEPromData-(.LPIC55+8)
 3238              		.cfi_endproc
 3239              	.LFE9:
 3241              		.align	2
 3242              		.global	EmulateCOM0MEeprom
 3243              		.hidden	EmulateCOM0MEeprom
 3244              		.syntax unified
 3245              		.arm
 3246              		.fpu vfpv3
 3248              	EmulateCOM0MEeprom:
 3249              	.LFB10:
 542:/home/hkh/git/eapidk-code-r76-trunk/lib/linux/../EApiEmulI2C.c **** 
 543:/home/hkh/git/eapidk-code-r76-trunk/lib/linux/../EApiEmulI2C.c **** EApiStatus_t 
 544:/home/hkh/git/eapidk-code-r76-trunk/lib/linux/../EApiEmulI2C.c **** EmulateCOM0MEeprom(
 545:/home/hkh/git/eapidk-code-r76-trunk/lib/linux/../EApiEmulI2C.c ****     __IN uint32_t Arg1      , 
 546:/home/hkh/git/eapidk-code-r76-trunk/lib/linux/../EApiEmulI2C.c ****     __IN void    *pWBuffer  , 
 547:/home/hkh/git/eapidk-code-r76-trunk/lib/linux/../EApiEmulI2C.c ****     __IN uint32_t WriteBCnt , 
 548:/home/hkh/git/eapidk-code-r76-trunk/lib/linux/../EApiEmulI2C.c ****     __OUT void   *pRBuffer  , 
 549:/home/hkh/git/eapidk-code-r76-trunk/lib/linux/../EApiEmulI2C.c ****     __IN uint32_t ReadBCnt
 550:/home/hkh/git/eapidk-code-r76-trunk/lib/linux/../EApiEmulI2C.c ****     )
 551:/home/hkh/git/eapidk-code-r76-trunk/lib/linux/../EApiEmulI2C.c **** {
 3250              		.loc 1 551 1
 3251              		.cfi_startproc
 3252              		@ args = 4, pretend = 0, frame = 16
 3253              		@ frame_needed = 1, uses_anonymous_args = 0
 3254 0e68 00482DE9 		push	{fp, lr}
 3255              		.cfi_def_cfa_offset 8
 3256              		.cfi_offset 11, -8
 3257              		.cfi_offset 14, -4
 3258 0e6c 04B08DE2 		add	fp, sp, #4
 3259              		.cfi_def_cfa 11, 4
 3260 0e70 18D04DE2 		sub	sp, sp, #24
 3261 0e74 08000BE5 		str	r0, [fp, #-8]
 3262 0e78 0C100BE5 		str	r1, [fp, #-12]
 3263 0e7c 10200BE5 		str	r2, [fp, #-16]
 3264 0e80 14300BE5 		str	r3, [fp, #-20]
 552:/home/hkh/git/eapidk-code-r76-trunk/lib/linux/../EApiEmulI2C.c ****   return EmulateEepromFS(
 3265              		.loc 1 552 10
 3266 0e84 04309BE5 		ldr	r3, [fp, #4]
 3267 0e88 04308DE5 		str	r3, [sp, #4]
 3268 0e8c 14301BE5 		ldr	r3, [fp, #-20]
 3269 0e90 00308DE5 		str	r3, [sp]
 3270 0e94 10301BE5 		ldr	r3, [fp, #-16]
ARM GAS  /tmp/ccJiIEBf.s 			page 70


 3271 0e98 0C201BE5 		ldr	r2, [fp, #-12]
 3272 0e9c 18109FE5 		ldr	r1, .L74
 3273              	.LPIC56:
 3274 0ea0 01108FE0 		add	r1, pc, r1
 3275 0ea4 08001BE5 		ldr	r0, [fp, #-8]
 3276 0ea8 FEFFFFEB 		bl	EmulateEepromFS(PLT)
 3277 0eac 0030A0E1 		mov	r3, r0
 553:/home/hkh/git/eapidk-code-r76-trunk/lib/linux/../EApiEmulI2C.c ****       Arg1, 
 554:/home/hkh/git/eapidk-code-r76-trunk/lib/linux/../EApiEmulI2C.c ****       &COM0MEEPromData, 
 555:/home/hkh/git/eapidk-code-r76-trunk/lib/linux/../EApiEmulI2C.c ****       pWBuffer, 
 556:/home/hkh/git/eapidk-code-r76-trunk/lib/linux/../EApiEmulI2C.c ****       WriteBCnt, 
 557:/home/hkh/git/eapidk-code-r76-trunk/lib/linux/../EApiEmulI2C.c ****       pRBuffer, 
 558:/home/hkh/git/eapidk-code-r76-trunk/lib/linux/../EApiEmulI2C.c ****       ReadBCnt
 559:/home/hkh/git/eapidk-code-r76-trunk/lib/linux/../EApiEmulI2C.c ****       );
 560:/home/hkh/git/eapidk-code-r76-trunk/lib/linux/../EApiEmulI2C.c **** }
 3278              		.loc 1 560 1
 3279 0eb0 0300A0E1 		mov	r0, r3
 3280 0eb4 04D04BE2 		sub	sp, fp, #4
 3281              		.cfi_def_cfa 13, 8
 3282              		@ sp needed
 3283 0eb8 0088BDE8 		pop	{fp, pc}
 3284              	.L75:
 3285              		.align	2
 3286              	.L74:
 3287 0ebc 74000000 		.word	COM0MEEPromData-(.LPIC56+8)
 3288              		.cfi_endproc
 3289              	.LFE10:
 3291              		.hidden	CpuTemp
 3292              		.global	CpuTemp
 3293              		.data
 3294              		.align	2
 3297              	CpuTemp:
 3298 0600 38       		.ascii	"8"
 3299              		.hidden	ChipsetTemp
 3300              		.global	ChipsetTemp
 3301 0601 000000   		.align	2
 3304              	ChipsetTemp:
 3305 0604 2E       		.ascii	"."
 3306              		.hidden	SystemTemp
 3307              		.global	SystemTemp
 3308 0605 000000   		.align	2
 3311              	SystemTemp:
 3312 0608 D2       		.ascii	"\322"
 3313              		.hidden	HwmonCmdIndx
 3314              		.global	HwmonCmdIndx
 3315              		.section	.data.rel.local
 3316              		.align	2
 3319              	HwmonCmdIndx:
 3320 00cc 10000000 		.word	16
 3321 00d0 01000000 		.word	1
 3322 00d4 00000000 		.word	CpuTemp
 3323 00d8 11000000 		.word	17
 3324 00dc 01000000 		.word	1
 3325 00e0 00000000 		.word	ChipsetTemp
 3326 00e4 12000000 		.word	18
 3327 00e8 01000000 		.word	1
 3328 00ec 00000000 		.word	SystemTemp
ARM GAS  /tmp/ccJiIEBf.s 			page 71


 3329 00f0 FFFFFFFF 		.word	-1
 3330 00f4 00000000 		.word	0
 3331 00f8 00000000 		.word	0
 3332              		.hidden	HWMon
 3333              		.global	HWMon
 3334              		.section	.rodata
 3335              		.align	2
 3336              	.LC25:
 3337 0250 41445437 		.ascii	"ADT7447\000"
 3337      34343700 
 3338              		.section	.data.rel.local
 3339              		.align	2
 3342              	HWMon:
 3343 00fc 01000000 		.word	1
 3344 0100 00000000 		.word	0
 3345 0104 00000000 		.word	0
 3346 0108 50020000 		.word	.LC25
 3347 010c 00000000 		.word	HwmonCmdIndx
 3348              		.text
 3349              		.align	2
 3350              		.global	EmulateHWMonDevice
 3351              		.hidden	EmulateHWMonDevice
 3352              		.syntax unified
 3353              		.arm
 3354              		.fpu vfpv3
 3356              	EmulateHWMonDevice:
 3357              	.LFB11:
 561:/home/hkh/git/eapidk-code-r76-trunk/lib/linux/../EApiEmulI2C.c **** 
 562:/home/hkh/git/eapidk-code-r76-trunk/lib/linux/../EApiEmulI2C.c **** int8_t CpuTemp[1]={56};
 563:/home/hkh/git/eapidk-code-r76-trunk/lib/linux/../EApiEmulI2C.c **** int8_t ChipsetTemp[1]={46};
 564:/home/hkh/git/eapidk-code-r76-trunk/lib/linux/../EApiEmulI2C.c **** int8_t SystemTemp[1]={- 46};
 565:/home/hkh/git/eapidk-code-r76-trunk/lib/linux/../EApiEmulI2C.c **** CmdDesc_t HwmonCmdIndx[]={
 566:/home/hkh/git/eapidk-code-r76-trunk/lib/linux/../EApiEmulI2C.c ****   {0x0010, ARRAY_SIZE(CpuTemp)    , CpuTemp    },
 567:/home/hkh/git/eapidk-code-r76-trunk/lib/linux/../EApiEmulI2C.c ****   {0x0011, ARRAY_SIZE(ChipsetTemp), ChipsetTemp},
 568:/home/hkh/git/eapidk-code-r76-trunk/lib/linux/../EApiEmulI2C.c ****   {0x0012, ARRAY_SIZE(SystemTemp) , SystemTemp },
 569:/home/hkh/git/eapidk-code-r76-trunk/lib/linux/../EApiEmulI2C.c ****   {END_OF_LIST_MARK, 0 , NULL },
 570:/home/hkh/git/eapidk-code-r76-trunk/lib/linux/../EApiEmulI2C.c **** };
 571:/home/hkh/git/eapidk-code-r76-trunk/lib/linux/../EApiEmulI2C.c **** CmdDeviceCfgData_t HWMon={
 572:/home/hkh/git/eapidk-code-r76-trunk/lib/linux/../EApiEmulI2C.c ****   STD_INDEX,
 573:/home/hkh/git/eapidk-code-r76-trunk/lib/linux/../EApiEmulI2C.c ****   0,
 574:/home/hkh/git/eapidk-code-r76-trunk/lib/linux/../EApiEmulI2C.c ****   0,
 575:/home/hkh/git/eapidk-code-r76-trunk/lib/linux/../EApiEmulI2C.c ****   "ADT7447",
 576:/home/hkh/git/eapidk-code-r76-trunk/lib/linux/../EApiEmulI2C.c ****   HwmonCmdIndx
 577:/home/hkh/git/eapidk-code-r76-trunk/lib/linux/../EApiEmulI2C.c **** };
 578:/home/hkh/git/eapidk-code-r76-trunk/lib/linux/../EApiEmulI2C.c **** EApiStatus_t 
 579:/home/hkh/git/eapidk-code-r76-trunk/lib/linux/../EApiEmulI2C.c **** EmulateHWMonDevice(
 580:/home/hkh/git/eapidk-code-r76-trunk/lib/linux/../EApiEmulI2C.c ****     __IN  uint32_t Arg1, 
 581:/home/hkh/git/eapidk-code-r76-trunk/lib/linux/../EApiEmulI2C.c ****     __IN  void    *pWBuffer, 
 582:/home/hkh/git/eapidk-code-r76-trunk/lib/linux/../EApiEmulI2C.c ****     __IN  uint32_t WriteBCnt, 
 583:/home/hkh/git/eapidk-code-r76-trunk/lib/linux/../EApiEmulI2C.c ****     __OUT void    *pRBuffer, 
 584:/home/hkh/git/eapidk-code-r76-trunk/lib/linux/../EApiEmulI2C.c ****     __IN  uint32_t ReadBCnt
 585:/home/hkh/git/eapidk-code-r76-trunk/lib/linux/../EApiEmulI2C.c ****     )
 586:/home/hkh/git/eapidk-code-r76-trunk/lib/linux/../EApiEmulI2C.c **** {
 3358              		.loc 1 586 1
 3359              		.cfi_startproc
 3360              		@ args = 4, pretend = 0, frame = 16
 3361              		@ frame_needed = 1, uses_anonymous_args = 0
ARM GAS  /tmp/ccJiIEBf.s 			page 72


 3362 0ec0 00482DE9 		push	{fp, lr}
 3363              		.cfi_def_cfa_offset 8
 3364              		.cfi_offset 11, -8
 3365              		.cfi_offset 14, -4
 3366 0ec4 04B08DE2 		add	fp, sp, #4
 3367              		.cfi_def_cfa 11, 4
 3368 0ec8 18D04DE2 		sub	sp, sp, #24
 3369 0ecc 08000BE5 		str	r0, [fp, #-8]
 3370 0ed0 0C100BE5 		str	r1, [fp, #-12]
 3371 0ed4 10200BE5 		str	r2, [fp, #-16]
 3372 0ed8 14300BE5 		str	r3, [fp, #-20]
 587:/home/hkh/git/eapidk-code-r76-trunk/lib/linux/../EApiEmulI2C.c ****   return EmulateCmdDevice(
 3373              		.loc 1 587 10
 3374 0edc 04309BE5 		ldr	r3, [fp, #4]
 3375 0ee0 04308DE5 		str	r3, [sp, #4]
 3376 0ee4 14301BE5 		ldr	r3, [fp, #-20]
 3377 0ee8 00308DE5 		str	r3, [sp]
 3378 0eec 10301BE5 		ldr	r3, [fp, #-16]
 3379 0ef0 0C201BE5 		ldr	r2, [fp, #-12]
 3380 0ef4 18109FE5 		ldr	r1, .L78
 3381              	.LPIC57:
 3382 0ef8 01108FE0 		add	r1, pc, r1
 3383 0efc 08001BE5 		ldr	r0, [fp, #-8]
 3384 0f00 FEFFFFEB 		bl	EmulateCmdDevice(PLT)
 3385 0f04 0030A0E1 		mov	r3, r0
 588:/home/hkh/git/eapidk-code-r76-trunk/lib/linux/../EApiEmulI2C.c ****       Arg1, 
 589:/home/hkh/git/eapidk-code-r76-trunk/lib/linux/../EApiEmulI2C.c ****       &HWMon, 
 590:/home/hkh/git/eapidk-code-r76-trunk/lib/linux/../EApiEmulI2C.c ****       pWBuffer, 
 591:/home/hkh/git/eapidk-code-r76-trunk/lib/linux/../EApiEmulI2C.c ****       WriteBCnt, 
 592:/home/hkh/git/eapidk-code-r76-trunk/lib/linux/../EApiEmulI2C.c ****       pRBuffer, 
 593:/home/hkh/git/eapidk-code-r76-trunk/lib/linux/../EApiEmulI2C.c ****       ReadBCnt
 594:/home/hkh/git/eapidk-code-r76-trunk/lib/linux/../EApiEmulI2C.c ****       );
 595:/home/hkh/git/eapidk-code-r76-trunk/lib/linux/../EApiEmulI2C.c **** }
 3386              		.loc 1 595 1
 3387 0f08 0300A0E1 		mov	r0, r3
 3388 0f0c 04D04BE2 		sub	sp, fp, #4
 3389              		.cfi_def_cfa 13, 8
 3390              		@ sp needed
 3391 0f10 0088BDE8 		pop	{fp, pc}
 3392              	.L79:
 3393              		.align	2
 3394              	.L78:
 3395 0f14 14000000 		.word	HWMon-(.LPIC57+8)
 3396              		.cfi_endproc
 3397              	.LFE11:
 3399              		.hidden	ExternalI2CDevices
 3400              		.global	ExternalI2CDevices
 3401              		.section	.data.rel.ro.local,"aw"
 3402              		.align	2
 3405              	ExternalI2CDevices:
 3406 0000 52000000 		.word	82
 3407 0004 00000000 		.word	EmulateHWMonDevice
 3408 0008 00000000 		.word	0
 3409 000c A0000000 		.word	160
 3410 0010 00000000 		.word	EmulateCOM0MEeprom
 3411 0014 00000000 		.word	0
 3412 0018 A2000000 		.word	162
ARM GAS  /tmp/ccJiIEBf.s 			page 73


 3413 001c 00000000 		.word	EmulateEeePExpEeprom
 3414 0020 00000000 		.word	0
 3415 0024 A4000000 		.word	164
 3416 0028 00000000 		.word	EmulateEeePExpEeprom
 3417 002c 01000000 		.word	1
 3418 0030 A6000000 		.word	166
 3419 0034 00000000 		.word	EmulateEeePExpEeprom
 3420 0038 02000000 		.word	2
 3421 003c A8000000 		.word	168
 3422 0040 00000000 		.word	EmulateEeePExpEeprom
 3423 0044 03000000 		.word	3
 3424 0048 AE000000 		.word	174
 3425 004c 00000000 		.word	EmulateCOM0CBEeprom
 3426 0050 00000000 		.word	0
 3427 0054 FFFFFFFF 		.word	-1
 3428 0058 00000000 		.word	0
 3429 005c 00000000 		.word	0
 3430              		.hidden	LVDS_1I2CDevices
 3431              		.global	LVDS_1I2CDevices
 3432              		.align	2
 3435              	LVDS_1I2CDevices:
 3436 0060 A0000000 		.word	160
 3437 0064 00000000 		.word	EmulateUDSEeprom
 3438 0068 00000000 		.word	0
 3439 006c A4000000 		.word	164
 3440 0070 00000000 		.word	EmulateDIDEeprom
 3441 0074 00000000 		.word	0
 3442 0078 55F20000 		.word	62037
 3443 007c 00000000 		.word	EmulateDIDEeprom
 3444 0080 00000000 		.word	0
 3445 0084 FFFFFFFF 		.word	-1
 3446 0088 00000000 		.word	0
 3447 008c 00000000 		.word	0
 3448              		.hidden	LVDS_2I2CDevices
 3449              		.global	LVDS_2I2CDevices
 3450              		.align	2
 3453              	LVDS_2I2CDevices:
 3454 0090 A0000000 		.word	160
 3455 0094 00000000 		.word	EmulateEPIEeprom
 3456 0098 00000000 		.word	0
 3457 009c A4000000 		.word	164
 3458 00a0 00000000 		.word	EmulateDIDEeprom
 3459 00a4 00000000 		.word	0
 3460 00a8 FFFFFFFF 		.word	-1
 3461 00ac 00000000 		.word	0
 3462 00b0 00000000 		.word	0
 3463              		.hidden	EmulatedInterfaces
 3464              		.global	EmulatedInterfaces
 3465              		.align	2
 3468              	EmulatedInterfaces:
 3469 00b4 00000000 		.word	0
 3470 00b8 00000000 		.word	ExternalI2CDevices
 3471 00bc 00000100 		.word	65536
 3472 00c0 01000000 		.word	1
 3473 00c4 00000000 		.word	LVDS_1I2CDevices
 3474 00c8 00010000 		.word	256
 3475 00cc 02000000 		.word	2
ARM GAS  /tmp/ccJiIEBf.s 			page 74


 3476 00d0 00000000 		.word	LVDS_2I2CDevices
 3477 00d4 20000000 		.word	32
 3478              		.section	.rodata
 3479              		.align	2
 3480              	.LC26:
 3481 0258 45417069 		.ascii	"EApiI2CGetBusCapEmul\000"
 3481      49324347 
 3481      65744275 
 3481      73436170 
 3481      456D756C 
 3482 026d 000000   		.align	2
 3483              	.LC27:
 3484 0270 556E7265 		.ascii	"Unrecognised I2C ID\000"
 3484      636F676E 
 3484      69736564 
 3484      20493243 
 3484      20494400 
 3485              		.text
 3486              		.align	2
 3487              		.global	EApiI2CGetBusCapEmul
 3488              		.syntax unified
 3489              		.arm
 3490              		.fpu vfpv3
 3492              	EApiI2CGetBusCapEmul:
 3493              	.LFB12:
 596:/home/hkh/git/eapidk-code-r76-trunk/lib/linux/../EApiEmulI2C.c **** 
 597:/home/hkh/git/eapidk-code-r76-trunk/lib/linux/../EApiEmulI2C.c **** const BusDevicesTbl_t ExternalI2CDevices[]={
 598:/home/hkh/git/eapidk-code-r76-trunk/lib/linux/../EApiEmulI2C.c **** /* Device      Device         BLCK*/
 599:/home/hkh/git/eapidk-code-r76-trunk/lib/linux/../EApiEmulI2C.c **** /* Address    Emulator        CNT */
 600:/home/hkh/git/eapidk-code-r76-trunk/lib/linux/../EApiEmulI2C.c ****   {0x0052, EmulateHWMonDevice  , 0},
 601:/home/hkh/git/eapidk-code-r76-trunk/lib/linux/../EApiEmulI2C.c ****   {0x00A0, EmulateCOM0MEeprom  , 0},
 602:/home/hkh/git/eapidk-code-r76-trunk/lib/linux/../EApiEmulI2C.c ****   {0x00A2, EmulateEeePExpEeprom, 0},
 603:/home/hkh/git/eapidk-code-r76-trunk/lib/linux/../EApiEmulI2C.c ****   {0x00A4, EmulateEeePExpEeprom, 1},
 604:/home/hkh/git/eapidk-code-r76-trunk/lib/linux/../EApiEmulI2C.c ****   {0x00A6, EmulateEeePExpEeprom, 2},
 605:/home/hkh/git/eapidk-code-r76-trunk/lib/linux/../EApiEmulI2C.c ****   {0x00A8, EmulateEeePExpEeprom, 3},
 606:/home/hkh/git/eapidk-code-r76-trunk/lib/linux/../EApiEmulI2C.c ****   {0x00AE, EmulateCOM0CBEeprom , 0},
 607:/home/hkh/git/eapidk-code-r76-trunk/lib/linux/../EApiEmulI2C.c ****   {END_OF_LIST_MARK, NULL, 0}
 608:/home/hkh/git/eapidk-code-r76-trunk/lib/linux/../EApiEmulI2C.c **** };
 609:/home/hkh/git/eapidk-code-r76-trunk/lib/linux/../EApiEmulI2C.c **** const BusDevicesTbl_t LVDS_1I2CDevices[]={
 610:/home/hkh/git/eapidk-code-r76-trunk/lib/linux/../EApiEmulI2C.c **** /* Device      Device         BLCK*/
 611:/home/hkh/git/eapidk-code-r76-trunk/lib/linux/../EApiEmulI2C.c **** /* Address    Emulator        CNT */
 612:/home/hkh/git/eapidk-code-r76-trunk/lib/linux/../EApiEmulI2C.c ****   {0x00A0, EmulateUDSEeprom, 0},
 613:/home/hkh/git/eapidk-code-r76-trunk/lib/linux/../EApiEmulI2C.c ****   {0x00A4, EmulateDIDEeprom, 0},
 614:/home/hkh/git/eapidk-code-r76-trunk/lib/linux/../EApiEmulI2C.c ****   {0xF255, EmulateDIDEeprom, 0},
 615:/home/hkh/git/eapidk-code-r76-trunk/lib/linux/../EApiEmulI2C.c ****   {END_OF_LIST_MARK, NULL, 0}
 616:/home/hkh/git/eapidk-code-r76-trunk/lib/linux/../EApiEmulI2C.c **** };
 617:/home/hkh/git/eapidk-code-r76-trunk/lib/linux/../EApiEmulI2C.c **** const BusDevicesTbl_t LVDS_2I2CDevices[]={
 618:/home/hkh/git/eapidk-code-r76-trunk/lib/linux/../EApiEmulI2C.c **** /* Device      Device         BLCK*/
 619:/home/hkh/git/eapidk-code-r76-trunk/lib/linux/../EApiEmulI2C.c **** /* Address    Emulator        CNT */
 620:/home/hkh/git/eapidk-code-r76-trunk/lib/linux/../EApiEmulI2C.c ****   {0x00A0, EmulateEPIEeprom, 0},
 621:/home/hkh/git/eapidk-code-r76-trunk/lib/linux/../EApiEmulI2C.c ****   {0x00A4, EmulateDIDEeprom, 0},
 622:/home/hkh/git/eapidk-code-r76-trunk/lib/linux/../EApiEmulI2C.c ****   {END_OF_LIST_MARK, NULL, 0}
 623:/home/hkh/git/eapidk-code-r76-trunk/lib/linux/../EApiEmulI2C.c **** };
 624:/home/hkh/git/eapidk-code-r76-trunk/lib/linux/../EApiEmulI2C.c **** 
 625:/home/hkh/git/eapidk-code-r76-trunk/lib/linux/../EApiEmulI2C.c **** typedef struct InterfaceIdsTbl_s{
 626:/home/hkh/git/eapidk-code-r76-trunk/lib/linux/../EApiEmulI2C.c ****   const EApiId_t         Id         ; /* I2C EAPI Bus Id */
 627:/home/hkh/git/eapidk-code-r76-trunk/lib/linux/../EApiEmulI2C.c ****   const BusDevicesTbl_t *DevicesList; /* Pointer to Device List for 
ARM GAS  /tmp/ccJiIEBf.s 			page 75


 628:/home/hkh/git/eapidk-code-r76-trunk/lib/linux/../EApiEmulI2C.c ****                                        * Emulated I2C Bus */
 629:/home/hkh/git/eapidk-code-r76-trunk/lib/linux/../EApiEmulI2C.c ****   uint32_t               MaxBlockLen; /* Max Block Length Supported 
 630:/home/hkh/git/eapidk-code-r76-trunk/lib/linux/../EApiEmulI2C.c ****                                        * by Interface */
 631:/home/hkh/git/eapidk-code-r76-trunk/lib/linux/../EApiEmulI2C.c **** }InterfaceIdsTbl_t;
 632:/home/hkh/git/eapidk-code-r76-trunk/lib/linux/../EApiEmulI2C.c **** 
 633:/home/hkh/git/eapidk-code-r76-trunk/lib/linux/../EApiEmulI2C.c **** const InterfaceIdsTbl_t EmulatedInterfaces[]={
 634:/home/hkh/git/eapidk-code-r76-trunk/lib/linux/../EApiEmulI2C.c **** /*                                           Interface */
 635:/home/hkh/git/eapidk-code-r76-trunk/lib/linux/../EApiEmulI2C.c **** /*                                           Max Block */
 636:/home/hkh/git/eapidk-code-r76-trunk/lib/linux/../EApiEmulI2C.c **** /* BUS EApi ID           Bus Device List     Length    */
 637:/home/hkh/git/eapidk-code-r76-trunk/lib/linux/../EApiEmulI2C.c ****   {EAPI_ID_I2C_EXTERNAL, ExternalI2CDevices, 0x10000},
 638:/home/hkh/git/eapidk-code-r76-trunk/lib/linux/../EApiEmulI2C.c ****   {EAPI_ID_I2C_LVDS_1,   LVDS_1I2CDevices  , 0x00100},
 639:/home/hkh/git/eapidk-code-r76-trunk/lib/linux/../EApiEmulI2C.c ****   {EAPI_ID_I2C_LVDS_2,   LVDS_2I2CDevices  , 0x00020}
 640:/home/hkh/git/eapidk-code-r76-trunk/lib/linux/../EApiEmulI2C.c **** };
 641:/home/hkh/git/eapidk-code-r76-trunk/lib/linux/../EApiEmulI2C.c **** EApiStatus_t 
 642:/home/hkh/git/eapidk-code-r76-trunk/lib/linux/../EApiEmulI2C.c **** EAPI_CALLTYPE 
 643:/home/hkh/git/eapidk-code-r76-trunk/lib/linux/../EApiEmulI2C.c **** EApiI2CGetBusCapEmul(
 644:/home/hkh/git/eapidk-code-r76-trunk/lib/linux/../EApiEmulI2C.c ****     __IN  EApiId_t  Id, 
 645:/home/hkh/git/eapidk-code-r76-trunk/lib/linux/../EApiEmulI2C.c ****     __OUT uint32_t *pMaxBlkLen
 646:/home/hkh/git/eapidk-code-r76-trunk/lib/linux/../EApiEmulI2C.c ****     )
 647:/home/hkh/git/eapidk-code-r76-trunk/lib/linux/../EApiEmulI2C.c **** {
 3494              		.loc 1 647 1
 3495              		.cfi_startproc
 3496              		@ args = 0, pretend = 0, frame = 16
 3497              		@ frame_needed = 1, uses_anonymous_args = 0
 3498 0f18 00482DE9 		push	{fp, lr}
 3499              		.cfi_def_cfa_offset 8
 3500              		.cfi_offset 11, -8
 3501              		.cfi_offset 14, -4
 3502 0f1c 04B08DE2 		add	fp, sp, #4
 3503              		.cfi_def_cfa 11, 4
 3504 0f20 20D04DE2 		sub	sp, sp, #32
 3505 0f24 10000BE5 		str	r0, [fp, #-16]
 3506 0f28 14100BE5 		str	r1, [fp, #-20]
 648:/home/hkh/git/eapidk-code-r76-trunk/lib/linux/../EApiEmulI2C.c ****   EApiStatus_t StatusCode=EAPI_STATUS_SUCCESS;
 3507              		.loc 1 648 16
 3508 0f2c 0030A0E3 		mov	r3, #0
 3509 0f30 0C300BE5 		str	r3, [fp, #-12]
 649:/home/hkh/git/eapidk-code-r76-trunk/lib/linux/../EApiEmulI2C.c ****   unsigned i;
 650:/home/hkh/git/eapidk-code-r76-trunk/lib/linux/../EApiEmulI2C.c **** 
 651:/home/hkh/git/eapidk-code-r76-trunk/lib/linux/../EApiEmulI2C.c ****   for(i=0;i<ARRAY_SIZE(EmulatedInterfaces);i++)
 3510              		.loc 1 651 8
 3511 0f34 0030A0E3 		mov	r3, #0
 3512 0f38 08300BE5 		str	r3, [fp, #-8]
 3513              		.loc 1 651 3
 3514 0f3c 2C0000EA 		b	.L81
 3515              	.L84:
 652:/home/hkh/git/eapidk-code-r76-trunk/lib/linux/../EApiEmulI2C.c ****   {
 653:/home/hkh/git/eapidk-code-r76-trunk/lib/linux/../EApiEmulI2C.c ****       if(EmulatedInterfaces[i].Id==Id)
 3516              		.loc 1 653 31
 3517 0f40 10119FE5 		ldr	r1, .L86
 3518              	.LPIC58:
 3519 0f44 01108FE0 		add	r1, pc, r1
 3520 0f48 08201BE5 		ldr	r2, [fp, #-8]
 3521 0f4c 0230A0E1 		mov	r3, r2
 3522 0f50 8330A0E1 		lsl	r3, r3, #1
 3523 0f54 023083E0 		add	r3, r3, r2
 3524 0f58 0331A0E1 		lsl	r3, r3, #2
ARM GAS  /tmp/ccJiIEBf.s 			page 76


 3525 0f5c 033081E0 		add	r3, r1, r3
 3526 0f60 003093E5 		ldr	r3, [r3]
 3527              		.loc 1 653 9
 3528 0f64 10201BE5 		ldr	r2, [fp, #-16]
 3529 0f68 030052E1 		cmp	r2, r3
 3530 0f6c 1D00001A 		bne	.L82
 654:/home/hkh/git/eapidk-code-r76-trunk/lib/linux/../EApiEmulI2C.c ****       {
 655:/home/hkh/git/eapidk-code-r76-trunk/lib/linux/../EApiEmulI2C.c ****           *pMaxBlkLen=EmulatedInterfaces[i].MaxBlockLen;
 3531              		.loc 1 655 44
 3532 0f70 E4109FE5 		ldr	r1, .L86+4
 3533              	.LPIC59:
 3534 0f74 01108FE0 		add	r1, pc, r1
 3535 0f78 08201BE5 		ldr	r2, [fp, #-8]
 3536 0f7c 0230A0E1 		mov	r3, r2
 3537 0f80 8330A0E1 		lsl	r3, r3, #1
 3538 0f84 023083E0 		add	r3, r3, r2
 3539 0f88 0331A0E1 		lsl	r3, r3, #2
 3540 0f8c 033081E0 		add	r3, r1, r3
 3541 0f90 083083E2 		add	r3, r3, #8
 3542 0f94 002093E5 		ldr	r2, [r3]
 3543              		.loc 1 655 22
 3544 0f98 14301BE5 		ldr	r3, [fp, #-20]
 3545 0f9c 002083E5 		str	r2, [r3]
 656:/home/hkh/git/eapidk-code-r76-trunk/lib/linux/../EApiEmulI2C.c ****           EAPI_LIB_RETURN_SUCCESS(
 3546              		.loc 1 656 11
 3547 0fa0 B8309FE5 		ldr	r3, .L86+8
 3548              	.LPIC60:
 3549 0fa4 03308FE0 		add	r3, pc, r3
 3550 0fa8 08308DE5 		str	r3, [sp, #8]
 3551 0fac B0309FE5 		ldr	r3, .L86+12
 3552              	.LPIC61:
 3553 0fb0 03308FE0 		add	r3, pc, r3
 3554 0fb4 04308DE5 		str	r3, [sp, #4]
 3555 0fb8 0030A0E3 		mov	r3, #0
 3556 0fbc 00308DE5 		str	r3, [sp]
 3557 0fc0 293EA0E3 		mov	r3, #656
 3558 0fc4 9C209FE5 		ldr	r2, .L86+16
 3559              	.LPIC62:
 3560 0fc8 02208FE0 		add	r2, pc, r2
 3561 0fcc 98109FE5 		ldr	r1, .L86+20
 3562              	.LPIC63:
 3563 0fd0 01108FE0 		add	r1, pc, r1
 3564 0fd4 4C00A0E3 		mov	r0, #76
 3565 0fd8 FEFFFFEB 		bl	siFormattedMessage_SC(PLT)
 3566 0fdc 0030A0E3 		mov	r3, #0
 3567 0fe0 0C300BE5 		str	r3, [fp, #-12]
 3568 0fe4 170000EA 		b	.L83
 3569              	.L82:
 651:/home/hkh/git/eapidk-code-r76-trunk/lib/linux/../EApiEmulI2C.c ****   {
 3570              		.loc 1 651 45 discriminator 2
 3571 0fe8 08301BE5 		ldr	r3, [fp, #-8]
 3572 0fec 013083E2 		add	r3, r3, #1
 3573 0ff0 08300BE5 		str	r3, [fp, #-8]
 3574              	.L81:
 651:/home/hkh/git/eapidk-code-r76-trunk/lib/linux/../EApiEmulI2C.c ****   {
 3575              		.loc 1 651 12 discriminator 1
 3576 0ff4 08301BE5 		ldr	r3, [fp, #-8]
ARM GAS  /tmp/ccJiIEBf.s 			page 77


 3577 0ff8 020053E3 		cmp	r3, #2
 3578 0ffc CFFFFF9A 		bls	.L84
 657:/home/hkh/git/eapidk-code-r76-trunk/lib/linux/../EApiEmulI2C.c ****             EApiI2CGetBusCapEmul, 
 658:/home/hkh/git/eapidk-code-r76-trunk/lib/linux/../EApiEmulI2C.c ****             ""
 659:/home/hkh/git/eapidk-code-r76-trunk/lib/linux/../EApiEmulI2C.c ****             );
 660:/home/hkh/git/eapidk-code-r76-trunk/lib/linux/../EApiEmulI2C.c ****       }
 661:/home/hkh/git/eapidk-code-r76-trunk/lib/linux/../EApiEmulI2C.c ****   }
 662:/home/hkh/git/eapidk-code-r76-trunk/lib/linux/../EApiEmulI2C.c **** 
 663:/home/hkh/git/eapidk-code-r76-trunk/lib/linux/../EApiEmulI2C.c ****   EAPI_LIB_RETURN_ERROR(
 3579              		.loc 1 663 3
 3580 1000 68309FE5 		ldr	r3, .L86+24
 3581              	.LPIC64:
 3582 1004 03308FE0 		add	r3, pc, r3
 3583 1008 08308DE5 		str	r3, [sp, #8]
 3584 100c 60309FE5 		ldr	r3, .L86+28
 3585              	.LPIC65:
 3586 1010 03308FE0 		add	r3, pc, r3
 3587 1014 04308DE5 		str	r3, [sp, #4]
 3588 1018 033CE0E3 		mvn	r3, #768
 3589 101c 00308DE5 		str	r3, [sp]
 3590 1020 973200E3 		movw	r3, #663
 3591 1024 4C209FE5 		ldr	r2, .L86+32
 3592              	.LPIC66:
 3593 1028 02208FE0 		add	r2, pc, r2
 3594 102c 48109FE5 		ldr	r1, .L86+36
 3595              	.LPIC67:
 3596 1030 01108FE0 		add	r1, pc, r1
 3597 1034 4500A0E3 		mov	r0, #69
 3598 1038 FEFFFFEB 		bl	siFormattedMessage_SC(PLT)
 3599 103c 033CE0E3 		mvn	r3, #768
 3600 1040 0C300BE5 		str	r3, [fp, #-12]
 3601 1044 00F020E3 		nop
 3602              	.L83:
 664:/home/hkh/git/eapidk-code-r76-trunk/lib/linux/../EApiEmulI2C.c ****     EApiI2CGetBusCapEmul, 
 665:/home/hkh/git/eapidk-code-r76-trunk/lib/linux/../EApiEmulI2C.c ****     EAPI_STATUS_UNSUPPORTED  , 
 666:/home/hkh/git/eapidk-code-r76-trunk/lib/linux/../EApiEmulI2C.c ****     "Unrecognised I2C ID"
 667:/home/hkh/git/eapidk-code-r76-trunk/lib/linux/../EApiEmulI2C.c ****     );
 668:/home/hkh/git/eapidk-code-r76-trunk/lib/linux/../EApiEmulI2C.c **** EAPI_LIB_ASSERT_EXIT
 669:/home/hkh/git/eapidk-code-r76-trunk/lib/linux/../EApiEmulI2C.c **** 
 670:/home/hkh/git/eapidk-code-r76-trunk/lib/linux/../EApiEmulI2C.c ****   return StatusCode;
 3603              		.loc 1 670 10
 3604 1048 0C301BE5 		ldr	r3, [fp, #-12]
 671:/home/hkh/git/eapidk-code-r76-trunk/lib/linux/../EApiEmulI2C.c **** }
 3605              		.loc 1 671 1
 3606 104c 0300A0E1 		mov	r0, r3
 3607 1050 04D04BE2 		sub	sp, fp, #4
 3608              		.cfi_def_cfa 13, 8
 3609              		@ sp needed
 3610 1054 0088BDE8 		pop	{fp, pc}
 3611              	.L87:
 3612              		.align	2
 3613              	.L86:
 3614 1058 0C010000 		.word	EmulatedInterfaces-(.LPIC58+8)
 3615 105c E0000000 		.word	EmulatedInterfaces-(.LPIC59+8)
 3616 1060 2C020000 		.word	.LC14-(.LPIC60+8)
 3617 1064 88010000 		.word	.LC7-(.LPIC61+8)
 3618 1068 F0020000 		.word	.LC26-(.LPIC62+8)
ARM GAS  /tmp/ccJiIEBf.s 			page 78


 3619 106c B0000000 		.word	.LC4-(.LPIC63+8)
 3620 1070 D4020000 		.word	.LC27-(.LPIC64+8)
 3621 1074 38010000 		.word	.LC7-(.LPIC65+8)
 3622 1078 A0020000 		.word	.LC26-(.LPIC66+8)
 3623 107c 60000000 		.word	.LC4-(.LPIC67+8)
 3624              		.cfi_endproc
 3625              	.LFE12:
 3627              		.section	.rodata
 3628              		.align	2
 3629              	.LC28:
 3630 0284 45417069 		.ascii	"EApiI2CWriteReadEmul\000"
 3630      49324357 
 3630      72697465 
 3630      52656164 
 3630      456D756C 
 3631 0299 000000   		.align	2
 3632              	.LC29:
 3633 029c 57726974 		.ascii	"WriteBCnt>(pMaxBlkLen+1)\000"
 3633      6542436E 
 3633      743E2870 
 3633      4D617842 
 3633      6C6B4C65 
 3634 02b5 000000   		.align	2
 3635              	.LC30:
 3636 02b8 52656164 		.ascii	"ReadBCnt>(pMaxBlkLen+1)\000"
 3636      42436E74 
 3636      3E28704D 
 3636      6178426C 
 3636      6B4C656E 
 3637              		.align	2
 3638              	.LC31:
 3639 02d0 41444452 		.ascii	"ADDR=%02X\012\000"
 3639      3D253032 
 3639      580A00
 3640 02db 00       		.align	2
 3641              	.LC32:
 3642 02dc 496E666F 		.ascii	"Info\000"
 3642      00
 3643 02e1 000000   		.align	2
 3644              	.LC33:
 3645 02e4 44657669 		.ascii	"Device Not Present\000"
 3645      6365204E 
 3645      6F742050 
 3645      72657365 
 3645      6E7400
 3646              		.text
 3647              		.align	2
 3648              		.global	EApiI2CWriteReadEmul
 3649              		.syntax unified
 3650              		.arm
 3651              		.fpu vfpv3
 3653              	EApiI2CWriteReadEmul:
 3654              	.LFB13:
 672:/home/hkh/git/eapidk-code-r76-trunk/lib/linux/../EApiEmulI2C.c **** 
 673:/home/hkh/git/eapidk-code-r76-trunk/lib/linux/../EApiEmulI2C.c **** /*
 674:/home/hkh/git/eapidk-code-r76-trunk/lib/linux/../EApiEmulI2C.c ****  *
 675:/home/hkh/git/eapidk-code-r76-trunk/lib/linux/../EApiEmulI2C.c ****  *  
ARM GAS  /tmp/ccJiIEBf.s 			page 79


 676:/home/hkh/git/eapidk-code-r76-trunk/lib/linux/../EApiEmulI2C.c ****  *
 677:/home/hkh/git/eapidk-code-r76-trunk/lib/linux/../EApiEmulI2C.c ****  *      I2C
 678:/home/hkh/git/eapidk-code-r76-trunk/lib/linux/../EApiEmulI2C.c ****  *
 679:/home/hkh/git/eapidk-code-r76-trunk/lib/linux/../EApiEmulI2C.c ****  *
 680:/home/hkh/git/eapidk-code-r76-trunk/lib/linux/../EApiEmulI2C.c ****  *
 681:/home/hkh/git/eapidk-code-r76-trunk/lib/linux/../EApiEmulI2C.c ****  */
 682:/home/hkh/git/eapidk-code-r76-trunk/lib/linux/../EApiEmulI2C.c **** EApiStatus_t 
 683:/home/hkh/git/eapidk-code-r76-trunk/lib/linux/../EApiEmulI2C.c **** EAPI_CALLTYPE 
 684:/home/hkh/git/eapidk-code-r76-trunk/lib/linux/../EApiEmulI2C.c **** EApiI2CWriteReadEmul(
 685:/home/hkh/git/eapidk-code-r76-trunk/lib/linux/../EApiEmulI2C.c ****     __IN      EApiId_t Id         , 
 686:/home/hkh/git/eapidk-code-r76-trunk/lib/linux/../EApiEmulI2C.c ****     __IN      uint8_t  Addr       , 
 687:/home/hkh/git/eapidk-code-r76-trunk/lib/linux/../EApiEmulI2C.c ****     __INOPT   void    *pWBuffer  , 
 688:/home/hkh/git/eapidk-code-r76-trunk/lib/linux/../EApiEmulI2C.c ****     __IN      uint32_t WriteBCnt  , 
 689:/home/hkh/git/eapidk-code-r76-trunk/lib/linux/../EApiEmulI2C.c ****     __OUTOPT  void    *pRBuffer  , 
 690:/home/hkh/git/eapidk-code-r76-trunk/lib/linux/../EApiEmulI2C.c ****     __IN      uint32_t ReadBCnt
 691:/home/hkh/git/eapidk-code-r76-trunk/lib/linux/../EApiEmulI2C.c ****     )
 692:/home/hkh/git/eapidk-code-r76-trunk/lib/linux/../EApiEmulI2C.c **** {
 3655              		.loc 1 692 1
 3656              		.cfi_startproc
 3657              		@ args = 8, pretend = 0, frame = 32
 3658              		@ frame_needed = 1, uses_anonymous_args = 0
 3659 1080 10482DE9 		push	{r4, fp, lr}
 3660              		.cfi_def_cfa_offset 12
 3661              		.cfi_offset 4, -12
 3662              		.cfi_offset 11, -8
 3663              		.cfi_offset 14, -4
 3664 1084 08B08DE2 		add	fp, sp, #8
 3665              		.cfi_def_cfa 11, 4
 3666 1088 34D04DE2 		sub	sp, sp, #52
 3667 108c 20000BE5 		str	r0, [fp, #-32]
 3668 1090 28200BE5 		str	r2, [fp, #-40]
 3669 1094 2C300BE5 		str	r3, [fp, #-44]
 3670 1098 0130A0E1 		mov	r3, r1
 3671 109c 21304BE5 		strb	r3, [fp, #-33]
 693:/home/hkh/git/eapidk-code-r76-trunk/lib/linux/../EApiEmulI2C.c ****   EApiStatus_t StatusCode=EAPI_STATUS_SUCCESS;
 3672              		.loc 1 693 16
 3673 10a0 0030A0E3 		mov	r3, #0
 3674 10a4 1C300BE5 		str	r3, [fp, #-28]
 694:/home/hkh/git/eapidk-code-r76-trunk/lib/linux/../EApiEmulI2C.c ****   unsigned i,i2;
 695:/home/hkh/git/eapidk-code-r76-trunk/lib/linux/../EApiEmulI2C.c ****   uint32_t LclAddr;
 696:/home/hkh/git/eapidk-code-r76-trunk/lib/linux/../EApiEmulI2C.c **** 
 697:/home/hkh/git/eapidk-code-r76-trunk/lib/linux/../EApiEmulI2C.c ****   for(i=0;i<ARRAY_SIZE(EmulatedInterfaces);i++)
 3675              		.loc 1 697 8
 3676 10a8 0030A0E3 		mov	r3, #0
 3677 10ac 18300BE5 		str	r3, [fp, #-24]
 3678              		.loc 1 697 3
 3679 10b0 ED0000EA 		b	.L89
 3680              	.L104:
 698:/home/hkh/git/eapidk-code-r76-trunk/lib/linux/../EApiEmulI2C.c ****   {
 699:/home/hkh/git/eapidk-code-r76-trunk/lib/linux/../EApiEmulI2C.c ****       if(EmulatedInterfaces[i].Id==Id)
 3681              		.loc 1 699 31
 3682 10b4 14149FE5 		ldr	r1, .L105
 3683              	.LPIC68:
 3684 10b8 01108FE0 		add	r1, pc, r1
 3685 10bc 18201BE5 		ldr	r2, [fp, #-24]
 3686 10c0 0230A0E1 		mov	r3, r2
 3687 10c4 8330A0E1 		lsl	r3, r3, #1
ARM GAS  /tmp/ccJiIEBf.s 			page 80


 3688 10c8 023083E0 		add	r3, r3, r2
 3689 10cc 0331A0E1 		lsl	r3, r3, #2
 3690 10d0 033081E0 		add	r3, r1, r3
 3691 10d4 003093E5 		ldr	r3, [r3]
 3692              		.loc 1 699 9
 3693 10d8 20201BE5 		ldr	r2, [fp, #-32]
 3694 10dc 030052E1 		cmp	r2, r3
 3695 10e0 DE00001A 		bne	.L90
 700:/home/hkh/git/eapidk-code-r76-trunk/lib/linux/../EApiEmulI2C.c ****       {
 701:/home/hkh/git/eapidk-code-r76-trunk/lib/linux/../EApiEmulI2C.c **** 	EAPI_LIB_RETURN_ERROR_IF(
 3696              		.loc 1 701 2
 3697 10e4 E8139FE5 		ldr	r1, .L105+4
 3698              	.LPIC69:
 3699 10e8 01108FE0 		add	r1, pc, r1
 3700 10ec 18201BE5 		ldr	r2, [fp, #-24]
 3701 10f0 0230A0E1 		mov	r3, r2
 3702 10f4 8330A0E1 		lsl	r3, r3, #1
 3703 10f8 023083E0 		add	r3, r3, r2
 3704 10fc 0331A0E1 		lsl	r3, r3, #2
 3705 1100 033081E0 		add	r3, r1, r3
 3706 1104 083083E2 		add	r3, r3, #8
 3707 1108 003093E5 		ldr	r3, [r3]
 3708 110c 013083E2 		add	r3, r3, #1
 3709 1110 2C201BE5 		ldr	r2, [fp, #-44]
 3710 1114 030052E1 		cmp	r2, r3
 3711 1118 1300009A 		bls	.L91
 3712              		.loc 1 701 2 is_stmt 0 discriminator 1
 3713 111c B4339FE5 		ldr	r3, .L105+8
 3714              	.LPIC70:
 3715 1120 03308FE0 		add	r3, pc, r3
 3716 1124 08308DE5 		str	r3, [sp, #8]
 3717 1128 AC339FE5 		ldr	r3, .L105+12
 3718              	.LPIC71:
 3719 112c 03308FE0 		add	r3, pc, r3
 3720 1130 04308DE5 		str	r3, [sp, #4]
 3721 1134 FD3E0FE3 		movw	r3, #65277
 3722 1138 FF3F4FE3 		movt	r3, 65535
 3723 113c 00308DE5 		str	r3, [sp]
 3724 1140 BD3200E3 		movw	r3, #701
 3725 1144 94239FE5 		ldr	r2, .L105+16
 3726              	.LPIC72:
 3727 1148 02208FE0 		add	r2, pc, r2
 3728 114c 90139FE5 		ldr	r1, .L105+20
 3729              	.LPIC73:
 3730 1150 01108FE0 		add	r1, pc, r1
 3731 1154 4500A0E3 		mov	r0, #69
 3732 1158 FEFFFFEB 		bl	siFormattedMessage_SC(PLT)
 3733 115c FD3E0FE3 		movw	r3, #65277
 3734 1160 FF3F4FE3 		movt	r3, 65535
 3735 1164 1C300BE5 		str	r3, [fp, #-28]
 3736 1168 D40000EA 		b	.L92
 3737              	.L91:
 702:/home/hkh/git/eapidk-code-r76-trunk/lib/linux/../EApiEmulI2C.c **** 	    EApiI2CWriteReadEmul, 
 703:/home/hkh/git/eapidk-code-r76-trunk/lib/linux/../EApiEmulI2C.c **** 	    (WriteBCnt>EmulatedInterfaces[i].MaxBlockLen+1), 
 704:/home/hkh/git/eapidk-code-r76-trunk/lib/linux/../EApiEmulI2C.c **** 	    EAPI_STATUS_INVALID_BLOCK_LENGTH,
 705:/home/hkh/git/eapidk-code-r76-trunk/lib/linux/../EApiEmulI2C.c **** 	    "WriteBCnt>(pMaxBlkLen+1)"
 706:/home/hkh/git/eapidk-code-r76-trunk/lib/linux/../EApiEmulI2C.c **** 	    );
ARM GAS  /tmp/ccJiIEBf.s 			page 81


 707:/home/hkh/git/eapidk-code-r76-trunk/lib/linux/../EApiEmulI2C.c **** 	EAPI_LIB_RETURN_ERROR_IF(
 3738              		.loc 1 707 2 is_stmt 1
 3739 116c 74139FE5 		ldr	r1, .L105+24
 3740              	.LPIC74:
 3741 1170 01108FE0 		add	r1, pc, r1
 3742 1174 18201BE5 		ldr	r2, [fp, #-24]
 3743 1178 0230A0E1 		mov	r3, r2
 3744 117c 8330A0E1 		lsl	r3, r3, #1
 3745 1180 023083E0 		add	r3, r3, r2
 3746 1184 0331A0E1 		lsl	r3, r3, #2
 3747 1188 033081E0 		add	r3, r1, r3
 3748 118c 083083E2 		add	r3, r3, #8
 3749 1190 003093E5 		ldr	r3, [r3]
 3750 1194 013083E2 		add	r3, r3, #1
 3751 1198 08209BE5 		ldr	r2, [fp, #8]
 3752 119c 030052E1 		cmp	r2, r3
 3753 11a0 1300009A 		bls	.L93
 3754              		.loc 1 707 2 is_stmt 0 discriminator 1
 3755 11a4 40339FE5 		ldr	r3, .L105+28
 3756              	.LPIC75:
 3757 11a8 03308FE0 		add	r3, pc, r3
 3758 11ac 08308DE5 		str	r3, [sp, #8]
 3759 11b0 38339FE5 		ldr	r3, .L105+32
 3760              	.LPIC76:
 3761 11b4 03308FE0 		add	r3, pc, r3
 3762 11b8 04308DE5 		str	r3, [sp, #4]
 3763 11bc FD3E0FE3 		movw	r3, #65277
 3764 11c0 FF3F4FE3 		movt	r3, 65535
 3765 11c4 00308DE5 		str	r3, [sp]
 3766 11c8 C33200E3 		movw	r3, #707
 3767 11cc 20239FE5 		ldr	r2, .L105+36
 3768              	.LPIC77:
 3769 11d0 02208FE0 		add	r2, pc, r2
 3770 11d4 1C139FE5 		ldr	r1, .L105+40
 3771              	.LPIC78:
 3772 11d8 01108FE0 		add	r1, pc, r1
 3773 11dc 4500A0E3 		mov	r0, #69
 3774 11e0 FEFFFFEB 		bl	siFormattedMessage_SC(PLT)
 3775 11e4 FD3E0FE3 		movw	r3, #65277
 3776 11e8 FF3F4FE3 		movt	r3, 65535
 3777 11ec 1C300BE5 		str	r3, [fp, #-28]
 3778 11f0 B20000EA 		b	.L92
 3779              	.L93:
 708:/home/hkh/git/eapidk-code-r76-trunk/lib/linux/../EApiEmulI2C.c **** 	    EApiI2CWriteReadEmul, 
 709:/home/hkh/git/eapidk-code-r76-trunk/lib/linux/../EApiEmulI2C.c **** 	    (ReadBCnt>(EmulatedInterfaces[i].MaxBlockLen+1)), 
 710:/home/hkh/git/eapidk-code-r76-trunk/lib/linux/../EApiEmulI2C.c **** 	    EAPI_STATUS_INVALID_BLOCK_LENGTH,
 711:/home/hkh/git/eapidk-code-r76-trunk/lib/linux/../EApiEmulI2C.c **** 	    "ReadBCnt>(pMaxBlkLen+1)"
 712:/home/hkh/git/eapidk-code-r76-trunk/lib/linux/../EApiEmulI2C.c **** 	    );
 713:/home/hkh/git/eapidk-code-r76-trunk/lib/linux/../EApiEmulI2C.c ****         if(EAPI_I2C_IS_10BIT_ADDR(Addr<<8)){
 3780              		.loc 1 713 12 is_stmt 1
 3781 11f4 21305BE5 		ldrb	r3, [fp, #-33]	@ zero_extendqisi2
 3782 11f8 0334A0E1 		lsl	r3, r3, #8
 3783 11fc 3E3B03E2 		and	r3, r3, #63488
 3784              		.loc 1 713 11
 3785 1200 0F0A53E3 		cmp	r3, #61440
 3786 1204 0F00001A 		bne	.L94
 714:/home/hkh/git/eapidk-code-r76-trunk/lib/linux/../EApiEmulI2C.c ****           LclAddr=Addr<<8;
ARM GAS  /tmp/ccJiIEBf.s 			page 82


 3787              		.loc 1 714 23
 3788 1208 21305BE5 		ldrb	r3, [fp, #-33]	@ zero_extendqisi2
 3789 120c 0334A0E1 		lsl	r3, r3, #8
 3790              		.loc 1 714 18
 3791 1210 10300BE5 		str	r3, [fp, #-16]
 715:/home/hkh/git/eapidk-code-r76-trunk/lib/linux/../EApiEmulI2C.c ****           LclAddr|=*((uint8_t *)pWBuffer);
 3792              		.loc 1 715 20
 3793 1214 28301BE5 		ldr	r3, [fp, #-40]
 3794 1218 0030D3E5 		ldrb	r3, [r3]	@ zero_extendqisi2
 3795 121c 0320A0E1 		mov	r2, r3
 3796              		.loc 1 715 18
 3797 1220 10301BE5 		ldr	r3, [fp, #-16]
 3798 1224 023083E1 		orr	r3, r3, r2
 3799 1228 10300BE5 		str	r3, [fp, #-16]
 716:/home/hkh/git/eapidk-code-r76-trunk/lib/linux/../EApiEmulI2C.c ****           pWBuffer=((uint8_t *)pWBuffer)+1;
 3800              		.loc 1 716 19
 3801 122c 28301BE5 		ldr	r3, [fp, #-40]
 3802 1230 013083E2 		add	r3, r3, #1
 3803 1234 28300BE5 		str	r3, [fp, #-40]
 717:/home/hkh/git/eapidk-code-r76-trunk/lib/linux/../EApiEmulI2C.c ****           WriteBCnt--;
 3804              		.loc 1 717 20
 3805 1238 2C301BE5 		ldr	r3, [fp, #-44]
 3806 123c 013043E2 		sub	r3, r3, #1
 3807 1240 2C300BE5 		str	r3, [fp, #-44]
 3808 1244 010000EA 		b	.L95
 3809              	.L94:
 718:/home/hkh/git/eapidk-code-r76-trunk/lib/linux/../EApiEmulI2C.c ****         }
 719:/home/hkh/git/eapidk-code-r76-trunk/lib/linux/../EApiEmulI2C.c ****         else
 720:/home/hkh/git/eapidk-code-r76-trunk/lib/linux/../EApiEmulI2C.c ****           LclAddr=Addr;
 3810              		.loc 1 720 18
 3811 1248 21305BE5 		ldrb	r3, [fp, #-33]	@ zero_extendqisi2
 3812 124c 10300BE5 		str	r3, [fp, #-16]
 3813              	.L95:
 721:/home/hkh/git/eapidk-code-r76-trunk/lib/linux/../EApiEmulI2C.c **** 
 722:/home/hkh/git/eapidk-code-r76-trunk/lib/linux/../EApiEmulI2C.c **** #if (STRICT_VALIDATION>1)
 723:/home/hkh/git/eapidk-code-r76-trunk/lib/linux/../EApiEmulI2C.c ****         siFormattedMessage_M2(
 3814              		.loc 1 723 9
 3815 1250 10301BE5 		ldr	r3, [fp, #-16]
 3816 1254 08308DE5 		str	r3, [sp, #8]
 3817 1258 9C329FE5 		ldr	r3, .L105+44
 3818              	.LPIC79:
 3819 125c 03308FE0 		add	r3, pc, r3
 3820 1260 04308DE5 		str	r3, [sp, #4]
 3821 1264 94329FE5 		ldr	r3, .L105+48
 3822              	.LPIC80:
 3823 1268 03308FE0 		add	r3, pc, r3
 3824 126c 00308DE5 		str	r3, [sp]
 3825 1270 D73200E3 		movw	r3, #727
 3826 1274 88229FE5 		ldr	r2, .L105+52
 3827              	.LPIC81:
 3828 1278 02208FE0 		add	r2, pc, r2
 3829 127c 84129FE5 		ldr	r1, .L105+56
 3830              	.LPIC82:
 3831 1280 01108FE0 		add	r1, pc, r1
 3832 1284 4C00A0E3 		mov	r0, #76
 3833 1288 FEFFFFEB 		bl	siFormattedMessage_M2(PLT)
 724:/home/hkh/git/eapidk-code-r76-trunk/lib/linux/../EApiEmulI2C.c ****               'L'                   ,
ARM GAS  /tmp/ccJiIEBf.s 			page 83


 725:/home/hkh/git/eapidk-code-r76-trunk/lib/linux/../EApiEmulI2C.c ****               __FILE__              ,
 726:/home/hkh/git/eapidk-code-r76-trunk/lib/linux/../EApiEmulI2C.c ****               "EApiI2CWriteReadEmul",
 727:/home/hkh/git/eapidk-code-r76-trunk/lib/linux/../EApiEmulI2C.c ****               __LINE__              ,
 728:/home/hkh/git/eapidk-code-r76-trunk/lib/linux/../EApiEmulI2C.c ****               "Info"                ,
 729:/home/hkh/git/eapidk-code-r76-trunk/lib/linux/../EApiEmulI2C.c ****               "ADDR=%02"PRIX16"\n"  ,
 730:/home/hkh/git/eapidk-code-r76-trunk/lib/linux/../EApiEmulI2C.c ****               LclAddr
 731:/home/hkh/git/eapidk-code-r76-trunk/lib/linux/../EApiEmulI2C.c ****             );
 732:/home/hkh/git/eapidk-code-r76-trunk/lib/linux/../EApiEmulI2C.c **** #endif
 733:/home/hkh/git/eapidk-code-r76-trunk/lib/linux/../EApiEmulI2C.c ****         for(i2=0;
 3834              		.loc 1 733 15
 3835 128c 0030A0E3 		mov	r3, #0
 3836 1290 14300BE5 		str	r3, [fp, #-20]
 3837              		.loc 1 733 9
 3838 1294 4C0000EA 		b	.L96
 3839              	.L103:
 734:/home/hkh/git/eapidk-code-r76-trunk/lib/linux/../EApiEmulI2C.c ****             EmulatedInterfaces[i].DevicesList[i2].EncAddr!=END_OF_LIST_MARK;
 735:/home/hkh/git/eapidk-code-r76-trunk/lib/linux/../EApiEmulI2C.c ****             i2++
 736:/home/hkh/git/eapidk-code-r76-trunk/lib/linux/../EApiEmulI2C.c ****             )
 737:/home/hkh/git/eapidk-code-r76-trunk/lib/linux/../EApiEmulI2C.c ****         {
 738:/home/hkh/git/eapidk-code-r76-trunk/lib/linux/../EApiEmulI2C.c ****           if(EmulatedInterfaces[i].DevicesList[i2].EncAddr==LclAddr){
 3840              		.loc 1 738 35
 3841 1298 6C129FE5 		ldr	r1, .L105+60
 3842              	.LPIC83:
 3843 129c 01108FE0 		add	r1, pc, r1
 3844 12a0 18201BE5 		ldr	r2, [fp, #-24]
 3845 12a4 0230A0E1 		mov	r3, r2
 3846 12a8 8330A0E1 		lsl	r3, r3, #1
 3847 12ac 023083E0 		add	r3, r3, r2
 3848 12b0 0331A0E1 		lsl	r3, r3, #2
 3849 12b4 033081E0 		add	r3, r1, r3
 3850 12b8 043083E2 		add	r3, r3, #4
 3851 12bc 001093E5 		ldr	r1, [r3]
 3852              		.loc 1 738 47
 3853 12c0 14201BE5 		ldr	r2, [fp, #-20]
 3854 12c4 0230A0E1 		mov	r3, r2
 3855 12c8 8330A0E1 		lsl	r3, r3, #1
 3856 12cc 023083E0 		add	r3, r3, r2
 3857 12d0 0331A0E1 		lsl	r3, r3, #2
 3858 12d4 033081E0 		add	r3, r1, r3
 3859              		.loc 1 738 51
 3860 12d8 003093E5 		ldr	r3, [r3]
 3861              		.loc 1 738 13
 3862 12dc 10201BE5 		ldr	r2, [fp, #-16]
 3863 12e0 030052E1 		cmp	r2, r3
 3864 12e4 3500001A 		bne	.L97
 739:/home/hkh/git/eapidk-code-r76-trunk/lib/linux/../EApiEmulI2C.c ****             return EmulatedInterfaces[i].DevicesList[i2].Emulator(
 3865              		.loc 1 739 41
 3866 12e8 20129FE5 		ldr	r1, .L105+64
 3867              	.LPIC84:
 3868 12ec 01108FE0 		add	r1, pc, r1
 3869 12f0 18201BE5 		ldr	r2, [fp, #-24]
 3870 12f4 0230A0E1 		mov	r3, r2
 3871 12f8 8330A0E1 		lsl	r3, r3, #1
 3872 12fc 023083E0 		add	r3, r3, r2
 3873 1300 0331A0E1 		lsl	r3, r3, #2
 3874 1304 033081E0 		add	r3, r1, r3
 3875 1308 043083E2 		add	r3, r3, #4
ARM GAS  /tmp/ccJiIEBf.s 			page 84


 3876 130c 001093E5 		ldr	r1, [r3]
 3877              		.loc 1 739 53
 3878 1310 14201BE5 		ldr	r2, [fp, #-20]
 3879 1314 0230A0E1 		mov	r3, r2
 3880 1318 8330A0E1 		lsl	r3, r3, #1
 3881 131c 023083E0 		add	r3, r3, r2
 3882 1320 0331A0E1 		lsl	r3, r3, #2
 3883 1324 033081E0 		add	r3, r1, r3
 3884              		.loc 1 739 57
 3885 1328 044093E5 		ldr	r4, [r3, #4]
 740:/home/hkh/git/eapidk-code-r76-trunk/lib/linux/../EApiEmulI2C.c ****                 EmulatedInterfaces[i].DevicesList[i2].Arg1, 
 3886              		.loc 1 740 38
 3887 132c E0119FE5 		ldr	r1, .L105+68
 3888              	.LPIC85:
 3889 1330 01108FE0 		add	r1, pc, r1
 3890 1334 18201BE5 		ldr	r2, [fp, #-24]
 3891 1338 0230A0E1 		mov	r3, r2
 3892 133c 8330A0E1 		lsl	r3, r3, #1
 3893 1340 023083E0 		add	r3, r3, r2
 3894 1344 0331A0E1 		lsl	r3, r3, #2
 3895 1348 033081E0 		add	r3, r1, r3
 3896 134c 043083E2 		add	r3, r3, #4
 3897 1350 001093E5 		ldr	r1, [r3]
 3898              		.loc 1 740 50
 3899 1354 14201BE5 		ldr	r2, [fp, #-20]
 3900 1358 0230A0E1 		mov	r3, r2
 3901 135c 8330A0E1 		lsl	r3, r3, #1
 3902 1360 023083E0 		add	r3, r3, r2
 3903 1364 0331A0E1 		lsl	r3, r3, #2
 3904 1368 033081E0 		add	r3, r1, r3
 3905              		.loc 1 740 54
 3906 136c 080093E5 		ldr	r0, [r3, #8]
 739:/home/hkh/git/eapidk-code-r76-trunk/lib/linux/../EApiEmulI2C.c ****             return EmulatedInterfaces[i].DevicesList[i2].Emulator(
 3907              		.loc 1 739 20
 3908 1370 2C301BE5 		ldr	r3, [fp, #-44]
 3909 1374 000053E3 		cmp	r3, #0
 3910 1378 0200000A 		beq	.L98
 739:/home/hkh/git/eapidk-code-r76-trunk/lib/linux/../EApiEmulI2C.c ****             return EmulatedInterfaces[i].DevicesList[i2].Emulator(
 3911              		.loc 1 739 20 is_stmt 0 discriminator 1
 3912 137c 2C301BE5 		ldr	r3, [fp, #-44]
 3913 1380 012043E2 		sub	r2, r3, #1
 3914 1384 000000EA 		b	.L99
 3915              	.L98:
 739:/home/hkh/git/eapidk-code-r76-trunk/lib/linux/../EApiEmulI2C.c ****             return EmulatedInterfaces[i].DevicesList[i2].Emulator(
 3916              		.loc 1 739 20 discriminator 2
 3917 1388 0020A0E3 		mov	r2, #0
 3918              	.L99:
 739:/home/hkh/git/eapidk-code-r76-trunk/lib/linux/../EApiEmulI2C.c ****             return EmulatedInterfaces[i].DevicesList[i2].Emulator(
 3919              		.loc 1 739 20 discriminator 4
 3920 138c 08309BE5 		ldr	r3, [fp, #8]
 3921 1390 000053E3 		cmp	r3, #0
 3922 1394 0200000A 		beq	.L100
 739:/home/hkh/git/eapidk-code-r76-trunk/lib/linux/../EApiEmulI2C.c ****             return EmulatedInterfaces[i].DevicesList[i2].Emulator(
 3923              		.loc 1 739 20 discriminator 5
 3924 1398 08309BE5 		ldr	r3, [fp, #8]
 3925 139c 013043E2 		sub	r3, r3, #1
 3926 13a0 000000EA 		b	.L101
ARM GAS  /tmp/ccJiIEBf.s 			page 85


 3927              	.L100:
 739:/home/hkh/git/eapidk-code-r76-trunk/lib/linux/../EApiEmulI2C.c ****             return EmulatedInterfaces[i].DevicesList[i2].Emulator(
 3928              		.loc 1 739 20 discriminator 6
 3929 13a4 0030A0E3 		mov	r3, #0
 3930              	.L101:
 739:/home/hkh/git/eapidk-code-r76-trunk/lib/linux/../EApiEmulI2C.c ****             return EmulatedInterfaces[i].DevicesList[i2].Emulator(
 3931              		.loc 1 739 20 discriminator 8
 3932 13a8 00308DE5 		str	r3, [sp]
 3933 13ac 04309BE5 		ldr	r3, [fp, #4]
 3934 13b0 28101BE5 		ldr	r1, [fp, #-40]
 3935 13b4 34FF2FE1 		blx	r4
 3936              	.LVL0:
 3937 13b8 0030A0E1 		mov	r3, r0
 3938 13bc 400000EA 		b	.L102
 3939              	.L97:
 735:/home/hkh/git/eapidk-code-r76-trunk/lib/linux/../EApiEmulI2C.c ****             )
 3940              		.loc 1 735 15 is_stmt 1
 3941 13c0 14301BE5 		ldr	r3, [fp, #-20]
 3942 13c4 013083E2 		add	r3, r3, #1
 3943 13c8 14300BE5 		str	r3, [fp, #-20]
 3944              	.L96:
 734:/home/hkh/git/eapidk-code-r76-trunk/lib/linux/../EApiEmulI2C.c ****             i2++
 3945              		.loc 1 734 34
 3946 13cc 44119FE5 		ldr	r1, .L105+72
 3947              	.LPIC86:
 3948 13d0 01108FE0 		add	r1, pc, r1
 3949 13d4 18201BE5 		ldr	r2, [fp, #-24]
 3950 13d8 0230A0E1 		mov	r3, r2
 3951 13dc 8330A0E1 		lsl	r3, r3, #1
 3952 13e0 023083E0 		add	r3, r3, r2
 3953 13e4 0331A0E1 		lsl	r3, r3, #2
 3954 13e8 033081E0 		add	r3, r1, r3
 3955 13ec 043083E2 		add	r3, r3, #4
 3956 13f0 001093E5 		ldr	r1, [r3]
 734:/home/hkh/git/eapidk-code-r76-trunk/lib/linux/../EApiEmulI2C.c ****             i2++
 3957              		.loc 1 734 46
 3958 13f4 14201BE5 		ldr	r2, [fp, #-20]
 3959 13f8 0230A0E1 		mov	r3, r2
 3960 13fc 8330A0E1 		lsl	r3, r3, #1
 3961 1400 023083E0 		add	r3, r3, r2
 3962 1404 0331A0E1 		lsl	r3, r3, #2
 3963 1408 033081E0 		add	r3, r1, r3
 734:/home/hkh/git/eapidk-code-r76-trunk/lib/linux/../EApiEmulI2C.c ****             i2++
 3964              		.loc 1 734 50
 3965 140c 003093E5 		ldr	r3, [r3]
 734:/home/hkh/git/eapidk-code-r76-trunk/lib/linux/../EApiEmulI2C.c ****             i2++
 3966              		.loc 1 734 58
 3967 1410 010073E3 		cmn	r3, #1
 3968 1414 9FFFFF1A 		bne	.L103
 741:/home/hkh/git/eapidk-code-r76-trunk/lib/linux/../EApiEmulI2C.c ****                 pWBuffer, 
 742:/home/hkh/git/eapidk-code-r76-trunk/lib/linux/../EApiEmulI2C.c ****                 (WriteBCnt?WriteBCnt-1:0), 
 743:/home/hkh/git/eapidk-code-r76-trunk/lib/linux/../EApiEmulI2C.c ****                 pRBuffer, 
 744:/home/hkh/git/eapidk-code-r76-trunk/lib/linux/../EApiEmulI2C.c ****                 (ReadBCnt?ReadBCnt-1:0)
 745:/home/hkh/git/eapidk-code-r76-trunk/lib/linux/../EApiEmulI2C.c ****                 );
 746:/home/hkh/git/eapidk-code-r76-trunk/lib/linux/../EApiEmulI2C.c ****           }
 747:/home/hkh/git/eapidk-code-r76-trunk/lib/linux/../EApiEmulI2C.c ****         }
 748:/home/hkh/git/eapidk-code-r76-trunk/lib/linux/../EApiEmulI2C.c ****         
ARM GAS  /tmp/ccJiIEBf.s 			page 86


 749:/home/hkh/git/eapidk-code-r76-trunk/lib/linux/../EApiEmulI2C.c ****         EAPI_LIB_RETURN_ERROR(
 3969              		.loc 1 749 9
 3970 1418 FC309FE5 		ldr	r3, .L105+76
 3971              	.LPIC87:
 3972 141c 03308FE0 		add	r3, pc, r3
 3973 1420 08308DE5 		str	r3, [sp, #8]
 3974 1424 F4309FE5 		ldr	r3, .L105+80
 3975              	.LPIC88:
 3976 1428 03308FE0 		add	r3, pc, r3
 3977 142c 04308DE5 		str	r3, [sp, #4]
 3978 1430 013BE0E3 		mvn	r3, #1024
 3979 1434 00308DE5 		str	r3, [sp]
 3980 1438 ED3200E3 		movw	r3, #749
 3981 143c E0209FE5 		ldr	r2, .L105+84
 3982              	.LPIC89:
 3983 1440 02208FE0 		add	r2, pc, r2
 3984 1444 DC109FE5 		ldr	r1, .L105+88
 3985              	.LPIC90:
 3986 1448 01108FE0 		add	r1, pc, r1
 3987 144c 4500A0E3 		mov	r0, #69
 3988 1450 FEFFFFEB 		bl	siFormattedMessage_SC(PLT)
 3989 1454 013BE0E3 		mvn	r3, #1024
 3990 1458 1C300BE5 		str	r3, [fp, #-28]
 3991 145c 170000EA 		b	.L92
 3992              	.L90:
 697:/home/hkh/git/eapidk-code-r76-trunk/lib/linux/../EApiEmulI2C.c ****   {
 3993              		.loc 1 697 45 discriminator 2
 3994 1460 18301BE5 		ldr	r3, [fp, #-24]
 3995 1464 013083E2 		add	r3, r3, #1
 3996 1468 18300BE5 		str	r3, [fp, #-24]
 3997              	.L89:
 697:/home/hkh/git/eapidk-code-r76-trunk/lib/linux/../EApiEmulI2C.c ****   {
 3998              		.loc 1 697 12 discriminator 1
 3999 146c 18301BE5 		ldr	r3, [fp, #-24]
 4000 1470 020053E3 		cmp	r3, #2
 4001 1474 0EFFFF9A 		bls	.L104
 750:/home/hkh/git/eapidk-code-r76-trunk/lib/linux/../EApiEmulI2C.c ****             EApiI2CWriteReadEmul, 
 751:/home/hkh/git/eapidk-code-r76-trunk/lib/linux/../EApiEmulI2C.c ****             EAPI_STATUS_NOT_FOUND  , 
 752:/home/hkh/git/eapidk-code-r76-trunk/lib/linux/../EApiEmulI2C.c ****             "Device Not Present"
 753:/home/hkh/git/eapidk-code-r76-trunk/lib/linux/../EApiEmulI2C.c ****             );
 754:/home/hkh/git/eapidk-code-r76-trunk/lib/linux/../EApiEmulI2C.c ****       }
 755:/home/hkh/git/eapidk-code-r76-trunk/lib/linux/../EApiEmulI2C.c ****   }
 756:/home/hkh/git/eapidk-code-r76-trunk/lib/linux/../EApiEmulI2C.c **** 
 757:/home/hkh/git/eapidk-code-r76-trunk/lib/linux/../EApiEmulI2C.c ****   EAPI_LIB_RETURN_ERROR(
 4002              		.loc 1 757 3
 4003 1478 AC309FE5 		ldr	r3, .L105+92
 4004              	.LPIC91:
 4005 147c 03308FE0 		add	r3, pc, r3
 4006 1480 08308DE5 		str	r3, [sp, #8]
 4007 1484 A4309FE5 		ldr	r3, .L105+96
 4008              	.LPIC92:
 4009 1488 03308FE0 		add	r3, pc, r3
 4010 148c 04308DE5 		str	r3, [sp, #4]
 4011 1490 033CE0E3 		mvn	r3, #768
 4012 1494 00308DE5 		str	r3, [sp]
 4013 1498 F53200E3 		movw	r3, #757
 4014 149c 90209FE5 		ldr	r2, .L105+100
ARM GAS  /tmp/ccJiIEBf.s 			page 87


 4015              	.LPIC93:
 4016 14a0 02208FE0 		add	r2, pc, r2
 4017 14a4 8C109FE5 		ldr	r1, .L105+104
 4018              	.LPIC94:
 4019 14a8 01108FE0 		add	r1, pc, r1
 4020 14ac 4500A0E3 		mov	r0, #69
 4021 14b0 FEFFFFEB 		bl	siFormattedMessage_SC(PLT)
 4022 14b4 033CE0E3 		mvn	r3, #768
 4023 14b8 1C300BE5 		str	r3, [fp, #-28]
 4024 14bc 00F020E3 		nop
 4025              	.L92:
 758:/home/hkh/git/eapidk-code-r76-trunk/lib/linux/../EApiEmulI2C.c ****       EApiI2CWriteReadEmul, 
 759:/home/hkh/git/eapidk-code-r76-trunk/lib/linux/../EApiEmulI2C.c ****       EAPI_STATUS_UNSUPPORTED  , 
 760:/home/hkh/git/eapidk-code-r76-trunk/lib/linux/../EApiEmulI2C.c ****       "Unrecognised I2C ID"
 761:/home/hkh/git/eapidk-code-r76-trunk/lib/linux/../EApiEmulI2C.c ****       );
 762:/home/hkh/git/eapidk-code-r76-trunk/lib/linux/../EApiEmulI2C.c **** EAPI_LIB_ASSERT_EXIT
 763:/home/hkh/git/eapidk-code-r76-trunk/lib/linux/../EApiEmulI2C.c **** /*  */
 764:/home/hkh/git/eapidk-code-r76-trunk/lib/linux/../EApiEmulI2C.c ****   return StatusCode;
 4026              		.loc 1 764 10
 4027 14c0 1C301BE5 		ldr	r3, [fp, #-28]
 4028              	.L102:
 765:/home/hkh/git/eapidk-code-r76-trunk/lib/linux/../EApiEmulI2C.c **** }
 4029              		.loc 1 765 1
 4030 14c4 0300A0E1 		mov	r0, r3
 4031 14c8 08D04BE2 		sub	sp, fp, #8
 4032              		.cfi_def_cfa 13, 12
 4033              		@ sp needed
 4034 14cc 1088BDE8 		pop	{r4, fp, pc}
 4035              	.L106:
 4036              		.align	2
 4037              	.L105:
 4038 14d0 10040000 		.word	EmulatedInterfaces-(.LPIC68+8)
 4039 14d4 E4030000 		.word	EmulatedInterfaces-(.LPIC69+8)
 4040 14d8 4C060000 		.word	.LC29-(.LPIC70+8)
 4041 14dc 84040000 		.word	.LC7-(.LPIC71+8)
 4042 14e0 14060000 		.word	.LC28-(.LPIC72+8)
 4043 14e4 A8030000 		.word	.LC4-(.LPIC73+8)
 4044 14e8 70030000 		.word	EmulatedInterfaces-(.LPIC74+8)
 4045 14ec F4050000 		.word	.LC30-(.LPIC75+8)
 4046 14f0 10040000 		.word	.LC7-(.LPIC76+8)
 4047 14f4 A0050000 		.word	.LC28-(.LPIC77+8)
 4048 14f8 34030000 		.word	.LC4-(.LPIC78+8)
 4049 14fc 68050000 		.word	.LC31-(.LPIC79+8)
 4050 1500 6C050000 		.word	.LC32-(.LPIC80+8)
 4051 1504 08050000 		.word	.LC28-(.LPIC81+8)
 4052 1508 9C020000 		.word	.LC4-(.LPIC82+8)
 4053 150c 68020000 		.word	EmulatedInterfaces-(.LPIC83+8)
 4054 1510 1C020000 		.word	EmulatedInterfaces-(.LPIC84+8)
 4055 1514 DC010000 		.word	EmulatedInterfaces-(.LPIC85+8)
 4056 1518 40010000 		.word	EmulatedInterfaces-(.LPIC86+8)
 4057 151c DC030000 		.word	.LC33-(.LPIC87+8)
 4058 1520 CC010000 		.word	.LC7-(.LPIC88+8)
 4059 1524 60030000 		.word	.LC28-(.LPIC89+8)
 4060 1528 F4000000 		.word	.LC4-(.LPIC90+8)
 4061 152c 18030000 		.word	.LC27-(.LPIC91+8)
 4062 1530 7C010000 		.word	.LC7-(.LPIC92+8)
 4063 1534 10030000 		.word	.LC28-(.LPIC93+8)
ARM GAS  /tmp/ccJiIEBf.s 			page 88


 4064 1538 A4000000 		.word	.LC4-(.LPIC94+8)
 4065              		.cfi_endproc
 4066              	.LFE13:
 4068              	.Letext0:
 4069              		.file 2 "/home/hkh/buildroot-2022.02/output/host/arm-buildroot-linux-musleabihf/sysroot/usr/includ
 4070              		.file 3 "../../include/EApi.h"
 4071              		.file 4 "/home/hkh/git/eapidk-code-r76-trunk/lib/linux/../DIDData.h"
 4072              		.file 5 "/home/hkh/git/eapidk-code-r76-trunk/lib/linux/../UDSData.h"
 4073              		.file 6 "/home/hkh/git/eapidk-code-r76-trunk/lib/linux/../EPIData.h"
 4074              		.file 7 "/home/hkh/buildroot-2022.02/output/host/arm-buildroot-linux-musleabihf/sysroot/usr/includ
 4075              		.file 8 "/home/hkh/buildroot-2022.02/output/host/arm-buildroot-linux-musleabihf/sysroot/usr/includ
 4076              		.file 9 "../include/DbgChk.h"
 4077              		.file 10 "../../include/linux/EApiOs.h"
ARM GAS  /tmp/ccJiIEBf.s 			page 89

