ARM GAS  /tmp/ccmTPeQn.s 			page 1


   1              		.cpu cortex-a9
   2              		.eabi_attribute 28, 1
   3              		.eabi_attribute 20, 1
   4              		.eabi_attribute 21, 1
   5              		.eabi_attribute 23, 3
   6              		.eabi_attribute 24, 1
   7              		.eabi_attribute 25, 1
   8              		.eabi_attribute 26, 2
   9              		.eabi_attribute 30, 6
  10              		.eabi_attribute 34, 1
  11              		.eabi_attribute 18, 4
  12              		.file	"EApiAPI.cpp"
  13              		.text
  14              	.Ltext0:
  15              		.cfi_sections	.debug_frame
  16              		.hidden	Initialized
  17              		.global	Initialized
  18              		.bss
  19              		.align	2
  22              	Initialized:
  23 0000 00000000 		.space	4
  24              		.section	.rodata
  25              		.align	2
  26              	.LC0:
  27 0000 45417069 		.ascii	"EApiI2CGetBusCap\000"
  27      49324347 
  27      65744275 
  27      73436170 
  27      00
  28 0011 000000   		.align	2
  29              	.LC1:
  30 0014 2F686F6D 		.ascii	"/home/hkh/git/eapidk-code-r76-trunk/lib/linux/../EA"
  30      652F686B 
  30      682F6769 
  30      742F6561 
  30      7069646B 
  31 0047 70694150 		.ascii	"piAPI.cpp\000"
  31      492E6370 
  31      7000
  32 0051 000000   		.align	2
  33              	.LC2:
  34 0054 4C696272 		.ascii	"Library Uninitialized\000"
  34      61727920 
  34      556E696E 
  34      69746961 
  34      6C697A65 
  35 006a 0000     		.align	2
  36              	.LC3:
  37 006c 25730A00 		.ascii	"%s\012\000"
  38              		.align	2
  39              	.LC4:
  40 0070 28704D61 		.ascii	"(pMaxBlkLen==NULL)\000"
  40      78426C6B 
  40      4C656E3D 
  40      3D4E554C 
  40      4C2900
  41              		.text
ARM GAS  /tmp/ccmTPeQn.s 			page 2


  42              		.align	2
  43              		.global	EApiI2CGetBusCap
  44              		.arch armv7-a
  45              		.arch_extension mp
  46              		.arch_extension sec
  47              		.syntax unified
  48              		.arm
  49              		.fpu vfpv3
  51              	EApiI2CGetBusCap:
  52              	.LFB1:
  53              		.file 1 "/home/hkh/git/eapidk-code-r76-trunk/lib/linux/../EApiAPI.cpp"
   1:/home/hkh/git/eapidk-code-r76-trunk/lib/linux/../EApiAPI.cpp **** /*
   2:/home/hkh/git/eapidk-code-r76-trunk/lib/linux/../EApiAPI.cpp ****  *<KHeader>
   3:/home/hkh/git/eapidk-code-r76-trunk/lib/linux/../EApiAPI.cpp ****  *+=========================================================================
   4:/home/hkh/git/eapidk-code-r76-trunk/lib/linux/../EApiAPI.cpp ****  *I  Project Name: EApiDK Embedded Application Development Kit
   5:/home/hkh/git/eapidk-code-r76-trunk/lib/linux/../EApiAPI.cpp ****  *+=========================================================================
   6:/home/hkh/git/eapidk-code-r76-trunk/lib/linux/../EApiAPI.cpp ****  *I  $HeadURL: file:///svn/p/eapidk/code/trunk/lib/EApiAPI.cpp $
   7:/home/hkh/git/eapidk-code-r76-trunk/lib/linux/../EApiAPI.cpp ****  *+=========================================================================
   8:/home/hkh/git/eapidk-code-r76-trunk/lib/linux/../EApiAPI.cpp ****  *I   Copyright: Copyright (c) 2002-2009, Kontron Embedded Modules GmbH
   9:/home/hkh/git/eapidk-code-r76-trunk/lib/linux/../EApiAPI.cpp ****  *I      Author: John Kearney,                  John.Kearney@kontron.com
  10:/home/hkh/git/eapidk-code-r76-trunk/lib/linux/../EApiAPI.cpp ****  *I
  11:/home/hkh/git/eapidk-code-r76-trunk/lib/linux/../EApiAPI.cpp ****  *I     License: All rights reserved. This program and the accompanying 
  12:/home/hkh/git/eapidk-code-r76-trunk/lib/linux/../EApiAPI.cpp ****  *I              materials are licensed and made available under the 
  13:/home/hkh/git/eapidk-code-r76-trunk/lib/linux/../EApiAPI.cpp ****  *I              terms and conditions of the BSD License which 
  14:/home/hkh/git/eapidk-code-r76-trunk/lib/linux/../EApiAPI.cpp ****  *I              accompanies this distribution. The full text of the 
  15:/home/hkh/git/eapidk-code-r76-trunk/lib/linux/../EApiAPI.cpp ****  *I              license may be found at 
  16:/home/hkh/git/eapidk-code-r76-trunk/lib/linux/../EApiAPI.cpp ****  *I              http://opensource.org/licenses/bsd-license.php
  17:/home/hkh/git/eapidk-code-r76-trunk/lib/linux/../EApiAPI.cpp ****  *I              
  18:/home/hkh/git/eapidk-code-r76-trunk/lib/linux/../EApiAPI.cpp ****  *I              THE PROGRAM IS DISTRIBUTED UNDER THE BSD LICENSE ON AN "
  19:/home/hkh/git/eapidk-code-r76-trunk/lib/linux/../EApiAPI.cpp ****  *I              AS IS" BASIS, WITHOUT WARRANTIES OR REPRESENTATIONS OF 
  20:/home/hkh/git/eapidk-code-r76-trunk/lib/linux/../EApiAPI.cpp ****  *I              ANY KIND, EITHER EXPRESS OR IMPLIED.
  21:/home/hkh/git/eapidk-code-r76-trunk/lib/linux/../EApiAPI.cpp ****  *I
  22:/home/hkh/git/eapidk-code-r76-trunk/lib/linux/../EApiAPI.cpp ****  *I Description: Auto Created for EApiAPI.cpp
  23:/home/hkh/git/eapidk-code-r76-trunk/lib/linux/../EApiAPI.cpp ****  *I
  24:/home/hkh/git/eapidk-code-r76-trunk/lib/linux/../EApiAPI.cpp ****  *+-------------------------------------------------------------------------
  25:/home/hkh/git/eapidk-code-r76-trunk/lib/linux/../EApiAPI.cpp ****  *I
  26:/home/hkh/git/eapidk-code-r76-trunk/lib/linux/../EApiAPI.cpp ****  *I  File Name            : EApiAPI.cpp
  27:/home/hkh/git/eapidk-code-r76-trunk/lib/linux/../EApiAPI.cpp ****  *I  File Location        : lib
  28:/home/hkh/git/eapidk-code-r76-trunk/lib/linux/../EApiAPI.cpp ****  *I  Last committed       : $Revision: 74 $
  29:/home/hkh/git/eapidk-code-r76-trunk/lib/linux/../EApiAPI.cpp ****  *I  Last changed by      : $Author: dethrophes $
  30:/home/hkh/git/eapidk-code-r76-trunk/lib/linux/../EApiAPI.cpp ****  *I  Last changed date    : $Date: 2010-06-23 19:26:50 +0000 (Wed, 23 Jun 2010) $
  31:/home/hkh/git/eapidk-code-r76-trunk/lib/linux/../EApiAPI.cpp ****  *I  ID                   : $Id: EApiAPI.cpp 74 2010-06-23 19:26:50Z dethrophes $
  32:/home/hkh/git/eapidk-code-r76-trunk/lib/linux/../EApiAPI.cpp ****  *I
  33:/home/hkh/git/eapidk-code-r76-trunk/lib/linux/../EApiAPI.cpp ****  *+=========================================================================
  34:/home/hkh/git/eapidk-code-r76-trunk/lib/linux/../EApiAPI.cpp ****  *</KHeader>
  35:/home/hkh/git/eapidk-code-r76-trunk/lib/linux/../EApiAPI.cpp ****  */
  36:/home/hkh/git/eapidk-code-r76-trunk/lib/linux/../EApiAPI.cpp **** 
  37:/home/hkh/git/eapidk-code-r76-trunk/lib/linux/../EApiAPI.cpp **** #include <EApiLib.h>
  38:/home/hkh/git/eapidk-code-r76-trunk/lib/linux/../EApiAPI.cpp **** 
  39:/home/hkh/git/eapidk-code-r76-trunk/lib/linux/../EApiAPI.cpp **** 
  40:/home/hkh/git/eapidk-code-r76-trunk/lib/linux/../EApiAPI.cpp **** int Initialized=0;
  41:/home/hkh/git/eapidk-code-r76-trunk/lib/linux/../EApiAPI.cpp **** #define EAPI_CHECK_NOT_INITIALIZED(FuncName) \
  42:/home/hkh/git/eapidk-code-r76-trunk/lib/linux/../EApiAPI.cpp ****   EAPI_LIB_RETURN_ERROR_IF(\
  43:/home/hkh/git/eapidk-code-r76-trunk/lib/linux/../EApiAPI.cpp ****       FuncName, \
  44:/home/hkh/git/eapidk-code-r76-trunk/lib/linux/../EApiAPI.cpp ****       Initialized==1, \
  45:/home/hkh/git/eapidk-code-r76-trunk/lib/linux/../EApiAPI.cpp ****       EAPI_STATUS_NOT_INITIALIZED, \
  46:/home/hkh/git/eapidk-code-r76-trunk/lib/linux/../EApiAPI.cpp ****       "Library Already Initialized" \
ARM GAS  /tmp/ccmTPeQn.s 			page 3


  47:/home/hkh/git/eapidk-code-r76-trunk/lib/linux/../EApiAPI.cpp ****       )
  48:/home/hkh/git/eapidk-code-r76-trunk/lib/linux/../EApiAPI.cpp **** 
  49:/home/hkh/git/eapidk-code-r76-trunk/lib/linux/../EApiAPI.cpp **** #define EAPI_CHECK_INITIALIZED(FuncName) \
  50:/home/hkh/git/eapidk-code-r76-trunk/lib/linux/../EApiAPI.cpp ****   EAPI_LIB_RETURN_ERROR_IF(FuncName, \
  51:/home/hkh/git/eapidk-code-r76-trunk/lib/linux/../EApiAPI.cpp ****       Initialized==0, \
  52:/home/hkh/git/eapidk-code-r76-trunk/lib/linux/../EApiAPI.cpp ****       EAPI_STATUS_NOT_INITIALIZED, \
  53:/home/hkh/git/eapidk-code-r76-trunk/lib/linux/../EApiAPI.cpp ****       "Library Uninitialized" \
  54:/home/hkh/git/eapidk-code-r76-trunk/lib/linux/../EApiAPI.cpp ****       )
  55:/home/hkh/git/eapidk-code-r76-trunk/lib/linux/../EApiAPI.cpp **** 
  56:/home/hkh/git/eapidk-code-r76-trunk/lib/linux/../EApiAPI.cpp **** /*
  57:/home/hkh/git/eapidk-code-r76-trunk/lib/linux/../EApiAPI.cpp ****  *
  58:/home/hkh/git/eapidk-code-r76-trunk/lib/linux/../EApiAPI.cpp ****  *  
  59:/home/hkh/git/eapidk-code-r76-trunk/lib/linux/../EApiAPI.cpp ****  *
  60:/home/hkh/git/eapidk-code-r76-trunk/lib/linux/../EApiAPI.cpp ****  *      I2C
  61:/home/hkh/git/eapidk-code-r76-trunk/lib/linux/../EApiAPI.cpp ****  *
  62:/home/hkh/git/eapidk-code-r76-trunk/lib/linux/../EApiAPI.cpp ****  *
  63:/home/hkh/git/eapidk-code-r76-trunk/lib/linux/../EApiAPI.cpp ****  *
  64:/home/hkh/git/eapidk-code-r76-trunk/lib/linux/../EApiAPI.cpp ****  */
  65:/home/hkh/git/eapidk-code-r76-trunk/lib/linux/../EApiAPI.cpp **** uint32_t 
  66:/home/hkh/git/eapidk-code-r76-trunk/lib/linux/../EApiAPI.cpp **** EAPI_CALLTYPE
  67:/home/hkh/git/eapidk-code-r76-trunk/lib/linux/../EApiAPI.cpp **** EApiI2CGetBusCap(
  68:/home/hkh/git/eapidk-code-r76-trunk/lib/linux/../EApiAPI.cpp ****     __IN  EApiId_t  Id         , /* I2C Bus Id */
  69:/home/hkh/git/eapidk-code-r76-trunk/lib/linux/../EApiAPI.cpp ****     __OUT uint32_t *pMaxBlkLen   /* Max Block Length 
  70:/home/hkh/git/eapidk-code-r76-trunk/lib/linux/../EApiAPI.cpp ****                                   * Supported on this
  71:/home/hkh/git/eapidk-code-r76-trunk/lib/linux/../EApiAPI.cpp ****                                   * interface 
  72:/home/hkh/git/eapidk-code-r76-trunk/lib/linux/../EApiAPI.cpp ****                                   */
  73:/home/hkh/git/eapidk-code-r76-trunk/lib/linux/../EApiAPI.cpp ****     )
  74:/home/hkh/git/eapidk-code-r76-trunk/lib/linux/../EApiAPI.cpp **** {
  54              		.loc 1 74 1
  55              		.cfi_startproc
  56              		@ args = 0, pretend = 0, frame = 16
  57              		@ frame_needed = 1, uses_anonymous_args = 0
  58 0000 00482DE9 		push	{fp, lr}
  59              		.cfi_def_cfa_offset 8
  60              		.cfi_offset 11, -8
  61              		.cfi_offset 14, -4
  62 0004 04B08DE2 		add	fp, sp, #4
  63              		.cfi_def_cfa 11, 4
  64 0008 20D04DE2 		sub	sp, sp, #32
  65 000c 10000BE5 		str	r0, [fp, #-16]
  66 0010 14100BE5 		str	r1, [fp, #-20]
  75:/home/hkh/git/eapidk-code-r76-trunk/lib/linux/../EApiAPI.cpp ****   EApiStatus_t StatusCode;
  76:/home/hkh/git/eapidk-code-r76-trunk/lib/linux/../EApiAPI.cpp ****   EAPI_CHECK_INITIALIZED(EApiI2CGetBusCap);
  67              		.loc 1 76 3
  68 0014 C8309FE5 		ldr	r3, .L6
  69              	.LPIC0:
  70 0018 03308FE0 		add	r3, pc, r3
  71 001c 003093E5 		ldr	r3, [r3]
  72 0020 000053E3 		cmp	r3, #0
  73 0024 1100001A 		bne	.L2
  74              		.loc 1 76 3 is_stmt 0 discriminator 1
  75 0028 B8309FE5 		ldr	r3, .L6+4
  76              	.LPIC1:
  77 002c 03308FE0 		add	r3, pc, r3
  78 0030 08308DE5 		str	r3, [sp, #8]
  79 0034 B0309FE5 		ldr	r3, .L6+8
  80              	.LPIC2:
ARM GAS  /tmp/ccmTPeQn.s 			page 4


  81 0038 03308FE0 		add	r3, pc, r3
  82 003c 04308DE5 		str	r3, [sp, #4]
  83 0040 0030E0E3 		mvn	r3, #0
  84 0044 00308DE5 		str	r3, [sp]
  85 0048 4C30A0E3 		mov	r3, #76
  86 004c 9C209FE5 		ldr	r2, .L6+12
  87              	.LPIC3:
  88 0050 02208FE0 		add	r2, pc, r2
  89 0054 98109FE5 		ldr	r1, .L6+16
  90              	.LPIC4:
  91 0058 01108FE0 		add	r1, pc, r1
  92 005c 4500A0E3 		mov	r0, #69
  93 0060 FEFFFFEB 		bl	siFormattedMessage_SC(PLT)
  94 0064 0030E0E3 		mvn	r3, #0
  95 0068 08300BE5 		str	r3, [fp, #-8]
  96 006c 180000EA 		b	.L3
  97              	.L2:
  77:/home/hkh/git/eapidk-code-r76-trunk/lib/linux/../EApiAPI.cpp ****   EAPI_LIB_ASSERT_PARAMATER_NULL(EApiI2CGetBusCap, pMaxBlkLen);
  98              		.loc 1 77 3 is_stmt 1
  99 0070 14301BE5 		ldr	r3, [fp, #-20]
 100 0074 000053E3 		cmp	r3, #0
 101 0078 1100001A 		bne	.L4
 102              		.loc 1 77 3 is_stmt 0 discriminator 1
 103 007c 74309FE5 		ldr	r3, .L6+20
 104              	.LPIC5:
 105 0080 03308FE0 		add	r3, pc, r3
 106 0084 08308DE5 		str	r3, [sp, #8]
 107 0088 6C309FE5 		ldr	r3, .L6+24
 108              	.LPIC6:
 109 008c 03308FE0 		add	r3, pc, r3
 110 0090 04308DE5 		str	r3, [sp, #4]
 111 0094 013CE0E3 		mvn	r3, #256
 112 0098 00308DE5 		str	r3, [sp]
 113 009c 4D30A0E3 		mov	r3, #77
 114 00a0 58209FE5 		ldr	r2, .L6+28
 115              	.LPIC7:
 116 00a4 02208FE0 		add	r2, pc, r2
 117 00a8 54109FE5 		ldr	r1, .L6+32
 118              	.LPIC8:
 119 00ac 01108FE0 		add	r1, pc, r1
 120 00b0 4500A0E3 		mov	r0, #69
 121 00b4 FEFFFFEB 		bl	siFormattedMessage_SC(PLT)
 122 00b8 013CE0E3 		mvn	r3, #256
 123 00bc 08300BE5 		str	r3, [fp, #-8]
 124 00c0 030000EA 		b	.L3
 125              	.L4:
  78:/home/hkh/git/eapidk-code-r76-trunk/lib/linux/../EApiAPI.cpp **** 
  79:/home/hkh/git/eapidk-code-r76-trunk/lib/linux/../EApiAPI.cpp ****   StatusCode=EApiI2CGetBusCapEmul(Id, pMaxBlkLen);
 126              		.loc 1 79 14 is_stmt 1
 127 00c4 14101BE5 		ldr	r1, [fp, #-20]
 128 00c8 10001BE5 		ldr	r0, [fp, #-16]
 129 00cc FEFFFFEB 		bl	EApiI2CGetBusCapEmul(PLT)
 130 00d0 08000BE5 		str	r0, [fp, #-8]
 131              	.L3:
  80:/home/hkh/git/eapidk-code-r76-trunk/lib/linux/../EApiAPI.cpp **** EAPI_LIB_ASSERT_EXIT
  81:/home/hkh/git/eapidk-code-r76-trunk/lib/linux/../EApiAPI.cpp ****   return StatusCode;
 132              		.loc 1 81 10
ARM GAS  /tmp/ccmTPeQn.s 			page 5


 133 00d4 08301BE5 		ldr	r3, [fp, #-8]
  82:/home/hkh/git/eapidk-code-r76-trunk/lib/linux/../EApiAPI.cpp **** }
 134              		.loc 1 82 1
 135 00d8 0300A0E1 		mov	r0, r3
 136 00dc 04D04BE2 		sub	sp, fp, #4
 137              		.cfi_def_cfa 13, 8
 138              		@ sp needed
 139 00e0 0088BDE8 		pop	{fp, pc}
 140              	.L7:
 141              		.align	2
 142              	.L6:
 143 00e4 C4000000 		.word	Initialized-(.LPIC0+8)
 144 00e8 08010000 		.word	.LC2-(.LPIC1+8)
 145 00ec 18010000 		.word	.LC3-(.LPIC2+8)
 146 00f0 98000000 		.word	.LC0-(.LPIC3+8)
 147 00f4 A8000000 		.word	.LC1-(.LPIC4+8)
 148 00f8 E0000000 		.word	.LC4-(.LPIC5+8)
 149 00fc D4000000 		.word	.LC3-(.LPIC6+8)
 150 0100 54000000 		.word	.LC0-(.LPIC7+8)
 151 0104 64000000 		.word	.LC1-(.LPIC8+8)
 152              		.cfi_endproc
 153              	.LFE1:
 155              		.section	.rodata
 156 0083 00       		.align	2
 157              	.LC5:
 158 0084 45417069 		.ascii	"EApiI2CWriteReadRaw\000"
 158      49324357 
 158      72697465 
 158      52656164 
 158      52617700 
 159              		.align	2
 160              	.LC6:
 161 0098 70574275 		.ascii	"pWBuffer is NULL\000"
 161      66666572 
 161      20697320 
 161      4E554C4C 
 161      00
 162 00a9 000000   		.align	2
 163              	.LC7:
 164 00ac 45417069 		.ascii	"EApiI2CWriteTransfer\000"
 164      49324357 
 164      72697465 
 164      5472616E 
 164      73666572 
 165 00c1 000000   		.align	2
 166              	.LC8:
 167 00c4 41444452 		.ascii	"ADDR=%02X WriteBCnt=%04X RBufLen=%04X WriteBCnt=%04"
 167      3D253032 
 167      58205772 
 167      69746542 
 167      436E743D 
 168 00f7 58205265 		.ascii	"X ReadBCnt=%04X %08X\012\000"
 168      61644243 
 168      6E743D25 
 168      30345820 
 168      25303858 
 169 010d 000000   		.align	2
ARM GAS  /tmp/ccmTPeQn.s 			page 6


 170              	.LC9:
 171 0110 496E666F 		.ascii	"Info\000"
 171      00
 172 0115 000000   		.align	2
 173              	.LC10:
 174 0118 70524275 		.ascii	"pRBuffer is NULL\000"
 174      66666572 
 174      20697320 
 174      4E554C4C 
 174      00
 175 0129 000000   		.align	2
 176              	.LC11:
 177 012c 52427566 		.ascii	"RBufLen is ZERO\000"
 177      4C656E20 
 177      6973205A 
 177      45524F00 
 178              		.align	2
 179              	.LC12:
 180 013c 4E4F2052 		.ascii	"NO READ NO WRITE\000"
 180      45414420 
 180      4E4F2057 
 180      52495445 
 180      00
 181 014d 000000   		.align	2
 182              	.LC13:
 183 0150 20704275 		.ascii	" pBuffer Overflow PreventedReadBCnt>RBufLen+1\000"
 183      66666572 
 183      204F7665 
 183      72666C6F 
 183      77205072 
 184              		.text
 185              		.align	2
 186              		.global	EApiI2CWriteReadRaw
 187              		.syntax unified
 188              		.arm
 189              		.fpu vfpv3
 191              	EApiI2CWriteReadRaw:
 192              	.LFB2:
  83:/home/hkh/git/eapidk-code-r76-trunk/lib/linux/../EApiAPI.cpp **** 
  84:/home/hkh/git/eapidk-code-r76-trunk/lib/linux/../EApiAPI.cpp **** EApiStatus_t 
  85:/home/hkh/git/eapidk-code-r76-trunk/lib/linux/../EApiAPI.cpp **** EAPI_CALLTYPE 
  86:/home/hkh/git/eapidk-code-r76-trunk/lib/linux/../EApiAPI.cpp **** EApiI2CWriteReadRaw(
  87:/home/hkh/git/eapidk-code-r76-trunk/lib/linux/../EApiAPI.cpp ****     __IN     EApiId_t  Id       , /* I2C Bus Id */
  88:/home/hkh/git/eapidk-code-r76-trunk/lib/linux/../EApiAPI.cpp ****     __IN     uint8_t   Addr     , /* Encoded 7Bit I2C
  89:/home/hkh/git/eapidk-code-r76-trunk/lib/linux/../EApiAPI.cpp ****                                    * Device Address 
  90:/home/hkh/git/eapidk-code-r76-trunk/lib/linux/../EApiAPI.cpp ****                                    */
  91:/home/hkh/git/eapidk-code-r76-trunk/lib/linux/../EApiAPI.cpp ****     __INOPT  void     *pWBuffer , /* Write Data pBuffer */
  92:/home/hkh/git/eapidk-code-r76-trunk/lib/linux/../EApiAPI.cpp ****     __IN     uint32_t  WriteBCnt, /* Number of Bytes to 
  93:/home/hkh/git/eapidk-code-r76-trunk/lib/linux/../EApiAPI.cpp ****                                    * write 
  94:/home/hkh/git/eapidk-code-r76-trunk/lib/linux/../EApiAPI.cpp ****                                    */
  95:/home/hkh/git/eapidk-code-r76-trunk/lib/linux/../EApiAPI.cpp ****     __OUTOPT void     *pRBuffer , /* Read Data pBuffer */
  96:/home/hkh/git/eapidk-code-r76-trunk/lib/linux/../EApiAPI.cpp ****     __IN     uint32_t  RBufLen  , /* Data pBuffer Length */
  97:/home/hkh/git/eapidk-code-r76-trunk/lib/linux/../EApiAPI.cpp ****     __IN     uint32_t  ReadBCnt   /* Number of Bytes to 
  98:/home/hkh/git/eapidk-code-r76-trunk/lib/linux/../EApiAPI.cpp ****                                    * Read 
  99:/home/hkh/git/eapidk-code-r76-trunk/lib/linux/../EApiAPI.cpp ****                                    */
 100:/home/hkh/git/eapidk-code-r76-trunk/lib/linux/../EApiAPI.cpp ****     )
 101:/home/hkh/git/eapidk-code-r76-trunk/lib/linux/../EApiAPI.cpp **** {
ARM GAS  /tmp/ccmTPeQn.s 			page 7


 193              		.loc 1 101 1
 194              		.cfi_startproc
 195              		@ args = 12, pretend = 0, frame = 24
 196              		@ frame_needed = 1, uses_anonymous_args = 0
 197 0108 00482DE9 		push	{fp, lr}
 198              		.cfi_def_cfa_offset 8
 199              		.cfi_offset 11, -8
 200              		.cfi_offset 14, -4
 201 010c 04B08DE2 		add	fp, sp, #4
 202              		.cfi_def_cfa 11, 4
 203 0110 38D04DE2 		sub	sp, sp, #56
 204 0114 10000BE5 		str	r0, [fp, #-16]
 205 0118 18200BE5 		str	r2, [fp, #-24]
 206 011c 1C300BE5 		str	r3, [fp, #-28]
 207 0120 0130A0E1 		mov	r3, r1
 208 0124 11304BE5 		strb	r3, [fp, #-17]
 102:/home/hkh/git/eapidk-code-r76-trunk/lib/linux/../EApiAPI.cpp ****   EApiStatus_t StatusCode=EAPI_STATUS_SUCCESS;
 209              		.loc 1 102 16
 210 0128 0030A0E3 		mov	r3, #0
 211 012c 0C300BE5 		str	r3, [fp, #-12]
 103:/home/hkh/git/eapidk-code-r76-trunk/lib/linux/../EApiAPI.cpp ****   EApiStatus_t ErrorCode2;
 104:/home/hkh/git/eapidk-code-r76-trunk/lib/linux/../EApiAPI.cpp ****   EAPI_CHECK_INITIALIZED(EApiI2CWriteReadRaw);
 212              		.loc 1 104 3
 213 0130 08339FE5 		ldr	r3, .L20
 214              	.LPIC9:
 215 0134 03308FE0 		add	r3, pc, r3
 216 0138 003093E5 		ldr	r3, [r3]
 217 013c 000053E3 		cmp	r3, #0
 218 0140 1100001A 		bne	.L9
 219              		.loc 1 104 3 is_stmt 0 discriminator 1
 220 0144 F8329FE5 		ldr	r3, .L20+4
 221              	.LPIC10:
 222 0148 03308FE0 		add	r3, pc, r3
 223 014c 08308DE5 		str	r3, [sp, #8]
 224 0150 F0329FE5 		ldr	r3, .L20+8
 225              	.LPIC11:
 226 0154 03308FE0 		add	r3, pc, r3
 227 0158 04308DE5 		str	r3, [sp, #4]
 228 015c 0030E0E3 		mvn	r3, #0
 229 0160 00308DE5 		str	r3, [sp]
 230 0164 6830A0E3 		mov	r3, #104
 231 0168 DC229FE5 		ldr	r2, .L20+12
 232              	.LPIC12:
 233 016c 02208FE0 		add	r2, pc, r2
 234 0170 D8129FE5 		ldr	r1, .L20+16
 235              	.LPIC13:
 236 0174 01108FE0 		add	r1, pc, r1
 237 0178 4500A0E3 		mov	r0, #69
 238 017c FEFFFFEB 		bl	siFormattedMessage_SC(PLT)
 239 0180 0030E0E3 		mvn	r3, #0
 240 0184 0C300BE5 		str	r3, [fp, #-12]
 241 0188 A80000EA 		b	.L10
 242              	.L9:
 105:/home/hkh/git/eapidk-code-r76-trunk/lib/linux/../EApiAPI.cpp ****   EAPI_LIB_ASSERT_PARAMATER_CHECK(
 243              		.loc 1 105 3 is_stmt 1
 244 018c 1C301BE5 		ldr	r3, [fp, #-28]
 245 0190 010053E3 		cmp	r3, #1
ARM GAS  /tmp/ccmTPeQn.s 			page 8


 246 0194 1400009A 		bls	.L11
 247              		.loc 1 105 3 is_stmt 0 discriminator 1
 248 0198 18301BE5 		ldr	r3, [fp, #-24]
 249 019c 000053E3 		cmp	r3, #0
 250 01a0 1100001A 		bne	.L11
 251              		.loc 1 105 3 discriminator 2
 252 01a4 A8329FE5 		ldr	r3, .L20+20
 253              	.LPIC14:
 254 01a8 03308FE0 		add	r3, pc, r3
 255 01ac 08308DE5 		str	r3, [sp, #8]
 256 01b0 A0329FE5 		ldr	r3, .L20+24
 257              	.LPIC15:
 258 01b4 03308FE0 		add	r3, pc, r3
 259 01b8 04308DE5 		str	r3, [sp, #4]
 260 01bc 013CE0E3 		mvn	r3, #256
 261 01c0 00308DE5 		str	r3, [sp]
 262 01c4 6930A0E3 		mov	r3, #105
 263 01c8 8C229FE5 		ldr	r2, .L20+28
 264              	.LPIC16:
 265 01cc 02208FE0 		add	r2, pc, r2
 266 01d0 88129FE5 		ldr	r1, .L20+32
 267              	.LPIC17:
 268 01d4 01108FE0 		add	r1, pc, r1
 269 01d8 4500A0E3 		mov	r0, #69
 270 01dc FEFFFFEB 		bl	siFormattedMessage_SC(PLT)
 271 01e0 013CE0E3 		mvn	r3, #256
 272 01e4 0C300BE5 		str	r3, [fp, #-12]
 273 01e8 900000EA 		b	.L10
 274              	.L11:
 106:/home/hkh/git/eapidk-code-r76-trunk/lib/linux/../EApiAPI.cpp ****       EApiI2CWriteReadRaw, 
 107:/home/hkh/git/eapidk-code-r76-trunk/lib/linux/../EApiAPI.cpp ****       (WriteBCnt>1)&&(pWBuffer==NULL), 
 108:/home/hkh/git/eapidk-code-r76-trunk/lib/linux/../EApiAPI.cpp ****       "pWBuffer is NULL"          
 109:/home/hkh/git/eapidk-code-r76-trunk/lib/linux/../EApiAPI.cpp ****       );
 110:/home/hkh/git/eapidk-code-r76-trunk/lib/linux/../EApiAPI.cpp **** #if (STRICT_VALIDATION>1)
 111:/home/hkh/git/eapidk-code-r76-trunk/lib/linux/../EApiAPI.cpp ****   siFormattedMessage_M2(
 275              		.loc 1 111 3 is_stmt 1
 276 01ec 11205BE5 		ldrb	r2, [fp, #-17]	@ zero_extendqisi2
 277 01f0 1C301BE5 		ldr	r3, [fp, #-28]
 278 01f4 000053E3 		cmp	r3, #0
 279 01f8 0200000A 		beq	.L12
 280              		.loc 1 111 3 is_stmt 0 discriminator 1
 281 01fc 18301BE5 		ldr	r3, [fp, #-24]
 282 0200 003093E5 		ldr	r3, [r3]
 283 0204 000000EA 		b	.L13
 284              	.L12:
 285              		.loc 1 111 3 discriminator 2
 286 0208 0030A0E3 		mov	r3, #0
 287              	.L13:
 288              		.loc 1 111 3 discriminator 4
 289 020c 1C308DE5 		str	r3, [sp, #28]
 290 0210 0C309BE5 		ldr	r3, [fp, #12]
 291 0214 18308DE5 		str	r3, [sp, #24]
 292 0218 1C301BE5 		ldr	r3, [fp, #-28]
 293 021c 14308DE5 		str	r3, [sp, #20]
 294 0220 08309BE5 		ldr	r3, [fp, #8]
 295 0224 10308DE5 		str	r3, [sp, #16]
 296 0228 1C301BE5 		ldr	r3, [fp, #-28]
ARM GAS  /tmp/ccmTPeQn.s 			page 9


 297 022c 0C308DE5 		str	r3, [sp, #12]
 298 0230 08208DE5 		str	r2, [sp, #8]
 299 0234 28329FE5 		ldr	r3, .L20+36
 300              	.LPIC18:
 301 0238 03308FE0 		add	r3, pc, r3
 302 023c 04308DE5 		str	r3, [sp, #4]
 303 0240 20329FE5 		ldr	r3, .L20+40
 304              	.LPIC19:
 305 0244 03308FE0 		add	r3, pc, r3
 306 0248 00308DE5 		str	r3, [sp]
 307 024c 7330A0E3 		mov	r3, #115
 308 0250 14229FE5 		ldr	r2, .L20+44
 309              	.LPIC20:
 310 0254 02208FE0 		add	r2, pc, r2
 311 0258 10129FE5 		ldr	r1, .L20+48
 312              	.LPIC21:
 313 025c 01108FE0 		add	r1, pc, r1
 314 0260 4C00A0E3 		mov	r0, #76
 315 0264 FEFFFFEB 		bl	siFormattedMessage_M2(PLT)
 112:/home/hkh/git/eapidk-code-r76-trunk/lib/linux/../EApiAPI.cpp ****           'L'                   ,
 113:/home/hkh/git/eapidk-code-r76-trunk/lib/linux/../EApiAPI.cpp ****           __FILE__              ,
 114:/home/hkh/git/eapidk-code-r76-trunk/lib/linux/../EApiAPI.cpp ****           "EApiI2CWriteTransfer",
 115:/home/hkh/git/eapidk-code-r76-trunk/lib/linux/../EApiAPI.cpp ****           __LINE__              ,
 116:/home/hkh/git/eapidk-code-r76-trunk/lib/linux/../EApiAPI.cpp ****           "Info"                ,
 117:/home/hkh/git/eapidk-code-r76-trunk/lib/linux/../EApiAPI.cpp ****           "ADDR=%02"PRIX8" WriteBCnt=%04"PRIX32
 118:/home/hkh/git/eapidk-code-r76-trunk/lib/linux/../EApiAPI.cpp ****           " RBufLen=%04"PRIX32" WriteBCnt=%04"PRIX32
 119:/home/hkh/git/eapidk-code-r76-trunk/lib/linux/../EApiAPI.cpp ****           " ReadBCnt=%04"PRIX32" %08"PRIX32"\n", 
 120:/home/hkh/git/eapidk-code-r76-trunk/lib/linux/../EApiAPI.cpp ****           Addr, WriteBCnt, RBufLen, WriteBCnt, ReadBCnt, 
 121:/home/hkh/git/eapidk-code-r76-trunk/lib/linux/../EApiAPI.cpp ****           (WriteBCnt?((uint32_t*)pWBuffer)[0]:0)
 122:/home/hkh/git/eapidk-code-r76-trunk/lib/linux/../EApiAPI.cpp ****       );
 123:/home/hkh/git/eapidk-code-r76-trunk/lib/linux/../EApiAPI.cpp **** #endif
 124:/home/hkh/git/eapidk-code-r76-trunk/lib/linux/../EApiAPI.cpp ****   EAPI_LIB_ASSERT_PARAMATER_CHECK(
 316              		.loc 1 124 3 is_stmt 1 discriminator 4
 317 0268 0C309BE5 		ldr	r3, [fp, #12]
 318 026c 010053E3 		cmp	r3, #1
 319 0270 1400009A 		bls	.L14
 320              		.loc 1 124 3 is_stmt 0 discriminator 1
 321 0274 04309BE5 		ldr	r3, [fp, #4]
 322 0278 000053E3 		cmp	r3, #0
 323 027c 1100001A 		bne	.L14
 324              		.loc 1 124 3 discriminator 2
 325 0280 EC319FE5 		ldr	r3, .L20+52
 326              	.LPIC22:
 327 0284 03308FE0 		add	r3, pc, r3
 328 0288 08308DE5 		str	r3, [sp, #8]
 329 028c E4319FE5 		ldr	r3, .L20+56
 330              	.LPIC23:
 331 0290 03308FE0 		add	r3, pc, r3
 332 0294 04308DE5 		str	r3, [sp, #4]
 333 0298 013CE0E3 		mvn	r3, #256
 334 029c 00308DE5 		str	r3, [sp]
 335 02a0 7C30A0E3 		mov	r3, #124
 336 02a4 D0219FE5 		ldr	r2, .L20+60
 337              	.LPIC24:
 338 02a8 02208FE0 		add	r2, pc, r2
 339 02ac CC119FE5 		ldr	r1, .L20+64
 340              	.LPIC25:
ARM GAS  /tmp/ccmTPeQn.s 			page 10


 341 02b0 01108FE0 		add	r1, pc, r1
 342 02b4 4500A0E3 		mov	r0, #69
 343 02b8 FEFFFFEB 		bl	siFormattedMessage_SC(PLT)
 344 02bc 013CE0E3 		mvn	r3, #256
 345 02c0 0C300BE5 		str	r3, [fp, #-12]
 346 02c4 590000EA 		b	.L10
 347              	.L14:
 125:/home/hkh/git/eapidk-code-r76-trunk/lib/linux/../EApiAPI.cpp ****       EApiI2CWriteReadRaw, 
 126:/home/hkh/git/eapidk-code-r76-trunk/lib/linux/../EApiAPI.cpp ****       (ReadBCnt>1)&&(pRBuffer==NULL) , 
 127:/home/hkh/git/eapidk-code-r76-trunk/lib/linux/../EApiAPI.cpp ****       "pRBuffer is NULL"          
 128:/home/hkh/git/eapidk-code-r76-trunk/lib/linux/../EApiAPI.cpp ****       );
 129:/home/hkh/git/eapidk-code-r76-trunk/lib/linux/../EApiAPI.cpp ****   EAPI_LIB_ASSERT_PARAMATER_CHECK(
 348              		.loc 1 129 3 is_stmt 1
 349 02c8 0C309BE5 		ldr	r3, [fp, #12]
 350 02cc 010053E3 		cmp	r3, #1
 351 02d0 1400009A 		bls	.L15
 352              		.loc 1 129 3 is_stmt 0 discriminator 1
 353 02d4 08309BE5 		ldr	r3, [fp, #8]
 354 02d8 000053E3 		cmp	r3, #0
 355 02dc 1100001A 		bne	.L15
 356              		.loc 1 129 3 discriminator 2
 357 02e0 9C319FE5 		ldr	r3, .L20+68
 358              	.LPIC26:
 359 02e4 03308FE0 		add	r3, pc, r3
 360 02e8 08308DE5 		str	r3, [sp, #8]
 361 02ec 94319FE5 		ldr	r3, .L20+72
 362              	.LPIC27:
 363 02f0 03308FE0 		add	r3, pc, r3
 364 02f4 04308DE5 		str	r3, [sp, #4]
 365 02f8 013CE0E3 		mvn	r3, #256
 366 02fc 00308DE5 		str	r3, [sp]
 367 0300 8130A0E3 		mov	r3, #129
 368 0304 80219FE5 		ldr	r2, .L20+76
 369              	.LPIC28:
 370 0308 02208FE0 		add	r2, pc, r2
 371 030c 7C119FE5 		ldr	r1, .L20+80
 372              	.LPIC29:
 373 0310 01108FE0 		add	r1, pc, r1
 374 0314 4500A0E3 		mov	r0, #69
 375 0318 FEFFFFEB 		bl	siFormattedMessage_SC(PLT)
 376 031c 013CE0E3 		mvn	r3, #256
 377 0320 0C300BE5 		str	r3, [fp, #-12]
 378 0324 410000EA 		b	.L10
 379              	.L15:
 130:/home/hkh/git/eapidk-code-r76-trunk/lib/linux/../EApiAPI.cpp ****       EApiI2CWriteReadRaw, 
 131:/home/hkh/git/eapidk-code-r76-trunk/lib/linux/../EApiAPI.cpp ****       (ReadBCnt>1)&&(RBufLen==0) , 
 132:/home/hkh/git/eapidk-code-r76-trunk/lib/linux/../EApiAPI.cpp ****       "RBufLen is ZERO"          
 133:/home/hkh/git/eapidk-code-r76-trunk/lib/linux/../EApiAPI.cpp ****       );
 134:/home/hkh/git/eapidk-code-r76-trunk/lib/linux/../EApiAPI.cpp ****   EAPI_LIB_ASSERT_PARAMATER_CHECK(
 380              		.loc 1 134 3 is_stmt 1
 381 0328 1C301BE5 		ldr	r3, [fp, #-28]
 382 032c 000053E3 		cmp	r3, #0
 383 0330 1400001A 		bne	.L16
 384              		.loc 1 134 3 is_stmt 0 discriminator 1
 385 0334 0C309BE5 		ldr	r3, [fp, #12]
 386 0338 000053E3 		cmp	r3, #0
 387 033c 1100001A 		bne	.L16
ARM GAS  /tmp/ccmTPeQn.s 			page 11


 388              		.loc 1 134 3 discriminator 2
 389 0340 4C319FE5 		ldr	r3, .L20+84
 390              	.LPIC30:
 391 0344 03308FE0 		add	r3, pc, r3
 392 0348 08308DE5 		str	r3, [sp, #8]
 393 034c 44319FE5 		ldr	r3, .L20+88
 394              	.LPIC31:
 395 0350 03308FE0 		add	r3, pc, r3
 396 0354 04308DE5 		str	r3, [sp, #4]
 397 0358 013CE0E3 		mvn	r3, #256
 398 035c 00308DE5 		str	r3, [sp]
 399 0360 8630A0E3 		mov	r3, #134
 400 0364 30219FE5 		ldr	r2, .L20+92
 401              	.LPIC32:
 402 0368 02208FE0 		add	r2, pc, r2
 403 036c 2C119FE5 		ldr	r1, .L20+96
 404              	.LPIC33:
 405 0370 01108FE0 		add	r1, pc, r1
 406 0374 4500A0E3 		mov	r0, #69
 407 0378 FEFFFFEB 		bl	siFormattedMessage_SC(PLT)
 408 037c 013CE0E3 		mvn	r3, #256
 409 0380 0C300BE5 		str	r3, [fp, #-12]
 410 0384 290000EA 		b	.L10
 411              	.L16:
 135:/home/hkh/git/eapidk-code-r76-trunk/lib/linux/../EApiAPI.cpp ****       EApiI2CWriteReadRaw, 
 136:/home/hkh/git/eapidk-code-r76-trunk/lib/linux/../EApiAPI.cpp ****       ((WriteBCnt==0)&&(ReadBCnt==0)), 
 137:/home/hkh/git/eapidk-code-r76-trunk/lib/linux/../EApiAPI.cpp ****       "NO READ NO WRITE"
 138:/home/hkh/git/eapidk-code-r76-trunk/lib/linux/../EApiAPI.cpp ****       );
 139:/home/hkh/git/eapidk-code-r76-trunk/lib/linux/../EApiAPI.cpp **** 
 140:/home/hkh/git/eapidk-code-r76-trunk/lib/linux/../EApiAPI.cpp ****   EAPI_LIB_PREVENT_BUF_OVERFLOW(
 412              		.loc 1 140 3 is_stmt 1
 413 0388 08309BE5 		ldr	r3, [fp, #8]
 414 038c 013083E2 		add	r3, r3, #1
 415 0390 0C209BE5 		ldr	r2, [fp, #12]
 416 0394 030052E1 		cmp	r2, r3
 417 0398 1300009A 		bls	.L17
 418              		.loc 1 140 3 is_stmt 0 discriminator 1
 419 039c 00319FE5 		ldr	r3, .L20+100
 420              	.LPIC34:
 421 03a0 03308FE0 		add	r3, pc, r3
 422 03a4 08308DE5 		str	r3, [sp, #8]
 423 03a8 F8309FE5 		ldr	r3, .L20+104
 424              	.LPIC35:
 425 03ac 03308FE0 		add	r3, pc, r3
 426 03b0 04308DE5 		str	r3, [sp, #4]
 427 03b4 063CE0E3 		mvn	r3, #1536
 428 03b8 00308DE5 		str	r3, [sp]
 429 03bc 8C30A0E3 		mov	r3, #140
 430 03c0 E4209FE5 		ldr	r2, .L20+108
 431              	.LPIC36:
 432 03c4 02208FE0 		add	r2, pc, r2
 433 03c8 E0109FE5 		ldr	r1, .L20+112
 434              	.LPIC37:
 435 03cc 01108FE0 		add	r1, pc, r1
 436 03d0 4500A0E3 		mov	r0, #69
 437 03d4 FEFFFFEB 		bl	siFormattedMessage_SC(PLT)
 438 03d8 08309BE5 		ldr	r3, [fp, #8]
ARM GAS  /tmp/ccmTPeQn.s 			page 12


 439 03dc 013083E2 		add	r3, r3, #1
 440 03e0 0C308BE5 		str	r3, [fp, #12]
 441 03e4 063CE0E3 		mvn	r3, #1536
 442 03e8 0C300BE5 		str	r3, [fp, #-12]
 443              	.L17:
 141:/home/hkh/git/eapidk-code-r76-trunk/lib/linux/../EApiAPI.cpp ****       EApiI2CWriteReadRaw, 
 142:/home/hkh/git/eapidk-code-r76-trunk/lib/linux/../EApiAPI.cpp ****       ReadBCnt, 
 143:/home/hkh/git/eapidk-code-r76-trunk/lib/linux/../EApiAPI.cpp ****       RBufLen+1
 144:/home/hkh/git/eapidk-code-r76-trunk/lib/linux/../EApiAPI.cpp ****       );
 145:/home/hkh/git/eapidk-code-r76-trunk/lib/linux/../EApiAPI.cpp **** 
 146:/home/hkh/git/eapidk-code-r76-trunk/lib/linux/../EApiAPI.cpp ****   ErrorCode2=EApiI2CWriteReadEmul(
 444              		.loc 1 146 14 is_stmt 1
 445 03ec 11105BE5 		ldrb	r1, [fp, #-17]	@ zero_extendqisi2
 446 03f0 0C309BE5 		ldr	r3, [fp, #12]
 447 03f4 04308DE5 		str	r3, [sp, #4]
 448 03f8 04309BE5 		ldr	r3, [fp, #4]
 449 03fc 00308DE5 		str	r3, [sp]
 450 0400 1C301BE5 		ldr	r3, [fp, #-28]
 451 0404 18201BE5 		ldr	r2, [fp, #-24]
 452 0408 10001BE5 		ldr	r0, [fp, #-16]
 453 040c FEFFFFEB 		bl	EApiI2CWriteReadEmul(PLT)
 454 0410 08000BE5 		str	r0, [fp, #-8]
 147:/home/hkh/git/eapidk-code-r76-trunk/lib/linux/../EApiAPI.cpp ****       Id,  
 148:/home/hkh/git/eapidk-code-r76-trunk/lib/linux/../EApiAPI.cpp ****       Addr, 
 149:/home/hkh/git/eapidk-code-r76-trunk/lib/linux/../EApiAPI.cpp ****       pWBuffer, 
 150:/home/hkh/git/eapidk-code-r76-trunk/lib/linux/../EApiAPI.cpp ****       WriteBCnt, 
 151:/home/hkh/git/eapidk-code-r76-trunk/lib/linux/../EApiAPI.cpp ****       pRBuffer, 
 152:/home/hkh/git/eapidk-code-r76-trunk/lib/linux/../EApiAPI.cpp ****       ReadBCnt
 153:/home/hkh/git/eapidk-code-r76-trunk/lib/linux/../EApiAPI.cpp ****       );
 154:/home/hkh/git/eapidk-code-r76-trunk/lib/linux/../EApiAPI.cpp ****   if(ErrorCode2!=EAPI_STATUS_SUCCESS)
 455              		.loc 1 154 5
 456 0414 08301BE5 		ldr	r3, [fp, #-8]
 457 0418 000053E3 		cmp	r3, #0
 458 041c 0200000A 		beq	.L19
 155:/home/hkh/git/eapidk-code-r76-trunk/lib/linux/../EApiAPI.cpp ****     StatusCode=ErrorCode2;
 459              		.loc 1 155 15
 460 0420 08301BE5 		ldr	r3, [fp, #-8]
 461 0424 0C300BE5 		str	r3, [fp, #-12]
 462 0428 000000EA 		b	.L10
 463              	.L19:
 156:/home/hkh/git/eapidk-code-r76-trunk/lib/linux/../EApiAPI.cpp **** EAPI_LIB_ASSERT_EXIT
 464              		.loc 1 156 1
 465 042c 00F020E3 		nop
 466              	.L10:
 157:/home/hkh/git/eapidk-code-r76-trunk/lib/linux/../EApiAPI.cpp ****   return StatusCode;
 467              		.loc 1 157 10
 468 0430 0C301BE5 		ldr	r3, [fp, #-12]
 158:/home/hkh/git/eapidk-code-r76-trunk/lib/linux/../EApiAPI.cpp **** 
 159:/home/hkh/git/eapidk-code-r76-trunk/lib/linux/../EApiAPI.cpp **** }
 469              		.loc 1 159 1
 470 0434 0300A0E1 		mov	r0, r3
 471 0438 04D04BE2 		sub	sp, fp, #4
 472              		.cfi_def_cfa 13, 8
 473              		@ sp needed
 474 043c 0088BDE8 		pop	{fp, pc}
 475              	.L21:
 476              		.align	2
ARM GAS  /tmp/ccmTPeQn.s 			page 13


 477              	.L20:
 478 0440 04030000 		.word	Initialized-(.LPIC9+8)
 479 0444 48030000 		.word	.LC2-(.LPIC10+8)
 480 0448 58030000 		.word	.LC3-(.LPIC11+8)
 481 044c 5C030000 		.word	.LC5-(.LPIC12+8)
 482 0450 E8020000 		.word	.LC1-(.LPIC13+8)
 483 0454 3C030000 		.word	.LC6-(.LPIC14+8)
 484 0458 08030000 		.word	.LC3-(.LPIC15+8)
 485 045c 0C030000 		.word	.LC5-(.LPIC16+8)
 486 0460 98020000 		.word	.LC1-(.LPIC17+8)
 487 0464 E8020000 		.word	.LC8-(.LPIC18+8)
 488 0468 2C030000 		.word	.LC9-(.LPIC19+8)
 489 046c BC020000 		.word	.LC7-(.LPIC20+8)
 490 0470 20020000 		.word	.LC1-(.LPIC21+8)
 491 0474 00030000 		.word	.LC10-(.LPIC22+8)
 492 0478 4C020000 		.word	.LC3-(.LPIC23+8)
 493 047c 50020000 		.word	.LC5-(.LPIC24+8)
 494 0480 DC010000 		.word	.LC1-(.LPIC25+8)
 495 0484 C4020000 		.word	.LC11-(.LPIC26+8)
 496 0488 FC010000 		.word	.LC3-(.LPIC27+8)
 497 048c 00020000 		.word	.LC5-(.LPIC28+8)
 498 0490 8C010000 		.word	.LC1-(.LPIC29+8)
 499 0494 84020000 		.word	.LC12-(.LPIC30+8)
 500 0498 AC010000 		.word	.LC3-(.LPIC31+8)
 501 049c B0010000 		.word	.LC5-(.LPIC32+8)
 502 04a0 3C010000 		.word	.LC1-(.LPIC33+8)
 503 04a4 4C020000 		.word	.LC13-(.LPIC34+8)
 504 04a8 60010000 		.word	.LC3-(.LPIC35+8)
 505 04ac 64010000 		.word	.LC5-(.LPIC36+8)
 506 04b0 F0000000 		.word	.LC1-(.LPIC37+8)
 507              		.cfi_endproc
 508              	.LFE2:
 510              		.section	.rodata
 511 017e 0000     		.align	2
 512              	.LC14:
 513 0180 45417069 		.ascii	"EApiI2CReadTransfer\000"
 513      49324352 
 513      65616454 
 513      72616E73 
 513      66657200 
 514              		.align	2
 515              	.LC15:
 516 0194 49643D25 		.ascii	"Id=%08X ADDR=%04X CMD=%04X BCNT=%04X\012\000"
 516      30385820 
 516      41444452 
 516      3D253034 
 516      5820434D 
 517 01ba 0000     		.align	2
 518              	.LC16:
 519 01bc 28704275 		.ascii	"(pBuffer==NULL)\000"
 519      66666572 
 519      3D3D4E55 
 519      4C4C2900 
 520              		.align	2
 521              	.LC17:
 522 01cc 28427566 		.ascii	"(BufLen==0)\000"
 522      4C656E3D 
ARM GAS  /tmp/ccmTPeQn.s 			page 14


 522      3D302900 
 523              		.align	2
 524              	.LC18:
 525 01d8 28427974 		.ascii	"(ByteCnt==0)\000"
 525      65436E74 
 525      3D3D3029 
 525      00
 526 01e5 000000   		.align	2
 527              	.LC19:
 528 01e8 20547261 		.ascii	" Transfer Length too long for interface\000"
 528      6E736665 
 528      72204C65 
 528      6E677468 
 528      20746F6F 
 529              		.text
 530              		.align	2
 531              		.global	EApiI2CReadTransfer
 532              		.syntax unified
 533              		.arm
 534              		.fpu vfpv3
 536              	EApiI2CReadTransfer:
 537              	.LFB3:
 160:/home/hkh/git/eapidk-code-r76-trunk/lib/linux/../EApiAPI.cpp **** 
 161:/home/hkh/git/eapidk-code-r76-trunk/lib/linux/../EApiAPI.cpp **** 
 162:/home/hkh/git/eapidk-code-r76-trunk/lib/linux/../EApiAPI.cpp **** EApiStatus_t 
 163:/home/hkh/git/eapidk-code-r76-trunk/lib/linux/../EApiAPI.cpp **** EAPI_CALLTYPE 
 164:/home/hkh/git/eapidk-code-r76-trunk/lib/linux/../EApiAPI.cpp **** EApiI2CReadTransfer(
 165:/home/hkh/git/eapidk-code-r76-trunk/lib/linux/../EApiAPI.cpp ****     __IN  EApiId_t  Id      , /* I2C Bus Id */
 166:/home/hkh/git/eapidk-code-r76-trunk/lib/linux/../EApiAPI.cpp ****     __IN  uint32_t  Addr    , /* Encoded 7/10Bit I2C
 167:/home/hkh/git/eapidk-code-r76-trunk/lib/linux/../EApiAPI.cpp ****                                * Device Address
 168:/home/hkh/git/eapidk-code-r76-trunk/lib/linux/../EApiAPI.cpp ****                                */
 169:/home/hkh/git/eapidk-code-r76-trunk/lib/linux/../EApiAPI.cpp ****     __IN  uint32_t  Cmd     , /* I2C Command/Offset */
 170:/home/hkh/git/eapidk-code-r76-trunk/lib/linux/../EApiAPI.cpp ****     __OUT     void *pBuffer , /* Transfer Data pBuffer */
 171:/home/hkh/git/eapidk-code-r76-trunk/lib/linux/../EApiAPI.cpp ****     __IN  uint32_t  BufLen  , /* Data pBuffer Length */
 172:/home/hkh/git/eapidk-code-r76-trunk/lib/linux/../EApiAPI.cpp ****     __IN  uint32_t  ByteCnt   /* Byte Count to read */
 173:/home/hkh/git/eapidk-code-r76-trunk/lib/linux/../EApiAPI.cpp ****     )
 174:/home/hkh/git/eapidk-code-r76-trunk/lib/linux/../EApiAPI.cpp **** {
 538              		.loc 1 174 1
 539              		.cfi_startproc
 540              		@ args = 8, pretend = 0, frame = 40
 541              		@ frame_needed = 1, uses_anonymous_args = 0
 542 04b4 00482DE9 		push	{fp, lr}
 543              		.cfi_def_cfa_offset 8
 544              		.cfi_offset 11, -8
 545              		.cfi_offset 14, -4
 546 04b8 04B08DE2 		add	fp, sp, #4
 547              		.cfi_def_cfa 11, 4
 548 04bc 40D04DE2 		sub	sp, sp, #64
 549 04c0 20000BE5 		str	r0, [fp, #-32]
 550 04c4 24100BE5 		str	r1, [fp, #-36]
 551 04c8 28200BE5 		str	r2, [fp, #-40]
 552 04cc 2C300BE5 		str	r3, [fp, #-44]
 553              		.loc 1 174 1
 554 04d0 B8239FE5 		ldr	r2, .L35
 555              	.LPIC67:
 556 04d4 02208FE0 		add	r2, pc, r2
 557 04d8 B4339FE5 		ldr	r3, .L35+4
ARM GAS  /tmp/ccmTPeQn.s 			page 15


 558 04dc 033092E7 		ldr	r3, [r2, r3]
 559 04e0 003093E5 		ldr	r3, [r3]
 560 04e4 08300BE5 		str	r3, [fp, #-8]
 561 04e8 0030A0E3 		mov	r3, #0
 175:/home/hkh/git/eapidk-code-r76-trunk/lib/linux/../EApiAPI.cpp ****   EApiStatus_t StatusCode=EAPI_STATUS_SUCCESS;
 562              		.loc 1 175 16
 563 04ec 0030A0E3 		mov	r3, #0
 564 04f0 18300BE5 		str	r3, [fp, #-24]
 176:/home/hkh/git/eapidk-code-r76-trunk/lib/linux/../EApiAPI.cpp ****   uint8_t LclpBuffer[8]={0};
 565              		.loc 1 176 11
 566 04f4 0030A0E3 		mov	r3, #0
 567 04f8 10300BE5 		str	r3, [fp, #-16]
 568 04fc 0030A0E3 		mov	r3, #0
 569 0500 0C300BE5 		str	r3, [fp, #-12]
 177:/home/hkh/git/eapidk-code-r76-trunk/lib/linux/../EApiAPI.cpp ****   int LclByteCnt=0;
 570              		.loc 1 177 7
 571 0504 0030A0E3 		mov	r3, #0
 572 0508 14300BE5 		str	r3, [fp, #-20]
 178:/home/hkh/git/eapidk-code-r76-trunk/lib/linux/../EApiAPI.cpp **** #if (STRICT_VALIDATION>1)
 179:/home/hkh/git/eapidk-code-r76-trunk/lib/linux/../EApiAPI.cpp ****   uint32_t MaxBlkLen;
 180:/home/hkh/git/eapidk-code-r76-trunk/lib/linux/../EApiAPI.cpp **** #endif
 181:/home/hkh/git/eapidk-code-r76-trunk/lib/linux/../EApiAPI.cpp ****   EAPI_CHECK_INITIALIZED(EApiI2CReadTransfer);
 573              		.loc 1 181 3
 574 050c 84339FE5 		ldr	r3, .L35+8
 575              	.LPIC38:
 576 0510 03308FE0 		add	r3, pc, r3
 577 0514 003093E5 		ldr	r3, [r3]
 578 0518 000053E3 		cmp	r3, #0
 579 051c 1100001A 		bne	.L23
 580              		.loc 1 181 3 is_stmt 0 discriminator 1
 581 0520 74339FE5 		ldr	r3, .L35+12
 582              	.LPIC39:
 583 0524 03308FE0 		add	r3, pc, r3
 584 0528 08308DE5 		str	r3, [sp, #8]
 585 052c 6C339FE5 		ldr	r3, .L35+16
 586              	.LPIC40:
 587 0530 03308FE0 		add	r3, pc, r3
 588 0534 04308DE5 		str	r3, [sp, #4]
 589 0538 0030E0E3 		mvn	r3, #0
 590 053c 00308DE5 		str	r3, [sp]
 591 0540 B530A0E3 		mov	r3, #181
 592 0544 58239FE5 		ldr	r2, .L35+20
 593              	.LPIC41:
 594 0548 02208FE0 		add	r2, pc, r2
 595 054c 54139FE5 		ldr	r1, .L35+24
 596              	.LPIC42:
 597 0550 01108FE0 		add	r1, pc, r1
 598 0554 4500A0E3 		mov	r0, #69
 599 0558 FEFFFFEB 		bl	siFormattedMessage_SC(PLT)
 600 055c 0030E0E3 		mvn	r3, #0
 601 0560 18300BE5 		str	r3, [fp, #-24]
 602 0564 BB0000EA 		b	.L24
 603              	.L23:
 182:/home/hkh/git/eapidk-code-r76-trunk/lib/linux/../EApiAPI.cpp **** 
 183:/home/hkh/git/eapidk-code-r76-trunk/lib/linux/../EApiAPI.cpp **** #if (STRICT_VALIDATION>1)
 184:/home/hkh/git/eapidk-code-r76-trunk/lib/linux/../EApiAPI.cpp ****   siFormattedMessage_M2(
 604              		.loc 1 184 3 is_stmt 1
ARM GAS  /tmp/ccmTPeQn.s 			page 16


 605 0568 08309BE5 		ldr	r3, [fp, #8]
 606 056c 14308DE5 		str	r3, [sp, #20]
 607 0570 28301BE5 		ldr	r3, [fp, #-40]
 608 0574 10308DE5 		str	r3, [sp, #16]
 609 0578 24301BE5 		ldr	r3, [fp, #-36]
 610 057c 0C308DE5 		str	r3, [sp, #12]
 611 0580 20301BE5 		ldr	r3, [fp, #-32]
 612 0584 08308DE5 		str	r3, [sp, #8]
 613 0588 1C339FE5 		ldr	r3, .L35+28
 614              	.LPIC43:
 615 058c 03308FE0 		add	r3, pc, r3
 616 0590 04308DE5 		str	r3, [sp, #4]
 617 0594 14339FE5 		ldr	r3, .L35+32
 618              	.LPIC44:
 619 0598 03308FE0 		add	r3, pc, r3
 620 059c 00308DE5 		str	r3, [sp]
 621 05a0 BC30A0E3 		mov	r3, #188
 622 05a4 08239FE5 		ldr	r2, .L35+36
 623              	.LPIC45:
 624 05a8 02208FE0 		add	r2, pc, r2
 625 05ac 04139FE5 		ldr	r1, .L35+40
 626              	.LPIC46:
 627 05b0 01108FE0 		add	r1, pc, r1
 628 05b4 4C00A0E3 		mov	r0, #76
 629 05b8 FEFFFFEB 		bl	siFormattedMessage_M2(PLT)
 185:/home/hkh/git/eapidk-code-r76-trunk/lib/linux/../EApiAPI.cpp ****           'L'                   ,
 186:/home/hkh/git/eapidk-code-r76-trunk/lib/linux/../EApiAPI.cpp ****           __FILE__              ,
 187:/home/hkh/git/eapidk-code-r76-trunk/lib/linux/../EApiAPI.cpp ****           "EApiI2CWriteTransfer",
 188:/home/hkh/git/eapidk-code-r76-trunk/lib/linux/../EApiAPI.cpp ****           __LINE__              ,
 189:/home/hkh/git/eapidk-code-r76-trunk/lib/linux/../EApiAPI.cpp ****           "Info"                ,
 190:/home/hkh/git/eapidk-code-r76-trunk/lib/linux/../EApiAPI.cpp ****           "Id=%08"PRIX32" ADDR=%04"PRIX32
 191:/home/hkh/git/eapidk-code-r76-trunk/lib/linux/../EApiAPI.cpp ****           " CMD=%04"PRIX32" BCNT=%04"PRIX32"\n", 
 192:/home/hkh/git/eapidk-code-r76-trunk/lib/linux/../EApiAPI.cpp ****           Id, Addr, Cmd, ByteCnt
 193:/home/hkh/git/eapidk-code-r76-trunk/lib/linux/../EApiAPI.cpp ****       );
 194:/home/hkh/git/eapidk-code-r76-trunk/lib/linux/../EApiAPI.cpp **** #endif
 195:/home/hkh/git/eapidk-code-r76-trunk/lib/linux/../EApiAPI.cpp ****   EAPI_LIB_ASSERT_PARAMATER_NULL(EApiI2CReadTransfer, pBuffer);
 630              		.loc 1 195 3
 631 05bc 2C301BE5 		ldr	r3, [fp, #-44]
 632 05c0 000053E3 		cmp	r3, #0
 633 05c4 1100001A 		bne	.L25
 634              		.loc 1 195 3 is_stmt 0 discriminator 1
 635 05c8 EC329FE5 		ldr	r3, .L35+44
 636              	.LPIC47:
 637 05cc 03308FE0 		add	r3, pc, r3
 638 05d0 08308DE5 		str	r3, [sp, #8]
 639 05d4 E4329FE5 		ldr	r3, .L35+48
 640              	.LPIC48:
 641 05d8 03308FE0 		add	r3, pc, r3
 642 05dc 04308DE5 		str	r3, [sp, #4]
 643 05e0 013CE0E3 		mvn	r3, #256
 644 05e4 00308DE5 		str	r3, [sp]
 645 05e8 C330A0E3 		mov	r3, #195
 646 05ec D0229FE5 		ldr	r2, .L35+52
 647              	.LPIC49:
 648 05f0 02208FE0 		add	r2, pc, r2
 649 05f4 CC129FE5 		ldr	r1, .L35+56
 650              	.LPIC50:
ARM GAS  /tmp/ccmTPeQn.s 			page 17


 651 05f8 01108FE0 		add	r1, pc, r1
 652 05fc 4500A0E3 		mov	r0, #69
 653 0600 FEFFFFEB 		bl	siFormattedMessage_SC(PLT)
 654 0604 013CE0E3 		mvn	r3, #256
 655 0608 18300BE5 		str	r3, [fp, #-24]
 656 060c 910000EA 		b	.L24
 657              	.L25:
 196:/home/hkh/git/eapidk-code-r76-trunk/lib/linux/../EApiAPI.cpp ****   EAPI_LIB_ASSERT_PARAMATER_ZERO(EApiI2CReadTransfer, BufLen );
 658              		.loc 1 196 3 is_stmt 1
 659 0610 04309BE5 		ldr	r3, [fp, #4]
 660 0614 000053E3 		cmp	r3, #0
 661 0618 1100001A 		bne	.L26
 662              		.loc 1 196 3 is_stmt 0 discriminator 1
 663 061c A8329FE5 		ldr	r3, .L35+60
 664              	.LPIC51:
 665 0620 03308FE0 		add	r3, pc, r3
 666 0624 08308DE5 		str	r3, [sp, #8]
 667 0628 A0329FE5 		ldr	r3, .L35+64
 668              	.LPIC52:
 669 062c 03308FE0 		add	r3, pc, r3
 670 0630 04308DE5 		str	r3, [sp, #4]
 671 0634 013CE0E3 		mvn	r3, #256
 672 0638 00308DE5 		str	r3, [sp]
 673 063c C430A0E3 		mov	r3, #196
 674 0640 8C229FE5 		ldr	r2, .L35+68
 675              	.LPIC53:
 676 0644 02208FE0 		add	r2, pc, r2
 677 0648 88129FE5 		ldr	r1, .L35+72
 678              	.LPIC54:
 679 064c 01108FE0 		add	r1, pc, r1
 680 0650 4500A0E3 		mov	r0, #69
 681 0654 FEFFFFEB 		bl	siFormattedMessage_SC(PLT)
 682 0658 013CE0E3 		mvn	r3, #256
 683 065c 18300BE5 		str	r3, [fp, #-24]
 684 0660 7C0000EA 		b	.L24
 685              	.L26:
 197:/home/hkh/git/eapidk-code-r76-trunk/lib/linux/../EApiAPI.cpp ****   EAPI_LIB_ASSERT_PARAMATER_ZERO(EApiI2CReadTransfer, ByteCnt);
 686              		.loc 1 197 3 is_stmt 1
 687 0664 08309BE5 		ldr	r3, [fp, #8]
 688 0668 000053E3 		cmp	r3, #0
 689 066c 1100001A 		bne	.L27
 690              		.loc 1 197 3 is_stmt 0 discriminator 1
 691 0670 64329FE5 		ldr	r3, .L35+76
 692              	.LPIC55:
 693 0674 03308FE0 		add	r3, pc, r3
 694 0678 08308DE5 		str	r3, [sp, #8]
 695 067c 5C329FE5 		ldr	r3, .L35+80
 696              	.LPIC56:
 697 0680 03308FE0 		add	r3, pc, r3
 698 0684 04308DE5 		str	r3, [sp, #4]
 699 0688 013CE0E3 		mvn	r3, #256
 700 068c 00308DE5 		str	r3, [sp]
 701 0690 C530A0E3 		mov	r3, #197
 702 0694 48229FE5 		ldr	r2, .L35+84
 703              	.LPIC57:
 704 0698 02208FE0 		add	r2, pc, r2
 705 069c 44129FE5 		ldr	r1, .L35+88
ARM GAS  /tmp/ccmTPeQn.s 			page 18


 706              	.LPIC58:
 707 06a0 01108FE0 		add	r1, pc, r1
 708 06a4 4500A0E3 		mov	r0, #69
 709 06a8 FEFFFFEB 		bl	siFormattedMessage_SC(PLT)
 710 06ac 013CE0E3 		mvn	r3, #256
 711 06b0 18300BE5 		str	r3, [fp, #-24]
 712 06b4 670000EA 		b	.L24
 713              	.L27:
 198:/home/hkh/git/eapidk-code-r76-trunk/lib/linux/../EApiAPI.cpp ****   EAPI_LIB_ASSERT_PARAMATER_ZERO(EApiI2CReadTransfer, BufLen );
 714              		.loc 1 198 3 is_stmt 1
 715 06b8 04309BE5 		ldr	r3, [fp, #4]
 716 06bc 000053E3 		cmp	r3, #0
 717 06c0 1100001A 		bne	.L28
 718              		.loc 1 198 3 is_stmt 0 discriminator 1
 719 06c4 20329FE5 		ldr	r3, .L35+92
 720              	.LPIC59:
 721 06c8 03308FE0 		add	r3, pc, r3
 722 06cc 08308DE5 		str	r3, [sp, #8]
 723 06d0 18329FE5 		ldr	r3, .L35+96
 724              	.LPIC60:
 725 06d4 03308FE0 		add	r3, pc, r3
 726 06d8 04308DE5 		str	r3, [sp, #4]
 727 06dc 013CE0E3 		mvn	r3, #256
 728 06e0 00308DE5 		str	r3, [sp]
 729 06e4 C630A0E3 		mov	r3, #198
 730 06e8 04229FE5 		ldr	r2, .L35+100
 731              	.LPIC61:
 732 06ec 02208FE0 		add	r2, pc, r2
 733 06f0 00129FE5 		ldr	r1, .L35+104
 734              	.LPIC62:
 735 06f4 01108FE0 		add	r1, pc, r1
 736 06f8 4500A0E3 		mov	r0, #69
 737 06fc FEFFFFEB 		bl	siFormattedMessage_SC(PLT)
 738 0700 013CE0E3 		mvn	r3, #256
 739 0704 18300BE5 		str	r3, [fp, #-24]
 740 0708 520000EA 		b	.L24
 741              	.L28:
 199:/home/hkh/git/eapidk-code-r76-trunk/lib/linux/../EApiAPI.cpp **** 
 200:/home/hkh/git/eapidk-code-r76-trunk/lib/linux/../EApiAPI.cpp **** #if (STRICT_VALIDATION>1)
 201:/home/hkh/git/eapidk-code-r76-trunk/lib/linux/../EApiAPI.cpp ****     EApiI2CGetBusCap(Id, &MaxBlkLen);
 742              		.loc 1 201 5 is_stmt 1
 743 070c 1C304BE2 		sub	r3, fp, #28
 744 0710 0310A0E1 		mov	r1, r3
 745 0714 20001BE5 		ldr	r0, [fp, #-32]
 746 0718 FEFFFFEB 		bl	EApiI2CGetBusCap(PLT)
 202:/home/hkh/git/eapidk-code-r76-trunk/lib/linux/../EApiAPI.cpp ****     EAPI_LIB_ASSERT_PARAMATER_CHECK(
 747              		.loc 1 202 5
 748 071c 1C301BE5 		ldr	r3, [fp, #-28]
 749 0720 08209BE5 		ldr	r2, [fp, #8]
 750 0724 030052E1 		cmp	r2, r3
 751 0728 1100009A 		bls	.L29
 752              		.loc 1 202 5 is_stmt 0 discriminator 1
 753 072c C8319FE5 		ldr	r3, .L35+108
 754              	.LPIC63:
 755 0730 03308FE0 		add	r3, pc, r3
 756 0734 08308DE5 		str	r3, [sp, #8]
 757 0738 C0319FE5 		ldr	r3, .L35+112
ARM GAS  /tmp/ccmTPeQn.s 			page 19


 758              	.LPIC64:
 759 073c 03308FE0 		add	r3, pc, r3
 760 0740 04308DE5 		str	r3, [sp, #4]
 761 0744 013CE0E3 		mvn	r3, #256
 762 0748 00308DE5 		str	r3, [sp]
 763 074c CA30A0E3 		mov	r3, #202
 764 0750 AC219FE5 		ldr	r2, .L35+116
 765              	.LPIC65:
 766 0754 02208FE0 		add	r2, pc, r2
 767 0758 A8119FE5 		ldr	r1, .L35+120
 768              	.LPIC66:
 769 075c 01108FE0 		add	r1, pc, r1
 770 0760 4500A0E3 		mov	r0, #69
 771 0764 FEFFFFEB 		bl	siFormattedMessage_SC(PLT)
 772 0768 013CE0E3 		mvn	r3, #256
 773 076c 18300BE5 		str	r3, [fp, #-24]
 774 0770 380000EA 		b	.L24
 775              	.L29:
 203:/home/hkh/git/eapidk-code-r76-trunk/lib/linux/../EApiAPI.cpp ****         EApiI2CReadTransfer, 
 204:/home/hkh/git/eapidk-code-r76-trunk/lib/linux/../EApiAPI.cpp ****         ByteCnt>MaxBlkLen, 
 205:/home/hkh/git/eapidk-code-r76-trunk/lib/linux/../EApiAPI.cpp ****         " Transfer Length too long for interface"
 206:/home/hkh/git/eapidk-code-r76-trunk/lib/linux/../EApiAPI.cpp ****         );
 207:/home/hkh/git/eapidk-code-r76-trunk/lib/linux/../EApiAPI.cpp **** #endif
 208:/home/hkh/git/eapidk-code-r76-trunk/lib/linux/../EApiAPI.cpp **** 
 209:/home/hkh/git/eapidk-code-r76-trunk/lib/linux/../EApiAPI.cpp ****   if(EAPI_I2C_IS_10BIT_ADDR(Addr))
 776              		.loc 1 209 6 is_stmt 1
 777 0774 24301BE5 		ldr	r3, [fp, #-36]
 778 0778 3E3B03E2 		and	r3, r3, #63488
 779              		.loc 1 209 5
 780 077c 0F0A53E3 		cmp	r3, #61440
 781 0780 0A00001A 		bne	.L30
 210:/home/hkh/git/eapidk-code-r76-trunk/lib/linux/../EApiAPI.cpp ****   {
 211:/home/hkh/git/eapidk-code-r76-trunk/lib/linux/../EApiAPI.cpp ****     LclpBuffer[LclByteCnt++]=(uint8_t)(Addr&0xFF);
 782              		.loc 1 211 26
 783 0784 14301BE5 		ldr	r3, [fp, #-20]
 784 0788 012083E2 		add	r2, r3, #1
 785 078c 14200BE5 		str	r2, [fp, #-20]
 786              		.loc 1 211 30
 787 0790 24201BE5 		ldr	r2, [fp, #-36]
 788 0794 7220EFE6 		uxtb	r2, r2
 789              		.loc 1 211 29
 790 0798 043043E2 		sub	r3, r3, #4
 791 079c 0B3083E0 		add	r3, r3, fp
 792 07a0 0C2043E5 		strb	r2, [r3, #-12]
 212:/home/hkh/git/eapidk-code-r76-trunk/lib/linux/../EApiAPI.cpp ****     Addr>>=8;
 793              		.loc 1 212 9
 794 07a4 24301BE5 		ldr	r3, [fp, #-36]
 795 07a8 2334A0E1 		lsr	r3, r3, #8
 796 07ac 24300BE5 		str	r3, [fp, #-36]
 797              	.L30:
 213:/home/hkh/git/eapidk-code-r76-trunk/lib/linux/../EApiAPI.cpp ****   }
 214:/home/hkh/git/eapidk-code-r76-trunk/lib/linux/../EApiAPI.cpp **** 
 215:/home/hkh/git/eapidk-code-r76-trunk/lib/linux/../EApiAPI.cpp ****   if(!EAPI_I2C_IS_NO_CMD(Cmd)){
 798              		.loc 1 215 7
 799 07b0 28301BE5 		ldr	r3, [fp, #-40]
 800 07b4 033103E2 		and	r3, r3, #-1073741824
 801              		.loc 1 215 5
ARM GAS  /tmp/ccmTPeQn.s 			page 20


 802 07b8 010153E3 		cmp	r3, #1073741824
 803 07bc 1400000A 		beq	.L31
 216:/home/hkh/git/eapidk-code-r76-trunk/lib/linux/../EApiAPI.cpp ****     if(EAPI_I2C_IS_EXT_CMD(Cmd))
 804              		.loc 1 216 8
 805 07c0 28301BE5 		ldr	r3, [fp, #-40]
 806 07c4 033103E2 		and	r3, r3, #-1073741824
 807              		.loc 1 216 7
 808 07c8 020153E3 		cmp	r3, #-2147483648
 809 07cc 0800001A 		bne	.L32
 217:/home/hkh/git/eapidk-code-r76-trunk/lib/linux/../EApiAPI.cpp ****       LclpBuffer[LclByteCnt++]=(uint8_t)((Cmd>>8)&0xFF);
 810              		.loc 1 217 46
 811 07d0 28301BE5 		ldr	r3, [fp, #-40]
 812 07d4 2314A0E1 		lsr	r1, r3, #8
 813              		.loc 1 217 28
 814 07d8 14301BE5 		ldr	r3, [fp, #-20]
 815 07dc 012083E2 		add	r2, r3, #1
 816 07e0 14200BE5 		str	r2, [fp, #-20]
 817              		.loc 1 217 32
 818 07e4 7120EFE6 		uxtb	r2, r1
 819              		.loc 1 217 31
 820 07e8 043043E2 		sub	r3, r3, #4
 821 07ec 0B3083E0 		add	r3, r3, fp
 822 07f0 0C2043E5 		strb	r2, [r3, #-12]
 823              	.L32:
 218:/home/hkh/git/eapidk-code-r76-trunk/lib/linux/../EApiAPI.cpp ****     LclpBuffer[LclByteCnt++]=(uint8_t)(Cmd&0xFF);
 824              		.loc 1 218 26
 825 07f4 14301BE5 		ldr	r3, [fp, #-20]
 826 07f8 012083E2 		add	r2, r3, #1
 827 07fc 14200BE5 		str	r2, [fp, #-20]
 828              		.loc 1 218 30
 829 0800 28201BE5 		ldr	r2, [fp, #-40]
 830 0804 7220EFE6 		uxtb	r2, r2
 831              		.loc 1 218 29
 832 0808 043043E2 		sub	r3, r3, #4
 833 080c 0B3083E0 		add	r3, r3, fp
 834 0810 0C2043E5 		strb	r2, [r3, #-12]
 835              	.L31:
 219:/home/hkh/git/eapidk-code-r76-trunk/lib/linux/../EApiAPI.cpp ****   }
 220:/home/hkh/git/eapidk-code-r76-trunk/lib/linux/../EApiAPI.cpp **** 
 221:/home/hkh/git/eapidk-code-r76-trunk/lib/linux/../EApiAPI.cpp ****   StatusCode=EApiI2CWriteReadRaw(
 836              		.loc 1 221 14
 837 0814 24301BE5 		ldr	r3, [fp, #-36]
 838 0818 7310EFE6 		uxtb	r1, r3
 222:/home/hkh/git/eapidk-code-r76-trunk/lib/linux/../EApiAPI.cpp ****       Id, 
 223:/home/hkh/git/eapidk-code-r76-trunk/lib/linux/../EApiAPI.cpp ****       (uint8_t)Addr, 
 224:/home/hkh/git/eapidk-code-r76-trunk/lib/linux/../EApiAPI.cpp ****       &LclpBuffer, 
 225:/home/hkh/git/eapidk-code-r76-trunk/lib/linux/../EApiAPI.cpp ****       LclByteCnt+1, 
 839              		.loc 1 225 17
 840 081c 14301BE5 		ldr	r3, [fp, #-20]
 841 0820 013083E2 		add	r3, r3, #1
 221:/home/hkh/git/eapidk-code-r76-trunk/lib/linux/../EApiAPI.cpp ****       Id, 
 842              		.loc 1 221 14
 843 0824 0300A0E1 		mov	r0, r3
 844 0828 08309BE5 		ldr	r3, [fp, #8]
 845 082c 013083E2 		add	r3, r3, #1
 846 0830 10204BE2 		sub	r2, fp, #16
 847 0834 08308DE5 		str	r3, [sp, #8]
ARM GAS  /tmp/ccmTPeQn.s 			page 21


 848 0838 04309BE5 		ldr	r3, [fp, #4]
 849 083c 04308DE5 		str	r3, [sp, #4]
 850 0840 2C301BE5 		ldr	r3, [fp, #-44]
 851 0844 00308DE5 		str	r3, [sp]
 852 0848 0030A0E1 		mov	r3, r0
 853 084c 20001BE5 		ldr	r0, [fp, #-32]
 854 0850 FEFFFFEB 		bl	EApiI2CWriteReadRaw(PLT)
 855 0854 18000BE5 		str	r0, [fp, #-24]
 856              	.L24:
 226:/home/hkh/git/eapidk-code-r76-trunk/lib/linux/../EApiAPI.cpp ****       pBuffer, 
 227:/home/hkh/git/eapidk-code-r76-trunk/lib/linux/../EApiAPI.cpp ****       BufLen, 
 228:/home/hkh/git/eapidk-code-r76-trunk/lib/linux/../EApiAPI.cpp ****       ByteCnt+1
 229:/home/hkh/git/eapidk-code-r76-trunk/lib/linux/../EApiAPI.cpp ****       );
 230:/home/hkh/git/eapidk-code-r76-trunk/lib/linux/../EApiAPI.cpp **** EAPI_LIB_ASSERT_EXIT
 231:/home/hkh/git/eapidk-code-r76-trunk/lib/linux/../EApiAPI.cpp ****   return StatusCode;
 857              		.loc 1 231 10
 858 0858 18301BE5 		ldr	r3, [fp, #-24]
 174:/home/hkh/git/eapidk-code-r76-trunk/lib/linux/../EApiAPI.cpp ****   EApiStatus_t StatusCode=EAPI_STATUS_SUCCESS;
 859              		.loc 1 174 1
 860 085c A8109FE5 		ldr	r1, .L35+124
 861              	.LPIC68:
 862 0860 01108FE0 		add	r1, pc, r1
 232:/home/hkh/git/eapidk-code-r76-trunk/lib/linux/../EApiAPI.cpp **** }
 863              		.loc 1 232 1
 864 0864 28209FE5 		ldr	r2, .L35+4
 865 0868 022091E7 		ldr	r2, [r1, r2]
 866 086c 001092E5 		ldr	r1, [r2]
 867 0870 08201BE5 		ldr	r2, [fp, #-8]
 868 0874 011032E0 		eors	r1, r2, r1
 869 0878 0020A0E3 		mov	r2, #0
 870 087c 0000000A 		beq	.L34
 871 0880 FEFFFFEB 		bl	__stack_chk_fail(PLT)
 872              	.L34:
 873 0884 0300A0E1 		mov	r0, r3
 874 0888 04D04BE2 		sub	sp, fp, #4
 875              		.cfi_def_cfa 13, 8
 876              		@ sp needed
 877 088c 0088BDE8 		pop	{fp, pc}
 878              	.L36:
 879              		.align	2
 880              	.L35:
 881 0890 B4030000 		.word	_GLOBAL_OFFSET_TABLE_-(.LPIC67+8)
 882 0894 00000000 		.word	__stack_chk_guard(GOT)
 883 0898 80030000 		.word	Initialized-(.LPIC38+8)
 884 089c C4030000 		.word	.LC2-(.LPIC39+8)
 885 08a0 D4030000 		.word	.LC3-(.LPIC40+8)
 886 08a4 D4040000 		.word	.LC14-(.LPIC41+8)
 887 08a8 64030000 		.word	.LC1-(.LPIC42+8)
 888 08ac AC040000 		.word	.LC15-(.LPIC43+8)
 889 08b0 20040000 		.word	.LC9-(.LPIC44+8)
 890 08b4 B0030000 		.word	.LC7-(.LPIC45+8)
 891 08b8 14030000 		.word	.LC1-(.LPIC46+8)
 892 08bc A4040000 		.word	.LC16-(.LPIC47+8)
 893 08c0 4C030000 		.word	.LC3-(.LPIC48+8)
 894 08c4 4C040000 		.word	.LC14-(.LPIC49+8)
 895 08c8 DC020000 		.word	.LC1-(.LPIC50+8)
 896 08cc 70040000 		.word	.LC17-(.LPIC51+8)
ARM GAS  /tmp/ccmTPeQn.s 			page 22


 897 08d0 08030000 		.word	.LC3-(.LPIC52+8)
 898 08d4 08040000 		.word	.LC14-(.LPIC53+8)
 899 08d8 98020000 		.word	.LC1-(.LPIC54+8)
 900 08dc 38040000 		.word	.LC18-(.LPIC55+8)
 901 08e0 C4020000 		.word	.LC3-(.LPIC56+8)
 902 08e4 C4030000 		.word	.LC14-(.LPIC57+8)
 903 08e8 54020000 		.word	.LC1-(.LPIC58+8)
 904 08ec E8030000 		.word	.LC17-(.LPIC59+8)
 905 08f0 80020000 		.word	.LC3-(.LPIC60+8)
 906 08f4 80030000 		.word	.LC14-(.LPIC61+8)
 907 08f8 10020000 		.word	.LC1-(.LPIC62+8)
 908 08fc AC030000 		.word	.LC19-(.LPIC63+8)
 909 0900 28020000 		.word	.LC3-(.LPIC64+8)
 910 0904 28030000 		.word	.LC14-(.LPIC65+8)
 911 0908 B8010000 		.word	.LC1-(.LPIC66+8)
 912 090c A4000000 		.word	_GLOBAL_OFFSET_TABLE_-(.LPIC68+8)
 913              		.cfi_endproc
 914              	.LFE3:
 916              		.section	.rodata
 917              		.align	2
 918              	.LC20:
 919 0210 49643D25 		.ascii	"Id=%08X ADDR=%04X CMD=%04X BCNT=%04X %08X\012\000"
 919      30385820 
 919      41444452 
 919      3D253034 
 919      5820434D 
 920 023b 00       		.align	2
 921              	.LC21:
 922 023c 4572726F 		.ascii	"Error Allocating Memory\000"
 922      7220416C 
 922      6C6F6361 
 922      74696E67 
 922      204D656D 
 923              		.align	2
 924              	.LC22:
 925 0254 5472616E 		.ascii	"Transfer Length too long for interface\000"
 925      73666572 
 925      204C656E 
 925      67746820 
 925      746F6F20 
 926              		.text
 927              		.align	2
 928              		.global	EApiI2CWriteTransfer
 929              		.syntax unified
 930              		.arm
 931              		.fpu vfpv3
 933              	EApiI2CWriteTransfer:
 934              	.LFB4:
 233:/home/hkh/git/eapidk-code-r76-trunk/lib/linux/../EApiAPI.cpp **** 
 234:/home/hkh/git/eapidk-code-r76-trunk/lib/linux/../EApiAPI.cpp **** 
 235:/home/hkh/git/eapidk-code-r76-trunk/lib/linux/../EApiAPI.cpp **** 
 236:/home/hkh/git/eapidk-code-r76-trunk/lib/linux/../EApiAPI.cpp **** EApiStatus_t 
 237:/home/hkh/git/eapidk-code-r76-trunk/lib/linux/../EApiAPI.cpp **** EAPI_CALLTYPE
 238:/home/hkh/git/eapidk-code-r76-trunk/lib/linux/../EApiAPI.cpp **** EApiI2CWriteTransfer(
 239:/home/hkh/git/eapidk-code-r76-trunk/lib/linux/../EApiAPI.cpp ****     __IN  EApiId_t  Id      , /* I2C Bus Id */
 240:/home/hkh/git/eapidk-code-r76-trunk/lib/linux/../EApiAPI.cpp ****     __IN  uint32_t  Addr    , /* Encoded 7/10Bit I2C 
 241:/home/hkh/git/eapidk-code-r76-trunk/lib/linux/../EApiAPI.cpp ****                                * Device Address 
ARM GAS  /tmp/ccmTPeQn.s 			page 23


 242:/home/hkh/git/eapidk-code-r76-trunk/lib/linux/../EApiAPI.cpp ****                                */
 243:/home/hkh/git/eapidk-code-r76-trunk/lib/linux/../EApiAPI.cpp ****     __IN  uint32_t  Cmd     , /* I2C Command/Offset */
 244:/home/hkh/git/eapidk-code-r76-trunk/lib/linux/../EApiAPI.cpp ****     __IN      void *pBuffer , /* Transfer Data pBuffer */
 245:/home/hkh/git/eapidk-code-r76-trunk/lib/linux/../EApiAPI.cpp ****     __IN  uint32_t  ByteCnt   /* Byte Count to write */
 246:/home/hkh/git/eapidk-code-r76-trunk/lib/linux/../EApiAPI.cpp ****     )
 247:/home/hkh/git/eapidk-code-r76-trunk/lib/linux/../EApiAPI.cpp **** {
 935              		.loc 1 247 1
 936              		.cfi_startproc
 937              		@ args = 4, pretend = 0, frame = 40
 938              		@ frame_needed = 1, uses_anonymous_args = 0
 939 0910 00482DE9 		push	{fp, lr}
 940              		.cfi_def_cfa_offset 8
 941              		.cfi_offset 11, -8
 942              		.cfi_offset 14, -4
 943 0914 04B08DE2 		add	fp, sp, #4
 944              		.cfi_def_cfa 11, 4
 945 0918 48D04DE2 		sub	sp, sp, #72
 946 091c 20000BE5 		str	r0, [fp, #-32]
 947 0920 24100BE5 		str	r1, [fp, #-36]
 948 0924 28200BE5 		str	r2, [fp, #-40]
 949 0928 2C300BE5 		str	r3, [fp, #-44]
 950              		.loc 1 247 1
 951 092c 30249FE5 		ldr	r2, .L52
 952              	.LPIC98:
 953 0930 02208FE0 		add	r2, pc, r2
 954 0934 2C349FE5 		ldr	r3, .L52+4
 955 0938 033092E7 		ldr	r3, [r2, r3]
 956 093c 003093E5 		ldr	r3, [r3]
 957 0940 08300BE5 		str	r3, [fp, #-8]
 958 0944 0030A0E3 		mov	r3, #0
 248:/home/hkh/git/eapidk-code-r76-trunk/lib/linux/../EApiAPI.cpp ****   EApiStatus_t StatusCode=EAPI_STATUS_SUCCESS;
 959              		.loc 1 248 16
 960 0948 0030A0E3 		mov	r3, #0
 961 094c 18300BE5 		str	r3, [fp, #-24]
 249:/home/hkh/git/eapidk-code-r76-trunk/lib/linux/../EApiAPI.cpp ****   uint8_t * pLclBuffer;
 250:/home/hkh/git/eapidk-code-r76-trunk/lib/linux/../EApiAPI.cpp ****   uint32_t LclByteCnt=0;
 962              		.loc 1 250 12
 963 0950 0030A0E3 		mov	r3, #0
 964 0954 10300BE5 		str	r3, [fp, #-16]
 251:/home/hkh/git/eapidk-code-r76-trunk/lib/linux/../EApiAPI.cpp ****   uint32_t ReturnValue;
 252:/home/hkh/git/eapidk-code-r76-trunk/lib/linux/../EApiAPI.cpp ****   uint32_t MaxBlkLen;
 253:/home/hkh/git/eapidk-code-r76-trunk/lib/linux/../EApiAPI.cpp ****   EAPI_CHECK_INITIALIZED(EApiI2CWriteTransfer);
 965              		.loc 1 253 3
 966 0958 0C349FE5 		ldr	r3, .L52+8
 967              	.LPIC69:
 968 095c 03308FE0 		add	r3, pc, r3
 969 0960 003093E5 		ldr	r3, [r3]
 970 0964 000053E3 		cmp	r3, #0
 971 0968 1100001A 		bne	.L38
 972              		.loc 1 253 3 is_stmt 0 discriminator 1
 973 096c FC339FE5 		ldr	r3, .L52+12
 974              	.LPIC70:
 975 0970 03308FE0 		add	r3, pc, r3
 976 0974 08308DE5 		str	r3, [sp, #8]
 977 0978 F4339FE5 		ldr	r3, .L52+16
 978              	.LPIC71:
 979 097c 03308FE0 		add	r3, pc, r3
ARM GAS  /tmp/ccmTPeQn.s 			page 24


 980 0980 04308DE5 		str	r3, [sp, #4]
 981 0984 0030E0E3 		mvn	r3, #0
 982 0988 00308DE5 		str	r3, [sp]
 983 098c FD30A0E3 		mov	r3, #253
 984 0990 E0239FE5 		ldr	r2, .L52+20
 985              	.LPIC72:
 986 0994 02208FE0 		add	r2, pc, r2
 987 0998 DC139FE5 		ldr	r1, .L52+24
 988              	.LPIC73:
 989 099c 01108FE0 		add	r1, pc, r1
 990 09a0 4500A0E3 		mov	r0, #69
 991 09a4 FEFFFFEB 		bl	siFormattedMessage_SC(PLT)
 992 09a8 0030E0E3 		mvn	r3, #0
 993 09ac 18300BE5 		str	r3, [fp, #-24]
 994 09b0 DD0000EA 		b	.L39
 995              	.L38:
 254:/home/hkh/git/eapidk-code-r76-trunk/lib/linux/../EApiAPI.cpp **** 
 255:/home/hkh/git/eapidk-code-r76-trunk/lib/linux/../EApiAPI.cpp ****   EAPI_LIB_ASSERT_PARAMATER_NULL(EApiI2CWriteTransfer, pBuffer);
 996              		.loc 1 255 3 is_stmt 1
 997 09b4 2C301BE5 		ldr	r3, [fp, #-44]
 998 09b8 000053E3 		cmp	r3, #0
 999 09bc 1100001A 		bne	.L40
 1000              		.loc 1 255 3 is_stmt 0 discriminator 1
 1001 09c0 B8339FE5 		ldr	r3, .L52+28
 1002              	.LPIC74:
 1003 09c4 03308FE0 		add	r3, pc, r3
 1004 09c8 08308DE5 		str	r3, [sp, #8]
 1005 09cc B0339FE5 		ldr	r3, .L52+32
 1006              	.LPIC75:
 1007 09d0 03308FE0 		add	r3, pc, r3
 1008 09d4 04308DE5 		str	r3, [sp, #4]
 1009 09d8 013CE0E3 		mvn	r3, #256
 1010 09dc 00308DE5 		str	r3, [sp]
 1011 09e0 FF30A0E3 		mov	r3, #255
 1012 09e4 9C239FE5 		ldr	r2, .L52+36
 1013              	.LPIC76:
 1014 09e8 02208FE0 		add	r2, pc, r2
 1015 09ec 98139FE5 		ldr	r1, .L52+40
 1016              	.LPIC77:
 1017 09f0 01108FE0 		add	r1, pc, r1
 1018 09f4 4500A0E3 		mov	r0, #69
 1019 09f8 FEFFFFEB 		bl	siFormattedMessage_SC(PLT)
 1020 09fc 013CE0E3 		mvn	r3, #256
 1021 0a00 18300BE5 		str	r3, [fp, #-24]
 1022 0a04 C80000EA 		b	.L39
 1023              	.L40:
 256:/home/hkh/git/eapidk-code-r76-trunk/lib/linux/../EApiAPI.cpp **** #if (STRICT_VALIDATION>1)
 257:/home/hkh/git/eapidk-code-r76-trunk/lib/linux/../EApiAPI.cpp ****   siFormattedMessage_M2(
 1024              		.loc 1 257 3 is_stmt 1
 1025 0a08 2C301BE5 		ldr	r3, [fp, #-44]
 1026 0a0c 003093E5 		ldr	r3, [r3]
 1027 0a10 18308DE5 		str	r3, [sp, #24]
 1028 0a14 04309BE5 		ldr	r3, [fp, #4]
 1029 0a18 14308DE5 		str	r3, [sp, #20]
 1030 0a1c 28301BE5 		ldr	r3, [fp, #-40]
 1031 0a20 10308DE5 		str	r3, [sp, #16]
 1032 0a24 24301BE5 		ldr	r3, [fp, #-36]
ARM GAS  /tmp/ccmTPeQn.s 			page 25


 1033 0a28 0C308DE5 		str	r3, [sp, #12]
 1034 0a2c 20301BE5 		ldr	r3, [fp, #-32]
 1035 0a30 08308DE5 		str	r3, [sp, #8]
 1036 0a34 54339FE5 		ldr	r3, .L52+44
 1037              	.LPIC78:
 1038 0a38 03308FE0 		add	r3, pc, r3
 1039 0a3c 04308DE5 		str	r3, [sp, #4]
 1040 0a40 4C339FE5 		ldr	r3, .L52+48
 1041              	.LPIC79:
 1042 0a44 03308FE0 		add	r3, pc, r3
 1043 0a48 00308DE5 		str	r3, [sp]
 1044 0a4c 053100E3 		movw	r3, #261
 1045 0a50 40239FE5 		ldr	r2, .L52+52
 1046              	.LPIC80:
 1047 0a54 02208FE0 		add	r2, pc, r2
 1048 0a58 3C139FE5 		ldr	r1, .L52+56
 1049              	.LPIC81:
 1050 0a5c 01108FE0 		add	r1, pc, r1
 1051 0a60 4C00A0E3 		mov	r0, #76
 1052 0a64 FEFFFFEB 		bl	siFormattedMessage_M2(PLT)
 258:/home/hkh/git/eapidk-code-r76-trunk/lib/linux/../EApiAPI.cpp ****           'L'                   ,
 259:/home/hkh/git/eapidk-code-r76-trunk/lib/linux/../EApiAPI.cpp ****           __FILE__              ,
 260:/home/hkh/git/eapidk-code-r76-trunk/lib/linux/../EApiAPI.cpp ****           "EApiI2CWriteTransfer",
 261:/home/hkh/git/eapidk-code-r76-trunk/lib/linux/../EApiAPI.cpp ****           __LINE__              ,
 262:/home/hkh/git/eapidk-code-r76-trunk/lib/linux/../EApiAPI.cpp ****           "Info"                ,
 263:/home/hkh/git/eapidk-code-r76-trunk/lib/linux/../EApiAPI.cpp ****           "Id=%08"PRIX32" ADDR=%04"PRIX32
 264:/home/hkh/git/eapidk-code-r76-trunk/lib/linux/../EApiAPI.cpp ****           " CMD=%04"PRIX32" BCNT=%04"PRIX32" %08"PRIX32"\n", 
 265:/home/hkh/git/eapidk-code-r76-trunk/lib/linux/../EApiAPI.cpp ****           Id, Addr, Cmd, ByteCnt, ((uint32_t*)pBuffer)[0]
 266:/home/hkh/git/eapidk-code-r76-trunk/lib/linux/../EApiAPI.cpp ****       );
 267:/home/hkh/git/eapidk-code-r76-trunk/lib/linux/../EApiAPI.cpp **** #endif
 268:/home/hkh/git/eapidk-code-r76-trunk/lib/linux/../EApiAPI.cpp ****   EAPI_LIB_ASSERT_PARAMATER_ZERO(EApiI2CWriteTransfer, ByteCnt);
 1053              		.loc 1 268 3
 1054 0a68 04309BE5 		ldr	r3, [fp, #4]
 1055 0a6c 000053E3 		cmp	r3, #0
 1056 0a70 1100001A 		bne	.L41
 1057              		.loc 1 268 3 is_stmt 0 discriminator 1
 1058 0a74 24339FE5 		ldr	r3, .L52+60
 1059              	.LPIC82:
 1060 0a78 03308FE0 		add	r3, pc, r3
 1061 0a7c 08308DE5 		str	r3, [sp, #8]
 1062 0a80 1C339FE5 		ldr	r3, .L52+64
 1063              	.LPIC83:
 1064 0a84 03308FE0 		add	r3, pc, r3
 1065 0a88 04308DE5 		str	r3, [sp, #4]
 1066 0a8c 013CE0E3 		mvn	r3, #256
 1067 0a90 00308DE5 		str	r3, [sp]
 1068 0a94 433FA0E3 		mov	r3, #268
 1069 0a98 08239FE5 		ldr	r2, .L52+68
 1070              	.LPIC84:
 1071 0a9c 02208FE0 		add	r2, pc, r2
 1072 0aa0 04139FE5 		ldr	r1, .L52+72
 1073              	.LPIC85:
 1074 0aa4 01108FE0 		add	r1, pc, r1
 1075 0aa8 4500A0E3 		mov	r0, #69
 1076 0aac FEFFFFEB 		bl	siFormattedMessage_SC(PLT)
 1077 0ab0 013CE0E3 		mvn	r3, #256
 1078 0ab4 18300BE5 		str	r3, [fp, #-24]
ARM GAS  /tmp/ccmTPeQn.s 			page 26


 1079 0ab8 9B0000EA 		b	.L39
 1080              	.L41:
 269:/home/hkh/git/eapidk-code-r76-trunk/lib/linux/../EApiAPI.cpp **** 
 270:/home/hkh/git/eapidk-code-r76-trunk/lib/linux/../EApiAPI.cpp ****   pLclBuffer=(uint8_t *)malloc(ByteCnt+3);
 1081              		.loc 1 270 25 is_stmt 1
 1082 0abc 04309BE5 		ldr	r3, [fp, #4]
 1083 0ac0 033083E2 		add	r3, r3, #3
 1084 0ac4 0300A0E1 		mov	r0, r3
 1085 0ac8 FEFFFFEB 		bl	malloc(PLT)
 1086 0acc 0030A0E1 		mov	r3, r0
 1087 0ad0 14300BE5 		str	r3, [fp, #-20]
 271:/home/hkh/git/eapidk-code-r76-trunk/lib/linux/../EApiAPI.cpp ****   EAPI_LIB_RETURN_ERROR_IF(
 1088              		.loc 1 271 3
 1089 0ad4 14301BE5 		ldr	r3, [fp, #-20]
 1090 0ad8 000053E3 		cmp	r3, #0
 1091 0adc 1100001A 		bne	.L42
 1092              		.loc 1 271 3 is_stmt 0 discriminator 1
 1093 0ae0 C8329FE5 		ldr	r3, .L52+76
 1094              	.LPIC86:
 1095 0ae4 03308FE0 		add	r3, pc, r3
 1096 0ae8 08308DE5 		str	r3, [sp, #8]
 1097 0aec C0329FE5 		ldr	r3, .L52+80
 1098              	.LPIC87:
 1099 0af0 03308FE0 		add	r3, pc, r3
 1100 0af4 04308DE5 		str	r3, [sp, #4]
 1101 0af8 0230E0E3 		mvn	r3, #2
 1102 0afc 00308DE5 		str	r3, [sp]
 1103 0b00 0F3100E3 		movw	r3, #271
 1104 0b04 AC229FE5 		ldr	r2, .L52+84
 1105              	.LPIC88:
 1106 0b08 02208FE0 		add	r2, pc, r2
 1107 0b0c A8129FE5 		ldr	r1, .L52+88
 1108              	.LPIC89:
 1109 0b10 01108FE0 		add	r1, pc, r1
 1110 0b14 4500A0E3 		mov	r0, #69
 1111 0b18 FEFFFFEB 		bl	siFormattedMessage_SC(PLT)
 1112 0b1c 0230E0E3 		mvn	r3, #2
 1113 0b20 18300BE5 		str	r3, [fp, #-24]
 1114 0b24 800000EA 		b	.L39
 1115              	.L42:
 272:/home/hkh/git/eapidk-code-r76-trunk/lib/linux/../EApiAPI.cpp ****       EApiI2CWriteTransfer, 
 273:/home/hkh/git/eapidk-code-r76-trunk/lib/linux/../EApiAPI.cpp ****       (pLclBuffer==NULL), 
 274:/home/hkh/git/eapidk-code-r76-trunk/lib/linux/../EApiAPI.cpp ****       EAPI_STATUS_ALLOC_ERROR, 
 275:/home/hkh/git/eapidk-code-r76-trunk/lib/linux/../EApiAPI.cpp ****       "Error Allocating Memory"
 276:/home/hkh/git/eapidk-code-r76-trunk/lib/linux/../EApiAPI.cpp ****       );
 277:/home/hkh/git/eapidk-code-r76-trunk/lib/linux/../EApiAPI.cpp **** 
 278:/home/hkh/git/eapidk-code-r76-trunk/lib/linux/../EApiAPI.cpp ****   if(EAPI_I2C_IS_10BIT_ADDR(Addr))
 1116              		.loc 1 278 6 is_stmt 1
 1117 0b28 24301BE5 		ldr	r3, [fp, #-36]
 1118 0b2c 3E3B03E2 		and	r3, r3, #63488
 1119              		.loc 1 278 5
 1120 0b30 0F0A53E3 		cmp	r3, #61440
 1121 0b34 0900001A 		bne	.L43
 279:/home/hkh/git/eapidk-code-r76-trunk/lib/linux/../EApiAPI.cpp ****   {
 280:/home/hkh/git/eapidk-code-r76-trunk/lib/linux/../EApiAPI.cpp ****     *pLclBuffer=(uint8_t)Addr&0xFF;
 1122              		.loc 1 280 17
 1123 0b38 24301BE5 		ldr	r3, [fp, #-36]
ARM GAS  /tmp/ccmTPeQn.s 			page 27


 1124 0b3c 7320EFE6 		uxtb	r2, r3
 1125              		.loc 1 280 16
 1126 0b40 14301BE5 		ldr	r3, [fp, #-20]
 1127 0b44 0020C3E5 		strb	r2, [r3]
 281:/home/hkh/git/eapidk-code-r76-trunk/lib/linux/../EApiAPI.cpp ****     Addr>>=8;
 1128              		.loc 1 281 9
 1129 0b48 24301BE5 		ldr	r3, [fp, #-36]
 1130 0b4c 2334A0E1 		lsr	r3, r3, #8
 1131 0b50 24300BE5 		str	r3, [fp, #-36]
 282:/home/hkh/git/eapidk-code-r76-trunk/lib/linux/../EApiAPI.cpp ****     LclByteCnt++;
 1132              		.loc 1 282 15
 1133 0b54 10301BE5 		ldr	r3, [fp, #-16]
 1134 0b58 013083E2 		add	r3, r3, #1
 1135 0b5c 10300BE5 		str	r3, [fp, #-16]
 1136              	.L43:
 283:/home/hkh/git/eapidk-code-r76-trunk/lib/linux/../EApiAPI.cpp ****   }
 284:/home/hkh/git/eapidk-code-r76-trunk/lib/linux/../EApiAPI.cpp **** 
 285:/home/hkh/git/eapidk-code-r76-trunk/lib/linux/../EApiAPI.cpp ****   if(!EAPI_I2C_IS_NO_CMD(Cmd)){
 1137              		.loc 1 285 7
 1138 0b60 28301BE5 		ldr	r3, [fp, #-40]
 1139 0b64 033103E2 		and	r3, r3, #-1073741824
 1140              		.loc 1 285 5
 1141 0b68 010153E3 		cmp	r3, #1073741824
 1142 0b6c 1400000A 		beq	.L44
 286:/home/hkh/git/eapidk-code-r76-trunk/lib/linux/../EApiAPI.cpp ****     if(EAPI_I2C_IS_EXT_CMD(Cmd)){
 1143              		.loc 1 286 8
 1144 0b70 28301BE5 		ldr	r3, [fp, #-40]
 1145 0b74 033103E2 		and	r3, r3, #-1073741824
 1146              		.loc 1 286 7
 1147 0b78 020153E3 		cmp	r3, #-2147483648
 1148 0b7c 0800001A 		bne	.L45
 287:/home/hkh/git/eapidk-code-r76-trunk/lib/linux/../EApiAPI.cpp ****       pLclBuffer[LclByteCnt++]=(uint8_t)((Cmd>>8)&UINT8_MAX);
 1149              		.loc 1 287 46
 1150 0b80 28301BE5 		ldr	r3, [fp, #-40]
 1151 0b84 2314A0E1 		lsr	r1, r3, #8
 1152              		.loc 1 287 28
 1153 0b88 10301BE5 		ldr	r3, [fp, #-16]
 1154 0b8c 012083E2 		add	r2, r3, #1
 1155 0b90 10200BE5 		str	r2, [fp, #-16]
 1156              		.loc 1 287 17
 1157 0b94 14201BE5 		ldr	r2, [fp, #-20]
 1158 0b98 033082E0 		add	r3, r2, r3
 1159              		.loc 1 287 32
 1160 0b9c 7120EFE6 		uxtb	r2, r1
 1161              		.loc 1 287 31
 1162 0ba0 0020C3E5 		strb	r2, [r3]
 1163              	.L45:
 288:/home/hkh/git/eapidk-code-r76-trunk/lib/linux/../EApiAPI.cpp ****     }
 289:/home/hkh/git/eapidk-code-r76-trunk/lib/linux/../EApiAPI.cpp ****     pLclBuffer[LclByteCnt++]=(uint8_t)((Cmd)&UINT8_MAX);
 1164              		.loc 1 289 26
 1165 0ba4 10301BE5 		ldr	r3, [fp, #-16]
 1166 0ba8 012083E2 		add	r2, r3, #1
 1167 0bac 10200BE5 		str	r2, [fp, #-16]
 1168              		.loc 1 289 15
 1169 0bb0 14201BE5 		ldr	r2, [fp, #-20]
 1170 0bb4 033082E0 		add	r3, r2, r3
 1171              		.loc 1 289 30
ARM GAS  /tmp/ccmTPeQn.s 			page 28


 1172 0bb8 28201BE5 		ldr	r2, [fp, #-40]
 1173 0bbc 7220EFE6 		uxtb	r2, r2
 1174              		.loc 1 289 29
 1175 0bc0 0020C3E5 		strb	r2, [r3]
 1176              	.L44:
 290:/home/hkh/git/eapidk-code-r76-trunk/lib/linux/../EApiAPI.cpp ****   }
 291:/home/hkh/git/eapidk-code-r76-trunk/lib/linux/../EApiAPI.cpp **** 
 292:/home/hkh/git/eapidk-code-r76-trunk/lib/linux/../EApiAPI.cpp **** #if (STRICT_VALIDATION>1)
 293:/home/hkh/git/eapidk-code-r76-trunk/lib/linux/../EApiAPI.cpp ****   EApiI2CGetBusCap(Id, &MaxBlkLen);
 1177              		.loc 1 293 3
 1178 0bc4 1C304BE2 		sub	r3, fp, #28
 1179 0bc8 0310A0E1 		mov	r1, r3
 1180 0bcc 20001BE5 		ldr	r0, [fp, #-32]
 1181 0bd0 FEFFFFEB 		bl	EApiI2CGetBusCap(PLT)
 294:/home/hkh/git/eapidk-code-r76-trunk/lib/linux/../EApiAPI.cpp ****   EAPI_LIB_ASSERT_PARAMATER_CHECK(
 1182              		.loc 1 294 3
 1183 0bd4 10201BE5 		ldr	r2, [fp, #-16]
 1184 0bd8 04309BE5 		ldr	r3, [fp, #4]
 1185 0bdc 032082E0 		add	r2, r2, r3
 1186 0be0 1C301BE5 		ldr	r3, [fp, #-28]
 1187 0be4 030052E1 		cmp	r2, r3
 1188 0be8 1100009A 		bls	.L46
 1189              		.loc 1 294 3 is_stmt 0 discriminator 1
 1190 0bec CC319FE5 		ldr	r3, .L52+92
 1191              	.LPIC90:
 1192 0bf0 03308FE0 		add	r3, pc, r3
 1193 0bf4 08308DE5 		str	r3, [sp, #8]
 1194 0bf8 C4319FE5 		ldr	r3, .L52+96
 1195              	.LPIC91:
 1196 0bfc 03308FE0 		add	r3, pc, r3
 1197 0c00 04308DE5 		str	r3, [sp, #4]
 1198 0c04 013CE0E3 		mvn	r3, #256
 1199 0c08 00308DE5 		str	r3, [sp]
 1200 0c0c 263100E3 		movw	r3, #294
 1201 0c10 B0219FE5 		ldr	r2, .L52+100
 1202              	.LPIC92:
 1203 0c14 02208FE0 		add	r2, pc, r2
 1204 0c18 AC119FE5 		ldr	r1, .L52+104
 1205              	.LPIC93:
 1206 0c1c 01108FE0 		add	r1, pc, r1
 1207 0c20 4500A0E3 		mov	r0, #69
 1208 0c24 FEFFFFEB 		bl	siFormattedMessage_SC(PLT)
 1209 0c28 013CE0E3 		mvn	r3, #256
 1210 0c2c 18300BE5 		str	r3, [fp, #-24]
 1211 0c30 3D0000EA 		b	.L39
 1212              	.L46:
 295:/home/hkh/git/eapidk-code-r76-trunk/lib/linux/../EApiAPI.cpp ****       EApiI2CWriteTransfer, 
 296:/home/hkh/git/eapidk-code-r76-trunk/lib/linux/../EApiAPI.cpp ****       (LclByteCnt+ByteCnt>MaxBlkLen), 
 297:/home/hkh/git/eapidk-code-r76-trunk/lib/linux/../EApiAPI.cpp ****       "Transfer Length too long for interface"
 298:/home/hkh/git/eapidk-code-r76-trunk/lib/linux/../EApiAPI.cpp ****       );
 299:/home/hkh/git/eapidk-code-r76-trunk/lib/linux/../EApiAPI.cpp **** #endif
 300:/home/hkh/git/eapidk-code-r76-trunk/lib/linux/../EApiAPI.cpp **** 
 301:/home/hkh/git/eapidk-code-r76-trunk/lib/linux/../EApiAPI.cpp ****   if(LclByteCnt)
 1213              		.loc 1 301 5 is_stmt 1
 1214 0c34 10301BE5 		ldr	r3, [fp, #-16]
 1215 0c38 000053E3 		cmp	r3, #0
 1216 0c3c 0700000A 		beq	.L47
ARM GAS  /tmp/ccmTPeQn.s 			page 29


 302:/home/hkh/git/eapidk-code-r76-trunk/lib/linux/../EApiAPI.cpp ****     memcpy(pLclBuffer+LclByteCnt, pBuffer, ByteCnt);
 1217              		.loc 1 302 22
 1218 0c40 14201BE5 		ldr	r2, [fp, #-20]
 1219 0c44 10301BE5 		ldr	r3, [fp, #-16]
 1220 0c48 033082E0 		add	r3, r2, r3
 1221              		.loc 1 302 5
 1222 0c4c 04209BE5 		ldr	r2, [fp, #4]
 1223 0c50 2C101BE5 		ldr	r1, [fp, #-44]
 1224 0c54 0300A0E1 		mov	r0, r3
 1225 0c58 FEFFFFEB 		bl	memcpy(PLT)
 1226 0c5c 030000EA 		b	.L48
 1227              	.L47:
 303:/home/hkh/git/eapidk-code-r76-trunk/lib/linux/../EApiAPI.cpp ****   else
 304:/home/hkh/git/eapidk-code-r76-trunk/lib/linux/../EApiAPI.cpp ****   {
 305:/home/hkh/git/eapidk-code-r76-trunk/lib/linux/../EApiAPI.cpp ****     free(pLclBuffer);
 1228              		.loc 1 305 5
 1229 0c60 14001BE5 		ldr	r0, [fp, #-20]
 1230 0c64 FEFFFFEB 		bl	free(PLT)
 306:/home/hkh/git/eapidk-code-r76-trunk/lib/linux/../EApiAPI.cpp ****     pLclBuffer=(uint8_t *)pBuffer;
 1231              		.loc 1 306 15
 1232 0c68 2C301BE5 		ldr	r3, [fp, #-44]
 1233 0c6c 14300BE5 		str	r3, [fp, #-20]
 1234              	.L48:
 307:/home/hkh/git/eapidk-code-r76-trunk/lib/linux/../EApiAPI.cpp ****   }
 308:/home/hkh/git/eapidk-code-r76-trunk/lib/linux/../EApiAPI.cpp **** #if (STRICT_VALIDATION>1)
 309:/home/hkh/git/eapidk-code-r76-trunk/lib/linux/../EApiAPI.cpp ****   siFormattedMessage_M2(
 1235              		.loc 1 309 3
 1236 0c70 14301BE5 		ldr	r3, [fp, #-20]
 1237 0c74 003093E5 		ldr	r3, [r3]
 1238 0c78 18308DE5 		str	r3, [sp, #24]
 1239 0c7c 04309BE5 		ldr	r3, [fp, #4]
 1240 0c80 14308DE5 		str	r3, [sp, #20]
 1241 0c84 28301BE5 		ldr	r3, [fp, #-40]
 1242 0c88 10308DE5 		str	r3, [sp, #16]
 1243 0c8c 24301BE5 		ldr	r3, [fp, #-36]
 1244 0c90 0C308DE5 		str	r3, [sp, #12]
 1245 0c94 20301BE5 		ldr	r3, [fp, #-32]
 1246 0c98 08308DE5 		str	r3, [sp, #8]
 1247 0c9c 2C319FE5 		ldr	r3, .L52+108
 1248              	.LPIC94:
 1249 0ca0 03308FE0 		add	r3, pc, r3
 1250 0ca4 04308DE5 		str	r3, [sp, #4]
 1251 0ca8 24319FE5 		ldr	r3, .L52+112
 1252              	.LPIC95:
 1253 0cac 03308FE0 		add	r3, pc, r3
 1254 0cb0 00308DE5 		str	r3, [sp]
 1255 0cb4 393100E3 		movw	r3, #313
 1256 0cb8 18219FE5 		ldr	r2, .L52+116
 1257              	.LPIC96:
 1258 0cbc 02208FE0 		add	r2, pc, r2
 1259 0cc0 14119FE5 		ldr	r1, .L52+120
 1260              	.LPIC97:
 1261 0cc4 01108FE0 		add	r1, pc, r1
 1262 0cc8 4C00A0E3 		mov	r0, #76
 1263 0ccc FEFFFFEB 		bl	siFormattedMessage_M2(PLT)
 310:/home/hkh/git/eapidk-code-r76-trunk/lib/linux/../EApiAPI.cpp ****           'L'                   ,
 311:/home/hkh/git/eapidk-code-r76-trunk/lib/linux/../EApiAPI.cpp ****           __FILE__              ,
ARM GAS  /tmp/ccmTPeQn.s 			page 30


 312:/home/hkh/git/eapidk-code-r76-trunk/lib/linux/../EApiAPI.cpp ****           "EApiI2CWriteTransfer",
 313:/home/hkh/git/eapidk-code-r76-trunk/lib/linux/../EApiAPI.cpp ****           __LINE__              ,
 314:/home/hkh/git/eapidk-code-r76-trunk/lib/linux/../EApiAPI.cpp ****           "Info"                ,
 315:/home/hkh/git/eapidk-code-r76-trunk/lib/linux/../EApiAPI.cpp ****           "Id=%08"PRIX32" ADDR=%04"PRIX32" CMD=%04"PRIX32
 316:/home/hkh/git/eapidk-code-r76-trunk/lib/linux/../EApiAPI.cpp ****           " BCNT=%04"PRIX32" %08"PRIX32"\n", 
 317:/home/hkh/git/eapidk-code-r76-trunk/lib/linux/../EApiAPI.cpp ****           Id, Addr, Cmd, ByteCnt, 
 318:/home/hkh/git/eapidk-code-r76-trunk/lib/linux/../EApiAPI.cpp ****           ((uint32_t*)pLclBuffer)[0]
 319:/home/hkh/git/eapidk-code-r76-trunk/lib/linux/../EApiAPI.cpp ****         );
 320:/home/hkh/git/eapidk-code-r76-trunk/lib/linux/../EApiAPI.cpp **** #endif
 321:/home/hkh/git/eapidk-code-r76-trunk/lib/linux/../EApiAPI.cpp ****   ReturnValue=EApiI2CWriteReadRaw(
 1264              		.loc 1 321 15
 1265 0cd0 24301BE5 		ldr	r3, [fp, #-36]
 1266 0cd4 7310EFE6 		uxtb	r1, r3
 322:/home/hkh/git/eapidk-code-r76-trunk/lib/linux/../EApiAPI.cpp ****       Id, 
 323:/home/hkh/git/eapidk-code-r76-trunk/lib/linux/../EApiAPI.cpp ****       (uint8_t)Addr, 
 324:/home/hkh/git/eapidk-code-r76-trunk/lib/linux/../EApiAPI.cpp ****       pLclBuffer, 
 325:/home/hkh/git/eapidk-code-r76-trunk/lib/linux/../EApiAPI.cpp ****       LclByteCnt+ByteCnt+1, 
 1267              		.loc 1 325 17
 1268 0cd8 10201BE5 		ldr	r2, [fp, #-16]
 1269 0cdc 04309BE5 		ldr	r3, [fp, #4]
 1270 0ce0 033082E0 		add	r3, r2, r3
 321:/home/hkh/git/eapidk-code-r76-trunk/lib/linux/../EApiAPI.cpp ****       Id, 
 1271              		.loc 1 321 15
 1272 0ce4 013083E2 		add	r3, r3, #1
 1273 0ce8 0020A0E3 		mov	r2, #0
 1274 0cec 08208DE5 		str	r2, [sp, #8]
 1275 0cf0 0020A0E3 		mov	r2, #0
 1276 0cf4 04208DE5 		str	r2, [sp, #4]
 1277 0cf8 0020A0E3 		mov	r2, #0
 1278 0cfc 00208DE5 		str	r2, [sp]
 1279 0d00 14201BE5 		ldr	r2, [fp, #-20]
 1280 0d04 20001BE5 		ldr	r0, [fp, #-32]
 1281 0d08 FEFFFFEB 		bl	EApiI2CWriteReadRaw(PLT)
 1282 0d0c 0C000BE5 		str	r0, [fp, #-12]
 326:/home/hkh/git/eapidk-code-r76-trunk/lib/linux/../EApiAPI.cpp ****       NULL, 
 327:/home/hkh/git/eapidk-code-r76-trunk/lib/linux/../EApiAPI.cpp ****       0, 
 328:/home/hkh/git/eapidk-code-r76-trunk/lib/linux/../EApiAPI.cpp ****       0
 329:/home/hkh/git/eapidk-code-r76-trunk/lib/linux/../EApiAPI.cpp ****       );
 330:/home/hkh/git/eapidk-code-r76-trunk/lib/linux/../EApiAPI.cpp ****   if(LclByteCnt)
 1283              		.loc 1 330 5
 1284 0d10 10301BE5 		ldr	r3, [fp, #-16]
 1285 0d14 000053E3 		cmp	r3, #0
 1286 0d18 0200000A 		beq	.L51
 331:/home/hkh/git/eapidk-code-r76-trunk/lib/linux/../EApiAPI.cpp ****     free(pLclBuffer);
 1287              		.loc 1 331 5
 1288 0d1c 14001BE5 		ldr	r0, [fp, #-20]
 1289 0d20 FEFFFFEB 		bl	free(PLT)
 1290 0d24 000000EA 		b	.L39
 1291              	.L51:
 332:/home/hkh/git/eapidk-code-r76-trunk/lib/linux/../EApiAPI.cpp **** EAPI_LIB_ASSERT_EXIT
 1292              		.loc 1 332 1
 1293 0d28 00F020E3 		nop
 1294              	.L39:
 333:/home/hkh/git/eapidk-code-r76-trunk/lib/linux/../EApiAPI.cpp ****   return StatusCode;
 1295              		.loc 1 333 10
 1296 0d2c 18301BE5 		ldr	r3, [fp, #-24]
 247:/home/hkh/git/eapidk-code-r76-trunk/lib/linux/../EApiAPI.cpp ****   EApiStatus_t StatusCode=EAPI_STATUS_SUCCESS;
ARM GAS  /tmp/ccmTPeQn.s 			page 31


 1297              		.loc 1 247 1
 1298 0d30 A8109FE5 		ldr	r1, .L52+124
 1299              	.LPIC99:
 1300 0d34 01108FE0 		add	r1, pc, r1
 334:/home/hkh/git/eapidk-code-r76-trunk/lib/linux/../EApiAPI.cpp **** }
 1301              		.loc 1 334 1
 1302 0d38 28209FE5 		ldr	r2, .L52+4
 1303 0d3c 022091E7 		ldr	r2, [r1, r2]
 1304 0d40 001092E5 		ldr	r1, [r2]
 1305 0d44 08201BE5 		ldr	r2, [fp, #-8]
 1306 0d48 011032E0 		eors	r1, r2, r1
 1307 0d4c 0020A0E3 		mov	r2, #0
 1308 0d50 0000000A 		beq	.L50
 1309 0d54 FEFFFFEB 		bl	__stack_chk_fail(PLT)
 1310              	.L50:
 1311 0d58 0300A0E1 		mov	r0, r3
 1312 0d5c 04D04BE2 		sub	sp, fp, #4
 1313              		.cfi_def_cfa 13, 8
 1314              		@ sp needed
 1315 0d60 0088BDE8 		pop	{fp, pc}
 1316              	.L53:
 1317              		.align	2
 1318              	.L52:
 1319 0d64 2C040000 		.word	_GLOBAL_OFFSET_TABLE_-(.LPIC98+8)
 1320 0d68 00000000 		.word	__stack_chk_guard(GOT)
 1321 0d6c 08040000 		.word	Initialized-(.LPIC69+8)
 1322 0d70 4C040000 		.word	.LC2-(.LPIC70+8)
 1323 0d74 5C040000 		.word	.LC3-(.LPIC71+8)
 1324 0d78 88040000 		.word	.LC7-(.LPIC72+8)
 1325 0d7c EC030000 		.word	.LC1-(.LPIC73+8)
 1326 0d80 70050000 		.word	.LC16-(.LPIC74+8)
 1327 0d84 18040000 		.word	.LC3-(.LPIC75+8)
 1328 0d88 44040000 		.word	.LC7-(.LPIC76+8)
 1329 0d8c A8030000 		.word	.LC1-(.LPIC77+8)
 1330 0d90 60050000 		.word	.LC20-(.LPIC78+8)
 1331 0d94 58040000 		.word	.LC9-(.LPIC79+8)
 1332 0d98 E8030000 		.word	.LC7-(.LPIC80+8)
 1333 0d9c 4C030000 		.word	.LC1-(.LPIC81+8)
 1334 0da0 F8040000 		.word	.LC18-(.LPIC82+8)
 1335 0da4 84030000 		.word	.LC3-(.LPIC83+8)
 1336 0da8 B0030000 		.word	.LC7-(.LPIC84+8)
 1337 0dac 14030000 		.word	.LC1-(.LPIC85+8)
 1338 0db0 00050000 		.word	.LC21-(.LPIC86+8)
 1339 0db4 28030000 		.word	.LC3-(.LPIC87+8)
 1340 0db8 54030000 		.word	.LC7-(.LPIC88+8)
 1341 0dbc B8020000 		.word	.LC1-(.LPIC89+8)
 1342 0dc0 1C040000 		.word	.LC22-(.LPIC90+8)
 1343 0dc4 2C020000 		.word	.LC3-(.LPIC91+8)
 1344 0dc8 58020000 		.word	.LC7-(.LPIC92+8)
 1345 0dcc BC010000 		.word	.LC1-(.LPIC93+8)
 1346 0dd0 38030000 		.word	.LC20-(.LPIC94+8)
 1347 0dd4 30020000 		.word	.LC9-(.LPIC95+8)
 1348 0dd8 C0010000 		.word	.LC7-(.LPIC96+8)
 1349 0ddc 24010000 		.word	.LC1-(.LPIC97+8)
 1350 0de0 A4000000 		.word	_GLOBAL_OFFSET_TABLE_-(.LPIC99+8)
 1351              		.cfi_endproc
 1352              	.LFE4:
ARM GAS  /tmp/ccmTPeQn.s 			page 32


 1354              		.align	2
 1355              		.global	EApiI2CProbeDevice
 1356              		.syntax unified
 1357              		.arm
 1358              		.fpu vfpv3
 1360              	EApiI2CProbeDevice:
 1361              	.LFB5:
 335:/home/hkh/git/eapidk-code-r76-trunk/lib/linux/../EApiAPI.cpp **** 
 336:/home/hkh/git/eapidk-code-r76-trunk/lib/linux/../EApiAPI.cpp **** EApiStatus_t 
 337:/home/hkh/git/eapidk-code-r76-trunk/lib/linux/../EApiAPI.cpp **** EAPI_CALLTYPE
 338:/home/hkh/git/eapidk-code-r76-trunk/lib/linux/../EApiAPI.cpp **** EApiI2CProbeDevice(
 339:/home/hkh/git/eapidk-code-r76-trunk/lib/linux/../EApiAPI.cpp ****     __IN  EApiId_t  Id   , /* I2C Bus Id */
 340:/home/hkh/git/eapidk-code-r76-trunk/lib/linux/../EApiAPI.cpp ****     __IN  uint32_t  Addr   /* Encoded 7/10Bit 
 341:/home/hkh/git/eapidk-code-r76-trunk/lib/linux/../EApiAPI.cpp ****                             * I2C Device Address 
 342:/home/hkh/git/eapidk-code-r76-trunk/lib/linux/../EApiAPI.cpp ****                             */
 343:/home/hkh/git/eapidk-code-r76-trunk/lib/linux/../EApiAPI.cpp ****     )
 344:/home/hkh/git/eapidk-code-r76-trunk/lib/linux/../EApiAPI.cpp **** {
 1362              		.loc 1 344 1
 1363              		.cfi_startproc
 1364              		@ args = 0, pretend = 0, frame = 32
 1365              		@ frame_needed = 1, uses_anonymous_args = 0
 1366 0de4 00482DE9 		push	{fp, lr}
 1367              		.cfi_def_cfa_offset 8
 1368              		.cfi_offset 11, -8
 1369              		.cfi_offset 14, -4
 1370 0de8 04B08DE2 		add	fp, sp, #4
 1371              		.cfi_def_cfa 11, 4
 1372 0dec 30D04DE2 		sub	sp, sp, #48
 1373 0df0 20000BE5 		str	r0, [fp, #-32]
 1374 0df4 24100BE5 		str	r1, [fp, #-36]
 1375              		.loc 1 344 1
 1376 0df8 68219FE5 		ldr	r2, .L61
 1377              	.LPIC105:
 1378 0dfc 02208FE0 		add	r2, pc, r2
 1379 0e00 64319FE5 		ldr	r3, .L61+4
 1380 0e04 033092E7 		ldr	r3, [r2, r3]
 1381 0e08 003093E5 		ldr	r3, [r3]
 1382 0e0c 08300BE5 		str	r3, [fp, #-8]
 1383 0e10 0030A0E3 		mov	r3, #0
 345:/home/hkh/git/eapidk-code-r76-trunk/lib/linux/../EApiAPI.cpp ****   EApiStatus_t StatusCode=EAPI_STATUS_SUCCESS;
 1384              		.loc 1 345 16
 1385 0e14 0030A0E3 		mov	r3, #0
 1386 0e18 18300BE5 		str	r3, [fp, #-24]
 346:/home/hkh/git/eapidk-code-r76-trunk/lib/linux/../EApiAPI.cpp ****   uint8_t LclpBuffer[8]={0};
 1387              		.loc 1 346 11
 1388 0e1c 0030A0E3 		mov	r3, #0
 1389 0e20 10300BE5 		str	r3, [fp, #-16]
 1390 0e24 0030A0E3 		mov	r3, #0
 1391 0e28 0C300BE5 		str	r3, [fp, #-12]
 347:/home/hkh/git/eapidk-code-r76-trunk/lib/linux/../EApiAPI.cpp ****   int LclByteCnt=0;
 1392              		.loc 1 347 7
 1393 0e2c 0030A0E3 		mov	r3, #0
 1394 0e30 14300BE5 		str	r3, [fp, #-20]
 348:/home/hkh/git/eapidk-code-r76-trunk/lib/linux/../EApiAPI.cpp ****   EAPI_CHECK_INITIALIZED(EApiI2CWriteTransfer);
 1395              		.loc 1 348 3
 1396 0e34 34319FE5 		ldr	r3, .L61+8
 1397              	.LPIC100:
ARM GAS  /tmp/ccmTPeQn.s 			page 33


 1398 0e38 03308FE0 		add	r3, pc, r3
 1399 0e3c 003093E5 		ldr	r3, [r3]
 1400 0e40 000053E3 		cmp	r3, #0
 1401 0e44 1100001A 		bne	.L55
 1402              		.loc 1 348 3 is_stmt 0 discriminator 1
 1403 0e48 24319FE5 		ldr	r3, .L61+12
 1404              	.LPIC101:
 1405 0e4c 03308FE0 		add	r3, pc, r3
 1406 0e50 08308DE5 		str	r3, [sp, #8]
 1407 0e54 1C319FE5 		ldr	r3, .L61+16
 1408              	.LPIC102:
 1409 0e58 03308FE0 		add	r3, pc, r3
 1410 0e5c 04308DE5 		str	r3, [sp, #4]
 1411 0e60 0030E0E3 		mvn	r3, #0
 1412 0e64 00308DE5 		str	r3, [sp]
 1413 0e68 573FA0E3 		mov	r3, #348
 1414 0e6c 08219FE5 		ldr	r2, .L61+20
 1415              	.LPIC103:
 1416 0e70 02208FE0 		add	r2, pc, r2
 1417 0e74 04119FE5 		ldr	r1, .L61+24
 1418              	.LPIC104:
 1419 0e78 01108FE0 		add	r1, pc, r1
 1420 0e7c 4500A0E3 		mov	r0, #69
 1421 0e80 FEFFFFEB 		bl	siFormattedMessage_SC(PLT)
 1422 0e84 0030E0E3 		mvn	r3, #0
 1423 0e88 18300BE5 		str	r3, [fp, #-24]
 1424 0e8c 270000EA 		b	.L56
 1425              	.L55:
 349:/home/hkh/git/eapidk-code-r76-trunk/lib/linux/../EApiAPI.cpp ****   if(EAPI_I2C_IS_10BIT_ADDR(Addr))
 1426              		.loc 1 349 6 is_stmt 1
 1427 0e90 24301BE5 		ldr	r3, [fp, #-36]
 1428 0e94 3E3B03E2 		and	r3, r3, #63488
 1429              		.loc 1 349 5
 1430 0e98 0F0A53E3 		cmp	r3, #61440
 1431 0e9c 0A00001A 		bne	.L57
 350:/home/hkh/git/eapidk-code-r76-trunk/lib/linux/../EApiAPI.cpp ****   {
 351:/home/hkh/git/eapidk-code-r76-trunk/lib/linux/../EApiAPI.cpp ****     LclpBuffer[LclByteCnt++]=(uint8_t)(Addr&0xFF);
 1432              		.loc 1 351 26
 1433 0ea0 14301BE5 		ldr	r3, [fp, #-20]
 1434 0ea4 012083E2 		add	r2, r3, #1
 1435 0ea8 14200BE5 		str	r2, [fp, #-20]
 1436              		.loc 1 351 30
 1437 0eac 24201BE5 		ldr	r2, [fp, #-36]
 1438 0eb0 7220EFE6 		uxtb	r2, r2
 1439              		.loc 1 351 29
 1440 0eb4 043043E2 		sub	r3, r3, #4
 1441 0eb8 0B3083E0 		add	r3, r3, fp
 1442 0ebc 0C2043E5 		strb	r2, [r3, #-12]
 352:/home/hkh/git/eapidk-code-r76-trunk/lib/linux/../EApiAPI.cpp ****     Addr>>=8;
 1443              		.loc 1 352 9
 1444 0ec0 24301BE5 		ldr	r3, [fp, #-36]
 1445 0ec4 2334A0E1 		lsr	r3, r3, #8
 1446 0ec8 24300BE5 		str	r3, [fp, #-36]
 1447              	.L57:
 353:/home/hkh/git/eapidk-code-r76-trunk/lib/linux/../EApiAPI.cpp ****   }
 354:/home/hkh/git/eapidk-code-r76-trunk/lib/linux/../EApiAPI.cpp ****   StatusCode=EApiI2CWriteReadRaw(
 1448              		.loc 1 354 14
ARM GAS  /tmp/ccmTPeQn.s 			page 34


 1449 0ecc 24301BE5 		ldr	r3, [fp, #-36]
 1450 0ed0 7310EFE6 		uxtb	r1, r3
 355:/home/hkh/git/eapidk-code-r76-trunk/lib/linux/../EApiAPI.cpp ****       Id, 
 356:/home/hkh/git/eapidk-code-r76-trunk/lib/linux/../EApiAPI.cpp ****       (uint8_t)Addr, 
 357:/home/hkh/git/eapidk-code-r76-trunk/lib/linux/../EApiAPI.cpp ****       LclpBuffer, 
 358:/home/hkh/git/eapidk-code-r76-trunk/lib/linux/../EApiAPI.cpp ****       LclByteCnt+1, 
 1451              		.loc 1 358 17
 1452 0ed4 14301BE5 		ldr	r3, [fp, #-20]
 1453 0ed8 013083E2 		add	r3, r3, #1
 354:/home/hkh/git/eapidk-code-r76-trunk/lib/linux/../EApiAPI.cpp ****       Id, 
 1454              		.loc 1 354 14
 1455 0edc 0300A0E1 		mov	r0, r3
 1456 0ee0 10204BE2 		sub	r2, fp, #16
 1457 0ee4 0030A0E3 		mov	r3, #0
 1458 0ee8 08308DE5 		str	r3, [sp, #8]
 1459 0eec 0030A0E3 		mov	r3, #0
 1460 0ef0 04308DE5 		str	r3, [sp, #4]
 1461 0ef4 0030A0E3 		mov	r3, #0
 1462 0ef8 00308DE5 		str	r3, [sp]
 1463 0efc 0030A0E1 		mov	r3, r0
 1464 0f00 20001BE5 		ldr	r0, [fp, #-32]
 1465 0f04 FEFFFFEB 		bl	EApiI2CWriteReadRaw(PLT)
 1466 0f08 18000BE5 		str	r0, [fp, #-24]
 359:/home/hkh/git/eapidk-code-r76-trunk/lib/linux/../EApiAPI.cpp ****       NULL, 
 360:/home/hkh/git/eapidk-code-r76-trunk/lib/linux/../EApiAPI.cpp ****       0, 
 361:/home/hkh/git/eapidk-code-r76-trunk/lib/linux/../EApiAPI.cpp ****       0
 362:/home/hkh/git/eapidk-code-r76-trunk/lib/linux/../EApiAPI.cpp ****       );
 363:/home/hkh/git/eapidk-code-r76-trunk/lib/linux/../EApiAPI.cpp ****   if(StatusCode==EAPI_STATUS_WRITE_ERROR)
 1467              		.loc 1 363 5
 1468 0f0c 18201BE5 		ldr	r2, [fp, #-24]
 1469 0f10 FE3A0FE3 		movw	r3, #64254
 1470 0f14 FF3F4FE3 		movt	r3, 65535
 1471 0f18 030052E1 		cmp	r2, r3
 1472 0f1c 0200001A 		bne	.L60
 364:/home/hkh/git/eapidk-code-r76-trunk/lib/linux/../EApiAPI.cpp ****     StatusCode=EAPI_STATUS_NOT_FOUND;
 1473              		.loc 1 364 15
 1474 0f20 013BE0E3 		mvn	r3, #1024
 1475 0f24 18300BE5 		str	r3, [fp, #-24]
 1476 0f28 000000EA 		b	.L56
 1477              	.L60:
 365:/home/hkh/git/eapidk-code-r76-trunk/lib/linux/../EApiAPI.cpp **** EAPI_LIB_ASSERT_EXIT
 1478              		.loc 1 365 1
 1479 0f2c 00F020E3 		nop
 1480              	.L56:
 366:/home/hkh/git/eapidk-code-r76-trunk/lib/linux/../EApiAPI.cpp ****   return StatusCode;
 1481              		.loc 1 366 10
 1482 0f30 18301BE5 		ldr	r3, [fp, #-24]
 344:/home/hkh/git/eapidk-code-r76-trunk/lib/linux/../EApiAPI.cpp ****   EApiStatus_t StatusCode=EAPI_STATUS_SUCCESS;
 1483              		.loc 1 344 1
 1484 0f34 48109FE5 		ldr	r1, .L61+28
 1485              	.LPIC106:
 1486 0f38 01108FE0 		add	r1, pc, r1
 367:/home/hkh/git/eapidk-code-r76-trunk/lib/linux/../EApiAPI.cpp **** }
 1487              		.loc 1 367 1
 1488 0f3c 28209FE5 		ldr	r2, .L61+4
 1489 0f40 022091E7 		ldr	r2, [r1, r2]
 1490 0f44 001092E5 		ldr	r1, [r2]
ARM GAS  /tmp/ccmTPeQn.s 			page 35


 1491 0f48 08201BE5 		ldr	r2, [fp, #-8]
 1492 0f4c 011032E0 		eors	r1, r2, r1
 1493 0f50 0020A0E3 		mov	r2, #0
 1494 0f54 0000000A 		beq	.L59
 1495 0f58 FEFFFFEB 		bl	__stack_chk_fail(PLT)
 1496              	.L59:
 1497 0f5c 0300A0E1 		mov	r0, r3
 1498 0f60 04D04BE2 		sub	sp, fp, #4
 1499              		.cfi_def_cfa 13, 8
 1500              		@ sp needed
 1501 0f64 0088BDE8 		pop	{fp, pc}
 1502              	.L62:
 1503              		.align	2
 1504              	.L61:
 1505 0f68 64010000 		.word	_GLOBAL_OFFSET_TABLE_-(.LPIC105+8)
 1506 0f6c 00000000 		.word	__stack_chk_guard(GOT)
 1507 0f70 30010000 		.word	Initialized-(.LPIC100+8)
 1508 0f74 74010000 		.word	.LC2-(.LPIC101+8)
 1509 0f78 84010000 		.word	.LC3-(.LPIC102+8)
 1510 0f7c B0010000 		.word	.LC7-(.LPIC103+8)
 1511 0f80 14010000 		.word	.LC1-(.LPIC104+8)
 1512 0f84 44000000 		.word	_GLOBAL_OFFSET_TABLE_-(.LPIC106+8)
 1513              		.cfi_endproc
 1514              	.LFE5:
 1516              		.section	.rodata
 1517 027b 00       		.align	2
 1518              	.LC23:
 1519 027c 45417069 		.ascii	"EApiBoardGetStringA\000"
 1519      426F6172 
 1519      64476574 
 1519      53747269 
 1519      6E674100 
 1520              		.align	2
 1521              	.LC24:
 1522 0290 28704275 		.ascii	"(pBufLen==NULL)\000"
 1522      664C656E 
 1522      3D3D4E55 
 1522      4C4C2900 
 1523              		.align	2
 1524              	.LC25:
 1525 02a0 70427566 		.ascii	"pBuffer is NULL\000"
 1525      66657220 
 1525      6973204E 
 1525      554C4C00 
 1526              		.text
 1527              		.align	2
 1528              		.global	EApiBoardGetStringA
 1529              		.syntax unified
 1530              		.arm
 1531              		.fpu vfpv3
 1533              	EApiBoardGetStringA:
 1534              	.LFB6:
 368:/home/hkh/git/eapidk-code-r76-trunk/lib/linux/../EApiAPI.cpp **** /*
 369:/home/hkh/git/eapidk-code-r76-trunk/lib/linux/../EApiAPI.cpp ****  *
 370:/home/hkh/git/eapidk-code-r76-trunk/lib/linux/../EApiAPI.cpp ****  *  
 371:/home/hkh/git/eapidk-code-r76-trunk/lib/linux/../EApiAPI.cpp ****  *
 372:/home/hkh/git/eapidk-code-r76-trunk/lib/linux/../EApiAPI.cpp ****  *  Get String
ARM GAS  /tmp/ccmTPeQn.s 			page 36


 373:/home/hkh/git/eapidk-code-r76-trunk/lib/linux/../EApiAPI.cpp ****  *
 374:/home/hkh/git/eapidk-code-r76-trunk/lib/linux/../EApiAPI.cpp ****  *
 375:/home/hkh/git/eapidk-code-r76-trunk/lib/linux/../EApiAPI.cpp ****  *
 376:/home/hkh/git/eapidk-code-r76-trunk/lib/linux/../EApiAPI.cpp ****  */
 377:/home/hkh/git/eapidk-code-r76-trunk/lib/linux/../EApiAPI.cpp **** 
 378:/home/hkh/git/eapidk-code-r76-trunk/lib/linux/../EApiAPI.cpp **** EApiStatus_t
 379:/home/hkh/git/eapidk-code-r76-trunk/lib/linux/../EApiAPI.cpp **** EAPI_CALLTYPE
 380:/home/hkh/git/eapidk-code-r76-trunk/lib/linux/../EApiAPI.cpp **** EApiBoardGetStringA(
 381:/home/hkh/git/eapidk-code-r76-trunk/lib/linux/../EApiAPI.cpp ****     __IN      EApiId_t  Id      , /* Name Id */
 382:/home/hkh/git/eapidk-code-r76-trunk/lib/linux/../EApiAPI.cpp ****     __OUT     char     *pBuffer , /* Destination pBuffer */
 383:/home/hkh/git/eapidk-code-r76-trunk/lib/linux/../EApiAPI.cpp ****     __INOUT   uint32_t *pBufLen   /* pBuffer Length */
 384:/home/hkh/git/eapidk-code-r76-trunk/lib/linux/../EApiAPI.cpp ****     )
 385:/home/hkh/git/eapidk-code-r76-trunk/lib/linux/../EApiAPI.cpp **** {
 1535              		.loc 1 385 1
 1536              		.cfi_startproc
 1537              		@ args = 0, pretend = 0, frame = 24
 1538              		@ frame_needed = 1, uses_anonymous_args = 0
 1539 0f88 00482DE9 		push	{fp, lr}
 1540              		.cfi_def_cfa_offset 8
 1541              		.cfi_offset 11, -8
 1542              		.cfi_offset 14, -4
 1543 0f8c 04B08DE2 		add	fp, sp, #4
 1544              		.cfi_def_cfa 11, 4
 1545 0f90 28D04DE2 		sub	sp, sp, #40
 1546 0f94 10000BE5 		str	r0, [fp, #-16]
 1547 0f98 14100BE5 		str	r1, [fp, #-20]
 1548 0f9c 18200BE5 		str	r2, [fp, #-24]
 386:/home/hkh/git/eapidk-code-r76-trunk/lib/linux/../EApiAPI.cpp ****   EApiStatus_t StatusCode=EAPI_STATUS_SUCCESS;
 1549              		.loc 1 386 16
 1550 0fa0 0030A0E3 		mov	r3, #0
 1551 0fa4 08300BE5 		str	r3, [fp, #-8]
 387:/home/hkh/git/eapidk-code-r76-trunk/lib/linux/../EApiAPI.cpp ****   EAPI_CHECK_INITIALIZED(EApiBoardGetStringA);
 1552              		.loc 1 387 3
 1553 0fa8 30319FE5 		ldr	r3, .L69
 1554              	.LPIC107:
 1555 0fac 03308FE0 		add	r3, pc, r3
 1556 0fb0 003093E5 		ldr	r3, [r3]
 1557 0fb4 000053E3 		cmp	r3, #0
 1558 0fb8 1100001A 		bne	.L64
 1559              		.loc 1 387 3 is_stmt 0 discriminator 1
 1560 0fbc 20319FE5 		ldr	r3, .L69+4
 1561              	.LPIC108:
 1562 0fc0 03308FE0 		add	r3, pc, r3
 1563 0fc4 08308DE5 		str	r3, [sp, #8]
 1564 0fc8 18319FE5 		ldr	r3, .L69+8
 1565              	.LPIC109:
 1566 0fcc 03308FE0 		add	r3, pc, r3
 1567 0fd0 04308DE5 		str	r3, [sp, #4]
 1568 0fd4 0030E0E3 		mvn	r3, #0
 1569 0fd8 00308DE5 		str	r3, [sp]
 1570 0fdc 833100E3 		movw	r3, #387
 1571 0fe0 04219FE5 		ldr	r2, .L69+12
 1572              	.LPIC110:
 1573 0fe4 02208FE0 		add	r2, pc, r2
 1574 0fe8 00119FE5 		ldr	r1, .L69+16
 1575              	.LPIC111:
 1576 0fec 01108FE0 		add	r1, pc, r1
ARM GAS  /tmp/ccmTPeQn.s 			page 37


 1577 0ff0 4500A0E3 		mov	r0, #69
 1578 0ff4 FEFFFFEB 		bl	siFormattedMessage_SC(PLT)
 1579 0ff8 0030E0E3 		mvn	r3, #0
 1580 0ffc 08300BE5 		str	r3, [fp, #-8]
 1581 1000 320000EA 		b	.L65
 1582              	.L64:
 388:/home/hkh/git/eapidk-code-r76-trunk/lib/linux/../EApiAPI.cpp ****   EAPI_LIB_ASSERT_PARAMATER_NULL (EApiBoardGetStringA, pBufLen);
 1583              		.loc 1 388 3 is_stmt 1
 1584 1004 18301BE5 		ldr	r3, [fp, #-24]
 1585 1008 000053E3 		cmp	r3, #0
 1586 100c 1100001A 		bne	.L66
 1587              		.loc 1 388 3 is_stmt 0 discriminator 1
 1588 1010 DC309FE5 		ldr	r3, .L69+20
 1589              	.LPIC112:
 1590 1014 03308FE0 		add	r3, pc, r3
 1591 1018 08308DE5 		str	r3, [sp, #8]
 1592 101c D4309FE5 		ldr	r3, .L69+24
 1593              	.LPIC113:
 1594 1020 03308FE0 		add	r3, pc, r3
 1595 1024 04308DE5 		str	r3, [sp, #4]
 1596 1028 013CE0E3 		mvn	r3, #256
 1597 102c 00308DE5 		str	r3, [sp]
 1598 1030 613FA0E3 		mov	r3, #388
 1599 1034 C0209FE5 		ldr	r2, .L69+28
 1600              	.LPIC114:
 1601 1038 02208FE0 		add	r2, pc, r2
 1602 103c BC109FE5 		ldr	r1, .L69+32
 1603              	.LPIC115:
 1604 1040 01108FE0 		add	r1, pc, r1
 1605 1044 4500A0E3 		mov	r0, #69
 1606 1048 FEFFFFEB 		bl	siFormattedMessage_SC(PLT)
 1607 104c 013CE0E3 		mvn	r3, #256
 1608 1050 08300BE5 		str	r3, [fp, #-8]
 1609 1054 1D0000EA 		b	.L65
 1610              	.L66:
 389:/home/hkh/git/eapidk-code-r76-trunk/lib/linux/../EApiAPI.cpp ****   EAPI_LIB_ASSERT_PARAMATER_CHECK(
 1611              		.loc 1 389 3 is_stmt 1
 1612 1058 18301BE5 		ldr	r3, [fp, #-24]
 1613 105c 003093E5 		ldr	r3, [r3]
 1614 1060 000053E3 		cmp	r3, #0
 1615 1064 1400000A 		beq	.L67
 1616              		.loc 1 389 3 is_stmt 0 discriminator 1
 1617 1068 14301BE5 		ldr	r3, [fp, #-20]
 1618 106c 000053E3 		cmp	r3, #0
 1619 1070 1100001A 		bne	.L67
 1620              		.loc 1 389 3 discriminator 2
 1621 1074 88309FE5 		ldr	r3, .L69+36
 1622              	.LPIC116:
 1623 1078 03308FE0 		add	r3, pc, r3
 1624 107c 08308DE5 		str	r3, [sp, #8]
 1625 1080 80309FE5 		ldr	r3, .L69+40
 1626              	.LPIC117:
 1627 1084 03308FE0 		add	r3, pc, r3
 1628 1088 04308DE5 		str	r3, [sp, #4]
 1629 108c 013CE0E3 		mvn	r3, #256
 1630 1090 00308DE5 		str	r3, [sp]
 1631 1094 853100E3 		movw	r3, #389
ARM GAS  /tmp/ccmTPeQn.s 			page 38


 1632 1098 6C209FE5 		ldr	r2, .L69+44
 1633              	.LPIC118:
 1634 109c 02208FE0 		add	r2, pc, r2
 1635 10a0 68109FE5 		ldr	r1, .L69+48
 1636              	.LPIC119:
 1637 10a4 01108FE0 		add	r1, pc, r1
 1638 10a8 4500A0E3 		mov	r0, #69
 1639 10ac FEFFFFEB 		bl	siFormattedMessage_SC(PLT)
 1640 10b0 013CE0E3 		mvn	r3, #256
 1641 10b4 08300BE5 		str	r3, [fp, #-8]
 1642 10b8 040000EA 		b	.L65
 1643              	.L67:
 390:/home/hkh/git/eapidk-code-r76-trunk/lib/linux/../EApiAPI.cpp ****       EApiBoardGetStringA, 
 391:/home/hkh/git/eapidk-code-r76-trunk/lib/linux/../EApiAPI.cpp ****       ((*pBufLen!=0)&&(pBuffer==NULL)) , 
 392:/home/hkh/git/eapidk-code-r76-trunk/lib/linux/../EApiAPI.cpp ****       "pBuffer is NULL"          
 393:/home/hkh/git/eapidk-code-r76-trunk/lib/linux/../EApiAPI.cpp ****       );
 394:/home/hkh/git/eapidk-code-r76-trunk/lib/linux/../EApiAPI.cpp **** 
 395:/home/hkh/git/eapidk-code-r76-trunk/lib/linux/../EApiAPI.cpp ****   StatusCode=EApiBoardGetStringAEmul(Id, pBuffer, pBufLen);
 1644              		.loc 1 395 14 is_stmt 1
 1645 10bc 18201BE5 		ldr	r2, [fp, #-24]
 1646 10c0 14101BE5 		ldr	r1, [fp, #-20]
 1647 10c4 10001BE5 		ldr	r0, [fp, #-16]
 1648 10c8 FEFFFFEB 		bl	EApiBoardGetStringAEmul(PLT)
 1649 10cc 08000BE5 		str	r0, [fp, #-8]
 1650              	.L65:
 396:/home/hkh/git/eapidk-code-r76-trunk/lib/linux/../EApiAPI.cpp **** EAPI_LIB_ASSERT_EXIT
 397:/home/hkh/git/eapidk-code-r76-trunk/lib/linux/../EApiAPI.cpp ****   return StatusCode;
 1651              		.loc 1 397 10
 1652 10d0 08301BE5 		ldr	r3, [fp, #-8]
 398:/home/hkh/git/eapidk-code-r76-trunk/lib/linux/../EApiAPI.cpp **** }
 1653              		.loc 1 398 1
 1654 10d4 0300A0E1 		mov	r0, r3
 1655 10d8 04D04BE2 		sub	sp, fp, #4
 1656              		.cfi_def_cfa 13, 8
 1657              		@ sp needed
 1658 10dc 0088BDE8 		pop	{fp, pc}
 1659              	.L70:
 1660              		.align	2
 1661              	.L69:
 1662 10e0 2C010000 		.word	Initialized-(.LPIC107+8)
 1663 10e4 70010000 		.word	.LC2-(.LPIC108+8)
 1664 10e8 80010000 		.word	.LC3-(.LPIC109+8)
 1665 10ec 7C030000 		.word	.LC23-(.LPIC110+8)
 1666 10f0 10010000 		.word	.LC1-(.LPIC111+8)
 1667 10f4 68030000 		.word	.LC24-(.LPIC112+8)
 1668 10f8 3C010000 		.word	.LC3-(.LPIC113+8)
 1669 10fc 38030000 		.word	.LC23-(.LPIC114+8)
 1670 1100 CC000000 		.word	.LC1-(.LPIC115+8)
 1671 1104 24030000 		.word	.LC25-(.LPIC116+8)
 1672 1108 E8000000 		.word	.LC3-(.LPIC117+8)
 1673 110c E4020000 		.word	.LC23-(.LPIC118+8)
 1674 1110 78000000 		.word	.LC1-(.LPIC119+8)
 1675              		.cfi_endproc
 1676              	.LFE6:
 1678              		.section	.rodata
 1679              		.align	2
 1680              	.LC26:
ARM GAS  /tmp/ccmTPeQn.s 			page 39


 1681 02b0 45417069 		.ascii	"EApiBoardGetValue\000"
 1681      426F6172 
 1681      64476574 
 1681      56616C75 
 1681      6500
 1682 02c2 0000     		.align	2
 1683              	.LC27:
 1684 02c4 28705661 		.ascii	"(pValue==NULL)\000"
 1684      6C75653D 
 1684      3D4E554C 
 1684      4C2900
 1685 02d3 00       		.align	2
 1686              	.LC28:
 1687 02d4 00       		.ascii	"\000"
 1688              		.text
 1689              		.align	2
 1690              		.global	EApiBoardGetValue
 1691              		.syntax unified
 1692              		.arm
 1693              		.fpu vfpv3
 1695              	EApiBoardGetValue:
 1696              	.LFB7:
 399:/home/hkh/git/eapidk-code-r76-trunk/lib/linux/../EApiAPI.cpp **** 
 400:/home/hkh/git/eapidk-code-r76-trunk/lib/linux/../EApiAPI.cpp **** /*
 401:/home/hkh/git/eapidk-code-r76-trunk/lib/linux/../EApiAPI.cpp ****  *
 402:/home/hkh/git/eapidk-code-r76-trunk/lib/linux/../EApiAPI.cpp ****  *  
 403:/home/hkh/git/eapidk-code-r76-trunk/lib/linux/../EApiAPI.cpp ****  *
 404:/home/hkh/git/eapidk-code-r76-trunk/lib/linux/../EApiAPI.cpp ****  *  Get Value
 405:/home/hkh/git/eapidk-code-r76-trunk/lib/linux/../EApiAPI.cpp ****  *
 406:/home/hkh/git/eapidk-code-r76-trunk/lib/linux/../EApiAPI.cpp ****  *
 407:/home/hkh/git/eapidk-code-r76-trunk/lib/linux/../EApiAPI.cpp ****  *
 408:/home/hkh/git/eapidk-code-r76-trunk/lib/linux/../EApiAPI.cpp ****  */
 409:/home/hkh/git/eapidk-code-r76-trunk/lib/linux/../EApiAPI.cpp **** EApiStatus_t 
 410:/home/hkh/git/eapidk-code-r76-trunk/lib/linux/../EApiAPI.cpp **** EAPI_CALLTYPE 
 411:/home/hkh/git/eapidk-code-r76-trunk/lib/linux/../EApiAPI.cpp **** EApiBoardGetValue(
 412:/home/hkh/git/eapidk-code-r76-trunk/lib/linux/../EApiAPI.cpp ****     __IN  EApiId_t  Id      , /* Value Id */
 413:/home/hkh/git/eapidk-code-r76-trunk/lib/linux/../EApiAPI.cpp ****     __OUT uint32_t *pValue    /* Return Value */
 414:/home/hkh/git/eapidk-code-r76-trunk/lib/linux/../EApiAPI.cpp ****     )
 415:/home/hkh/git/eapidk-code-r76-trunk/lib/linux/../EApiAPI.cpp **** {
 1697              		.loc 1 415 1
 1698              		.cfi_startproc
 1699              		@ args = 0, pretend = 0, frame = 16
 1700              		@ frame_needed = 1, uses_anonymous_args = 0
 1701 1114 00482DE9 		push	{fp, lr}
 1702              		.cfi_def_cfa_offset 8
 1703              		.cfi_offset 11, -8
 1704              		.cfi_offset 14, -4
 1705 1118 04B08DE2 		add	fp, sp, #4
 1706              		.cfi_def_cfa 11, 4
 1707 111c 20D04DE2 		sub	sp, sp, #32
 1708 1120 10000BE5 		str	r0, [fp, #-16]
 1709 1124 14100BE5 		str	r1, [fp, #-20]
 416:/home/hkh/git/eapidk-code-r76-trunk/lib/linux/../EApiAPI.cpp ****   EApiStatus_t StatusCode=EAPI_STATUS_SUCCESS;
 1710              		.loc 1 416 16
 1711 1128 0030A0E3 		mov	r3, #0
 1712 112c 08300BE5 		str	r3, [fp, #-8]
 417:/home/hkh/git/eapidk-code-r76-trunk/lib/linux/../EApiAPI.cpp ****   EAPI_CHECK_INITIALIZED(EApiBoardGetValue);
ARM GAS  /tmp/ccmTPeQn.s 			page 40


 1713              		.loc 1 417 3
 1714 1130 28319FE5 		ldr	r3, .L77
 1715              	.LPIC120:
 1716 1134 03308FE0 		add	r3, pc, r3
 1717 1138 003093E5 		ldr	r3, [r3]
 1718 113c 000053E3 		cmp	r3, #0
 1719 1140 1100001A 		bne	.L72
 1720              		.loc 1 417 3 is_stmt 0 discriminator 1
 1721 1144 18319FE5 		ldr	r3, .L77+4
 1722              	.LPIC121:
 1723 1148 03308FE0 		add	r3, pc, r3
 1724 114c 08308DE5 		str	r3, [sp, #8]
 1725 1150 10319FE5 		ldr	r3, .L77+8
 1726              	.LPIC122:
 1727 1154 03308FE0 		add	r3, pc, r3
 1728 1158 04308DE5 		str	r3, [sp, #4]
 1729 115c 0030E0E3 		mvn	r3, #0
 1730 1160 00308DE5 		str	r3, [sp]
 1731 1164 A13100E3 		movw	r3, #417
 1732 1168 FC209FE5 		ldr	r2, .L77+12
 1733              	.LPIC123:
 1734 116c 02208FE0 		add	r2, pc, r2
 1735 1170 F8109FE5 		ldr	r1, .L77+16
 1736              	.LPIC124:
 1737 1174 01108FE0 		add	r1, pc, r1
 1738 1178 4500A0E3 		mov	r0, #69
 1739 117c FEFFFFEB 		bl	siFormattedMessage_SC(PLT)
 1740 1180 0030E0E3 		mvn	r3, #0
 1741 1184 08300BE5 		str	r3, [fp, #-8]
 1742 1188 300000EA 		b	.L73
 1743              	.L72:
 418:/home/hkh/git/eapidk-code-r76-trunk/lib/linux/../EApiAPI.cpp ****   EAPI_LIB_ASSERT_PARAMATER_NULL(EApiBoardGetValue, pValue);
 1744              		.loc 1 418 3 is_stmt 1
 1745 118c 14301BE5 		ldr	r3, [fp, #-20]
 1746 1190 000053E3 		cmp	r3, #0
 1747 1194 1100001A 		bne	.L74
 1748              		.loc 1 418 3 is_stmt 0 discriminator 1
 1749 1198 D4309FE5 		ldr	r3, .L77+20
 1750              	.LPIC125:
 1751 119c 03308FE0 		add	r3, pc, r3
 1752 11a0 08308DE5 		str	r3, [sp, #8]
 1753 11a4 CC309FE5 		ldr	r3, .L77+24
 1754              	.LPIC126:
 1755 11a8 03308FE0 		add	r3, pc, r3
 1756 11ac 04308DE5 		str	r3, [sp, #4]
 1757 11b0 013CE0E3 		mvn	r3, #256
 1758 11b4 00308DE5 		str	r3, [sp]
 1759 11b8 A23100E3 		movw	r3, #418
 1760 11bc B8209FE5 		ldr	r2, .L77+28
 1761              	.LPIC127:
 1762 11c0 02208FE0 		add	r2, pc, r2
 1763 11c4 B4109FE5 		ldr	r1, .L77+32
 1764              	.LPIC128:
 1765 11c8 01108FE0 		add	r1, pc, r1
 1766 11cc 4500A0E3 		mov	r0, #69
 1767 11d0 FEFFFFEB 		bl	siFormattedMessage_SC(PLT)
 1768 11d4 013CE0E3 		mvn	r3, #256
ARM GAS  /tmp/ccmTPeQn.s 			page 41


 1769 11d8 08300BE5 		str	r3, [fp, #-8]
 1770 11dc 1B0000EA 		b	.L73
 1771              	.L74:
 419:/home/hkh/git/eapidk-code-r76-trunk/lib/linux/../EApiAPI.cpp **** 
 420:/home/hkh/git/eapidk-code-r76-trunk/lib/linux/../EApiAPI.cpp ****   if(Id==EAPI_ID_GET_EAPI_SPEC_VERSION){
 1772              		.loc 1 420 5 is_stmt 1
 1773 11e0 10301BE5 		ldr	r3, [fp, #-16]
 1774 11e4 000053E3 		cmp	r3, #0
 1775 11e8 1400001A 		bne	.L75
 421:/home/hkh/git/eapidk-code-r76-trunk/lib/linux/../EApiAPI.cpp ****     *pValue=EAPI_VERSION;
 1776              		.loc 1 421 12
 1777 11ec 14301BE5 		ldr	r3, [fp, #-20]
 1778 11f0 0124A0E3 		mov	r2, #16777216
 1779 11f4 002083E5 		str	r2, [r3]
 422:/home/hkh/git/eapidk-code-r76-trunk/lib/linux/../EApiAPI.cpp ****     EAPI_LIB_RETURN_SUCCESS(EApiBoardGetValue, "");
 1780              		.loc 1 422 5
 1781 11f8 84309FE5 		ldr	r3, .L77+36
 1782              	.LPIC129:
 1783 11fc 03308FE0 		add	r3, pc, r3
 1784 1200 08308DE5 		str	r3, [sp, #8]
 1785 1204 7C309FE5 		ldr	r3, .L77+40
 1786              	.LPIC130:
 1787 1208 03308FE0 		add	r3, pc, r3
 1788 120c 04308DE5 		str	r3, [sp, #4]
 1789 1210 0030A0E3 		mov	r3, #0
 1790 1214 00308DE5 		str	r3, [sp]
 1791 1218 A63100E3 		movw	r3, #422
 1792 121c 68209FE5 		ldr	r2, .L77+44
 1793              	.LPIC131:
 1794 1220 02208FE0 		add	r2, pc, r2
 1795 1224 64109FE5 		ldr	r1, .L77+48
 1796              	.LPIC132:
 1797 1228 01108FE0 		add	r1, pc, r1
 1798 122c 4C00A0E3 		mov	r0, #76
 1799 1230 FEFFFFEB 		bl	siFormattedMessage_SC(PLT)
 1800 1234 0030A0E3 		mov	r3, #0
 1801 1238 08300BE5 		str	r3, [fp, #-8]
 1802 123c 030000EA 		b	.L73
 1803              	.L75:
 423:/home/hkh/git/eapidk-code-r76-trunk/lib/linux/../EApiAPI.cpp ****   }
 424:/home/hkh/git/eapidk-code-r76-trunk/lib/linux/../EApiAPI.cpp **** 
 425:/home/hkh/git/eapidk-code-r76-trunk/lib/linux/../EApiAPI.cpp ****   StatusCode=EApiBoardGetValueEmul(Id, pValue);
 1804              		.loc 1 425 14
 1805 1240 14101BE5 		ldr	r1, [fp, #-20]
 1806 1244 10001BE5 		ldr	r0, [fp, #-16]
 1807 1248 FEFFFFEB 		bl	EApiBoardGetValueEmul(PLT)
 1808 124c 08000BE5 		str	r0, [fp, #-8]
 1809              	.L73:
 426:/home/hkh/git/eapidk-code-r76-trunk/lib/linux/../EApiAPI.cpp **** EAPI_LIB_ASSERT_EXIT
 427:/home/hkh/git/eapidk-code-r76-trunk/lib/linux/../EApiAPI.cpp **** 
 428:/home/hkh/git/eapidk-code-r76-trunk/lib/linux/../EApiAPI.cpp ****   return StatusCode;
 1810              		.loc 1 428 10
 1811 1250 08301BE5 		ldr	r3, [fp, #-8]
 429:/home/hkh/git/eapidk-code-r76-trunk/lib/linux/../EApiAPI.cpp **** }
 1812              		.loc 1 429 1
 1813 1254 0300A0E1 		mov	r0, r3
 1814 1258 04D04BE2 		sub	sp, fp, #4
ARM GAS  /tmp/ccmTPeQn.s 			page 42


 1815              		.cfi_def_cfa 13, 8
 1816              		@ sp needed
 1817 125c 0088BDE8 		pop	{fp, pc}
 1818              	.L78:
 1819              		.align	2
 1820              	.L77:
 1821 1260 24010000 		.word	Initialized-(.LPIC120+8)
 1822 1264 68010000 		.word	.LC2-(.LPIC121+8)
 1823 1268 78010000 		.word	.LC3-(.LPIC122+8)
 1824 126c A8030000 		.word	.LC26-(.LPIC123+8)
 1825 1270 08010000 		.word	.LC1-(.LPIC124+8)
 1826 1274 94030000 		.word	.LC27-(.LPIC125+8)
 1827 1278 34010000 		.word	.LC3-(.LPIC126+8)
 1828 127c 64030000 		.word	.LC26-(.LPIC127+8)
 1829 1280 C4000000 		.word	.LC1-(.LPIC128+8)
 1830 1284 54030000 		.word	.LC28-(.LPIC129+8)
 1831 1288 E4000000 		.word	.LC3-(.LPIC130+8)
 1832 128c 14030000 		.word	.LC26-(.LPIC131+8)
 1833 1290 74000000 		.word	.LC1-(.LPIC132+8)
 1834              		.cfi_endproc
 1835              	.LFE7:
 1837              		.section	.rodata
 1838 02d5 000000   		.align	2
 1839              	.LC29:
 1840 02d8 45417069 		.ascii	"EApiVgaGetBacklightEnable\000"
 1840      56676147 
 1840      65744261 
 1840      636B6C69 
 1840      67687445 
 1841 02f2 0000     		.align	2
 1842              	.LC30:
 1843 02f4 2870456E 		.ascii	"(pEnable==NULL)\000"
 1843      61626C65 
 1843      3D3D4E55 
 1843      4C4C2900 
 1844              		.text
 1845              		.align	2
 1846              		.global	EApiVgaGetBacklightEnable
 1847              		.syntax unified
 1848              		.arm
 1849              		.fpu vfpv3
 1851              	EApiVgaGetBacklightEnable:
 1852              	.LFB8:
 430:/home/hkh/git/eapidk-code-r76-trunk/lib/linux/../EApiAPI.cpp **** 
 431:/home/hkh/git/eapidk-code-r76-trunk/lib/linux/../EApiAPI.cpp **** /*
 432:/home/hkh/git/eapidk-code-r76-trunk/lib/linux/../EApiAPI.cpp ****  *
 433:/home/hkh/git/eapidk-code-r76-trunk/lib/linux/../EApiAPI.cpp ****  *  
 434:/home/hkh/git/eapidk-code-r76-trunk/lib/linux/../EApiAPI.cpp ****  *
 435:/home/hkh/git/eapidk-code-r76-trunk/lib/linux/../EApiAPI.cpp ****  *  B A C K L I G H T
 436:/home/hkh/git/eapidk-code-r76-trunk/lib/linux/../EApiAPI.cpp ****  *
 437:/home/hkh/git/eapidk-code-r76-trunk/lib/linux/../EApiAPI.cpp ****  *
 438:/home/hkh/git/eapidk-code-r76-trunk/lib/linux/../EApiAPI.cpp ****  *
 439:/home/hkh/git/eapidk-code-r76-trunk/lib/linux/../EApiAPI.cpp ****  */
 440:/home/hkh/git/eapidk-code-r76-trunk/lib/linux/../EApiAPI.cpp **** EApiStatus_t
 441:/home/hkh/git/eapidk-code-r76-trunk/lib/linux/../EApiAPI.cpp **** EAPI_CALLTYPE
 442:/home/hkh/git/eapidk-code-r76-trunk/lib/linux/../EApiAPI.cpp **** EApiVgaGetBacklightEnable( 
 443:/home/hkh/git/eapidk-code-r76-trunk/lib/linux/../EApiAPI.cpp ****     __IN  EApiId_t  Id      , /* Backlight Id */
ARM GAS  /tmp/ccmTPeQn.s 			page 43


 444:/home/hkh/git/eapidk-code-r76-trunk/lib/linux/../EApiAPI.cpp ****     __OUT uint32_t *pEnable   /* Backlight Enable */
 445:/home/hkh/git/eapidk-code-r76-trunk/lib/linux/../EApiAPI.cpp ****     )
 446:/home/hkh/git/eapidk-code-r76-trunk/lib/linux/../EApiAPI.cpp **** {
 1853              		.loc 1 446 1
 1854              		.cfi_startproc
 1855              		@ args = 0, pretend = 0, frame = 16
 1856              		@ frame_needed = 1, uses_anonymous_args = 0
 1857 1294 00482DE9 		push	{fp, lr}
 1858              		.cfi_def_cfa_offset 8
 1859              		.cfi_offset 11, -8
 1860              		.cfi_offset 14, -4
 1861 1298 04B08DE2 		add	fp, sp, #4
 1862              		.cfi_def_cfa 11, 4
 1863 129c 20D04DE2 		sub	sp, sp, #32
 1864 12a0 10000BE5 		str	r0, [fp, #-16]
 1865 12a4 14100BE5 		str	r1, [fp, #-20]
 447:/home/hkh/git/eapidk-code-r76-trunk/lib/linux/../EApiAPI.cpp ****   EApiStatus_t StatusCode=EAPI_STATUS_SUCCESS;
 1866              		.loc 1 447 16
 1867 12a8 0030A0E3 		mov	r3, #0
 1868 12ac 08300BE5 		str	r3, [fp, #-8]
 448:/home/hkh/git/eapidk-code-r76-trunk/lib/linux/../EApiAPI.cpp ****   EAPI_CHECK_INITIALIZED(EApiVgaGetBacklightEnable);
 1869              		.loc 1 448 3
 1870 12b0 C8309FE5 		ldr	r3, .L84
 1871              	.LPIC133:
 1872 12b4 03308FE0 		add	r3, pc, r3
 1873 12b8 003093E5 		ldr	r3, [r3]
 1874 12bc 000053E3 		cmp	r3, #0
 1875 12c0 1100001A 		bne	.L80
 1876              		.loc 1 448 3 is_stmt 0 discriminator 1
 1877 12c4 B8309FE5 		ldr	r3, .L84+4
 1878              	.LPIC134:
 1879 12c8 03308FE0 		add	r3, pc, r3
 1880 12cc 08308DE5 		str	r3, [sp, #8]
 1881 12d0 B0309FE5 		ldr	r3, .L84+8
 1882              	.LPIC135:
 1883 12d4 03308FE0 		add	r3, pc, r3
 1884 12d8 04308DE5 		str	r3, [sp, #4]
 1885 12dc 0030E0E3 		mvn	r3, #0
 1886 12e0 00308DE5 		str	r3, [sp]
 1887 12e4 073DA0E3 		mov	r3, #448
 1888 12e8 9C209FE5 		ldr	r2, .L84+12
 1889              	.LPIC136:
 1890 12ec 02208FE0 		add	r2, pc, r2
 1891 12f0 98109FE5 		ldr	r1, .L84+16
 1892              	.LPIC137:
 1893 12f4 01108FE0 		add	r1, pc, r1
 1894 12f8 4500A0E3 		mov	r0, #69
 1895 12fc FEFFFFEB 		bl	siFormattedMessage_SC(PLT)
 1896 1300 0030E0E3 		mvn	r3, #0
 1897 1304 08300BE5 		str	r3, [fp, #-8]
 1898 1308 180000EA 		b	.L81
 1899              	.L80:
 449:/home/hkh/git/eapidk-code-r76-trunk/lib/linux/../EApiAPI.cpp ****   EAPI_LIB_ASSERT_PARAMATER_NULL(EApiVgaGetBacklightEnable, pEnable);
 1900              		.loc 1 449 3 is_stmt 1
 1901 130c 14301BE5 		ldr	r3, [fp, #-20]
 1902 1310 000053E3 		cmp	r3, #0
 1903 1314 1100001A 		bne	.L82
ARM GAS  /tmp/ccmTPeQn.s 			page 44


 1904              		.loc 1 449 3 is_stmt 0 discriminator 1
 1905 1318 74309FE5 		ldr	r3, .L84+20
 1906              	.LPIC138:
 1907 131c 03308FE0 		add	r3, pc, r3
 1908 1320 08308DE5 		str	r3, [sp, #8]
 1909 1324 6C309FE5 		ldr	r3, .L84+24
 1910              	.LPIC139:
 1911 1328 03308FE0 		add	r3, pc, r3
 1912 132c 04308DE5 		str	r3, [sp, #4]
 1913 1330 013CE0E3 		mvn	r3, #256
 1914 1334 00308DE5 		str	r3, [sp]
 1915 1338 C13100E3 		movw	r3, #449
 1916 133c 58209FE5 		ldr	r2, .L84+28
 1917              	.LPIC140:
 1918 1340 02208FE0 		add	r2, pc, r2
 1919 1344 54109FE5 		ldr	r1, .L84+32
 1920              	.LPIC141:
 1921 1348 01108FE0 		add	r1, pc, r1
 1922 134c 4500A0E3 		mov	r0, #69
 1923 1350 FEFFFFEB 		bl	siFormattedMessage_SC(PLT)
 1924 1354 013CE0E3 		mvn	r3, #256
 1925 1358 08300BE5 		str	r3, [fp, #-8]
 1926 135c 030000EA 		b	.L81
 1927              	.L82:
 450:/home/hkh/git/eapidk-code-r76-trunk/lib/linux/../EApiAPI.cpp **** 
 451:/home/hkh/git/eapidk-code-r76-trunk/lib/linux/../EApiAPI.cpp ****   StatusCode=EApiVgaGetBacklightEnableEmul(Id, pEnable);
 1928              		.loc 1 451 14 is_stmt 1
 1929 1360 14101BE5 		ldr	r1, [fp, #-20]
 1930 1364 10001BE5 		ldr	r0, [fp, #-16]
 1931 1368 FEFFFFEB 		bl	EApiVgaGetBacklightEnableEmul(PLT)
 1932 136c 08000BE5 		str	r0, [fp, #-8]
 1933              	.L81:
 452:/home/hkh/git/eapidk-code-r76-trunk/lib/linux/../EApiAPI.cpp **** EAPI_LIB_ASSERT_EXIT
 453:/home/hkh/git/eapidk-code-r76-trunk/lib/linux/../EApiAPI.cpp ****   return StatusCode;
 1934              		.loc 1 453 10
 1935 1370 08301BE5 		ldr	r3, [fp, #-8]
 454:/home/hkh/git/eapidk-code-r76-trunk/lib/linux/../EApiAPI.cpp **** }
 1936              		.loc 1 454 1
 1937 1374 0300A0E1 		mov	r0, r3
 1938 1378 04D04BE2 		sub	sp, fp, #4
 1939              		.cfi_def_cfa 13, 8
 1940              		@ sp needed
 1941 137c 0088BDE8 		pop	{fp, pc}
 1942              	.L85:
 1943              		.align	2
 1944              	.L84:
 1945 1380 C4000000 		.word	Initialized-(.LPIC133+8)
 1946 1384 08010000 		.word	.LC2-(.LPIC134+8)
 1947 1388 18010000 		.word	.LC3-(.LPIC135+8)
 1948 138c 70030000 		.word	.LC29-(.LPIC136+8)
 1949 1390 A8000000 		.word	.LC1-(.LPIC137+8)
 1950 1394 64030000 		.word	.LC30-(.LPIC138+8)
 1951 1398 D4000000 		.word	.LC3-(.LPIC139+8)
 1952 139c 2C030000 		.word	.LC29-(.LPIC140+8)
 1953 13a0 64000000 		.word	.LC1-(.LPIC141+8)
 1954              		.cfi_endproc
 1955              	.LFE8:
ARM GAS  /tmp/ccmTPeQn.s 			page 45


 1957              		.section	.rodata
 1958              		.align	2
 1959              	.LC31:
 1960 0304 45417069 		.ascii	"EApiVgaSetBacklightEnable\000"
 1960      56676153 
 1960      65744261 
 1960      636B6C69 
 1960      67687445 
 1961 031e 0000     		.align	2
 1962              	.LC32:
 1963 0320 456E6162 		.ascii	"Enable Invalid Value\000"
 1963      6C652049 
 1963      6E76616C 
 1963      69642056 
 1963      616C7565 
 1964              		.text
 1965              		.align	2
 1966              		.global	EApiVgaSetBacklightEnable
 1967              		.syntax unified
 1968              		.arm
 1969              		.fpu vfpv3
 1971              	EApiVgaSetBacklightEnable:
 1972              	.LFB9:
 455:/home/hkh/git/eapidk-code-r76-trunk/lib/linux/../EApiAPI.cpp **** 
 456:/home/hkh/git/eapidk-code-r76-trunk/lib/linux/../EApiAPI.cpp **** EApiStatus_t
 457:/home/hkh/git/eapidk-code-r76-trunk/lib/linux/../EApiAPI.cpp **** EAPI_CALLTYPE
 458:/home/hkh/git/eapidk-code-r76-trunk/lib/linux/../EApiAPI.cpp **** EApiVgaSetBacklightEnable(
 459:/home/hkh/git/eapidk-code-r76-trunk/lib/linux/../EApiAPI.cpp ****     __IN  EApiId_t  Id      , /* Backlight Id */
 460:/home/hkh/git/eapidk-code-r76-trunk/lib/linux/../EApiAPI.cpp ****     __IN  uint32_t  Enable    /* Backlight Enable */
 461:/home/hkh/git/eapidk-code-r76-trunk/lib/linux/../EApiAPI.cpp ****     )
 462:/home/hkh/git/eapidk-code-r76-trunk/lib/linux/../EApiAPI.cpp **** {
 1973              		.loc 1 462 1
 1974              		.cfi_startproc
 1975              		@ args = 0, pretend = 0, frame = 16
 1976              		@ frame_needed = 1, uses_anonymous_args = 0
 1977 13a4 00482DE9 		push	{fp, lr}
 1978              		.cfi_def_cfa_offset 8
 1979              		.cfi_offset 11, -8
 1980              		.cfi_offset 14, -4
 1981 13a8 04B08DE2 		add	fp, sp, #4
 1982              		.cfi_def_cfa 11, 4
 1983 13ac 20D04DE2 		sub	sp, sp, #32
 1984 13b0 10000BE5 		str	r0, [fp, #-16]
 1985 13b4 14100BE5 		str	r1, [fp, #-20]
 463:/home/hkh/git/eapidk-code-r76-trunk/lib/linux/../EApiAPI.cpp ****   EApiStatus_t StatusCode=EAPI_STATUS_SUCCESS;
 1986              		.loc 1 463 16
 1987 13b8 0030A0E3 		mov	r3, #0
 1988 13bc 08300BE5 		str	r3, [fp, #-8]
 464:/home/hkh/git/eapidk-code-r76-trunk/lib/linux/../EApiAPI.cpp **** 
 465:/home/hkh/git/eapidk-code-r76-trunk/lib/linux/../EApiAPI.cpp ****   EAPI_CHECK_INITIALIZED(EApiVgaSetBacklightEnable);
 1989              		.loc 1 465 3
 1990 13c0 D4309FE5 		ldr	r3, .L92
 1991              	.LPIC142:
 1992 13c4 03308FE0 		add	r3, pc, r3
 1993 13c8 003093E5 		ldr	r3, [r3]
 1994 13cc 000053E3 		cmp	r3, #0
 1995 13d0 1100001A 		bne	.L87
ARM GAS  /tmp/ccmTPeQn.s 			page 46


 1996              		.loc 1 465 3 is_stmt 0 discriminator 1
 1997 13d4 C4309FE5 		ldr	r3, .L92+4
 1998              	.LPIC143:
 1999 13d8 03308FE0 		add	r3, pc, r3
 2000 13dc 08308DE5 		str	r3, [sp, #8]
 2001 13e0 BC309FE5 		ldr	r3, .L92+8
 2002              	.LPIC144:
 2003 13e4 03308FE0 		add	r3, pc, r3
 2004 13e8 04308DE5 		str	r3, [sp, #4]
 2005 13ec 0030E0E3 		mvn	r3, #0
 2006 13f0 00308DE5 		str	r3, [sp]
 2007 13f4 D13100E3 		movw	r3, #465
 2008 13f8 A8209FE5 		ldr	r2, .L92+12
 2009              	.LPIC145:
 2010 13fc 02208FE0 		add	r2, pc, r2
 2011 1400 A4109FE5 		ldr	r1, .L92+16
 2012              	.LPIC146:
 2013 1404 01108FE0 		add	r1, pc, r1
 2014 1408 4500A0E3 		mov	r0, #69
 2015 140c FEFFFFEB 		bl	siFormattedMessage_SC(PLT)
 2016 1410 0030E0E3 		mvn	r3, #0
 2017 1414 08300BE5 		str	r3, [fp, #-8]
 2018 1418 1B0000EA 		b	.L88
 2019              	.L87:
 466:/home/hkh/git/eapidk-code-r76-trunk/lib/linux/../EApiAPI.cpp ****   EAPI_LIB_ASSERT_PARAMATER_CHECK(
 2020              		.loc 1 466 3 is_stmt 1
 2021 141c 14301BE5 		ldr	r3, [fp, #-20]
 2022 1420 000053E3 		cmp	r3, #0
 2023 1424 0200001A 		bne	.L89
 2024              		.loc 1 466 3 is_stmt 0 discriminator 2
 2025 1428 14301BE5 		ldr	r3, [fp, #-20]
 2026 142c 010073E3 		cmn	r3, #1
 2027 1430 1100000A 		beq	.L90
 2028              	.L89:
 2029              		.loc 1 466 3 discriminator 3
 2030 1434 74309FE5 		ldr	r3, .L92+20
 2031              	.LPIC147:
 2032 1438 03308FE0 		add	r3, pc, r3
 2033 143c 08308DE5 		str	r3, [sp, #8]
 2034 1440 6C309FE5 		ldr	r3, .L92+24
 2035              	.LPIC148:
 2036 1444 03308FE0 		add	r3, pc, r3
 2037 1448 04308DE5 		str	r3, [sp, #4]
 2038 144c 013CE0E3 		mvn	r3, #256
 2039 1450 00308DE5 		str	r3, [sp]
 2040 1454 D23100E3 		movw	r3, #466
 2041 1458 58209FE5 		ldr	r2, .L92+28
 2042              	.LPIC149:
 2043 145c 02208FE0 		add	r2, pc, r2
 2044 1460 54109FE5 		ldr	r1, .L92+32
 2045              	.LPIC150:
 2046 1464 01108FE0 		add	r1, pc, r1
 2047 1468 4500A0E3 		mov	r0, #69
 2048 146c FEFFFFEB 		bl	siFormattedMessage_SC(PLT)
 2049 1470 013CE0E3 		mvn	r3, #256
 2050 1474 08300BE5 		str	r3, [fp, #-8]
 2051 1478 030000EA 		b	.L88
ARM GAS  /tmp/ccmTPeQn.s 			page 47


 2052              	.L90:
 467:/home/hkh/git/eapidk-code-r76-trunk/lib/linux/../EApiAPI.cpp ****       EApiVgaSetBacklightEnable, 
 468:/home/hkh/git/eapidk-code-r76-trunk/lib/linux/../EApiAPI.cpp ****       ((Enable!=EAPI_BACKLIGHT_SET_ON)||(Enable!=EAPI_BACKLIGHT_SET_OFF)), 
 469:/home/hkh/git/eapidk-code-r76-trunk/lib/linux/../EApiAPI.cpp ****       "Enable Invalid Value"
 470:/home/hkh/git/eapidk-code-r76-trunk/lib/linux/../EApiAPI.cpp ****       );
 471:/home/hkh/git/eapidk-code-r76-trunk/lib/linux/../EApiAPI.cpp **** 
 472:/home/hkh/git/eapidk-code-r76-trunk/lib/linux/../EApiAPI.cpp ****   StatusCode=EApiVgaSetBacklightEnableEmul(Id, Enable);
 2053              		.loc 1 472 14 is_stmt 1
 2054 147c 14101BE5 		ldr	r1, [fp, #-20]
 2055 1480 10001BE5 		ldr	r0, [fp, #-16]
 2056 1484 FEFFFFEB 		bl	EApiVgaSetBacklightEnableEmul(PLT)
 2057 1488 08000BE5 		str	r0, [fp, #-8]
 2058              	.L88:
 473:/home/hkh/git/eapidk-code-r76-trunk/lib/linux/../EApiAPI.cpp **** EAPI_LIB_ASSERT_EXIT
 474:/home/hkh/git/eapidk-code-r76-trunk/lib/linux/../EApiAPI.cpp ****   return StatusCode;
 2059              		.loc 1 474 10
 2060 148c 08301BE5 		ldr	r3, [fp, #-8]
 475:/home/hkh/git/eapidk-code-r76-trunk/lib/linux/../EApiAPI.cpp **** }
 2061              		.loc 1 475 1
 2062 1490 0300A0E1 		mov	r0, r3
 2063 1494 04D04BE2 		sub	sp, fp, #4
 2064              		.cfi_def_cfa 13, 8
 2065              		@ sp needed
 2066 1498 0088BDE8 		pop	{fp, pc}
 2067              	.L93:
 2068              		.align	2
 2069              	.L92:
 2070 149c D0000000 		.word	Initialized-(.LPIC142+8)
 2071 14a0 14010000 		.word	.LC2-(.LPIC143+8)
 2072 14a4 24010000 		.word	.LC3-(.LPIC144+8)
 2073 14a8 A8030000 		.word	.LC31-(.LPIC145+8)
 2074 14ac B4000000 		.word	.LC1-(.LPIC146+8)
 2075 14b0 90030000 		.word	.LC32-(.LPIC147+8)
 2076 14b4 D4000000 		.word	.LC3-(.LPIC148+8)
 2077 14b8 58030000 		.word	.LC31-(.LPIC149+8)
 2078 14bc 64000000 		.word	.LC1-(.LPIC150+8)
 2079              		.cfi_endproc
 2080              	.LFE9:
 2082              		.section	.rodata
 2083 0335 000000   		.align	2
 2084              	.LC33:
 2085 0338 45417069 		.ascii	"EApiVgaGetBacklightBrightness\000"
 2085      56676147 
 2085      65744261 
 2085      636B6C69 
 2085      67687442 
 2086 0356 0000     		.align	2
 2087              	.LC34:
 2088 0358 28704272 		.ascii	"(pBright==NULL)\000"
 2088      69676874 
 2088      3D3D4E55 
 2088      4C4C2900 
 2089              		.text
 2090              		.align	2
 2091              		.global	EApiVgaGetBacklightBrightness
 2092              		.syntax unified
 2093              		.arm
ARM GAS  /tmp/ccmTPeQn.s 			page 48


 2094              		.fpu vfpv3
 2096              	EApiVgaGetBacklightBrightness:
 2097              	.LFB10:
 476:/home/hkh/git/eapidk-code-r76-trunk/lib/linux/../EApiAPI.cpp **** EApiStatus_t
 477:/home/hkh/git/eapidk-code-r76-trunk/lib/linux/../EApiAPI.cpp **** EAPI_CALLTYPE
 478:/home/hkh/git/eapidk-code-r76-trunk/lib/linux/../EApiAPI.cpp **** EApiVgaGetBacklightBrightness( 
 479:/home/hkh/git/eapidk-code-r76-trunk/lib/linux/../EApiAPI.cpp ****     __IN  EApiId_t  Id      , /* Backlight Id */
 480:/home/hkh/git/eapidk-code-r76-trunk/lib/linux/../EApiAPI.cpp ****     __OUT uint32_t *pBright   /* Backlight Brightness */
 481:/home/hkh/git/eapidk-code-r76-trunk/lib/linux/../EApiAPI.cpp ****     )
 482:/home/hkh/git/eapidk-code-r76-trunk/lib/linux/../EApiAPI.cpp **** {
 2098              		.loc 1 482 1
 2099              		.cfi_startproc
 2100              		@ args = 0, pretend = 0, frame = 16
 2101              		@ frame_needed = 1, uses_anonymous_args = 0
 2102 14c0 00482DE9 		push	{fp, lr}
 2103              		.cfi_def_cfa_offset 8
 2104              		.cfi_offset 11, -8
 2105              		.cfi_offset 14, -4
 2106 14c4 04B08DE2 		add	fp, sp, #4
 2107              		.cfi_def_cfa 11, 4
 2108 14c8 20D04DE2 		sub	sp, sp, #32
 2109 14cc 10000BE5 		str	r0, [fp, #-16]
 2110 14d0 14100BE5 		str	r1, [fp, #-20]
 483:/home/hkh/git/eapidk-code-r76-trunk/lib/linux/../EApiAPI.cpp ****   EApiStatus_t StatusCode=EAPI_STATUS_SUCCESS;
 2111              		.loc 1 483 16
 2112 14d4 0030A0E3 		mov	r3, #0
 2113 14d8 08300BE5 		str	r3, [fp, #-8]
 484:/home/hkh/git/eapidk-code-r76-trunk/lib/linux/../EApiAPI.cpp ****   EAPI_CHECK_INITIALIZED(EApiVgaGetBacklightBrightness);
 2114              		.loc 1 484 3
 2115 14dc C8309FE5 		ldr	r3, .L99
 2116              	.LPIC151:
 2117 14e0 03308FE0 		add	r3, pc, r3
 2118 14e4 003093E5 		ldr	r3, [r3]
 2119 14e8 000053E3 		cmp	r3, #0
 2120 14ec 1100001A 		bne	.L95
 2121              		.loc 1 484 3 is_stmt 0 discriminator 1
 2122 14f0 B8309FE5 		ldr	r3, .L99+4
 2123              	.LPIC152:
 2124 14f4 03308FE0 		add	r3, pc, r3
 2125 14f8 08308DE5 		str	r3, [sp, #8]
 2126 14fc B0309FE5 		ldr	r3, .L99+8
 2127              	.LPIC153:
 2128 1500 03308FE0 		add	r3, pc, r3
 2129 1504 04308DE5 		str	r3, [sp, #4]
 2130 1508 0030E0E3 		mvn	r3, #0
 2131 150c 00308DE5 		str	r3, [sp]
 2132 1510 793FA0E3 		mov	r3, #484
 2133 1514 9C209FE5 		ldr	r2, .L99+12
 2134              	.LPIC154:
 2135 1518 02208FE0 		add	r2, pc, r2
 2136 151c 98109FE5 		ldr	r1, .L99+16
 2137              	.LPIC155:
 2138 1520 01108FE0 		add	r1, pc, r1
 2139 1524 4500A0E3 		mov	r0, #69
 2140 1528 FEFFFFEB 		bl	siFormattedMessage_SC(PLT)
 2141 152c 0030E0E3 		mvn	r3, #0
 2142 1530 08300BE5 		str	r3, [fp, #-8]
ARM GAS  /tmp/ccmTPeQn.s 			page 49


 2143 1534 180000EA 		b	.L96
 2144              	.L95:
 485:/home/hkh/git/eapidk-code-r76-trunk/lib/linux/../EApiAPI.cpp ****   EAPI_LIB_ASSERT_PARAMATER_NULL(EApiVgaGetBacklightBrightness, pBright);
 2145              		.loc 1 485 3 is_stmt 1
 2146 1538 14301BE5 		ldr	r3, [fp, #-20]
 2147 153c 000053E3 		cmp	r3, #0
 2148 1540 1100001A 		bne	.L97
 2149              		.loc 1 485 3 is_stmt 0 discriminator 1
 2150 1544 74309FE5 		ldr	r3, .L99+20
 2151              	.LPIC156:
 2152 1548 03308FE0 		add	r3, pc, r3
 2153 154c 08308DE5 		str	r3, [sp, #8]
 2154 1550 6C309FE5 		ldr	r3, .L99+24
 2155              	.LPIC157:
 2156 1554 03308FE0 		add	r3, pc, r3
 2157 1558 04308DE5 		str	r3, [sp, #4]
 2158 155c 013CE0E3 		mvn	r3, #256
 2159 1560 00308DE5 		str	r3, [sp]
 2160 1564 E53100E3 		movw	r3, #485
 2161 1568 58209FE5 		ldr	r2, .L99+28
 2162              	.LPIC158:
 2163 156c 02208FE0 		add	r2, pc, r2
 2164 1570 54109FE5 		ldr	r1, .L99+32
 2165              	.LPIC159:
 2166 1574 01108FE0 		add	r1, pc, r1
 2167 1578 4500A0E3 		mov	r0, #69
 2168 157c FEFFFFEB 		bl	siFormattedMessage_SC(PLT)
 2169 1580 013CE0E3 		mvn	r3, #256
 2170 1584 08300BE5 		str	r3, [fp, #-8]
 2171 1588 030000EA 		b	.L96
 2172              	.L97:
 486:/home/hkh/git/eapidk-code-r76-trunk/lib/linux/../EApiAPI.cpp **** 
 487:/home/hkh/git/eapidk-code-r76-trunk/lib/linux/../EApiAPI.cpp ****   StatusCode=EApiVgaGetBacklightBrightnessEmul(Id, pBright);
 2173              		.loc 1 487 14 is_stmt 1
 2174 158c 14101BE5 		ldr	r1, [fp, #-20]
 2175 1590 10001BE5 		ldr	r0, [fp, #-16]
 2176 1594 FEFFFFEB 		bl	EApiVgaGetBacklightBrightnessEmul(PLT)
 2177 1598 08000BE5 		str	r0, [fp, #-8]
 2178              	.L96:
 488:/home/hkh/git/eapidk-code-r76-trunk/lib/linux/../EApiAPI.cpp **** EAPI_LIB_ASSERT_EXIT
 489:/home/hkh/git/eapidk-code-r76-trunk/lib/linux/../EApiAPI.cpp ****   return StatusCode;
 2179              		.loc 1 489 10
 2180 159c 08301BE5 		ldr	r3, [fp, #-8]
 490:/home/hkh/git/eapidk-code-r76-trunk/lib/linux/../EApiAPI.cpp **** }
 2181              		.loc 1 490 1
 2182 15a0 0300A0E1 		mov	r0, r3
 2183 15a4 04D04BE2 		sub	sp, fp, #4
 2184              		.cfi_def_cfa 13, 8
 2185              		@ sp needed
 2186 15a8 0088BDE8 		pop	{fp, pc}
 2187              	.L100:
 2188              		.align	2
 2189              	.L99:
 2190 15ac C4000000 		.word	Initialized-(.LPIC151+8)
 2191 15b0 08010000 		.word	.LC2-(.LPIC152+8)
 2192 15b4 18010000 		.word	.LC3-(.LPIC153+8)
 2193 15b8 D0030000 		.word	.LC33-(.LPIC154+8)
ARM GAS  /tmp/ccmTPeQn.s 			page 50


 2194 15bc A8000000 		.word	.LC1-(.LPIC155+8)
 2195 15c0 C8030000 		.word	.LC34-(.LPIC156+8)
 2196 15c4 D4000000 		.word	.LC3-(.LPIC157+8)
 2197 15c8 8C030000 		.word	.LC33-(.LPIC158+8)
 2198 15cc 64000000 		.word	.LC1-(.LPIC159+8)
 2199              		.cfi_endproc
 2200              	.LFE10:
 2202              		.section	.rodata
 2203              		.align	2
 2204              	.LC35:
 2205 0368 45417069 		.ascii	"EApiVgaSetBacklightBrightness\000"
 2205      56676153 
 2205      65744261 
 2205      636B6C69 
 2205      67687442 
 2206 0386 0000     		.align	2
 2207              	.LC36:
 2208 0388 42726967 		.ascii	"Brightness Invalid Value\000"
 2208      68746E65 
 2208      73732049 
 2208      6E76616C 
 2208      69642056 
 2209              		.text
 2210              		.align	2
 2211              		.global	EApiVgaSetBacklightBrightness
 2212              		.syntax unified
 2213              		.arm
 2214              		.fpu vfpv3
 2216              	EApiVgaSetBacklightBrightness:
 2217              	.LFB11:
 491:/home/hkh/git/eapidk-code-r76-trunk/lib/linux/../EApiAPI.cpp **** 
 492:/home/hkh/git/eapidk-code-r76-trunk/lib/linux/../EApiAPI.cpp **** EApiStatus_t 
 493:/home/hkh/git/eapidk-code-r76-trunk/lib/linux/../EApiAPI.cpp **** EAPI_CALLTYPE
 494:/home/hkh/git/eapidk-code-r76-trunk/lib/linux/../EApiAPI.cpp **** EApiVgaSetBacklightBrightness(
 495:/home/hkh/git/eapidk-code-r76-trunk/lib/linux/../EApiAPI.cpp ****     __IN  EApiId_t  Id      , /* Backlight Id */
 496:/home/hkh/git/eapidk-code-r76-trunk/lib/linux/../EApiAPI.cpp ****     __IN  uint32_t  Bright    /* Backlight Brightness */
 497:/home/hkh/git/eapidk-code-r76-trunk/lib/linux/../EApiAPI.cpp ****     )
 498:/home/hkh/git/eapidk-code-r76-trunk/lib/linux/../EApiAPI.cpp **** {
 2218              		.loc 1 498 1
 2219              		.cfi_startproc
 2220              		@ args = 0, pretend = 0, frame = 16
 2221              		@ frame_needed = 1, uses_anonymous_args = 0
 2222 15d0 00482DE9 		push	{fp, lr}
 2223              		.cfi_def_cfa_offset 8
 2224              		.cfi_offset 11, -8
 2225              		.cfi_offset 14, -4
 2226 15d4 04B08DE2 		add	fp, sp, #4
 2227              		.cfi_def_cfa 11, 4
 2228 15d8 20D04DE2 		sub	sp, sp, #32
 2229 15dc 10000BE5 		str	r0, [fp, #-16]
 2230 15e0 14100BE5 		str	r1, [fp, #-20]
 499:/home/hkh/git/eapidk-code-r76-trunk/lib/linux/../EApiAPI.cpp ****   EApiStatus_t StatusCode=EAPI_STATUS_SUCCESS;
 2231              		.loc 1 499 16
 2232 15e4 0030A0E3 		mov	r3, #0
 2233 15e8 08300BE5 		str	r3, [fp, #-8]
 500:/home/hkh/git/eapidk-code-r76-trunk/lib/linux/../EApiAPI.cpp ****   EAPI_CHECK_INITIALIZED(EApiVgaSetBacklightBrightness);
 2234              		.loc 1 500 3
ARM GAS  /tmp/ccmTPeQn.s 			page 51


 2235 15ec C8309FE5 		ldr	r3, .L106
 2236              	.LPIC160:
 2237 15f0 03308FE0 		add	r3, pc, r3
 2238 15f4 003093E5 		ldr	r3, [r3]
 2239 15f8 000053E3 		cmp	r3, #0
 2240 15fc 1100001A 		bne	.L102
 2241              		.loc 1 500 3 is_stmt 0 discriminator 1
 2242 1600 B8309FE5 		ldr	r3, .L106+4
 2243              	.LPIC161:
 2244 1604 03308FE0 		add	r3, pc, r3
 2245 1608 08308DE5 		str	r3, [sp, #8]
 2246 160c B0309FE5 		ldr	r3, .L106+8
 2247              	.LPIC162:
 2248 1610 03308FE0 		add	r3, pc, r3
 2249 1614 04308DE5 		str	r3, [sp, #4]
 2250 1618 0030E0E3 		mvn	r3, #0
 2251 161c 00308DE5 		str	r3, [sp]
 2252 1620 7D3FA0E3 		mov	r3, #500
 2253 1624 9C209FE5 		ldr	r2, .L106+12
 2254              	.LPIC163:
 2255 1628 02208FE0 		add	r2, pc, r2
 2256 162c 98109FE5 		ldr	r1, .L106+16
 2257              	.LPIC164:
 2258 1630 01108FE0 		add	r1, pc, r1
 2259 1634 4500A0E3 		mov	r0, #69
 2260 1638 FEFFFFEB 		bl	siFormattedMessage_SC(PLT)
 2261 163c 0030E0E3 		mvn	r3, #0
 2262 1640 08300BE5 		str	r3, [fp, #-8]
 2263 1644 180000EA 		b	.L103
 2264              	.L102:
 501:/home/hkh/git/eapidk-code-r76-trunk/lib/linux/../EApiAPI.cpp ****   EAPI_LIB_ASSERT_PARAMATER_CHECK(
 2265              		.loc 1 501 3 is_stmt 1
 2266 1648 14301BE5 		ldr	r3, [fp, #-20]
 2267 164c FF0053E3 		cmp	r3, #255
 2268 1650 1100009A 		bls	.L104
 2269              		.loc 1 501 3 is_stmt 0 discriminator 1
 2270 1654 74309FE5 		ldr	r3, .L106+20
 2271              	.LPIC165:
 2272 1658 03308FE0 		add	r3, pc, r3
 2273 165c 08308DE5 		str	r3, [sp, #8]
 2274 1660 6C309FE5 		ldr	r3, .L106+24
 2275              	.LPIC166:
 2276 1664 03308FE0 		add	r3, pc, r3
 2277 1668 04308DE5 		str	r3, [sp, #4]
 2278 166c 013CE0E3 		mvn	r3, #256
 2279 1670 00308DE5 		str	r3, [sp]
 2280 1674 F53100E3 		movw	r3, #501
 2281 1678 58209FE5 		ldr	r2, .L106+28
 2282              	.LPIC167:
 2283 167c 02208FE0 		add	r2, pc, r2
 2284 1680 54109FE5 		ldr	r1, .L106+32
 2285              	.LPIC168:
 2286 1684 01108FE0 		add	r1, pc, r1
 2287 1688 4500A0E3 		mov	r0, #69
 2288 168c FEFFFFEB 		bl	siFormattedMessage_SC(PLT)
 2289 1690 013CE0E3 		mvn	r3, #256
 2290 1694 08300BE5 		str	r3, [fp, #-8]
ARM GAS  /tmp/ccmTPeQn.s 			page 52


 2291 1698 030000EA 		b	.L103
 2292              	.L104:
 502:/home/hkh/git/eapidk-code-r76-trunk/lib/linux/../EApiAPI.cpp ****       EApiVgaSetBacklightBrightness, 
 503:/home/hkh/git/eapidk-code-r76-trunk/lib/linux/../EApiAPI.cpp ****       (Bright>EAPI_BACKLIGHT_SET_BRIGHTEST), 
 504:/home/hkh/git/eapidk-code-r76-trunk/lib/linux/../EApiAPI.cpp ****       "Brightness Invalid Value"
 505:/home/hkh/git/eapidk-code-r76-trunk/lib/linux/../EApiAPI.cpp ****       );
 506:/home/hkh/git/eapidk-code-r76-trunk/lib/linux/../EApiAPI.cpp **** 
 507:/home/hkh/git/eapidk-code-r76-trunk/lib/linux/../EApiAPI.cpp ****   StatusCode=EApiVgaSetBacklightBrightnessEmul(Id, Bright);
 2293              		.loc 1 507 14 is_stmt 1
 2294 169c 14101BE5 		ldr	r1, [fp, #-20]
 2295 16a0 10001BE5 		ldr	r0, [fp, #-16]
 2296 16a4 FEFFFFEB 		bl	EApiVgaSetBacklightBrightnessEmul(PLT)
 2297 16a8 08000BE5 		str	r0, [fp, #-8]
 2298              	.L103:
 508:/home/hkh/git/eapidk-code-r76-trunk/lib/linux/../EApiAPI.cpp **** EAPI_LIB_ASSERT_EXIT
 509:/home/hkh/git/eapidk-code-r76-trunk/lib/linux/../EApiAPI.cpp ****   return StatusCode;
 2299              		.loc 1 509 10
 2300 16ac 08301BE5 		ldr	r3, [fp, #-8]
 510:/home/hkh/git/eapidk-code-r76-trunk/lib/linux/../EApiAPI.cpp **** }
 2301              		.loc 1 510 1
 2302 16b0 0300A0E1 		mov	r0, r3
 2303 16b4 04D04BE2 		sub	sp, fp, #4
 2304              		.cfi_def_cfa 13, 8
 2305              		@ sp needed
 2306 16b8 0088BDE8 		pop	{fp, pc}
 2307              	.L107:
 2308              		.align	2
 2309              	.L106:
 2310 16bc C4000000 		.word	Initialized-(.LPIC160+8)
 2311 16c0 08010000 		.word	.LC2-(.LPIC161+8)
 2312 16c4 18010000 		.word	.LC3-(.LPIC162+8)
 2313 16c8 00040000 		.word	.LC35-(.LPIC163+8)
 2314 16cc A8000000 		.word	.LC1-(.LPIC164+8)
 2315 16d0 F8030000 		.word	.LC36-(.LPIC165+8)
 2316 16d4 D4000000 		.word	.LC3-(.LPIC166+8)
 2317 16d8 BC030000 		.word	.LC35-(.LPIC167+8)
 2318 16dc 64000000 		.word	.LC1-(.LPIC168+8)
 2319              		.cfi_endproc
 2320              	.LFE11:
 2322              		.section	.rodata
 2323 03a1 000000   		.align	2
 2324              	.LC37:
 2325 03a4 45417069 		.ascii	"EApiGPIOGetLevel\000"
 2325      4750494F 
 2325      4765744C 
 2325      6576656C 
 2325      00
 2326 03b5 000000   		.align	2
 2327              	.LC38:
 2328 03b8 28426974 		.ascii	"(Bitmask==0)\000"
 2328      6D61736B 
 2328      3D3D3029 
 2328      00
 2329 03c5 000000   		.align	2
 2330              	.LC39:
 2331 03c8 28704C65 		.ascii	"(pLevel==NULL)\000"
 2331      76656C3D 
ARM GAS  /tmp/ccmTPeQn.s 			page 53


 2331      3D4E554C 
 2331      4C2900
 2332              		.text
 2333              		.align	2
 2334              		.global	EApiGPIOGetLevel
 2335              		.syntax unified
 2336              		.arm
 2337              		.fpu vfpv3
 2339              	EApiGPIOGetLevel:
 2340              	.LFB12:
 511:/home/hkh/git/eapidk-code-r76-trunk/lib/linux/../EApiAPI.cpp **** 
 512:/home/hkh/git/eapidk-code-r76-trunk/lib/linux/../EApiAPI.cpp **** 
 513:/home/hkh/git/eapidk-code-r76-trunk/lib/linux/../EApiAPI.cpp **** 
 514:/home/hkh/git/eapidk-code-r76-trunk/lib/linux/../EApiAPI.cpp **** /*
 515:/home/hkh/git/eapidk-code-r76-trunk/lib/linux/../EApiAPI.cpp ****  *
 516:/home/hkh/git/eapidk-code-r76-trunk/lib/linux/../EApiAPI.cpp ****  *  
 517:/home/hkh/git/eapidk-code-r76-trunk/lib/linux/../EApiAPI.cpp ****  *
 518:/home/hkh/git/eapidk-code-r76-trunk/lib/linux/../EApiAPI.cpp ****  *  G P I O
 519:/home/hkh/git/eapidk-code-r76-trunk/lib/linux/../EApiAPI.cpp ****  *
 520:/home/hkh/git/eapidk-code-r76-trunk/lib/linux/../EApiAPI.cpp ****  *
 521:/home/hkh/git/eapidk-code-r76-trunk/lib/linux/../EApiAPI.cpp ****  *
 522:/home/hkh/git/eapidk-code-r76-trunk/lib/linux/../EApiAPI.cpp ****  */
 523:/home/hkh/git/eapidk-code-r76-trunk/lib/linux/../EApiAPI.cpp **** 
 524:/home/hkh/git/eapidk-code-r76-trunk/lib/linux/../EApiAPI.cpp **** EApiStatus_t 
 525:/home/hkh/git/eapidk-code-r76-trunk/lib/linux/../EApiAPI.cpp **** EAPI_CALLTYPE 
 526:/home/hkh/git/eapidk-code-r76-trunk/lib/linux/../EApiAPI.cpp **** EApiGPIOGetLevel(
 527:/home/hkh/git/eapidk-code-r76-trunk/lib/linux/../EApiAPI.cpp ****     __IN  EApiId_t Id          , /* GPIO Id */
 528:/home/hkh/git/eapidk-code-r76-trunk/lib/linux/../EApiAPI.cpp ****     __IN  uint32_t Bitmask     , /* Bit mask of Affected
 529:/home/hkh/git/eapidk-code-r76-trunk/lib/linux/../EApiAPI.cpp ****                                   * Bits 
 530:/home/hkh/git/eapidk-code-r76-trunk/lib/linux/../EApiAPI.cpp ****                                   */
 531:/home/hkh/git/eapidk-code-r76-trunk/lib/linux/../EApiAPI.cpp ****     __OUT uint32_t *pLevel       /* Current Level */
 532:/home/hkh/git/eapidk-code-r76-trunk/lib/linux/../EApiAPI.cpp ****     )
 533:/home/hkh/git/eapidk-code-r76-trunk/lib/linux/../EApiAPI.cpp **** {
 2341              		.loc 1 533 1
 2342              		.cfi_startproc
 2343              		@ args = 0, pretend = 0, frame = 24
 2344              		@ frame_needed = 1, uses_anonymous_args = 0
 2345 16e0 00482DE9 		push	{fp, lr}
 2346              		.cfi_def_cfa_offset 8
 2347              		.cfi_offset 11, -8
 2348              		.cfi_offset 14, -4
 2349 16e4 04B08DE2 		add	fp, sp, #4
 2350              		.cfi_def_cfa 11, 4
 2351 16e8 28D04DE2 		sub	sp, sp, #40
 2352 16ec 10000BE5 		str	r0, [fp, #-16]
 2353 16f0 14100BE5 		str	r1, [fp, #-20]
 2354 16f4 18200BE5 		str	r2, [fp, #-24]
 534:/home/hkh/git/eapidk-code-r76-trunk/lib/linux/../EApiAPI.cpp ****   EApiStatus_t StatusCode=EAPI_STATUS_SUCCESS;
 2355              		.loc 1 534 16
 2356 16f8 0030A0E3 		mov	r3, #0
 2357 16fc 08300BE5 		str	r3, [fp, #-8]
 535:/home/hkh/git/eapidk-code-r76-trunk/lib/linux/../EApiAPI.cpp ****   EAPI_CHECK_INITIALIZED(EApiGPIOGetLevel);
 2358              		.loc 1 535 3
 2359 1700 20319FE5 		ldr	r3, .L114
 2360              	.LPIC169:
 2361 1704 03308FE0 		add	r3, pc, r3
 2362 1708 003093E5 		ldr	r3, [r3]
ARM GAS  /tmp/ccmTPeQn.s 			page 54


 2363 170c 000053E3 		cmp	r3, #0
 2364 1710 1100001A 		bne	.L109
 2365              		.loc 1 535 3 is_stmt 0 discriminator 1
 2366 1714 10319FE5 		ldr	r3, .L114+4
 2367              	.LPIC170:
 2368 1718 03308FE0 		add	r3, pc, r3
 2369 171c 08308DE5 		str	r3, [sp, #8]
 2370 1720 08319FE5 		ldr	r3, .L114+8
 2371              	.LPIC171:
 2372 1724 03308FE0 		add	r3, pc, r3
 2373 1728 04308DE5 		str	r3, [sp, #4]
 2374 172c 0030E0E3 		mvn	r3, #0
 2375 1730 00308DE5 		str	r3, [sp]
 2376 1734 173200E3 		movw	r3, #535
 2377 1738 F4209FE5 		ldr	r2, .L114+12
 2378              	.LPIC172:
 2379 173c 02208FE0 		add	r2, pc, r2
 2380 1740 F0109FE5 		ldr	r1, .L114+16
 2381              	.LPIC173:
 2382 1744 01108FE0 		add	r1, pc, r1
 2383 1748 4500A0E3 		mov	r0, #69
 2384 174c FEFFFFEB 		bl	siFormattedMessage_SC(PLT)
 2385 1750 0030E0E3 		mvn	r3, #0
 2386 1754 08300BE5 		str	r3, [fp, #-8]
 2387 1758 2E0000EA 		b	.L110
 2388              	.L109:
 536:/home/hkh/git/eapidk-code-r76-trunk/lib/linux/../EApiAPI.cpp ****   EAPI_LIB_ASSERT_PARAMATER_ZERO(EApiGPIOGetLevel, Bitmask);
 2389              		.loc 1 536 3 is_stmt 1
 2390 175c 14301BE5 		ldr	r3, [fp, #-20]
 2391 1760 000053E3 		cmp	r3, #0
 2392 1764 1100001A 		bne	.L111
 2393              		.loc 1 536 3 is_stmt 0 discriminator 1
 2394 1768 CC309FE5 		ldr	r3, .L114+20
 2395              	.LPIC174:
 2396 176c 03308FE0 		add	r3, pc, r3
 2397 1770 08308DE5 		str	r3, [sp, #8]
 2398 1774 C4309FE5 		ldr	r3, .L114+24
 2399              	.LPIC175:
 2400 1778 03308FE0 		add	r3, pc, r3
 2401 177c 04308DE5 		str	r3, [sp, #4]
 2402 1780 013CE0E3 		mvn	r3, #256
 2403 1784 00308DE5 		str	r3, [sp]
 2404 1788 863FA0E3 		mov	r3, #536
 2405 178c B0209FE5 		ldr	r2, .L114+28
 2406              	.LPIC176:
 2407 1790 02208FE0 		add	r2, pc, r2
 2408 1794 AC109FE5 		ldr	r1, .L114+32
 2409              	.LPIC177:
 2410 1798 01108FE0 		add	r1, pc, r1
 2411 179c 4500A0E3 		mov	r0, #69
 2412 17a0 FEFFFFEB 		bl	siFormattedMessage_SC(PLT)
 2413 17a4 013CE0E3 		mvn	r3, #256
 2414 17a8 08300BE5 		str	r3, [fp, #-8]
 2415 17ac 190000EA 		b	.L110
 2416              	.L111:
 537:/home/hkh/git/eapidk-code-r76-trunk/lib/linux/../EApiAPI.cpp ****   EAPI_LIB_ASSERT_PARAMATER_NULL(EApiGPIOGetLevel, pLevel);
 2417              		.loc 1 537 3 is_stmt 1
ARM GAS  /tmp/ccmTPeQn.s 			page 55


 2418 17b0 18301BE5 		ldr	r3, [fp, #-24]
 2419 17b4 000053E3 		cmp	r3, #0
 2420 17b8 1100001A 		bne	.L112
 2421              		.loc 1 537 3 is_stmt 0 discriminator 1
 2422 17bc 88309FE5 		ldr	r3, .L114+36
 2423              	.LPIC178:
 2424 17c0 03308FE0 		add	r3, pc, r3
 2425 17c4 08308DE5 		str	r3, [sp, #8]
 2426 17c8 80309FE5 		ldr	r3, .L114+40
 2427              	.LPIC179:
 2428 17cc 03308FE0 		add	r3, pc, r3
 2429 17d0 04308DE5 		str	r3, [sp, #4]
 2430 17d4 013CE0E3 		mvn	r3, #256
 2431 17d8 00308DE5 		str	r3, [sp]
 2432 17dc 193200E3 		movw	r3, #537
 2433 17e0 6C209FE5 		ldr	r2, .L114+44
 2434              	.LPIC180:
 2435 17e4 02208FE0 		add	r2, pc, r2
 2436 17e8 68109FE5 		ldr	r1, .L114+48
 2437              	.LPIC181:
 2438 17ec 01108FE0 		add	r1, pc, r1
 2439 17f0 4500A0E3 		mov	r0, #69
 2440 17f4 FEFFFFEB 		bl	siFormattedMessage_SC(PLT)
 2441 17f8 013CE0E3 		mvn	r3, #256
 2442 17fc 08300BE5 		str	r3, [fp, #-8]
 2443 1800 040000EA 		b	.L110
 2444              	.L112:
 538:/home/hkh/git/eapidk-code-r76-trunk/lib/linux/../EApiAPI.cpp **** 
 539:/home/hkh/git/eapidk-code-r76-trunk/lib/linux/../EApiAPI.cpp ****   StatusCode=EApiGPIOGetLevelEmul(Id, Bitmask, pLevel);
 2445              		.loc 1 539 14 is_stmt 1
 2446 1804 18201BE5 		ldr	r2, [fp, #-24]
 2447 1808 14101BE5 		ldr	r1, [fp, #-20]
 2448 180c 10001BE5 		ldr	r0, [fp, #-16]
 2449 1810 FEFFFFEB 		bl	EApiGPIOGetLevelEmul(PLT)
 2450 1814 08000BE5 		str	r0, [fp, #-8]
 2451              	.L110:
 540:/home/hkh/git/eapidk-code-r76-trunk/lib/linux/../EApiAPI.cpp **** EAPI_LIB_ASSERT_EXIT
 541:/home/hkh/git/eapidk-code-r76-trunk/lib/linux/../EApiAPI.cpp ****   return StatusCode;
 2452              		.loc 1 541 10
 2453 1818 08301BE5 		ldr	r3, [fp, #-8]
 542:/home/hkh/git/eapidk-code-r76-trunk/lib/linux/../EApiAPI.cpp **** }
 2454              		.loc 1 542 1
 2455 181c 0300A0E1 		mov	r0, r3
 2456 1820 04D04BE2 		sub	sp, fp, #4
 2457              		.cfi_def_cfa 13, 8
 2458              		@ sp needed
 2459 1824 0088BDE8 		pop	{fp, pc}
 2460              	.L115:
 2461              		.align	2
 2462              	.L114:
 2463 1828 1C010000 		.word	Initialized-(.LPIC169+8)
 2464 182c 60010000 		.word	.LC2-(.LPIC170+8)
 2465 1830 70010000 		.word	.LC3-(.LPIC171+8)
 2466 1834 94040000 		.word	.LC37-(.LPIC172+8)
 2467 1838 00010000 		.word	.LC1-(.LPIC173+8)
 2468 183c 80040000 		.word	.LC38-(.LPIC174+8)
 2469 1840 2C010000 		.word	.LC3-(.LPIC175+8)
ARM GAS  /tmp/ccmTPeQn.s 			page 56


 2470 1844 50040000 		.word	.LC37-(.LPIC176+8)
 2471 1848 BC000000 		.word	.LC1-(.LPIC177+8)
 2472 184c 4C040000 		.word	.LC39-(.LPIC178+8)
 2473 1850 E8000000 		.word	.LC3-(.LPIC179+8)
 2474 1854 0C040000 		.word	.LC37-(.LPIC180+8)
 2475 1858 78000000 		.word	.LC1-(.LPIC181+8)
 2476              		.cfi_endproc
 2477              	.LFE12:
 2479              		.section	.rodata
 2480 03d7 00       		.align	2
 2481              	.LC40:
 2482 03d8 45417069 		.ascii	"EApiGPIOSetLevel\000"
 2482      4750494F 
 2482      5365744C 
 2482      6576656C 
 2482      00
 2483              		.text
 2484              		.align	2
 2485              		.global	EApiGPIOSetLevel
 2486              		.syntax unified
 2487              		.arm
 2488              		.fpu vfpv3
 2490              	EApiGPIOSetLevel:
 2491              	.LFB13:
 543:/home/hkh/git/eapidk-code-r76-trunk/lib/linux/../EApiAPI.cpp **** 
 544:/home/hkh/git/eapidk-code-r76-trunk/lib/linux/../EApiAPI.cpp **** EApiStatus_t
 545:/home/hkh/git/eapidk-code-r76-trunk/lib/linux/../EApiAPI.cpp **** EAPI_CALLTYPE 
 546:/home/hkh/git/eapidk-code-r76-trunk/lib/linux/../EApiAPI.cpp **** EApiGPIOSetLevel(
 547:/home/hkh/git/eapidk-code-r76-trunk/lib/linux/../EApiAPI.cpp ****     __IN  EApiId_t Id          , /* GPIO Id */
 548:/home/hkh/git/eapidk-code-r76-trunk/lib/linux/../EApiAPI.cpp ****     __IN  uint32_t Bitmask     , /* Bit mask of Affected 
 549:/home/hkh/git/eapidk-code-r76-trunk/lib/linux/../EApiAPI.cpp ****                                   * Bits 
 550:/home/hkh/git/eapidk-code-r76-trunk/lib/linux/../EApiAPI.cpp ****                                   */
 551:/home/hkh/git/eapidk-code-r76-trunk/lib/linux/../EApiAPI.cpp ****     __IN  uint32_t Level         /* Level */  
 552:/home/hkh/git/eapidk-code-r76-trunk/lib/linux/../EApiAPI.cpp ****     )
 553:/home/hkh/git/eapidk-code-r76-trunk/lib/linux/../EApiAPI.cpp **** {
 2492              		.loc 1 553 1
 2493              		.cfi_startproc
 2494              		@ args = 0, pretend = 0, frame = 24
 2495              		@ frame_needed = 1, uses_anonymous_args = 0
 2496 185c 00482DE9 		push	{fp, lr}
 2497              		.cfi_def_cfa_offset 8
 2498              		.cfi_offset 11, -8
 2499              		.cfi_offset 14, -4
 2500 1860 04B08DE2 		add	fp, sp, #4
 2501              		.cfi_def_cfa 11, 4
 2502 1864 28D04DE2 		sub	sp, sp, #40
 2503 1868 10000BE5 		str	r0, [fp, #-16]
 2504 186c 14100BE5 		str	r1, [fp, #-20]
 2505 1870 18200BE5 		str	r2, [fp, #-24]
 554:/home/hkh/git/eapidk-code-r76-trunk/lib/linux/../EApiAPI.cpp ****   EApiStatus_t StatusCode=EAPI_STATUS_SUCCESS;
 2506              		.loc 1 554 16
 2507 1874 0030A0E3 		mov	r3, #0
 2508 1878 08300BE5 		str	r3, [fp, #-8]
 555:/home/hkh/git/eapidk-code-r76-trunk/lib/linux/../EApiAPI.cpp ****   EAPI_CHECK_INITIALIZED(EApiGPIOSetLevel);
 2509              		.loc 1 555 3
 2510 187c CC309FE5 		ldr	r3, .L121
 2511              	.LPIC182:
ARM GAS  /tmp/ccmTPeQn.s 			page 57


 2512 1880 03308FE0 		add	r3, pc, r3
 2513 1884 003093E5 		ldr	r3, [r3]
 2514 1888 000053E3 		cmp	r3, #0
 2515 188c 1100001A 		bne	.L117
 2516              		.loc 1 555 3 is_stmt 0 discriminator 1
 2517 1890 BC309FE5 		ldr	r3, .L121+4
 2518              	.LPIC183:
 2519 1894 03308FE0 		add	r3, pc, r3
 2520 1898 08308DE5 		str	r3, [sp, #8]
 2521 189c B4309FE5 		ldr	r3, .L121+8
 2522              	.LPIC184:
 2523 18a0 03308FE0 		add	r3, pc, r3
 2524 18a4 04308DE5 		str	r3, [sp, #4]
 2525 18a8 0030E0E3 		mvn	r3, #0
 2526 18ac 00308DE5 		str	r3, [sp]
 2527 18b0 2B3200E3 		movw	r3, #555
 2528 18b4 A0209FE5 		ldr	r2, .L121+12
 2529              	.LPIC185:
 2530 18b8 02208FE0 		add	r2, pc, r2
 2531 18bc 9C109FE5 		ldr	r1, .L121+16
 2532              	.LPIC186:
 2533 18c0 01108FE0 		add	r1, pc, r1
 2534 18c4 4500A0E3 		mov	r0, #69
 2535 18c8 FEFFFFEB 		bl	siFormattedMessage_SC(PLT)
 2536 18cc 0030E0E3 		mvn	r3, #0
 2537 18d0 08300BE5 		str	r3, [fp, #-8]
 2538 18d4 190000EA 		b	.L118
 2539              	.L117:
 556:/home/hkh/git/eapidk-code-r76-trunk/lib/linux/../EApiAPI.cpp ****   EAPI_LIB_ASSERT_PARAMATER_ZERO(EApiGPIOSetLevel, Bitmask);
 2540              		.loc 1 556 3 is_stmt 1
 2541 18d8 14301BE5 		ldr	r3, [fp, #-20]
 2542 18dc 000053E3 		cmp	r3, #0
 2543 18e0 1100001A 		bne	.L119
 2544              		.loc 1 556 3 is_stmt 0 discriminator 1
 2545 18e4 78309FE5 		ldr	r3, .L121+20
 2546              	.LPIC187:
 2547 18e8 03308FE0 		add	r3, pc, r3
 2548 18ec 08308DE5 		str	r3, [sp, #8]
 2549 18f0 70309FE5 		ldr	r3, .L121+24
 2550              	.LPIC188:
 2551 18f4 03308FE0 		add	r3, pc, r3
 2552 18f8 04308DE5 		str	r3, [sp, #4]
 2553 18fc 013CE0E3 		mvn	r3, #256
 2554 1900 00308DE5 		str	r3, [sp]
 2555 1904 8B3FA0E3 		mov	r3, #556
 2556 1908 5C209FE5 		ldr	r2, .L121+28
 2557              	.LPIC189:
 2558 190c 02208FE0 		add	r2, pc, r2
 2559 1910 58109FE5 		ldr	r1, .L121+32
 2560              	.LPIC190:
 2561 1914 01108FE0 		add	r1, pc, r1
 2562 1918 4500A0E3 		mov	r0, #69
 2563 191c FEFFFFEB 		bl	siFormattedMessage_SC(PLT)
 2564 1920 013CE0E3 		mvn	r3, #256
 2565 1924 08300BE5 		str	r3, [fp, #-8]
 2566 1928 040000EA 		b	.L118
 2567              	.L119:
ARM GAS  /tmp/ccmTPeQn.s 			page 58


 557:/home/hkh/git/eapidk-code-r76-trunk/lib/linux/../EApiAPI.cpp **** 
 558:/home/hkh/git/eapidk-code-r76-trunk/lib/linux/../EApiAPI.cpp ****   StatusCode=EApiGPIOSetLevelEmul(Id, Bitmask, Level);
 2568              		.loc 1 558 14 is_stmt 1
 2569 192c 18201BE5 		ldr	r2, [fp, #-24]
 2570 1930 14101BE5 		ldr	r1, [fp, #-20]
 2571 1934 10001BE5 		ldr	r0, [fp, #-16]
 2572 1938 FEFFFFEB 		bl	EApiGPIOSetLevelEmul(PLT)
 2573 193c 08000BE5 		str	r0, [fp, #-8]
 2574              	.L118:
 559:/home/hkh/git/eapidk-code-r76-trunk/lib/linux/../EApiAPI.cpp **** EAPI_LIB_ASSERT_EXIT
 560:/home/hkh/git/eapidk-code-r76-trunk/lib/linux/../EApiAPI.cpp ****   return StatusCode;
 2575              		.loc 1 560 10
 2576 1940 08301BE5 		ldr	r3, [fp, #-8]
 561:/home/hkh/git/eapidk-code-r76-trunk/lib/linux/../EApiAPI.cpp **** }
 2577              		.loc 1 561 1
 2578 1944 0300A0E1 		mov	r0, r3
 2579 1948 04D04BE2 		sub	sp, fp, #4
 2580              		.cfi_def_cfa 13, 8
 2581              		@ sp needed
 2582 194c 0088BDE8 		pop	{fp, pc}
 2583              	.L122:
 2584              		.align	2
 2585              	.L121:
 2586 1950 C8000000 		.word	Initialized-(.LPIC182+8)
 2587 1954 0C010000 		.word	.LC2-(.LPIC183+8)
 2588 1958 1C010000 		.word	.LC3-(.LPIC184+8)
 2589 195c 74040000 		.word	.LC40-(.LPIC185+8)
 2590 1960 AC000000 		.word	.LC1-(.LPIC186+8)
 2591 1964 2C040000 		.word	.LC38-(.LPIC187+8)
 2592 1968 D8000000 		.word	.LC3-(.LPIC188+8)
 2593 196c 30040000 		.word	.LC40-(.LPIC189+8)
 2594 1970 68000000 		.word	.LC1-(.LPIC190+8)
 2595              		.cfi_endproc
 2596              	.LFE13:
 2598              		.section	.rodata
 2599 03e9 000000   		.align	2
 2600              	.LC41:
 2601 03ec 45417069 		.ascii	"EApiGPIOGetDirection\000"
 2601      4750494F 
 2601      47657444 
 2601      69726563 
 2601      74696F6E 
 2602 0401 000000   		.align	2
 2603              	.LC42:
 2604 0404 28704469 		.ascii	"(pDirection==NULL)\000"
 2604      72656374 
 2604      696F6E3D 
 2604      3D4E554C 
 2604      4C2900
 2605              		.text
 2606              		.align	2
 2607              		.global	EApiGPIOGetDirection
 2608              		.syntax unified
 2609              		.arm
 2610              		.fpu vfpv3
 2612              	EApiGPIOGetDirection:
 2613              	.LFB14:
ARM GAS  /tmp/ccmTPeQn.s 			page 59


 562:/home/hkh/git/eapidk-code-r76-trunk/lib/linux/../EApiAPI.cpp **** 
 563:/home/hkh/git/eapidk-code-r76-trunk/lib/linux/../EApiAPI.cpp **** EApiStatus_t 
 564:/home/hkh/git/eapidk-code-r76-trunk/lib/linux/../EApiAPI.cpp **** EAPI_CALLTYPE 
 565:/home/hkh/git/eapidk-code-r76-trunk/lib/linux/../EApiAPI.cpp **** EApiGPIOGetDirection(
 566:/home/hkh/git/eapidk-code-r76-trunk/lib/linux/../EApiAPI.cpp ****     __IN  EApiId_t Id          , /* GPIO Id */
 567:/home/hkh/git/eapidk-code-r76-trunk/lib/linux/../EApiAPI.cpp ****     __IN  uint32_t Bitmask     , /* Bit mask of Affected
 568:/home/hkh/git/eapidk-code-r76-trunk/lib/linux/../EApiAPI.cpp ****                                   * Bits 
 569:/home/hkh/git/eapidk-code-r76-trunk/lib/linux/../EApiAPI.cpp ****                                   */
 570:/home/hkh/git/eapidk-code-r76-trunk/lib/linux/../EApiAPI.cpp ****     __OUT uint32_t *pDirection   /* Current Direction */
 571:/home/hkh/git/eapidk-code-r76-trunk/lib/linux/../EApiAPI.cpp ****     )
 572:/home/hkh/git/eapidk-code-r76-trunk/lib/linux/../EApiAPI.cpp **** {
 2614              		.loc 1 572 1
 2615              		.cfi_startproc
 2616              		@ args = 0, pretend = 0, frame = 24
 2617              		@ frame_needed = 1, uses_anonymous_args = 0
 2618 1974 00482DE9 		push	{fp, lr}
 2619              		.cfi_def_cfa_offset 8
 2620              		.cfi_offset 11, -8
 2621              		.cfi_offset 14, -4
 2622 1978 04B08DE2 		add	fp, sp, #4
 2623              		.cfi_def_cfa 11, 4
 2624 197c 28D04DE2 		sub	sp, sp, #40
 2625 1980 10000BE5 		str	r0, [fp, #-16]
 2626 1984 14100BE5 		str	r1, [fp, #-20]
 2627 1988 18200BE5 		str	r2, [fp, #-24]
 573:/home/hkh/git/eapidk-code-r76-trunk/lib/linux/../EApiAPI.cpp ****   EApiStatus_t StatusCode=EAPI_STATUS_SUCCESS;
 2628              		.loc 1 573 16
 2629 198c 0030A0E3 		mov	r3, #0
 2630 1990 08300BE5 		str	r3, [fp, #-8]
 574:/home/hkh/git/eapidk-code-r76-trunk/lib/linux/../EApiAPI.cpp ****   EAPI_CHECK_INITIALIZED(EApiGPIOGetDirection);
 2631              		.loc 1 574 3
 2632 1994 20319FE5 		ldr	r3, .L129
 2633              	.LPIC191:
 2634 1998 03308FE0 		add	r3, pc, r3
 2635 199c 003093E5 		ldr	r3, [r3]
 2636 19a0 000053E3 		cmp	r3, #0
 2637 19a4 1100001A 		bne	.L124
 2638              		.loc 1 574 3 is_stmt 0 discriminator 1
 2639 19a8 10319FE5 		ldr	r3, .L129+4
 2640              	.LPIC192:
 2641 19ac 03308FE0 		add	r3, pc, r3
 2642 19b0 08308DE5 		str	r3, [sp, #8]
 2643 19b4 08319FE5 		ldr	r3, .L129+8
 2644              	.LPIC193:
 2645 19b8 03308FE0 		add	r3, pc, r3
 2646 19bc 04308DE5 		str	r3, [sp, #4]
 2647 19c0 0030E0E3 		mvn	r3, #0
 2648 19c4 00308DE5 		str	r3, [sp]
 2649 19c8 3E3200E3 		movw	r3, #574
 2650 19cc F4209FE5 		ldr	r2, .L129+12
 2651              	.LPIC194:
 2652 19d0 02208FE0 		add	r2, pc, r2
 2653 19d4 F0109FE5 		ldr	r1, .L129+16
 2654              	.LPIC195:
 2655 19d8 01108FE0 		add	r1, pc, r1
 2656 19dc 4500A0E3 		mov	r0, #69
 2657 19e0 FEFFFFEB 		bl	siFormattedMessage_SC(PLT)
ARM GAS  /tmp/ccmTPeQn.s 			page 60


 2658 19e4 0030E0E3 		mvn	r3, #0
 2659 19e8 08300BE5 		str	r3, [fp, #-8]
 2660 19ec 2E0000EA 		b	.L125
 2661              	.L124:
 575:/home/hkh/git/eapidk-code-r76-trunk/lib/linux/../EApiAPI.cpp ****   EAPI_LIB_ASSERT_PARAMATER_ZERO(EApiGPIOGetDirection, Bitmask);
 2662              		.loc 1 575 3 is_stmt 1
 2663 19f0 14301BE5 		ldr	r3, [fp, #-20]
 2664 19f4 000053E3 		cmp	r3, #0
 2665 19f8 1100001A 		bne	.L126
 2666              		.loc 1 575 3 is_stmt 0 discriminator 1
 2667 19fc CC309FE5 		ldr	r3, .L129+20
 2668              	.LPIC196:
 2669 1a00 03308FE0 		add	r3, pc, r3
 2670 1a04 08308DE5 		str	r3, [sp, #8]
 2671 1a08 C4309FE5 		ldr	r3, .L129+24
 2672              	.LPIC197:
 2673 1a0c 03308FE0 		add	r3, pc, r3
 2674 1a10 04308DE5 		str	r3, [sp, #4]
 2675 1a14 013CE0E3 		mvn	r3, #256
 2676 1a18 00308DE5 		str	r3, [sp]
 2677 1a1c 3F3200E3 		movw	r3, #575
 2678 1a20 B0209FE5 		ldr	r2, .L129+28
 2679              	.LPIC198:
 2680 1a24 02208FE0 		add	r2, pc, r2
 2681 1a28 AC109FE5 		ldr	r1, .L129+32
 2682              	.LPIC199:
 2683 1a2c 01108FE0 		add	r1, pc, r1
 2684 1a30 4500A0E3 		mov	r0, #69
 2685 1a34 FEFFFFEB 		bl	siFormattedMessage_SC(PLT)
 2686 1a38 013CE0E3 		mvn	r3, #256
 2687 1a3c 08300BE5 		str	r3, [fp, #-8]
 2688 1a40 190000EA 		b	.L125
 2689              	.L126:
 576:/home/hkh/git/eapidk-code-r76-trunk/lib/linux/../EApiAPI.cpp ****   EAPI_LIB_ASSERT_PARAMATER_NULL(EApiGPIOGetDirection, pDirection);
 2690              		.loc 1 576 3 is_stmt 1
 2691 1a44 18301BE5 		ldr	r3, [fp, #-24]
 2692 1a48 000053E3 		cmp	r3, #0
 2693 1a4c 1100001A 		bne	.L127
 2694              		.loc 1 576 3 is_stmt 0 discriminator 1
 2695 1a50 88309FE5 		ldr	r3, .L129+36
 2696              	.LPIC200:
 2697 1a54 03308FE0 		add	r3, pc, r3
 2698 1a58 08308DE5 		str	r3, [sp, #8]
 2699 1a5c 80309FE5 		ldr	r3, .L129+40
 2700              	.LPIC201:
 2701 1a60 03308FE0 		add	r3, pc, r3
 2702 1a64 04308DE5 		str	r3, [sp, #4]
 2703 1a68 013CE0E3 		mvn	r3, #256
 2704 1a6c 00308DE5 		str	r3, [sp]
 2705 1a70 093DA0E3 		mov	r3, #576
 2706 1a74 6C209FE5 		ldr	r2, .L129+44
 2707              	.LPIC202:
 2708 1a78 02208FE0 		add	r2, pc, r2
 2709 1a7c 68109FE5 		ldr	r1, .L129+48
 2710              	.LPIC203:
 2711 1a80 01108FE0 		add	r1, pc, r1
 2712 1a84 4500A0E3 		mov	r0, #69
ARM GAS  /tmp/ccmTPeQn.s 			page 61


 2713 1a88 FEFFFFEB 		bl	siFormattedMessage_SC(PLT)
 2714 1a8c 013CE0E3 		mvn	r3, #256
 2715 1a90 08300BE5 		str	r3, [fp, #-8]
 2716 1a94 040000EA 		b	.L125
 2717              	.L127:
 577:/home/hkh/git/eapidk-code-r76-trunk/lib/linux/../EApiAPI.cpp **** 
 578:/home/hkh/git/eapidk-code-r76-trunk/lib/linux/../EApiAPI.cpp ****   StatusCode=EApiGPIOGetDirectionEmul(Id, Bitmask, pDirection);
 2718              		.loc 1 578 14 is_stmt 1
 2719 1a98 18201BE5 		ldr	r2, [fp, #-24]
 2720 1a9c 14101BE5 		ldr	r1, [fp, #-20]
 2721 1aa0 10001BE5 		ldr	r0, [fp, #-16]
 2722 1aa4 FEFFFFEB 		bl	EApiGPIOGetDirectionEmul(PLT)
 2723 1aa8 08000BE5 		str	r0, [fp, #-8]
 2724              	.L125:
 579:/home/hkh/git/eapidk-code-r76-trunk/lib/linux/../EApiAPI.cpp **** EAPI_LIB_ASSERT_EXIT
 580:/home/hkh/git/eapidk-code-r76-trunk/lib/linux/../EApiAPI.cpp ****   return StatusCode;
 2725              		.loc 1 580 10
 2726 1aac 08301BE5 		ldr	r3, [fp, #-8]
 581:/home/hkh/git/eapidk-code-r76-trunk/lib/linux/../EApiAPI.cpp **** }
 2727              		.loc 1 581 1
 2728 1ab0 0300A0E1 		mov	r0, r3
 2729 1ab4 04D04BE2 		sub	sp, fp, #4
 2730              		.cfi_def_cfa 13, 8
 2731              		@ sp needed
 2732 1ab8 0088BDE8 		pop	{fp, pc}
 2733              	.L130:
 2734              		.align	2
 2735              	.L129:
 2736 1abc 1C010000 		.word	Initialized-(.LPIC191+8)
 2737 1ac0 60010000 		.word	.LC2-(.LPIC192+8)
 2738 1ac4 70010000 		.word	.LC3-(.LPIC193+8)
 2739 1ac8 DC040000 		.word	.LC41-(.LPIC194+8)
 2740 1acc 00010000 		.word	.LC1-(.LPIC195+8)
 2741 1ad0 80040000 		.word	.LC38-(.LPIC196+8)
 2742 1ad4 2C010000 		.word	.LC3-(.LPIC197+8)
 2743 1ad8 98040000 		.word	.LC41-(.LPIC198+8)
 2744 1adc BC000000 		.word	.LC1-(.LPIC199+8)
 2745 1ae0 88040000 		.word	.LC42-(.LPIC200+8)
 2746 1ae4 E8000000 		.word	.LC3-(.LPIC201+8)
 2747 1ae8 54040000 		.word	.LC41-(.LPIC202+8)
 2748 1aec 78000000 		.word	.LC1-(.LPIC203+8)
 2749              		.cfi_endproc
 2750              	.LFE14:
 2752              		.section	.rodata
 2753 0417 00       		.align	2
 2754              	.LC43:
 2755 0418 45417069 		.ascii	"EApiGPIOSetDirection\000"
 2755      4750494F 
 2755      53657444 
 2755      69726563 
 2755      74696F6E 
 2756              		.text
 2757              		.align	2
 2758              		.global	EApiGPIOSetDirection
 2759              		.syntax unified
 2760              		.arm
 2761              		.fpu vfpv3
ARM GAS  /tmp/ccmTPeQn.s 			page 62


 2763              	EApiGPIOSetDirection:
 2764              	.LFB15:
 582:/home/hkh/git/eapidk-code-r76-trunk/lib/linux/../EApiAPI.cpp **** 
 583:/home/hkh/git/eapidk-code-r76-trunk/lib/linux/../EApiAPI.cpp **** EApiStatus_t 
 584:/home/hkh/git/eapidk-code-r76-trunk/lib/linux/../EApiAPI.cpp **** EAPI_CALLTYPE 
 585:/home/hkh/git/eapidk-code-r76-trunk/lib/linux/../EApiAPI.cpp **** EApiGPIOSetDirection(
 586:/home/hkh/git/eapidk-code-r76-trunk/lib/linux/../EApiAPI.cpp ****     __IN  EApiId_t Id          , /* GPIO Id */
 587:/home/hkh/git/eapidk-code-r76-trunk/lib/linux/../EApiAPI.cpp ****     __IN  uint32_t Bitmask     , /* Bit mask of Affected 
 588:/home/hkh/git/eapidk-code-r76-trunk/lib/linux/../EApiAPI.cpp ****                                   * Bits 
 589:/home/hkh/git/eapidk-code-r76-trunk/lib/linux/../EApiAPI.cpp ****                                   */
 590:/home/hkh/git/eapidk-code-r76-trunk/lib/linux/../EApiAPI.cpp ****     __IN  uint32_t Direction     /* Direction */
 591:/home/hkh/git/eapidk-code-r76-trunk/lib/linux/../EApiAPI.cpp ****     )
 592:/home/hkh/git/eapidk-code-r76-trunk/lib/linux/../EApiAPI.cpp **** {
 2765              		.loc 1 592 1
 2766              		.cfi_startproc
 2767              		@ args = 0, pretend = 0, frame = 24
 2768              		@ frame_needed = 1, uses_anonymous_args = 0
 2769 1af0 00482DE9 		push	{fp, lr}
 2770              		.cfi_def_cfa_offset 8
 2771              		.cfi_offset 11, -8
 2772              		.cfi_offset 14, -4
 2773 1af4 04B08DE2 		add	fp, sp, #4
 2774              		.cfi_def_cfa 11, 4
 2775 1af8 28D04DE2 		sub	sp, sp, #40
 2776 1afc 10000BE5 		str	r0, [fp, #-16]
 2777 1b00 14100BE5 		str	r1, [fp, #-20]
 2778 1b04 18200BE5 		str	r2, [fp, #-24]
 593:/home/hkh/git/eapidk-code-r76-trunk/lib/linux/../EApiAPI.cpp ****   EApiStatus_t StatusCode=EAPI_STATUS_SUCCESS;
 2779              		.loc 1 593 16
 2780 1b08 0030A0E3 		mov	r3, #0
 2781 1b0c 08300BE5 		str	r3, [fp, #-8]
 594:/home/hkh/git/eapidk-code-r76-trunk/lib/linux/../EApiAPI.cpp ****   EAPI_CHECK_INITIALIZED(EApiGPIOSetDirection);
 2782              		.loc 1 594 3
 2783 1b10 CC309FE5 		ldr	r3, .L136
 2784              	.LPIC204:
 2785 1b14 03308FE0 		add	r3, pc, r3
 2786 1b18 003093E5 		ldr	r3, [r3]
 2787 1b1c 000053E3 		cmp	r3, #0
 2788 1b20 1100001A 		bne	.L132
 2789              		.loc 1 594 3 is_stmt 0 discriminator 1
 2790 1b24 BC309FE5 		ldr	r3, .L136+4
 2791              	.LPIC205:
 2792 1b28 03308FE0 		add	r3, pc, r3
 2793 1b2c 08308DE5 		str	r3, [sp, #8]
 2794 1b30 B4309FE5 		ldr	r3, .L136+8
 2795              	.LPIC206:
 2796 1b34 03308FE0 		add	r3, pc, r3
 2797 1b38 04308DE5 		str	r3, [sp, #4]
 2798 1b3c 0030E0E3 		mvn	r3, #0
 2799 1b40 00308DE5 		str	r3, [sp]
 2800 1b44 523200E3 		movw	r3, #594
 2801 1b48 A0209FE5 		ldr	r2, .L136+12
 2802              	.LPIC207:
 2803 1b4c 02208FE0 		add	r2, pc, r2
 2804 1b50 9C109FE5 		ldr	r1, .L136+16
 2805              	.LPIC208:
 2806 1b54 01108FE0 		add	r1, pc, r1
ARM GAS  /tmp/ccmTPeQn.s 			page 63


 2807 1b58 4500A0E3 		mov	r0, #69
 2808 1b5c FEFFFFEB 		bl	siFormattedMessage_SC(PLT)
 2809 1b60 0030E0E3 		mvn	r3, #0
 2810 1b64 08300BE5 		str	r3, [fp, #-8]
 2811 1b68 190000EA 		b	.L133
 2812              	.L132:
 595:/home/hkh/git/eapidk-code-r76-trunk/lib/linux/../EApiAPI.cpp ****   EAPI_LIB_ASSERT_PARAMATER_ZERO(EApiGPIOSetDirection, Bitmask);
 2813              		.loc 1 595 3 is_stmt 1
 2814 1b6c 14301BE5 		ldr	r3, [fp, #-20]
 2815 1b70 000053E3 		cmp	r3, #0
 2816 1b74 1100001A 		bne	.L134
 2817              		.loc 1 595 3 is_stmt 0 discriminator 1
 2818 1b78 78309FE5 		ldr	r3, .L136+20
 2819              	.LPIC209:
 2820 1b7c 03308FE0 		add	r3, pc, r3
 2821 1b80 08308DE5 		str	r3, [sp, #8]
 2822 1b84 70309FE5 		ldr	r3, .L136+24
 2823              	.LPIC210:
 2824 1b88 03308FE0 		add	r3, pc, r3
 2825 1b8c 04308DE5 		str	r3, [sp, #4]
 2826 1b90 013CE0E3 		mvn	r3, #256
 2827 1b94 00308DE5 		str	r3, [sp]
 2828 1b98 533200E3 		movw	r3, #595
 2829 1b9c 5C209FE5 		ldr	r2, .L136+28
 2830              	.LPIC211:
 2831 1ba0 02208FE0 		add	r2, pc, r2
 2832 1ba4 58109FE5 		ldr	r1, .L136+32
 2833              	.LPIC212:
 2834 1ba8 01108FE0 		add	r1, pc, r1
 2835 1bac 4500A0E3 		mov	r0, #69
 2836 1bb0 FEFFFFEB 		bl	siFormattedMessage_SC(PLT)
 2837 1bb4 013CE0E3 		mvn	r3, #256
 2838 1bb8 08300BE5 		str	r3, [fp, #-8]
 2839 1bbc 040000EA 		b	.L133
 2840              	.L134:
 596:/home/hkh/git/eapidk-code-r76-trunk/lib/linux/../EApiAPI.cpp **** 
 597:/home/hkh/git/eapidk-code-r76-trunk/lib/linux/../EApiAPI.cpp ****   StatusCode=EApiGPIOSetDirectionEmul(Id, Bitmask, Direction);
 2841              		.loc 1 597 14 is_stmt 1
 2842 1bc0 18201BE5 		ldr	r2, [fp, #-24]
 2843 1bc4 14101BE5 		ldr	r1, [fp, #-20]
 2844 1bc8 10001BE5 		ldr	r0, [fp, #-16]
 2845 1bcc FEFFFFEB 		bl	EApiGPIOSetDirectionEmul(PLT)
 2846 1bd0 08000BE5 		str	r0, [fp, #-8]
 2847              	.L133:
 598:/home/hkh/git/eapidk-code-r76-trunk/lib/linux/../EApiAPI.cpp **** EAPI_LIB_ASSERT_EXIT
 599:/home/hkh/git/eapidk-code-r76-trunk/lib/linux/../EApiAPI.cpp ****   return StatusCode;
 2848              		.loc 1 599 10
 2849 1bd4 08301BE5 		ldr	r3, [fp, #-8]
 600:/home/hkh/git/eapidk-code-r76-trunk/lib/linux/../EApiAPI.cpp **** }
 2850              		.loc 1 600 1
 2851 1bd8 0300A0E1 		mov	r0, r3
 2852 1bdc 04D04BE2 		sub	sp, fp, #4
 2853              		.cfi_def_cfa 13, 8
 2854              		@ sp needed
 2855 1be0 0088BDE8 		pop	{fp, pc}
 2856              	.L137:
 2857              		.align	2
ARM GAS  /tmp/ccmTPeQn.s 			page 64


 2858              	.L136:
 2859 1be4 C8000000 		.word	Initialized-(.LPIC204+8)
 2860 1be8 0C010000 		.word	.LC2-(.LPIC205+8)
 2861 1bec 1C010000 		.word	.LC3-(.LPIC206+8)
 2862 1bf0 B4040000 		.word	.LC43-(.LPIC207+8)
 2863 1bf4 AC000000 		.word	.LC1-(.LPIC208+8)
 2864 1bf8 2C040000 		.word	.LC38-(.LPIC209+8)
 2865 1bfc D8000000 		.word	.LC3-(.LPIC210+8)
 2866 1c00 70040000 		.word	.LC43-(.LPIC211+8)
 2867 1c04 68000000 		.word	.LC1-(.LPIC212+8)
 2868              		.cfi_endproc
 2869              	.LFE15:
 2871              		.section	.rodata
 2872 042d 000000   		.align	2
 2873              	.LC44:
 2874 0430 45417069 		.ascii	"EApiGPIOGetDirectionCaps\000"
 2874      4750494F 
 2874      47657444 
 2874      69726563 
 2874      74696F6E 
 2875 0449 000000   		.align	2
 2876              	.LC45:
 2877 044c 2828704F 		.ascii	"((pOutputs==NULL)&&(pInputs==NULL))\000"
 2877      75747075 
 2877      74733D3D 
 2877      4E554C4C 
 2877      29262628 
 2878              		.text
 2879              		.align	2
 2880              		.global	EApiGPIOGetDirectionCaps
 2881              		.syntax unified
 2882              		.arm
 2883              		.fpu vfpv3
 2885              	EApiGPIOGetDirectionCaps:
 2886              	.LFB16:
 601:/home/hkh/git/eapidk-code-r76-trunk/lib/linux/../EApiAPI.cpp **** 
 602:/home/hkh/git/eapidk-code-r76-trunk/lib/linux/../EApiAPI.cpp **** EApiStatus_t
 603:/home/hkh/git/eapidk-code-r76-trunk/lib/linux/../EApiAPI.cpp **** EAPI_CALLTYPE 
 604:/home/hkh/git/eapidk-code-r76-trunk/lib/linux/../EApiAPI.cpp **** EApiGPIOGetDirectionCaps(
 605:/home/hkh/git/eapidk-code-r76-trunk/lib/linux/../EApiAPI.cpp ****     __IN     EApiId_t Id        , /* GPIO Id */
 606:/home/hkh/git/eapidk-code-r76-trunk/lib/linux/../EApiAPI.cpp ****     __OUTOPT uint32_t *pInputs  , /* Supported GPIO Input
 607:/home/hkh/git/eapidk-code-r76-trunk/lib/linux/../EApiAPI.cpp ****                                    * Bit Mask 
 608:/home/hkh/git/eapidk-code-r76-trunk/lib/linux/../EApiAPI.cpp ****                                    */
 609:/home/hkh/git/eapidk-code-r76-trunk/lib/linux/../EApiAPI.cpp ****     __OUTOPT uint32_t *pOutputs   /* Supported GPIO Output
 610:/home/hkh/git/eapidk-code-r76-trunk/lib/linux/../EApiAPI.cpp ****                                    * Bit Mask 
 611:/home/hkh/git/eapidk-code-r76-trunk/lib/linux/../EApiAPI.cpp ****                                    */
 612:/home/hkh/git/eapidk-code-r76-trunk/lib/linux/../EApiAPI.cpp ****     )
 613:/home/hkh/git/eapidk-code-r76-trunk/lib/linux/../EApiAPI.cpp **** {
 2887              		.loc 1 613 1
 2888              		.cfi_startproc
 2889              		@ args = 0, pretend = 0, frame = 32
 2890              		@ frame_needed = 1, uses_anonymous_args = 0
 2891 1c08 00482DE9 		push	{fp, lr}
 2892              		.cfi_def_cfa_offset 8
 2893              		.cfi_offset 11, -8
 2894              		.cfi_offset 14, -4
 2895 1c0c 04B08DE2 		add	fp, sp, #4
ARM GAS  /tmp/ccmTPeQn.s 			page 65


 2896              		.cfi_def_cfa 11, 4
 2897 1c10 30D04DE2 		sub	sp, sp, #48
 2898 1c14 18000BE5 		str	r0, [fp, #-24]
 2899 1c18 1C100BE5 		str	r1, [fp, #-28]
 2900 1c1c 20200BE5 		str	r2, [fp, #-32]
 2901              		.loc 1 613 1
 2902 1c20 4C219FE5 		ldr	r2, .L146
 2903              	.LPIC222:
 2904 1c24 02208FE0 		add	r2, pc, r2
 2905 1c28 48319FE5 		ldr	r3, .L146+4
 2906 1c2c 033092E7 		ldr	r3, [r2, r3]
 2907 1c30 003093E5 		ldr	r3, [r3]
 2908 1c34 08300BE5 		str	r3, [fp, #-8]
 2909 1c38 0030A0E3 		mov	r3, #0
 614:/home/hkh/git/eapidk-code-r76-trunk/lib/linux/../EApiAPI.cpp ****   EApiStatus_t StatusCode=EAPI_STATUS_SUCCESS;
 2910              		.loc 1 614 16
 2911 1c3c 0030A0E3 		mov	r3, #0
 2912 1c40 0C300BE5 		str	r3, [fp, #-12]
 615:/home/hkh/git/eapidk-code-r76-trunk/lib/linux/../EApiAPI.cpp ****   uint32_t DpBuffer;
 616:/home/hkh/git/eapidk-code-r76-trunk/lib/linux/../EApiAPI.cpp **** 
 617:/home/hkh/git/eapidk-code-r76-trunk/lib/linux/../EApiAPI.cpp ****   EAPI_CHECK_INITIALIZED(EApiGPIOGetDirectionCaps);
 2913              		.loc 1 617 3
 2914 1c44 30319FE5 		ldr	r3, .L146+8
 2915              	.LPIC213:
 2916 1c48 03308FE0 		add	r3, pc, r3
 2917 1c4c 003093E5 		ldr	r3, [r3]
 2918 1c50 000053E3 		cmp	r3, #0
 2919 1c54 1100001A 		bne	.L139
 2920              		.loc 1 617 3 is_stmt 0 discriminator 1
 2921 1c58 20319FE5 		ldr	r3, .L146+12
 2922              	.LPIC214:
 2923 1c5c 03308FE0 		add	r3, pc, r3
 2924 1c60 08308DE5 		str	r3, [sp, #8]
 2925 1c64 18319FE5 		ldr	r3, .L146+16
 2926              	.LPIC215:
 2927 1c68 03308FE0 		add	r3, pc, r3
 2928 1c6c 04308DE5 		str	r3, [sp, #4]
 2929 1c70 0030E0E3 		mvn	r3, #0
 2930 1c74 00308DE5 		str	r3, [sp]
 2931 1c78 693200E3 		movw	r3, #617
 2932 1c7c 04219FE5 		ldr	r2, .L146+20
 2933              	.LPIC216:
 2934 1c80 02208FE0 		add	r2, pc, r2
 2935 1c84 00119FE5 		ldr	r1, .L146+24
 2936              	.LPIC217:
 2937 1c88 01108FE0 		add	r1, pc, r1
 2938 1c8c 4500A0E3 		mov	r0, #69
 2939 1c90 FEFFFFEB 		bl	siFormattedMessage_SC(PLT)
 2940 1c94 0030E0E3 		mvn	r3, #0
 2941 1c98 0C300BE5 		str	r3, [fp, #-12]
 2942 1c9c 260000EA 		b	.L140
 2943              	.L139:
 618:/home/hkh/git/eapidk-code-r76-trunk/lib/linux/../EApiAPI.cpp ****   EAPI_LIB_ASSERT_PARAMATER_CHECK(
 2944              		.loc 1 618 3 is_stmt 1
 2945 1ca0 20301BE5 		ldr	r3, [fp, #-32]
 2946 1ca4 000053E3 		cmp	r3, #0
 2947 1ca8 1400001A 		bne	.L141
ARM GAS  /tmp/ccmTPeQn.s 			page 66


 2948              		.loc 1 618 3 is_stmt 0 discriminator 1
 2949 1cac 1C301BE5 		ldr	r3, [fp, #-28]
 2950 1cb0 000053E3 		cmp	r3, #0
 2951 1cb4 1100001A 		bne	.L141
 2952              		.loc 1 618 3 discriminator 2
 2953 1cb8 D0309FE5 		ldr	r3, .L146+28
 2954              	.LPIC218:
 2955 1cbc 03308FE0 		add	r3, pc, r3
 2956 1cc0 08308DE5 		str	r3, [sp, #8]
 2957 1cc4 C8309FE5 		ldr	r3, .L146+32
 2958              	.LPIC219:
 2959 1cc8 03308FE0 		add	r3, pc, r3
 2960 1ccc 04308DE5 		str	r3, [sp, #4]
 2961 1cd0 013CE0E3 		mvn	r3, #256
 2962 1cd4 00308DE5 		str	r3, [sp]
 2963 1cd8 6A3200E3 		movw	r3, #618
 2964 1cdc B4209FE5 		ldr	r2, .L146+36
 2965              	.LPIC220:
 2966 1ce0 02208FE0 		add	r2, pc, r2
 2967 1ce4 B0109FE5 		ldr	r1, .L146+40
 2968              	.LPIC221:
 2969 1ce8 01108FE0 		add	r1, pc, r1
 2970 1cec 4500A0E3 		mov	r0, #69
 2971 1cf0 FEFFFFEB 		bl	siFormattedMessage_SC(PLT)
 2972 1cf4 013CE0E3 		mvn	r3, #256
 2973 1cf8 0C300BE5 		str	r3, [fp, #-12]
 2974 1cfc 0E0000EA 		b	.L140
 2975              	.L141:
 619:/home/hkh/git/eapidk-code-r76-trunk/lib/linux/../EApiAPI.cpp ****       EApiGPIOGetDirectionCaps, 
 620:/home/hkh/git/eapidk-code-r76-trunk/lib/linux/../EApiAPI.cpp ****       ((pOutputs==NULL)&&(pInputs==NULL)), 
 621:/home/hkh/git/eapidk-code-r76-trunk/lib/linux/../EApiAPI.cpp ****       "((pOutputs==NULL)&&(pInputs==NULL))"
 622:/home/hkh/git/eapidk-code-r76-trunk/lib/linux/../EApiAPI.cpp ****       );
 623:/home/hkh/git/eapidk-code-r76-trunk/lib/linux/../EApiAPI.cpp **** 
 624:/home/hkh/git/eapidk-code-r76-trunk/lib/linux/../EApiAPI.cpp ****   if(pInputs==NULL)
 2976              		.loc 1 624 5 is_stmt 1
 2977 1d00 1C301BE5 		ldr	r3, [fp, #-28]
 2978 1d04 000053E3 		cmp	r3, #0
 2979 1d08 0100001A 		bne	.L142
 625:/home/hkh/git/eapidk-code-r76-trunk/lib/linux/../EApiAPI.cpp ****     pInputs=&DpBuffer;
 2980              		.loc 1 625 12
 2981 1d0c 10304BE2 		sub	r3, fp, #16
 2982 1d10 1C300BE5 		str	r3, [fp, #-28]
 2983              	.L142:
 626:/home/hkh/git/eapidk-code-r76-trunk/lib/linux/../EApiAPI.cpp ****   if(pOutputs==NULL)
 2984              		.loc 1 626 5
 2985 1d14 20301BE5 		ldr	r3, [fp, #-32]
 2986 1d18 000053E3 		cmp	r3, #0
 2987 1d1c 0100001A 		bne	.L143
 627:/home/hkh/git/eapidk-code-r76-trunk/lib/linux/../EApiAPI.cpp ****     pOutputs=&DpBuffer;
 2988              		.loc 1 627 13
 2989 1d20 10304BE2 		sub	r3, fp, #16
 2990 1d24 20300BE5 		str	r3, [fp, #-32]
 2991              	.L143:
 628:/home/hkh/git/eapidk-code-r76-trunk/lib/linux/../EApiAPI.cpp **** 
 629:/home/hkh/git/eapidk-code-r76-trunk/lib/linux/../EApiAPI.cpp ****   StatusCode=EApiGPIOGetDirectionCapsEmul(Id, pInputs, pOutputs);
 2992              		.loc 1 629 14
 2993 1d28 20201BE5 		ldr	r2, [fp, #-32]
ARM GAS  /tmp/ccmTPeQn.s 			page 67


 2994 1d2c 1C101BE5 		ldr	r1, [fp, #-28]
 2995 1d30 18001BE5 		ldr	r0, [fp, #-24]
 2996 1d34 FEFFFFEB 		bl	EApiGPIOGetDirectionCapsEmul(PLT)
 2997 1d38 0C000BE5 		str	r0, [fp, #-12]
 2998              	.L140:
 630:/home/hkh/git/eapidk-code-r76-trunk/lib/linux/../EApiAPI.cpp **** EAPI_LIB_ASSERT_EXIT
 631:/home/hkh/git/eapidk-code-r76-trunk/lib/linux/../EApiAPI.cpp ****   return StatusCode;
 2999              		.loc 1 631 10
 3000 1d3c 0C301BE5 		ldr	r3, [fp, #-12]
 613:/home/hkh/git/eapidk-code-r76-trunk/lib/linux/../EApiAPI.cpp ****   EApiStatus_t StatusCode=EAPI_STATUS_SUCCESS;
 3001              		.loc 1 613 1
 3002 1d40 58109FE5 		ldr	r1, .L146+44
 3003              	.LPIC223:
 3004 1d44 01108FE0 		add	r1, pc, r1
 632:/home/hkh/git/eapidk-code-r76-trunk/lib/linux/../EApiAPI.cpp **** }
 3005              		.loc 1 632 1
 3006 1d48 28209FE5 		ldr	r2, .L146+4
 3007 1d4c 022091E7 		ldr	r2, [r1, r2]
 3008 1d50 001092E5 		ldr	r1, [r2]
 3009 1d54 08201BE5 		ldr	r2, [fp, #-8]
 3010 1d58 011032E0 		eors	r1, r2, r1
 3011 1d5c 0020A0E3 		mov	r2, #0
 3012 1d60 0000000A 		beq	.L145
 3013 1d64 FEFFFFEB 		bl	__stack_chk_fail(PLT)
 3014              	.L145:
 3015 1d68 0300A0E1 		mov	r0, r3
 3016 1d6c 04D04BE2 		sub	sp, fp, #4
 3017              		.cfi_def_cfa 13, 8
 3018              		@ sp needed
 3019 1d70 0088BDE8 		pop	{fp, pc}
 3020              	.L147:
 3021              		.align	2
 3022              	.L146:
 3023 1d74 48010000 		.word	_GLOBAL_OFFSET_TABLE_-(.LPIC222+8)
 3024 1d78 00000000 		.word	__stack_chk_guard(GOT)
 3025 1d7c 2C010000 		.word	Initialized-(.LPIC213+8)
 3026 1d80 70010000 		.word	.LC2-(.LPIC214+8)
 3027 1d84 80010000 		.word	.LC3-(.LPIC215+8)
 3028 1d88 30050000 		.word	.LC44-(.LPIC216+8)
 3029 1d8c 10010000 		.word	.LC1-(.LPIC217+8)
 3030 1d90 18050000 		.word	.LC45-(.LPIC218+8)
 3031 1d94 30010000 		.word	.LC3-(.LPIC219+8)
 3032 1d98 E0040000 		.word	.LC44-(.LPIC220+8)
 3033 1d9c C0000000 		.word	.LC1-(.LPIC221+8)
 3034 1da0 54000000 		.word	_GLOBAL_OFFSET_TABLE_-(.LPIC223+8)
 3035              		.cfi_endproc
 3036              	.LFE16:
 3038              		.section	.rodata
 3039              		.align	2
 3040              	.LC46:
 3041 0470 45417069 		.ascii	"EApiLibInitialize\000"
 3041      4C696249 
 3041      6E697469 
 3041      616C697A 
 3041      6500
 3042 0482 0000     		.align	2
 3043              	.LC47:
ARM GAS  /tmp/ccmTPeQn.s 			page 68


 3044 0484 4C696272 		.ascii	"Library Already Initialized\000"
 3044      61727920 
 3044      416C7265 
 3044      61647920 
 3044      496E6974 
 3045              		.text
 3046              		.align	2
 3047              		.global	EApiLibInitialize
 3048              		.syntax unified
 3049              		.arm
 3050              		.fpu vfpv3
 3052              	EApiLibInitialize:
 3053              	.LFB17:
 633:/home/hkh/git/eapidk-code-r76-trunk/lib/linux/../EApiAPI.cpp **** 
 634:/home/hkh/git/eapidk-code-r76-trunk/lib/linux/../EApiAPI.cpp **** 
 635:/home/hkh/git/eapidk-code-r76-trunk/lib/linux/../EApiAPI.cpp **** /*
 636:/home/hkh/git/eapidk-code-r76-trunk/lib/linux/../EApiAPI.cpp ****  *
 637:/home/hkh/git/eapidk-code-r76-trunk/lib/linux/../EApiAPI.cpp ****  *  
 638:/home/hkh/git/eapidk-code-r76-trunk/lib/linux/../EApiAPI.cpp ****  *
 639:/home/hkh/git/eapidk-code-r76-trunk/lib/linux/../EApiAPI.cpp ****  *  S T D 
 640:/home/hkh/git/eapidk-code-r76-trunk/lib/linux/../EApiAPI.cpp ****  *
 641:/home/hkh/git/eapidk-code-r76-trunk/lib/linux/../EApiAPI.cpp ****  *
 642:/home/hkh/git/eapidk-code-r76-trunk/lib/linux/../EApiAPI.cpp ****  *
 643:/home/hkh/git/eapidk-code-r76-trunk/lib/linux/../EApiAPI.cpp ****  */
 644:/home/hkh/git/eapidk-code-r76-trunk/lib/linux/../EApiAPI.cpp **** EApiStatus_t 
 645:/home/hkh/git/eapidk-code-r76-trunk/lib/linux/../EApiAPI.cpp **** EAPI_CALLTYPE 
 646:/home/hkh/git/eapidk-code-r76-trunk/lib/linux/../EApiAPI.cpp **** EApiLibInitialize(void)
 647:/home/hkh/git/eapidk-code-r76-trunk/lib/linux/../EApiAPI.cpp **** {
 3054              		.loc 1 647 1
 3055              		.cfi_startproc
 3056              		@ args = 0, pretend = 0, frame = 8
 3057              		@ frame_needed = 1, uses_anonymous_args = 0
 3058 1da4 00482DE9 		push	{fp, lr}
 3059              		.cfi_def_cfa_offset 8
 3060              		.cfi_offset 11, -8
 3061              		.cfi_offset 14, -4
 3062 1da8 04B08DE2 		add	fp, sp, #4
 3063              		.cfi_def_cfa 11, 4
 3064 1dac 18D04DE2 		sub	sp, sp, #24
 648:/home/hkh/git/eapidk-code-r76-trunk/lib/linux/../EApiAPI.cpp ****   EApiStatus_t StatusCode=EAPI_STATUS_SUCCESS;
 3065              		.loc 1 648 16
 3066 1db0 0030A0E3 		mov	r3, #0
 3067 1db4 08300BE5 		str	r3, [fp, #-8]
 649:/home/hkh/git/eapidk-code-r76-trunk/lib/linux/../EApiAPI.cpp ****   EAPI_CHECK_NOT_INITIALIZED(EApiLibInitialize);
 3068              		.loc 1 649 3
 3069 1db8 C0309FE5 		ldr	r3, .L152
 3070              	.LPIC224:
 3071 1dbc 03308FE0 		add	r3, pc, r3
 3072 1dc0 003093E5 		ldr	r3, [r3]
 3073 1dc4 010053E3 		cmp	r3, #1
 3074 1dc8 1100001A 		bne	.L149
 3075              		.loc 1 649 3 is_stmt 0 discriminator 1
 3076 1dcc B0309FE5 		ldr	r3, .L152+4
 3077              	.LPIC225:
 3078 1dd0 03308FE0 		add	r3, pc, r3
 3079 1dd4 08308DE5 		str	r3, [sp, #8]
 3080 1dd8 A8309FE5 		ldr	r3, .L152+8
ARM GAS  /tmp/ccmTPeQn.s 			page 69


 3081              	.LPIC226:
 3082 1ddc 03308FE0 		add	r3, pc, r3
 3083 1de0 04308DE5 		str	r3, [sp, #4]
 3084 1de4 0030E0E3 		mvn	r3, #0
 3085 1de8 00308DE5 		str	r3, [sp]
 3086 1dec 893200E3 		movw	r3, #649
 3087 1df0 94209FE5 		ldr	r2, .L152+12
 3088              	.LPIC227:
 3089 1df4 02208FE0 		add	r2, pc, r2
 3090 1df8 90109FE5 		ldr	r1, .L152+16
 3091              	.LPIC228:
 3092 1dfc 01108FE0 		add	r1, pc, r1
 3093 1e00 4500A0E3 		mov	r0, #69
 3094 1e04 FEFFFFEB 		bl	siFormattedMessage_SC(PLT)
 3095 1e08 0030E0E3 		mvn	r3, #0
 3096 1e0c 08300BE5 		str	r3, [fp, #-8]
 3097 1e10 160000EA 		b	.L150
 3098              	.L149:
 650:/home/hkh/git/eapidk-code-r76-trunk/lib/linux/../EApiAPI.cpp ****   Initialized=1;
 3099              		.loc 1 650 14 is_stmt 1
 3100 1e14 78309FE5 		ldr	r3, .L152+20
 3101              	.LPIC229:
 3102 1e18 03308FE0 		add	r3, pc, r3
 3103 1e1c 0120A0E3 		mov	r2, #1
 3104 1e20 002083E5 		str	r2, [r3]
 651:/home/hkh/git/eapidk-code-r76-trunk/lib/linux/../EApiAPI.cpp ****   EApiInitLib();
 3105              		.loc 1 651 3
 3106 1e24 FEFFFFEB 		bl	EApiInitLib(PLT)
 652:/home/hkh/git/eapidk-code-r76-trunk/lib/linux/../EApiAPI.cpp ****   EAPI_LIB_RETURN_SUCCESS(EApiLibInitialize, "");
 3107              		.loc 1 652 3
 3108 1e28 68309FE5 		ldr	r3, .L152+24
 3109              	.LPIC230:
 3110 1e2c 03308FE0 		add	r3, pc, r3
 3111 1e30 08308DE5 		str	r3, [sp, #8]
 3112 1e34 60309FE5 		ldr	r3, .L152+28
 3113              	.LPIC231:
 3114 1e38 03308FE0 		add	r3, pc, r3
 3115 1e3c 04308DE5 		str	r3, [sp, #4]
 3116 1e40 0030A0E3 		mov	r3, #0
 3117 1e44 00308DE5 		str	r3, [sp]
 3118 1e48 A33FA0E3 		mov	r3, #652
 3119 1e4c 4C209FE5 		ldr	r2, .L152+32
 3120              	.LPIC232:
 3121 1e50 02208FE0 		add	r2, pc, r2
 3122 1e54 48109FE5 		ldr	r1, .L152+36
 3123              	.LPIC233:
 3124 1e58 01108FE0 		add	r1, pc, r1
 3125 1e5c 4C00A0E3 		mov	r0, #76
 3126 1e60 FEFFFFEB 		bl	siFormattedMessage_SC(PLT)
 3127 1e64 0030A0E3 		mov	r3, #0
 3128 1e68 08300BE5 		str	r3, [fp, #-8]
 3129 1e6c 00F020E3 		nop
 3130              	.L150:
 653:/home/hkh/git/eapidk-code-r76-trunk/lib/linux/../EApiAPI.cpp **** EAPI_LIB_ASSERT_EXIT
 654:/home/hkh/git/eapidk-code-r76-trunk/lib/linux/../EApiAPI.cpp **** 
 655:/home/hkh/git/eapidk-code-r76-trunk/lib/linux/../EApiAPI.cpp ****   return StatusCode;
 3131              		.loc 1 655 10
ARM GAS  /tmp/ccmTPeQn.s 			page 70


 3132 1e70 08301BE5 		ldr	r3, [fp, #-8]
 656:/home/hkh/git/eapidk-code-r76-trunk/lib/linux/../EApiAPI.cpp **** }
 3133              		.loc 1 656 1
 3134 1e74 0300A0E1 		mov	r0, r3
 3135 1e78 04D04BE2 		sub	sp, fp, #4
 3136              		.cfi_def_cfa 13, 8
 3137              		@ sp needed
 3138 1e7c 0088BDE8 		pop	{fp, pc}
 3139              	.L153:
 3140              		.align	2
 3141              	.L152:
 3142 1e80 BC000000 		.word	Initialized-(.LPIC224+8)
 3143 1e84 30050000 		.word	.LC47-(.LPIC225+8)
 3144 1e88 10010000 		.word	.LC3-(.LPIC226+8)
 3145 1e8c 00050000 		.word	.LC46-(.LPIC227+8)
 3146 1e90 A0000000 		.word	.LC1-(.LPIC228+8)
 3147 1e94 74000000 		.word	Initialized-(.LPIC229+8)
 3148 1e98 38030000 		.word	.LC28-(.LPIC230+8)
 3149 1e9c C8000000 		.word	.LC3-(.LPIC231+8)
 3150 1ea0 B8040000 		.word	.LC46-(.LPIC232+8)
 3151 1ea4 58000000 		.word	.LC1-(.LPIC233+8)
 3152              		.cfi_endproc
 3153              	.LFE17:
 3155              		.section	.rodata
 3156              		.align	2
 3157              	.LC48:
 3158 04a0 45417069 		.ascii	"EApiLibUnInitialize\000"
 3158      4C696255 
 3158      6E496E69 
 3158      7469616C 
 3158      697A6500 
 3159              		.text
 3160              		.align	2
 3161              		.global	EApiLibUnInitialize
 3162              		.syntax unified
 3163              		.arm
 3164              		.fpu vfpv3
 3166              	EApiLibUnInitialize:
 3167              	.LFB18:
 657:/home/hkh/git/eapidk-code-r76-trunk/lib/linux/../EApiAPI.cpp **** EApiStatus_t 
 658:/home/hkh/git/eapidk-code-r76-trunk/lib/linux/../EApiAPI.cpp **** EAPI_CALLTYPE 
 659:/home/hkh/git/eapidk-code-r76-trunk/lib/linux/../EApiAPI.cpp **** EApiLibUnInitialize(void)
 660:/home/hkh/git/eapidk-code-r76-trunk/lib/linux/../EApiAPI.cpp **** {
 3168              		.loc 1 660 1
 3169              		.cfi_startproc
 3170              		@ args = 0, pretend = 0, frame = 8
 3171              		@ frame_needed = 1, uses_anonymous_args = 0
 3172 1ea8 00482DE9 		push	{fp, lr}
 3173              		.cfi_def_cfa_offset 8
 3174              		.cfi_offset 11, -8
 3175              		.cfi_offset 14, -4
 3176 1eac 04B08DE2 		add	fp, sp, #4
 3177              		.cfi_def_cfa 11, 4
 3178 1eb0 18D04DE2 		sub	sp, sp, #24
 661:/home/hkh/git/eapidk-code-r76-trunk/lib/linux/../EApiAPI.cpp ****   EApiStatus_t StatusCode=EAPI_STATUS_SUCCESS;
 3179              		.loc 1 661 16
 3180 1eb4 0030A0E3 		mov	r3, #0
ARM GAS  /tmp/ccmTPeQn.s 			page 71


 3181 1eb8 08300BE5 		str	r3, [fp, #-8]
 662:/home/hkh/git/eapidk-code-r76-trunk/lib/linux/../EApiAPI.cpp ****   EAPI_CHECK_INITIALIZED(EApiLibUnInitialize);
 3182              		.loc 1 662 3
 3183 1ebc C0309FE5 		ldr	r3, .L158
 3184              	.LPIC234:
 3185 1ec0 03308FE0 		add	r3, pc, r3
 3186 1ec4 003093E5 		ldr	r3, [r3]
 3187 1ec8 000053E3 		cmp	r3, #0
 3188 1ecc 1100001A 		bne	.L155
 3189              		.loc 1 662 3 is_stmt 0 discriminator 1
 3190 1ed0 B0309FE5 		ldr	r3, .L158+4
 3191              	.LPIC235:
 3192 1ed4 03308FE0 		add	r3, pc, r3
 3193 1ed8 08308DE5 		str	r3, [sp, #8]
 3194 1edc A8309FE5 		ldr	r3, .L158+8
 3195              	.LPIC236:
 3196 1ee0 03308FE0 		add	r3, pc, r3
 3197 1ee4 04308DE5 		str	r3, [sp, #4]
 3198 1ee8 0030E0E3 		mvn	r3, #0
 3199 1eec 00308DE5 		str	r3, [sp]
 3200 1ef0 963200E3 		movw	r3, #662
 3201 1ef4 94209FE5 		ldr	r2, .L158+12
 3202              	.LPIC237:
 3203 1ef8 02208FE0 		add	r2, pc, r2
 3204 1efc 90109FE5 		ldr	r1, .L158+16
 3205              	.LPIC238:
 3206 1f00 01108FE0 		add	r1, pc, r1
 3207 1f04 4500A0E3 		mov	r0, #69
 3208 1f08 FEFFFFEB 		bl	siFormattedMessage_SC(PLT)
 3209 1f0c 0030E0E3 		mvn	r3, #0
 3210 1f10 08300BE5 		str	r3, [fp, #-8]
 3211 1f14 160000EA 		b	.L156
 3212              	.L155:
 663:/home/hkh/git/eapidk-code-r76-trunk/lib/linux/../EApiAPI.cpp ****   EApiUninitLib();
 3213              		.loc 1 663 3 is_stmt 1
 3214 1f18 FEFFFFEB 		bl	EApiUninitLib(PLT)
 664:/home/hkh/git/eapidk-code-r76-trunk/lib/linux/../EApiAPI.cpp ****   Initialized=0;
 3215              		.loc 1 664 14
 3216 1f1c 74309FE5 		ldr	r3, .L158+20
 3217              	.LPIC239:
 3218 1f20 03308FE0 		add	r3, pc, r3
 3219 1f24 0020A0E3 		mov	r2, #0
 3220 1f28 002083E5 		str	r2, [r3]
 665:/home/hkh/git/eapidk-code-r76-trunk/lib/linux/../EApiAPI.cpp ****   EAPI_LIB_RETURN_SUCCESS(EApiLibUnInitialize, "");
 3221              		.loc 1 665 3
 3222 1f2c 68309FE5 		ldr	r3, .L158+24
 3223              	.LPIC240:
 3224 1f30 03308FE0 		add	r3, pc, r3
 3225 1f34 08308DE5 		str	r3, [sp, #8]
 3226 1f38 60309FE5 		ldr	r3, .L158+28
 3227              	.LPIC241:
 3228 1f3c 03308FE0 		add	r3, pc, r3
 3229 1f40 04308DE5 		str	r3, [sp, #4]
 3230 1f44 0030A0E3 		mov	r3, #0
 3231 1f48 00308DE5 		str	r3, [sp]
 3232 1f4c 993200E3 		movw	r3, #665
 3233 1f50 4C209FE5 		ldr	r2, .L158+32
ARM GAS  /tmp/ccmTPeQn.s 			page 72


 3234              	.LPIC242:
 3235 1f54 02208FE0 		add	r2, pc, r2
 3236 1f58 48109FE5 		ldr	r1, .L158+36
 3237              	.LPIC243:
 3238 1f5c 01108FE0 		add	r1, pc, r1
 3239 1f60 4C00A0E3 		mov	r0, #76
 3240 1f64 FEFFFFEB 		bl	siFormattedMessage_SC(PLT)
 3241 1f68 0030A0E3 		mov	r3, #0
 3242 1f6c 08300BE5 		str	r3, [fp, #-8]
 3243 1f70 00F020E3 		nop
 3244              	.L156:
 666:/home/hkh/git/eapidk-code-r76-trunk/lib/linux/../EApiAPI.cpp **** EAPI_LIB_ASSERT_EXIT
 667:/home/hkh/git/eapidk-code-r76-trunk/lib/linux/../EApiAPI.cpp **** 
 668:/home/hkh/git/eapidk-code-r76-trunk/lib/linux/../EApiAPI.cpp ****   return StatusCode;
 3245              		.loc 1 668 10
 3246 1f74 08301BE5 		ldr	r3, [fp, #-8]
 669:/home/hkh/git/eapidk-code-r76-trunk/lib/linux/../EApiAPI.cpp **** }
 3247              		.loc 1 669 1
 3248 1f78 0300A0E1 		mov	r0, r3
 3249 1f7c 04D04BE2 		sub	sp, fp, #4
 3250              		.cfi_def_cfa 13, 8
 3251              		@ sp needed
 3252 1f80 0088BDE8 		pop	{fp, pc}
 3253              	.L159:
 3254              		.align	2
 3255              	.L158:
 3256 1f84 BC000000 		.word	Initialized-(.LPIC234+8)
 3257 1f88 00010000 		.word	.LC2-(.LPIC235+8)
 3258 1f8c 10010000 		.word	.LC3-(.LPIC236+8)
 3259 1f90 30050000 		.word	.LC48-(.LPIC237+8)
 3260 1f94 A0000000 		.word	.LC1-(.LPIC238+8)
 3261 1f98 70000000 		.word	Initialized-(.LPIC239+8)
 3262 1f9c 38030000 		.word	.LC28-(.LPIC240+8)
 3263 1fa0 C8000000 		.word	.LC3-(.LPIC241+8)
 3264 1fa4 E8040000 		.word	.LC48-(.LPIC242+8)
 3265 1fa8 58000000 		.word	.LC1-(.LPIC243+8)
 3266              		.cfi_endproc
 3267              	.LFE18:
 3269              		.section	.rodata
 3270              		.align	2
 3271              	.LC49:
 3272 04b4 45417069 		.ascii	"EApiWDogGetCap\000"
 3272      57446F67 
 3272      47657443 
 3272      617000
 3273 04c3 00       		.align	2
 3274              	.LC50:
 3275 04c4 2828704D 		.ascii	"((pMaxDelay==NULL)&&(pMaxEventTimeout==NULL)&&(pMax"
 3275      61784465 
 3275      6C61793D 
 3275      3D4E554C 
 3275      4C292626 
 3276 04f7 52657365 		.ascii	"ResetTimeout==NULL))\000"
 3276      7454696D 
 3276      656F7574 
 3276      3D3D4E55 
 3276      4C4C2929 
ARM GAS  /tmp/ccmTPeQn.s 			page 73


 3277              		.text
 3278              		.align	2
 3279              		.global	EApiWDogGetCap
 3280              		.syntax unified
 3281              		.arm
 3282              		.fpu vfpv3
 3284              	EApiWDogGetCap:
 3285              	.LFB19:
 670:/home/hkh/git/eapidk-code-r76-trunk/lib/linux/../EApiAPI.cpp **** 
 671:/home/hkh/git/eapidk-code-r76-trunk/lib/linux/../EApiAPI.cpp **** 
 672:/home/hkh/git/eapidk-code-r76-trunk/lib/linux/../EApiAPI.cpp **** 
 673:/home/hkh/git/eapidk-code-r76-trunk/lib/linux/../EApiAPI.cpp **** /*
 674:/home/hkh/git/eapidk-code-r76-trunk/lib/linux/../EApiAPI.cpp ****  *
 675:/home/hkh/git/eapidk-code-r76-trunk/lib/linux/../EApiAPI.cpp ****  *  
 676:/home/hkh/git/eapidk-code-r76-trunk/lib/linux/../EApiAPI.cpp ****  *
 677:/home/hkh/git/eapidk-code-r76-trunk/lib/linux/../EApiAPI.cpp ****  *  W A T C H D O G
 678:/home/hkh/git/eapidk-code-r76-trunk/lib/linux/../EApiAPI.cpp ****  *
 679:/home/hkh/git/eapidk-code-r76-trunk/lib/linux/../EApiAPI.cpp ****  *
 680:/home/hkh/git/eapidk-code-r76-trunk/lib/linux/../EApiAPI.cpp ****  *
 681:/home/hkh/git/eapidk-code-r76-trunk/lib/linux/../EApiAPI.cpp ****  */
 682:/home/hkh/git/eapidk-code-r76-trunk/lib/linux/../EApiAPI.cpp **** EApiStatus_t 
 683:/home/hkh/git/eapidk-code-r76-trunk/lib/linux/../EApiAPI.cpp **** EAPI_CALLTYPE
 684:/home/hkh/git/eapidk-code-r76-trunk/lib/linux/../EApiAPI.cpp **** EApiWDogGetCap(
 685:/home/hkh/git/eapidk-code-r76-trunk/lib/linux/../EApiAPI.cpp ****     __OUTOPT uint32_t *pMaxDelay       ,/* Maximum Supported 
 686:/home/hkh/git/eapidk-code-r76-trunk/lib/linux/../EApiAPI.cpp ****                                          * Delay in milliseconds
 687:/home/hkh/git/eapidk-code-r76-trunk/lib/linux/../EApiAPI.cpp ****                                          */
 688:/home/hkh/git/eapidk-code-r76-trunk/lib/linux/../EApiAPI.cpp ****     __OUTOPT uint32_t *pMaxEventTimeout,/* Maximum Supported 
 689:/home/hkh/git/eapidk-code-r76-trunk/lib/linux/../EApiAPI.cpp ****                                          * Event Timeout in 
 690:/home/hkh/git/eapidk-code-r76-trunk/lib/linux/../EApiAPI.cpp ****                                          * milliseconds
 691:/home/hkh/git/eapidk-code-r76-trunk/lib/linux/../EApiAPI.cpp ****                                          * 0 == Unsupported
 692:/home/hkh/git/eapidk-code-r76-trunk/lib/linux/../EApiAPI.cpp ****                                          */
 693:/home/hkh/git/eapidk-code-r76-trunk/lib/linux/../EApiAPI.cpp ****     __OUTOPT uint32_t *pMaxResetTimeout /* Maximum Supported 
 694:/home/hkh/git/eapidk-code-r76-trunk/lib/linux/../EApiAPI.cpp ****                                          * Reset Timeout in 
 695:/home/hkh/git/eapidk-code-r76-trunk/lib/linux/../EApiAPI.cpp ****                                          * milliseconds
 696:/home/hkh/git/eapidk-code-r76-trunk/lib/linux/../EApiAPI.cpp ****                                          */
 697:/home/hkh/git/eapidk-code-r76-trunk/lib/linux/../EApiAPI.cpp ****     )
 698:/home/hkh/git/eapidk-code-r76-trunk/lib/linux/../EApiAPI.cpp **** {
 3286              		.loc 1 698 1
 3287              		.cfi_startproc
 3288              		@ args = 0, pretend = 0, frame = 32
 3289              		@ frame_needed = 1, uses_anonymous_args = 0
 3290 1fac 00482DE9 		push	{fp, lr}
 3291              		.cfi_def_cfa_offset 8
 3292              		.cfi_offset 11, -8
 3293              		.cfi_offset 14, -4
 3294 1fb0 04B08DE2 		add	fp, sp, #4
 3295              		.cfi_def_cfa 11, 4
 3296 1fb4 30D04DE2 		sub	sp, sp, #48
 3297 1fb8 18000BE5 		str	r0, [fp, #-24]
 3298 1fbc 1C100BE5 		str	r1, [fp, #-28]
 3299 1fc0 20200BE5 		str	r2, [fp, #-32]
 3300              		.loc 1 698 1
 3301 1fc4 6C219FE5 		ldr	r2, .L169
 3302              	.LPIC253:
 3303 1fc8 02208FE0 		add	r2, pc, r2
 3304 1fcc 68319FE5 		ldr	r3, .L169+4
 3305 1fd0 033092E7 		ldr	r3, [r2, r3]
ARM GAS  /tmp/ccmTPeQn.s 			page 74


 3306 1fd4 003093E5 		ldr	r3, [r3]
 3307 1fd8 08300BE5 		str	r3, [fp, #-8]
 3308 1fdc 0030A0E3 		mov	r3, #0
 699:/home/hkh/git/eapidk-code-r76-trunk/lib/linux/../EApiAPI.cpp ****   EApiStatus_t StatusCode=EAPI_STATUS_SUCCESS;
 3309              		.loc 1 699 16
 3310 1fe0 0030A0E3 		mov	r3, #0
 3311 1fe4 0C300BE5 		str	r3, [fp, #-12]
 700:/home/hkh/git/eapidk-code-r76-trunk/lib/linux/../EApiAPI.cpp ****   uint32_t DummyData;
 701:/home/hkh/git/eapidk-code-r76-trunk/lib/linux/../EApiAPI.cpp ****   EAPI_CHECK_INITIALIZED(EApiWDogGetCap);
 3312              		.loc 1 701 3
 3313 1fe8 50319FE5 		ldr	r3, .L169+8
 3314              	.LPIC244:
 3315 1fec 03308FE0 		add	r3, pc, r3
 3316 1ff0 003093E5 		ldr	r3, [r3]
 3317 1ff4 000053E3 		cmp	r3, #0
 3318 1ff8 1100001A 		bne	.L161
 3319              		.loc 1 701 3 is_stmt 0 discriminator 1
 3320 1ffc 40319FE5 		ldr	r3, .L169+12
 3321              	.LPIC245:
 3322 2000 03308FE0 		add	r3, pc, r3
 3323 2004 08308DE5 		str	r3, [sp, #8]
 3324 2008 38319FE5 		ldr	r3, .L169+16
 3325              	.LPIC246:
 3326 200c 03308FE0 		add	r3, pc, r3
 3327 2010 04308DE5 		str	r3, [sp, #4]
 3328 2014 0030E0E3 		mvn	r3, #0
 3329 2018 00308DE5 		str	r3, [sp]
 3330 201c BD3200E3 		movw	r3, #701
 3331 2020 24219FE5 		ldr	r2, .L169+20
 3332              	.LPIC247:
 3333 2024 02208FE0 		add	r2, pc, r2
 3334 2028 20119FE5 		ldr	r1, .L169+24
 3335              	.LPIC248:
 3336 202c 01108FE0 		add	r1, pc, r1
 3337 2030 4500A0E3 		mov	r0, #69
 3338 2034 FEFFFFEB 		bl	siFormattedMessage_SC(PLT)
 3339 2038 0030E0E3 		mvn	r3, #0
 3340 203c 0C300BE5 		str	r3, [fp, #-12]
 3341 2040 2E0000EA 		b	.L162
 3342              	.L161:
 702:/home/hkh/git/eapidk-code-r76-trunk/lib/linux/../EApiAPI.cpp ****   EAPI_LIB_ASSERT_PARAMATER_CHECK(
 3343              		.loc 1 702 3 is_stmt 1
 3344 2044 18301BE5 		ldr	r3, [fp, #-24]
 3345 2048 000053E3 		cmp	r3, #0
 3346 204c 1700001A 		bne	.L163
 3347              		.loc 1 702 3 is_stmt 0 discriminator 1
 3348 2050 1C301BE5 		ldr	r3, [fp, #-28]
 3349 2054 000053E3 		cmp	r3, #0
 3350 2058 1400001A 		bne	.L163
 3351              		.loc 1 702 3 discriminator 2
 3352 205c 20301BE5 		ldr	r3, [fp, #-32]
 3353 2060 000053E3 		cmp	r3, #0
 3354 2064 1100001A 		bne	.L163
 3355              		.loc 1 702 3 discriminator 3
 3356 2068 E4309FE5 		ldr	r3, .L169+28
 3357              	.LPIC249:
 3358 206c 03308FE0 		add	r3, pc, r3
ARM GAS  /tmp/ccmTPeQn.s 			page 75


 3359 2070 08308DE5 		str	r3, [sp, #8]
 3360 2074 DC309FE5 		ldr	r3, .L169+32
 3361              	.LPIC250:
 3362 2078 03308FE0 		add	r3, pc, r3
 3363 207c 04308DE5 		str	r3, [sp, #4]
 3364 2080 013CE0E3 		mvn	r3, #256
 3365 2084 00308DE5 		str	r3, [sp]
 3366 2088 BE3200E3 		movw	r3, #702
 3367 208c C8209FE5 		ldr	r2, .L169+36
 3368              	.LPIC251:
 3369 2090 02208FE0 		add	r2, pc, r2
 3370 2094 C4109FE5 		ldr	r1, .L169+40
 3371              	.LPIC252:
 3372 2098 01108FE0 		add	r1, pc, r1
 3373 209c 4500A0E3 		mov	r0, #69
 3374 20a0 FEFFFFEB 		bl	siFormattedMessage_SC(PLT)
 3375 20a4 013CE0E3 		mvn	r3, #256
 3376 20a8 0C300BE5 		str	r3, [fp, #-12]
 3377 20ac 130000EA 		b	.L162
 3378              	.L163:
 703:/home/hkh/git/eapidk-code-r76-trunk/lib/linux/../EApiAPI.cpp ****     EApiWDogGetCap, 
 704:/home/hkh/git/eapidk-code-r76-trunk/lib/linux/../EApiAPI.cpp ****     ((pMaxDelay==NULL)&&(pMaxEventTimeout==NULL)&&(pMaxResetTimeout==NULL)), 
 705:/home/hkh/git/eapidk-code-r76-trunk/lib/linux/../EApiAPI.cpp ****    "((pMaxDelay==NULL)&&(pMaxEventTimeout==NULL)&&(pMaxResetTimeout==NULL))"
 706:/home/hkh/git/eapidk-code-r76-trunk/lib/linux/../EApiAPI.cpp ****   );
 707:/home/hkh/git/eapidk-code-r76-trunk/lib/linux/../EApiAPI.cpp **** 
 708:/home/hkh/git/eapidk-code-r76-trunk/lib/linux/../EApiAPI.cpp ****    if(pMaxDelay       ==NULL) pMaxDelay       =&DummyData;
 3379              		.loc 1 708 6 is_stmt 1
 3380 20b0 18301BE5 		ldr	r3, [fp, #-24]
 3381 20b4 000053E3 		cmp	r3, #0
 3382 20b8 0100001A 		bne	.L164
 3383              		.loc 1 708 47 discriminator 1
 3384 20bc 10304BE2 		sub	r3, fp, #16
 3385 20c0 18300BE5 		str	r3, [fp, #-24]
 3386              	.L164:
 709:/home/hkh/git/eapidk-code-r76-trunk/lib/linux/../EApiAPI.cpp ****    if(pMaxEventTimeout==NULL) pMaxEventTimeout=&DummyData;
 3387              		.loc 1 709 6
 3388 20c4 1C301BE5 		ldr	r3, [fp, #-28]
 3389 20c8 000053E3 		cmp	r3, #0
 3390 20cc 0100001A 		bne	.L165
 3391              		.loc 1 709 47 discriminator 1
 3392 20d0 10304BE2 		sub	r3, fp, #16
 3393 20d4 1C300BE5 		str	r3, [fp, #-28]
 3394              	.L165:
 710:/home/hkh/git/eapidk-code-r76-trunk/lib/linux/../EApiAPI.cpp ****    if(pMaxResetTimeout==NULL) pMaxResetTimeout=&DummyData;
 3395              		.loc 1 710 6
 3396 20d8 20301BE5 		ldr	r3, [fp, #-32]
 3397 20dc 000053E3 		cmp	r3, #0
 3398 20e0 0100001A 		bne	.L166
 3399              		.loc 1 710 47 discriminator 1
 3400 20e4 10304BE2 		sub	r3, fp, #16
 3401 20e8 20300BE5 		str	r3, [fp, #-32]
 3402              	.L166:
 711:/home/hkh/git/eapidk-code-r76-trunk/lib/linux/../EApiAPI.cpp ****   StatusCode=EApiWDogGetCapEmul(pMaxDelay, pMaxEventTimeout, pMaxResetTimeout);
 3403              		.loc 1 711 14
 3404 20ec 20201BE5 		ldr	r2, [fp, #-32]
 3405 20f0 1C101BE5 		ldr	r1, [fp, #-28]
 3406 20f4 18001BE5 		ldr	r0, [fp, #-24]
ARM GAS  /tmp/ccmTPeQn.s 			page 76


 3407 20f8 FEFFFFEB 		bl	EApiWDogGetCapEmul(PLT)
 3408 20fc 0C000BE5 		str	r0, [fp, #-12]
 3409              	.L162:
 712:/home/hkh/git/eapidk-code-r76-trunk/lib/linux/../EApiAPI.cpp **** EAPI_LIB_ASSERT_EXIT
 713:/home/hkh/git/eapidk-code-r76-trunk/lib/linux/../EApiAPI.cpp ****   return StatusCode;
 3410              		.loc 1 713 10
 3411 2100 0C301BE5 		ldr	r3, [fp, #-12]
 698:/home/hkh/git/eapidk-code-r76-trunk/lib/linux/../EApiAPI.cpp ****   EApiStatus_t StatusCode=EAPI_STATUS_SUCCESS;
 3412              		.loc 1 698 1
 3413 2104 58109FE5 		ldr	r1, .L169+44
 3414              	.LPIC254:
 3415 2108 01108FE0 		add	r1, pc, r1
 714:/home/hkh/git/eapidk-code-r76-trunk/lib/linux/../EApiAPI.cpp **** }
 3416              		.loc 1 714 1
 3417 210c 28209FE5 		ldr	r2, .L169+4
 3418 2110 022091E7 		ldr	r2, [r1, r2]
 3419 2114 001092E5 		ldr	r1, [r2]
 3420 2118 08201BE5 		ldr	r2, [fp, #-8]
 3421 211c 011032E0 		eors	r1, r2, r1
 3422 2120 0020A0E3 		mov	r2, #0
 3423 2124 0000000A 		beq	.L168
 3424 2128 FEFFFFEB 		bl	__stack_chk_fail(PLT)
 3425              	.L168:
 3426 212c 0300A0E1 		mov	r0, r3
 3427 2130 04D04BE2 		sub	sp, fp, #4
 3428              		.cfi_def_cfa 13, 8
 3429              		@ sp needed
 3430 2134 0088BDE8 		pop	{fp, pc}
 3431              	.L170:
 3432              		.align	2
 3433              	.L169:
 3434 2138 68010000 		.word	_GLOBAL_OFFSET_TABLE_-(.LPIC253+8)
 3435 213c 00000000 		.word	__stack_chk_guard(GOT)
 3436 2140 4C010000 		.word	Initialized-(.LPIC244+8)
 3437 2144 90010000 		.word	.LC2-(.LPIC245+8)
 3438 2148 A0010000 		.word	.LC3-(.LPIC246+8)
 3439 214c D4050000 		.word	.LC49-(.LPIC247+8)
 3440 2150 30010000 		.word	.LC1-(.LPIC248+8)
 3441 2154 A4050000 		.word	.LC50-(.LPIC249+8)
 3442 2158 44010000 		.word	.LC3-(.LPIC250+8)
 3443 215c 78050000 		.word	.LC49-(.LPIC251+8)
 3444 2160 D4000000 		.word	.LC1-(.LPIC252+8)
 3445 2164 54000000 		.word	_GLOBAL_OFFSET_TABLE_-(.LPIC254+8)
 3446              		.cfi_endproc
 3447              	.LFE19:
 3449              		.section	.rodata
 3450              		.align	2
 3451              	.LC51:
 3452 050c 45417069 		.ascii	"EApiWDogStart\000"
 3452      57446F67 
 3452      53746172 
 3452      7400
 3453              		.text
 3454              		.align	2
 3455              		.global	EApiWDogStart
 3456              		.syntax unified
 3457              		.arm
ARM GAS  /tmp/ccmTPeQn.s 			page 77


 3458              		.fpu vfpv3
 3460              	EApiWDogStart:
 3461              	.LFB20:
 715:/home/hkh/git/eapidk-code-r76-trunk/lib/linux/../EApiAPI.cpp **** 
 716:/home/hkh/git/eapidk-code-r76-trunk/lib/linux/../EApiAPI.cpp **** EApiStatus_t 
 717:/home/hkh/git/eapidk-code-r76-trunk/lib/linux/../EApiAPI.cpp **** EAPI_CALLTYPE 
 718:/home/hkh/git/eapidk-code-r76-trunk/lib/linux/../EApiAPI.cpp **** EApiWDogStart(
 719:/home/hkh/git/eapidk-code-r76-trunk/lib/linux/../EApiAPI.cpp ****     __IN  uint32_t Delay       , /* Delay in milliseconds */
 720:/home/hkh/git/eapidk-code-r76-trunk/lib/linux/../EApiAPI.cpp ****     __IN  uint32_t EventTimeout, /* Event Timeout in 
 721:/home/hkh/git/eapidk-code-r76-trunk/lib/linux/../EApiAPI.cpp ****                                   * milliseconds 
 722:/home/hkh/git/eapidk-code-r76-trunk/lib/linux/../EApiAPI.cpp ****                                   */
 723:/home/hkh/git/eapidk-code-r76-trunk/lib/linux/../EApiAPI.cpp ****     __IN  uint32_t ResetTimeout  /* Reset Timeout in 
 724:/home/hkh/git/eapidk-code-r76-trunk/lib/linux/../EApiAPI.cpp ****                                   * milliseconds 
 725:/home/hkh/git/eapidk-code-r76-trunk/lib/linux/../EApiAPI.cpp ****                                   */
 726:/home/hkh/git/eapidk-code-r76-trunk/lib/linux/../EApiAPI.cpp ****     )
 727:/home/hkh/git/eapidk-code-r76-trunk/lib/linux/../EApiAPI.cpp **** {
 3462              		.loc 1 727 1
 3463              		.cfi_startproc
 3464              		@ args = 0, pretend = 0, frame = 24
 3465              		@ frame_needed = 1, uses_anonymous_args = 0
 3466 2168 00482DE9 		push	{fp, lr}
 3467              		.cfi_def_cfa_offset 8
 3468              		.cfi_offset 11, -8
 3469              		.cfi_offset 14, -4
 3470 216c 04B08DE2 		add	fp, sp, #4
 3471              		.cfi_def_cfa 11, 4
 3472 2170 28D04DE2 		sub	sp, sp, #40
 3473 2174 10000BE5 		str	r0, [fp, #-16]
 3474 2178 14100BE5 		str	r1, [fp, #-20]
 3475 217c 18200BE5 		str	r2, [fp, #-24]
 728:/home/hkh/git/eapidk-code-r76-trunk/lib/linux/../EApiAPI.cpp ****   EApiStatus_t StatusCode=EAPI_STATUS_SUCCESS;
 3476              		.loc 1 728 16
 3477 2180 0030A0E3 		mov	r3, #0
 3478 2184 08300BE5 		str	r3, [fp, #-8]
 729:/home/hkh/git/eapidk-code-r76-trunk/lib/linux/../EApiAPI.cpp ****   EAPI_CHECK_INITIALIZED(EApiWDogStart);
 3479              		.loc 1 729 3
 3480 2188 78309FE5 		ldr	r3, .L175
 3481              	.LPIC255:
 3482 218c 03308FE0 		add	r3, pc, r3
 3483 2190 003093E5 		ldr	r3, [r3]
 3484 2194 000053E3 		cmp	r3, #0
 3485 2198 1100001A 		bne	.L172
 3486              		.loc 1 729 3 is_stmt 0 discriminator 1
 3487 219c 68309FE5 		ldr	r3, .L175+4
 3488              	.LPIC256:
 3489 21a0 03308FE0 		add	r3, pc, r3
 3490 21a4 08308DE5 		str	r3, [sp, #8]
 3491 21a8 60309FE5 		ldr	r3, .L175+8
 3492              	.LPIC257:
 3493 21ac 03308FE0 		add	r3, pc, r3
 3494 21b0 04308DE5 		str	r3, [sp, #4]
 3495 21b4 0030E0E3 		mvn	r3, #0
 3496 21b8 00308DE5 		str	r3, [sp]
 3497 21bc D93200E3 		movw	r3, #729
 3498 21c0 4C209FE5 		ldr	r2, .L175+12
 3499              	.LPIC258:
 3500 21c4 02208FE0 		add	r2, pc, r2
ARM GAS  /tmp/ccmTPeQn.s 			page 78


 3501 21c8 48109FE5 		ldr	r1, .L175+16
 3502              	.LPIC259:
 3503 21cc 01108FE0 		add	r1, pc, r1
 3504 21d0 4500A0E3 		mov	r0, #69
 3505 21d4 FEFFFFEB 		bl	siFormattedMessage_SC(PLT)
 3506 21d8 0030E0E3 		mvn	r3, #0
 3507 21dc 08300BE5 		str	r3, [fp, #-8]
 3508 21e0 040000EA 		b	.L173
 3509              	.L172:
 730:/home/hkh/git/eapidk-code-r76-trunk/lib/linux/../EApiAPI.cpp ****   StatusCode=EApiWDogStartEmul(Delay, EventTimeout, ResetTimeout);
 3510              		.loc 1 730 14 is_stmt 1
 3511 21e4 18201BE5 		ldr	r2, [fp, #-24]
 3512 21e8 14101BE5 		ldr	r1, [fp, #-20]
 3513 21ec 10001BE5 		ldr	r0, [fp, #-16]
 3514 21f0 FEFFFFEB 		bl	EApiWDogStartEmul(PLT)
 3515 21f4 08000BE5 		str	r0, [fp, #-8]
 3516              	.L173:
 731:/home/hkh/git/eapidk-code-r76-trunk/lib/linux/../EApiAPI.cpp **** EAPI_LIB_ASSERT_EXIT
 732:/home/hkh/git/eapidk-code-r76-trunk/lib/linux/../EApiAPI.cpp ****   return StatusCode;
 3517              		.loc 1 732 10
 3518 21f8 08301BE5 		ldr	r3, [fp, #-8]
 733:/home/hkh/git/eapidk-code-r76-trunk/lib/linux/../EApiAPI.cpp **** }
 3519              		.loc 1 733 1
 3520 21fc 0300A0E1 		mov	r0, r3
 3521 2200 04D04BE2 		sub	sp, fp, #4
 3522              		.cfi_def_cfa 13, 8
 3523              		@ sp needed
 3524 2204 0088BDE8 		pop	{fp, pc}
 3525              	.L176:
 3526              		.align	2
 3527              	.L175:
 3528 2208 74000000 		.word	Initialized-(.LPIC255+8)
 3529 220c B8000000 		.word	.LC2-(.LPIC256+8)
 3530 2210 C8000000 		.word	.LC3-(.LPIC257+8)
 3531 2214 54050000 		.word	.LC51-(.LPIC258+8)
 3532 2218 58000000 		.word	.LC1-(.LPIC259+8)
 3533              		.cfi_endproc
 3534              	.LFE20:
 3536              		.section	.rodata
 3537 051a 0000     		.align	2
 3538              	.LC52:
 3539 051c 45417069 		.ascii	"EApiWDogTrigger\000"
 3539      57446F67 
 3539      54726967 
 3539      67657200 
 3540              		.text
 3541              		.align	2
 3542              		.global	EApiWDogTrigger
 3543              		.syntax unified
 3544              		.arm
 3545              		.fpu vfpv3
 3547              	EApiWDogTrigger:
 3548              	.LFB21:
 734:/home/hkh/git/eapidk-code-r76-trunk/lib/linux/../EApiAPI.cpp **** EApiStatus_t
 735:/home/hkh/git/eapidk-code-r76-trunk/lib/linux/../EApiAPI.cpp **** EAPI_CALLTYPE 
 736:/home/hkh/git/eapidk-code-r76-trunk/lib/linux/../EApiAPI.cpp **** EApiWDogTrigger(void)
 737:/home/hkh/git/eapidk-code-r76-trunk/lib/linux/../EApiAPI.cpp **** {
ARM GAS  /tmp/ccmTPeQn.s 			page 79


 3549              		.loc 1 737 1
 3550              		.cfi_startproc
 3551              		@ args = 0, pretend = 0, frame = 8
 3552              		@ frame_needed = 1, uses_anonymous_args = 0
 3553 221c 00482DE9 		push	{fp, lr}
 3554              		.cfi_def_cfa_offset 8
 3555              		.cfi_offset 11, -8
 3556              		.cfi_offset 14, -4
 3557 2220 04B08DE2 		add	fp, sp, #4
 3558              		.cfi_def_cfa 11, 4
 3559 2224 18D04DE2 		sub	sp, sp, #24
 738:/home/hkh/git/eapidk-code-r76-trunk/lib/linux/../EApiAPI.cpp ****   EApiStatus_t StatusCode=EAPI_STATUS_SUCCESS;
 3560              		.loc 1 738 16
 3561 2228 0030A0E3 		mov	r3, #0
 3562 222c 08300BE5 		str	r3, [fp, #-8]
 739:/home/hkh/git/eapidk-code-r76-trunk/lib/linux/../EApiAPI.cpp ****   EAPI_CHECK_INITIALIZED(EApiWDogTrigger);
 3563              		.loc 1 739 3
 3564 2230 6C309FE5 		ldr	r3, .L181
 3565              	.LPIC260:
 3566 2234 03308FE0 		add	r3, pc, r3
 3567 2238 003093E5 		ldr	r3, [r3]
 3568 223c 000053E3 		cmp	r3, #0
 3569 2240 1100001A 		bne	.L178
 3570              		.loc 1 739 3 is_stmt 0 discriminator 1
 3571 2244 5C309FE5 		ldr	r3, .L181+4
 3572              	.LPIC261:
 3573 2248 03308FE0 		add	r3, pc, r3
 3574 224c 08308DE5 		str	r3, [sp, #8]
 3575 2250 54309FE5 		ldr	r3, .L181+8
 3576              	.LPIC262:
 3577 2254 03308FE0 		add	r3, pc, r3
 3578 2258 04308DE5 		str	r3, [sp, #4]
 3579 225c 0030E0E3 		mvn	r3, #0
 3580 2260 00308DE5 		str	r3, [sp]
 3581 2264 E33200E3 		movw	r3, #739
 3582 2268 40209FE5 		ldr	r2, .L181+12
 3583              	.LPIC263:
 3584 226c 02208FE0 		add	r2, pc, r2
 3585 2270 3C109FE5 		ldr	r1, .L181+16
 3586              	.LPIC264:
 3587 2274 01108FE0 		add	r1, pc, r1
 3588 2278 4500A0E3 		mov	r0, #69
 3589 227c FEFFFFEB 		bl	siFormattedMessage_SC(PLT)
 3590 2280 0030E0E3 		mvn	r3, #0
 3591 2284 08300BE5 		str	r3, [fp, #-8]
 3592 2288 010000EA 		b	.L179
 3593              	.L178:
 740:/home/hkh/git/eapidk-code-r76-trunk/lib/linux/../EApiAPI.cpp ****   StatusCode=EApiWDogTriggerEmul();
 3594              		.loc 1 740 14 is_stmt 1
 3595 228c FEFFFFEB 		bl	EApiWDogTriggerEmul(PLT)
 3596 2290 08000BE5 		str	r0, [fp, #-8]
 3597              	.L179:
 741:/home/hkh/git/eapidk-code-r76-trunk/lib/linux/../EApiAPI.cpp **** EAPI_LIB_ASSERT_EXIT
 742:/home/hkh/git/eapidk-code-r76-trunk/lib/linux/../EApiAPI.cpp ****   return StatusCode;
 3598              		.loc 1 742 10
 3599 2294 08301BE5 		ldr	r3, [fp, #-8]
 743:/home/hkh/git/eapidk-code-r76-trunk/lib/linux/../EApiAPI.cpp **** }
ARM GAS  /tmp/ccmTPeQn.s 			page 80


 3600              		.loc 1 743 1
 3601 2298 0300A0E1 		mov	r0, r3
 3602 229c 04D04BE2 		sub	sp, fp, #4
 3603              		.cfi_def_cfa 13, 8
 3604              		@ sp needed
 3605 22a0 0088BDE8 		pop	{fp, pc}
 3606              	.L182:
 3607              		.align	2
 3608              	.L181:
 3609 22a4 68000000 		.word	Initialized-(.LPIC260+8)
 3610 22a8 AC000000 		.word	.LC2-(.LPIC261+8)
 3611 22ac BC000000 		.word	.LC3-(.LPIC262+8)
 3612 22b0 58050000 		.word	.LC52-(.LPIC263+8)
 3613 22b4 4C000000 		.word	.LC1-(.LPIC264+8)
 3614              		.cfi_endproc
 3615              	.LFE21:
 3617              		.section	.rodata
 3618              		.align	2
 3619              	.LC53:
 3620 052c 45417069 		.ascii	"EApiWDogStop\000"
 3620      57446F67 
 3620      53746F70 
 3620      00
 3621              		.text
 3622              		.align	2
 3623              		.global	EApiWDogStop
 3624              		.syntax unified
 3625              		.arm
 3626              		.fpu vfpv3
 3628              	EApiWDogStop:
 3629              	.LFB22:
 744:/home/hkh/git/eapidk-code-r76-trunk/lib/linux/../EApiAPI.cpp **** EApiStatus_t 
 745:/home/hkh/git/eapidk-code-r76-trunk/lib/linux/../EApiAPI.cpp **** EAPI_CALLTYPE 
 746:/home/hkh/git/eapidk-code-r76-trunk/lib/linux/../EApiAPI.cpp **** EApiWDogStop(void)
 747:/home/hkh/git/eapidk-code-r76-trunk/lib/linux/../EApiAPI.cpp **** {
 3630              		.loc 1 747 1
 3631              		.cfi_startproc
 3632              		@ args = 0, pretend = 0, frame = 8
 3633              		@ frame_needed = 1, uses_anonymous_args = 0
 3634 22b8 00482DE9 		push	{fp, lr}
 3635              		.cfi_def_cfa_offset 8
 3636              		.cfi_offset 11, -8
 3637              		.cfi_offset 14, -4
 3638 22bc 04B08DE2 		add	fp, sp, #4
 3639              		.cfi_def_cfa 11, 4
 3640 22c0 18D04DE2 		sub	sp, sp, #24
 748:/home/hkh/git/eapidk-code-r76-trunk/lib/linux/../EApiAPI.cpp ****   EApiStatus_t StatusCode=EAPI_STATUS_SUCCESS;
 3641              		.loc 1 748 16
 3642 22c4 0030A0E3 		mov	r3, #0
 3643 22c8 08300BE5 		str	r3, [fp, #-8]
 749:/home/hkh/git/eapidk-code-r76-trunk/lib/linux/../EApiAPI.cpp ****   EAPI_CHECK_INITIALIZED(EApiWDogStop);
 3644              		.loc 1 749 3
 3645 22cc 6C309FE5 		ldr	r3, .L187
 3646              	.LPIC265:
 3647 22d0 03308FE0 		add	r3, pc, r3
 3648 22d4 003093E5 		ldr	r3, [r3]
 3649 22d8 000053E3 		cmp	r3, #0
ARM GAS  /tmp/ccmTPeQn.s 			page 81


 3650 22dc 1100001A 		bne	.L184
 3651              		.loc 1 749 3 is_stmt 0 discriminator 1
 3652 22e0 5C309FE5 		ldr	r3, .L187+4
 3653              	.LPIC266:
 3654 22e4 03308FE0 		add	r3, pc, r3
 3655 22e8 08308DE5 		str	r3, [sp, #8]
 3656 22ec 54309FE5 		ldr	r3, .L187+8
 3657              	.LPIC267:
 3658 22f0 03308FE0 		add	r3, pc, r3
 3659 22f4 04308DE5 		str	r3, [sp, #4]
 3660 22f8 0030E0E3 		mvn	r3, #0
 3661 22fc 00308DE5 		str	r3, [sp]
 3662 2300 ED3200E3 		movw	r3, #749
 3663 2304 40209FE5 		ldr	r2, .L187+12
 3664              	.LPIC268:
 3665 2308 02208FE0 		add	r2, pc, r2
 3666 230c 3C109FE5 		ldr	r1, .L187+16
 3667              	.LPIC269:
 3668 2310 01108FE0 		add	r1, pc, r1
 3669 2314 4500A0E3 		mov	r0, #69
 3670 2318 FEFFFFEB 		bl	siFormattedMessage_SC(PLT)
 3671 231c 0030E0E3 		mvn	r3, #0
 3672 2320 08300BE5 		str	r3, [fp, #-8]
 3673 2324 010000EA 		b	.L185
 3674              	.L184:
 750:/home/hkh/git/eapidk-code-r76-trunk/lib/linux/../EApiAPI.cpp ****   StatusCode=EApiWDogStopEmul();
 3675              		.loc 1 750 14 is_stmt 1
 3676 2328 FEFFFFEB 		bl	EApiWDogStopEmul(PLT)
 3677 232c 08000BE5 		str	r0, [fp, #-8]
 3678              	.L185:
 751:/home/hkh/git/eapidk-code-r76-trunk/lib/linux/../EApiAPI.cpp **** EAPI_LIB_ASSERT_EXIT
 752:/home/hkh/git/eapidk-code-r76-trunk/lib/linux/../EApiAPI.cpp ****   return StatusCode;
 3679              		.loc 1 752 10
 3680 2330 08301BE5 		ldr	r3, [fp, #-8]
 753:/home/hkh/git/eapidk-code-r76-trunk/lib/linux/../EApiAPI.cpp **** }
 3681              		.loc 1 753 1
 3682 2334 0300A0E1 		mov	r0, r3
 3683 2338 04D04BE2 		sub	sp, fp, #4
 3684              		.cfi_def_cfa 13, 8
 3685              		@ sp needed
 3686 233c 0088BDE8 		pop	{fp, pc}
 3687              	.L188:
 3688              		.align	2
 3689              	.L187:
 3690 2340 68000000 		.word	Initialized-(.LPIC265+8)
 3691 2344 AC000000 		.word	.LC2-(.LPIC266+8)
 3692 2348 BC000000 		.word	.LC3-(.LPIC267+8)
 3693 234c 68050000 		.word	.LC53-(.LPIC268+8)
 3694 2350 4C000000 		.word	.LC1-(.LPIC269+8)
 3695              		.cfi_endproc
 3696              	.LFE22:
 3698              		.section	.rodata
 3699 0539 000000   		.align	2
 3700              	.LC54:
 3701 053c 45417069 		.ascii	"EApiStorageCap\000"
 3701      53746F72 
 3701      61676543 
ARM GAS  /tmp/ccmTPeQn.s 			page 82


 3701      617000
 3702 054b 00       		.align	2
 3703              	.LC55:
 3704 054c 28287042 		.ascii	"((pBlockLength==NULL)&&(pStorageSize==NULL))\000"
 3704      6C6F636B 
 3704      4C656E67 
 3704      74683D3D 
 3704      4E554C4C 
 3705              		.text
 3706              		.align	2
 3707              		.global	EApiStorageCap
 3708              		.syntax unified
 3709              		.arm
 3710              		.fpu vfpv3
 3712              	EApiStorageCap:
 3713              	.LFB23:
 754:/home/hkh/git/eapidk-code-r76-trunk/lib/linux/../EApiAPI.cpp **** 
 755:/home/hkh/git/eapidk-code-r76-trunk/lib/linux/../EApiAPI.cpp **** /*
 756:/home/hkh/git/eapidk-code-r76-trunk/lib/linux/../EApiAPI.cpp ****  *
 757:/home/hkh/git/eapidk-code-r76-trunk/lib/linux/../EApiAPI.cpp ****  *  
 758:/home/hkh/git/eapidk-code-r76-trunk/lib/linux/../EApiAPI.cpp ****  *
 759:/home/hkh/git/eapidk-code-r76-trunk/lib/linux/../EApiAPI.cpp ****  *  S T O R A G E 
 760:/home/hkh/git/eapidk-code-r76-trunk/lib/linux/../EApiAPI.cpp ****  *
 761:/home/hkh/git/eapidk-code-r76-trunk/lib/linux/../EApiAPI.cpp ****  *
 762:/home/hkh/git/eapidk-code-r76-trunk/lib/linux/../EApiAPI.cpp ****  *
 763:/home/hkh/git/eapidk-code-r76-trunk/lib/linux/../EApiAPI.cpp ****  */
 764:/home/hkh/git/eapidk-code-r76-trunk/lib/linux/../EApiAPI.cpp **** EApiStatus_t 
 765:/home/hkh/git/eapidk-code-r76-trunk/lib/linux/../EApiAPI.cpp **** EAPI_CALLTYPE 
 766:/home/hkh/git/eapidk-code-r76-trunk/lib/linux/../EApiAPI.cpp **** EApiStorageCap(
 767:/home/hkh/git/eapidk-code-r76-trunk/lib/linux/../EApiAPI.cpp ****     __IN  EApiId_t  Id            , /* Storage Area Id */
 768:/home/hkh/git/eapidk-code-r76-trunk/lib/linux/../EApiAPI.cpp ****     __OUT uint32_t  *pStorageSize , /* Total */
 769:/home/hkh/git/eapidk-code-r76-trunk/lib/linux/../EApiAPI.cpp ****     __OUT uint32_t  *pBlockLength   /* Write Block Length & Alignment */
 770:/home/hkh/git/eapidk-code-r76-trunk/lib/linux/../EApiAPI.cpp ****     )
 771:/home/hkh/git/eapidk-code-r76-trunk/lib/linux/../EApiAPI.cpp **** {
 3714              		.loc 1 771 1
 3715              		.cfi_startproc
 3716              		@ args = 0, pretend = 0, frame = 32
 3717              		@ frame_needed = 1, uses_anonymous_args = 0
 3718 2354 00482DE9 		push	{fp, lr}
 3719              		.cfi_def_cfa_offset 8
 3720              		.cfi_offset 11, -8
 3721              		.cfi_offset 14, -4
 3722 2358 04B08DE2 		add	fp, sp, #4
 3723              		.cfi_def_cfa 11, 4
 3724 235c 30D04DE2 		sub	sp, sp, #48
 3725 2360 18000BE5 		str	r0, [fp, #-24]
 3726 2364 1C100BE5 		str	r1, [fp, #-28]
 3727 2368 20200BE5 		str	r2, [fp, #-32]
 3728              		.loc 1 771 1
 3729 236c 4C219FE5 		ldr	r2, .L197
 3730              	.LPIC279:
 3731 2370 02208FE0 		add	r2, pc, r2
 3732 2374 48319FE5 		ldr	r3, .L197+4
 3733 2378 033092E7 		ldr	r3, [r2, r3]
 3734 237c 003093E5 		ldr	r3, [r3]
 3735 2380 08300BE5 		str	r3, [fp, #-8]
 3736 2384 0030A0E3 		mov	r3, #0
ARM GAS  /tmp/ccmTPeQn.s 			page 83


 772:/home/hkh/git/eapidk-code-r76-trunk/lib/linux/../EApiAPI.cpp ****   EApiStatus_t StatusCode=EAPI_STATUS_SUCCESS;
 3737              		.loc 1 772 16
 3738 2388 0030A0E3 		mov	r3, #0
 3739 238c 0C300BE5 		str	r3, [fp, #-12]
 773:/home/hkh/git/eapidk-code-r76-trunk/lib/linux/../EApiAPI.cpp ****   uint32_t DummyValue;
 774:/home/hkh/git/eapidk-code-r76-trunk/lib/linux/../EApiAPI.cpp **** 
 775:/home/hkh/git/eapidk-code-r76-trunk/lib/linux/../EApiAPI.cpp ****   EAPI_CHECK_INITIALIZED(EApiStorageCap);
 3740              		.loc 1 775 3
 3741 2390 30319FE5 		ldr	r3, .L197+8
 3742              	.LPIC270:
 3743 2394 03308FE0 		add	r3, pc, r3
 3744 2398 003093E5 		ldr	r3, [r3]
 3745 239c 000053E3 		cmp	r3, #0
 3746 23a0 1100001A 		bne	.L190
 3747              		.loc 1 775 3 is_stmt 0 discriminator 1
 3748 23a4 20319FE5 		ldr	r3, .L197+12
 3749              	.LPIC271:
 3750 23a8 03308FE0 		add	r3, pc, r3
 3751 23ac 08308DE5 		str	r3, [sp, #8]
 3752 23b0 18319FE5 		ldr	r3, .L197+16
 3753              	.LPIC272:
 3754 23b4 03308FE0 		add	r3, pc, r3
 3755 23b8 04308DE5 		str	r3, [sp, #4]
 3756 23bc 0030E0E3 		mvn	r3, #0
 3757 23c0 00308DE5 		str	r3, [sp]
 3758 23c4 073300E3 		movw	r3, #775
 3759 23c8 04219FE5 		ldr	r2, .L197+20
 3760              	.LPIC273:
 3761 23cc 02208FE0 		add	r2, pc, r2
 3762 23d0 00119FE5 		ldr	r1, .L197+24
 3763              	.LPIC274:
 3764 23d4 01108FE0 		add	r1, pc, r1
 3765 23d8 4500A0E3 		mov	r0, #69
 3766 23dc FEFFFFEB 		bl	siFormattedMessage_SC(PLT)
 3767 23e0 0030E0E3 		mvn	r3, #0
 3768 23e4 0C300BE5 		str	r3, [fp, #-12]
 3769 23e8 260000EA 		b	.L191
 3770              	.L190:
 776:/home/hkh/git/eapidk-code-r76-trunk/lib/linux/../EApiAPI.cpp ****   EAPI_LIB_ASSERT_PARAMATER_CHECK(
 3771              		.loc 1 776 3 is_stmt 1
 3772 23ec 20301BE5 		ldr	r3, [fp, #-32]
 3773 23f0 000053E3 		cmp	r3, #0
 3774 23f4 1400001A 		bne	.L192
 3775              		.loc 1 776 3 is_stmt 0 discriminator 1
 3776 23f8 1C301BE5 		ldr	r3, [fp, #-28]
 3777 23fc 000053E3 		cmp	r3, #0
 3778 2400 1100001A 		bne	.L192
 3779              		.loc 1 776 3 discriminator 2
 3780 2404 D0309FE5 		ldr	r3, .L197+28
 3781              	.LPIC275:
 3782 2408 03308FE0 		add	r3, pc, r3
 3783 240c 08308DE5 		str	r3, [sp, #8]
 3784 2410 C8309FE5 		ldr	r3, .L197+32
 3785              	.LPIC276:
 3786 2414 03308FE0 		add	r3, pc, r3
 3787 2418 04308DE5 		str	r3, [sp, #4]
 3788 241c 013CE0E3 		mvn	r3, #256
ARM GAS  /tmp/ccmTPeQn.s 			page 84


 3789 2420 00308DE5 		str	r3, [sp]
 3790 2424 C23FA0E3 		mov	r3, #776
 3791 2428 B4209FE5 		ldr	r2, .L197+36
 3792              	.LPIC277:
 3793 242c 02208FE0 		add	r2, pc, r2
 3794 2430 B0109FE5 		ldr	r1, .L197+40
 3795              	.LPIC278:
 3796 2434 01108FE0 		add	r1, pc, r1
 3797 2438 4500A0E3 		mov	r0, #69
 3798 243c FEFFFFEB 		bl	siFormattedMessage_SC(PLT)
 3799 2440 013CE0E3 		mvn	r3, #256
 3800 2444 0C300BE5 		str	r3, [fp, #-12]
 3801 2448 0E0000EA 		b	.L191
 3802              	.L192:
 777:/home/hkh/git/eapidk-code-r76-trunk/lib/linux/../EApiAPI.cpp ****       EApiStorageCap, 
 778:/home/hkh/git/eapidk-code-r76-trunk/lib/linux/../EApiAPI.cpp ****       ((pBlockLength==NULL)&&(pStorageSize==NULL)), 
 779:/home/hkh/git/eapidk-code-r76-trunk/lib/linux/../EApiAPI.cpp ****       "((pBlockLength==NULL)&&(pStorageSize==NULL))"
 780:/home/hkh/git/eapidk-code-r76-trunk/lib/linux/../EApiAPI.cpp ****       );
 781:/home/hkh/git/eapidk-code-r76-trunk/lib/linux/../EApiAPI.cpp ****   if(pStorageSize==NULL)
 3803              		.loc 1 781 5 is_stmt 1
 3804 244c 1C301BE5 		ldr	r3, [fp, #-28]
 3805 2450 000053E3 		cmp	r3, #0
 3806 2454 0100001A 		bne	.L193
 782:/home/hkh/git/eapidk-code-r76-trunk/lib/linux/../EApiAPI.cpp ****     pStorageSize=&DummyValue;         /* Better Example for a wrapper */
 3807              		.loc 1 782 17
 3808 2458 10304BE2 		sub	r3, fp, #16
 3809 245c 1C300BE5 		str	r3, [fp, #-28]
 3810              	.L193:
 783:/home/hkh/git/eapidk-code-r76-trunk/lib/linux/../EApiAPI.cpp ****   if(pBlockLength==NULL)
 3811              		.loc 1 783 5
 3812 2460 20301BE5 		ldr	r3, [fp, #-32]
 3813 2464 000053E3 		cmp	r3, #0
 3814 2468 0100001A 		bne	.L194
 784:/home/hkh/git/eapidk-code-r76-trunk/lib/linux/../EApiAPI.cpp ****     pBlockLength=&DummyValue;
 3815              		.loc 1 784 17
 3816 246c 10304BE2 		sub	r3, fp, #16
 3817 2470 20300BE5 		str	r3, [fp, #-32]
 3818              	.L194:
 785:/home/hkh/git/eapidk-code-r76-trunk/lib/linux/../EApiAPI.cpp **** 
 786:/home/hkh/git/eapidk-code-r76-trunk/lib/linux/../EApiAPI.cpp ****   StatusCode=EApiStorageCapEmul(Id, pStorageSize, pBlockLength);
 3819              		.loc 1 786 14
 3820 2474 20201BE5 		ldr	r2, [fp, #-32]
 3821 2478 1C101BE5 		ldr	r1, [fp, #-28]
 3822 247c 18001BE5 		ldr	r0, [fp, #-24]
 3823 2480 FEFFFFEB 		bl	EApiStorageCapEmul(PLT)
 3824 2484 0C000BE5 		str	r0, [fp, #-12]
 3825              	.L191:
 787:/home/hkh/git/eapidk-code-r76-trunk/lib/linux/../EApiAPI.cpp **** EAPI_LIB_ASSERT_EXIT
 788:/home/hkh/git/eapidk-code-r76-trunk/lib/linux/../EApiAPI.cpp ****   return StatusCode;
 3826              		.loc 1 788 10
 3827 2488 0C301BE5 		ldr	r3, [fp, #-12]
 771:/home/hkh/git/eapidk-code-r76-trunk/lib/linux/../EApiAPI.cpp ****   EApiStatus_t StatusCode=EAPI_STATUS_SUCCESS;
 3828              		.loc 1 771 1
 3829 248c 58109FE5 		ldr	r1, .L197+44
 3830              	.LPIC280:
 3831 2490 01108FE0 		add	r1, pc, r1
 789:/home/hkh/git/eapidk-code-r76-trunk/lib/linux/../EApiAPI.cpp **** }
ARM GAS  /tmp/ccmTPeQn.s 			page 85


 3832              		.loc 1 789 1
 3833 2494 28209FE5 		ldr	r2, .L197+4
 3834 2498 022091E7 		ldr	r2, [r1, r2]
 3835 249c 001092E5 		ldr	r1, [r2]
 3836 24a0 08201BE5 		ldr	r2, [fp, #-8]
 3837 24a4 011032E0 		eors	r1, r2, r1
 3838 24a8 0020A0E3 		mov	r2, #0
 3839 24ac 0000000A 		beq	.L196
 3840 24b0 FEFFFFEB 		bl	__stack_chk_fail(PLT)
 3841              	.L196:
 3842 24b4 0300A0E1 		mov	r0, r3
 3843 24b8 04D04BE2 		sub	sp, fp, #4
 3844              		.cfi_def_cfa 13, 8
 3845              		@ sp needed
 3846 24bc 0088BDE8 		pop	{fp, pc}
 3847              	.L198:
 3848              		.align	2
 3849              	.L197:
 3850 24c0 48010000 		.word	_GLOBAL_OFFSET_TABLE_-(.LPIC279+8)
 3851 24c4 00000000 		.word	__stack_chk_guard(GOT)
 3852 24c8 2C010000 		.word	Initialized-(.LPIC270+8)
 3853 24cc 70010000 		.word	.LC2-(.LPIC271+8)
 3854 24d0 80010000 		.word	.LC3-(.LPIC272+8)
 3855 24d4 3C060000 		.word	.LC54-(.LPIC273+8)
 3856 24d8 10010000 		.word	.LC1-(.LPIC274+8)
 3857 24dc 18060000 		.word	.LC55-(.LPIC275+8)
 3858 24e0 30010000 		.word	.LC3-(.LPIC276+8)
 3859 24e4 EC050000 		.word	.LC54-(.LPIC277+8)
 3860 24e8 C0000000 		.word	.LC1-(.LPIC278+8)
 3861 24ec 54000000 		.word	_GLOBAL_OFFSET_TABLE_-(.LPIC280+8)
 3862              		.cfi_endproc
 3863              	.LFE23:
 3865              		.section	.rodata
 3866 0579 000000   		.align	2
 3867              	.LC56:
 3868 057c 45417069 		.ascii	"EApiStorageAreaRead\000"
 3868      53746F72 
 3868      61676541 
 3868      72656152 
 3868      65616400 
 3869              		.align	2
 3870              	.LC57:
 3871 0590 49643D25 		.ascii	"Id=%08X Offset=%04X BufLen=%04X ByteCnt=%04X\012\000"
 3871      30385820 
 3871      4F666673 
 3871      65743D25 
 3871      30345820 
 3872 05be 0000     		.align	2
 3873              	.LC58:
 3874 05c0 20704275 		.ascii	" pBuffer Overflow PreventedByteCnt>BufLen\000"
 3874      66666572 
 3874      204F7665 
 3874      72666C6F 
 3874      77205072 
 3875              		.text
 3876              		.align	2
 3877              		.global	EApiStorageAreaRead
ARM GAS  /tmp/ccmTPeQn.s 			page 86


 3878              		.syntax unified
 3879              		.arm
 3880              		.fpu vfpv3
 3882              	EApiStorageAreaRead:
 3883              	.LFB24:
 790:/home/hkh/git/eapidk-code-r76-trunk/lib/linux/../EApiAPI.cpp **** EApiStatus_t 
 791:/home/hkh/git/eapidk-code-r76-trunk/lib/linux/../EApiAPI.cpp **** EAPI_CALLTYPE 
 792:/home/hkh/git/eapidk-code-r76-trunk/lib/linux/../EApiAPI.cpp **** EApiStorageAreaRead(
 793:/home/hkh/git/eapidk-code-r76-trunk/lib/linux/../EApiAPI.cpp ****     __IN  EApiId_t  Id      , /* Storage Area Id */
 794:/home/hkh/git/eapidk-code-r76-trunk/lib/linux/../EApiAPI.cpp ****     __IN  uint32_t  Offset  , /* Byte Offset */
 795:/home/hkh/git/eapidk-code-r76-trunk/lib/linux/../EApiAPI.cpp ****     __OUT     void *pBuffer , /* Pointer to Date pBuffer */
 796:/home/hkh/git/eapidk-code-r76-trunk/lib/linux/../EApiAPI.cpp ****     __IN  uint32_t  BufLen  , /* Data pBuffer Size in bytes */
 797:/home/hkh/git/eapidk-code-r76-trunk/lib/linux/../EApiAPI.cpp ****     __IN  uint32_t  ByteCnt   /* Number of bytes to read */
 798:/home/hkh/git/eapidk-code-r76-trunk/lib/linux/../EApiAPI.cpp ****     )
 799:/home/hkh/git/eapidk-code-r76-trunk/lib/linux/../EApiAPI.cpp **** {
 3884              		.loc 1 799 1
 3885              		.cfi_startproc
 3886              		@ args = 4, pretend = 0, frame = 24
 3887              		@ frame_needed = 1, uses_anonymous_args = 0
 3888 24f0 00482DE9 		push	{fp, lr}
 3889              		.cfi_def_cfa_offset 8
 3890              		.cfi_offset 11, -8
 3891              		.cfi_offset 14, -4
 3892 24f4 04B08DE2 		add	fp, sp, #4
 3893              		.cfi_def_cfa 11, 4
 3894 24f8 30D04DE2 		sub	sp, sp, #48
 3895 24fc 10000BE5 		str	r0, [fp, #-16]
 3896 2500 14100BE5 		str	r1, [fp, #-20]
 3897 2504 18200BE5 		str	r2, [fp, #-24]
 3898 2508 1C300BE5 		str	r3, [fp, #-28]
 800:/home/hkh/git/eapidk-code-r76-trunk/lib/linux/../EApiAPI.cpp ****   EApiStatus_t StatusCode=EAPI_STATUS_SUCCESS;
 3899              		.loc 1 800 16
 3900 250c 0030A0E3 		mov	r3, #0
 3901 2510 0C300BE5 		str	r3, [fp, #-12]
 801:/home/hkh/git/eapidk-code-r76-trunk/lib/linux/../EApiAPI.cpp ****   EApiStatus_t ErrorCode2;
 802:/home/hkh/git/eapidk-code-r76-trunk/lib/linux/../EApiAPI.cpp ****   EAPI_CHECK_INITIALIZED(EApiStorageAreaRead);
 3902              		.loc 1 802 3
 3903 2514 44329FE5 		ldr	r3, .L208
 3904              	.LPIC281:
 3905 2518 03308FE0 		add	r3, pc, r3
 3906 251c 003093E5 		ldr	r3, [r3]
 3907 2520 000053E3 		cmp	r3, #0
 3908 2524 1100001A 		bne	.L200
 3909              		.loc 1 802 3 is_stmt 0 discriminator 1
 3910 2528 34329FE5 		ldr	r3, .L208+4
 3911              	.LPIC282:
 3912 252c 03308FE0 		add	r3, pc, r3
 3913 2530 08308DE5 		str	r3, [sp, #8]
 3914 2534 2C329FE5 		ldr	r3, .L208+8
 3915              	.LPIC283:
 3916 2538 03308FE0 		add	r3, pc, r3
 3917 253c 04308DE5 		str	r3, [sp, #4]
 3918 2540 0030E0E3 		mvn	r3, #0
 3919 2544 00308DE5 		str	r3, [sp]
 3920 2548 223300E3 		movw	r3, #802
 3921 254c 18229FE5 		ldr	r2, .L208+12
 3922              	.LPIC284:
ARM GAS  /tmp/ccmTPeQn.s 			page 87


 3923 2550 02208FE0 		add	r2, pc, r2
 3924 2554 14129FE5 		ldr	r1, .L208+16
 3925              	.LPIC285:
 3926 2558 01108FE0 		add	r1, pc, r1
 3927 255c 4500A0E3 		mov	r0, #69
 3928 2560 FEFFFFEB 		bl	siFormattedMessage_SC(PLT)
 3929 2564 0030E0E3 		mvn	r3, #0
 3930 2568 0C300BE5 		str	r3, [fp, #-12]
 3931 256c 770000EA 		b	.L201
 3932              	.L200:
 803:/home/hkh/git/eapidk-code-r76-trunk/lib/linux/../EApiAPI.cpp **** #if (STRICT_VALIDATION>1)
 804:/home/hkh/git/eapidk-code-r76-trunk/lib/linux/../EApiAPI.cpp ****   siFormattedMessage_M2(
 3933              		.loc 1 804 3 is_stmt 1
 3934 2570 04309BE5 		ldr	r3, [fp, #4]
 3935 2574 14308DE5 		str	r3, [sp, #20]
 3936 2578 1C301BE5 		ldr	r3, [fp, #-28]
 3937 257c 10308DE5 		str	r3, [sp, #16]
 3938 2580 14301BE5 		ldr	r3, [fp, #-20]
 3939 2584 0C308DE5 		str	r3, [sp, #12]
 3940 2588 10301BE5 		ldr	r3, [fp, #-16]
 3941 258c 08308DE5 		str	r3, [sp, #8]
 3942 2590 DC319FE5 		ldr	r3, .L208+20
 3943              	.LPIC286:
 3944 2594 03308FE0 		add	r3, pc, r3
 3945 2598 04308DE5 		str	r3, [sp, #4]
 3946 259c D4319FE5 		ldr	r3, .L208+24
 3947              	.LPIC287:
 3948 25a0 03308FE0 		add	r3, pc, r3
 3949 25a4 00308DE5 		str	r3, [sp]
 3950 25a8 CA3FA0E3 		mov	r3, #808
 3951 25ac C8219FE5 		ldr	r2, .L208+28
 3952              	.LPIC288:
 3953 25b0 02208FE0 		add	r2, pc, r2
 3954 25b4 C4119FE5 		ldr	r1, .L208+32
 3955              	.LPIC289:
 3956 25b8 01108FE0 		add	r1, pc, r1
 3957 25bc 4C00A0E3 		mov	r0, #76
 3958 25c0 FEFFFFEB 		bl	siFormattedMessage_M2(PLT)
 805:/home/hkh/git/eapidk-code-r76-trunk/lib/linux/../EApiAPI.cpp ****           'L'                   ,
 806:/home/hkh/git/eapidk-code-r76-trunk/lib/linux/../EApiAPI.cpp ****           __FILE__              ,
 807:/home/hkh/git/eapidk-code-r76-trunk/lib/linux/../EApiAPI.cpp ****           "EApiI2CWriteTransfer",
 808:/home/hkh/git/eapidk-code-r76-trunk/lib/linux/../EApiAPI.cpp ****           __LINE__              ,
 809:/home/hkh/git/eapidk-code-r76-trunk/lib/linux/../EApiAPI.cpp ****           "Info"                ,
 810:/home/hkh/git/eapidk-code-r76-trunk/lib/linux/../EApiAPI.cpp ****           "Id=%08"PRIX32" Offset=%04"PRIX32
 811:/home/hkh/git/eapidk-code-r76-trunk/lib/linux/../EApiAPI.cpp ****           " BufLen=%04"PRIX32" ByteCnt=%04"PRIX32"\n", 
 812:/home/hkh/git/eapidk-code-r76-trunk/lib/linux/../EApiAPI.cpp ****           Id, Offset, BufLen, ByteCnt
 813:/home/hkh/git/eapidk-code-r76-trunk/lib/linux/../EApiAPI.cpp ****         );
 814:/home/hkh/git/eapidk-code-r76-trunk/lib/linux/../EApiAPI.cpp **** #endif
 815:/home/hkh/git/eapidk-code-r76-trunk/lib/linux/../EApiAPI.cpp ****   EAPI_LIB_ASSERT_PARAMATER_NULL(EApiStorageAreaRead, pBuffer);
 3959              		.loc 1 815 3
 3960 25c4 18301BE5 		ldr	r3, [fp, #-24]
 3961 25c8 000053E3 		cmp	r3, #0
 3962 25cc 1100001A 		bne	.L202
 3963              		.loc 1 815 3 is_stmt 0 discriminator 1
 3964 25d0 AC319FE5 		ldr	r3, .L208+36
 3965              	.LPIC290:
 3966 25d4 03308FE0 		add	r3, pc, r3
ARM GAS  /tmp/ccmTPeQn.s 			page 88


 3967 25d8 08308DE5 		str	r3, [sp, #8]
 3968 25dc A4319FE5 		ldr	r3, .L208+40
 3969              	.LPIC291:
 3970 25e0 03308FE0 		add	r3, pc, r3
 3971 25e4 04308DE5 		str	r3, [sp, #4]
 3972 25e8 013CE0E3 		mvn	r3, #256
 3973 25ec 00308DE5 		str	r3, [sp]
 3974 25f0 2F3300E3 		movw	r3, #815
 3975 25f4 90219FE5 		ldr	r2, .L208+44
 3976              	.LPIC292:
 3977 25f8 02208FE0 		add	r2, pc, r2
 3978 25fc 8C119FE5 		ldr	r1, .L208+48
 3979              	.LPIC293:
 3980 2600 01108FE0 		add	r1, pc, r1
 3981 2604 4500A0E3 		mov	r0, #69
 3982 2608 FEFFFFEB 		bl	siFormattedMessage_SC(PLT)
 3983 260c 013CE0E3 		mvn	r3, #256
 3984 2610 0C300BE5 		str	r3, [fp, #-12]
 3985 2614 4D0000EA 		b	.L201
 3986              	.L202:
 816:/home/hkh/git/eapidk-code-r76-trunk/lib/linux/../EApiAPI.cpp ****   EAPI_LIB_ASSERT_PARAMATER_ZERO(EApiStorageAreaRead, ByteCnt);
 3987              		.loc 1 816 3 is_stmt 1
 3988 2618 04309BE5 		ldr	r3, [fp, #4]
 3989 261c 000053E3 		cmp	r3, #0
 3990 2620 1100001A 		bne	.L203
 3991              		.loc 1 816 3 is_stmt 0 discriminator 1
 3992 2624 68319FE5 		ldr	r3, .L208+52
 3993              	.LPIC294:
 3994 2628 03308FE0 		add	r3, pc, r3
 3995 262c 08308DE5 		str	r3, [sp, #8]
 3996 2630 60319FE5 		ldr	r3, .L208+56
 3997              	.LPIC295:
 3998 2634 03308FE0 		add	r3, pc, r3
 3999 2638 04308DE5 		str	r3, [sp, #4]
 4000 263c 013CE0E3 		mvn	r3, #256
 4001 2640 00308DE5 		str	r3, [sp]
 4002 2644 333EA0E3 		mov	r3, #816
 4003 2648 4C219FE5 		ldr	r2, .L208+60
 4004              	.LPIC296:
 4005 264c 02208FE0 		add	r2, pc, r2
 4006 2650 48119FE5 		ldr	r1, .L208+64
 4007              	.LPIC297:
 4008 2654 01108FE0 		add	r1, pc, r1
 4009 2658 4500A0E3 		mov	r0, #69
 4010 265c FEFFFFEB 		bl	siFormattedMessage_SC(PLT)
 4011 2660 013CE0E3 		mvn	r3, #256
 4012 2664 0C300BE5 		str	r3, [fp, #-12]
 4013 2668 380000EA 		b	.L201
 4014              	.L203:
 817:/home/hkh/git/eapidk-code-r76-trunk/lib/linux/../EApiAPI.cpp ****   EAPI_LIB_ASSERT_PARAMATER_ZERO(EApiStorageAreaRead, BufLen);
 4015              		.loc 1 817 3 is_stmt 1
 4016 266c 1C301BE5 		ldr	r3, [fp, #-28]
 4017 2670 000053E3 		cmp	r3, #0
 4018 2674 1100001A 		bne	.L204
 4019              		.loc 1 817 3 is_stmt 0 discriminator 1
 4020 2678 24319FE5 		ldr	r3, .L208+68
 4021              	.LPIC298:
ARM GAS  /tmp/ccmTPeQn.s 			page 89


 4022 267c 03308FE0 		add	r3, pc, r3
 4023 2680 08308DE5 		str	r3, [sp, #8]
 4024 2684 1C319FE5 		ldr	r3, .L208+72
 4025              	.LPIC299:
 4026 2688 03308FE0 		add	r3, pc, r3
 4027 268c 04308DE5 		str	r3, [sp, #4]
 4028 2690 013CE0E3 		mvn	r3, #256
 4029 2694 00308DE5 		str	r3, [sp]
 4030 2698 313300E3 		movw	r3, #817
 4031 269c 08219FE5 		ldr	r2, .L208+76
 4032              	.LPIC300:
 4033 26a0 02208FE0 		add	r2, pc, r2
 4034 26a4 04119FE5 		ldr	r1, .L208+80
 4035              	.LPIC301:
 4036 26a8 01108FE0 		add	r1, pc, r1
 4037 26ac 4500A0E3 		mov	r0, #69
 4038 26b0 FEFFFFEB 		bl	siFormattedMessage_SC(PLT)
 4039 26b4 013CE0E3 		mvn	r3, #256
 4040 26b8 0C300BE5 		str	r3, [fp, #-12]
 4041 26bc 230000EA 		b	.L201
 4042              	.L204:
 818:/home/hkh/git/eapidk-code-r76-trunk/lib/linux/../EApiAPI.cpp **** 
 819:/home/hkh/git/eapidk-code-r76-trunk/lib/linux/../EApiAPI.cpp ****   EAPI_LIB_PREVENT_BUF_OVERFLOW(EApiStorageAreaRead, ByteCnt, BufLen);
 4043              		.loc 1 819 3 is_stmt 1
 4044 26c0 04209BE5 		ldr	r2, [fp, #4]
 4045 26c4 1C301BE5 		ldr	r3, [fp, #-28]
 4046 26c8 030052E1 		cmp	r2, r3
 4047 26cc 1200009A 		bls	.L205
 4048              		.loc 1 819 3 is_stmt 0 discriminator 1
 4049 26d0 DC309FE5 		ldr	r3, .L208+84
 4050              	.LPIC302:
 4051 26d4 03308FE0 		add	r3, pc, r3
 4052 26d8 08308DE5 		str	r3, [sp, #8]
 4053 26dc D4309FE5 		ldr	r3, .L208+88
 4054              	.LPIC303:
 4055 26e0 03308FE0 		add	r3, pc, r3
 4056 26e4 04308DE5 		str	r3, [sp, #4]
 4057 26e8 063CE0E3 		mvn	r3, #1536
 4058 26ec 00308DE5 		str	r3, [sp]
 4059 26f0 333300E3 		movw	r3, #819
 4060 26f4 C0209FE5 		ldr	r2, .L208+92
 4061              	.LPIC304:
 4062 26f8 02208FE0 		add	r2, pc, r2
 4063 26fc BC109FE5 		ldr	r1, .L208+96
 4064              	.LPIC305:
 4065 2700 01108FE0 		add	r1, pc, r1
 4066 2704 4500A0E3 		mov	r0, #69
 4067 2708 FEFFFFEB 		bl	siFormattedMessage_SC(PLT)
 4068 270c 1C301BE5 		ldr	r3, [fp, #-28]
 4069 2710 04308BE5 		str	r3, [fp, #4]
 4070 2714 063CE0E3 		mvn	r3, #1536
 4071 2718 0C300BE5 		str	r3, [fp, #-12]
 4072              	.L205:
 820:/home/hkh/git/eapidk-code-r76-trunk/lib/linux/../EApiAPI.cpp **** 
 821:/home/hkh/git/eapidk-code-r76-trunk/lib/linux/../EApiAPI.cpp ****   ErrorCode2=EApiStorageAreaReadEmul(Id, Offset, pBuffer, ByteCnt);
 4073              		.loc 1 821 14 is_stmt 1
 4074 271c 04309BE5 		ldr	r3, [fp, #4]
ARM GAS  /tmp/ccmTPeQn.s 			page 90


 4075 2720 18201BE5 		ldr	r2, [fp, #-24]
 4076 2724 14101BE5 		ldr	r1, [fp, #-20]
 4077 2728 10001BE5 		ldr	r0, [fp, #-16]
 4078 272c FEFFFFEB 		bl	EApiStorageAreaReadEmul(PLT)
 4079 2730 08000BE5 		str	r0, [fp, #-8]
 822:/home/hkh/git/eapidk-code-r76-trunk/lib/linux/../EApiAPI.cpp ****   if(ErrorCode2!=EAPI_STATUS_SUCCESS)
 4080              		.loc 1 822 5
 4081 2734 08301BE5 		ldr	r3, [fp, #-8]
 4082 2738 000053E3 		cmp	r3, #0
 4083 273c 0200000A 		beq	.L207
 823:/home/hkh/git/eapidk-code-r76-trunk/lib/linux/../EApiAPI.cpp ****     StatusCode=ErrorCode2;
 4084              		.loc 1 823 15
 4085 2740 08301BE5 		ldr	r3, [fp, #-8]
 4086 2744 0C300BE5 		str	r3, [fp, #-12]
 4087 2748 000000EA 		b	.L201
 4088              	.L207:
 824:/home/hkh/git/eapidk-code-r76-trunk/lib/linux/../EApiAPI.cpp **** EAPI_LIB_ASSERT_EXIT
 4089              		.loc 1 824 1
 4090 274c 00F020E3 		nop
 4091              	.L201:
 825:/home/hkh/git/eapidk-code-r76-trunk/lib/linux/../EApiAPI.cpp ****   return StatusCode;
 4092              		.loc 1 825 10
 4093 2750 0C301BE5 		ldr	r3, [fp, #-12]
 826:/home/hkh/git/eapidk-code-r76-trunk/lib/linux/../EApiAPI.cpp **** }
 4094              		.loc 1 826 1
 4095 2754 0300A0E1 		mov	r0, r3
 4096 2758 04D04BE2 		sub	sp, fp, #4
 4097              		.cfi_def_cfa 13, 8
 4098              		@ sp needed
 4099 275c 0088BDE8 		pop	{fp, pc}
 4100              	.L209:
 4101              		.align	2
 4102              	.L208:
 4103 2760 40020000 		.word	Initialized-(.LPIC281+8)
 4104 2764 84020000 		.word	.LC2-(.LPIC282+8)
 4105 2768 94020000 		.word	.LC3-(.LPIC283+8)
 4106 276c 90070000 		.word	.LC56-(.LPIC284+8)
 4107 2770 24020000 		.word	.LC1-(.LPIC285+8)
 4108 2774 68070000 		.word	.LC57-(.LPIC286+8)
 4109 2778 E0020000 		.word	.LC9-(.LPIC287+8)
 4110 277c 70020000 		.word	.LC7-(.LPIC288+8)
 4111 2780 D4010000 		.word	.LC1-(.LPIC289+8)
 4112 2784 64030000 		.word	.LC16-(.LPIC290+8)
 4113 2788 0C020000 		.word	.LC3-(.LPIC291+8)
 4114 278c 08070000 		.word	.LC56-(.LPIC292+8)
 4115 2790 9C010000 		.word	.LC1-(.LPIC293+8)
 4116 2794 3C030000 		.word	.LC18-(.LPIC294+8)
 4117 2798 C8010000 		.word	.LC3-(.LPIC295+8)
 4118 279c C4060000 		.word	.LC56-(.LPIC296+8)
 4119 27a0 58010000 		.word	.LC1-(.LPIC297+8)
 4120 27a4 EC020000 		.word	.LC17-(.LPIC298+8)
 4121 27a8 84010000 		.word	.LC3-(.LPIC299+8)
 4122 27ac 80060000 		.word	.LC56-(.LPIC300+8)
 4123 27b0 14010000 		.word	.LC1-(.LPIC301+8)
 4124 27b4 98060000 		.word	.LC58-(.LPIC302+8)
 4125 27b8 3C010000 		.word	.LC3-(.LPIC303+8)
 4126 27bc 38060000 		.word	.LC56-(.LPIC304+8)
ARM GAS  /tmp/ccmTPeQn.s 			page 91


 4127 27c0 CC000000 		.word	.LC1-(.LPIC305+8)
 4128              		.cfi_endproc
 4129              	.LFE24:
 4131              		.section	.rodata
 4132 05ea 0000     		.align	2
 4133              	.LC59:
 4134 05ec 45417069 		.ascii	"EApiStorageAreaWrite\000"
 4134      53746F72 
 4134      61676541 
 4134      72656157 
 4134      72697465 
 4135 0601 000000   		.align	2
 4136              	.LC60:
 4137 0604 49643D25 		.ascii	"Id=%08X Offset=%04X ByteCnt=%04X\012\000"
 4137      30385820 
 4137      4F666673 
 4137      65743D25 
 4137      30345820 
 4138              		.text
 4139              		.align	2
 4140              		.global	EApiStorageAreaWrite
 4141              		.syntax unified
 4142              		.arm
 4143              		.fpu vfpv3
 4145              	EApiStorageAreaWrite:
 4146              	.LFB25:
 827:/home/hkh/git/eapidk-code-r76-trunk/lib/linux/../EApiAPI.cpp **** 
 828:/home/hkh/git/eapidk-code-r76-trunk/lib/linux/../EApiAPI.cpp **** EApiStatus_t 
 829:/home/hkh/git/eapidk-code-r76-trunk/lib/linux/../EApiAPI.cpp **** EAPI_CALLTYPE 
 830:/home/hkh/git/eapidk-code-r76-trunk/lib/linux/../EApiAPI.cpp **** EApiStorageAreaWrite(
 831:/home/hkh/git/eapidk-code-r76-trunk/lib/linux/../EApiAPI.cpp ****     __IN  EApiId_t  Id      , /* Storage Area Id */
 832:/home/hkh/git/eapidk-code-r76-trunk/lib/linux/../EApiAPI.cpp ****     __IN  uint32_t  Offset  , /* Byte Offset */
 833:/home/hkh/git/eapidk-code-r76-trunk/lib/linux/../EApiAPI.cpp ****     __IN      void *pBuffer , /* Pointer to Date pBuffer */
 834:/home/hkh/git/eapidk-code-r76-trunk/lib/linux/../EApiAPI.cpp ****     __IN  uint32_t  ByteCnt   /* Number of bytes to write */
 835:/home/hkh/git/eapidk-code-r76-trunk/lib/linux/../EApiAPI.cpp ****     )
 836:/home/hkh/git/eapidk-code-r76-trunk/lib/linux/../EApiAPI.cpp **** {
 4147              		.loc 1 836 1
 4148              		.cfi_startproc
 4149              		@ args = 0, pretend = 0, frame = 24
 4150              		@ frame_needed = 1, uses_anonymous_args = 0
 4151 27c4 00482DE9 		push	{fp, lr}
 4152              		.cfi_def_cfa_offset 8
 4153              		.cfi_offset 11, -8
 4154              		.cfi_offset 14, -4
 4155 27c8 04B08DE2 		add	fp, sp, #4
 4156              		.cfi_def_cfa 11, 4
 4157 27cc 30D04DE2 		sub	sp, sp, #48
 4158 27d0 10000BE5 		str	r0, [fp, #-16]
 4159 27d4 14100BE5 		str	r1, [fp, #-20]
 4160 27d8 18200BE5 		str	r2, [fp, #-24]
 4161 27dc 1C300BE5 		str	r3, [fp, #-28]
 837:/home/hkh/git/eapidk-code-r76-trunk/lib/linux/../EApiAPI.cpp ****   EApiStatus_t StatusCode=EAPI_STATUS_SUCCESS;
 4162              		.loc 1 837 16
 4163 27e0 0030A0E3 		mov	r3, #0
 4164 27e4 08300BE5 		str	r3, [fp, #-8]
 838:/home/hkh/git/eapidk-code-r76-trunk/lib/linux/../EApiAPI.cpp **** 
 839:/home/hkh/git/eapidk-code-r76-trunk/lib/linux/../EApiAPI.cpp ****   EAPI_CHECK_INITIALIZED(EApiStorageAreaWrite);
ARM GAS  /tmp/ccmTPeQn.s 			page 92


 4165              		.loc 1 839 3
 4166 27e8 70319FE5 		ldr	r3, .L216
 4167              	.LPIC306:
 4168 27ec 03308FE0 		add	r3, pc, r3
 4169 27f0 003093E5 		ldr	r3, [r3]
 4170 27f4 000053E3 		cmp	r3, #0
 4171 27f8 1100001A 		bne	.L211
 4172              		.loc 1 839 3 is_stmt 0 discriminator 1
 4173 27fc 60319FE5 		ldr	r3, .L216+4
 4174              	.LPIC307:
 4175 2800 03308FE0 		add	r3, pc, r3
 4176 2804 08308DE5 		str	r3, [sp, #8]
 4177 2808 58319FE5 		ldr	r3, .L216+8
 4178              	.LPIC308:
 4179 280c 03308FE0 		add	r3, pc, r3
 4180 2810 04308DE5 		str	r3, [sp, #4]
 4181 2814 0030E0E3 		mvn	r3, #0
 4182 2818 00308DE5 		str	r3, [sp]
 4183 281c 473300E3 		movw	r3, #839
 4184 2820 44219FE5 		ldr	r2, .L216+12
 4185              	.LPIC309:
 4186 2824 02208FE0 		add	r2, pc, r2
 4187 2828 40119FE5 		ldr	r1, .L216+16
 4188              	.LPIC310:
 4189 282c 01108FE0 		add	r1, pc, r1
 4190 2830 4500A0E3 		mov	r0, #69
 4191 2834 FEFFFFEB 		bl	siFormattedMessage_SC(PLT)
 4192 2838 0030E0E3 		mvn	r3, #0
 4193 283c 08300BE5 		str	r3, [fp, #-8]
 4194 2840 420000EA 		b	.L212
 4195              	.L211:
 840:/home/hkh/git/eapidk-code-r76-trunk/lib/linux/../EApiAPI.cpp **** #if (STRICT_VALIDATION>1)
 841:/home/hkh/git/eapidk-code-r76-trunk/lib/linux/../EApiAPI.cpp ****   siFormattedMessage_M2(
 4196              		.loc 1 841 3 is_stmt 1
 4197 2844 1C301BE5 		ldr	r3, [fp, #-28]
 4198 2848 10308DE5 		str	r3, [sp, #16]
 4199 284c 14301BE5 		ldr	r3, [fp, #-20]
 4200 2850 0C308DE5 		str	r3, [sp, #12]
 4201 2854 10301BE5 		ldr	r3, [fp, #-16]
 4202 2858 08308DE5 		str	r3, [sp, #8]
 4203 285c 10319FE5 		ldr	r3, .L216+20
 4204              	.LPIC311:
 4205 2860 03308FE0 		add	r3, pc, r3
 4206 2864 04308DE5 		str	r3, [sp, #4]
 4207 2868 08319FE5 		ldr	r3, .L216+24
 4208              	.LPIC312:
 4209 286c 03308FE0 		add	r3, pc, r3
 4210 2870 00308DE5 		str	r3, [sp]
 4211 2874 4D3300E3 		movw	r3, #845
 4212 2878 FC209FE5 		ldr	r2, .L216+28
 4213              	.LPIC313:
 4214 287c 02208FE0 		add	r2, pc, r2
 4215 2880 F8109FE5 		ldr	r1, .L216+32
 4216              	.LPIC314:
 4217 2884 01108FE0 		add	r1, pc, r1
 4218 2888 4C00A0E3 		mov	r0, #76
 4219 288c FEFFFFEB 		bl	siFormattedMessage_M2(PLT)
ARM GAS  /tmp/ccmTPeQn.s 			page 93


 842:/home/hkh/git/eapidk-code-r76-trunk/lib/linux/../EApiAPI.cpp ****           'L'                   ,
 843:/home/hkh/git/eapidk-code-r76-trunk/lib/linux/../EApiAPI.cpp ****           __FILE__              ,
 844:/home/hkh/git/eapidk-code-r76-trunk/lib/linux/../EApiAPI.cpp ****           "EApiI2CWriteTransfer",
 845:/home/hkh/git/eapidk-code-r76-trunk/lib/linux/../EApiAPI.cpp ****           __LINE__              ,
 846:/home/hkh/git/eapidk-code-r76-trunk/lib/linux/../EApiAPI.cpp ****           "Info"                ,
 847:/home/hkh/git/eapidk-code-r76-trunk/lib/linux/../EApiAPI.cpp ****           "Id=%08"PRIX32" Offset=%04"PRIX32
 848:/home/hkh/git/eapidk-code-r76-trunk/lib/linux/../EApiAPI.cpp ****           " ByteCnt=%04"PRIX32"\n",
 849:/home/hkh/git/eapidk-code-r76-trunk/lib/linux/../EApiAPI.cpp ****           Id, Offset, ByteCnt
 850:/home/hkh/git/eapidk-code-r76-trunk/lib/linux/../EApiAPI.cpp ****         );
 851:/home/hkh/git/eapidk-code-r76-trunk/lib/linux/../EApiAPI.cpp **** #endif
 852:/home/hkh/git/eapidk-code-r76-trunk/lib/linux/../EApiAPI.cpp ****   EAPI_LIB_ASSERT_PARAMATER_NULL(EApiStorageAreaWrite, pBuffer);
 4220              		.loc 1 852 3
 4221 2890 18301BE5 		ldr	r3, [fp, #-24]
 4222 2894 000053E3 		cmp	r3, #0
 4223 2898 1100001A 		bne	.L213
 4224              		.loc 1 852 3 is_stmt 0 discriminator 1
 4225 289c E0309FE5 		ldr	r3, .L216+36
 4226              	.LPIC315:
 4227 28a0 03308FE0 		add	r3, pc, r3
 4228 28a4 08308DE5 		str	r3, [sp, #8]
 4229 28a8 D8309FE5 		ldr	r3, .L216+40
 4230              	.LPIC316:
 4231 28ac 03308FE0 		add	r3, pc, r3
 4232 28b0 04308DE5 		str	r3, [sp, #4]
 4233 28b4 013CE0E3 		mvn	r3, #256
 4234 28b8 00308DE5 		str	r3, [sp]
 4235 28bc D53FA0E3 		mov	r3, #852
 4236 28c0 C4209FE5 		ldr	r2, .L216+44
 4237              	.LPIC317:
 4238 28c4 02208FE0 		add	r2, pc, r2
 4239 28c8 C0109FE5 		ldr	r1, .L216+48
 4240              	.LPIC318:
 4241 28cc 01108FE0 		add	r1, pc, r1
 4242 28d0 4500A0E3 		mov	r0, #69
 4243 28d4 FEFFFFEB 		bl	siFormattedMessage_SC(PLT)
 4244 28d8 013CE0E3 		mvn	r3, #256
 4245 28dc 08300BE5 		str	r3, [fp, #-8]
 4246 28e0 1A0000EA 		b	.L212
 4247              	.L213:
 853:/home/hkh/git/eapidk-code-r76-trunk/lib/linux/../EApiAPI.cpp ****   EAPI_LIB_ASSERT_PARAMATER_ZERO(EApiStorageAreaWrite, ByteCnt);
 4248              		.loc 1 853 3 is_stmt 1
 4249 28e4 1C301BE5 		ldr	r3, [fp, #-28]
 4250 28e8 000053E3 		cmp	r3, #0
 4251 28ec 1100001A 		bne	.L214
 4252              		.loc 1 853 3 is_stmt 0 discriminator 1
 4253 28f0 9C309FE5 		ldr	r3, .L216+52
 4254              	.LPIC319:
 4255 28f4 03308FE0 		add	r3, pc, r3
 4256 28f8 08308DE5 		str	r3, [sp, #8]
 4257 28fc 94309FE5 		ldr	r3, .L216+56
 4258              	.LPIC320:
