ARM GAS  /tmp/ccf3bFwG.s 			page 1


   1              		.cpu cortex-a9
   2              		.eabi_attribute 28, 1
   3              		.eabi_attribute 20, 1
   4              		.eabi_attribute 21, 1
   5              		.eabi_attribute 23, 3
   6              		.eabi_attribute 24, 1
   7              		.eabi_attribute 25, 1
   8              		.eabi_attribute 26, 2
   9              		.eabi_attribute 30, 2
  10              		.eabi_attribute 34, 1
  11              		.eabi_attribute 18, 4
  12              		.file	"BinFuncs.c"
  13              		.text
  14              	.Ltext0:
  15              		.cfi_sections	.debug_frame
  16              		.section	.rodata.str1.4,"aMS",%progbits,1
  17              		.align	2
  18              	.LC0:
  19 0000 75313643 		.ascii	"u16CRC_CCITT_bytes\000"
  19      52435F43 
  19      43495454 
  19      5F627974 
  19      657300
  20 0013 00       		.align	2
  21              	.LC1:
  22 0014 2F686F6D 		.ascii	"/home/hkh/git/eapidk-code-r76-trunk/apps/EeePProg/l"
  22      652F686B 
  22      682F6769 
  22      742F6561 
  22      7069646B 
  23 0047 696E7578 		.ascii	"inux/../BinFuncs.c\000"
  23      2F2E2E2F 
  23      42696E46 
  23      756E6373 
  23      2E6300
  24 005a 0000     		.align	2
  25              	.LC2:
  26 005c 28706376 		.ascii	"(pcvBuffer==NULL)\000"
  26      42756666 
  26      65723D3D 
  26      4E554C4C 
  26      2900
  27 006e 0000     		.align	2
  28              	.LC3:
  29 0070 25730A00 		.ascii	"%s\012\000"
  30              		.text
  31              		.align	2
  32              		.global	u16CRC_CCITT_bytes
  33              		.arch armv7-a
  34              		.arch_extension mp
  35              		.arch_extension sec
  36              		.syntax unified
  37              		.arm
  38              		.fpu vfpv3
  40              	u16CRC_CCITT_bytes:
  41              	.LVL0:
  42              	.LFB5:
ARM GAS  /tmp/ccf3bFwG.s 			page 2


  43              		.file 1 "/home/hkh/git/eapidk-code-r76-trunk/apps/EeePProg/linux/../BinFuncs.c"
   1:/home/hkh/git/eapidk-code-r76-trunk/apps/EeePProg/linux/../BinFuncs.c **** /*
   2:/home/hkh/git/eapidk-code-r76-trunk/apps/EeePProg/linux/../BinFuncs.c ****  *<KHeader>
   3:/home/hkh/git/eapidk-code-r76-trunk/apps/EeePProg/linux/../BinFuncs.c ****  *+=========================================================================
   4:/home/hkh/git/eapidk-code-r76-trunk/apps/EeePProg/linux/../BinFuncs.c ****  *I  Project Name: EApiDK Embedded Application Development Kit
   5:/home/hkh/git/eapidk-code-r76-trunk/apps/EeePProg/linux/../BinFuncs.c ****  *+=========================================================================
   6:/home/hkh/git/eapidk-code-r76-trunk/apps/EeePProg/linux/../BinFuncs.c ****  *I  $HeadURL: file:///svn/p/eapidk/code/trunk/apps/EeePProg/BinFuncs.c $
   7:/home/hkh/git/eapidk-code-r76-trunk/apps/EeePProg/linux/../BinFuncs.c ****  *+=========================================================================
   8:/home/hkh/git/eapidk-code-r76-trunk/apps/EeePProg/linux/../BinFuncs.c ****  *I   Copyright: Copyright (c) 2002-2010, Kontron Embedded Modules GmbH
   9:/home/hkh/git/eapidk-code-r76-trunk/apps/EeePProg/linux/../BinFuncs.c ****  *I      Author: John Kearney,                  John.Kearney@kontron.com
  10:/home/hkh/git/eapidk-code-r76-trunk/apps/EeePProg/linux/../BinFuncs.c ****  *I
  11:/home/hkh/git/eapidk-code-r76-trunk/apps/EeePProg/linux/../BinFuncs.c ****  *I     License: This program contains proprietary and confidential 
  12:/home/hkh/git/eapidk-code-r76-trunk/apps/EeePProg/linux/../BinFuncs.c ****  *I              information. All rights reserved except as may be 
  13:/home/hkh/git/eapidk-code-r76-trunk/apps/EeePProg/linux/../BinFuncs.c ****  *I              permitted by prior written consent.
  14:/home/hkh/git/eapidk-code-r76-trunk/apps/EeePProg/linux/../BinFuncs.c ****  *I
  15:/home/hkh/git/eapidk-code-r76-trunk/apps/EeePProg/linux/../BinFuncs.c ****  *I Description: Auto Created for sprintf.c
  16:/home/hkh/git/eapidk-code-r76-trunk/apps/EeePProg/linux/../BinFuncs.c ****  *I
  17:/home/hkh/git/eapidk-code-r76-trunk/apps/EeePProg/linux/../BinFuncs.c ****  *+-------------------------------------------------------------------------
  18:/home/hkh/git/eapidk-code-r76-trunk/apps/EeePProg/linux/../BinFuncs.c ****  *I
  19:/home/hkh/git/eapidk-code-r76-trunk/apps/EeePProg/linux/../BinFuncs.c ****  *I  File Name            : BinFuncs.c
  20:/home/hkh/git/eapidk-code-r76-trunk/apps/EeePProg/linux/../BinFuncs.c ****  *I  File Location        : apps\EeePProg
  21:/home/hkh/git/eapidk-code-r76-trunk/apps/EeePProg/linux/../BinFuncs.c ****  *I  Last committed       : $Revision: 75 $
  22:/home/hkh/git/eapidk-code-r76-trunk/apps/EeePProg/linux/../BinFuncs.c ****  *I  Last changed by      : $Author: dethrophes $
  23:/home/hkh/git/eapidk-code-r76-trunk/apps/EeePProg/linux/../BinFuncs.c ****  *I  Last changed date    : $Date: 2010-06-28 23:50:38 +0000 (Mon, 28 Jun 2010) $
  24:/home/hkh/git/eapidk-code-r76-trunk/apps/EeePProg/linux/../BinFuncs.c ****  *I  ID                   : $Id: BinFuncs.c 75 2010-06-28 23:50:38Z dethrophes $
  25:/home/hkh/git/eapidk-code-r76-trunk/apps/EeePProg/linux/../BinFuncs.c ****  *I
  26:/home/hkh/git/eapidk-code-r76-trunk/apps/EeePProg/linux/../BinFuncs.c ****  *+=========================================================================
  27:/home/hkh/git/eapidk-code-r76-trunk/apps/EeePProg/linux/../BinFuncs.c ****  *</KHeader>
  28:/home/hkh/git/eapidk-code-r76-trunk/apps/EeePProg/linux/../BinFuncs.c ****  */
  29:/home/hkh/git/eapidk-code-r76-trunk/apps/EeePProg/linux/../BinFuncs.c **** 
  30:/home/hkh/git/eapidk-code-r76-trunk/apps/EeePProg/linux/../BinFuncs.c **** #include <EeePApp.h>
  31:/home/hkh/git/eapidk-code-r76-trunk/apps/EeePProg/linux/../BinFuncs.c **** 
  32:/home/hkh/git/eapidk-code-r76-trunk/apps/EeePProg/linux/../BinFuncs.c **** /*
  33:/home/hkh/git/eapidk-code-r76-trunk/apps/EeePProg/linux/../BinFuncs.c ****  *
  34:/home/hkh/git/eapidk-code-r76-trunk/apps/EeePProg/linux/../BinFuncs.c ****  *
  35:/home/hkh/git/eapidk-code-r76-trunk/apps/EeePProg/linux/../BinFuncs.c ****  *
  36:/home/hkh/git/eapidk-code-r76-trunk/apps/EeePProg/linux/../BinFuncs.c ****  *  Ckecksum
  37:/home/hkh/git/eapidk-code-r76-trunk/apps/EeePProg/linux/../BinFuncs.c ****  *
  38:/home/hkh/git/eapidk-code-r76-trunk/apps/EeePProg/linux/../BinFuncs.c ****  *
  39:/home/hkh/git/eapidk-code-r76-trunk/apps/EeePProg/linux/../BinFuncs.c ****  *
  40:/home/hkh/git/eapidk-code-r76-trunk/apps/EeePProg/linux/../BinFuncs.c ****  */
  41:/home/hkh/git/eapidk-code-r76-trunk/apps/EeePProg/linux/../BinFuncs.c **** uint32_t 
  42:/home/hkh/git/eapidk-code-r76-trunk/apps/EeePProg/linux/../BinFuncs.c **** u32ChecksumBlock(
  43:/home/hkh/git/eapidk-code-r76-trunk/apps/EeePProg/linux/../BinFuncs.c **** 	const void *pcvBuffer, 
  44:/home/hkh/git/eapidk-code-r76-trunk/apps/EeePProg/linux/../BinFuncs.c **** 	size_t  	  stLength
  45:/home/hkh/git/eapidk-code-r76-trunk/apps/EeePProg/linux/../BinFuncs.c **** 	)
  46:/home/hkh/git/eapidk-code-r76-trunk/apps/EeePProg/linux/../BinFuncs.c **** {
  47:/home/hkh/git/eapidk-code-r76-trunk/apps/EeePProg/linux/../BinFuncs.c ****   uint32_t ChkSum=0;
  48:/home/hkh/git/eapidk-code-r76-trunk/apps/EeePProg/linux/../BinFuncs.c ****   while(stLength--){
  49:/home/hkh/git/eapidk-code-r76-trunk/apps/EeePProg/linux/../BinFuncs.c ****     ChkSum+=(uint32_t)(*((uint8_t*)pcvBuffer));
  50:/home/hkh/git/eapidk-code-r76-trunk/apps/EeePProg/linux/../BinFuncs.c ****     pcvBuffer=((uint8_t*)pcvBuffer)+1;
  51:/home/hkh/git/eapidk-code-r76-trunk/apps/EeePProg/linux/../BinFuncs.c ****   }
  52:/home/hkh/git/eapidk-code-r76-trunk/apps/EeePProg/linux/../BinFuncs.c ****   return ChkSum;
  53:/home/hkh/git/eapidk-code-r76-trunk/apps/EeePProg/linux/../BinFuncs.c **** }
  54:/home/hkh/git/eapidk-code-r76-trunk/apps/EeePProg/linux/../BinFuncs.c **** uint16_t 
  55:/home/hkh/git/eapidk-code-r76-trunk/apps/EeePProg/linux/../BinFuncs.c **** u16ChecksumBlock(
  56:/home/hkh/git/eapidk-code-r76-trunk/apps/EeePProg/linux/../BinFuncs.c **** 	const void * pcvBuffer, 
ARM GAS  /tmp/ccf3bFwG.s 			page 3


  57:/home/hkh/git/eapidk-code-r76-trunk/apps/EeePProg/linux/../BinFuncs.c **** 	size_t   	   stLength
  58:/home/hkh/git/eapidk-code-r76-trunk/apps/EeePProg/linux/../BinFuncs.c **** 	)
  59:/home/hkh/git/eapidk-code-r76-trunk/apps/EeePProg/linux/../BinFuncs.c **** {
  60:/home/hkh/git/eapidk-code-r76-trunk/apps/EeePProg/linux/../BinFuncs.c ****   return EEEP_LO_UINT16(u32ChecksumBlock(pcvBuffer, stLength));
  61:/home/hkh/git/eapidk-code-r76-trunk/apps/EeePProg/linux/../BinFuncs.c **** }
  62:/home/hkh/git/eapidk-code-r76-trunk/apps/EeePProg/linux/../BinFuncs.c **** uint8_t  
  63:/home/hkh/git/eapidk-code-r76-trunk/apps/EeePProg/linux/../BinFuncs.c **** u8ChecksumBlock (
  64:/home/hkh/git/eapidk-code-r76-trunk/apps/EeePProg/linux/../BinFuncs.c **** 	const void * pcvBuffer, 
  65:/home/hkh/git/eapidk-code-r76-trunk/apps/EeePProg/linux/../BinFuncs.c **** 	size_t   	   stLength
  66:/home/hkh/git/eapidk-code-r76-trunk/apps/EeePProg/linux/../BinFuncs.c **** 	)
  67:/home/hkh/git/eapidk-code-r76-trunk/apps/EeePProg/linux/../BinFuncs.c **** {
  68:/home/hkh/git/eapidk-code-r76-trunk/apps/EeePProg/linux/../BinFuncs.c ****   return EEEP_LO_UINT8(u32ChecksumBlock(pcvBuffer, stLength));
  69:/home/hkh/git/eapidk-code-r76-trunk/apps/EeePProg/linux/../BinFuncs.c **** }
  70:/home/hkh/git/eapidk-code-r76-trunk/apps/EeePProg/linux/../BinFuncs.c **** 
  71:/home/hkh/git/eapidk-code-r76-trunk/apps/EeePProg/linux/../BinFuncs.c **** typedef struct CRC_State_s{
  72:/home/hkh/git/eapidk-code-r76-trunk/apps/EeePProg/linux/../BinFuncs.c ****   unsigned   CRC;
  73:/home/hkh/git/eapidk-code-r76-trunk/apps/EeePProg/linux/../BinFuncs.c ****   size_t     Cnt;
  74:/home/hkh/git/eapidk-code-r76-trunk/apps/EeePProg/linux/../BinFuncs.c **** }CRC_State_t;
  75:/home/hkh/git/eapidk-code-r76-trunk/apps/EeePProg/linux/../BinFuncs.c **** 
  76:/home/hkh/git/eapidk-code-r76-trunk/apps/EeePProg/linux/../BinFuncs.c **** EApiStatus_t
  77:/home/hkh/git/eapidk-code-r76-trunk/apps/EeePProg/linux/../BinFuncs.c **** u16CRC_CCITT_init (
  78:/home/hkh/git/eapidk-code-r76-trunk/apps/EeePProg/linux/../BinFuncs.c ****     void**pContext
  79:/home/hkh/git/eapidk-code-r76-trunk/apps/EeePProg/linux/../BinFuncs.c ****     )
  80:/home/hkh/git/eapidk-code-r76-trunk/apps/EeePProg/linux/../BinFuncs.c **** {
  81:/home/hkh/git/eapidk-code-r76-trunk/apps/EeePProg/linux/../BinFuncs.c ****   EApiStatus_t StatusCode=EAPI_STATUS_SUCCESS;
  82:/home/hkh/git/eapidk-code-r76-trunk/apps/EeePProg/linux/../BinFuncs.c ****   CRC_State_t * pCRC;
  83:/home/hkh/git/eapidk-code-r76-trunk/apps/EeePProg/linux/../BinFuncs.c ****   EAPI_APP_ASSERT_PARAMATER_NULL(
  84:/home/hkh/git/eapidk-code-r76-trunk/apps/EeePProg/linux/../BinFuncs.c ****       u16CRC_CCITT_init,
  85:/home/hkh/git/eapidk-code-r76-trunk/apps/EeePProg/linux/../BinFuncs.c ****       EAPI_STATUS_INVALID_PARAMETER,
  86:/home/hkh/git/eapidk-code-r76-trunk/apps/EeePProg/linux/../BinFuncs.c ****       pContext
  87:/home/hkh/git/eapidk-code-r76-trunk/apps/EeePProg/linux/../BinFuncs.c ****       );
  88:/home/hkh/git/eapidk-code-r76-trunk/apps/EeePProg/linux/../BinFuncs.c ****   *pContext=pCRC=malloc(sizeof(CRC_State_t));
  89:/home/hkh/git/eapidk-code-r76-trunk/apps/EeePProg/linux/../BinFuncs.c ****   EAPI_APP_ASSERT_PARAMATER_NULL(
  90:/home/hkh/git/eapidk-code-r76-trunk/apps/EeePProg/linux/../BinFuncs.c ****       u16CRC_CCITT_init,
  91:/home/hkh/git/eapidk-code-r76-trunk/apps/EeePProg/linux/../BinFuncs.c ****       EAPI_STATUS_ALLOC_ERROR,
  92:/home/hkh/git/eapidk-code-r76-trunk/apps/EeePProg/linux/../BinFuncs.c ****       pCRC
  93:/home/hkh/git/eapidk-code-r76-trunk/apps/EeePProg/linux/../BinFuncs.c ****       );
  94:/home/hkh/git/eapidk-code-r76-trunk/apps/EeePProg/linux/../BinFuncs.c ****   pCRC->CRC=0;
  95:/home/hkh/git/eapidk-code-r76-trunk/apps/EeePProg/linux/../BinFuncs.c ****   pCRC->Cnt=0;
  96:/home/hkh/git/eapidk-code-r76-trunk/apps/EeePProg/linux/../BinFuncs.c **** 
  97:/home/hkh/git/eapidk-code-r76-trunk/apps/EeePProg/linux/../BinFuncs.c **** EAPI_APP_ASSERT_EXIT
  98:/home/hkh/git/eapidk-code-r76-trunk/apps/EeePProg/linux/../BinFuncs.c ****   return StatusCode;
  99:/home/hkh/git/eapidk-code-r76-trunk/apps/EeePProg/linux/../BinFuncs.c **** }
 100:/home/hkh/git/eapidk-code-r76-trunk/apps/EeePProg/linux/../BinFuncs.c **** 
 101:/home/hkh/git/eapidk-code-r76-trunk/apps/EeePProg/linux/../BinFuncs.c **** /*
 102:/home/hkh/git/eapidk-code-r76-trunk/apps/EeePProg/linux/../BinFuncs.c ****  *
 103:/home/hkh/git/eapidk-code-r76-trunk/apps/EeePProg/linux/../BinFuncs.c ****  *
 104:/home/hkh/git/eapidk-code-r76-trunk/apps/EeePProg/linux/../BinFuncs.c ****  *
 105:/home/hkh/git/eapidk-code-r76-trunk/apps/EeePProg/linux/../BinFuncs.c ****  *  CRC_CCITT
 106:/home/hkh/git/eapidk-code-r76-trunk/apps/EeePProg/linux/../BinFuncs.c ****  *
 107:/home/hkh/git/eapidk-code-r76-trunk/apps/EeePProg/linux/../BinFuncs.c ****  *
 108:/home/hkh/git/eapidk-code-r76-trunk/apps/EeePProg/linux/../BinFuncs.c ****  *
 109:/home/hkh/git/eapidk-code-r76-trunk/apps/EeePProg/linux/../BinFuncs.c ****  */
 110:/home/hkh/git/eapidk-code-r76-trunk/apps/EeePProg/linux/../BinFuncs.c **** EApiStatus_t
 111:/home/hkh/git/eapidk-code-r76-trunk/apps/EeePProg/linux/../BinFuncs.c **** u16CRC_CCITT_bytes (
 112:/home/hkh/git/eapidk-code-r76-trunk/apps/EeePProg/linux/../BinFuncs.c ****     __IN       void *pContext , /* CRC Context       */
 113:/home/hkh/git/eapidk-code-r76-trunk/apps/EeePProg/linux/../BinFuncs.c ****     __IN const void *pcvBuffer, /* Pointer to Buffer */
ARM GAS  /tmp/ccf3bFwG.s 			page 4


 114:/home/hkh/git/eapidk-code-r76-trunk/apps/EeePProg/linux/../BinFuncs.c ****     __IN size_t      stCount    /* Num bytes to CRC */
 115:/home/hkh/git/eapidk-code-r76-trunk/apps/EeePProg/linux/../BinFuncs.c ****   )
 116:/home/hkh/git/eapidk-code-r76-trunk/apps/EeePProg/linux/../BinFuncs.c **** { 
  44              		.loc 1 116 1 view -0
  45              		.cfi_startproc
  46              		@ args = 0, pretend = 0, frame = 0
  47              		@ frame_needed = 0, uses_anonymous_args = 0
 117:/home/hkh/git/eapidk-code-r76-trunk/apps/EeePProg/linux/../BinFuncs.c ****   EApiStatus_t StatusCode=EAPI_STATUS_SUCCESS;
  48              		.loc 1 117 3 view .LVU1
 118:/home/hkh/git/eapidk-code-r76-trunk/apps/EeePProg/linux/../BinFuncs.c ****   const uint8_t *pcu8Buffer     =pcvBuffer; 
  49              		.loc 1 118 3 view .LVU2
 119:/home/hkh/git/eapidk-code-r76-trunk/apps/EeePProg/linux/../BinFuncs.c ****   CRC_State_t   *pCRC           =pContext ;
  50              		.loc 1 119 3 view .LVU3
 120:/home/hkh/git/eapidk-code-r76-trunk/apps/EeePProg/linux/../BinFuncs.c ****   unsigned       CRC            =pCRC->CRC;
  51              		.loc 1 120 3 view .LVU4
 121:/home/hkh/git/eapidk-code-r76-trunk/apps/EeePProg/linux/../BinFuncs.c ****   unsigned       i; 
 122:/home/hkh/git/eapidk-code-r76-trunk/apps/EeePProg/linux/../BinFuncs.c ****   EAPI_APP_ASSERT_PARAMATER_NULL(
  52              		.loc 1 122 3 is_stmt 0 view .LVU5
  53 0000 000051E3 		cmp	r1, #0
 116:/home/hkh/git/eapidk-code-r76-trunk/apps/EeePProg/linux/../BinFuncs.c ****   EApiStatus_t StatusCode=EAPI_STATUS_SUCCESS;
  54              		.loc 1 116 1 view .LVU6
  55 0004 10402DE9 		push	{r4, lr}
  56              		.cfi_def_cfa_offset 8
  57              		.cfi_offset 4, -8
  58              		.cfi_offset 14, -4
 120:/home/hkh/git/eapidk-code-r76-trunk/apps/EeePProg/linux/../BinFuncs.c ****   unsigned       CRC            =pCRC->CRC;
  59              		.loc 1 120 18 view .LVU7
  60 0008 003090E5 		ldr	r3, [r0]
  61              	.LVL1:
 121:/home/hkh/git/eapidk-code-r76-trunk/apps/EeePProg/linux/../BinFuncs.c ****   unsigned       i; 
  62              		.loc 1 121 3 is_stmt 1 view .LVU8
  63              		.loc 1 122 3 view .LVU9
 116:/home/hkh/git/eapidk-code-r76-trunk/apps/EeePProg/linux/../BinFuncs.c ****   EApiStatus_t StatusCode=EAPI_STATUS_SUCCESS;
  64              		.loc 1 116 1 is_stmt 0 view .LVU10
  65 000c 10D04DE2 		sub	sp, sp, #16
  66              		.cfi_def_cfa_offset 24
  67              		.loc 1 122 3 view .LVU11
  68 0010 2700000A 		beq	.L44
  69 0014 00E0A0E1 		mov	lr, r0
  70              		.loc 1 122 3 is_stmt 1 discriminator 2 view .LVU12
 123:/home/hkh/git/eapidk-code-r76-trunk/apps/EeePProg/linux/../BinFuncs.c ****       u16CRC_CCITT_bytes,
 124:/home/hkh/git/eapidk-code-r76-trunk/apps/EeePProg/linux/../BinFuncs.c ****       EAPI_STATUS_INVALID_PARAMETER,
 125:/home/hkh/git/eapidk-code-r76-trunk/apps/EeePProg/linux/../BinFuncs.c ****       pcvBuffer
 126:/home/hkh/git/eapidk-code-r76-trunk/apps/EeePProg/linux/../BinFuncs.c ****       );
  71              		.loc 1 126 8 discriminator 2 view .LVU13
 127:/home/hkh/git/eapidk-code-r76-trunk/apps/EeePProg/linux/../BinFuncs.c **** 
 128:/home/hkh/git/eapidk-code-r76-trunk/apps/EeePProg/linux/../BinFuncs.c **** 
 129:/home/hkh/git/eapidk-code-r76-trunk/apps/EeePProg/linux/../BinFuncs.c **** /*   printf("L%04i 0x%04X 0x%04lX\n", __LINE__, CRC&0xFFFF, (unsigned long)pCRC->Cnt); */
 130:/home/hkh/git/eapidk-code-r76-trunk/apps/EeePProg/linux/../BinFuncs.c **** /*   PrintHexAsciiTable(pcvBuffer, stCount, pcu8Buffer - pCRC->Cnt, NULL); */
 131:/home/hkh/git/eapidk-code-r76-trunk/apps/EeePProg/linux/../BinFuncs.c ****   pCRC->Cnt+=stCount;
  72              		.loc 1 131 3 discriminator 2 view .LVU14
  73              		.loc 1 131 12 is_stmt 0 discriminator 2 view .LVU15
  74 0018 040090E5 		ldr	r0, [r0, #4]
  75              	.LVL2:
 132:/home/hkh/git/eapidk-code-r76-trunk/apps/EeePProg/linux/../BinFuncs.c ****   while (stCount --) { 
  76              		.loc 1 132 10 discriminator 2 view .LVU16
  77 001c 000052E3 		cmp	r2, #0
ARM GAS  /tmp/ccf3bFwG.s 			page 5


 131:/home/hkh/git/eapidk-code-r76-trunk/apps/EeePProg/linux/../BinFuncs.c ****   while (stCount --) { 
  78              		.loc 1 131 12 discriminator 2 view .LVU17
  79 0020 020080E0 		add	r0, r0, r2
  80 0024 04008EE5 		str	r0, [lr, #4]
  81              		.loc 1 132 3 is_stmt 1 discriminator 2 view .LVU18
  82              		.loc 1 132 10 discriminator 2 view .LVU19
  83              	.LVL3:
  84              		.loc 1 132 10 is_stmt 0 discriminator 2 view .LVU20
  85 0028 1D00000A 		beq	.L4
  86 002c 020081E0 		add	r0, r1, r2
 133:/home/hkh/git/eapidk-code-r76-trunk/apps/EeePProg/linux/../BinFuncs.c ****     CRC^= *pcu8Buffer++ << 8; 
 134:/home/hkh/git/eapidk-code-r76-trunk/apps/EeePProg/linux/../BinFuncs.c ****     for (i = 8; i ; i --){ 
 135:/home/hkh/git/eapidk-code-r76-trunk/apps/EeePProg/linux/../BinFuncs.c ****       if (CRC & 0x8000){ 
 136:/home/hkh/git/eapidk-code-r76-trunk/apps/EeePProg/linux/../BinFuncs.c ****         CRC+=CRC; 
 137:/home/hkh/git/eapidk-code-r76-trunk/apps/EeePProg/linux/../BinFuncs.c ****         CRC^=0x1021; 
  87              		.loc 1 137 12 view .LVU21
  88 0030 212001E3 		movw	r2, #4129
  89              	.LVL4:
  90              	.L13:
 133:/home/hkh/git/eapidk-code-r76-trunk/apps/EeePProg/linux/../BinFuncs.c ****     CRC^= *pcu8Buffer++ << 8; 
  91              		.loc 1 133 5 is_stmt 1 view .LVU22
 133:/home/hkh/git/eapidk-code-r76-trunk/apps/EeePProg/linux/../BinFuncs.c ****     CRC^= *pcu8Buffer++ << 8; 
  92              		.loc 1 133 11 is_stmt 0 view .LVU23
  93 0034 01C0D1E4 		ldrb	ip, [r1], #1	@ zero_extendqisi2
  94              	.LVL5:
 133:/home/hkh/git/eapidk-code-r76-trunk/apps/EeePProg/linux/../BinFuncs.c ****     CRC^= *pcu8Buffer++ << 8; 
  95              		.loc 1 133 8 view .LVU24
  96 0038 0C3423E0 		eor	r3, r3, ip, lsl #8
  97              	.LVL6:
 134:/home/hkh/git/eapidk-code-r76-trunk/apps/EeePProg/linux/../BinFuncs.c ****       if (CRC & 0x8000){ 
  98              		.loc 1 134 5 is_stmt 1 view .LVU25
 134:/home/hkh/git/eapidk-code-r76-trunk/apps/EeePProg/linux/../BinFuncs.c ****       if (CRC & 0x8000){ 
  99              		.loc 1 134 17 view .LVU26
 135:/home/hkh/git/eapidk-code-r76-trunk/apps/EeePProg/linux/../BinFuncs.c ****         CRC+=CRC; 
 100              		.loc 1 135 7 view .LVU27
 135:/home/hkh/git/eapidk-code-r76-trunk/apps/EeePProg/linux/../BinFuncs.c ****         CRC+=CRC; 
 101              		.loc 1 135 10 is_stmt 0 view .LVU28
 102 003c 020913E3 		tst	r3, #32768
 138:/home/hkh/git/eapidk-code-r76-trunk/apps/EeePProg/linux/../BinFuncs.c ****       }else{ 
 139:/home/hkh/git/eapidk-code-r76-trunk/apps/EeePProg/linux/../BinFuncs.c ****         CRC+=CRC; 
 103              		.loc 1 139 12 view .LVU29
 104 0040 8330A0E1 		lsl	r3, r3, #1
 105              	.LVL7:
 136:/home/hkh/git/eapidk-code-r76-trunk/apps/EeePProg/linux/../BinFuncs.c ****         CRC^=0x1021; 
 106              		.loc 1 136 9 is_stmt 1 view .LVU30
 137:/home/hkh/git/eapidk-code-r76-trunk/apps/EeePProg/linux/../BinFuncs.c ****       }else{ 
 107              		.loc 1 137 9 view .LVU31
 137:/home/hkh/git/eapidk-code-r76-trunk/apps/EeePProg/linux/../BinFuncs.c ****       }else{ 
 108              		.loc 1 137 12 is_stmt 0 view .LVU32
 109 0044 02302310 		eorne	r3, r3, r2
 134:/home/hkh/git/eapidk-code-r76-trunk/apps/EeePProg/linux/../BinFuncs.c ****       if (CRC & 0x8000){ 
 110              		.loc 1 134 23 is_stmt 1 view .LVU33
 111              	.LVL8:
 134:/home/hkh/git/eapidk-code-r76-trunk/apps/EeePProg/linux/../BinFuncs.c ****       if (CRC & 0x8000){ 
 112              		.loc 1 134 17 view .LVU34
 135:/home/hkh/git/eapidk-code-r76-trunk/apps/EeePProg/linux/../BinFuncs.c ****         CRC+=CRC; 
 113              		.loc 1 135 7 view .LVU35
ARM GAS  /tmp/ccf3bFwG.s 			page 6


 135:/home/hkh/git/eapidk-code-r76-trunk/apps/EeePProg/linux/../BinFuncs.c ****         CRC+=CRC; 
 114              		.loc 1 135 10 is_stmt 0 view .LVU36
 115 0048 020913E3 		tst	r3, #32768
 116              		.loc 1 139 12 view .LVU37
 117 004c 8330A0E1 		lsl	r3, r3, #1
 136:/home/hkh/git/eapidk-code-r76-trunk/apps/EeePProg/linux/../BinFuncs.c ****         CRC^=0x1021; 
 118              		.loc 1 136 9 is_stmt 1 view .LVU38
 137:/home/hkh/git/eapidk-code-r76-trunk/apps/EeePProg/linux/../BinFuncs.c ****       }else{ 
 119              		.loc 1 137 9 view .LVU39
 137:/home/hkh/git/eapidk-code-r76-trunk/apps/EeePProg/linux/../BinFuncs.c ****       }else{ 
 120              		.loc 1 137 12 is_stmt 0 view .LVU40
 121 0050 02302310 		eorne	r3, r3, r2
 134:/home/hkh/git/eapidk-code-r76-trunk/apps/EeePProg/linux/../BinFuncs.c ****       if (CRC & 0x8000){ 
 122              		.loc 1 134 23 is_stmt 1 view .LVU41
 123              	.LVL9:
 134:/home/hkh/git/eapidk-code-r76-trunk/apps/EeePProg/linux/../BinFuncs.c ****       if (CRC & 0x8000){ 
 124              		.loc 1 134 17 view .LVU42
 135:/home/hkh/git/eapidk-code-r76-trunk/apps/EeePProg/linux/../BinFuncs.c ****         CRC+=CRC; 
 125              		.loc 1 135 7 view .LVU43
 135:/home/hkh/git/eapidk-code-r76-trunk/apps/EeePProg/linux/../BinFuncs.c ****         CRC+=CRC; 
 126              		.loc 1 135 10 is_stmt 0 view .LVU44
 127 0054 020913E3 		tst	r3, #32768
 128              		.loc 1 139 12 view .LVU45
 129 0058 8330A0E1 		lsl	r3, r3, #1
 136:/home/hkh/git/eapidk-code-r76-trunk/apps/EeePProg/linux/../BinFuncs.c ****         CRC^=0x1021; 
 130              		.loc 1 136 9 is_stmt 1 view .LVU46
 137:/home/hkh/git/eapidk-code-r76-trunk/apps/EeePProg/linux/../BinFuncs.c ****       }else{ 
 131              		.loc 1 137 9 view .LVU47
 137:/home/hkh/git/eapidk-code-r76-trunk/apps/EeePProg/linux/../BinFuncs.c ****       }else{ 
 132              		.loc 1 137 12 is_stmt 0 view .LVU48
 133 005c 02302310 		eorne	r3, r3, r2
 134:/home/hkh/git/eapidk-code-r76-trunk/apps/EeePProg/linux/../BinFuncs.c ****       if (CRC & 0x8000){ 
 134              		.loc 1 134 23 is_stmt 1 view .LVU49
 135              	.LVL10:
 134:/home/hkh/git/eapidk-code-r76-trunk/apps/EeePProg/linux/../BinFuncs.c ****       if (CRC & 0x8000){ 
 136              		.loc 1 134 17 view .LVU50
 135:/home/hkh/git/eapidk-code-r76-trunk/apps/EeePProg/linux/../BinFuncs.c ****         CRC+=CRC; 
 137              		.loc 1 135 7 view .LVU51
 135:/home/hkh/git/eapidk-code-r76-trunk/apps/EeePProg/linux/../BinFuncs.c ****         CRC+=CRC; 
 138              		.loc 1 135 10 is_stmt 0 view .LVU52
 139 0060 020913E3 		tst	r3, #32768
 140              		.loc 1 139 12 view .LVU53
 141 0064 8330A0E1 		lsl	r3, r3, #1
 136:/home/hkh/git/eapidk-code-r76-trunk/apps/EeePProg/linux/../BinFuncs.c ****         CRC^=0x1021; 
 142              		.loc 1 136 9 is_stmt 1 view .LVU54
 137:/home/hkh/git/eapidk-code-r76-trunk/apps/EeePProg/linux/../BinFuncs.c ****       }else{ 
 143              		.loc 1 137 9 view .LVU55
 137:/home/hkh/git/eapidk-code-r76-trunk/apps/EeePProg/linux/../BinFuncs.c ****       }else{ 
 144              		.loc 1 137 12 is_stmt 0 view .LVU56
 145 0068 02302310 		eorne	r3, r3, r2
 134:/home/hkh/git/eapidk-code-r76-trunk/apps/EeePProg/linux/../BinFuncs.c ****       if (CRC & 0x8000){ 
 146              		.loc 1 134 23 is_stmt 1 view .LVU57
 147              	.LVL11:
 134:/home/hkh/git/eapidk-code-r76-trunk/apps/EeePProg/linux/../BinFuncs.c ****       if (CRC & 0x8000){ 
 148              		.loc 1 134 17 view .LVU58
 135:/home/hkh/git/eapidk-code-r76-trunk/apps/EeePProg/linux/../BinFuncs.c ****         CRC+=CRC; 
 149              		.loc 1 135 7 view .LVU59
ARM GAS  /tmp/ccf3bFwG.s 			page 7


 135:/home/hkh/git/eapidk-code-r76-trunk/apps/EeePProg/linux/../BinFuncs.c ****         CRC+=CRC; 
 150              		.loc 1 135 10 is_stmt 0 view .LVU60
 151 006c 020913E3 		tst	r3, #32768
 152              		.loc 1 139 12 view .LVU61
 153 0070 8330A0E1 		lsl	r3, r3, #1
 136:/home/hkh/git/eapidk-code-r76-trunk/apps/EeePProg/linux/../BinFuncs.c ****         CRC^=0x1021; 
 154              		.loc 1 136 9 is_stmt 1 view .LVU62
 137:/home/hkh/git/eapidk-code-r76-trunk/apps/EeePProg/linux/../BinFuncs.c ****       }else{ 
 155              		.loc 1 137 9 view .LVU63
 137:/home/hkh/git/eapidk-code-r76-trunk/apps/EeePProg/linux/../BinFuncs.c ****       }else{ 
 156              		.loc 1 137 12 is_stmt 0 view .LVU64
 157 0074 02302310 		eorne	r3, r3, r2
 134:/home/hkh/git/eapidk-code-r76-trunk/apps/EeePProg/linux/../BinFuncs.c ****       if (CRC & 0x8000){ 
 158              		.loc 1 134 23 is_stmt 1 view .LVU65
 159              	.LVL12:
 134:/home/hkh/git/eapidk-code-r76-trunk/apps/EeePProg/linux/../BinFuncs.c ****       if (CRC & 0x8000){ 
 160              		.loc 1 134 17 view .LVU66
 135:/home/hkh/git/eapidk-code-r76-trunk/apps/EeePProg/linux/../BinFuncs.c ****         CRC+=CRC; 
 161              		.loc 1 135 7 view .LVU67
 135:/home/hkh/git/eapidk-code-r76-trunk/apps/EeePProg/linux/../BinFuncs.c ****         CRC+=CRC; 
 162              		.loc 1 135 10 is_stmt 0 view .LVU68
 163 0078 020913E3 		tst	r3, #32768
 164              		.loc 1 139 12 view .LVU69
 165 007c 8330A0E1 		lsl	r3, r3, #1
 136:/home/hkh/git/eapidk-code-r76-trunk/apps/EeePProg/linux/../BinFuncs.c ****         CRC^=0x1021; 
 166              		.loc 1 136 9 is_stmt 1 view .LVU70
 137:/home/hkh/git/eapidk-code-r76-trunk/apps/EeePProg/linux/../BinFuncs.c ****       }else{ 
 167              		.loc 1 137 9 view .LVU71
 137:/home/hkh/git/eapidk-code-r76-trunk/apps/EeePProg/linux/../BinFuncs.c ****       }else{ 
 168              		.loc 1 137 12 is_stmt 0 view .LVU72
 169 0080 02302310 		eorne	r3, r3, r2
 134:/home/hkh/git/eapidk-code-r76-trunk/apps/EeePProg/linux/../BinFuncs.c ****       if (CRC & 0x8000){ 
 170              		.loc 1 134 23 is_stmt 1 view .LVU73
 171              	.LVL13:
 134:/home/hkh/git/eapidk-code-r76-trunk/apps/EeePProg/linux/../BinFuncs.c ****       if (CRC & 0x8000){ 
 172              		.loc 1 134 17 view .LVU74
 135:/home/hkh/git/eapidk-code-r76-trunk/apps/EeePProg/linux/../BinFuncs.c ****         CRC+=CRC; 
 173              		.loc 1 135 7 view .LVU75
 135:/home/hkh/git/eapidk-code-r76-trunk/apps/EeePProg/linux/../BinFuncs.c ****         CRC+=CRC; 
 174              		.loc 1 135 10 is_stmt 0 view .LVU76
 175 0084 020913E3 		tst	r3, #32768
 176              		.loc 1 139 12 view .LVU77
 177 0088 8330A0E1 		lsl	r3, r3, #1
 136:/home/hkh/git/eapidk-code-r76-trunk/apps/EeePProg/linux/../BinFuncs.c ****         CRC^=0x1021; 
 178              		.loc 1 136 9 is_stmt 1 view .LVU78
 137:/home/hkh/git/eapidk-code-r76-trunk/apps/EeePProg/linux/../BinFuncs.c ****       }else{ 
 179              		.loc 1 137 9 view .LVU79
 137:/home/hkh/git/eapidk-code-r76-trunk/apps/EeePProg/linux/../BinFuncs.c ****       }else{ 
 180              		.loc 1 137 12 is_stmt 0 view .LVU80
 181 008c 02302310 		eorne	r3, r3, r2
 134:/home/hkh/git/eapidk-code-r76-trunk/apps/EeePProg/linux/../BinFuncs.c ****       if (CRC & 0x8000){ 
 182              		.loc 1 134 23 is_stmt 1 view .LVU81
 183              	.LVL14:
 134:/home/hkh/git/eapidk-code-r76-trunk/apps/EeePProg/linux/../BinFuncs.c ****       if (CRC & 0x8000){ 
 184              		.loc 1 134 17 view .LVU82
 135:/home/hkh/git/eapidk-code-r76-trunk/apps/EeePProg/linux/../BinFuncs.c ****         CRC+=CRC; 
 185              		.loc 1 135 7 view .LVU83
ARM GAS  /tmp/ccf3bFwG.s 			page 8


 135:/home/hkh/git/eapidk-code-r76-trunk/apps/EeePProg/linux/../BinFuncs.c ****         CRC+=CRC; 
 186              		.loc 1 135 10 is_stmt 0 view .LVU84
 187 0090 020913E3 		tst	r3, #32768
 188              		.loc 1 139 12 view .LVU85
 189 0094 8330A0E1 		lsl	r3, r3, #1
 136:/home/hkh/git/eapidk-code-r76-trunk/apps/EeePProg/linux/../BinFuncs.c ****         CRC^=0x1021; 
 190              		.loc 1 136 9 is_stmt 1 view .LVU86
 137:/home/hkh/git/eapidk-code-r76-trunk/apps/EeePProg/linux/../BinFuncs.c ****       }else{ 
 191              		.loc 1 137 9 view .LVU87
 137:/home/hkh/git/eapidk-code-r76-trunk/apps/EeePProg/linux/../BinFuncs.c ****       }else{ 
 192              		.loc 1 137 12 is_stmt 0 view .LVU88
 193 0098 02302310 		eorne	r3, r3, r2
 194              	.LVL15:
 132:/home/hkh/git/eapidk-code-r76-trunk/apps/EeePProg/linux/../BinFuncs.c ****     CRC^= *pcu8Buffer++ << 8; 
 195              		.loc 1 132 10 is_stmt 1 view .LVU89
 132:/home/hkh/git/eapidk-code-r76-trunk/apps/EeePProg/linux/../BinFuncs.c ****     CRC^= *pcu8Buffer++ << 8; 
 196              		.loc 1 132 10 is_stmt 0 view .LVU90
 197 009c 000051E1 		cmp	r1, r0
 198 00a0 E3FFFF1A 		bne	.L13
 199              	.LVL16:
 200              	.L4:
 140:/home/hkh/git/eapidk-code-r76-trunk/apps/EeePProg/linux/../BinFuncs.c ****       }
 141:/home/hkh/git/eapidk-code-r76-trunk/apps/EeePProg/linux/../BinFuncs.c ****     }
 142:/home/hkh/git/eapidk-code-r76-trunk/apps/EeePProg/linux/../BinFuncs.c ****   }
 143:/home/hkh/git/eapidk-code-r76-trunk/apps/EeePProg/linux/../BinFuncs.c ****   pCRC->CRC=CRC;
 201              		.loc 1 143 3 is_stmt 1 view .LVU91
 117:/home/hkh/git/eapidk-code-r76-trunk/apps/EeePProg/linux/../BinFuncs.c ****   const uint8_t *pcu8Buffer     =pcvBuffer; 
 202              		.loc 1 117 16 is_stmt 0 view .LVU92
 203 00a4 0000A0E3 		mov	r0, #0
 144:/home/hkh/git/eapidk-code-r76-trunk/apps/EeePProg/linux/../BinFuncs.c **** 
 145:/home/hkh/git/eapidk-code-r76-trunk/apps/EeePProg/linux/../BinFuncs.c **** EAPI_APP_ASSERT_EXIT
 146:/home/hkh/git/eapidk-code-r76-trunk/apps/EeePProg/linux/../BinFuncs.c ****   return StatusCode;
 204              		.loc 1 146 3 is_stmt 1 view .LVU93
 143:/home/hkh/git/eapidk-code-r76-trunk/apps/EeePProg/linux/../BinFuncs.c **** 
 205              		.loc 1 143 12 is_stmt 0 view .LVU94
 206 00a8 00308EE5 		str	r3, [lr]
 207              	.L3:
 208              	.LVL17:
 209              	.L1:
 147:/home/hkh/git/eapidk-code-r76-trunk/apps/EeePProg/linux/../BinFuncs.c **** }
 210              		.loc 1 147 1 view .LVU95
 211 00ac 10D08DE2 		add	sp, sp, #16
 212              		.cfi_remember_state
 213              		.cfi_def_cfa_offset 8
 214              		@ sp needed
 215 00b0 1080BDE8 		pop	{r4, pc}
 216              	.LVL18:
 217              	.L44:
 218              		.cfi_restore_state
 219              	.LBB22:
 220              	.LBI22:
 111:/home/hkh/git/eapidk-code-r76-trunk/apps/EeePProg/linux/../BinFuncs.c ****     __IN       void *pContext , /* CRC Context       */
 221              		.loc 1 111 1 is_stmt 1 view .LVU96
 222              	.LBB23:
 122:/home/hkh/git/eapidk-code-r76-trunk/apps/EeePProg/linux/../BinFuncs.c ****       u16CRC_CCITT_bytes,
 223              		.loc 1 122 3 view .LVU97
 122:/home/hkh/git/eapidk-code-r76-trunk/apps/EeePProg/linux/../BinFuncs.c ****       u16CRC_CCITT_bytes,
ARM GAS  /tmp/ccf3bFwG.s 			page 9


 224              		.loc 1 122 3 view .LVU98
 225 00b4 38C09FE5 		ldr	ip, .L45
 226 00b8 014CE0E3 		mvn	r4, #256
 227 00bc 34009FE5 		ldr	r0, .L45+4
 228              	.LVL19:
 122:/home/hkh/git/eapidk-code-r76-trunk/apps/EeePProg/linux/../BinFuncs.c ****       u16CRC_CCITT_bytes,
 229              		.loc 1 122 3 is_stmt 0 view .LVU99
 230 00c0 7A30A0E3 		mov	r3, #122
 231              	.LVL20:
 122:/home/hkh/git/eapidk-code-r76-trunk/apps/EeePProg/linux/../BinFuncs.c ****       u16CRC_CCITT_bytes,
 232              		.loc 1 122 3 view .LVU100
 233 00c4 30209FE5 		ldr	r2, .L45+8
 234              	.LVL21:
 122:/home/hkh/git/eapidk-code-r76-trunk/apps/EeePProg/linux/../BinFuncs.c ****       u16CRC_CCITT_bytes,
 235              		.loc 1 122 3 view .LVU101
 236 00c8 30109FE5 		ldr	r1, .L45+12
 237              	.LVL22:
 122:/home/hkh/git/eapidk-code-r76-trunk/apps/EeePProg/linux/../BinFuncs.c ****       u16CRC_CCITT_bytes,
 238              		.loc 1 122 3 view .LVU102
 239              	.LPIC2:
 240 00cc 0CC08FE0 		add	ip, pc, ip
 241              	.LPIC3:
 242 00d0 00008FE0 		add	r0, pc, r0
 243 00d4 00408DE5 		str	r4, [sp]
 244              	.LVL23:
 122:/home/hkh/git/eapidk-code-r76-trunk/apps/EeePProg/linux/../BinFuncs.c ****       u16CRC_CCITT_bytes,
 245              		.loc 1 122 3 view .LVU103
 246 00d8 01108DE9 		stmib	sp, {r0, ip}
 247              	.LPIC0:
 248 00dc 02208FE0 		add	r2, pc, r2
 249              	.LPIC1:
 250 00e0 01108FE0 		add	r1, pc, r1
 251 00e4 4500A0E3 		mov	r0, #69
 252 00e8 FEFFFFEB 		bl	siFormattedMessage_SC(PLT)
 253              	.LVL24:
 122:/home/hkh/git/eapidk-code-r76-trunk/apps/EeePProg/linux/../BinFuncs.c ****       u16CRC_CCITT_bytes,
 254              		.loc 1 122 3 is_stmt 1 view .LVU104
 122:/home/hkh/git/eapidk-code-r76-trunk/apps/EeePProg/linux/../BinFuncs.c ****       u16CRC_CCITT_bytes,
 255              		.loc 1 122 3 view .LVU105
 122:/home/hkh/git/eapidk-code-r76-trunk/apps/EeePProg/linux/../BinFuncs.c ****       u16CRC_CCITT_bytes,
 256              		.loc 1 122 3 view .LVU106
 257              	.LDL1:
 146:/home/hkh/git/eapidk-code-r76-trunk/apps/EeePProg/linux/../BinFuncs.c **** }
 258              		.loc 1 146 3 view .LVU107
 122:/home/hkh/git/eapidk-code-r76-trunk/apps/EeePProg/linux/../BinFuncs.c ****       u16CRC_CCITT_bytes,
 259              		.loc 1 122 3 is_stmt 0 view .LVU108
 260 00ec 0400A0E1 		mov	r0, r4
 261 00f0 EDFFFFEA 		b	.L1
 262              	.L46:
 263              		.align	2
 264              	.L45:
 265 00f4 20000000 		.word	.LC2-(.LPIC2+8)
 266 00f8 20000000 		.word	.LC3-(.LPIC3+8)
 267 00fc 18000000 		.word	.LC0-(.LPIC0+8)
 268 0100 18000000 		.word	.LC1-(.LPIC1+8)
 269              	.LBE23:
 270              	.LBE22:
ARM GAS  /tmp/ccf3bFwG.s 			page 10


 271              		.cfi_endproc
 272              	.LFE5:
 274              		.section	.rodata.str1.4
 275              		.align	2
 276              	.LC4:
 277 0074 75313643 		.ascii	"u16CRC_CCITT_init\000"
 277      52435F43 
 277      43495454 
 277      5F696E69 
 277      7400
 278 0086 0000     		.align	2
 279              	.LC5:
 280 0088 2870436F 		.ascii	"(pContext==NULL)\000"
 280      6E746578 
 280      743D3D4E 
 280      554C4C29 
 280      00
 281 0099 000000   		.align	2
 282              	.LC6:
 283 009c 28704352 		.ascii	"(pCRC==NULL)\000"
 283      433D3D4E 
 283      554C4C29 
 283      00
 284              		.text
 285              		.align	2
 286              		.global	u16CRC_CCITT_init
 287              		.syntax unified
 288              		.arm
 289              		.fpu vfpv3
 291              	u16CRC_CCITT_init:
 292              	.LVL25:
 293              	.LFB4:
  80:/home/hkh/git/eapidk-code-r76-trunk/apps/EeePProg/linux/../BinFuncs.c ****   EApiStatus_t StatusCode=EAPI_STATUS_SUCCESS;
 294              		.loc 1 80 1 is_stmt 1 view -0
 295              		.cfi_startproc
 296              		@ args = 0, pretend = 0, frame = 0
 297              		@ frame_needed = 0, uses_anonymous_args = 0
  81:/home/hkh/git/eapidk-code-r76-trunk/apps/EeePProg/linux/../BinFuncs.c ****   CRC_State_t * pCRC;
 298              		.loc 1 81 3 view .LVU110
  82:/home/hkh/git/eapidk-code-r76-trunk/apps/EeePProg/linux/../BinFuncs.c ****   EAPI_APP_ASSERT_PARAMATER_NULL(
 299              		.loc 1 82 3 view .LVU111
  83:/home/hkh/git/eapidk-code-r76-trunk/apps/EeePProg/linux/../BinFuncs.c ****       u16CRC_CCITT_init,
 300              		.loc 1 83 3 view .LVU112
  80:/home/hkh/git/eapidk-code-r76-trunk/apps/EeePProg/linux/../BinFuncs.c ****   EApiStatus_t StatusCode=EAPI_STATUS_SUCCESS;
 301              		.loc 1 80 1 is_stmt 0 view .LVU113
 302 0104 10402DE9 		push	{r4, lr}
 303              		.cfi_def_cfa_offset 8
 304              		.cfi_offset 4, -8
 305              		.cfi_offset 14, -4
  83:/home/hkh/git/eapidk-code-r76-trunk/apps/EeePProg/linux/../BinFuncs.c ****       u16CRC_CCITT_init,
 306              		.loc 1 83 3 view .LVU114
 307 0108 004050E2 		subs	r4, r0, #0
  80:/home/hkh/git/eapidk-code-r76-trunk/apps/EeePProg/linux/../BinFuncs.c ****   EApiStatus_t StatusCode=EAPI_STATUS_SUCCESS;
 308              		.loc 1 80 1 view .LVU115
 309 010c 10D04DE2 		sub	sp, sp, #16
 310              		.cfi_def_cfa_offset 24
  83:/home/hkh/git/eapidk-code-r76-trunk/apps/EeePProg/linux/../BinFuncs.c ****       u16CRC_CCITT_init,
ARM GAS  /tmp/ccf3bFwG.s 			page 11


 311              		.loc 1 83 3 view .LVU116
 312 0110 0A00000A 		beq	.L53
 313              	.L49:
  83:/home/hkh/git/eapidk-code-r76-trunk/apps/EeePProg/linux/../BinFuncs.c ****       u16CRC_CCITT_init,
 314              		.loc 1 83 3 is_stmt 1 discriminator 2 view .LVU117
  87:/home/hkh/git/eapidk-code-r76-trunk/apps/EeePProg/linux/../BinFuncs.c ****   *pContext=pCRC=malloc(sizeof(CRC_State_t));
 315              		.loc 1 87 8 discriminator 2 view .LVU118
  88:/home/hkh/git/eapidk-code-r76-trunk/apps/EeePProg/linux/../BinFuncs.c ****   EAPI_APP_ASSERT_PARAMATER_NULL(
 316              		.loc 1 88 3 discriminator 2 view .LVU119
  88:/home/hkh/git/eapidk-code-r76-trunk/apps/EeePProg/linux/../BinFuncs.c ****   EAPI_APP_ASSERT_PARAMATER_NULL(
 317              		.loc 1 88 18 is_stmt 0 discriminator 2 view .LVU120
 318 0114 0800A0E3 		mov	r0, #8
 319              	.LVL26:
  88:/home/hkh/git/eapidk-code-r76-trunk/apps/EeePProg/linux/../BinFuncs.c ****   EAPI_APP_ASSERT_PARAMATER_NULL(
 320              		.loc 1 88 18 discriminator 2 view .LVU121
 321 0118 FEFFFFEB 		bl	malloc(PLT)
 322              	.LVL27:
  89:/home/hkh/git/eapidk-code-r76-trunk/apps/EeePProg/linux/../BinFuncs.c ****       u16CRC_CCITT_init,
 323              		.loc 1 89 3 discriminator 2 view .LVU122
 324 011c 000050E3 		cmp	r0, #0
  88:/home/hkh/git/eapidk-code-r76-trunk/apps/EeePProg/linux/../BinFuncs.c ****   EAPI_APP_ASSERT_PARAMATER_NULL(
 325              		.loc 1 88 18 discriminator 2 view .LVU123
 326 0120 0030A0E1 		mov	r3, r0
 327              	.LVL28:
  94:/home/hkh/git/eapidk-code-r76-trunk/apps/EeePProg/linux/../BinFuncs.c ****   pCRC->Cnt=0;
 328              		.loc 1 94 12 discriminator 2 view .LVU124
 329 0124 210BDF1D 		vldrne.64	d16, .L55	@ int
  88:/home/hkh/git/eapidk-code-r76-trunk/apps/EeePProg/linux/../BinFuncs.c ****   EAPI_APP_ASSERT_PARAMATER_NULL(
 330              		.loc 1 88 12 discriminator 2 view .LVU125
 331 0128 000084E5 		str	r0, [r4]
  89:/home/hkh/git/eapidk-code-r76-trunk/apps/EeePProg/linux/../BinFuncs.c ****       u16CRC_CCITT_init,
 332              		.loc 1 89 3 is_stmt 1 discriminator 2 view .LVU126
  81:/home/hkh/git/eapidk-code-r76-trunk/apps/EeePProg/linux/../BinFuncs.c ****   CRC_State_t * pCRC;
 333              		.loc 1 81 16 is_stmt 0 discriminator 2 view .LVU127
 334 012c 0000A013 		movne	r0, #0
 335              	.LVL29:
  98:/home/hkh/git/eapidk-code-r76-trunk/apps/EeePProg/linux/../BinFuncs.c **** }
 336              		.loc 1 98 3 is_stmt 1 discriminator 2 view .LVU128
  94:/home/hkh/git/eapidk-code-r76-trunk/apps/EeePProg/linux/../BinFuncs.c ****   pCRC->Cnt=0;
 337              		.loc 1 94 12 is_stmt 0 discriminator 2 view .LVU129
 338 0130 000BC31D 		vstrne.64	d16, [r3]	@ int
  89:/home/hkh/git/eapidk-code-r76-trunk/apps/EeePProg/linux/../BinFuncs.c ****       u16CRC_CCITT_init,
 339              		.loc 1 89 3 discriminator 2 view .LVU130
 340 0134 1200000A 		beq	.L54
  99:/home/hkh/git/eapidk-code-r76-trunk/apps/EeePProg/linux/../BinFuncs.c **** 
 341              		.loc 1 99 1 view .LVU131
 342 0138 10D08DE2 		add	sp, sp, #16
 343              		.cfi_remember_state
 344              		.cfi_def_cfa_offset 8
 345              		@ sp needed
 346 013c 1080BDE8 		pop	{r4, pc}
 347              	.LVL30:
 348              	.L53:
 349              		.cfi_restore_state
  83:/home/hkh/git/eapidk-code-r76-trunk/apps/EeePProg/linux/../BinFuncs.c ****       u16CRC_CCITT_init,
 350              		.loc 1 83 3 is_stmt 1 discriminator 1 view .LVU132
  83:/home/hkh/git/eapidk-code-r76-trunk/apps/EeePProg/linux/../BinFuncs.c ****       u16CRC_CCITT_init,
ARM GAS  /tmp/ccf3bFwG.s 			page 12


 351              		.loc 1 83 3 discriminator 1 view .LVU133
 352 0140 70C09FE5 		ldr	ip, .L55+8
 353 0144 014CE0E3 		mvn	r4, #256
 354 0148 6C009FE5 		ldr	r0, .L55+12
 355              	.LVL31:
  83:/home/hkh/git/eapidk-code-r76-trunk/apps/EeePProg/linux/../BinFuncs.c ****       u16CRC_CCITT_init,
 356              		.loc 1 83 3 is_stmt 0 discriminator 1 view .LVU134
 357 014c 5330A0E3 		mov	r3, #83
 358 0150 68209FE5 		ldr	r2, .L55+16
 359 0154 68109FE5 		ldr	r1, .L55+20
 360              	.LPIC6:
 361 0158 0CC08FE0 		add	ip, pc, ip
 362              	.LPIC7:
 363 015c 00008FE0 		add	r0, pc, r0
 364              	.LPIC4:
 365 0160 02208FE0 		add	r2, pc, r2
 366              	.LPIC5:
 367 0164 01108FE0 		add	r1, pc, r1
 368              	.L52:
 369              	.LBB26:
 370              	.LBB27:
  89:/home/hkh/git/eapidk-code-r76-trunk/apps/EeePProg/linux/../BinFuncs.c ****       u16CRC_CCITT_init,
 371              		.loc 1 89 3 view .LVU135
 372 0168 01108DE9 		stmib	sp, {r0, ip}
 373 016c 4500A0E3 		mov	r0, #69
 374 0170 00408DE5 		str	r4, [sp]
 375 0174 FEFFFFEB 		bl	siFormattedMessage_SC(PLT)
 376              	.LVL32:
  89:/home/hkh/git/eapidk-code-r76-trunk/apps/EeePProg/linux/../BinFuncs.c ****       u16CRC_CCITT_init,
 377              		.loc 1 89 3 is_stmt 1 view .LVU136
  89:/home/hkh/git/eapidk-code-r76-trunk/apps/EeePProg/linux/../BinFuncs.c ****       u16CRC_CCITT_init,
 378              		.loc 1 89 3 view .LVU137
  89:/home/hkh/git/eapidk-code-r76-trunk/apps/EeePProg/linux/../BinFuncs.c ****       u16CRC_CCITT_init,
 379              		.loc 1 89 3 view .LVU138
 380              	.LDL2:
  98:/home/hkh/git/eapidk-code-r76-trunk/apps/EeePProg/linux/../BinFuncs.c **** }
 381              		.loc 1 98 3 view .LVU139
  89:/home/hkh/git/eapidk-code-r76-trunk/apps/EeePProg/linux/../BinFuncs.c ****       u16CRC_CCITT_init,
 382              		.loc 1 89 3 is_stmt 0 view .LVU140
 383 0178 0400A0E1 		mov	r0, r4
 384              	.LBE27:
 385              	.LBE26:
  99:/home/hkh/git/eapidk-code-r76-trunk/apps/EeePProg/linux/../BinFuncs.c **** 
 386              		.loc 1 99 1 view .LVU141
 387 017c 10D08DE2 		add	sp, sp, #16
 388              		.cfi_remember_state
 389              		.cfi_def_cfa_offset 8
 390              		@ sp needed
 391 0180 1080BDE8 		pop	{r4, pc}
 392              	.LVL33:
 393              	.L54:
 394              		.cfi_restore_state
 395              	.LBB29:
 396              	.LBI26:
  77:/home/hkh/git/eapidk-code-r76-trunk/apps/EeePProg/linux/../BinFuncs.c ****     void**pContext
 397              		.loc 1 77 1 is_stmt 1 view .LVU142
 398              	.LBB28:
ARM GAS  /tmp/ccf3bFwG.s 			page 13


  89:/home/hkh/git/eapidk-code-r76-trunk/apps/EeePProg/linux/../BinFuncs.c ****       u16CRC_CCITT_init,
 399              		.loc 1 89 3 view .LVU143
  89:/home/hkh/git/eapidk-code-r76-trunk/apps/EeePProg/linux/../BinFuncs.c ****       u16CRC_CCITT_init,
 400              		.loc 1 89 3 view .LVU144
 401 0184 3CC09FE5 		ldr	ip, .L55+24
 402 0188 0240E0E3 		mvn	r4, #2
 403              	.LVL34:
  89:/home/hkh/git/eapidk-code-r76-trunk/apps/EeePProg/linux/../BinFuncs.c ****       u16CRC_CCITT_init,
 404              		.loc 1 89 3 is_stmt 0 view .LVU145
 405 018c 38009FE5 		ldr	r0, .L55+28
 406 0190 5930A0E3 		mov	r3, #89
 407              	.LVL35:
  89:/home/hkh/git/eapidk-code-r76-trunk/apps/EeePProg/linux/../BinFuncs.c ****       u16CRC_CCITT_init,
 408              		.loc 1 89 3 view .LVU146
 409 0194 34209FE5 		ldr	r2, .L55+32
 410 0198 34109FE5 		ldr	r1, .L55+36
 411              	.LPIC10:
 412 019c 0CC08FE0 		add	ip, pc, ip
 413              	.LPIC11:
 414 01a0 00008FE0 		add	r0, pc, r0
 415              	.LPIC8:
 416 01a4 02208FE0 		add	r2, pc, r2
 417              	.LPIC9:
 418 01a8 01108FE0 		add	r1, pc, r1
 419 01ac EDFFFFEA 		b	.L52
 420              	.L56:
 421              		.align	3
 422              	.L55:
 423 01b0 00000000 		.word	0
 424 01b4 00000000 		.word	0
 425 01b8 58000000 		.word	.LC5-(.LPIC6+8)
 426 01bc 58000000 		.word	.LC3-(.LPIC7+8)
 427 01c0 58000000 		.word	.LC4-(.LPIC4+8)
 428 01c4 58000000 		.word	.LC1-(.LPIC5+8)
 429 01c8 24000000 		.word	.LC6-(.LPIC10+8)
 430 01cc 24000000 		.word	.LC3-(.LPIC11+8)
 431 01d0 24000000 		.word	.LC4-(.LPIC8+8)
 432 01d4 24000000 		.word	.LC1-(.LPIC9+8)
 433              	.LBE28:
 434              	.LBE29:
 435              		.cfi_endproc
 436              	.LFE4:
 438              		.section	.rodata.str1.4
 439 00a9 000000   		.align	2
 440              	.LC7:
 441 00ac 75313643 		.ascii	"u16CRC_CCITT_fini\000"
 441      52435F43 
 441      43495454 
 441      5F66696E 
 441      6900
 442 00be 0000     		.align	2
 443              	.LC8:
 444 00c0 28707644 		.ascii	"(pvDigest==NULL)\000"
 444      69676573 
 444      743D3D4E 
 444      554C4C29 
 444      00
ARM GAS  /tmp/ccf3bFwG.s 			page 14


 445              		.text
 446              		.align	2
 447              		.global	u16CRC_CCITT_fini
 448              		.syntax unified
 449              		.arm
 450              		.fpu vfpv3
 452              	u16CRC_CCITT_fini:
 453              	.LVL36:
 454              	.LFB6:
 148:/home/hkh/git/eapidk-code-r76-trunk/apps/EeePProg/linux/../BinFuncs.c **** EApiStatus_t
 149:/home/hkh/git/eapidk-code-r76-trunk/apps/EeePProg/linux/../BinFuncs.c **** u16CRC_CCITT_fini  (
 150:/home/hkh/git/eapidk-code-r76-trunk/apps/EeePProg/linux/../BinFuncs.c ****     __IN      void **pContext,  /* CRC Context       */
 151:/home/hkh/git/eapidk-code-r76-trunk/apps/EeePProg/linux/../BinFuncs.c ****     __OUT     void  *pvDigest   /* Pointer to Buffer */
 152:/home/hkh/git/eapidk-code-r76-trunk/apps/EeePProg/linux/../BinFuncs.c ****   )
 153:/home/hkh/git/eapidk-code-r76-trunk/apps/EeePProg/linux/../BinFuncs.c **** {
 455              		.loc 1 153 1 is_stmt 1 view -0
 456              		.cfi_startproc
 457              		@ args = 0, pretend = 0, frame = 0
 458              		@ frame_needed = 0, uses_anonymous_args = 0
 154:/home/hkh/git/eapidk-code-r76-trunk/apps/EeePProg/linux/../BinFuncs.c ****   EApiStatus_t StatusCode=EAPI_STATUS_SUCCESS;
 459              		.loc 1 154 3 view .LVU148
 155:/home/hkh/git/eapidk-code-r76-trunk/apps/EeePProg/linux/../BinFuncs.c ****   CRC_State_t * pCRC=*pContext;
 460              		.loc 1 155 3 view .LVU149
 153:/home/hkh/git/eapidk-code-r76-trunk/apps/EeePProg/linux/../BinFuncs.c ****   EApiStatus_t StatusCode=EAPI_STATUS_SUCCESS;
 461              		.loc 1 153 1 is_stmt 0 view .LVU150
 462 01d8 70402DE9 		push	{r4, r5, r6, lr}
 463              		.cfi_def_cfa_offset 16
 464              		.cfi_offset 4, -16
 465              		.cfi_offset 5, -12
 466              		.cfi_offset 6, -8
 467              		.cfi_offset 14, -4
 468 01dc 0050A0E1 		mov	r5, r0
 469              		.loc 1 155 17 view .LVU151
 470 01e0 000090E5 		ldr	r0, [r0]
 471              	.LVL37:
 156:/home/hkh/git/eapidk-code-r76-trunk/apps/EeePProg/linux/../BinFuncs.c ****   unsigned      CRC=pCRC->CRC;
 472              		.loc 1 156 3 is_stmt 1 view .LVU152
 157:/home/hkh/git/eapidk-code-r76-trunk/apps/EeePProg/linux/../BinFuncs.c ****   EAPI_APP_ASSERT_PARAMATER_NULL(
 473              		.loc 1 157 3 is_stmt 0 view .LVU153
 474 01e4 004051E2 		subs	r4, r1, #0
 153:/home/hkh/git/eapidk-code-r76-trunk/apps/EeePProg/linux/../BinFuncs.c ****   EApiStatus_t StatusCode=EAPI_STATUS_SUCCESS;
 475              		.loc 1 153 1 view .LVU154
 476 01e8 10D04DE2 		sub	sp, sp, #16
 477              		.cfi_def_cfa_offset 32
 156:/home/hkh/git/eapidk-code-r76-trunk/apps/EeePProg/linux/../BinFuncs.c ****   unsigned      CRC=pCRC->CRC;
 478              		.loc 1 156 17 view .LVU155
 479 01ec 006090E5 		ldr	r6, [r0]
 480              	.LVL38:
 481              		.loc 1 157 3 is_stmt 1 view .LVU156
 482 01f0 0800000A 		beq	.L61
 483              	.L59:
 484              		.loc 1 157 3 discriminator 2 view .LVU157
 158:/home/hkh/git/eapidk-code-r76-trunk/apps/EeePProg/linux/../BinFuncs.c ****       u16CRC_CCITT_fini,
 159:/home/hkh/git/eapidk-code-r76-trunk/apps/EeePProg/linux/../BinFuncs.c ****       EAPI_STATUS_INVALID_PARAMETER,
 160:/home/hkh/git/eapidk-code-r76-trunk/apps/EeePProg/linux/../BinFuncs.c ****       pvDigest
 161:/home/hkh/git/eapidk-code-r76-trunk/apps/EeePProg/linux/../BinFuncs.c ****       );
 485              		.loc 1 161 8 discriminator 2 view .LVU158
ARM GAS  /tmp/ccf3bFwG.s 			page 15


 162:/home/hkh/git/eapidk-code-r76-trunk/apps/EeePProg/linux/../BinFuncs.c **** /*   printf("L%04i 0x%04X 0x%04lX\n", __LINE__, pCRC->CRC&0xFFFF, (unsigned long)pCRC->Cnt); */
 163:/home/hkh/git/eapidk-code-r76-trunk/apps/EeePProg/linux/../BinFuncs.c ****   free(*pContext);
 486              		.loc 1 163 3 discriminator 2 view .LVU159
 487 01f4 FEFFFFEB 		bl	free(PLT)
 488              	.LVL39:
 164:/home/hkh/git/eapidk-code-r76-trunk/apps/EeePProg/linux/../BinFuncs.c ****   *pContext=NULL;
 489              		.loc 1 164 3 discriminator 2 view .LVU160
 490              		.loc 1 164 12 is_stmt 0 discriminator 2 view .LVU161
 491 01f8 0030A0E3 		mov	r3, #0
 492              	.LBB38:
 493              	.LBB39:
 165:/home/hkh/git/eapidk-code-r76-trunk/apps/EeePProg/linux/../BinFuncs.c **** 
 166:/home/hkh/git/eapidk-code-r76-trunk/apps/EeePProg/linux/../BinFuncs.c ****   EeeP_Set16BitValue_BE(pvDigest, EEEP_LO_UINT16(CRC));
 167:/home/hkh/git/eapidk-code-r76-trunk/apps/EeePProg/linux/../BinFuncs.c **** EAPI_APP_ASSERT_EXIT
 168:/home/hkh/git/eapidk-code-r76-trunk/apps/EeePProg/linux/../BinFuncs.c ****   return StatusCode;
 169:/home/hkh/git/eapidk-code-r76-trunk/apps/EeePProg/linux/../BinFuncs.c **** }
 170:/home/hkh/git/eapidk-code-r76-trunk/apps/EeePProg/linux/../BinFuncs.c **** EApiStatus_t
 171:/home/hkh/git/eapidk-code-r76-trunk/apps/EeePProg/linux/../BinFuncs.c **** u16CRC_CCITT_verify  (
 172:/home/hkh/git/eapidk-code-r76-trunk/apps/EeePProg/linux/../BinFuncs.c ****     __IN       void**pContext,  /* CRC Context       */
 173:/home/hkh/git/eapidk-code-r76-trunk/apps/EeePProg/linux/../BinFuncs.c ****     __OUT      void *pvDigest   /* Pointer to Buffer */
 174:/home/hkh/git/eapidk-code-r76-trunk/apps/EeePProg/linux/../BinFuncs.c ****   )
 175:/home/hkh/git/eapidk-code-r76-trunk/apps/EeePProg/linux/../BinFuncs.c **** {
 176:/home/hkh/git/eapidk-code-r76-trunk/apps/EeePProg/linux/../BinFuncs.c ****   EApiStatus_t StatusCode=EAPI_STATUS_SUCCESS;
 177:/home/hkh/git/eapidk-code-r76-trunk/apps/EeePProg/linux/../BinFuncs.c ****   uint8_t Digest[2];
 178:/home/hkh/git/eapidk-code-r76-trunk/apps/EeePProg/linux/../BinFuncs.c **** 
 179:/home/hkh/git/eapidk-code-r76-trunk/apps/EeePProg/linux/../BinFuncs.c ****   DO(u16CRC_CCITT_fini(pContext, Digest));
 180:/home/hkh/git/eapidk-code-r76-trunk/apps/EeePProg/linux/../BinFuncs.c **** 
 181:/home/hkh/git/eapidk-code-r76-trunk/apps/EeePProg/linux/../BinFuncs.c ****   EAPI_APP_RETURN_ERROR_IF(
 182:/home/hkh/git/eapidk-code-r76-trunk/apps/EeePProg/linux/../BinFuncs.c ****       u16CRC_CCITT_verify,
 183:/home/hkh/git/eapidk-code-r76-trunk/apps/EeePProg/linux/../BinFuncs.c ****       memcmp(Digest, pvDigest, sizeof(Digest)),
 184:/home/hkh/git/eapidk-code-r76-trunk/apps/EeePProg/linux/../BinFuncs.c ****       EAPI_STATUS_ERROR,
 185:/home/hkh/git/eapidk-code-r76-trunk/apps/EeePProg/linux/../BinFuncs.c ****       "Invalid CRC CCITT"
 186:/home/hkh/git/eapidk-code-r76-trunk/apps/EeePProg/linux/../BinFuncs.c ****       );
 187:/home/hkh/git/eapidk-code-r76-trunk/apps/EeePProg/linux/../BinFuncs.c **** 
 188:/home/hkh/git/eapidk-code-r76-trunk/apps/EeePProg/linux/../BinFuncs.c **** EAPI_APP_ASSERT_EXIT
 189:/home/hkh/git/eapidk-code-r76-trunk/apps/EeePProg/linux/../BinFuncs.c ****   return StatusCode;
 190:/home/hkh/git/eapidk-code-r76-trunk/apps/EeePProg/linux/../BinFuncs.c **** }
 191:/home/hkh/git/eapidk-code-r76-trunk/apps/EeePProg/linux/../BinFuncs.c **** 
 192:/home/hkh/git/eapidk-code-r76-trunk/apps/EeePProg/linux/../BinFuncs.c **** EApiStatus_t
 193:/home/hkh/git/eapidk-code-r76-trunk/apps/EeePProg/linux/../BinFuncs.c **** u16CRC_CCITT (
 194:/home/hkh/git/eapidk-code-r76-trunk/apps/EeePProg/linux/../BinFuncs.c ****     __IN const void    *pcvBuffer, /* Pointer to Buffer */
 195:/home/hkh/git/eapidk-code-r76-trunk/apps/EeePProg/linux/../BinFuncs.c ****     __IN       size_t   stCount  , /* Num bytes to CRC  */
 196:/home/hkh/git/eapidk-code-r76-trunk/apps/EeePProg/linux/../BinFuncs.c ****     __OUT      void    *pvDigest   /* Pointer to Buffer */
 197:/home/hkh/git/eapidk-code-r76-trunk/apps/EeePProg/linux/../BinFuncs.c ****   )
 198:/home/hkh/git/eapidk-code-r76-trunk/apps/EeePProg/linux/../BinFuncs.c **** { 
 199:/home/hkh/git/eapidk-code-r76-trunk/apps/EeePProg/linux/../BinFuncs.c ****   EApiStatus_t StatusCode=EAPI_STATUS_SUCCESS;
 200:/home/hkh/git/eapidk-code-r76-trunk/apps/EeePProg/linux/../BinFuncs.c ****   void * pContext;
 201:/home/hkh/git/eapidk-code-r76-trunk/apps/EeePProg/linux/../BinFuncs.c ****   DO(u16CRC_CCITT_init(&pContext));
 202:/home/hkh/git/eapidk-code-r76-trunk/apps/EeePProg/linux/../BinFuncs.c ****   DO(u16CRC_CCITT_bytes(pContext, pcvBuffer, stCount));
 203:/home/hkh/git/eapidk-code-r76-trunk/apps/EeePProg/linux/../BinFuncs.c ****   DO(u16CRC_CCITT_fini(&pContext, pvDigest));
 204:/home/hkh/git/eapidk-code-r76-trunk/apps/EeePProg/linux/../BinFuncs.c **** EAPI_APP_ASSERT_EXIT
 205:/home/hkh/git/eapidk-code-r76-trunk/apps/EeePProg/linux/../BinFuncs.c ****   return StatusCode;
 206:/home/hkh/git/eapidk-code-r76-trunk/apps/EeePProg/linux/../BinFuncs.c **** }
 207:/home/hkh/git/eapidk-code-r76-trunk/apps/EeePProg/linux/../BinFuncs.c **** HashFunc_t CRC_CCITT={
 208:/home/hkh/git/eapidk-code-r76-trunk/apps/EeePProg/linux/../BinFuncs.c ****     u16CRC_CCITT_init   ,
 209:/home/hkh/git/eapidk-code-r76-trunk/apps/EeePProg/linux/../BinFuncs.c ****     u16CRC_CCITT_bytes  ,
 210:/home/hkh/git/eapidk-code-r76-trunk/apps/EeePProg/linux/../BinFuncs.c ****     u16CRC_CCITT_fini   ,
ARM GAS  /tmp/ccf3bFwG.s 			page 16


 211:/home/hkh/git/eapidk-code-r76-trunk/apps/EeePProg/linux/../BinFuncs.c ****     u16CRC_CCITT_verify ,
 212:/home/hkh/git/eapidk-code-r76-trunk/apps/EeePProg/linux/../BinFuncs.c ****     sizeof(uint16_t)
 213:/home/hkh/git/eapidk-code-r76-trunk/apps/EeePProg/linux/../BinFuncs.c **** };
 214:/home/hkh/git/eapidk-code-r76-trunk/apps/EeePProg/linux/../BinFuncs.c **** 
 215:/home/hkh/git/eapidk-code-r76-trunk/apps/EeePProg/linux/../BinFuncs.c **** /*
 216:/home/hkh/git/eapidk-code-r76-trunk/apps/EeePProg/linux/../BinFuncs.c ****  *
 217:/home/hkh/git/eapidk-code-r76-trunk/apps/EeePProg/linux/../BinFuncs.c ****  *
 218:/home/hkh/git/eapidk-code-r76-trunk/apps/EeePProg/linux/../BinFuncs.c ****  *
 219:/home/hkh/git/eapidk-code-r76-trunk/apps/EeePProg/linux/../BinFuncs.c ****  *  PrintHexTable
 220:/home/hkh/git/eapidk-code-r76-trunk/apps/EeePProg/linux/../BinFuncs.c ****  *
 221:/home/hkh/git/eapidk-code-r76-trunk/apps/EeePProg/linux/../BinFuncs.c ****  *
 222:/home/hkh/git/eapidk-code-r76-trunk/apps/EeePProg/linux/../BinFuncs.c ****  *
 223:/home/hkh/git/eapidk-code-r76-trunk/apps/EeePProg/linux/../BinFuncs.c ****  */
 224:/home/hkh/git/eapidk-code-r76-trunk/apps/EeePProg/linux/../BinFuncs.c **** TCHAR
 225:/home/hkh/git/eapidk-code-r76-trunk/apps/EeePProg/linux/../BinFuncs.c **** cBin2Ascii(
 226:/home/hkh/git/eapidk-code-r76-trunk/apps/EeePProg/linux/../BinFuncs.c ****     __IN  unsigned int uiValue
 227:/home/hkh/git/eapidk-code-r76-trunk/apps/EeePProg/linux/../BinFuncs.c ****   )
 228:/home/hkh/git/eapidk-code-r76-trunk/apps/EeePProg/linux/../BinFuncs.c **** {
 229:/home/hkh/git/eapidk-code-r76-trunk/apps/EeePProg/linux/../BinFuncs.c ****   if(uiValue>=0x20&&uiValue<=0x7F){
 230:/home/hkh/git/eapidk-code-r76-trunk/apps/EeePProg/linux/../BinFuncs.c ****     return (char)(uiValue);
 231:/home/hkh/git/eapidk-code-r76-trunk/apps/EeePProg/linux/../BinFuncs.c ****   }else{
 232:/home/hkh/git/eapidk-code-r76-trunk/apps/EeePProg/linux/../BinFuncs.c ****     return '.';
 233:/home/hkh/git/eapidk-code-r76-trunk/apps/EeePProg/linux/../BinFuncs.c ****   }
 234:/home/hkh/git/eapidk-code-r76-trunk/apps/EeePProg/linux/../BinFuncs.c **** }
 235:/home/hkh/git/eapidk-code-r76-trunk/apps/EeePProg/linux/../BinFuncs.c **** signed int
 236:/home/hkh/git/eapidk-code-r76-trunk/apps/EeePProg/linux/../BinFuncs.c **** siBin2Ascii(
 237:/home/hkh/git/eapidk-code-r76-trunk/apps/EeePProg/linux/../BinFuncs.c ****     __OUT TCHAR          *pszString ,
 238:/home/hkh/git/eapidk-code-r76-trunk/apps/EeePProg/linux/../BinFuncs.c ****     __IN  size_t          BufLength ,
 239:/home/hkh/git/eapidk-code-r76-trunk/apps/EeePProg/linux/../BinFuncs.c ****     __IN  const uint8_t  *pcu8Value ,
 240:/home/hkh/git/eapidk-code-r76-trunk/apps/EeePProg/linux/../BinFuncs.c ****     __IN  size_t          VarSize   ,
 241:/home/hkh/git/eapidk-code-r76-trunk/apps/EeePProg/linux/../BinFuncs.c ****     __IN  const unsigned  cFlags
 242:/home/hkh/git/eapidk-code-r76-trunk/apps/EeePProg/linux/../BinFuncs.c ****   )
 243:/home/hkh/git/eapidk-code-r76-trunk/apps/EeePProg/linux/../BinFuncs.c **** {
 244:/home/hkh/git/eapidk-code-r76-trunk/apps/EeePProg/linux/../BinFuncs.c ****     signed int StringPos=0;
 245:/home/hkh/git/eapidk-code-r76-trunk/apps/EeePProg/linux/../BinFuncs.c ****     size_t Bufpos;
 246:/home/hkh/git/eapidk-code-r76-trunk/apps/EeePProg/linux/../BinFuncs.c ****     for(Bufpos=0;Bufpos<VarSize;Bufpos++){
 247:/home/hkh/git/eapidk-code-r76-trunk/apps/EeePProg/linux/../BinFuncs.c ****       if(cFlags&HEXTBL_BIG_ENDIAN){
 248:/home/hkh/git/eapidk-code-r76-trunk/apps/EeePProg/linux/../BinFuncs.c ****         StringPos+=EApiSprintf(
 249:/home/hkh/git/eapidk-code-r76-trunk/apps/EeePProg/linux/../BinFuncs.c ****             pszString+StringPos   ,
 250:/home/hkh/git/eapidk-code-r76-trunk/apps/EeePProg/linux/../BinFuncs.c ****             BufLength - StringPos , 
 251:/home/hkh/git/eapidk-code-r76-trunk/apps/EeePProg/linux/../BinFuncs.c ****             TEXT("%02X")                , 
 252:/home/hkh/git/eapidk-code-r76-trunk/apps/EeePProg/linux/../BinFuncs.c ****             pcu8Value[VarSize - 1 - Bufpos]
 253:/home/hkh/git/eapidk-code-r76-trunk/apps/EeePProg/linux/../BinFuncs.c ****           );
 254:/home/hkh/git/eapidk-code-r76-trunk/apps/EeePProg/linux/../BinFuncs.c ****       }else{
 255:/home/hkh/git/eapidk-code-r76-trunk/apps/EeePProg/linux/../BinFuncs.c ****         StringPos+=EApiSprintf(
 256:/home/hkh/git/eapidk-code-r76-trunk/apps/EeePProg/linux/../BinFuncs.c ****             pszString+StringPos   , 
 257:/home/hkh/git/eapidk-code-r76-trunk/apps/EeePProg/linux/../BinFuncs.c ****             BufLength - StringPos , 
 258:/home/hkh/git/eapidk-code-r76-trunk/apps/EeePProg/linux/../BinFuncs.c ****             TEXT("%02X")                , 
 259:/home/hkh/git/eapidk-code-r76-trunk/apps/EeePProg/linux/../BinFuncs.c ****             pcu8Value[Bufpos]
 260:/home/hkh/git/eapidk-code-r76-trunk/apps/EeePProg/linux/../BinFuncs.c ****           );
 261:/home/hkh/git/eapidk-code-r76-trunk/apps/EeePProg/linux/../BinFuncs.c ****       }
 262:/home/hkh/git/eapidk-code-r76-trunk/apps/EeePProg/linux/../BinFuncs.c ****     }
 263:/home/hkh/git/eapidk-code-r76-trunk/apps/EeePProg/linux/../BinFuncs.c ****     return StringPos;
 264:/home/hkh/git/eapidk-code-r76-trunk/apps/EeePProg/linux/../BinFuncs.c **** }
 265:/home/hkh/git/eapidk-code-r76-trunk/apps/EeePProg/linux/../BinFuncs.c **** 
 266:/home/hkh/git/eapidk-code-r76-trunk/apps/EeePProg/linux/../BinFuncs.c **** EApiStatus_t
 267:/home/hkh/git/eapidk-code-r76-trunk/apps/EeePProg/linux/../BinFuncs.c **** PrintHexAsciiTableEx(
ARM GAS  /tmp/ccf3bFwG.s 			page 17


 268:/home/hkh/git/eapidk-code-r76-trunk/apps/EeePProg/linux/../BinFuncs.c **** 	const void *   pcvBuffer	,
 269:/home/hkh/git/eapidk-code-r76-trunk/apps/EeePProg/linux/../BinFuncs.c **** 	const size_t   stBufSize	,
 270:/home/hkh/git/eapidk-code-r76-trunk/apps/EeePProg/linux/../BinFuncs.c **** 	const void *   pcvBase		,
 271:/home/hkh/git/eapidk-code-r76-trunk/apps/EeePProg/linux/../BinFuncs.c **** 	const TCHAR *  pcszDescription,
 272:/home/hkh/git/eapidk-code-r76-trunk/apps/EeePProg/linux/../BinFuncs.c **** 	const unsigned cuiFlags
 273:/home/hkh/git/eapidk-code-r76-trunk/apps/EeePProg/linux/../BinFuncs.c **** 	)
 274:/home/hkh/git/eapidk-code-r76-trunk/apps/EeePProg/linux/../BinFuncs.c **** {
 275:/home/hkh/git/eapidk-code-r76-trunk/apps/EeePProg/linux/../BinFuncs.c ****   EApiStatus_t StatusCode=EAPI_STATUS_SUCCESS;
 276:/home/hkh/git/eapidk-code-r76-trunk/apps/EeePProg/linux/../BinFuncs.c ****     size_t        stOffset;
 277:/home/hkh/git/eapidk-code-r76-trunk/apps/EeePProg/linux/../BinFuncs.c ****     size_t        stOffsetBase;
 278:/home/hkh/git/eapidk-code-r76-trunk/apps/EeePProg/linux/../BinFuncs.c ****     const uint8_t *pcu8Mem;
 279:/home/hkh/git/eapidk-code-r76-trunk/apps/EeePProg/linux/../BinFuncs.c ****     const uint8_t *pcu8PageEnd;
 280:/home/hkh/git/eapidk-code-r76-trunk/apps/EeePProg/linux/../BinFuncs.c ****     size_t        stElementSize;
 281:/home/hkh/git/eapidk-code-r76-trunk/apps/EeePProg/linux/../BinFuncs.c ****     size_t        stElementCount;
 282:/home/hkh/git/eapidk-code-r76-trunk/apps/EeePProg/linux/../BinFuncs.c ****     size_t        stRowSize;
 283:/home/hkh/git/eapidk-code-r76-trunk/apps/EeePProg/linux/../BinFuncs.c ****     TCHAR  szAsciiBufer[100];
 284:/home/hkh/git/eapidk-code-r76-trunk/apps/EeePProg/linux/../BinFuncs.c **** 
 285:/home/hkh/git/eapidk-code-r76-trunk/apps/EeePProg/linux/../BinFuncs.c **** 
 286:/home/hkh/git/eapidk-code-r76-trunk/apps/EeePProg/linux/../BinFuncs.c ****     EAPI_APP_ASSERT_PARAMATER_NULL(
 287:/home/hkh/git/eapidk-code-r76-trunk/apps/EeePProg/linux/../BinFuncs.c ****         PrintHexAsciiTableEx,
 288:/home/hkh/git/eapidk-code-r76-trunk/apps/EeePProg/linux/../BinFuncs.c ****         EAPI_STATUS_INVALID_PARAMETER,
 289:/home/hkh/git/eapidk-code-r76-trunk/apps/EeePProg/linux/../BinFuncs.c ****          pcvBuffer
 290:/home/hkh/git/eapidk-code-r76-trunk/apps/EeePProg/linux/../BinFuncs.c ****         );
 291:/home/hkh/git/eapidk-code-r76-trunk/apps/EeePProg/linux/../BinFuncs.c ****     if(pcvBase==NULL)
 292:/home/hkh/git/eapidk-code-r76-trunk/apps/EeePProg/linux/../BinFuncs.c ****       pcvBase=pcvBuffer;
 293:/home/hkh/git/eapidk-code-r76-trunk/apps/EeePProg/linux/../BinFuncs.c **** 
 294:/home/hkh/git/eapidk-code-r76-trunk/apps/EeePProg/linux/../BinFuncs.c ****     pcu8Mem=pcvBase;
 295:/home/hkh/git/eapidk-code-r76-trunk/apps/EeePProg/linux/../BinFuncs.c **** 
 296:/home/hkh/git/eapidk-code-r76-trunk/apps/EeePProg/linux/../BinFuncs.c ****     stElementSize=1<<((cuiFlags&HEXTBL_WIDTH_MASK)>>12);
 297:/home/hkh/git/eapidk-code-r76-trunk/apps/EeePProg/linux/../BinFuncs.c ****     stElementCount=cuiFlags&HEXTBL_COUNT_MASK;
 298:/home/hkh/git/eapidk-code-r76-trunk/apps/EeePProg/linux/../BinFuncs.c ****     stRowSize=stElementCount*stElementSize;
 299:/home/hkh/git/eapidk-code-r76-trunk/apps/EeePProg/linux/../BinFuncs.c ****     pcu8PageEnd=((const uint8_t *)pcvBuffer)+stBufSize;
 300:/home/hkh/git/eapidk-code-r76-trunk/apps/EeePProg/linux/../BinFuncs.c **** 
 301:/home/hkh/git/eapidk-code-r76-trunk/apps/EeePProg/linux/../BinFuncs.c ****     if(pcszDescription!=NULL)
 302:/home/hkh/git/eapidk-code-r76-trunk/apps/EeePProg/linux/../BinFuncs.c ****       EAPI_printf(TEXT("\n%s\n"), pcszDescription);
 303:/home/hkh/git/eapidk-code-r76-trunk/apps/EeePProg/linux/../BinFuncs.c ****     stOffset=((uint8_t*)pcvBuffer)- pcu8Mem;
 304:/home/hkh/git/eapidk-code-r76-trunk/apps/EeePProg/linux/../BinFuncs.c **** 
 305:/home/hkh/git/eapidk-code-r76-trunk/apps/EeePProg/linux/../BinFuncs.c ****     if(cuiFlags&HEXTBL_OFFSET_TITLE)
 306:/home/hkh/git/eapidk-code-r76-trunk/apps/EeePProg/linux/../BinFuncs.c ****       EAPI_printf(TEXT("\n\tOFFSET = 0x%08lX, LENGTH = 0x%08lX\n"), (unsigned long)stOffset, (unsig
 307:/home/hkh/git/eapidk-code-r76-trunk/apps/EeePProg/linux/../BinFuncs.c **** 
 308:/home/hkh/git/eapidk-code-r76-trunk/apps/EeePProg/linux/../BinFuncs.c ****     if(stBufSize==0) EAPI_APP_EXIT;
 309:/home/hkh/git/eapidk-code-r76-trunk/apps/EeePProg/linux/../BinFuncs.c **** 
 310:/home/hkh/git/eapidk-code-r76-trunk/apps/EeePProg/linux/../BinFuncs.c ****     pcu8Mem=((uint8_t*)pcvBuffer) - (stOffset%stRowSize);
 311:/home/hkh/git/eapidk-code-r76-trunk/apps/EeePProg/linux/../BinFuncs.c **** 
 312:/home/hkh/git/eapidk-code-r76-trunk/apps/EeePProg/linux/../BinFuncs.c ****     stOffsetBase=pcu8Mem - (uint8_t*)pcvBase;
 313:/home/hkh/git/eapidk-code-r76-trunk/apps/EeePProg/linux/../BinFuncs.c ****     while(pcu8Mem<pcu8PageEnd)
 314:/home/hkh/git/eapidk-code-r76-trunk/apps/EeePProg/linux/../BinFuncs.c ****     {
 315:/home/hkh/git/eapidk-code-r76-trunk/apps/EeePProg/linux/../BinFuncs.c ****       stOffset=pcu8Mem - (uint8_t*)pcvBase;
 316:/home/hkh/git/eapidk-code-r76-trunk/apps/EeePProg/linux/../BinFuncs.c ****       if(!((stOffset - stOffsetBase)%(stRowSize*16))){
 317:/home/hkh/git/eapidk-code-r76-trunk/apps/EeePProg/linux/../BinFuncs.c ****         /*
 318:/home/hkh/git/eapidk-code-r76-trunk/apps/EeePProg/linux/../BinFuncs.c ****          * Print Block Header
 319:/home/hkh/git/eapidk-code-r76-trunk/apps/EeePProg/linux/../BinFuncs.c ****          */
 320:/home/hkh/git/eapidk-code-r76-trunk/apps/EeePProg/linux/../BinFuncs.c ****         EAPI_printf(TEXT("\n"));
 321:/home/hkh/git/eapidk-code-r76-trunk/apps/EeePProg/linux/../BinFuncs.c ****         if(cuiFlags&HEXTBL_OFFSET_BAR)
 322:/home/hkh/git/eapidk-code-r76-trunk/apps/EeePProg/linux/../BinFuncs.c ****           EAPI_printf(TEXT("         "));
 323:/home/hkh/git/eapidk-code-r76-trunk/apps/EeePProg/linux/../BinFuncs.c ****         if(cuiFlags&HEXTBL_OFFSET_COUNT){
 324:/home/hkh/git/eapidk-code-r76-trunk/apps/EeePProg/linux/../BinFuncs.c ****           for(stOffset=0;stOffset<stElementCount;stOffset++){
ARM GAS  /tmp/ccf3bFwG.s 			page 18


 325:/home/hkh/git/eapidk-code-r76-trunk/apps/EeePProg/linux/../BinFuncs.c ****             EAPI_printf(TEXT("%0*lX "), (int)(2*stElementSize), (unsigned long)stOffset);
 326:/home/hkh/git/eapidk-code-r76-trunk/apps/EeePProg/linux/../BinFuncs.c ****           }
 327:/home/hkh/git/eapidk-code-r76-trunk/apps/EeePProg/linux/../BinFuncs.c ****           if(cuiFlags&HEXTBL_ASCII_MASK){
 328:/home/hkh/git/eapidk-code-r76-trunk/apps/EeePProg/linux/../BinFuncs.c ****             for(stOffset=0;stOffset<(stRowSize);stOffset++){
 329:/home/hkh/git/eapidk-code-r76-trunk/apps/EeePProg/linux/../BinFuncs.c ****               EAPI_printf(TEXT("%lX"), (((unsigned long)stOffset)&0xF));
 330:/home/hkh/git/eapidk-code-r76-trunk/apps/EeePProg/linux/../BinFuncs.c ****             }
 331:/home/hkh/git/eapidk-code-r76-trunk/apps/EeePProg/linux/../BinFuncs.c ****           }
 332:/home/hkh/git/eapidk-code-r76-trunk/apps/EeePProg/linux/../BinFuncs.c ****           EAPI_printf(TEXT("\n"));
 333:/home/hkh/git/eapidk-code-r76-trunk/apps/EeePProg/linux/../BinFuncs.c ****         }
 334:/home/hkh/git/eapidk-code-r76-trunk/apps/EeePProg/linux/../BinFuncs.c ****         stOffset=pcu8Mem - (uint8_t*)pcvBase;
 335:/home/hkh/git/eapidk-code-r76-trunk/apps/EeePProg/linux/../BinFuncs.c ****       }
 336:/home/hkh/git/eapidk-code-r76-trunk/apps/EeePProg/linux/../BinFuncs.c ****       if(cuiFlags&HEXTBL_OFFSET_BAR)
 337:/home/hkh/git/eapidk-code-r76-trunk/apps/EeePProg/linux/../BinFuncs.c ****         EAPI_printf(TEXT("%08lX ") , (unsigned long)stOffset);
 338:/home/hkh/git/eapidk-code-r76-trunk/apps/EeePProg/linux/../BinFuncs.c **** 
 339:/home/hkh/git/eapidk-code-r76-trunk/apps/EeePProg/linux/../BinFuncs.c ****         /*
 340:/home/hkh/git/eapidk-code-r76-trunk/apps/EeePProg/linux/../BinFuncs.c ****          * Print Binary Hex Data
 341:/home/hkh/git/eapidk-code-r76-trunk/apps/EeePProg/linux/../BinFuncs.c ****          */
 342:/home/hkh/git/eapidk-code-r76-trunk/apps/EeePProg/linux/../BinFuncs.c ****       for(stOffset=0; stOffset<stRowSize; stOffset+=stElementSize)
 343:/home/hkh/git/eapidk-code-r76-trunk/apps/EeePProg/linux/../BinFuncs.c ****       {
 344:/home/hkh/git/eapidk-code-r76-trunk/apps/EeePProg/linux/../BinFuncs.c ****         if((pcu8PageEnd>(pcu8Mem+stOffset))&&((stOffset+pcu8Mem)>=((uint8_t *)pcvBuffer))){
 345:/home/hkh/git/eapidk-code-r76-trunk/apps/EeePProg/linux/../BinFuncs.c ****           siBin2Ascii(
 346:/home/hkh/git/eapidk-code-r76-trunk/apps/EeePProg/linux/../BinFuncs.c ****               szAsciiBufer            , 
 347:/home/hkh/git/eapidk-code-r76-trunk/apps/EeePProg/linux/../BinFuncs.c ****               ARRAY_SIZE(szAsciiBufer), 
 348:/home/hkh/git/eapidk-code-r76-trunk/apps/EeePProg/linux/../BinFuncs.c ****               pcu8Mem+stOffset        , 
 349:/home/hkh/git/eapidk-code-r76-trunk/apps/EeePProg/linux/../BinFuncs.c ****               stElementSize           , 
 350:/home/hkh/git/eapidk-code-r76-trunk/apps/EeePProg/linux/../BinFuncs.c ****               cuiFlags
 351:/home/hkh/git/eapidk-code-r76-trunk/apps/EeePProg/linux/../BinFuncs.c ****             );
 352:/home/hkh/git/eapidk-code-r76-trunk/apps/EeePProg/linux/../BinFuncs.c ****           EAPI_printf(TEXT("%s "), szAsciiBufer);
 353:/home/hkh/git/eapidk-code-r76-trunk/apps/EeePProg/linux/../BinFuncs.c ****         }else{
 354:/home/hkh/git/eapidk-code-r76-trunk/apps/EeePProg/linux/../BinFuncs.c ****           EAPI_printf(TEXT("%*s "), (int)(2*stElementSize), TEXT(""));
 355:/home/hkh/git/eapidk-code-r76-trunk/apps/EeePProg/linux/../BinFuncs.c ****         }
 356:/home/hkh/git/eapidk-code-r76-trunk/apps/EeePProg/linux/../BinFuncs.c ****       }
 357:/home/hkh/git/eapidk-code-r76-trunk/apps/EeePProg/linux/../BinFuncs.c ****       if(cuiFlags&HEXTBL_ASCII_MASK){
 358:/home/hkh/git/eapidk-code-r76-trunk/apps/EeePProg/linux/../BinFuncs.c ****         /*
 359:/home/hkh/git/eapidk-code-r76-trunk/apps/EeePProg/linux/../BinFuncs.c ****          * Print ASCII Characters
 360:/home/hkh/git/eapidk-code-r76-trunk/apps/EeePProg/linux/../BinFuncs.c ****          */
 361:/home/hkh/git/eapidk-code-r76-trunk/apps/EeePProg/linux/../BinFuncs.c ****         for(stOffset=0;stOffset<stRowSize;stOffset++)
 362:/home/hkh/git/eapidk-code-r76-trunk/apps/EeePProg/linux/../BinFuncs.c ****         {
 363:/home/hkh/git/eapidk-code-r76-trunk/apps/EeePProg/linux/../BinFuncs.c ****           if((pcu8PageEnd>(pcu8Mem+stOffset))&&((stOffset+pcu8Mem)>=((uint8_t *)pcvBuffer))){
 364:/home/hkh/git/eapidk-code-r76-trunk/apps/EeePProg/linux/../BinFuncs.c ****             EAPI_printf(TEXT("%c"), cBin2Ascii(pcu8Mem[stOffset]));
 365:/home/hkh/git/eapidk-code-r76-trunk/apps/EeePProg/linux/../BinFuncs.c ****           }else{
 366:/home/hkh/git/eapidk-code-r76-trunk/apps/EeePProg/linux/../BinFuncs.c ****             EAPI_printf(TEXT(" "));
 367:/home/hkh/git/eapidk-code-r76-trunk/apps/EeePProg/linux/../BinFuncs.c ****           }
 368:/home/hkh/git/eapidk-code-r76-trunk/apps/EeePProg/linux/../BinFuncs.c ****         }
 369:/home/hkh/git/eapidk-code-r76-trunk/apps/EeePProg/linux/../BinFuncs.c ****       }
 370:/home/hkh/git/eapidk-code-r76-trunk/apps/EeePProg/linux/../BinFuncs.c ****       pcu8Mem+=stRowSize;
 371:/home/hkh/git/eapidk-code-r76-trunk/apps/EeePProg/linux/../BinFuncs.c ****       EAPI_printf(TEXT("\n"));
 372:/home/hkh/git/eapidk-code-r76-trunk/apps/EeePProg/linux/../BinFuncs.c ****     }
 373:/home/hkh/git/eapidk-code-r76-trunk/apps/EeePProg/linux/../BinFuncs.c **** EAPI_APP_ASSERT_EXIT
 374:/home/hkh/git/eapidk-code-r76-trunk/apps/EeePProg/linux/../BinFuncs.c ****   return StatusCode;
 375:/home/hkh/git/eapidk-code-r76-trunk/apps/EeePProg/linux/../BinFuncs.c **** }
 376:/home/hkh/git/eapidk-code-r76-trunk/apps/EeePProg/linux/../BinFuncs.c **** 
 377:/home/hkh/git/eapidk-code-r76-trunk/apps/EeePProg/linux/../BinFuncs.c **** void 
 378:/home/hkh/git/eapidk-code-r76-trunk/apps/EeePProg/linux/../BinFuncs.c **** PrintHexAsciiTable(
 379:/home/hkh/git/eapidk-code-r76-trunk/apps/EeePProg/linux/../BinFuncs.c **** 	__IN    const void *const pcvBuffer             ,
 380:/home/hkh/git/eapidk-code-r76-trunk/apps/EeePProg/linux/../BinFuncs.c **** 	__IN    const size_t      cstBufSize	        ,
 381:/home/hkh/git/eapidk-code-r76-trunk/apps/EeePProg/linux/../BinFuncs.c **** 	__IN    const void *const pcvBase		,
ARM GAS  /tmp/ccf3bFwG.s 			page 19


 382:/home/hkh/git/eapidk-code-r76-trunk/apps/EeePProg/linux/../BinFuncs.c **** 	__IN    const TCHAR *const pcszDescription
 383:/home/hkh/git/eapidk-code-r76-trunk/apps/EeePProg/linux/../BinFuncs.c **** 	)
 384:/home/hkh/git/eapidk-code-r76-trunk/apps/EeePProg/linux/../BinFuncs.c **** {
 385:/home/hkh/git/eapidk-code-r76-trunk/apps/EeePProg/linux/../BinFuncs.c ****   PrintHexAsciiTableEx(
 386:/home/hkh/git/eapidk-code-r76-trunk/apps/EeePProg/linux/../BinFuncs.c ****       pcvBuffer           ,
 387:/home/hkh/git/eapidk-code-r76-trunk/apps/EeePProg/linux/../BinFuncs.c ****       cstBufSize          ,
 388:/home/hkh/git/eapidk-code-r76-trunk/apps/EeePProg/linux/../BinFuncs.c ****       pcvBase             ,
 389:/home/hkh/git/eapidk-code-r76-trunk/apps/EeePProg/linux/../BinFuncs.c ****       pcszDescription     ,
 390:/home/hkh/git/eapidk-code-r76-trunk/apps/EeePProg/linux/../BinFuncs.c ****       HEXTBL_NORM8_ATTRIB
 391:/home/hkh/git/eapidk-code-r76-trunk/apps/EeePProg/linux/../BinFuncs.c ****     );
 392:/home/hkh/git/eapidk-code-r76-trunk/apps/EeePProg/linux/../BinFuncs.c **** }
 393:/home/hkh/git/eapidk-code-r76-trunk/apps/EeePProg/linux/../BinFuncs.c **** 
 394:/home/hkh/git/eapidk-code-r76-trunk/apps/EeePProg/linux/../BinFuncs.c **** 
 395:/home/hkh/git/eapidk-code-r76-trunk/apps/EeePProg/linux/../BinFuncs.c **** 
 396:/home/hkh/git/eapidk-code-r76-trunk/apps/EeePProg/linux/../BinFuncs.c **** /*
 397:/home/hkh/git/eapidk-code-r76-trunk/apps/EeePProg/linux/../BinFuncs.c ****  *
 398:/home/hkh/git/eapidk-code-r76-trunk/apps/EeePProg/linux/../BinFuncs.c ****  *
 399:/home/hkh/git/eapidk-code-r76-trunk/apps/EeePProg/linux/../BinFuncs.c ****  *
 400:/home/hkh/git/eapidk-code-r76-trunk/apps/EeePProg/linux/../BinFuncs.c ****  *  File Access Routines
 401:/home/hkh/git/eapidk-code-r76-trunk/apps/EeePProg/linux/../BinFuncs.c ****  *
 402:/home/hkh/git/eapidk-code-r76-trunk/apps/EeePProg/linux/../BinFuncs.c ****  *
 403:/home/hkh/git/eapidk-code-r76-trunk/apps/EeePProg/linux/../BinFuncs.c ****  *
 404:/home/hkh/git/eapidk-code-r76-trunk/apps/EeePProg/linux/../BinFuncs.c ****  */
 405:/home/hkh/git/eapidk-code-r76-trunk/apps/EeePProg/linux/../BinFuncs.c **** EApiStatus_t 
 406:/home/hkh/git/eapidk-code-r76-trunk/apps/EeePProg/linux/../BinFuncs.c **** LclWriteFile(
 407:/home/hkh/git/eapidk-code-r76-trunk/apps/EeePProg/linux/../BinFuncs.c ****     __IN const char *cszFilename, 
 408:/home/hkh/git/eapidk-code-r76-trunk/apps/EeePProg/linux/../BinFuncs.c ****     __IN const void *pcvBuffer  , 
 409:/home/hkh/git/eapidk-code-r76-trunk/apps/EeePProg/linux/../BinFuncs.c ****     __IN size_t      stWriteBCnt,
 410:/home/hkh/git/eapidk-code-r76-trunk/apps/EeePProg/linux/../BinFuncs.c ****     __IN const char *cszWriteType
 411:/home/hkh/git/eapidk-code-r76-trunk/apps/EeePProg/linux/../BinFuncs.c ****   )
 412:/home/hkh/git/eapidk-code-r76-trunk/apps/EeePProg/linux/../BinFuncs.c **** {
 413:/home/hkh/git/eapidk-code-r76-trunk/apps/EeePProg/linux/../BinFuncs.c ****   EApiStatus_t StatusCode=EAPI_STATUS_SUCCESS;
 414:/home/hkh/git/eapidk-code-r76-trunk/apps/EeePProg/linux/../BinFuncs.c ****   FILE *LclFilePtr;
 415:/home/hkh/git/eapidk-code-r76-trunk/apps/EeePProg/linux/../BinFuncs.c ****   EAPI_APP_ASSERT_PARAMATER_NULL(
 416:/home/hkh/git/eapidk-code-r76-trunk/apps/EeePProg/linux/../BinFuncs.c ****       LclWriteFile,
 417:/home/hkh/git/eapidk-code-r76-trunk/apps/EeePProg/linux/../BinFuncs.c ****       EAPI_STATUS_INVALID_PARAMETER,
 418:/home/hkh/git/eapidk-code-r76-trunk/apps/EeePProg/linux/../BinFuncs.c ****       cszFilename
 419:/home/hkh/git/eapidk-code-r76-trunk/apps/EeePProg/linux/../BinFuncs.c ****     );
 420:/home/hkh/git/eapidk-code-r76-trunk/apps/EeePProg/linux/../BinFuncs.c ****   EAPI_APP_ASSERT_PARAMATER_NULL(
 421:/home/hkh/git/eapidk-code-r76-trunk/apps/EeePProg/linux/../BinFuncs.c ****       LclWriteFile,
 422:/home/hkh/git/eapidk-code-r76-trunk/apps/EeePProg/linux/../BinFuncs.c ****       EAPI_STATUS_INVALID_PARAMETER,
 423:/home/hkh/git/eapidk-code-r76-trunk/apps/EeePProg/linux/../BinFuncs.c ****       pcvBuffer
 424:/home/hkh/git/eapidk-code-r76-trunk/apps/EeePProg/linux/../BinFuncs.c ****     );
 425:/home/hkh/git/eapidk-code-r76-trunk/apps/EeePProg/linux/../BinFuncs.c ****   EAPI_APP_ASSERT_PARAMATER_ZERO(
 426:/home/hkh/git/eapidk-code-r76-trunk/apps/EeePProg/linux/../BinFuncs.c ****       LclWriteFile,
 427:/home/hkh/git/eapidk-code-r76-trunk/apps/EeePProg/linux/../BinFuncs.c ****       EAPI_STATUS_INVALID_PARAMETER,
 428:/home/hkh/git/eapidk-code-r76-trunk/apps/EeePProg/linux/../BinFuncs.c ****       stWriteBCnt
 429:/home/hkh/git/eapidk-code-r76-trunk/apps/EeePProg/linux/../BinFuncs.c ****     );
 430:/home/hkh/git/eapidk-code-r76-trunk/apps/EeePProg/linux/../BinFuncs.c **** 
 431:/home/hkh/git/eapidk-code-r76-trunk/apps/EeePProg/linux/../BinFuncs.c ****   LclFilePtr=fopen(cszFilename, cszWriteType);
 432:/home/hkh/git/eapidk-code-r76-trunk/apps/EeePProg/linux/../BinFuncs.c ****   if(LclFilePtr==NULL){
 433:/home/hkh/git/eapidk-code-r76-trunk/apps/EeePProg/linux/../BinFuncs.c ****     StatusCode=EAPI_STATUS_WRITE_ERROR;
 434:/home/hkh/git/eapidk-code-r76-trunk/apps/EeePProg/linux/../BinFuncs.c ****     siFormattedMessage_SC('L', __FILE__, "LclWriteFile", __LINE__, StatusCode,
 435:/home/hkh/git/eapidk-code-r76-trunk/apps/EeePProg/linux/../BinFuncs.c ****         "Opening File %s(%s)\n", cszFilename, cszWriteType);
 436:/home/hkh/git/eapidk-code-r76-trunk/apps/EeePProg/linux/../BinFuncs.c ****     EAPI_APP_EXIT;
 437:/home/hkh/git/eapidk-code-r76-trunk/apps/EeePProg/linux/../BinFuncs.c ****   }
 438:/home/hkh/git/eapidk-code-r76-trunk/apps/EeePProg/linux/../BinFuncs.c ****   EAPI_APP_RETURN_ERROR_IF_S(
ARM GAS  /tmp/ccf3bFwG.s 			page 20


 439:/home/hkh/git/eapidk-code-r76-trunk/apps/EeePProg/linux/../BinFuncs.c ****       LclWriteFile,
 440:/home/hkh/git/eapidk-code-r76-trunk/apps/EeePProg/linux/../BinFuncs.c ****       (stWriteBCnt!=fwrite(pcvBuffer, sizeof(uint8_t), stWriteBCnt, LclFilePtr)),
 441:/home/hkh/git/eapidk-code-r76-trunk/apps/EeePProg/linux/../BinFuncs.c ****       EAPI_STATUS_WRITE_ERROR
 442:/home/hkh/git/eapidk-code-r76-trunk/apps/EeePProg/linux/../BinFuncs.c ****     );
 443:/home/hkh/git/eapidk-code-r76-trunk/apps/EeePProg/linux/../BinFuncs.c ****   fclose(LclFilePtr);
 444:/home/hkh/git/eapidk-code-r76-trunk/apps/EeePProg/linux/../BinFuncs.c **** EAPI_APP_ASSERT_EXIT
 445:/home/hkh/git/eapidk-code-r76-trunk/apps/EeePProg/linux/../BinFuncs.c ****   return StatusCode;
 446:/home/hkh/git/eapidk-code-r76-trunk/apps/EeePProg/linux/../BinFuncs.c **** }
 447:/home/hkh/git/eapidk-code-r76-trunk/apps/EeePProg/linux/../BinFuncs.c **** 
 448:/home/hkh/git/eapidk-code-r76-trunk/apps/EeePProg/linux/../BinFuncs.c **** EApiStatus_t
 449:/home/hkh/git/eapidk-code-r76-trunk/apps/EeePProg/linux/../BinFuncs.c **** LclReadFile(
 450:/home/hkh/git/eapidk-code-r76-trunk/apps/EeePProg/linux/../BinFuncs.c ****     __IN  const char *cszFilename, 
 451:/home/hkh/git/eapidk-code-r76-trunk/apps/EeePProg/linux/../BinFuncs.c ****     __OUT void      **pvBuffer, 
 452:/home/hkh/git/eapidk-code-r76-trunk/apps/EeePProg/linux/../BinFuncs.c ****     __OUT size_t     *pstReadBCnt,
 453:/home/hkh/git/eapidk-code-r76-trunk/apps/EeePProg/linux/../BinFuncs.c ****     __IN  const char *cszReadType 
 454:/home/hkh/git/eapidk-code-r76-trunk/apps/EeePProg/linux/../BinFuncs.c ****   )
 455:/home/hkh/git/eapidk-code-r76-trunk/apps/EeePProg/linux/../BinFuncs.c **** {
 456:/home/hkh/git/eapidk-code-r76-trunk/apps/EeePProg/linux/../BinFuncs.c ****   EApiStatus_t StatusCode=EAPI_STATUS_SUCCESS;
 457:/home/hkh/git/eapidk-code-r76-trunk/apps/EeePProg/linux/../BinFuncs.c ****   FILE *LclFilePtr;
 458:/home/hkh/git/eapidk-code-r76-trunk/apps/EeePProg/linux/../BinFuncs.c ****   size_t stFileLen;
 459:/home/hkh/git/eapidk-code-r76-trunk/apps/EeePProg/linux/../BinFuncs.c ****   EAPI_APP_ASSERT_PARAMATER_NULL(
 460:/home/hkh/git/eapidk-code-r76-trunk/apps/EeePProg/linux/../BinFuncs.c ****       LclReadFile,
 461:/home/hkh/git/eapidk-code-r76-trunk/apps/EeePProg/linux/../BinFuncs.c ****       EAPI_STATUS_INVALID_PARAMETER,
 462:/home/hkh/git/eapidk-code-r76-trunk/apps/EeePProg/linux/../BinFuncs.c ****       cszFilename
 463:/home/hkh/git/eapidk-code-r76-trunk/apps/EeePProg/linux/../BinFuncs.c ****     );
 464:/home/hkh/git/eapidk-code-r76-trunk/apps/EeePProg/linux/../BinFuncs.c ****   EAPI_APP_ASSERT_PARAMATER_NULL(
 465:/home/hkh/git/eapidk-code-r76-trunk/apps/EeePProg/linux/../BinFuncs.c ****       LclReadFile,
 466:/home/hkh/git/eapidk-code-r76-trunk/apps/EeePProg/linux/../BinFuncs.c ****       EAPI_STATUS_INVALID_PARAMETER,
 467:/home/hkh/git/eapidk-code-r76-trunk/apps/EeePProg/linux/../BinFuncs.c ****       pvBuffer
 468:/home/hkh/git/eapidk-code-r76-trunk/apps/EeePProg/linux/../BinFuncs.c ****     );
 469:/home/hkh/git/eapidk-code-r76-trunk/apps/EeePProg/linux/../BinFuncs.c ****   EAPI_APP_ASSERT_PARAMATER_NULL(
 470:/home/hkh/git/eapidk-code-r76-trunk/apps/EeePProg/linux/../BinFuncs.c ****       LclReadFile,
 471:/home/hkh/git/eapidk-code-r76-trunk/apps/EeePProg/linux/../BinFuncs.c ****       EAPI_STATUS_INVALID_PARAMETER,
 472:/home/hkh/git/eapidk-code-r76-trunk/apps/EeePProg/linux/../BinFuncs.c ****       pstReadBCnt
 473:/home/hkh/git/eapidk-code-r76-trunk/apps/EeePProg/linux/../BinFuncs.c ****     );
 474:/home/hkh/git/eapidk-code-r76-trunk/apps/EeePProg/linux/../BinFuncs.c ****   *pstReadBCnt=0;
 475:/home/hkh/git/eapidk-code-r76-trunk/apps/EeePProg/linux/../BinFuncs.c ****   LclFilePtr=fopen(cszFilename, cszReadType);
 476:/home/hkh/git/eapidk-code-r76-trunk/apps/EeePProg/linux/../BinFuncs.c ****   if(LclFilePtr==NULL){
 477:/home/hkh/git/eapidk-code-r76-trunk/apps/EeePProg/linux/../BinFuncs.c ****     StatusCode=EAPI_STATUS_READ_ERROR;
 478:/home/hkh/git/eapidk-code-r76-trunk/apps/EeePProg/linux/../BinFuncs.c ****     siFormattedMessage_SC('L', __FILE__, "LclReadFile", __LINE__, StatusCode,
 479:/home/hkh/git/eapidk-code-r76-trunk/apps/EeePProg/linux/../BinFuncs.c ****         "Opening File %s(%s)\n", cszFilename, cszReadType);
 480:/home/hkh/git/eapidk-code-r76-trunk/apps/EeePProg/linux/../BinFuncs.c ****     EAPI_APP_EXIT;
 481:/home/hkh/git/eapidk-code-r76-trunk/apps/EeePProg/linux/../BinFuncs.c ****   }
 482:/home/hkh/git/eapidk-code-r76-trunk/apps/EeePProg/linux/../BinFuncs.c **** 
 483:/home/hkh/git/eapidk-code-r76-trunk/apps/EeePProg/linux/../BinFuncs.c ****   fseek(LclFilePtr, 0, SEEK_END);
 484:/home/hkh/git/eapidk-code-r76-trunk/apps/EeePProg/linux/../BinFuncs.c ****   stFileLen=ftell(LclFilePtr);
 485:/home/hkh/git/eapidk-code-r76-trunk/apps/EeePProg/linux/../BinFuncs.c ****   *pvBuffer=malloc(stFileLen);
 486:/home/hkh/git/eapidk-code-r76-trunk/apps/EeePProg/linux/../BinFuncs.c ****   EAPI_APP_ASSERT_PARAMATER_NULL(
 487:/home/hkh/git/eapidk-code-r76-trunk/apps/EeePProg/linux/../BinFuncs.c ****       LclReadFile,
 488:/home/hkh/git/eapidk-code-r76-trunk/apps/EeePProg/linux/../BinFuncs.c ****       EAPI_STATUS_ALLOC_ERROR,
 489:/home/hkh/git/eapidk-code-r76-trunk/apps/EeePProg/linux/../BinFuncs.c ****       *pvBuffer
 490:/home/hkh/git/eapidk-code-r76-trunk/apps/EeePProg/linux/../BinFuncs.c ****     );
 491:/home/hkh/git/eapidk-code-r76-trunk/apps/EeePProg/linux/../BinFuncs.c **** 
 492:/home/hkh/git/eapidk-code-r76-trunk/apps/EeePProg/linux/../BinFuncs.c ****   rewind(LclFilePtr);
 493:/home/hkh/git/eapidk-code-r76-trunk/apps/EeePProg/linux/../BinFuncs.c ****   *pstReadBCnt=stFileLen;
 494:/home/hkh/git/eapidk-code-r76-trunk/apps/EeePProg/linux/../BinFuncs.c **** #if 0
 495:/home/hkh/git/eapidk-code-r76-trunk/apps/EeePProg/linux/../BinFuncs.c ****   if(stFileLen!=fread(*pvBuffer, sizeof(uint8_t), stFileLen, LclFilePtr)){
ARM GAS  /tmp/ccf3bFwG.s 			page 21


 496:/home/hkh/git/eapidk-code-r76-trunk/apps/EeePProg/linux/../BinFuncs.c ****     free(*pvBuffer);
 497:/home/hkh/git/eapidk-code-r76-trunk/apps/EeePProg/linux/../BinFuncs.c ****     *pvBuffer=NULL;
 498:/home/hkh/git/eapidk-code-r76-trunk/apps/EeePProg/linux/../BinFuncs.c ****     EAPI_APP_RETURN_ERROR(
 499:/home/hkh/git/eapidk-code-r76-trunk/apps/EeePProg/linux/../BinFuncs.c ****         LclReadFile,
 500:/home/hkh/git/eapidk-code-r76-trunk/apps/EeePProg/linux/../BinFuncs.c ****         EAPI_STATUS_READ_ERROR,
 501:/home/hkh/git/eapidk-code-r76-trunk/apps/EeePProg/linux/../BinFuncs.c ****         TEXT("(stFileLen!=fread(*pvBuffer, sizeof(uint8_t), stFileLen, LclFilePtr))")
 502:/home/hkh/git/eapidk-code-r76-trunk/apps/EeePProg/linux/../BinFuncs.c ****       );
 503:/home/hkh/git/eapidk-code-r76-trunk/apps/EeePProg/linux/../BinFuncs.c ****   }
 504:/home/hkh/git/eapidk-code-r76-trunk/apps/EeePProg/linux/../BinFuncs.c **** #else
 505:/home/hkh/git/eapidk-code-r76-trunk/apps/EeePProg/linux/../BinFuncs.c ****   stFileLen=fread(*pvBuffer, sizeof(uint8_t), stFileLen, LclFilePtr);
 506:/home/hkh/git/eapidk-code-r76-trunk/apps/EeePProg/linux/../BinFuncs.c **** #endif
 507:/home/hkh/git/eapidk-code-r76-trunk/apps/EeePProg/linux/../BinFuncs.c ****   *pstReadBCnt=stFileLen;
 508:/home/hkh/git/eapidk-code-r76-trunk/apps/EeePProg/linux/../BinFuncs.c ****   fclose(LclFilePtr);
 509:/home/hkh/git/eapidk-code-r76-trunk/apps/EeePProg/linux/../BinFuncs.c **** 
 510:/home/hkh/git/eapidk-code-r76-trunk/apps/EeePProg/linux/../BinFuncs.c **** EAPI_APP_ASSERT_EXIT
 511:/home/hkh/git/eapidk-code-r76-trunk/apps/EeePProg/linux/../BinFuncs.c ****   return StatusCode;
 512:/home/hkh/git/eapidk-code-r76-trunk/apps/EeePProg/linux/../BinFuncs.c **** }
 513:/home/hkh/git/eapidk-code-r76-trunk/apps/EeePProg/linux/../BinFuncs.c **** 
 514:/home/hkh/git/eapidk-code-r76-trunk/apps/EeePProg/linux/../BinFuncs.c **** EApiStatus_t 
 515:/home/hkh/git/eapidk-code-r76-trunk/apps/EeePProg/linux/../BinFuncs.c **** WriteBinaryFile(
 516:/home/hkh/git/eapidk-code-r76-trunk/apps/EeePProg/linux/../BinFuncs.c ****     __IN const char *cszFilename, 
 517:/home/hkh/git/eapidk-code-r76-trunk/apps/EeePProg/linux/../BinFuncs.c ****     __IN const void *pcvBuffer   , 
 518:/home/hkh/git/eapidk-code-r76-trunk/apps/EeePProg/linux/../BinFuncs.c ****     __IN size_t      stWriteBCnt
 519:/home/hkh/git/eapidk-code-r76-trunk/apps/EeePProg/linux/../BinFuncs.c ****   )
 520:/home/hkh/git/eapidk-code-r76-trunk/apps/EeePProg/linux/../BinFuncs.c **** {
 521:/home/hkh/git/eapidk-code-r76-trunk/apps/EeePProg/linux/../BinFuncs.c ****   return LclWriteFile(cszFilename, pcvBuffer, stWriteBCnt, "wb");
 522:/home/hkh/git/eapidk-code-r76-trunk/apps/EeePProg/linux/../BinFuncs.c **** }
 523:/home/hkh/git/eapidk-code-r76-trunk/apps/EeePProg/linux/../BinFuncs.c **** 
 524:/home/hkh/git/eapidk-code-r76-trunk/apps/EeePProg/linux/../BinFuncs.c **** EApiStatus_t
 525:/home/hkh/git/eapidk-code-r76-trunk/apps/EeePProg/linux/../BinFuncs.c **** ReadBinaryFile(
 526:/home/hkh/git/eapidk-code-r76-trunk/apps/EeePProg/linux/../BinFuncs.c ****     __IN  const char *cszFilename, 
 527:/home/hkh/git/eapidk-code-r76-trunk/apps/EeePProg/linux/../BinFuncs.c ****     __OUT void      **pvBuffer, 
 528:/home/hkh/git/eapidk-code-r76-trunk/apps/EeePProg/linux/../BinFuncs.c ****     __OUT size_t     *pstReadBCnt
 529:/home/hkh/git/eapidk-code-r76-trunk/apps/EeePProg/linux/../BinFuncs.c ****   )
 530:/home/hkh/git/eapidk-code-r76-trunk/apps/EeePProg/linux/../BinFuncs.c **** {
 531:/home/hkh/git/eapidk-code-r76-trunk/apps/EeePProg/linux/../BinFuncs.c ****   return LclReadFile(cszFilename, pvBuffer, pstReadBCnt, "rb");
 532:/home/hkh/git/eapidk-code-r76-trunk/apps/EeePProg/linux/../BinFuncs.c **** }
 533:/home/hkh/git/eapidk-code-r76-trunk/apps/EeePProg/linux/../BinFuncs.c **** EApiStatus_t 
 534:/home/hkh/git/eapidk-code-r76-trunk/apps/EeePProg/linux/../BinFuncs.c **** WriteTextFile(
 535:/home/hkh/git/eapidk-code-r76-trunk/apps/EeePProg/linux/../BinFuncs.c ****     __IN const char *cszFilename, 
 536:/home/hkh/git/eapidk-code-r76-trunk/apps/EeePProg/linux/../BinFuncs.c ****     __IN const void *pcvBuffer   , 
 537:/home/hkh/git/eapidk-code-r76-trunk/apps/EeePProg/linux/../BinFuncs.c ****     __IN size_t      stWriteBCnt
 538:/home/hkh/git/eapidk-code-r76-trunk/apps/EeePProg/linux/../BinFuncs.c ****   )
 539:/home/hkh/git/eapidk-code-r76-trunk/apps/EeePProg/linux/../BinFuncs.c **** {
 540:/home/hkh/git/eapidk-code-r76-trunk/apps/EeePProg/linux/../BinFuncs.c ****   return LclWriteFile(cszFilename, pcvBuffer, stWriteBCnt, "w");
 541:/home/hkh/git/eapidk-code-r76-trunk/apps/EeePProg/linux/../BinFuncs.c **** }
 542:/home/hkh/git/eapidk-code-r76-trunk/apps/EeePProg/linux/../BinFuncs.c **** 
 543:/home/hkh/git/eapidk-code-r76-trunk/apps/EeePProg/linux/../BinFuncs.c **** EApiStatus_t
 544:/home/hkh/git/eapidk-code-r76-trunk/apps/EeePProg/linux/../BinFuncs.c **** ReadTextFile(
 545:/home/hkh/git/eapidk-code-r76-trunk/apps/EeePProg/linux/../BinFuncs.c ****     __IN  const char *cszFilename, 
 546:/home/hkh/git/eapidk-code-r76-trunk/apps/EeePProg/linux/../BinFuncs.c ****     __OUT void      **pvBuffer, 
 547:/home/hkh/git/eapidk-code-r76-trunk/apps/EeePProg/linux/../BinFuncs.c ****     __OUT size_t     *pstReadBCnt
 548:/home/hkh/git/eapidk-code-r76-trunk/apps/EeePProg/linux/../BinFuncs.c ****   )
 549:/home/hkh/git/eapidk-code-r76-trunk/apps/EeePProg/linux/../BinFuncs.c **** {
 550:/home/hkh/git/eapidk-code-r76-trunk/apps/EeePProg/linux/../BinFuncs.c ****   return LclReadFile(cszFilename, pvBuffer, pstReadBCnt, "r");
 551:/home/hkh/git/eapidk-code-r76-trunk/apps/EeePProg/linux/../BinFuncs.c **** }
 552:/home/hkh/git/eapidk-code-r76-trunk/apps/EeePProg/linux/../BinFuncs.c **** 
ARM GAS  /tmp/ccf3bFwG.s 			page 22


 553:/home/hkh/git/eapidk-code-r76-trunk/apps/EeePProg/linux/../BinFuncs.c **** /*
 554:/home/hkh/git/eapidk-code-r76-trunk/apps/EeePProg/linux/../BinFuncs.c ****  *
 555:/home/hkh/git/eapidk-code-r76-trunk/apps/EeePProg/linux/../BinFuncs.c ****  *
 556:/home/hkh/git/eapidk-code-r76-trunk/apps/EeePProg/linux/../BinFuncs.c ****  *
 557:/home/hkh/git/eapidk-code-r76-trunk/apps/EeePProg/linux/../BinFuncs.c ****  *  Machine Independant Endian Access
 558:/home/hkh/git/eapidk-code-r76-trunk/apps/EeePProg/linux/../BinFuncs.c ****  *
 559:/home/hkh/git/eapidk-code-r76-trunk/apps/EeePProg/linux/../BinFuncs.c ****  *
 560:/home/hkh/git/eapidk-code-r76-trunk/apps/EeePProg/linux/../BinFuncs.c ****  *
 561:/home/hkh/git/eapidk-code-r76-trunk/apps/EeePProg/linux/../BinFuncs.c ****  */
 562:/home/hkh/git/eapidk-code-r76-trunk/apps/EeePProg/linux/../BinFuncs.c **** /*
 563:/home/hkh/git/eapidk-code-r76-trunk/apps/EeePProg/linux/../BinFuncs.c ****  * CPU Independent Multi Byte 
 564:/home/hkh/git/eapidk-code-r76-trunk/apps/EeePProg/linux/../BinFuncs.c ****  * Big Endian Memory Access
 565:/home/hkh/git/eapidk-code-r76-trunk/apps/EeePProg/linux/../BinFuncs.c ****  */
 566:/home/hkh/git/eapidk-code-r76-trunk/apps/EeePProg/linux/../BinFuncs.c **** void
 567:/home/hkh/git/eapidk-code-r76-trunk/apps/EeePProg/linux/../BinFuncs.c **** EeeP_Set16BitValue_BE(
 568:/home/hkh/git/eapidk-code-r76-trunk/apps/EeePProg/linux/../BinFuncs.c ****     uint8_t *pBuffer,
 569:/home/hkh/git/eapidk-code-r76-trunk/apps/EeePProg/linux/../BinFuncs.c ****     uint16_t Value
 570:/home/hkh/git/eapidk-code-r76-trunk/apps/EeePProg/linux/../BinFuncs.c ****      )
 571:/home/hkh/git/eapidk-code-r76-trunk/apps/EeePProg/linux/../BinFuncs.c **** {
 572:/home/hkh/git/eapidk-code-r76-trunk/apps/EeePProg/linux/../BinFuncs.c ****   pBuffer[1]=EEEP_LO_UINT8(Value       );
 573:/home/hkh/git/eapidk-code-r76-trunk/apps/EeePProg/linux/../BinFuncs.c ****   pBuffer[0]=EEEP_LO_UINT8(Value>>(8*1));
 494              		.loc 1 573 14 discriminator 2 view .LVU162
 495 01fc 5624E7E7 		ubfx	r2, r6, #8, #8
 496              	.LBE39:
 497              	.LBE38:
 164:/home/hkh/git/eapidk-code-r76-trunk/apps/EeePProg/linux/../BinFuncs.c ****   *pContext=NULL;
 498              		.loc 1 164 12 discriminator 2 view .LVU163
 499 0200 003085E5 		str	r3, [r5]
 166:/home/hkh/git/eapidk-code-r76-trunk/apps/EeePProg/linux/../BinFuncs.c **** EAPI_APP_ASSERT_EXIT
 500              		.loc 1 166 3 is_stmt 1 discriminator 2 view .LVU164
 501              	.LVL40:
 502              	.LBB42:
 503              	.LBI38:
 567:/home/hkh/git/eapidk-code-r76-trunk/apps/EeePProg/linux/../BinFuncs.c ****     uint8_t *pBuffer,
 504              		.loc 1 567 1 discriminator 2 view .LVU165
 505              	.LBB40:
 572:/home/hkh/git/eapidk-code-r76-trunk/apps/EeePProg/linux/../BinFuncs.c ****   pBuffer[0]=EEEP_LO_UINT8(Value>>(8*1));
 506              		.loc 1 572 3 discriminator 2 view .LVU166
 507              	.LBE40:
 508              	.LBE42:
 154:/home/hkh/git/eapidk-code-r76-trunk/apps/EeePProg/linux/../BinFuncs.c ****   CRC_State_t * pCRC=*pContext;
 509              		.loc 1 154 16 is_stmt 0 discriminator 2 view .LVU167
 510 0204 0300A0E1 		mov	r0, r3
 511              	.LBB43:
 512              	.LBB41:
 513              		.loc 1 573 14 discriminator 2 view .LVU168
 514 0208 0020C4E5 		strb	r2, [r4]
 572:/home/hkh/git/eapidk-code-r76-trunk/apps/EeePProg/linux/../BinFuncs.c ****   pBuffer[0]=EEEP_LO_UINT8(Value>>(8*1));
 515              		.loc 1 572 14 discriminator 2 view .LVU169
 516 020c 0160C4E5 		strb	r6, [r4, #1]
 517              		.loc 1 573 3 is_stmt 1 discriminator 2 view .LVU170
 518              	.LVL41:
 519              		.loc 1 573 3 is_stmt 0 discriminator 2 view .LVU171
 520              	.LBE41:
 521              	.LBE43:
 168:/home/hkh/git/eapidk-code-r76-trunk/apps/EeePProg/linux/../BinFuncs.c **** }
 522              		.loc 1 168 3 is_stmt 1 discriminator 2 view .LVU172
ARM GAS  /tmp/ccf3bFwG.s 			page 23


 169:/home/hkh/git/eapidk-code-r76-trunk/apps/EeePProg/linux/../BinFuncs.c **** EApiStatus_t
 523              		.loc 1 169 1 is_stmt 0 discriminator 2 view .LVU173
 524 0210 10D08DE2 		add	sp, sp, #16
 525              		.cfi_remember_state
 526              		.cfi_def_cfa_offset 16
 527              		@ sp needed
 528 0214 7080BDE8 		pop	{r4, r5, r6, pc}
 529              	.LVL42:
 530              	.L61:
 531              		.cfi_restore_state
 532              	.LBB44:
 533              	.LBI44:
 149:/home/hkh/git/eapidk-code-r76-trunk/apps/EeePProg/linux/../BinFuncs.c ****     __IN      void **pContext,  /* CRC Context       */
 534              		.loc 1 149 1 is_stmt 1 view .LVU174
 535              	.LBB45:
 157:/home/hkh/git/eapidk-code-r76-trunk/apps/EeePProg/linux/../BinFuncs.c ****       u16CRC_CCITT_fini,
 536              		.loc 1 157 3 view .LVU175
 157:/home/hkh/git/eapidk-code-r76-trunk/apps/EeePProg/linux/../BinFuncs.c ****       u16CRC_CCITT_fini,
 537              		.loc 1 157 3 view .LVU176
 538 0218 3CC09FE5 		ldr	ip, .L62
 539 021c 014CE0E3 		mvn	r4, #256
 540 0220 38009FE5 		ldr	r0, .L62+4
 541              	.LVL43:
 157:/home/hkh/git/eapidk-code-r76-trunk/apps/EeePProg/linux/../BinFuncs.c ****       u16CRC_CCITT_fini,
 542              		.loc 1 157 3 is_stmt 0 view .LVU177
 543 0224 9D30A0E3 		mov	r3, #157
 544 0228 34209FE5 		ldr	r2, .L62+8
 545 022c 34109FE5 		ldr	r1, .L62+12
 546              	.LVL44:
 157:/home/hkh/git/eapidk-code-r76-trunk/apps/EeePProg/linux/../BinFuncs.c ****       u16CRC_CCITT_fini,
 547              		.loc 1 157 3 view .LVU178
 548              	.LPIC14:
 549 0230 0CC08FE0 		add	ip, pc, ip
 550              	.LPIC15:
 551 0234 00008FE0 		add	r0, pc, r0
 552 0238 00408DE5 		str	r4, [sp]
 553              	.LVL45:
 157:/home/hkh/git/eapidk-code-r76-trunk/apps/EeePProg/linux/../BinFuncs.c ****       u16CRC_CCITT_fini,
 554              		.loc 1 157 3 view .LVU179
 555 023c 01108DE9 		stmib	sp, {r0, ip}
 556              	.LPIC12:
 557 0240 02208FE0 		add	r2, pc, r2
 558              	.LPIC13:
 559 0244 01108FE0 		add	r1, pc, r1
 560 0248 4500A0E3 		mov	r0, #69
 561 024c FEFFFFEB 		bl	siFormattedMessage_SC(PLT)
 562              	.LVL46:
 157:/home/hkh/git/eapidk-code-r76-trunk/apps/EeePProg/linux/../BinFuncs.c ****       u16CRC_CCITT_fini,
 563              		.loc 1 157 3 is_stmt 1 view .LVU180
 157:/home/hkh/git/eapidk-code-r76-trunk/apps/EeePProg/linux/../BinFuncs.c ****       u16CRC_CCITT_fini,
 564              		.loc 1 157 3 view .LVU181
 157:/home/hkh/git/eapidk-code-r76-trunk/apps/EeePProg/linux/../BinFuncs.c ****       u16CRC_CCITT_fini,
 565              		.loc 1 157 3 view .LVU182
 566              	.LDL3:
 168:/home/hkh/git/eapidk-code-r76-trunk/apps/EeePProg/linux/../BinFuncs.c **** }
 567              		.loc 1 168 3 view .LVU183
 157:/home/hkh/git/eapidk-code-r76-trunk/apps/EeePProg/linux/../BinFuncs.c ****       u16CRC_CCITT_fini,
ARM GAS  /tmp/ccf3bFwG.s 			page 24


 568              		.loc 1 157 3 is_stmt 0 view .LVU184
 569 0250 0400A0E1 		mov	r0, r4
 570              	.LBE45:
 571              	.LBE44:
 169:/home/hkh/git/eapidk-code-r76-trunk/apps/EeePProg/linux/../BinFuncs.c **** EApiStatus_t
 572              		.loc 1 169 1 view .LVU185
 573 0254 10D08DE2 		add	sp, sp, #16
 574              		.cfi_def_cfa_offset 16
 575              		@ sp needed
 576 0258 7080BDE8 		pop	{r4, r5, r6, pc}
 577              	.LVL47:
 578              	.L63:
 169:/home/hkh/git/eapidk-code-r76-trunk/apps/EeePProg/linux/../BinFuncs.c **** EApiStatus_t
 579              		.loc 1 169 1 view .LVU186
 580              		.align	2
 581              	.L62:
 582 025c 24000000 		.word	.LC8-(.LPIC14+8)
 583 0260 24000000 		.word	.LC3-(.LPIC15+8)
 584 0264 1C000000 		.word	.LC7-(.LPIC12+8)
 585 0268 1C000000 		.word	.LC1-(.LPIC13+8)
 586              		.cfi_endproc
 587              	.LFE6:
 589              		.section	.rodata.str1.4
 590 00d1 000000   		.align	2
 591              	.LC9:
 592 00d4 75313643 		.ascii	"u16CRC_CCITT_verify\000"
 592      52435F43 
 592      43495454 
 592      5F766572 
 592      69667900 
 593              		.align	2
 594              	.LC10:
 595 00e8 496E7661 		.ascii	"Invalid CRC CCITT\000"
 595      6C696420 
 595      43524320 
 595      43434954 
 595      5400
 596              		.text
 597              		.align	2
 598              		.global	u16CRC_CCITT_verify
 599              		.syntax unified
 600              		.arm
 601              		.fpu vfpv3
 603              	u16CRC_CCITT_verify:
 604              	.LVL48:
 605              	.LFB7:
 175:/home/hkh/git/eapidk-code-r76-trunk/apps/EeePProg/linux/../BinFuncs.c ****   EApiStatus_t StatusCode=EAPI_STATUS_SUCCESS;
 606              		.loc 1 175 1 is_stmt 1 view -0
 607              		.cfi_startproc
 608              		@ args = 0, pretend = 0, frame = 8
 609              		@ frame_needed = 0, uses_anonymous_args = 0
 175:/home/hkh/git/eapidk-code-r76-trunk/apps/EeePProg/linux/../BinFuncs.c ****   EApiStatus_t StatusCode=EAPI_STATUS_SUCCESS;
 610              		.loc 1 175 1 is_stmt 0 view .LVU188
 611 026c D0209FE5 		ldr	r2, .L74
 612 0270 F0402DE9 		push	{r4, r5, r6, r7, lr}
 613              		.cfi_def_cfa_offset 20
 614              		.cfi_offset 4, -20
ARM GAS  /tmp/ccf3bFwG.s 			page 25


 615              		.cfi_offset 5, -16
 616              		.cfi_offset 6, -12
 617              		.cfi_offset 7, -8
 618              		.cfi_offset 14, -4
 619 0274 0060A0E1 		mov	r6, r0
 620 0278 C8309FE5 		ldr	r3, .L74+4
 621 027c 1CD04DE2 		sub	sp, sp, #28
 622              		.cfi_def_cfa_offset 48
 175:/home/hkh/git/eapidk-code-r76-trunk/apps/EeePProg/linux/../BinFuncs.c ****   EApiStatus_t StatusCode=EAPI_STATUS_SUCCESS;
 623              		.loc 1 175 1 view .LVU189
 624              	.LPIC21:
 625 0280 02208FE0 		add	r2, pc, r2
 626 0284 0170A0E1 		mov	r7, r1
 627              	.LBB56:
 628              	.LBB57:
 155:/home/hkh/git/eapidk-code-r76-trunk/apps/EeePProg/linux/../BinFuncs.c ****   unsigned      CRC=pCRC->CRC;
 629              		.loc 1 155 17 view .LVU190
 630 0288 000090E5 		ldr	r0, [r0]
 631              	.LVL49:
 164:/home/hkh/git/eapidk-code-r76-trunk/apps/EeePProg/linux/../BinFuncs.c **** 
 632              		.loc 1 164 12 view .LVU191
 633 028c 0040A0E3 		mov	r4, #0
 634              	.LBE57:
 635              	.LBE56:
 175:/home/hkh/git/eapidk-code-r76-trunk/apps/EeePProg/linux/../BinFuncs.c ****   EApiStatus_t StatusCode=EAPI_STATUS_SUCCESS;
 636              		.loc 1 175 1 view .LVU192
 637 0290 033092E7 		ldr	r3, [r2, r3]
 638 0294 B050D0E1 		ldrh	r5, [r0]
 639 0298 003093E5 		ldr	r3, [r3]
 640 029c 14308DE5 		str	r3, [sp, #20]
 641 02a0 0030A0E3 		mov	r3, #0
 176:/home/hkh/git/eapidk-code-r76-trunk/apps/EeePProg/linux/../BinFuncs.c ****   uint8_t Digest[2];
 642              		.loc 1 176 3 is_stmt 1 view .LVU193
 643              	.LVL50:
 177:/home/hkh/git/eapidk-code-r76-trunk/apps/EeePProg/linux/../BinFuncs.c **** 
 644              		.loc 1 177 3 view .LVU194
 179:/home/hkh/git/eapidk-code-r76-trunk/apps/EeePProg/linux/../BinFuncs.c **** 
 645              		.loc 1 179 3 view .LVU195
 179:/home/hkh/git/eapidk-code-r76-trunk/apps/EeePProg/linux/../BinFuncs.c **** 
 646              		.loc 1 179 3 view .LVU196
 647              	.LBB64:
 648              	.LBI56:
 149:/home/hkh/git/eapidk-code-r76-trunk/apps/EeePProg/linux/../BinFuncs.c ****     __IN      void **pContext,  /* CRC Context       */
 649              		.loc 1 149 1 view .LVU197
 650              	.LBB62:
 154:/home/hkh/git/eapidk-code-r76-trunk/apps/EeePProg/linux/../BinFuncs.c ****   CRC_State_t * pCRC=*pContext;
 651              		.loc 1 154 3 view .LVU198
 155:/home/hkh/git/eapidk-code-r76-trunk/apps/EeePProg/linux/../BinFuncs.c ****   unsigned      CRC=pCRC->CRC;
 652              		.loc 1 155 3 view .LVU199
 156:/home/hkh/git/eapidk-code-r76-trunk/apps/EeePProg/linux/../BinFuncs.c ****   EAPI_APP_ASSERT_PARAMATER_NULL(
 653              		.loc 1 156 3 view .LVU200
 163:/home/hkh/git/eapidk-code-r76-trunk/apps/EeePProg/linux/../BinFuncs.c ****   *pContext=NULL;
 654              		.loc 1 163 3 is_stmt 0 view .LVU201
 655 02a4 FEFFFFEB 		bl	free(PLT)
 656              	.LVL51:
 163:/home/hkh/git/eapidk-code-r76-trunk/apps/EeePProg/linux/../BinFuncs.c ****   *pContext=NULL;
 657              		.loc 1 163 3 view .LVU202
ARM GAS  /tmp/ccf3bFwG.s 			page 26


 658 02a8 B55FBFE6 		rev16	r5, r5
 659              	.LVL52:
 157:/home/hkh/git/eapidk-code-r76-trunk/apps/EeePProg/linux/../BinFuncs.c ****       u16CRC_CCITT_fini,
 660              		.loc 1 157 3 is_stmt 1 view .LVU203
 157:/home/hkh/git/eapidk-code-r76-trunk/apps/EeePProg/linux/../BinFuncs.c ****       u16CRC_CCITT_fini,
 661              		.loc 1 157 3 view .LVU204
 161:/home/hkh/git/eapidk-code-r76-trunk/apps/EeePProg/linux/../BinFuncs.c **** /*   printf("L%04i 0x%04X 0x%04lX\n", __LINE__, pCRC->CRC&0xFFFF, (unsigned long)pCRC->Cnt); */
 662              		.loc 1 161 8 view .LVU205
 163:/home/hkh/git/eapidk-code-r76-trunk/apps/EeePProg/linux/../BinFuncs.c ****   *pContext=NULL;
 663              		.loc 1 163 3 view .LVU206
 164:/home/hkh/git/eapidk-code-r76-trunk/apps/EeePProg/linux/../BinFuncs.c **** 
 664              		.loc 1 164 3 view .LVU207
 164:/home/hkh/git/eapidk-code-r76-trunk/apps/EeePProg/linux/../BinFuncs.c **** 
 665              		.loc 1 164 12 is_stmt 0 view .LVU208
 666 02ac 004086E5 		str	r4, [r6]
 166:/home/hkh/git/eapidk-code-r76-trunk/apps/EeePProg/linux/../BinFuncs.c **** EAPI_APP_ASSERT_EXIT
 667              		.loc 1 166 3 is_stmt 1 view .LVU209
 668              	.LVL53:
 669              	.LBB58:
 670              	.LBI58:
 567:/home/hkh/git/eapidk-code-r76-trunk/apps/EeePProg/linux/../BinFuncs.c ****     uint8_t *pBuffer,
 671              		.loc 1 567 1 view .LVU210
 672              	.LBB59:
 572:/home/hkh/git/eapidk-code-r76-trunk/apps/EeePProg/linux/../BinFuncs.c ****   pBuffer[0]=EEEP_LO_UINT8(Value>>(8*1));
 673              		.loc 1 572 3 view .LVU211
 674              		.loc 1 573 3 view .LVU212
 675              	.LBE59:
 676              	.LBE58:
 677              	.LBE62:
 678              	.LBE64:
 181:/home/hkh/git/eapidk-code-r76-trunk/apps/EeePProg/linux/../BinFuncs.c ****       u16CRC_CCITT_verify,
 679              		.loc 1 181 3 is_stmt 0 view .LVU213
 680 02b0 0030D7E5 		ldrb	r3, [r7]	@ zero_extendqisi2
 681 02b4 7520EFE6 		uxtb	r2, r5
 682              	.LBB65:
 683              	.LBB63:
 684              	.LBB61:
 685              	.LBB60:
 686              		.loc 1 573 13 view .LVU214
 687 02b8 B051CDE1 		strh	r5, [sp, #16]	@ movhi
 688              	.LDL4:
 689              	.LVL54:
 690              		.loc 1 573 13 view .LVU215
 691              	.LBE60:
 692              	.LBE61:
 168:/home/hkh/git/eapidk-code-r76-trunk/apps/EeePProg/linux/../BinFuncs.c **** }
 693              		.loc 1 168 3 is_stmt 1 view .LVU216
 168:/home/hkh/git/eapidk-code-r76-trunk/apps/EeePProg/linux/../BinFuncs.c **** }
 694              		.loc 1 168 3 is_stmt 0 view .LVU217
 695              	.LBE63:
 696              	.LBE65:
 179:/home/hkh/git/eapidk-code-r76-trunk/apps/EeePProg/linux/../BinFuncs.c **** 
 697              		.loc 1 179 3 is_stmt 1 view .LVU218
 179:/home/hkh/git/eapidk-code-r76-trunk/apps/EeePProg/linux/../BinFuncs.c **** 
 698              		.loc 1 179 3 view .LVU219
 181:/home/hkh/git/eapidk-code-r76-trunk/apps/EeePProg/linux/../BinFuncs.c ****       u16CRC_CCITT_verify,
 699              		.loc 1 181 3 view .LVU220
ARM GAS  /tmp/ccf3bFwG.s 			page 27


 700 02bc 030052E1 		cmp	r2, r3
 701 02c0 1900000A 		beq	.L72
 702              	.L67:
 703              	.L65:
 704              	.LBB66:
 705              	.LBI66:
 171:/home/hkh/git/eapidk-code-r76-trunk/apps/EeePProg/linux/../BinFuncs.c ****     __IN       void**pContext,  /* CRC Context       */
 706              		.loc 1 171 1 view .LVU221
 707              	.LVL55:
 708              	.LBB67:
 181:/home/hkh/git/eapidk-code-r76-trunk/apps/EeePProg/linux/../BinFuncs.c ****       u16CRC_CCITT_verify,
 709              		.loc 1 181 3 view .LVU222
 181:/home/hkh/git/eapidk-code-r76-trunk/apps/EeePProg/linux/../BinFuncs.c ****       u16CRC_CCITT_verify,
 710              		.loc 1 181 3 view .LVU223
 711 02c4 80C09FE5 		ldr	ip, .L74+8
 712 02c8 0F4CE0E3 		mvn	r4, #3840
 713 02cc 7C009FE5 		ldr	r0, .L74+12
 714 02d0 B530A0E3 		mov	r3, #181
 715 02d4 78209FE5 		ldr	r2, .L74+16
 716 02d8 78109FE5 		ldr	r1, .L74+20
 717              	.LPIC18:
 718 02dc 0CC08FE0 		add	ip, pc, ip
 719              	.LPIC19:
 720 02e0 00008FE0 		add	r0, pc, r0
 721 02e4 00408DE5 		str	r4, [sp]
 722 02e8 01108DE9 		stmib	sp, {r0, ip}
 723              	.LPIC16:
 724 02ec 02208FE0 		add	r2, pc, r2
 725              	.LPIC17:
 726 02f0 01108FE0 		add	r1, pc, r1
 727 02f4 4500A0E3 		mov	r0, #69
 728 02f8 FEFFFFEB 		bl	siFormattedMessage_SC(PLT)
 729              	.LVL56:
 730              	.L71:
 181:/home/hkh/git/eapidk-code-r76-trunk/apps/EeePProg/linux/../BinFuncs.c ****       u16CRC_CCITT_verify,
 731              		.loc 1 181 3 view .LVU224
 181:/home/hkh/git/eapidk-code-r76-trunk/apps/EeePProg/linux/../BinFuncs.c ****       u16CRC_CCITT_verify,
 732              		.loc 1 181 3 view .LVU225
 181:/home/hkh/git/eapidk-code-r76-trunk/apps/EeePProg/linux/../BinFuncs.c ****       u16CRC_CCITT_verify,
 733              		.loc 1 181 3 view .LVU226
 734              	.LDL5:
 181:/home/hkh/git/eapidk-code-r76-trunk/apps/EeePProg/linux/../BinFuncs.c ****       u16CRC_CCITT_verify,
 735              		.loc 1 181 3 view .LVU227
 186:/home/hkh/git/eapidk-code-r76-trunk/apps/EeePProg/linux/../BinFuncs.c **** 
 736              		.loc 1 186 8 view .LVU228
 189:/home/hkh/git/eapidk-code-r76-trunk/apps/EeePProg/linux/../BinFuncs.c **** }
 737              		.loc 1 189 3 view .LVU229
 189:/home/hkh/git/eapidk-code-r76-trunk/apps/EeePProg/linux/../BinFuncs.c **** }
 738              		.loc 1 189 3 is_stmt 0 view .LVU230
 739              	.LBE67:
 740              	.LBE66:
 175:/home/hkh/git/eapidk-code-r76-trunk/apps/EeePProg/linux/../BinFuncs.c ****   EApiStatus_t StatusCode=EAPI_STATUS_SUCCESS;
 741              		.loc 1 175 1 view .LVU231
 742 02fc 58209FE5 		ldr	r2, .L74+24
 743              	.LBB69:
 744              	.LBB68:
 181:/home/hkh/git/eapidk-code-r76-trunk/apps/EeePProg/linux/../BinFuncs.c ****       u16CRC_CCITT_verify,
ARM GAS  /tmp/ccf3bFwG.s 			page 28


 745              		.loc 1 181 3 view .LVU232
 746 0300 0400A0E1 		mov	r0, r4
 747              	.LBE68:
 748              	.LBE69:
 190:/home/hkh/git/eapidk-code-r76-trunk/apps/EeePProg/linux/../BinFuncs.c **** 
 749              		.loc 1 190 1 view .LVU233
 750 0304 3C309FE5 		ldr	r3, .L74+4
 175:/home/hkh/git/eapidk-code-r76-trunk/apps/EeePProg/linux/../BinFuncs.c ****   EApiStatus_t StatusCode=EAPI_STATUS_SUCCESS;
 751              		.loc 1 175 1 view .LVU234
 752              	.LPIC20:
 753 0308 02208FE0 		add	r2, pc, r2
 190:/home/hkh/git/eapidk-code-r76-trunk/apps/EeePProg/linux/../BinFuncs.c **** 
 754              		.loc 1 190 1 view .LVU235
 755 030c 033092E7 		ldr	r3, [r2, r3]
 756 0310 002093E5 		ldr	r2, [r3]
 757 0314 14309DE5 		ldr	r3, [sp, #20]
 758 0318 022033E0 		eors	r2, r3, r2
 759 031c 0030A0E3 		mov	r3, #0
 760 0320 0600001A 		bne	.L73
 761 0324 1CD08DE2 		add	sp, sp, #28
 762              		.cfi_remember_state
 763              		.cfi_def_cfa_offset 20
 764              		@ sp needed
 765 0328 F080BDE8 		pop	{r4, r5, r6, r7, pc}
 766              	.LVL57:
 767              	.L72:
 768              		.cfi_restore_state
 181:/home/hkh/git/eapidk-code-r76-trunk/apps/EeePProg/linux/../BinFuncs.c ****       u16CRC_CCITT_verify,
 769              		.loc 1 181 3 view .LVU236
 770 032c 1120DDE5 		ldrb	r2, [sp, #17]	@ zero_extendqisi2
 771 0330 0130D7E5 		ldrb	r3, [r7, #1]	@ zero_extendqisi2
 772 0334 030052E1 		cmp	r2, r3
 773 0338 E1FFFF1A 		bne	.L65
 774 033c EEFFFFEA 		b	.L71
 775              	.L73:
 190:/home/hkh/git/eapidk-code-r76-trunk/apps/EeePProg/linux/../BinFuncs.c **** 
 776              		.loc 1 190 1 view .LVU237
 777 0340 FEFFFFEB 		bl	__stack_chk_fail(PLT)
 778              	.LVL58:
 779              	.L75:
 780              		.align	2
 781              	.L74:
 782 0344 BC000000 		.word	_GLOBAL_OFFSET_TABLE_-(.LPIC21+8)
 783 0348 00000000 		.word	__stack_chk_guard(GOT)
 784 034c 68000000 		.word	.LC10-(.LPIC18+8)
 785 0350 68000000 		.word	.LC3-(.LPIC19+8)
 786 0354 60000000 		.word	.LC9-(.LPIC16+8)
 787 0358 60000000 		.word	.LC1-(.LPIC17+8)
 788 035c 4C000000 		.word	_GLOBAL_OFFSET_TABLE_-(.LPIC20+8)
 789              		.cfi_endproc
 790              	.LFE7:
 792              		.align	2
 793              		.global	u32ChecksumBlock
 794              		.syntax unified
 795              		.arm
 796              		.fpu vfpv3
 798              	u32ChecksumBlock:
ARM GAS  /tmp/ccf3bFwG.s 			page 29


 799              	.LVL59:
 800              	.LFB1:
  46:/home/hkh/git/eapidk-code-r76-trunk/apps/EeePProg/linux/../BinFuncs.c ****   uint32_t ChkSum=0;
 801              		.loc 1 46 1 is_stmt 1 view -0
 802              		.cfi_startproc
 803              		@ args = 0, pretend = 0, frame = 0
 804              		@ frame_needed = 0, uses_anonymous_args = 0
  47:/home/hkh/git/eapidk-code-r76-trunk/apps/EeePProg/linux/../BinFuncs.c ****   while(stLength--){
 805              		.loc 1 47 3 view .LVU239
  48:/home/hkh/git/eapidk-code-r76-trunk/apps/EeePProg/linux/../BinFuncs.c ****     ChkSum+=(uint32_t)(*((uint8_t*)pcvBuffer));
 806              		.loc 1 48 3 view .LVU240
  48:/home/hkh/git/eapidk-code-r76-trunk/apps/EeePProg/linux/../BinFuncs.c ****     ChkSum+=(uint32_t)(*((uint8_t*)pcvBuffer));
 807              		.loc 1 48 9 view .LVU241
 808 0360 000051E3 		cmp	r1, #0
 809              	.LVL60:
  48:/home/hkh/git/eapidk-code-r76-trunk/apps/EeePProg/linux/../BinFuncs.c ****     ChkSum+=(uint32_t)(*((uint8_t*)pcvBuffer));
 810              		.loc 1 48 9 is_stmt 0 view .LVU242
 811 0364 5300000A 		beq	.L81
 812 0368 01C041E2 		sub	ip, r1, #1
 813              	.LVL61:
  48:/home/hkh/git/eapidk-code-r76-trunk/apps/EeePProg/linux/../BinFuncs.c ****     ChkSum+=(uint32_t)(*((uint8_t*)pcvBuffer));
 814              		.loc 1 48 9 view .LVU243
 815 036c 0030A0E1 		mov	r3, r0
 816 0370 1F005CE3 		cmp	ip, #31
 817 0374 5100009A 		bls	.L82
 818 0378 201080E2 		add	r1, r0, #32
  47:/home/hkh/git/eapidk-code-r76-trunk/apps/EeePProg/linux/../BinFuncs.c ****   while(stLength--){
 819              		.loc 1 47 12 view .LVU244
 820 037c 0000A0E3 		mov	r0, #0
 821              	.LVL62:
  46:/home/hkh/git/eapidk-code-r76-trunk/apps/EeePProg/linux/../BinFuncs.c ****   uint32_t ChkSum=0;
 822              		.loc 1 46 1 view .LVU245
 823 0380 04E02DE5 		str	lr, [sp, #-4]!
 824              		.cfi_def_cfa_offset 4
 825              		.cfi_offset 14, -4
 826              	.LVL63:
 827              	.L79:
  49:/home/hkh/git/eapidk-code-r76-trunk/apps/EeePProg/linux/../BinFuncs.c ****     pcvBuffer=((uint8_t*)pcvBuffer)+1;
 828              		.loc 1 49 5 is_stmt 1 view .LVU246
  49:/home/hkh/git/eapidk-code-r76-trunk/apps/EeePProg/linux/../BinFuncs.c ****     pcvBuffer=((uint8_t*)pcvBuffer)+1;
 829              		.loc 1 49 13 is_stmt 0 view .LVU247
 830 0384 1FE051E5 		ldrb	lr, [r1, #-31]	@ zero_extendqisi2
  48:/home/hkh/git/eapidk-code-r76-trunk/apps/EeePProg/linux/../BinFuncs.c ****     ChkSum+=(uint32_t)(*((uint8_t*)pcvBuffer));
 831              		.loc 1 48 17 view .LVU248
 832 0388 20C04CE2 		sub	ip, ip, #32
 833 038c 1F005CE3 		cmp	ip, #31
 834 0390 0130A0E1 		mov	r3, r1
 835              	.LVL64:
  50:/home/hkh/git/eapidk-code-r76-trunk/apps/EeePProg/linux/../BinFuncs.c ****   }
 836              		.loc 1 50 5 is_stmt 1 view .LVU249
  48:/home/hkh/git/eapidk-code-r76-trunk/apps/EeePProg/linux/../BinFuncs.c ****     ChkSum+=(uint32_t)(*((uint8_t*)pcvBuffer));
 837              		.loc 1 48 9 view .LVU250
  49:/home/hkh/git/eapidk-code-r76-trunk/apps/EeePProg/linux/../BinFuncs.c ****     pcvBuffer=((uint8_t*)pcvBuffer)+1;
 838              		.loc 1 49 5 view .LVU251
  50:/home/hkh/git/eapidk-code-r76-trunk/apps/EeePProg/linux/../BinFuncs.c ****   }
 839              		.loc 1 50 5 view .LVU252
  48:/home/hkh/git/eapidk-code-r76-trunk/apps/EeePProg/linux/../BinFuncs.c ****     ChkSum+=(uint32_t)(*((uint8_t*)pcvBuffer));
ARM GAS  /tmp/ccf3bFwG.s 			page 30


 840              		.loc 1 48 9 view .LVU253
  49:/home/hkh/git/eapidk-code-r76-trunk/apps/EeePProg/linux/../BinFuncs.c ****     pcvBuffer=((uint8_t*)pcvBuffer)+1;
 841              		.loc 1 49 5 view .LVU254
  50:/home/hkh/git/eapidk-code-r76-trunk/apps/EeePProg/linux/../BinFuncs.c ****   }
 842              		.loc 1 50 5 view .LVU255
  48:/home/hkh/git/eapidk-code-r76-trunk/apps/EeePProg/linux/../BinFuncs.c ****     ChkSum+=(uint32_t)(*((uint8_t*)pcvBuffer));
 843              		.loc 1 48 9 view .LVU256
  49:/home/hkh/git/eapidk-code-r76-trunk/apps/EeePProg/linux/../BinFuncs.c ****     pcvBuffer=((uint8_t*)pcvBuffer)+1;
 844              		.loc 1 49 5 view .LVU257
  50:/home/hkh/git/eapidk-code-r76-trunk/apps/EeePProg/linux/../BinFuncs.c ****   }
 845              		.loc 1 50 5 view .LVU258
  48:/home/hkh/git/eapidk-code-r76-trunk/apps/EeePProg/linux/../BinFuncs.c ****     ChkSum+=(uint32_t)(*((uint8_t*)pcvBuffer));
 846              		.loc 1 48 9 view .LVU259
  49:/home/hkh/git/eapidk-code-r76-trunk/apps/EeePProg/linux/../BinFuncs.c ****     pcvBuffer=((uint8_t*)pcvBuffer)+1;
 847              		.loc 1 49 5 view .LVU260
  50:/home/hkh/git/eapidk-code-r76-trunk/apps/EeePProg/linux/../BinFuncs.c ****   }
 848              		.loc 1 50 5 view .LVU261
  48:/home/hkh/git/eapidk-code-r76-trunk/apps/EeePProg/linux/../BinFuncs.c ****     ChkSum+=(uint32_t)(*((uint8_t*)pcvBuffer));
 849              		.loc 1 48 9 view .LVU262
  49:/home/hkh/git/eapidk-code-r76-trunk/apps/EeePProg/linux/../BinFuncs.c ****     pcvBuffer=((uint8_t*)pcvBuffer)+1;
 850              		.loc 1 49 5 view .LVU263
  50:/home/hkh/git/eapidk-code-r76-trunk/apps/EeePProg/linux/../BinFuncs.c ****   }
 851              		.loc 1 50 5 view .LVU264
  48:/home/hkh/git/eapidk-code-r76-trunk/apps/EeePProg/linux/../BinFuncs.c ****     ChkSum+=(uint32_t)(*((uint8_t*)pcvBuffer));
 852              		.loc 1 48 9 view .LVU265
  49:/home/hkh/git/eapidk-code-r76-trunk/apps/EeePProg/linux/../BinFuncs.c ****     pcvBuffer=((uint8_t*)pcvBuffer)+1;
 853              		.loc 1 49 5 view .LVU266
  50:/home/hkh/git/eapidk-code-r76-trunk/apps/EeePProg/linux/../BinFuncs.c ****   }
 854              		.loc 1 50 5 view .LVU267
  48:/home/hkh/git/eapidk-code-r76-trunk/apps/EeePProg/linux/../BinFuncs.c ****     ChkSum+=(uint32_t)(*((uint8_t*)pcvBuffer));
 855              		.loc 1 48 9 view .LVU268
  49:/home/hkh/git/eapidk-code-r76-trunk/apps/EeePProg/linux/../BinFuncs.c ****     pcvBuffer=((uint8_t*)pcvBuffer)+1;
 856              		.loc 1 49 5 view .LVU269
  50:/home/hkh/git/eapidk-code-r76-trunk/apps/EeePProg/linux/../BinFuncs.c ****   }
 857              		.loc 1 50 5 view .LVU270
  48:/home/hkh/git/eapidk-code-r76-trunk/apps/EeePProg/linux/../BinFuncs.c ****     ChkSum+=(uint32_t)(*((uint8_t*)pcvBuffer));
 858              		.loc 1 48 9 view .LVU271
  49:/home/hkh/git/eapidk-code-r76-trunk/apps/EeePProg/linux/../BinFuncs.c ****     pcvBuffer=((uint8_t*)pcvBuffer)+1;
 859              		.loc 1 49 5 view .LVU272
  50:/home/hkh/git/eapidk-code-r76-trunk/apps/EeePProg/linux/../BinFuncs.c ****   }
 860              		.loc 1 50 5 view .LVU273
  48:/home/hkh/git/eapidk-code-r76-trunk/apps/EeePProg/linux/../BinFuncs.c ****     ChkSum+=(uint32_t)(*((uint8_t*)pcvBuffer));
 861              		.loc 1 48 9 view .LVU274
  49:/home/hkh/git/eapidk-code-r76-trunk/apps/EeePProg/linux/../BinFuncs.c ****     pcvBuffer=((uint8_t*)pcvBuffer)+1;
 862              		.loc 1 49 5 view .LVU275
  50:/home/hkh/git/eapidk-code-r76-trunk/apps/EeePProg/linux/../BinFuncs.c ****   }
 863              		.loc 1 50 5 view .LVU276
  48:/home/hkh/git/eapidk-code-r76-trunk/apps/EeePProg/linux/../BinFuncs.c ****     ChkSum+=(uint32_t)(*((uint8_t*)pcvBuffer));
 864              		.loc 1 48 9 view .LVU277
  49:/home/hkh/git/eapidk-code-r76-trunk/apps/EeePProg/linux/../BinFuncs.c ****     pcvBuffer=((uint8_t*)pcvBuffer)+1;
 865              		.loc 1 49 5 view .LVU278
  50:/home/hkh/git/eapidk-code-r76-trunk/apps/EeePProg/linux/../BinFuncs.c ****   }
 866              		.loc 1 50 5 view .LVU279
  48:/home/hkh/git/eapidk-code-r76-trunk/apps/EeePProg/linux/../BinFuncs.c ****     ChkSum+=(uint32_t)(*((uint8_t*)pcvBuffer));
 867              		.loc 1 48 9 view .LVU280
  49:/home/hkh/git/eapidk-code-r76-trunk/apps/EeePProg/linux/../BinFuncs.c ****     pcvBuffer=((uint8_t*)pcvBuffer)+1;
 868              		.loc 1 49 5 view .LVU281
ARM GAS  /tmp/ccf3bFwG.s 			page 31


  50:/home/hkh/git/eapidk-code-r76-trunk/apps/EeePProg/linux/../BinFuncs.c ****   }
 869              		.loc 1 50 5 view .LVU282
  48:/home/hkh/git/eapidk-code-r76-trunk/apps/EeePProg/linux/../BinFuncs.c ****     ChkSum+=(uint32_t)(*((uint8_t*)pcvBuffer));
 870              		.loc 1 48 9 view .LVU283
  49:/home/hkh/git/eapidk-code-r76-trunk/apps/EeePProg/linux/../BinFuncs.c ****     pcvBuffer=((uint8_t*)pcvBuffer)+1;
 871              		.loc 1 49 5 view .LVU284
  50:/home/hkh/git/eapidk-code-r76-trunk/apps/EeePProg/linux/../BinFuncs.c ****   }
 872              		.loc 1 50 5 view .LVU285
  48:/home/hkh/git/eapidk-code-r76-trunk/apps/EeePProg/linux/../BinFuncs.c ****     ChkSum+=(uint32_t)(*((uint8_t*)pcvBuffer));
 873              		.loc 1 48 9 view .LVU286
  49:/home/hkh/git/eapidk-code-r76-trunk/apps/EeePProg/linux/../BinFuncs.c ****     pcvBuffer=((uint8_t*)pcvBuffer)+1;
 874              		.loc 1 49 5 view .LVU287
  50:/home/hkh/git/eapidk-code-r76-trunk/apps/EeePProg/linux/../BinFuncs.c ****   }
 875              		.loc 1 50 5 view .LVU288
  48:/home/hkh/git/eapidk-code-r76-trunk/apps/EeePProg/linux/../BinFuncs.c ****     ChkSum+=(uint32_t)(*((uint8_t*)pcvBuffer));
 876              		.loc 1 48 9 view .LVU289
  49:/home/hkh/git/eapidk-code-r76-trunk/apps/EeePProg/linux/../BinFuncs.c ****     pcvBuffer=((uint8_t*)pcvBuffer)+1;
 877              		.loc 1 49 5 view .LVU290
  50:/home/hkh/git/eapidk-code-r76-trunk/apps/EeePProg/linux/../BinFuncs.c ****   }
 878              		.loc 1 50 5 view .LVU291
  48:/home/hkh/git/eapidk-code-r76-trunk/apps/EeePProg/linux/../BinFuncs.c ****     ChkSum+=(uint32_t)(*((uint8_t*)pcvBuffer));
 879              		.loc 1 48 9 view .LVU292
  49:/home/hkh/git/eapidk-code-r76-trunk/apps/EeePProg/linux/../BinFuncs.c ****     pcvBuffer=((uint8_t*)pcvBuffer)+1;
 880              		.loc 1 49 5 view .LVU293
  50:/home/hkh/git/eapidk-code-r76-trunk/apps/EeePProg/linux/../BinFuncs.c ****   }
 881              		.loc 1 50 5 view .LVU294
  48:/home/hkh/git/eapidk-code-r76-trunk/apps/EeePProg/linux/../BinFuncs.c ****     ChkSum+=(uint32_t)(*((uint8_t*)pcvBuffer));
 882              		.loc 1 48 9 view .LVU295
  49:/home/hkh/git/eapidk-code-r76-trunk/apps/EeePProg/linux/../BinFuncs.c ****     pcvBuffer=((uint8_t*)pcvBuffer)+1;
 883              		.loc 1 49 5 view .LVU296
  50:/home/hkh/git/eapidk-code-r76-trunk/apps/EeePProg/linux/../BinFuncs.c ****   }
 884              		.loc 1 50 5 view .LVU297
  48:/home/hkh/git/eapidk-code-r76-trunk/apps/EeePProg/linux/../BinFuncs.c ****     ChkSum+=(uint32_t)(*((uint8_t*)pcvBuffer));
 885              		.loc 1 48 9 view .LVU298
  49:/home/hkh/git/eapidk-code-r76-trunk/apps/EeePProg/linux/../BinFuncs.c ****     pcvBuffer=((uint8_t*)pcvBuffer)+1;
 886              		.loc 1 49 5 view .LVU299
  50:/home/hkh/git/eapidk-code-r76-trunk/apps/EeePProg/linux/../BinFuncs.c ****   }
 887              		.loc 1 50 5 view .LVU300
  48:/home/hkh/git/eapidk-code-r76-trunk/apps/EeePProg/linux/../BinFuncs.c ****     ChkSum+=(uint32_t)(*((uint8_t*)pcvBuffer));
 888              		.loc 1 48 9 view .LVU301
  49:/home/hkh/git/eapidk-code-r76-trunk/apps/EeePProg/linux/../BinFuncs.c ****     pcvBuffer=((uint8_t*)pcvBuffer)+1;
 889              		.loc 1 49 5 view .LVU302
  50:/home/hkh/git/eapidk-code-r76-trunk/apps/EeePProg/linux/../BinFuncs.c ****   }
 890              		.loc 1 50 5 view .LVU303
  48:/home/hkh/git/eapidk-code-r76-trunk/apps/EeePProg/linux/../BinFuncs.c ****     ChkSum+=(uint32_t)(*((uint8_t*)pcvBuffer));
 891              		.loc 1 48 9 view .LVU304
  49:/home/hkh/git/eapidk-code-r76-trunk/apps/EeePProg/linux/../BinFuncs.c ****     pcvBuffer=((uint8_t*)pcvBuffer)+1;
 892              		.loc 1 49 5 view .LVU305
  50:/home/hkh/git/eapidk-code-r76-trunk/apps/EeePProg/linux/../BinFuncs.c ****   }
 893              		.loc 1 50 5 view .LVU306
  48:/home/hkh/git/eapidk-code-r76-trunk/apps/EeePProg/linux/../BinFuncs.c ****     ChkSum+=(uint32_t)(*((uint8_t*)pcvBuffer));
 894              		.loc 1 48 9 view .LVU307
  49:/home/hkh/git/eapidk-code-r76-trunk/apps/EeePProg/linux/../BinFuncs.c ****     pcvBuffer=((uint8_t*)pcvBuffer)+1;
 895              		.loc 1 49 5 view .LVU308
  50:/home/hkh/git/eapidk-code-r76-trunk/apps/EeePProg/linux/../BinFuncs.c ****   }
 896              		.loc 1 50 5 view .LVU309
  48:/home/hkh/git/eapidk-code-r76-trunk/apps/EeePProg/linux/../BinFuncs.c ****     ChkSum+=(uint32_t)(*((uint8_t*)pcvBuffer));
ARM GAS  /tmp/ccf3bFwG.s 			page 32


 897              		.loc 1 48 9 view .LVU310
  49:/home/hkh/git/eapidk-code-r76-trunk/apps/EeePProg/linux/../BinFuncs.c ****     pcvBuffer=((uint8_t*)pcvBuffer)+1;
 898              		.loc 1 49 5 view .LVU311
  50:/home/hkh/git/eapidk-code-r76-trunk/apps/EeePProg/linux/../BinFuncs.c ****   }
 899              		.loc 1 50 5 view .LVU312
  48:/home/hkh/git/eapidk-code-r76-trunk/apps/EeePProg/linux/../BinFuncs.c ****     ChkSum+=(uint32_t)(*((uint8_t*)pcvBuffer));
 900              		.loc 1 48 9 view .LVU313
  49:/home/hkh/git/eapidk-code-r76-trunk/apps/EeePProg/linux/../BinFuncs.c ****     pcvBuffer=((uint8_t*)pcvBuffer)+1;
 901              		.loc 1 49 5 view .LVU314
  50:/home/hkh/git/eapidk-code-r76-trunk/apps/EeePProg/linux/../BinFuncs.c ****   }
 902              		.loc 1 50 5 view .LVU315
  48:/home/hkh/git/eapidk-code-r76-trunk/apps/EeePProg/linux/../BinFuncs.c ****     ChkSum+=(uint32_t)(*((uint8_t*)pcvBuffer));
 903              		.loc 1 48 9 view .LVU316
  49:/home/hkh/git/eapidk-code-r76-trunk/apps/EeePProg/linux/../BinFuncs.c ****     pcvBuffer=((uint8_t*)pcvBuffer)+1;
 904              		.loc 1 49 5 view .LVU317
  50:/home/hkh/git/eapidk-code-r76-trunk/apps/EeePProg/linux/../BinFuncs.c ****   }
 905              		.loc 1 50 5 view .LVU318
  48:/home/hkh/git/eapidk-code-r76-trunk/apps/EeePProg/linux/../BinFuncs.c ****     ChkSum+=(uint32_t)(*((uint8_t*)pcvBuffer));
 906              		.loc 1 48 9 view .LVU319
  49:/home/hkh/git/eapidk-code-r76-trunk/apps/EeePProg/linux/../BinFuncs.c ****     pcvBuffer=((uint8_t*)pcvBuffer)+1;
 907              		.loc 1 49 5 view .LVU320
  50:/home/hkh/git/eapidk-code-r76-trunk/apps/EeePProg/linux/../BinFuncs.c ****   }
 908              		.loc 1 50 5 view .LVU321
  48:/home/hkh/git/eapidk-code-r76-trunk/apps/EeePProg/linux/../BinFuncs.c ****     ChkSum+=(uint32_t)(*((uint8_t*)pcvBuffer));
 909              		.loc 1 48 9 view .LVU322
  49:/home/hkh/git/eapidk-code-r76-trunk/apps/EeePProg/linux/../BinFuncs.c ****     pcvBuffer=((uint8_t*)pcvBuffer)+1;
 910              		.loc 1 49 5 view .LVU323
  50:/home/hkh/git/eapidk-code-r76-trunk/apps/EeePProg/linux/../BinFuncs.c ****   }
 911              		.loc 1 50 5 view .LVU324
  48:/home/hkh/git/eapidk-code-r76-trunk/apps/EeePProg/linux/../BinFuncs.c ****     ChkSum+=(uint32_t)(*((uint8_t*)pcvBuffer));
 912              		.loc 1 48 9 view .LVU325
  49:/home/hkh/git/eapidk-code-r76-trunk/apps/EeePProg/linux/../BinFuncs.c ****     pcvBuffer=((uint8_t*)pcvBuffer)+1;
 913              		.loc 1 49 5 view .LVU326
  50:/home/hkh/git/eapidk-code-r76-trunk/apps/EeePProg/linux/../BinFuncs.c ****   }
 914              		.loc 1 50 5 view .LVU327
  48:/home/hkh/git/eapidk-code-r76-trunk/apps/EeePProg/linux/../BinFuncs.c ****     ChkSum+=(uint32_t)(*((uint8_t*)pcvBuffer));
 915              		.loc 1 48 9 view .LVU328
  49:/home/hkh/git/eapidk-code-r76-trunk/apps/EeePProg/linux/../BinFuncs.c ****     pcvBuffer=((uint8_t*)pcvBuffer)+1;
 916              		.loc 1 49 5 view .LVU329
  50:/home/hkh/git/eapidk-code-r76-trunk/apps/EeePProg/linux/../BinFuncs.c ****   }
 917              		.loc 1 50 5 view .LVU330
  48:/home/hkh/git/eapidk-code-r76-trunk/apps/EeePProg/linux/../BinFuncs.c ****     ChkSum+=(uint32_t)(*((uint8_t*)pcvBuffer));
 918              		.loc 1 48 9 view .LVU331
  49:/home/hkh/git/eapidk-code-r76-trunk/apps/EeePProg/linux/../BinFuncs.c ****     pcvBuffer=((uint8_t*)pcvBuffer)+1;
 919              		.loc 1 49 5 view .LVU332
  50:/home/hkh/git/eapidk-code-r76-trunk/apps/EeePProg/linux/../BinFuncs.c ****   }
 920              		.loc 1 50 5 view .LVU333
  48:/home/hkh/git/eapidk-code-r76-trunk/apps/EeePProg/linux/../BinFuncs.c ****     ChkSum+=(uint32_t)(*((uint8_t*)pcvBuffer));
 921              		.loc 1 48 9 view .LVU334
  49:/home/hkh/git/eapidk-code-r76-trunk/apps/EeePProg/linux/../BinFuncs.c ****     pcvBuffer=((uint8_t*)pcvBuffer)+1;
 922              		.loc 1 49 5 view .LVU335
  50:/home/hkh/git/eapidk-code-r76-trunk/apps/EeePProg/linux/../BinFuncs.c ****   }
 923              		.loc 1 50 5 view .LVU336
  48:/home/hkh/git/eapidk-code-r76-trunk/apps/EeePProg/linux/../BinFuncs.c ****     ChkSum+=(uint32_t)(*((uint8_t*)pcvBuffer));
 924              		.loc 1 48 9 view .LVU337
  49:/home/hkh/git/eapidk-code-r76-trunk/apps/EeePProg/linux/../BinFuncs.c ****     pcvBuffer=((uint8_t*)pcvBuffer)+1;
 925              		.loc 1 49 5 view .LVU338
ARM GAS  /tmp/ccf3bFwG.s 			page 33


  50:/home/hkh/git/eapidk-code-r76-trunk/apps/EeePProg/linux/../BinFuncs.c ****   }
 926              		.loc 1 50 5 view .LVU339
  48:/home/hkh/git/eapidk-code-r76-trunk/apps/EeePProg/linux/../BinFuncs.c ****     ChkSum+=(uint32_t)(*((uint8_t*)pcvBuffer));
 927              		.loc 1 48 9 view .LVU340
  49:/home/hkh/git/eapidk-code-r76-trunk/apps/EeePProg/linux/../BinFuncs.c ****     pcvBuffer=((uint8_t*)pcvBuffer)+1;
 928              		.loc 1 49 5 view .LVU341
  49:/home/hkh/git/eapidk-code-r76-trunk/apps/EeePProg/linux/../BinFuncs.c ****     pcvBuffer=((uint8_t*)pcvBuffer)+1;
 929              		.loc 1 49 13 is_stmt 0 view .LVU342
 930 0394 202051E5 		ldrb	r2, [r1, #-32]	@ zero_extendqisi2
 931 0398 02F0D1F5 		pld	[r1, #2]
 932 039c 201081E2 		add	r1, r1, #32
 933              	.LVL65:
  49:/home/hkh/git/eapidk-code-r76-trunk/apps/EeePProg/linux/../BinFuncs.c ****     pcvBuffer=((uint8_t*)pcvBuffer)+1;
 934              		.loc 1 49 11 view .LVU343
 935 03a0 0E2082E0 		add	r2, r2, lr
  49:/home/hkh/git/eapidk-code-r76-trunk/apps/EeePProg/linux/../BinFuncs.c ****     pcvBuffer=((uint8_t*)pcvBuffer)+1;
 936              		.loc 1 49 13 view .LVU344
 937 03a4 3EE051E5 		ldrb	lr, [r1, #-62]	@ zero_extendqisi2
  49:/home/hkh/git/eapidk-code-r76-trunk/apps/EeePProg/linux/../BinFuncs.c ****     pcvBuffer=((uint8_t*)pcvBuffer)+1;
 938              		.loc 1 49 11 view .LVU345
 939 03a8 0E2082E0 		add	r2, r2, lr
  49:/home/hkh/git/eapidk-code-r76-trunk/apps/EeePProg/linux/../BinFuncs.c ****     pcvBuffer=((uint8_t*)pcvBuffer)+1;
 940              		.loc 1 49 13 view .LVU346
 941 03ac 3DE051E5 		ldrb	lr, [r1, #-61]	@ zero_extendqisi2
  49:/home/hkh/git/eapidk-code-r76-trunk/apps/EeePProg/linux/../BinFuncs.c ****     pcvBuffer=((uint8_t*)pcvBuffer)+1;
 942              		.loc 1 49 11 view .LVU347
 943 03b0 0E2082E0 		add	r2, r2, lr
  49:/home/hkh/git/eapidk-code-r76-trunk/apps/EeePProg/linux/../BinFuncs.c ****     pcvBuffer=((uint8_t*)pcvBuffer)+1;
 944              		.loc 1 49 13 view .LVU348
 945 03b4 3CE051E5 		ldrb	lr, [r1, #-60]	@ zero_extendqisi2
  49:/home/hkh/git/eapidk-code-r76-trunk/apps/EeePProg/linux/../BinFuncs.c ****     pcvBuffer=((uint8_t*)pcvBuffer)+1;
 946              		.loc 1 49 11 view .LVU349
 947 03b8 0E2082E0 		add	r2, r2, lr
  49:/home/hkh/git/eapidk-code-r76-trunk/apps/EeePProg/linux/../BinFuncs.c ****     pcvBuffer=((uint8_t*)pcvBuffer)+1;
 948              		.loc 1 49 13 view .LVU350
 949 03bc 3BE051E5 		ldrb	lr, [r1, #-59]	@ zero_extendqisi2
  49:/home/hkh/git/eapidk-code-r76-trunk/apps/EeePProg/linux/../BinFuncs.c ****     pcvBuffer=((uint8_t*)pcvBuffer)+1;
 950              		.loc 1 49 11 view .LVU351
 951 03c0 0E2082E0 		add	r2, r2, lr
  49:/home/hkh/git/eapidk-code-r76-trunk/apps/EeePProg/linux/../BinFuncs.c ****     pcvBuffer=((uint8_t*)pcvBuffer)+1;
 952              		.loc 1 49 13 view .LVU352
 953 03c4 3AE051E5 		ldrb	lr, [r1, #-58]	@ zero_extendqisi2
  49:/home/hkh/git/eapidk-code-r76-trunk/apps/EeePProg/linux/../BinFuncs.c ****     pcvBuffer=((uint8_t*)pcvBuffer)+1;
 954              		.loc 1 49 11 view .LVU353
 955 03c8 0E2082E0 		add	r2, r2, lr
  49:/home/hkh/git/eapidk-code-r76-trunk/apps/EeePProg/linux/../BinFuncs.c ****     pcvBuffer=((uint8_t*)pcvBuffer)+1;
 956              		.loc 1 49 13 view .LVU354
 957 03cc 39E051E5 		ldrb	lr, [r1, #-57]	@ zero_extendqisi2
  49:/home/hkh/git/eapidk-code-r76-trunk/apps/EeePProg/linux/../BinFuncs.c ****     pcvBuffer=((uint8_t*)pcvBuffer)+1;
 958              		.loc 1 49 11 view .LVU355
 959 03d0 0E2082E0 		add	r2, r2, lr
  49:/home/hkh/git/eapidk-code-r76-trunk/apps/EeePProg/linux/../BinFuncs.c ****     pcvBuffer=((uint8_t*)pcvBuffer)+1;
 960              		.loc 1 49 13 view .LVU356
 961 03d4 38E051E5 		ldrb	lr, [r1, #-56]	@ zero_extendqisi2
  49:/home/hkh/git/eapidk-code-r76-trunk/apps/EeePProg/linux/../BinFuncs.c ****     pcvBuffer=((uint8_t*)pcvBuffer)+1;
 962              		.loc 1 49 11 view .LVU357
 963 03d8 0E2082E0 		add	r2, r2, lr
ARM GAS  /tmp/ccf3bFwG.s 			page 34


  49:/home/hkh/git/eapidk-code-r76-trunk/apps/EeePProg/linux/../BinFuncs.c ****     pcvBuffer=((uint8_t*)pcvBuffer)+1;
 964              		.loc 1 49 13 view .LVU358
 965 03dc 37E051E5 		ldrb	lr, [r1, #-55]	@ zero_extendqisi2
  49:/home/hkh/git/eapidk-code-r76-trunk/apps/EeePProg/linux/../BinFuncs.c ****     pcvBuffer=((uint8_t*)pcvBuffer)+1;
 966              		.loc 1 49 11 view .LVU359
 967 03e0 0E2082E0 		add	r2, r2, lr
  49:/home/hkh/git/eapidk-code-r76-trunk/apps/EeePProg/linux/../BinFuncs.c ****     pcvBuffer=((uint8_t*)pcvBuffer)+1;
 968              		.loc 1 49 13 view .LVU360
 969 03e4 36E051E5 		ldrb	lr, [r1, #-54]	@ zero_extendqisi2
  49:/home/hkh/git/eapidk-code-r76-trunk/apps/EeePProg/linux/../BinFuncs.c ****     pcvBuffer=((uint8_t*)pcvBuffer)+1;
 970              		.loc 1 49 11 view .LVU361
 971 03e8 0E2082E0 		add	r2, r2, lr
  49:/home/hkh/git/eapidk-code-r76-trunk/apps/EeePProg/linux/../BinFuncs.c ****     pcvBuffer=((uint8_t*)pcvBuffer)+1;
 972              		.loc 1 49 13 view .LVU362
 973 03ec 35E051E5 		ldrb	lr, [r1, #-53]	@ zero_extendqisi2
  49:/home/hkh/git/eapidk-code-r76-trunk/apps/EeePProg/linux/../BinFuncs.c ****     pcvBuffer=((uint8_t*)pcvBuffer)+1;
 974              		.loc 1 49 11 view .LVU363
 975 03f0 0E2082E0 		add	r2, r2, lr
  49:/home/hkh/git/eapidk-code-r76-trunk/apps/EeePProg/linux/../BinFuncs.c ****     pcvBuffer=((uint8_t*)pcvBuffer)+1;
 976              		.loc 1 49 13 view .LVU364
 977 03f4 34E051E5 		ldrb	lr, [r1, #-52]	@ zero_extendqisi2
  49:/home/hkh/git/eapidk-code-r76-trunk/apps/EeePProg/linux/../BinFuncs.c ****     pcvBuffer=((uint8_t*)pcvBuffer)+1;
 978              		.loc 1 49 11 view .LVU365
 979 03f8 0E2082E0 		add	r2, r2, lr
  49:/home/hkh/git/eapidk-code-r76-trunk/apps/EeePProg/linux/../BinFuncs.c ****     pcvBuffer=((uint8_t*)pcvBuffer)+1;
 980              		.loc 1 49 13 view .LVU366
 981 03fc 33E051E5 		ldrb	lr, [r1, #-51]	@ zero_extendqisi2
  49:/home/hkh/git/eapidk-code-r76-trunk/apps/EeePProg/linux/../BinFuncs.c ****     pcvBuffer=((uint8_t*)pcvBuffer)+1;
 982              		.loc 1 49 11 view .LVU367
 983 0400 0E2082E0 		add	r2, r2, lr
  49:/home/hkh/git/eapidk-code-r76-trunk/apps/EeePProg/linux/../BinFuncs.c ****     pcvBuffer=((uint8_t*)pcvBuffer)+1;
 984              		.loc 1 49 13 view .LVU368
 985 0404 32E051E5 		ldrb	lr, [r1, #-50]	@ zero_extendqisi2
  49:/home/hkh/git/eapidk-code-r76-trunk/apps/EeePProg/linux/../BinFuncs.c ****     pcvBuffer=((uint8_t*)pcvBuffer)+1;
 986              		.loc 1 49 11 view .LVU369
 987 0408 0E2082E0 		add	r2, r2, lr
  49:/home/hkh/git/eapidk-code-r76-trunk/apps/EeePProg/linux/../BinFuncs.c ****     pcvBuffer=((uint8_t*)pcvBuffer)+1;
 988              		.loc 1 49 13 view .LVU370
 989 040c 31E051E5 		ldrb	lr, [r1, #-49]	@ zero_extendqisi2
  49:/home/hkh/git/eapidk-code-r76-trunk/apps/EeePProg/linux/../BinFuncs.c ****     pcvBuffer=((uint8_t*)pcvBuffer)+1;
 990              		.loc 1 49 11 view .LVU371
 991 0410 0E2082E0 		add	r2, r2, lr
  49:/home/hkh/git/eapidk-code-r76-trunk/apps/EeePProg/linux/../BinFuncs.c ****     pcvBuffer=((uint8_t*)pcvBuffer)+1;
 992              		.loc 1 49 13 view .LVU372
 993 0414 30E051E5 		ldrb	lr, [r1, #-48]	@ zero_extendqisi2
  49:/home/hkh/git/eapidk-code-r76-trunk/apps/EeePProg/linux/../BinFuncs.c ****     pcvBuffer=((uint8_t*)pcvBuffer)+1;
 994              		.loc 1 49 11 view .LVU373
 995 0418 0E2082E0 		add	r2, r2, lr
  49:/home/hkh/git/eapidk-code-r76-trunk/apps/EeePProg/linux/../BinFuncs.c ****     pcvBuffer=((uint8_t*)pcvBuffer)+1;
 996              		.loc 1 49 13 view .LVU374
 997 041c 2FE051E5 		ldrb	lr, [r1, #-47]	@ zero_extendqisi2
  49:/home/hkh/git/eapidk-code-r76-trunk/apps/EeePProg/linux/../BinFuncs.c ****     pcvBuffer=((uint8_t*)pcvBuffer)+1;
 998              		.loc 1 49 11 view .LVU375
 999 0420 0E2082E0 		add	r2, r2, lr
  49:/home/hkh/git/eapidk-code-r76-trunk/apps/EeePProg/linux/../BinFuncs.c ****     pcvBuffer=((uint8_t*)pcvBuffer)+1;
 1000              		.loc 1 49 13 view .LVU376
 1001 0424 2EE051E5 		ldrb	lr, [r1, #-46]	@ zero_extendqisi2
ARM GAS  /tmp/ccf3bFwG.s 			page 35


  49:/home/hkh/git/eapidk-code-r76-trunk/apps/EeePProg/linux/../BinFuncs.c ****     pcvBuffer=((uint8_t*)pcvBuffer)+1;
 1002              		.loc 1 49 11 view .LVU377
 1003 0428 0E2082E0 		add	r2, r2, lr
  49:/home/hkh/git/eapidk-code-r76-trunk/apps/EeePProg/linux/../BinFuncs.c ****     pcvBuffer=((uint8_t*)pcvBuffer)+1;
 1004              		.loc 1 49 13 view .LVU378
 1005 042c 2DE051E5 		ldrb	lr, [r1, #-45]	@ zero_extendqisi2
  49:/home/hkh/git/eapidk-code-r76-trunk/apps/EeePProg/linux/../BinFuncs.c ****     pcvBuffer=((uint8_t*)pcvBuffer)+1;
 1006              		.loc 1 49 11 view .LVU379
 1007 0430 0E2082E0 		add	r2, r2, lr
  49:/home/hkh/git/eapidk-code-r76-trunk/apps/EeePProg/linux/../BinFuncs.c ****     pcvBuffer=((uint8_t*)pcvBuffer)+1;
 1008              		.loc 1 49 13 view .LVU380
 1009 0434 2CE051E5 		ldrb	lr, [r1, #-44]	@ zero_extendqisi2
  49:/home/hkh/git/eapidk-code-r76-trunk/apps/EeePProg/linux/../BinFuncs.c ****     pcvBuffer=((uint8_t*)pcvBuffer)+1;
 1010              		.loc 1 49 11 view .LVU381
 1011 0438 0E2082E0 		add	r2, r2, lr
  49:/home/hkh/git/eapidk-code-r76-trunk/apps/EeePProg/linux/../BinFuncs.c ****     pcvBuffer=((uint8_t*)pcvBuffer)+1;
 1012              		.loc 1 49 13 view .LVU382
 1013 043c 2BE051E5 		ldrb	lr, [r1, #-43]	@ zero_extendqisi2
  49:/home/hkh/git/eapidk-code-r76-trunk/apps/EeePProg/linux/../BinFuncs.c ****     pcvBuffer=((uint8_t*)pcvBuffer)+1;
 1014              		.loc 1 49 11 view .LVU383
 1015 0440 0E2082E0 		add	r2, r2, lr
  49:/home/hkh/git/eapidk-code-r76-trunk/apps/EeePProg/linux/../BinFuncs.c ****     pcvBuffer=((uint8_t*)pcvBuffer)+1;
 1016              		.loc 1 49 13 view .LVU384
 1017 0444 2AE051E5 		ldrb	lr, [r1, #-42]	@ zero_extendqisi2
  49:/home/hkh/git/eapidk-code-r76-trunk/apps/EeePProg/linux/../BinFuncs.c ****     pcvBuffer=((uint8_t*)pcvBuffer)+1;
 1018              		.loc 1 49 11 view .LVU385
 1019 0448 0E2082E0 		add	r2, r2, lr
  49:/home/hkh/git/eapidk-code-r76-trunk/apps/EeePProg/linux/../BinFuncs.c ****     pcvBuffer=((uint8_t*)pcvBuffer)+1;
 1020              		.loc 1 49 13 view .LVU386
 1021 044c 29E051E5 		ldrb	lr, [r1, #-41]	@ zero_extendqisi2
  49:/home/hkh/git/eapidk-code-r76-trunk/apps/EeePProg/linux/../BinFuncs.c ****     pcvBuffer=((uint8_t*)pcvBuffer)+1;
 1022              		.loc 1 49 11 view .LVU387
 1023 0450 0E2082E0 		add	r2, r2, lr
  49:/home/hkh/git/eapidk-code-r76-trunk/apps/EeePProg/linux/../BinFuncs.c ****     pcvBuffer=((uint8_t*)pcvBuffer)+1;
 1024              		.loc 1 49 13 view .LVU388
 1025 0454 28E051E5 		ldrb	lr, [r1, #-40]	@ zero_extendqisi2
  49:/home/hkh/git/eapidk-code-r76-trunk/apps/EeePProg/linux/../BinFuncs.c ****     pcvBuffer=((uint8_t*)pcvBuffer)+1;
 1026              		.loc 1 49 11 view .LVU389
 1027 0458 0E2082E0 		add	r2, r2, lr
  49:/home/hkh/git/eapidk-code-r76-trunk/apps/EeePProg/linux/../BinFuncs.c ****     pcvBuffer=((uint8_t*)pcvBuffer)+1;
 1028              		.loc 1 49 13 view .LVU390
 1029 045c 27E051E5 		ldrb	lr, [r1, #-39]	@ zero_extendqisi2
  49:/home/hkh/git/eapidk-code-r76-trunk/apps/EeePProg/linux/../BinFuncs.c ****     pcvBuffer=((uint8_t*)pcvBuffer)+1;
 1030              		.loc 1 49 11 view .LVU391
 1031 0460 0E2082E0 		add	r2, r2, lr
  49:/home/hkh/git/eapidk-code-r76-trunk/apps/EeePProg/linux/../BinFuncs.c ****     pcvBuffer=((uint8_t*)pcvBuffer)+1;
 1032              		.loc 1 49 13 view .LVU392
 1033 0464 26E051E5 		ldrb	lr, [r1, #-38]	@ zero_extendqisi2
  49:/home/hkh/git/eapidk-code-r76-trunk/apps/EeePProg/linux/../BinFuncs.c ****     pcvBuffer=((uint8_t*)pcvBuffer)+1;
 1034              		.loc 1 49 11 view .LVU393
 1035 0468 0E2082E0 		add	r2, r2, lr
  49:/home/hkh/git/eapidk-code-r76-trunk/apps/EeePProg/linux/../BinFuncs.c ****     pcvBuffer=((uint8_t*)pcvBuffer)+1;
 1036              		.loc 1 49 13 view .LVU394
 1037 046c 25E051E5 		ldrb	lr, [r1, #-37]	@ zero_extendqisi2
  49:/home/hkh/git/eapidk-code-r76-trunk/apps/EeePProg/linux/../BinFuncs.c ****     pcvBuffer=((uint8_t*)pcvBuffer)+1;
 1038              		.loc 1 49 11 view .LVU395
 1039 0470 0E2082E0 		add	r2, r2, lr
ARM GAS  /tmp/ccf3bFwG.s 			page 36


  49:/home/hkh/git/eapidk-code-r76-trunk/apps/EeePProg/linux/../BinFuncs.c ****     pcvBuffer=((uint8_t*)pcvBuffer)+1;
 1040              		.loc 1 49 13 view .LVU396
 1041 0474 24E051E5 		ldrb	lr, [r1, #-36]	@ zero_extendqisi2
  49:/home/hkh/git/eapidk-code-r76-trunk/apps/EeePProg/linux/../BinFuncs.c ****     pcvBuffer=((uint8_t*)pcvBuffer)+1;
 1042              		.loc 1 49 11 view .LVU397
 1043 0478 0E2082E0 		add	r2, r2, lr
  49:/home/hkh/git/eapidk-code-r76-trunk/apps/EeePProg/linux/../BinFuncs.c ****     pcvBuffer=((uint8_t*)pcvBuffer)+1;
 1044              		.loc 1 49 13 view .LVU398
 1045 047c 23E051E5 		ldrb	lr, [r1, #-35]	@ zero_extendqisi2
  49:/home/hkh/git/eapidk-code-r76-trunk/apps/EeePProg/linux/../BinFuncs.c ****     pcvBuffer=((uint8_t*)pcvBuffer)+1;
 1046              		.loc 1 49 11 view .LVU399
 1047 0480 0E2082E0 		add	r2, r2, lr
  49:/home/hkh/git/eapidk-code-r76-trunk/apps/EeePProg/linux/../BinFuncs.c ****     pcvBuffer=((uint8_t*)pcvBuffer)+1;
 1048              		.loc 1 49 13 view .LVU400
 1049 0484 22E051E5 		ldrb	lr, [r1, #-34]	@ zero_extendqisi2
  49:/home/hkh/git/eapidk-code-r76-trunk/apps/EeePProg/linux/../BinFuncs.c ****     pcvBuffer=((uint8_t*)pcvBuffer)+1;
 1050              		.loc 1 49 11 view .LVU401
 1051 0488 0E2082E0 		add	r2, r2, lr
  49:/home/hkh/git/eapidk-code-r76-trunk/apps/EeePProg/linux/../BinFuncs.c ****     pcvBuffer=((uint8_t*)pcvBuffer)+1;
 1052              		.loc 1 49 13 view .LVU402
 1053 048c 21E051E5 		ldrb	lr, [r1, #-33]	@ zero_extendqisi2
  49:/home/hkh/git/eapidk-code-r76-trunk/apps/EeePProg/linux/../BinFuncs.c ****     pcvBuffer=((uint8_t*)pcvBuffer)+1;
 1054              		.loc 1 49 11 view .LVU403
 1055 0490 0E2082E0 		add	r2, r2, lr
 1056 0494 020080E0 		add	r0, r0, r2
 1057              	.LVL66:
  50:/home/hkh/git/eapidk-code-r76-trunk/apps/EeePProg/linux/../BinFuncs.c ****   }
 1058              		.loc 1 50 5 is_stmt 1 view .LVU404
  48:/home/hkh/git/eapidk-code-r76-trunk/apps/EeePProg/linux/../BinFuncs.c ****     ChkSum+=(uint32_t)(*((uint8_t*)pcvBuffer));
 1059              		.loc 1 48 9 view .LVU405
  48:/home/hkh/git/eapidk-code-r76-trunk/apps/EeePProg/linux/../BinFuncs.c ****     ChkSum+=(uint32_t)(*((uint8_t*)pcvBuffer));
 1060              		.loc 1 48 9 is_stmt 0 view .LVU406
 1061 0498 B9FFFF8A 		bhi	.L79
 1062 049c 01108CE2 		add	r1, ip, #1
 1063 04a0 011083E0 		add	r1, r3, r1
 1064              	.L80:
 1065              	.LVL67:
  49:/home/hkh/git/eapidk-code-r76-trunk/apps/EeePProg/linux/../BinFuncs.c ****     pcvBuffer=((uint8_t*)pcvBuffer)+1;
 1066              		.loc 1 49 5 is_stmt 1 view .LVU407
  49:/home/hkh/git/eapidk-code-r76-trunk/apps/EeePProg/linux/../BinFuncs.c ****     pcvBuffer=((uint8_t*)pcvBuffer)+1;
 1067              		.loc 1 49 13 is_stmt 0 view .LVU408
 1068 04a4 0120D3E4 		ldrb	r2, [r3], #1	@ zero_extendqisi2
 1069              	.LVL68:
  48:/home/hkh/git/eapidk-code-r76-trunk/apps/EeePProg/linux/../BinFuncs.c ****     ChkSum+=(uint32_t)(*((uint8_t*)pcvBuffer));
 1070              		.loc 1 48 9 view .LVU409
 1071 04a8 010053E1 		cmp	r3, r1
  49:/home/hkh/git/eapidk-code-r76-trunk/apps/EeePProg/linux/../BinFuncs.c ****     pcvBuffer=((uint8_t*)pcvBuffer)+1;
 1072              		.loc 1 49 11 view .LVU410
 1073 04ac 020080E0 		add	r0, r0, r2
 1074              	.LVL69:
  50:/home/hkh/git/eapidk-code-r76-trunk/apps/EeePProg/linux/../BinFuncs.c ****   }
 1075              		.loc 1 50 5 is_stmt 1 view .LVU411
  48:/home/hkh/git/eapidk-code-r76-trunk/apps/EeePProg/linux/../BinFuncs.c ****     ChkSum+=(uint32_t)(*((uint8_t*)pcvBuffer));
 1076              		.loc 1 48 9 view .LVU412
  48:/home/hkh/git/eapidk-code-r76-trunk/apps/EeePProg/linux/../BinFuncs.c ****     ChkSum+=(uint32_t)(*((uint8_t*)pcvBuffer));
 1077              		.loc 1 48 9 is_stmt 0 view .LVU413
 1078 04b0 FBFFFF1A 		bne	.L80
ARM GAS  /tmp/ccf3bFwG.s 			page 37


 1079 04b4 04F09DE4 		ldr	pc, [sp], #4
 1080              	.LVL70:
 1081              	.L81:
 1082              		.cfi_def_cfa_offset 0
 1083              		.cfi_restore 14
  47:/home/hkh/git/eapidk-code-r76-trunk/apps/EeePProg/linux/../BinFuncs.c ****   while(stLength--){
 1084              		.loc 1 47 12 view .LVU414
 1085 04b8 0100A0E1 		mov	r0, r1
 1086              	.LVL71:
  52:/home/hkh/git/eapidk-code-r76-trunk/apps/EeePProg/linux/../BinFuncs.c **** }
 1087              		.loc 1 52 3 is_stmt 1 view .LVU415
  52:/home/hkh/git/eapidk-code-r76-trunk/apps/EeePProg/linux/../BinFuncs.c **** }
 1088              		.loc 1 52 10 is_stmt 0 view .LVU416
 1089 04bc 1EFF2FE1 		bx	lr
 1090              	.LVL72:
 1091              	.L82:
  52:/home/hkh/git/eapidk-code-r76-trunk/apps/EeePProg/linux/../BinFuncs.c **** }
 1092              		.loc 1 52 10 view .LVU417
 1093 04c0 01108CE2 		add	r1, ip, #1
  48:/home/hkh/git/eapidk-code-r76-trunk/apps/EeePProg/linux/../BinFuncs.c ****     ChkSum+=(uint32_t)(*((uint8_t*)pcvBuffer));
 1094              		.loc 1 48 9 view .LVU418
 1095 04c4 0000A0E3 		mov	r0, #0
 1096              	.LVL73:
  48:/home/hkh/git/eapidk-code-r76-trunk/apps/EeePProg/linux/../BinFuncs.c ****     ChkSum+=(uint32_t)(*((uint8_t*)pcvBuffer));
 1097              		.loc 1 48 9 view .LVU419
 1098 04c8 011083E0 		add	r1, r3, r1
 1099              	.LVL74:
 1100              	.L87:
  49:/home/hkh/git/eapidk-code-r76-trunk/apps/EeePProg/linux/../BinFuncs.c ****     pcvBuffer=((uint8_t*)pcvBuffer)+1;
 1101              		.loc 1 49 5 is_stmt 1 view .LVU420
  49:/home/hkh/git/eapidk-code-r76-trunk/apps/EeePProg/linux/../BinFuncs.c ****     pcvBuffer=((uint8_t*)pcvBuffer)+1;
 1102              		.loc 1 49 13 is_stmt 0 view .LVU421
 1103 04cc 0120D3E4 		ldrb	r2, [r3], #1	@ zero_extendqisi2
 1104              	.LVL75:
  48:/home/hkh/git/eapidk-code-r76-trunk/apps/EeePProg/linux/../BinFuncs.c ****     ChkSum+=(uint32_t)(*((uint8_t*)pcvBuffer));
 1105              		.loc 1 48 9 view .LVU422
 1106 04d0 010053E1 		cmp	r3, r1
  49:/home/hkh/git/eapidk-code-r76-trunk/apps/EeePProg/linux/../BinFuncs.c ****     pcvBuffer=((uint8_t*)pcvBuffer)+1;
 1107              		.loc 1 49 11 view .LVU423
 1108 04d4 020080E0 		add	r0, r0, r2
 1109              	.LVL76:
  50:/home/hkh/git/eapidk-code-r76-trunk/apps/EeePProg/linux/../BinFuncs.c ****   }
 1110              		.loc 1 50 5 is_stmt 1 view .LVU424
  48:/home/hkh/git/eapidk-code-r76-trunk/apps/EeePProg/linux/../BinFuncs.c ****     ChkSum+=(uint32_t)(*((uint8_t*)pcvBuffer));
 1111              		.loc 1 48 9 view .LVU425
  48:/home/hkh/git/eapidk-code-r76-trunk/apps/EeePProg/linux/../BinFuncs.c ****     ChkSum+=(uint32_t)(*((uint8_t*)pcvBuffer));
 1112              		.loc 1 48 9 is_stmt 0 view .LVU426
 1113 04d8 FBFFFF1A 		bne	.L87
 1114 04dc 1EFF2FE1 		bx	lr
 1115              		.cfi_endproc
 1116              	.LFE1:
 1118              		.align	2
 1119              		.global	u16ChecksumBlock
 1120              		.syntax unified
 1121              		.arm
 1122              		.fpu vfpv3
 1124              	u16ChecksumBlock:
ARM GAS  /tmp/ccf3bFwG.s 			page 38


 1125              	.LVL77:
 1126              	.LFB2:
  59:/home/hkh/git/eapidk-code-r76-trunk/apps/EeePProg/linux/../BinFuncs.c ****   return EEEP_LO_UINT16(u32ChecksumBlock(pcvBuffer, stLength));
 1127              		.loc 1 59 1 is_stmt 1 view -0
 1128              		.cfi_startproc
 1129              		@ args = 0, pretend = 0, frame = 0
 1130              		@ frame_needed = 0, uses_anonymous_args = 0
  60:/home/hkh/git/eapidk-code-r76-trunk/apps/EeePProg/linux/../BinFuncs.c **** }
 1131              		.loc 1 60 3 view .LVU428
 1132              	.LBB70:
 1133              	.LBI70:
  42:/home/hkh/git/eapidk-code-r76-trunk/apps/EeePProg/linux/../BinFuncs.c **** 	const void *pcvBuffer, 
 1134              		.loc 1 42 1 view .LVU429
 1135              	.LBB71:
  47:/home/hkh/git/eapidk-code-r76-trunk/apps/EeePProg/linux/../BinFuncs.c ****   while(stLength--){
 1136              		.loc 1 47 3 view .LVU430
  48:/home/hkh/git/eapidk-code-r76-trunk/apps/EeePProg/linux/../BinFuncs.c ****     ChkSum+=(uint32_t)(*((uint8_t*)pcvBuffer));
 1137              		.loc 1 48 3 view .LVU431
  48:/home/hkh/git/eapidk-code-r76-trunk/apps/EeePProg/linux/../BinFuncs.c ****     ChkSum+=(uint32_t)(*((uint8_t*)pcvBuffer));
 1138              		.loc 1 48 9 view .LVU432
 1139 04e0 000051E3 		cmp	r1, #0
 1140              	.LVL78:
  48:/home/hkh/git/eapidk-code-r76-trunk/apps/EeePProg/linux/../BinFuncs.c ****     ChkSum+=(uint32_t)(*((uint8_t*)pcvBuffer));
 1141              		.loc 1 48 9 is_stmt 0 view .LVU433
 1142 04e4 5300000A 		beq	.L98
 1143 04e8 01C041E2 		sub	ip, r1, #1
 1144              	.LVL79:
  48:/home/hkh/git/eapidk-code-r76-trunk/apps/EeePProg/linux/../BinFuncs.c ****     ChkSum+=(uint32_t)(*((uint8_t*)pcvBuffer));
 1145              		.loc 1 48 9 view .LVU434
 1146 04ec 1F005CE3 		cmp	ip, #31
 1147 04f0 5200009A 		bls	.L99
 1148 04f4 201080E2 		add	r1, r0, #32
 1149              	.LVL80:
  47:/home/hkh/git/eapidk-code-r76-trunk/apps/EeePProg/linux/../BinFuncs.c ****   while(stLength--){
 1150              		.loc 1 47 12 view .LVU435
 1151 04f8 0030A0E3 		mov	r3, #0
 1152              	.LBE71:
 1153              	.LBE70:
  59:/home/hkh/git/eapidk-code-r76-trunk/apps/EeePProg/linux/../BinFuncs.c ****   return EEEP_LO_UINT16(u32ChecksumBlock(pcvBuffer, stLength));
 1154              		.loc 1 59 1 view .LVU436
 1155 04fc 04E02DE5 		str	lr, [sp, #-4]!
 1156              		.cfi_def_cfa_offset 4
 1157              		.cfi_offset 14, -4
 1158              	.LVL81:
 1159              	.L96:
 1160              	.LBB76:
 1161              	.LBB72:
  49:/home/hkh/git/eapidk-code-r76-trunk/apps/EeePProg/linux/../BinFuncs.c ****     pcvBuffer=((uint8_t*)pcvBuffer)+1;
 1162              		.loc 1 49 5 is_stmt 1 view .LVU437
  49:/home/hkh/git/eapidk-code-r76-trunk/apps/EeePProg/linux/../BinFuncs.c ****     pcvBuffer=((uint8_t*)pcvBuffer)+1;
 1163              		.loc 1 49 13 is_stmt 0 view .LVU438
 1164 0500 1FE051E5 		ldrb	lr, [r1, #-31]	@ zero_extendqisi2
  48:/home/hkh/git/eapidk-code-r76-trunk/apps/EeePProg/linux/../BinFuncs.c ****     ChkSum+=(uint32_t)(*((uint8_t*)pcvBuffer));
 1165              		.loc 1 48 17 view .LVU439
 1166 0504 20C04CE2 		sub	ip, ip, #32
 1167 0508 1F005CE3 		cmp	ip, #31
 1168 050c 0100A0E1 		mov	r0, r1
ARM GAS  /tmp/ccf3bFwG.s 			page 39


 1169              	.LVL82:
  50:/home/hkh/git/eapidk-code-r76-trunk/apps/EeePProg/linux/../BinFuncs.c ****   }
 1170              		.loc 1 50 5 is_stmt 1 view .LVU440
  48:/home/hkh/git/eapidk-code-r76-trunk/apps/EeePProg/linux/../BinFuncs.c ****     ChkSum+=(uint32_t)(*((uint8_t*)pcvBuffer));
 1171              		.loc 1 48 9 view .LVU441
  49:/home/hkh/git/eapidk-code-r76-trunk/apps/EeePProg/linux/../BinFuncs.c ****     pcvBuffer=((uint8_t*)pcvBuffer)+1;
 1172              		.loc 1 49 5 view .LVU442
  50:/home/hkh/git/eapidk-code-r76-trunk/apps/EeePProg/linux/../BinFuncs.c ****   }
 1173              		.loc 1 50 5 view .LVU443
  48:/home/hkh/git/eapidk-code-r76-trunk/apps/EeePProg/linux/../BinFuncs.c ****     ChkSum+=(uint32_t)(*((uint8_t*)pcvBuffer));
 1174              		.loc 1 48 9 view .LVU444
  49:/home/hkh/git/eapidk-code-r76-trunk/apps/EeePProg/linux/../BinFuncs.c ****     pcvBuffer=((uint8_t*)pcvBuffer)+1;
 1175              		.loc 1 49 5 view .LVU445
  50:/home/hkh/git/eapidk-code-r76-trunk/apps/EeePProg/linux/../BinFuncs.c ****   }
 1176              		.loc 1 50 5 view .LVU446
  48:/home/hkh/git/eapidk-code-r76-trunk/apps/EeePProg/linux/../BinFuncs.c ****     ChkSum+=(uint32_t)(*((uint8_t*)pcvBuffer));
 1177              		.loc 1 48 9 view .LVU447
  49:/home/hkh/git/eapidk-code-r76-trunk/apps/EeePProg/linux/../BinFuncs.c ****     pcvBuffer=((uint8_t*)pcvBuffer)+1;
 1178              		.loc 1 49 5 view .LVU448
  50:/home/hkh/git/eapidk-code-r76-trunk/apps/EeePProg/linux/../BinFuncs.c ****   }
 1179              		.loc 1 50 5 view .LVU449
  48:/home/hkh/git/eapidk-code-r76-trunk/apps/EeePProg/linux/../BinFuncs.c ****     ChkSum+=(uint32_t)(*((uint8_t*)pcvBuffer));
 1180              		.loc 1 48 9 view .LVU450
  49:/home/hkh/git/eapidk-code-r76-trunk/apps/EeePProg/linux/../BinFuncs.c ****     pcvBuffer=((uint8_t*)pcvBuffer)+1;
 1181              		.loc 1 49 5 view .LVU451
  50:/home/hkh/git/eapidk-code-r76-trunk/apps/EeePProg/linux/../BinFuncs.c ****   }
 1182              		.loc 1 50 5 view .LVU452
  48:/home/hkh/git/eapidk-code-r76-trunk/apps/EeePProg/linux/../BinFuncs.c ****     ChkSum+=(uint32_t)(*((uint8_t*)pcvBuffer));
 1183              		.loc 1 48 9 view .LVU453
  49:/home/hkh/git/eapidk-code-r76-trunk/apps/EeePProg/linux/../BinFuncs.c ****     pcvBuffer=((uint8_t*)pcvBuffer)+1;
 1184              		.loc 1 49 5 view .LVU454
  50:/home/hkh/git/eapidk-code-r76-trunk/apps/EeePProg/linux/../BinFuncs.c ****   }
 1185              		.loc 1 50 5 view .LVU455
  48:/home/hkh/git/eapidk-code-r76-trunk/apps/EeePProg/linux/../BinFuncs.c ****     ChkSum+=(uint32_t)(*((uint8_t*)pcvBuffer));
 1186              		.loc 1 48 9 view .LVU456
  49:/home/hkh/git/eapidk-code-r76-trunk/apps/EeePProg/linux/../BinFuncs.c ****     pcvBuffer=((uint8_t*)pcvBuffer)+1;
 1187              		.loc 1 49 5 view .LVU457
  50:/home/hkh/git/eapidk-code-r76-trunk/apps/EeePProg/linux/../BinFuncs.c ****   }
 1188              		.loc 1 50 5 view .LVU458
  48:/home/hkh/git/eapidk-code-r76-trunk/apps/EeePProg/linux/../BinFuncs.c ****     ChkSum+=(uint32_t)(*((uint8_t*)pcvBuffer));
 1189              		.loc 1 48 9 view .LVU459
  49:/home/hkh/git/eapidk-code-r76-trunk/apps/EeePProg/linux/../BinFuncs.c ****     pcvBuffer=((uint8_t*)pcvBuffer)+1;
 1190              		.loc 1 49 5 view .LVU460
  50:/home/hkh/git/eapidk-code-r76-trunk/apps/EeePProg/linux/../BinFuncs.c ****   }
 1191              		.loc 1 50 5 view .LVU461
  48:/home/hkh/git/eapidk-code-r76-trunk/apps/EeePProg/linux/../BinFuncs.c ****     ChkSum+=(uint32_t)(*((uint8_t*)pcvBuffer));
 1192              		.loc 1 48 9 view .LVU462
  49:/home/hkh/git/eapidk-code-r76-trunk/apps/EeePProg/linux/../BinFuncs.c ****     pcvBuffer=((uint8_t*)pcvBuffer)+1;
 1193              		.loc 1 49 5 view .LVU463
  50:/home/hkh/git/eapidk-code-r76-trunk/apps/EeePProg/linux/../BinFuncs.c ****   }
 1194              		.loc 1 50 5 view .LVU464
  48:/home/hkh/git/eapidk-code-r76-trunk/apps/EeePProg/linux/../BinFuncs.c ****     ChkSum+=(uint32_t)(*((uint8_t*)pcvBuffer));
 1195              		.loc 1 48 9 view .LVU465
  49:/home/hkh/git/eapidk-code-r76-trunk/apps/EeePProg/linux/../BinFuncs.c ****     pcvBuffer=((uint8_t*)pcvBuffer)+1;
 1196              		.loc 1 49 5 view .LVU466
  50:/home/hkh/git/eapidk-code-r76-trunk/apps/EeePProg/linux/../BinFuncs.c ****   }
 1197              		.loc 1 50 5 view .LVU467
ARM GAS  /tmp/ccf3bFwG.s 			page 40


  48:/home/hkh/git/eapidk-code-r76-trunk/apps/EeePProg/linux/../BinFuncs.c ****     ChkSum+=(uint32_t)(*((uint8_t*)pcvBuffer));
 1198              		.loc 1 48 9 view .LVU468
  49:/home/hkh/git/eapidk-code-r76-trunk/apps/EeePProg/linux/../BinFuncs.c ****     pcvBuffer=((uint8_t*)pcvBuffer)+1;
 1199              		.loc 1 49 5 view .LVU469
  50:/home/hkh/git/eapidk-code-r76-trunk/apps/EeePProg/linux/../BinFuncs.c ****   }
 1200              		.loc 1 50 5 view .LVU470
  48:/home/hkh/git/eapidk-code-r76-trunk/apps/EeePProg/linux/../BinFuncs.c ****     ChkSum+=(uint32_t)(*((uint8_t*)pcvBuffer));
 1201              		.loc 1 48 9 view .LVU471
  49:/home/hkh/git/eapidk-code-r76-trunk/apps/EeePProg/linux/../BinFuncs.c ****     pcvBuffer=((uint8_t*)pcvBuffer)+1;
 1202              		.loc 1 49 5 view .LVU472
  50:/home/hkh/git/eapidk-code-r76-trunk/apps/EeePProg/linux/../BinFuncs.c ****   }
 1203              		.loc 1 50 5 view .LVU473
  48:/home/hkh/git/eapidk-code-r76-trunk/apps/EeePProg/linux/../BinFuncs.c ****     ChkSum+=(uint32_t)(*((uint8_t*)pcvBuffer));
 1204              		.loc 1 48 9 view .LVU474
  49:/home/hkh/git/eapidk-code-r76-trunk/apps/EeePProg/linux/../BinFuncs.c ****     pcvBuffer=((uint8_t*)pcvBuffer)+1;
 1205              		.loc 1 49 5 view .LVU475
  50:/home/hkh/git/eapidk-code-r76-trunk/apps/EeePProg/linux/../BinFuncs.c ****   }
 1206              		.loc 1 50 5 view .LVU476
  48:/home/hkh/git/eapidk-code-r76-trunk/apps/EeePProg/linux/../BinFuncs.c ****     ChkSum+=(uint32_t)(*((uint8_t*)pcvBuffer));
 1207              		.loc 1 48 9 view .LVU477
  49:/home/hkh/git/eapidk-code-r76-trunk/apps/EeePProg/linux/../BinFuncs.c ****     pcvBuffer=((uint8_t*)pcvBuffer)+1;
 1208              		.loc 1 49 5 view .LVU478
  50:/home/hkh/git/eapidk-code-r76-trunk/apps/EeePProg/linux/../BinFuncs.c ****   }
 1209              		.loc 1 50 5 view .LVU479
  48:/home/hkh/git/eapidk-code-r76-trunk/apps/EeePProg/linux/../BinFuncs.c ****     ChkSum+=(uint32_t)(*((uint8_t*)pcvBuffer));
 1210              		.loc 1 48 9 view .LVU480
  49:/home/hkh/git/eapidk-code-r76-trunk/apps/EeePProg/linux/../BinFuncs.c ****     pcvBuffer=((uint8_t*)pcvBuffer)+1;
 1211              		.loc 1 49 5 view .LVU481
  50:/home/hkh/git/eapidk-code-r76-trunk/apps/EeePProg/linux/../BinFuncs.c ****   }
 1212              		.loc 1 50 5 view .LVU482
  48:/home/hkh/git/eapidk-code-r76-trunk/apps/EeePProg/linux/../BinFuncs.c ****     ChkSum+=(uint32_t)(*((uint8_t*)pcvBuffer));
 1213              		.loc 1 48 9 view .LVU483
  49:/home/hkh/git/eapidk-code-r76-trunk/apps/EeePProg/linux/../BinFuncs.c ****     pcvBuffer=((uint8_t*)pcvBuffer)+1;
 1214              		.loc 1 49 5 view .LVU484
  50:/home/hkh/git/eapidk-code-r76-trunk/apps/EeePProg/linux/../BinFuncs.c ****   }
 1215              		.loc 1 50 5 view .LVU485
  48:/home/hkh/git/eapidk-code-r76-trunk/apps/EeePProg/linux/../BinFuncs.c ****     ChkSum+=(uint32_t)(*((uint8_t*)pcvBuffer));
 1216              		.loc 1 48 9 view .LVU486
  49:/home/hkh/git/eapidk-code-r76-trunk/apps/EeePProg/linux/../BinFuncs.c ****     pcvBuffer=((uint8_t*)pcvBuffer)+1;
 1217              		.loc 1 49 5 view .LVU487
  50:/home/hkh/git/eapidk-code-r76-trunk/apps/EeePProg/linux/../BinFuncs.c ****   }
 1218              		.loc 1 50 5 view .LVU488
  48:/home/hkh/git/eapidk-code-r76-trunk/apps/EeePProg/linux/../BinFuncs.c ****     ChkSum+=(uint32_t)(*((uint8_t*)pcvBuffer));
 1219              		.loc 1 48 9 view .LVU489
  49:/home/hkh/git/eapidk-code-r76-trunk/apps/EeePProg/linux/../BinFuncs.c ****     pcvBuffer=((uint8_t*)pcvBuffer)+1;
 1220              		.loc 1 49 5 view .LVU490
  50:/home/hkh/git/eapidk-code-r76-trunk/apps/EeePProg/linux/../BinFuncs.c ****   }
 1221              		.loc 1 50 5 view .LVU491
  48:/home/hkh/git/eapidk-code-r76-trunk/apps/EeePProg/linux/../BinFuncs.c ****     ChkSum+=(uint32_t)(*((uint8_t*)pcvBuffer));
 1222              		.loc 1 48 9 view .LVU492
  49:/home/hkh/git/eapidk-code-r76-trunk/apps/EeePProg/linux/../BinFuncs.c ****     pcvBuffer=((uint8_t*)pcvBuffer)+1;
 1223              		.loc 1 49 5 view .LVU493
  50:/home/hkh/git/eapidk-code-r76-trunk/apps/EeePProg/linux/../BinFuncs.c ****   }
 1224              		.loc 1 50 5 view .LVU494
  48:/home/hkh/git/eapidk-code-r76-trunk/apps/EeePProg/linux/../BinFuncs.c ****     ChkSum+=(uint32_t)(*((uint8_t*)pcvBuffer));
 1225              		.loc 1 48 9 view .LVU495
  49:/home/hkh/git/eapidk-code-r76-trunk/apps/EeePProg/linux/../BinFuncs.c ****     pcvBuffer=((uint8_t*)pcvBuffer)+1;
ARM GAS  /tmp/ccf3bFwG.s 			page 41


 1226              		.loc 1 49 5 view .LVU496
  50:/home/hkh/git/eapidk-code-r76-trunk/apps/EeePProg/linux/../BinFuncs.c ****   }
 1227              		.loc 1 50 5 view .LVU497
  48:/home/hkh/git/eapidk-code-r76-trunk/apps/EeePProg/linux/../BinFuncs.c ****     ChkSum+=(uint32_t)(*((uint8_t*)pcvBuffer));
 1228              		.loc 1 48 9 view .LVU498
  49:/home/hkh/git/eapidk-code-r76-trunk/apps/EeePProg/linux/../BinFuncs.c ****     pcvBuffer=((uint8_t*)pcvBuffer)+1;
 1229              		.loc 1 49 5 view .LVU499
  50:/home/hkh/git/eapidk-code-r76-trunk/apps/EeePProg/linux/../BinFuncs.c ****   }
 1230              		.loc 1 50 5 view .LVU500
  48:/home/hkh/git/eapidk-code-r76-trunk/apps/EeePProg/linux/../BinFuncs.c ****     ChkSum+=(uint32_t)(*((uint8_t*)pcvBuffer));
 1231              		.loc 1 48 9 view .LVU501
  49:/home/hkh/git/eapidk-code-r76-trunk/apps/EeePProg/linux/../BinFuncs.c ****     pcvBuffer=((uint8_t*)pcvBuffer)+1;
 1232              		.loc 1 49 5 view .LVU502
  50:/home/hkh/git/eapidk-code-r76-trunk/apps/EeePProg/linux/../BinFuncs.c ****   }
 1233              		.loc 1 50 5 view .LVU503
  48:/home/hkh/git/eapidk-code-r76-trunk/apps/EeePProg/linux/../BinFuncs.c ****     ChkSum+=(uint32_t)(*((uint8_t*)pcvBuffer));
 1234              		.loc 1 48 9 view .LVU504
  49:/home/hkh/git/eapidk-code-r76-trunk/apps/EeePProg/linux/../BinFuncs.c ****     pcvBuffer=((uint8_t*)pcvBuffer)+1;
 1235              		.loc 1 49 5 view .LVU505
  50:/home/hkh/git/eapidk-code-r76-trunk/apps/EeePProg/linux/../BinFuncs.c ****   }
 1236              		.loc 1 50 5 view .LVU506
  48:/home/hkh/git/eapidk-code-r76-trunk/apps/EeePProg/linux/../BinFuncs.c ****     ChkSum+=(uint32_t)(*((uint8_t*)pcvBuffer));
 1237              		.loc 1 48 9 view .LVU507
  49:/home/hkh/git/eapidk-code-r76-trunk/apps/EeePProg/linux/../BinFuncs.c ****     pcvBuffer=((uint8_t*)pcvBuffer)+1;
 1238              		.loc 1 49 5 view .LVU508
  50:/home/hkh/git/eapidk-code-r76-trunk/apps/EeePProg/linux/../BinFuncs.c ****   }
 1239              		.loc 1 50 5 view .LVU509
  48:/home/hkh/git/eapidk-code-r76-trunk/apps/EeePProg/linux/../BinFuncs.c ****     ChkSum+=(uint32_t)(*((uint8_t*)pcvBuffer));
 1240              		.loc 1 48 9 view .LVU510
  49:/home/hkh/git/eapidk-code-r76-trunk/apps/EeePProg/linux/../BinFuncs.c ****     pcvBuffer=((uint8_t*)pcvBuffer)+1;
 1241              		.loc 1 49 5 view .LVU511
  50:/home/hkh/git/eapidk-code-r76-trunk/apps/EeePProg/linux/../BinFuncs.c ****   }
 1242              		.loc 1 50 5 view .LVU512
  48:/home/hkh/git/eapidk-code-r76-trunk/apps/EeePProg/linux/../BinFuncs.c ****     ChkSum+=(uint32_t)(*((uint8_t*)pcvBuffer));
 1243              		.loc 1 48 9 view .LVU513
  49:/home/hkh/git/eapidk-code-r76-trunk/apps/EeePProg/linux/../BinFuncs.c ****     pcvBuffer=((uint8_t*)pcvBuffer)+1;
 1244              		.loc 1 49 5 view .LVU514
  50:/home/hkh/git/eapidk-code-r76-trunk/apps/EeePProg/linux/../BinFuncs.c ****   }
 1245              		.loc 1 50 5 view .LVU515
  48:/home/hkh/git/eapidk-code-r76-trunk/apps/EeePProg/linux/../BinFuncs.c ****     ChkSum+=(uint32_t)(*((uint8_t*)pcvBuffer));
 1246              		.loc 1 48 9 view .LVU516
  49:/home/hkh/git/eapidk-code-r76-trunk/apps/EeePProg/linux/../BinFuncs.c ****     pcvBuffer=((uint8_t*)pcvBuffer)+1;
 1247              		.loc 1 49 5 view .LVU517
  50:/home/hkh/git/eapidk-code-r76-trunk/apps/EeePProg/linux/../BinFuncs.c ****   }
 1248              		.loc 1 50 5 view .LVU518
  48:/home/hkh/git/eapidk-code-r76-trunk/apps/EeePProg/linux/../BinFuncs.c ****     ChkSum+=(uint32_t)(*((uint8_t*)pcvBuffer));
 1249              		.loc 1 48 9 view .LVU519
  49:/home/hkh/git/eapidk-code-r76-trunk/apps/EeePProg/linux/../BinFuncs.c ****     pcvBuffer=((uint8_t*)pcvBuffer)+1;
 1250              		.loc 1 49 5 view .LVU520
  50:/home/hkh/git/eapidk-code-r76-trunk/apps/EeePProg/linux/../BinFuncs.c ****   }
 1251              		.loc 1 50 5 view .LVU521
  48:/home/hkh/git/eapidk-code-r76-trunk/apps/EeePProg/linux/../BinFuncs.c ****     ChkSum+=(uint32_t)(*((uint8_t*)pcvBuffer));
 1252              		.loc 1 48 9 view .LVU522
  49:/home/hkh/git/eapidk-code-r76-trunk/apps/EeePProg/linux/../BinFuncs.c ****     pcvBuffer=((uint8_t*)pcvBuffer)+1;
 1253              		.loc 1 49 5 view .LVU523
  50:/home/hkh/git/eapidk-code-r76-trunk/apps/EeePProg/linux/../BinFuncs.c ****   }
 1254              		.loc 1 50 5 view .LVU524
ARM GAS  /tmp/ccf3bFwG.s 			page 42


  48:/home/hkh/git/eapidk-code-r76-trunk/apps/EeePProg/linux/../BinFuncs.c ****     ChkSum+=(uint32_t)(*((uint8_t*)pcvBuffer));
 1255              		.loc 1 48 9 view .LVU525
  49:/home/hkh/git/eapidk-code-r76-trunk/apps/EeePProg/linux/../BinFuncs.c ****     pcvBuffer=((uint8_t*)pcvBuffer)+1;
 1256              		.loc 1 49 5 view .LVU526
  50:/home/hkh/git/eapidk-code-r76-trunk/apps/EeePProg/linux/../BinFuncs.c ****   }
 1257              		.loc 1 50 5 view .LVU527
  48:/home/hkh/git/eapidk-code-r76-trunk/apps/EeePProg/linux/../BinFuncs.c ****     ChkSum+=(uint32_t)(*((uint8_t*)pcvBuffer));
 1258              		.loc 1 48 9 view .LVU528
  49:/home/hkh/git/eapidk-code-r76-trunk/apps/EeePProg/linux/../BinFuncs.c ****     pcvBuffer=((uint8_t*)pcvBuffer)+1;
 1259              		.loc 1 49 5 view .LVU529
  50:/home/hkh/git/eapidk-code-r76-trunk/apps/EeePProg/linux/../BinFuncs.c ****   }
 1260              		.loc 1 50 5 view .LVU530
  48:/home/hkh/git/eapidk-code-r76-trunk/apps/EeePProg/linux/../BinFuncs.c ****     ChkSum+=(uint32_t)(*((uint8_t*)pcvBuffer));
 1261              		.loc 1 48 9 view .LVU531
  49:/home/hkh/git/eapidk-code-r76-trunk/apps/EeePProg/linux/../BinFuncs.c ****     pcvBuffer=((uint8_t*)pcvBuffer)+1;
 1262              		.loc 1 49 5 view .LVU532
  49:/home/hkh/git/eapidk-code-r76-trunk/apps/EeePProg/linux/../BinFuncs.c ****     pcvBuffer=((uint8_t*)pcvBuffer)+1;
 1263              		.loc 1 49 13 is_stmt 0 view .LVU533
 1264 0510 202051E5 		ldrb	r2, [r1, #-32]	@ zero_extendqisi2
 1265 0514 02F0D1F5 		pld	[r1, #2]
 1266 0518 201081E2 		add	r1, r1, #32
 1267              	.LVL83:
  49:/home/hkh/git/eapidk-code-r76-trunk/apps/EeePProg/linux/../BinFuncs.c ****     pcvBuffer=((uint8_t*)pcvBuffer)+1;
 1268              		.loc 1 49 11 view .LVU534
 1269 051c 0E2082E0 		add	r2, r2, lr
  49:/home/hkh/git/eapidk-code-r76-trunk/apps/EeePProg/linux/../BinFuncs.c ****     pcvBuffer=((uint8_t*)pcvBuffer)+1;
 1270              		.loc 1 49 13 view .LVU535
 1271 0520 3EE051E5 		ldrb	lr, [r1, #-62]	@ zero_extendqisi2
  49:/home/hkh/git/eapidk-code-r76-trunk/apps/EeePProg/linux/../BinFuncs.c ****     pcvBuffer=((uint8_t*)pcvBuffer)+1;
 1272              		.loc 1 49 11 view .LVU536
 1273 0524 0E2082E0 		add	r2, r2, lr
  49:/home/hkh/git/eapidk-code-r76-trunk/apps/EeePProg/linux/../BinFuncs.c ****     pcvBuffer=((uint8_t*)pcvBuffer)+1;
 1274              		.loc 1 49 13 view .LVU537
 1275 0528 3DE051E5 		ldrb	lr, [r1, #-61]	@ zero_extendqisi2
  49:/home/hkh/git/eapidk-code-r76-trunk/apps/EeePProg/linux/../BinFuncs.c ****     pcvBuffer=((uint8_t*)pcvBuffer)+1;
 1276              		.loc 1 49 11 view .LVU538
 1277 052c 0E2082E0 		add	r2, r2, lr
  49:/home/hkh/git/eapidk-code-r76-trunk/apps/EeePProg/linux/../BinFuncs.c ****     pcvBuffer=((uint8_t*)pcvBuffer)+1;
 1278              		.loc 1 49 13 view .LVU539
 1279 0530 3CE051E5 		ldrb	lr, [r1, #-60]	@ zero_extendqisi2
  49:/home/hkh/git/eapidk-code-r76-trunk/apps/EeePProg/linux/../BinFuncs.c ****     pcvBuffer=((uint8_t*)pcvBuffer)+1;
 1280              		.loc 1 49 11 view .LVU540
 1281 0534 0E2082E0 		add	r2, r2, lr
  49:/home/hkh/git/eapidk-code-r76-trunk/apps/EeePProg/linux/../BinFuncs.c ****     pcvBuffer=((uint8_t*)pcvBuffer)+1;
 1282              		.loc 1 49 13 view .LVU541
 1283 0538 3BE051E5 		ldrb	lr, [r1, #-59]	@ zero_extendqisi2
  49:/home/hkh/git/eapidk-code-r76-trunk/apps/EeePProg/linux/../BinFuncs.c ****     pcvBuffer=((uint8_t*)pcvBuffer)+1;
 1284              		.loc 1 49 11 view .LVU542
 1285 053c 0E2082E0 		add	r2, r2, lr
  49:/home/hkh/git/eapidk-code-r76-trunk/apps/EeePProg/linux/../BinFuncs.c ****     pcvBuffer=((uint8_t*)pcvBuffer)+1;
 1286              		.loc 1 49 13 view .LVU543
 1287 0540 3AE051E5 		ldrb	lr, [r1, #-58]	@ zero_extendqisi2
  49:/home/hkh/git/eapidk-code-r76-trunk/apps/EeePProg/linux/../BinFuncs.c ****     pcvBuffer=((uint8_t*)pcvBuffer)+1;
 1288              		.loc 1 49 11 view .LVU544
 1289 0544 0E2082E0 		add	r2, r2, lr
  49:/home/hkh/git/eapidk-code-r76-trunk/apps/EeePProg/linux/../BinFuncs.c ****     pcvBuffer=((uint8_t*)pcvBuffer)+1;
 1290              		.loc 1 49 13 view .LVU545
ARM GAS  /tmp/ccf3bFwG.s 			page 43


 1291 0548 39E051E5 		ldrb	lr, [r1, #-57]	@ zero_extendqisi2
  49:/home/hkh/git/eapidk-code-r76-trunk/apps/EeePProg/linux/../BinFuncs.c ****     pcvBuffer=((uint8_t*)pcvBuffer)+1;
 1292              		.loc 1 49 11 view .LVU546
 1293 054c 0E2082E0 		add	r2, r2, lr
  49:/home/hkh/git/eapidk-code-r76-trunk/apps/EeePProg/linux/../BinFuncs.c ****     pcvBuffer=((uint8_t*)pcvBuffer)+1;
 1294              		.loc 1 49 13 view .LVU547
 1295 0550 38E051E5 		ldrb	lr, [r1, #-56]	@ zero_extendqisi2
  49:/home/hkh/git/eapidk-code-r76-trunk/apps/EeePProg/linux/../BinFuncs.c ****     pcvBuffer=((uint8_t*)pcvBuffer)+1;
 1296              		.loc 1 49 11 view .LVU548
 1297 0554 0E2082E0 		add	r2, r2, lr
  49:/home/hkh/git/eapidk-code-r76-trunk/apps/EeePProg/linux/../BinFuncs.c ****     pcvBuffer=((uint8_t*)pcvBuffer)+1;
 1298              		.loc 1 49 13 view .LVU549
 1299 0558 37E051E5 		ldrb	lr, [r1, #-55]	@ zero_extendqisi2
  49:/home/hkh/git/eapidk-code-r76-trunk/apps/EeePProg/linux/../BinFuncs.c ****     pcvBuffer=((uint8_t*)pcvBuffer)+1;
 1300              		.loc 1 49 11 view .LVU550
 1301 055c 0E2082E0 		add	r2, r2, lr
  49:/home/hkh/git/eapidk-code-r76-trunk/apps/EeePProg/linux/../BinFuncs.c ****     pcvBuffer=((uint8_t*)pcvBuffer)+1;
 1302              		.loc 1 49 13 view .LVU551
 1303 0560 36E051E5 		ldrb	lr, [r1, #-54]	@ zero_extendqisi2
  49:/home/hkh/git/eapidk-code-r76-trunk/apps/EeePProg/linux/../BinFuncs.c ****     pcvBuffer=((uint8_t*)pcvBuffer)+1;
 1304              		.loc 1 49 11 view .LVU552
 1305 0564 0E2082E0 		add	r2, r2, lr
  49:/home/hkh/git/eapidk-code-r76-trunk/apps/EeePProg/linux/../BinFuncs.c ****     pcvBuffer=((uint8_t*)pcvBuffer)+1;
 1306              		.loc 1 49 13 view .LVU553
 1307 0568 35E051E5 		ldrb	lr, [r1, #-53]	@ zero_extendqisi2
  49:/home/hkh/git/eapidk-code-r76-trunk/apps/EeePProg/linux/../BinFuncs.c ****     pcvBuffer=((uint8_t*)pcvBuffer)+1;
 1308              		.loc 1 49 11 view .LVU554
 1309 056c 0E2082E0 		add	r2, r2, lr
  49:/home/hkh/git/eapidk-code-r76-trunk/apps/EeePProg/linux/../BinFuncs.c ****     pcvBuffer=((uint8_t*)pcvBuffer)+1;
 1310              		.loc 1 49 13 view .LVU555
 1311 0570 34E051E5 		ldrb	lr, [r1, #-52]	@ zero_extendqisi2
  49:/home/hkh/git/eapidk-code-r76-trunk/apps/EeePProg/linux/../BinFuncs.c ****     pcvBuffer=((uint8_t*)pcvBuffer)+1;
 1312              		.loc 1 49 11 view .LVU556
 1313 0574 0E2082E0 		add	r2, r2, lr
  49:/home/hkh/git/eapidk-code-r76-trunk/apps/EeePProg/linux/../BinFuncs.c ****     pcvBuffer=((uint8_t*)pcvBuffer)+1;
 1314              		.loc 1 49 13 view .LVU557
 1315 0578 33E051E5 		ldrb	lr, [r1, #-51]	@ zero_extendqisi2
  49:/home/hkh/git/eapidk-code-r76-trunk/apps/EeePProg/linux/../BinFuncs.c ****     pcvBuffer=((uint8_t*)pcvBuffer)+1;
 1316              		.loc 1 49 11 view .LVU558
 1317 057c 0E2082E0 		add	r2, r2, lr
  49:/home/hkh/git/eapidk-code-r76-trunk/apps/EeePProg/linux/../BinFuncs.c ****     pcvBuffer=((uint8_t*)pcvBuffer)+1;
 1318              		.loc 1 49 13 view .LVU559
 1319 0580 32E051E5 		ldrb	lr, [r1, #-50]	@ zero_extendqisi2
  49:/home/hkh/git/eapidk-code-r76-trunk/apps/EeePProg/linux/../BinFuncs.c ****     pcvBuffer=((uint8_t*)pcvBuffer)+1;
 1320              		.loc 1 49 11 view .LVU560
 1321 0584 0E2082E0 		add	r2, r2, lr
  49:/home/hkh/git/eapidk-code-r76-trunk/apps/EeePProg/linux/../BinFuncs.c ****     pcvBuffer=((uint8_t*)pcvBuffer)+1;
 1322              		.loc 1 49 13 view .LVU561
 1323 0588 31E051E5 		ldrb	lr, [r1, #-49]	@ zero_extendqisi2
  49:/home/hkh/git/eapidk-code-r76-trunk/apps/EeePProg/linux/../BinFuncs.c ****     pcvBuffer=((uint8_t*)pcvBuffer)+1;
 1324              		.loc 1 49 11 view .LVU562
 1325 058c 0E2082E0 		add	r2, r2, lr
  49:/home/hkh/git/eapidk-code-r76-trunk/apps/EeePProg/linux/../BinFuncs.c ****     pcvBuffer=((uint8_t*)pcvBuffer)+1;
 1326              		.loc 1 49 13 view .LVU563
 1327 0590 30E051E5 		ldrb	lr, [r1, #-48]	@ zero_extendqisi2
  49:/home/hkh/git/eapidk-code-r76-trunk/apps/EeePProg/linux/../BinFuncs.c ****     pcvBuffer=((uint8_t*)pcvBuffer)+1;
 1328              		.loc 1 49 11 view .LVU564
ARM GAS  /tmp/ccf3bFwG.s 			page 44


 1329 0594 0E2082E0 		add	r2, r2, lr
  49:/home/hkh/git/eapidk-code-r76-trunk/apps/EeePProg/linux/../BinFuncs.c ****     pcvBuffer=((uint8_t*)pcvBuffer)+1;
 1330              		.loc 1 49 13 view .LVU565
 1331 0598 2FE051E5 		ldrb	lr, [r1, #-47]	@ zero_extendqisi2
  49:/home/hkh/git/eapidk-code-r76-trunk/apps/EeePProg/linux/../BinFuncs.c ****     pcvBuffer=((uint8_t*)pcvBuffer)+1;
 1332              		.loc 1 49 11 view .LVU566
 1333 059c 0E2082E0 		add	r2, r2, lr
  49:/home/hkh/git/eapidk-code-r76-trunk/apps/EeePProg/linux/../BinFuncs.c ****     pcvBuffer=((uint8_t*)pcvBuffer)+1;
 1334              		.loc 1 49 13 view .LVU567
 1335 05a0 2EE051E5 		ldrb	lr, [r1, #-46]	@ zero_extendqisi2
  49:/home/hkh/git/eapidk-code-r76-trunk/apps/EeePProg/linux/../BinFuncs.c ****     pcvBuffer=((uint8_t*)pcvBuffer)+1;
 1336              		.loc 1 49 11 view .LVU568
 1337 05a4 0E2082E0 		add	r2, r2, lr
  49:/home/hkh/git/eapidk-code-r76-trunk/apps/EeePProg/linux/../BinFuncs.c ****     pcvBuffer=((uint8_t*)pcvBuffer)+1;
 1338              		.loc 1 49 13 view .LVU569
 1339 05a8 2DE051E5 		ldrb	lr, [r1, #-45]	@ zero_extendqisi2
  49:/home/hkh/git/eapidk-code-r76-trunk/apps/EeePProg/linux/../BinFuncs.c ****     pcvBuffer=((uint8_t*)pcvBuffer)+1;
 1340              		.loc 1 49 11 view .LVU570
 1341 05ac 0E2082E0 		add	r2, r2, lr
  49:/home/hkh/git/eapidk-code-r76-trunk/apps/EeePProg/linux/../BinFuncs.c ****     pcvBuffer=((uint8_t*)pcvBuffer)+1;
 1342              		.loc 1 49 13 view .LVU571
 1343 05b0 2CE051E5 		ldrb	lr, [r1, #-44]	@ zero_extendqisi2
  49:/home/hkh/git/eapidk-code-r76-trunk/apps/EeePProg/linux/../BinFuncs.c ****     pcvBuffer=((uint8_t*)pcvBuffer)+1;
 1344              		.loc 1 49 11 view .LVU572
 1345 05b4 0E2082E0 		add	r2, r2, lr
  49:/home/hkh/git/eapidk-code-r76-trunk/apps/EeePProg/linux/../BinFuncs.c ****     pcvBuffer=((uint8_t*)pcvBuffer)+1;
 1346              		.loc 1 49 13 view .LVU573
 1347 05b8 2BE051E5 		ldrb	lr, [r1, #-43]	@ zero_extendqisi2
  49:/home/hkh/git/eapidk-code-r76-trunk/apps/EeePProg/linux/../BinFuncs.c ****     pcvBuffer=((uint8_t*)pcvBuffer)+1;
 1348              		.loc 1 49 11 view .LVU574
 1349 05bc 0E2082E0 		add	r2, r2, lr
  49:/home/hkh/git/eapidk-code-r76-trunk/apps/EeePProg/linux/../BinFuncs.c ****     pcvBuffer=((uint8_t*)pcvBuffer)+1;
 1350              		.loc 1 49 13 view .LVU575
 1351 05c0 2AE051E5 		ldrb	lr, [r1, #-42]	@ zero_extendqisi2
  49:/home/hkh/git/eapidk-code-r76-trunk/apps/EeePProg/linux/../BinFuncs.c ****     pcvBuffer=((uint8_t*)pcvBuffer)+1;
 1352              		.loc 1 49 11 view .LVU576
 1353 05c4 0E2082E0 		add	r2, r2, lr
  49:/home/hkh/git/eapidk-code-r76-trunk/apps/EeePProg/linux/../BinFuncs.c ****     pcvBuffer=((uint8_t*)pcvBuffer)+1;
 1354              		.loc 1 49 13 view .LVU577
 1355 05c8 29E051E5 		ldrb	lr, [r1, #-41]	@ zero_extendqisi2
  49:/home/hkh/git/eapidk-code-r76-trunk/apps/EeePProg/linux/../BinFuncs.c ****     pcvBuffer=((uint8_t*)pcvBuffer)+1;
 1356              		.loc 1 49 11 view .LVU578
 1357 05cc 0E2082E0 		add	r2, r2, lr
  49:/home/hkh/git/eapidk-code-r76-trunk/apps/EeePProg/linux/../BinFuncs.c ****     pcvBuffer=((uint8_t*)pcvBuffer)+1;
 1358              		.loc 1 49 13 view .LVU579
 1359 05d0 28E051E5 		ldrb	lr, [r1, #-40]	@ zero_extendqisi2
  49:/home/hkh/git/eapidk-code-r76-trunk/apps/EeePProg/linux/../BinFuncs.c ****     pcvBuffer=((uint8_t*)pcvBuffer)+1;
 1360              		.loc 1 49 11 view .LVU580
 1361 05d4 0E2082E0 		add	r2, r2, lr
  49:/home/hkh/git/eapidk-code-r76-trunk/apps/EeePProg/linux/../BinFuncs.c ****     pcvBuffer=((uint8_t*)pcvBuffer)+1;
 1362              		.loc 1 49 13 view .LVU581
 1363 05d8 27E051E5 		ldrb	lr, [r1, #-39]	@ zero_extendqisi2
  49:/home/hkh/git/eapidk-code-r76-trunk/apps/EeePProg/linux/../BinFuncs.c ****     pcvBuffer=((uint8_t*)pcvBuffer)+1;
 1364              		.loc 1 49 11 view .LVU582
 1365 05dc 0E2082E0 		add	r2, r2, lr
  49:/home/hkh/git/eapidk-code-r76-trunk/apps/EeePProg/linux/../BinFuncs.c ****     pcvBuffer=((uint8_t*)pcvBuffer)+1;
 1366              		.loc 1 49 13 view .LVU583
ARM GAS  /tmp/ccf3bFwG.s 			page 45


 1367 05e0 26E051E5 		ldrb	lr, [r1, #-38]	@ zero_extendqisi2
  49:/home/hkh/git/eapidk-code-r76-trunk/apps/EeePProg/linux/../BinFuncs.c ****     pcvBuffer=((uint8_t*)pcvBuffer)+1;
 1368              		.loc 1 49 11 view .LVU584
 1369 05e4 0E2082E0 		add	r2, r2, lr
  49:/home/hkh/git/eapidk-code-r76-trunk/apps/EeePProg/linux/../BinFuncs.c ****     pcvBuffer=((uint8_t*)pcvBuffer)+1;
 1370              		.loc 1 49 13 view .LVU585
 1371 05e8 25E051E5 		ldrb	lr, [r1, #-37]	@ zero_extendqisi2
  49:/home/hkh/git/eapidk-code-r76-trunk/apps/EeePProg/linux/../BinFuncs.c ****     pcvBuffer=((uint8_t*)pcvBuffer)+1;
 1372              		.loc 1 49 11 view .LVU586
 1373 05ec 0E2082E0 		add	r2, r2, lr
  49:/home/hkh/git/eapidk-code-r76-trunk/apps/EeePProg/linux/../BinFuncs.c ****     pcvBuffer=((uint8_t*)pcvBuffer)+1;
 1374              		.loc 1 49 13 view .LVU587
 1375 05f0 24E051E5 		ldrb	lr, [r1, #-36]	@ zero_extendqisi2
  49:/home/hkh/git/eapidk-code-r76-trunk/apps/EeePProg/linux/../BinFuncs.c ****     pcvBuffer=((uint8_t*)pcvBuffer)+1;
 1376              		.loc 1 49 11 view .LVU588
 1377 05f4 0E2082E0 		add	r2, r2, lr
  49:/home/hkh/git/eapidk-code-r76-trunk/apps/EeePProg/linux/../BinFuncs.c ****     pcvBuffer=((uint8_t*)pcvBuffer)+1;
 1378              		.loc 1 49 13 view .LVU589
 1379 05f8 23E051E5 		ldrb	lr, [r1, #-35]	@ zero_extendqisi2
  49:/home/hkh/git/eapidk-code-r76-trunk/apps/EeePProg/linux/../BinFuncs.c ****     pcvBuffer=((uint8_t*)pcvBuffer)+1;
 1380              		.loc 1 49 11 view .LVU590
 1381 05fc 0E2082E0 		add	r2, r2, lr
  49:/home/hkh/git/eapidk-code-r76-trunk/apps/EeePProg/linux/../BinFuncs.c ****     pcvBuffer=((uint8_t*)pcvBuffer)+1;
 1382              		.loc 1 49 13 view .LVU591
 1383 0600 22E051E5 		ldrb	lr, [r1, #-34]	@ zero_extendqisi2
  49:/home/hkh/git/eapidk-code-r76-trunk/apps/EeePProg/linux/../BinFuncs.c ****     pcvBuffer=((uint8_t*)pcvBuffer)+1;
 1384              		.loc 1 49 11 view .LVU592
 1385 0604 0E2082E0 		add	r2, r2, lr
  49:/home/hkh/git/eapidk-code-r76-trunk/apps/EeePProg/linux/../BinFuncs.c ****     pcvBuffer=((uint8_t*)pcvBuffer)+1;
 1386              		.loc 1 49 13 view .LVU593
 1387 0608 21E051E5 		ldrb	lr, [r1, #-33]	@ zero_extendqisi2
  49:/home/hkh/git/eapidk-code-r76-trunk/apps/EeePProg/linux/../BinFuncs.c ****     pcvBuffer=((uint8_t*)pcvBuffer)+1;
 1388              		.loc 1 49 11 view .LVU594
 1389 060c 0E2082E0 		add	r2, r2, lr
 1390 0610 023083E0 		add	r3, r3, r2
 1391              	.LVL84:
  50:/home/hkh/git/eapidk-code-r76-trunk/apps/EeePProg/linux/../BinFuncs.c ****   }
 1392              		.loc 1 50 5 is_stmt 1 view .LVU595
  48:/home/hkh/git/eapidk-code-r76-trunk/apps/EeePProg/linux/../BinFuncs.c ****     ChkSum+=(uint32_t)(*((uint8_t*)pcvBuffer));
 1393              		.loc 1 48 9 view .LVU596
  48:/home/hkh/git/eapidk-code-r76-trunk/apps/EeePProg/linux/../BinFuncs.c ****     ChkSum+=(uint32_t)(*((uint8_t*)pcvBuffer));
 1394              		.loc 1 48 9 is_stmt 0 view .LVU597
 1395 0614 B9FFFF8A 		bhi	.L96
 1396 0618 01108CE2 		add	r1, ip, #1
 1397 061c 011080E0 		add	r1, r0, r1
 1398              	.L97:
 1399              	.LVL85:
  49:/home/hkh/git/eapidk-code-r76-trunk/apps/EeePProg/linux/../BinFuncs.c ****     pcvBuffer=((uint8_t*)pcvBuffer)+1;
 1400              		.loc 1 49 5 is_stmt 1 view .LVU598
  49:/home/hkh/git/eapidk-code-r76-trunk/apps/EeePProg/linux/../BinFuncs.c ****     pcvBuffer=((uint8_t*)pcvBuffer)+1;
 1401              		.loc 1 49 13 is_stmt 0 view .LVU599
 1402 0620 0120D0E4 		ldrb	r2, [r0], #1	@ zero_extendqisi2
 1403              	.LVL86:
  48:/home/hkh/git/eapidk-code-r76-trunk/apps/EeePProg/linux/../BinFuncs.c ****     ChkSum+=(uint32_t)(*((uint8_t*)pcvBuffer));
 1404              		.loc 1 48 9 view .LVU600
 1405 0624 010050E1 		cmp	r0, r1
  49:/home/hkh/git/eapidk-code-r76-trunk/apps/EeePProg/linux/../BinFuncs.c ****     pcvBuffer=((uint8_t*)pcvBuffer)+1;
ARM GAS  /tmp/ccf3bFwG.s 			page 46


 1406              		.loc 1 49 11 view .LVU601
 1407 0628 023083E0 		add	r3, r3, r2
 1408              	.LVL87:
  50:/home/hkh/git/eapidk-code-r76-trunk/apps/EeePProg/linux/../BinFuncs.c ****   }
 1409              		.loc 1 50 5 is_stmt 1 view .LVU602
  48:/home/hkh/git/eapidk-code-r76-trunk/apps/EeePProg/linux/../BinFuncs.c ****     ChkSum+=(uint32_t)(*((uint8_t*)pcvBuffer));
 1410              		.loc 1 48 9 view .LVU603
  48:/home/hkh/git/eapidk-code-r76-trunk/apps/EeePProg/linux/../BinFuncs.c ****     ChkSum+=(uint32_t)(*((uint8_t*)pcvBuffer));
 1411              		.loc 1 48 9 is_stmt 0 view .LVU604
 1412 062c FBFFFF1A 		bne	.L97
 1413              	.LBE72:
 1414              	.LBE76:
  60:/home/hkh/git/eapidk-code-r76-trunk/apps/EeePProg/linux/../BinFuncs.c **** }
 1415              		.loc 1 60 10 view .LVU605
 1416 0630 7300FFE6 		uxth	r0, r3
 1417              	.LVL88:
 1418              	.LBB77:
 1419              	.LBB73:
  52:/home/hkh/git/eapidk-code-r76-trunk/apps/EeePProg/linux/../BinFuncs.c **** }
 1420              		.loc 1 52 3 is_stmt 1 view .LVU606
  52:/home/hkh/git/eapidk-code-r76-trunk/apps/EeePProg/linux/../BinFuncs.c **** }
 1421              		.loc 1 52 3 is_stmt 0 view .LVU607
 1422              	.LBE73:
 1423              	.LBE77:
  61:/home/hkh/git/eapidk-code-r76-trunk/apps/EeePProg/linux/../BinFuncs.c **** uint8_t  
 1424              		.loc 1 61 1 view .LVU608
 1425 0634 04F09DE4 		ldr	pc, [sp], #4
 1426              	.LVL89:
 1427              	.L98:
 1428              		.cfi_def_cfa_offset 0
 1429              		.cfi_restore 14
 1430              	.LBB78:
 1431              	.LBB74:
  48:/home/hkh/git/eapidk-code-r76-trunk/apps/EeePProg/linux/../BinFuncs.c ****     ChkSum+=(uint32_t)(*((uint8_t*)pcvBuffer));
 1432              		.loc 1 48 9 view .LVU609
 1433 0638 0100A0E1 		mov	r0, r1
 1434              	.LVL90:
  48:/home/hkh/git/eapidk-code-r76-trunk/apps/EeePProg/linux/../BinFuncs.c ****     ChkSum+=(uint32_t)(*((uint8_t*)pcvBuffer));
 1435              		.loc 1 48 9 view .LVU610
 1436 063c 1EFF2FE1 		bx	lr
 1437              	.LVL91:
 1438              	.L99:
  48:/home/hkh/git/eapidk-code-r76-trunk/apps/EeePProg/linux/../BinFuncs.c ****     ChkSum+=(uint32_t)(*((uint8_t*)pcvBuffer));
 1439              		.loc 1 48 9 view .LVU611
 1440 0640 01108CE2 		add	r1, ip, #1
 1441              	.LVL92:
  48:/home/hkh/git/eapidk-code-r76-trunk/apps/EeePProg/linux/../BinFuncs.c ****     ChkSum+=(uint32_t)(*((uint8_t*)pcvBuffer));
 1442              		.loc 1 48 9 view .LVU612
 1443 0644 0030A0E3 		mov	r3, #0
 1444 0648 011080E0 		add	r1, r0, r1
 1445              	.LVL93:
 1446              	.L104:
  49:/home/hkh/git/eapidk-code-r76-trunk/apps/EeePProg/linux/../BinFuncs.c ****     pcvBuffer=((uint8_t*)pcvBuffer)+1;
 1447              		.loc 1 49 5 is_stmt 1 view .LVU613
  49:/home/hkh/git/eapidk-code-r76-trunk/apps/EeePProg/linux/../BinFuncs.c ****     pcvBuffer=((uint8_t*)pcvBuffer)+1;
 1448              		.loc 1 49 13 is_stmt 0 view .LVU614
 1449 064c 0120D0E4 		ldrb	r2, [r0], #1	@ zero_extendqisi2
ARM GAS  /tmp/ccf3bFwG.s 			page 47


 1450              	.LVL94:
  48:/home/hkh/git/eapidk-code-r76-trunk/apps/EeePProg/linux/../BinFuncs.c ****     ChkSum+=(uint32_t)(*((uint8_t*)pcvBuffer));
 1451              		.loc 1 48 9 view .LVU615
 1452 0650 010050E1 		cmp	r0, r1
  49:/home/hkh/git/eapidk-code-r76-trunk/apps/EeePProg/linux/../BinFuncs.c ****     pcvBuffer=((uint8_t*)pcvBuffer)+1;
 1453              		.loc 1 49 11 view .LVU616
 1454 0654 023083E0 		add	r3, r3, r2
 1455              	.LVL95:
  50:/home/hkh/git/eapidk-code-r76-trunk/apps/EeePProg/linux/../BinFuncs.c ****   }
 1456              		.loc 1 50 5 is_stmt 1 view .LVU617
  48:/home/hkh/git/eapidk-code-r76-trunk/apps/EeePProg/linux/../BinFuncs.c ****     ChkSum+=(uint32_t)(*((uint8_t*)pcvBuffer));
 1457              		.loc 1 48 9 view .LVU618
  48:/home/hkh/git/eapidk-code-r76-trunk/apps/EeePProg/linux/../BinFuncs.c ****     ChkSum+=(uint32_t)(*((uint8_t*)pcvBuffer));
 1458              		.loc 1 48 9 is_stmt 0 view .LVU619
 1459 0658 FBFFFF1A 		bne	.L104
 1460              	.LBE74:
 1461              	.LBE78:
  60:/home/hkh/git/eapidk-code-r76-trunk/apps/EeePProg/linux/../BinFuncs.c **** }
 1462              		.loc 1 60 10 view .LVU620
 1463 065c 7300FFE6 		uxth	r0, r3
 1464              	.LVL96:
 1465              	.LBB79:
 1466              	.LBB75:
  52:/home/hkh/git/eapidk-code-r76-trunk/apps/EeePProg/linux/../BinFuncs.c **** }
 1467              		.loc 1 52 3 is_stmt 1 view .LVU621
  52:/home/hkh/git/eapidk-code-r76-trunk/apps/EeePProg/linux/../BinFuncs.c **** }
 1468              		.loc 1 52 3 is_stmt 0 view .LVU622
 1469              	.LBE75:
 1470              	.LBE79:
  61:/home/hkh/git/eapidk-code-r76-trunk/apps/EeePProg/linux/../BinFuncs.c **** uint8_t  
 1471              		.loc 1 61 1 view .LVU623
 1472 0660 1EFF2FE1 		bx	lr
 1473              		.cfi_endproc
 1474              	.LFE2:
 1476              		.align	2
 1477              		.global	u8ChecksumBlock
 1478              		.syntax unified
 1479              		.arm
 1480              		.fpu vfpv3
 1482              	u8ChecksumBlock:
 1483              	.LVL97:
 1484              	.LFB3:
  67:/home/hkh/git/eapidk-code-r76-trunk/apps/EeePProg/linux/../BinFuncs.c ****   return EEEP_LO_UINT8(u32ChecksumBlock(pcvBuffer, stLength));
 1485              		.loc 1 67 1 is_stmt 1 view -0
 1486              		.cfi_startproc
 1487              		@ args = 0, pretend = 0, frame = 0
 1488              		@ frame_needed = 0, uses_anonymous_args = 0
  68:/home/hkh/git/eapidk-code-r76-trunk/apps/EeePProg/linux/../BinFuncs.c **** }
 1489              		.loc 1 68 3 view .LVU625
 1490              	.LBB80:
 1491              	.LBI80:
  42:/home/hkh/git/eapidk-code-r76-trunk/apps/EeePProg/linux/../BinFuncs.c **** 	const void *pcvBuffer, 
 1492              		.loc 1 42 1 view .LVU626
 1493              	.LBB81:
  47:/home/hkh/git/eapidk-code-r76-trunk/apps/EeePProg/linux/../BinFuncs.c ****   while(stLength--){
 1494              		.loc 1 47 3 view .LVU627
  48:/home/hkh/git/eapidk-code-r76-trunk/apps/EeePProg/linux/../BinFuncs.c ****     ChkSum+=(uint32_t)(*((uint8_t*)pcvBuffer));
ARM GAS  /tmp/ccf3bFwG.s 			page 48


 1495              		.loc 1 48 3 view .LVU628
  48:/home/hkh/git/eapidk-code-r76-trunk/apps/EeePProg/linux/../BinFuncs.c ****     ChkSum+=(uint32_t)(*((uint8_t*)pcvBuffer));
 1496              		.loc 1 48 9 view .LVU629
 1497 0664 000051E3 		cmp	r1, #0
 1498              	.LVL98:
  48:/home/hkh/git/eapidk-code-r76-trunk/apps/EeePProg/linux/../BinFuncs.c ****     ChkSum+=(uint32_t)(*((uint8_t*)pcvBuffer));
 1499              		.loc 1 48 9 is_stmt 0 view .LVU630
 1500 0668 5300000A 		beq	.L114
 1501 066c 01C041E2 		sub	ip, r1, #1
 1502              	.LVL99:
  48:/home/hkh/git/eapidk-code-r76-trunk/apps/EeePProg/linux/../BinFuncs.c ****     ChkSum+=(uint32_t)(*((uint8_t*)pcvBuffer));
 1503              		.loc 1 48 9 view .LVU631
 1504 0670 1F005CE3 		cmp	ip, #31
 1505 0674 5200009A 		bls	.L115
 1506 0678 201080E2 		add	r1, r0, #32
 1507              	.LVL100:
  47:/home/hkh/git/eapidk-code-r76-trunk/apps/EeePProg/linux/../BinFuncs.c ****   while(stLength--){
 1508              		.loc 1 47 12 view .LVU632
 1509 067c 0030A0E3 		mov	r3, #0
 1510              	.LBE81:
 1511              	.LBE80:
  67:/home/hkh/git/eapidk-code-r76-trunk/apps/EeePProg/linux/../BinFuncs.c ****   return EEEP_LO_UINT8(u32ChecksumBlock(pcvBuffer, stLength));
 1512              		.loc 1 67 1 view .LVU633
 1513 0680 04E02DE5 		str	lr, [sp, #-4]!
 1514              		.cfi_def_cfa_offset 4
 1515              		.cfi_offset 14, -4
 1516              	.LVL101:
 1517              	.L112:
 1518              	.LBB86:
 1519              	.LBB82:
  49:/home/hkh/git/eapidk-code-r76-trunk/apps/EeePProg/linux/../BinFuncs.c ****     pcvBuffer=((uint8_t*)pcvBuffer)+1;
 1520              		.loc 1 49 5 is_stmt 1 view .LVU634
  49:/home/hkh/git/eapidk-code-r76-trunk/apps/EeePProg/linux/../BinFuncs.c ****     pcvBuffer=((uint8_t*)pcvBuffer)+1;
 1521              		.loc 1 49 13 is_stmt 0 view .LVU635
 1522 0684 1FE051E5 		ldrb	lr, [r1, #-31]	@ zero_extendqisi2
  48:/home/hkh/git/eapidk-code-r76-trunk/apps/EeePProg/linux/../BinFuncs.c ****     ChkSum+=(uint32_t)(*((uint8_t*)pcvBuffer));
 1523              		.loc 1 48 17 view .LVU636
 1524 0688 20C04CE2 		sub	ip, ip, #32
 1525 068c 1F005CE3 		cmp	ip, #31
 1526 0690 0100A0E1 		mov	r0, r1
 1527              	.LVL102:
  50:/home/hkh/git/eapidk-code-r76-trunk/apps/EeePProg/linux/../BinFuncs.c ****   }
 1528              		.loc 1 50 5 is_stmt 1 view .LVU637
  48:/home/hkh/git/eapidk-code-r76-trunk/apps/EeePProg/linux/../BinFuncs.c ****     ChkSum+=(uint32_t)(*((uint8_t*)pcvBuffer));
 1529              		.loc 1 48 9 view .LVU638
  49:/home/hkh/git/eapidk-code-r76-trunk/apps/EeePProg/linux/../BinFuncs.c ****     pcvBuffer=((uint8_t*)pcvBuffer)+1;
 1530              		.loc 1 49 5 view .LVU639
  50:/home/hkh/git/eapidk-code-r76-trunk/apps/EeePProg/linux/../BinFuncs.c ****   }
 1531              		.loc 1 50 5 view .LVU640
  48:/home/hkh/git/eapidk-code-r76-trunk/apps/EeePProg/linux/../BinFuncs.c ****     ChkSum+=(uint32_t)(*((uint8_t*)pcvBuffer));
 1532              		.loc 1 48 9 view .LVU641
  49:/home/hkh/git/eapidk-code-r76-trunk/apps/EeePProg/linux/../BinFuncs.c ****     pcvBuffer=((uint8_t*)pcvBuffer)+1;
 1533              		.loc 1 49 5 view .LVU642
  50:/home/hkh/git/eapidk-code-r76-trunk/apps/EeePProg/linux/../BinFuncs.c ****   }
 1534              		.loc 1 50 5 view .LVU643
  48:/home/hkh/git/eapidk-code-r76-trunk/apps/EeePProg/linux/../BinFuncs.c ****     ChkSum+=(uint32_t)(*((uint8_t*)pcvBuffer));
 1535              		.loc 1 48 9 view .LVU644
ARM GAS  /tmp/ccf3bFwG.s 			page 49


  49:/home/hkh/git/eapidk-code-r76-trunk/apps/EeePProg/linux/../BinFuncs.c ****     pcvBuffer=((uint8_t*)pcvBuffer)+1;
 1536              		.loc 1 49 5 view .LVU645
  50:/home/hkh/git/eapidk-code-r76-trunk/apps/EeePProg/linux/../BinFuncs.c ****   }
 1537              		.loc 1 50 5 view .LVU646
  48:/home/hkh/git/eapidk-code-r76-trunk/apps/EeePProg/linux/../BinFuncs.c ****     ChkSum+=(uint32_t)(*((uint8_t*)pcvBuffer));
 1538              		.loc 1 48 9 view .LVU647
  49:/home/hkh/git/eapidk-code-r76-trunk/apps/EeePProg/linux/../BinFuncs.c ****     pcvBuffer=((uint8_t*)pcvBuffer)+1;
 1539              		.loc 1 49 5 view .LVU648
  50:/home/hkh/git/eapidk-code-r76-trunk/apps/EeePProg/linux/../BinFuncs.c ****   }
 1540              		.loc 1 50 5 view .LVU649
  48:/home/hkh/git/eapidk-code-r76-trunk/apps/EeePProg/linux/../BinFuncs.c ****     ChkSum+=(uint32_t)(*((uint8_t*)pcvBuffer));
 1541              		.loc 1 48 9 view .LVU650
  49:/home/hkh/git/eapidk-code-r76-trunk/apps/EeePProg/linux/../BinFuncs.c ****     pcvBuffer=((uint8_t*)pcvBuffer)+1;
 1542              		.loc 1 49 5 view .LVU651
  50:/home/hkh/git/eapidk-code-r76-trunk/apps/EeePProg/linux/../BinFuncs.c ****   }
 1543              		.loc 1 50 5 view .LVU652
  48:/home/hkh/git/eapidk-code-r76-trunk/apps/EeePProg/linux/../BinFuncs.c ****     ChkSum+=(uint32_t)(*((uint8_t*)pcvBuffer));
 1544              		.loc 1 48 9 view .LVU653
  49:/home/hkh/git/eapidk-code-r76-trunk/apps/EeePProg/linux/../BinFuncs.c ****     pcvBuffer=((uint8_t*)pcvBuffer)+1;
 1545              		.loc 1 49 5 view .LVU654
  50:/home/hkh/git/eapidk-code-r76-trunk/apps/EeePProg/linux/../BinFuncs.c ****   }
 1546              		.loc 1 50 5 view .LVU655
  48:/home/hkh/git/eapidk-code-r76-trunk/apps/EeePProg/linux/../BinFuncs.c ****     ChkSum+=(uint32_t)(*((uint8_t*)pcvBuffer));
 1547              		.loc 1 48 9 view .LVU656
  49:/home/hkh/git/eapidk-code-r76-trunk/apps/EeePProg/linux/../BinFuncs.c ****     pcvBuffer=((uint8_t*)pcvBuffer)+1;
 1548              		.loc 1 49 5 view .LVU657
  50:/home/hkh/git/eapidk-code-r76-trunk/apps/EeePProg/linux/../BinFuncs.c ****   }
 1549              		.loc 1 50 5 view .LVU658
  48:/home/hkh/git/eapidk-code-r76-trunk/apps/EeePProg/linux/../BinFuncs.c ****     ChkSum+=(uint32_t)(*((uint8_t*)pcvBuffer));
 1550              		.loc 1 48 9 view .LVU659
  49:/home/hkh/git/eapidk-code-r76-trunk/apps/EeePProg/linux/../BinFuncs.c ****     pcvBuffer=((uint8_t*)pcvBuffer)+1;
 1551              		.loc 1 49 5 view .LVU660
  50:/home/hkh/git/eapidk-code-r76-trunk/apps/EeePProg/linux/../BinFuncs.c ****   }
 1552              		.loc 1 50 5 view .LVU661
  48:/home/hkh/git/eapidk-code-r76-trunk/apps/EeePProg/linux/../BinFuncs.c ****     ChkSum+=(uint32_t)(*((uint8_t*)pcvBuffer));
 1553              		.loc 1 48 9 view .LVU662
  49:/home/hkh/git/eapidk-code-r76-trunk/apps/EeePProg/linux/../BinFuncs.c ****     pcvBuffer=((uint8_t*)pcvBuffer)+1;
 1554              		.loc 1 49 5 view .LVU663
  50:/home/hkh/git/eapidk-code-r76-trunk/apps/EeePProg/linux/../BinFuncs.c ****   }
 1555              		.loc 1 50 5 view .LVU664
  48:/home/hkh/git/eapidk-code-r76-trunk/apps/EeePProg/linux/../BinFuncs.c ****     ChkSum+=(uint32_t)(*((uint8_t*)pcvBuffer));
 1556              		.loc 1 48 9 view .LVU665
  49:/home/hkh/git/eapidk-code-r76-trunk/apps/EeePProg/linux/../BinFuncs.c ****     pcvBuffer=((uint8_t*)pcvBuffer)+1;
 1557              		.loc 1 49 5 view .LVU666
  50:/home/hkh/git/eapidk-code-r76-trunk/apps/EeePProg/linux/../BinFuncs.c ****   }
 1558              		.loc 1 50 5 view .LVU667
  48:/home/hkh/git/eapidk-code-r76-trunk/apps/EeePProg/linux/../BinFuncs.c ****     ChkSum+=(uint32_t)(*((uint8_t*)pcvBuffer));
 1559              		.loc 1 48 9 view .LVU668
  49:/home/hkh/git/eapidk-code-r76-trunk/apps/EeePProg/linux/../BinFuncs.c ****     pcvBuffer=((uint8_t*)pcvBuffer)+1;
 1560              		.loc 1 49 5 view .LVU669
  50:/home/hkh/git/eapidk-code-r76-trunk/apps/EeePProg/linux/../BinFuncs.c ****   }
 1561              		.loc 1 50 5 view .LVU670
  48:/home/hkh/git/eapidk-code-r76-trunk/apps/EeePProg/linux/../BinFuncs.c ****     ChkSum+=(uint32_t)(*((uint8_t*)pcvBuffer));
 1562              		.loc 1 48 9 view .LVU671
  49:/home/hkh/git/eapidk-code-r76-trunk/apps/EeePProg/linux/../BinFuncs.c ****     pcvBuffer=((uint8_t*)pcvBuffer)+1;
 1563              		.loc 1 49 5 view .LVU672
  50:/home/hkh/git/eapidk-code-r76-trunk/apps/EeePProg/linux/../BinFuncs.c ****   }
ARM GAS  /tmp/ccf3bFwG.s 			page 50


 1564              		.loc 1 50 5 view .LVU673
  48:/home/hkh/git/eapidk-code-r76-trunk/apps/EeePProg/linux/../BinFuncs.c ****     ChkSum+=(uint32_t)(*((uint8_t*)pcvBuffer));
 1565              		.loc 1 48 9 view .LVU674
  49:/home/hkh/git/eapidk-code-r76-trunk/apps/EeePProg/linux/../BinFuncs.c ****     pcvBuffer=((uint8_t*)pcvBuffer)+1;
 1566              		.loc 1 49 5 view .LVU675
  50:/home/hkh/git/eapidk-code-r76-trunk/apps/EeePProg/linux/../BinFuncs.c ****   }
 1567              		.loc 1 50 5 view .LVU676
  48:/home/hkh/git/eapidk-code-r76-trunk/apps/EeePProg/linux/../BinFuncs.c ****     ChkSum+=(uint32_t)(*((uint8_t*)pcvBuffer));
 1568              		.loc 1 48 9 view .LVU677
  49:/home/hkh/git/eapidk-code-r76-trunk/apps/EeePProg/linux/../BinFuncs.c ****     pcvBuffer=((uint8_t*)pcvBuffer)+1;
 1569              		.loc 1 49 5 view .LVU678
  50:/home/hkh/git/eapidk-code-r76-trunk/apps/EeePProg/linux/../BinFuncs.c ****   }
 1570              		.loc 1 50 5 view .LVU679
  48:/home/hkh/git/eapidk-code-r76-trunk/apps/EeePProg/linux/../BinFuncs.c ****     ChkSum+=(uint32_t)(*((uint8_t*)pcvBuffer));
 1571              		.loc 1 48 9 view .LVU680
  49:/home/hkh/git/eapidk-code-r76-trunk/apps/EeePProg/linux/../BinFuncs.c ****     pcvBuffer=((uint8_t*)pcvBuffer)+1;
 1572              		.loc 1 49 5 view .LVU681
  50:/home/hkh/git/eapidk-code-r76-trunk/apps/EeePProg/linux/../BinFuncs.c ****   }
 1573              		.loc 1 50 5 view .LVU682
  48:/home/hkh/git/eapidk-code-r76-trunk/apps/EeePProg/linux/../BinFuncs.c ****     ChkSum+=(uint32_t)(*((uint8_t*)pcvBuffer));
 1574              		.loc 1 48 9 view .LVU683
  49:/home/hkh/git/eapidk-code-r76-trunk/apps/EeePProg/linux/../BinFuncs.c ****     pcvBuffer=((uint8_t*)pcvBuffer)+1;
 1575              		.loc 1 49 5 view .LVU684
  50:/home/hkh/git/eapidk-code-r76-trunk/apps/EeePProg/linux/../BinFuncs.c ****   }
 1576              		.loc 1 50 5 view .LVU685
  48:/home/hkh/git/eapidk-code-r76-trunk/apps/EeePProg/linux/../BinFuncs.c ****     ChkSum+=(uint32_t)(*((uint8_t*)pcvBuffer));
 1577              		.loc 1 48 9 view .LVU686
  49:/home/hkh/git/eapidk-code-r76-trunk/apps/EeePProg/linux/../BinFuncs.c ****     pcvBuffer=((uint8_t*)pcvBuffer)+1;
 1578              		.loc 1 49 5 view .LVU687
  50:/home/hkh/git/eapidk-code-r76-trunk/apps/EeePProg/linux/../BinFuncs.c ****   }
 1579              		.loc 1 50 5 view .LVU688
  48:/home/hkh/git/eapidk-code-r76-trunk/apps/EeePProg/linux/../BinFuncs.c ****     ChkSum+=(uint32_t)(*((uint8_t*)pcvBuffer));
 1580              		.loc 1 48 9 view .LVU689
  49:/home/hkh/git/eapidk-code-r76-trunk/apps/EeePProg/linux/../BinFuncs.c ****     pcvBuffer=((uint8_t*)pcvBuffer)+1;
 1581              		.loc 1 49 5 view .LVU690
  50:/home/hkh/git/eapidk-code-r76-trunk/apps/EeePProg/linux/../BinFuncs.c ****   }
 1582              		.loc 1 50 5 view .LVU691
  48:/home/hkh/git/eapidk-code-r76-trunk/apps/EeePProg/linux/../BinFuncs.c ****     ChkSum+=(uint32_t)(*((uint8_t*)pcvBuffer));
 1583              		.loc 1 48 9 view .LVU692
  49:/home/hkh/git/eapidk-code-r76-trunk/apps/EeePProg/linux/../BinFuncs.c ****     pcvBuffer=((uint8_t*)pcvBuffer)+1;
 1584              		.loc 1 49 5 view .LVU693
  50:/home/hkh/git/eapidk-code-r76-trunk/apps/EeePProg/linux/../BinFuncs.c ****   }
 1585              		.loc 1 50 5 view .LVU694
  48:/home/hkh/git/eapidk-code-r76-trunk/apps/EeePProg/linux/../BinFuncs.c ****     ChkSum+=(uint32_t)(*((uint8_t*)pcvBuffer));
 1586              		.loc 1 48 9 view .LVU695
  49:/home/hkh/git/eapidk-code-r76-trunk/apps/EeePProg/linux/../BinFuncs.c ****     pcvBuffer=((uint8_t*)pcvBuffer)+1;
 1587              		.loc 1 49 5 view .LVU696
  50:/home/hkh/git/eapidk-code-r76-trunk/apps/EeePProg/linux/../BinFuncs.c ****   }
 1588              		.loc 1 50 5 view .LVU697
  48:/home/hkh/git/eapidk-code-r76-trunk/apps/EeePProg/linux/../BinFuncs.c ****     ChkSum+=(uint32_t)(*((uint8_t*)pcvBuffer));
 1589              		.loc 1 48 9 view .LVU698
  49:/home/hkh/git/eapidk-code-r76-trunk/apps/EeePProg/linux/../BinFuncs.c ****     pcvBuffer=((uint8_t*)pcvBuffer)+1;
 1590              		.loc 1 49 5 view .LVU699
  50:/home/hkh/git/eapidk-code-r76-trunk/apps/EeePProg/linux/../BinFuncs.c ****   }
 1591              		.loc 1 50 5 view .LVU700
  48:/home/hkh/git/eapidk-code-r76-trunk/apps/EeePProg/linux/../BinFuncs.c ****     ChkSum+=(uint32_t)(*((uint8_t*)pcvBuffer));
 1592              		.loc 1 48 9 view .LVU701
ARM GAS  /tmp/ccf3bFwG.s 			page 51


  49:/home/hkh/git/eapidk-code-r76-trunk/apps/EeePProg/linux/../BinFuncs.c ****     pcvBuffer=((uint8_t*)pcvBuffer)+1;
 1593              		.loc 1 49 5 view .LVU702
  50:/home/hkh/git/eapidk-code-r76-trunk/apps/EeePProg/linux/../BinFuncs.c ****   }
 1594              		.loc 1 50 5 view .LVU703
  48:/home/hkh/git/eapidk-code-r76-trunk/apps/EeePProg/linux/../BinFuncs.c ****     ChkSum+=(uint32_t)(*((uint8_t*)pcvBuffer));
 1595              		.loc 1 48 9 view .LVU704
  49:/home/hkh/git/eapidk-code-r76-trunk/apps/EeePProg/linux/../BinFuncs.c ****     pcvBuffer=((uint8_t*)pcvBuffer)+1;
 1596              		.loc 1 49 5 view .LVU705
  50:/home/hkh/git/eapidk-code-r76-trunk/apps/EeePProg/linux/../BinFuncs.c ****   }
 1597              		.loc 1 50 5 view .LVU706
  48:/home/hkh/git/eapidk-code-r76-trunk/apps/EeePProg/linux/../BinFuncs.c ****     ChkSum+=(uint32_t)(*((uint8_t*)pcvBuffer));
 1598              		.loc 1 48 9 view .LVU707
  49:/home/hkh/git/eapidk-code-r76-trunk/apps/EeePProg/linux/../BinFuncs.c ****     pcvBuffer=((uint8_t*)pcvBuffer)+1;
 1599              		.loc 1 49 5 view .LVU708
  50:/home/hkh/git/eapidk-code-r76-trunk/apps/EeePProg/linux/../BinFuncs.c ****   }
 1600              		.loc 1 50 5 view .LVU709
  48:/home/hkh/git/eapidk-code-r76-trunk/apps/EeePProg/linux/../BinFuncs.c ****     ChkSum+=(uint32_t)(*((uint8_t*)pcvBuffer));
 1601              		.loc 1 48 9 view .LVU710
  49:/home/hkh/git/eapidk-code-r76-trunk/apps/EeePProg/linux/../BinFuncs.c ****     pcvBuffer=((uint8_t*)pcvBuffer)+1;
 1602              		.loc 1 49 5 view .LVU711
  50:/home/hkh/git/eapidk-code-r76-trunk/apps/EeePProg/linux/../BinFuncs.c ****   }
 1603              		.loc 1 50 5 view .LVU712
  48:/home/hkh/git/eapidk-code-r76-trunk/apps/EeePProg/linux/../BinFuncs.c ****     ChkSum+=(uint32_t)(*((uint8_t*)pcvBuffer));
 1604              		.loc 1 48 9 view .LVU713
  49:/home/hkh/git/eapidk-code-r76-trunk/apps/EeePProg/linux/../BinFuncs.c ****     pcvBuffer=((uint8_t*)pcvBuffer)+1;
 1605              		.loc 1 49 5 view .LVU714
  50:/home/hkh/git/eapidk-code-r76-trunk/apps/EeePProg/linux/../BinFuncs.c ****   }
 1606              		.loc 1 50 5 view .LVU715
  48:/home/hkh/git/eapidk-code-r76-trunk/apps/EeePProg/linux/../BinFuncs.c ****     ChkSum+=(uint32_t)(*((uint8_t*)pcvBuffer));
 1607              		.loc 1 48 9 view .LVU716
  49:/home/hkh/git/eapidk-code-r76-trunk/apps/EeePProg/linux/../BinFuncs.c ****     pcvBuffer=((uint8_t*)pcvBuffer)+1;
 1608              		.loc 1 49 5 view .LVU717
  50:/home/hkh/git/eapidk-code-r76-trunk/apps/EeePProg/linux/../BinFuncs.c ****   }
 1609              		.loc 1 50 5 view .LVU718
  48:/home/hkh/git/eapidk-code-r76-trunk/apps/EeePProg/linux/../BinFuncs.c ****     ChkSum+=(uint32_t)(*((uint8_t*)pcvBuffer));
 1610              		.loc 1 48 9 view .LVU719
  49:/home/hkh/git/eapidk-code-r76-trunk/apps/EeePProg/linux/../BinFuncs.c ****     pcvBuffer=((uint8_t*)pcvBuffer)+1;
 1611              		.loc 1 49 5 view .LVU720
  50:/home/hkh/git/eapidk-code-r76-trunk/apps/EeePProg/linux/../BinFuncs.c ****   }
 1612              		.loc 1 50 5 view .LVU721
  48:/home/hkh/git/eapidk-code-r76-trunk/apps/EeePProg/linux/../BinFuncs.c ****     ChkSum+=(uint32_t)(*((uint8_t*)pcvBuffer));
 1613              		.loc 1 48 9 view .LVU722
  49:/home/hkh/git/eapidk-code-r76-trunk/apps/EeePProg/linux/../BinFuncs.c ****     pcvBuffer=((uint8_t*)pcvBuffer)+1;
 1614              		.loc 1 49 5 view .LVU723
  50:/home/hkh/git/eapidk-code-r76-trunk/apps/EeePProg/linux/../BinFuncs.c ****   }
 1615              		.loc 1 50 5 view .LVU724
  48:/home/hkh/git/eapidk-code-r76-trunk/apps/EeePProg/linux/../BinFuncs.c ****     ChkSum+=(uint32_t)(*((uint8_t*)pcvBuffer));
 1616              		.loc 1 48 9 view .LVU725
  49:/home/hkh/git/eapidk-code-r76-trunk/apps/EeePProg/linux/../BinFuncs.c ****     pcvBuffer=((uint8_t*)pcvBuffer)+1;
 1617              		.loc 1 49 5 view .LVU726
  50:/home/hkh/git/eapidk-code-r76-trunk/apps/EeePProg/linux/../BinFuncs.c ****   }
 1618              		.loc 1 50 5 view .LVU727
  48:/home/hkh/git/eapidk-code-r76-trunk/apps/EeePProg/linux/../BinFuncs.c ****     ChkSum+=(uint32_t)(*((uint8_t*)pcvBuffer));
 1619              		.loc 1 48 9 view .LVU728
  49:/home/hkh/git/eapidk-code-r76-trunk/apps/EeePProg/linux/../BinFuncs.c ****     pcvBuffer=((uint8_t*)pcvBuffer)+1;
 1620              		.loc 1 49 5 view .LVU729
  49:/home/hkh/git/eapidk-code-r76-trunk/apps/EeePProg/linux/../BinFuncs.c ****     pcvBuffer=((uint8_t*)pcvBuffer)+1;
ARM GAS  /tmp/ccf3bFwG.s 			page 52


 1621              		.loc 1 49 13 is_stmt 0 view .LVU730
 1622 0694 202051E5 		ldrb	r2, [r1, #-32]	@ zero_extendqisi2
 1623 0698 02F0D1F5 		pld	[r1, #2]
 1624 069c 201081E2 		add	r1, r1, #32
 1625              	.LVL103:
  49:/home/hkh/git/eapidk-code-r76-trunk/apps/EeePProg/linux/../BinFuncs.c ****     pcvBuffer=((uint8_t*)pcvBuffer)+1;
 1626              		.loc 1 49 11 view .LVU731
 1627 06a0 0E2082E0 		add	r2, r2, lr
  49:/home/hkh/git/eapidk-code-r76-trunk/apps/EeePProg/linux/../BinFuncs.c ****     pcvBuffer=((uint8_t*)pcvBuffer)+1;
 1628              		.loc 1 49 13 view .LVU732
 1629 06a4 3EE051E5 		ldrb	lr, [r1, #-62]	@ zero_extendqisi2
  49:/home/hkh/git/eapidk-code-r76-trunk/apps/EeePProg/linux/../BinFuncs.c ****     pcvBuffer=((uint8_t*)pcvBuffer)+1;
 1630              		.loc 1 49 11 view .LVU733
 1631 06a8 0E2082E0 		add	r2, r2, lr
  49:/home/hkh/git/eapidk-code-r76-trunk/apps/EeePProg/linux/../BinFuncs.c ****     pcvBuffer=((uint8_t*)pcvBuffer)+1;
 1632              		.loc 1 49 13 view .LVU734
 1633 06ac 3DE051E5 		ldrb	lr, [r1, #-61]	@ zero_extendqisi2
  49:/home/hkh/git/eapidk-code-r76-trunk/apps/EeePProg/linux/../BinFuncs.c ****     pcvBuffer=((uint8_t*)pcvBuffer)+1;
 1634              		.loc 1 49 11 view .LVU735
 1635 06b0 0E2082E0 		add	r2, r2, lr
  49:/home/hkh/git/eapidk-code-r76-trunk/apps/EeePProg/linux/../BinFuncs.c ****     pcvBuffer=((uint8_t*)pcvBuffer)+1;
 1636              		.loc 1 49 13 view .LVU736
 1637 06b4 3CE051E5 		ldrb	lr, [r1, #-60]	@ zero_extendqisi2
  49:/home/hkh/git/eapidk-code-r76-trunk/apps/EeePProg/linux/../BinFuncs.c ****     pcvBuffer=((uint8_t*)pcvBuffer)+1;
 1638              		.loc 1 49 11 view .LVU737
 1639 06b8 0E2082E0 		add	r2, r2, lr
  49:/home/hkh/git/eapidk-code-r76-trunk/apps/EeePProg/linux/../BinFuncs.c ****     pcvBuffer=((uint8_t*)pcvBuffer)+1;
 1640              		.loc 1 49 13 view .LVU738
 1641 06bc 3BE051E5 		ldrb	lr, [r1, #-59]	@ zero_extendqisi2
  49:/home/hkh/git/eapidk-code-r76-trunk/apps/EeePProg/linux/../BinFuncs.c ****     pcvBuffer=((uint8_t*)pcvBuffer)+1;
 1642              		.loc 1 49 11 view .LVU739
 1643 06c0 0E2082E0 		add	r2, r2, lr
  49:/home/hkh/git/eapidk-code-r76-trunk/apps/EeePProg/linux/../BinFuncs.c ****     pcvBuffer=((uint8_t*)pcvBuffer)+1;
 1644              		.loc 1 49 13 view .LVU740
 1645 06c4 3AE051E5 		ldrb	lr, [r1, #-58]	@ zero_extendqisi2
  49:/home/hkh/git/eapidk-code-r76-trunk/apps/EeePProg/linux/../BinFuncs.c ****     pcvBuffer=((uint8_t*)pcvBuffer)+1;
 1646              		.loc 1 49 11 view .LVU741
 1647 06c8 0E2082E0 		add	r2, r2, lr
  49:/home/hkh/git/eapidk-code-r76-trunk/apps/EeePProg/linux/../BinFuncs.c ****     pcvBuffer=((uint8_t*)pcvBuffer)+1;
 1648              		.loc 1 49 13 view .LVU742
 1649 06cc 39E051E5 		ldrb	lr, [r1, #-57]	@ zero_extendqisi2
  49:/home/hkh/git/eapidk-code-r76-trunk/apps/EeePProg/linux/../BinFuncs.c ****     pcvBuffer=((uint8_t*)pcvBuffer)+1;
 1650              		.loc 1 49 11 view .LVU743
 1651 06d0 0E2082E0 		add	r2, r2, lr
  49:/home/hkh/git/eapidk-code-r76-trunk/apps/EeePProg/linux/../BinFuncs.c ****     pcvBuffer=((uint8_t*)pcvBuffer)+1;
 1652              		.loc 1 49 13 view .LVU744
 1653 06d4 38E051E5 		ldrb	lr, [r1, #-56]	@ zero_extendqisi2
  49:/home/hkh/git/eapidk-code-r76-trunk/apps/EeePProg/linux/../BinFuncs.c ****     pcvBuffer=((uint8_t*)pcvBuffer)+1;
 1654              		.loc 1 49 11 view .LVU745
 1655 06d8 0E2082E0 		add	r2, r2, lr
  49:/home/hkh/git/eapidk-code-r76-trunk/apps/EeePProg/linux/../BinFuncs.c ****     pcvBuffer=((uint8_t*)pcvBuffer)+1;
 1656              		.loc 1 49 13 view .LVU746
 1657 06dc 37E051E5 		ldrb	lr, [r1, #-55]	@ zero_extendqisi2
  49:/home/hkh/git/eapidk-code-r76-trunk/apps/EeePProg/linux/../BinFuncs.c ****     pcvBuffer=((uint8_t*)pcvBuffer)+1;
 1658              		.loc 1 49 11 view .LVU747
 1659 06e0 0E2082E0 		add	r2, r2, lr
  49:/home/hkh/git/eapidk-code-r76-trunk/apps/EeePProg/linux/../BinFuncs.c ****     pcvBuffer=((uint8_t*)pcvBuffer)+1;
ARM GAS  /tmp/ccf3bFwG.s 			page 53


 1660              		.loc 1 49 13 view .LVU748
 1661 06e4 36E051E5 		ldrb	lr, [r1, #-54]	@ zero_extendqisi2
  49:/home/hkh/git/eapidk-code-r76-trunk/apps/EeePProg/linux/../BinFuncs.c ****     pcvBuffer=((uint8_t*)pcvBuffer)+1;
 1662              		.loc 1 49 11 view .LVU749
 1663 06e8 0E2082E0 		add	r2, r2, lr
  49:/home/hkh/git/eapidk-code-r76-trunk/apps/EeePProg/linux/../BinFuncs.c ****     pcvBuffer=((uint8_t*)pcvBuffer)+1;
 1664              		.loc 1 49 13 view .LVU750
 1665 06ec 35E051E5 		ldrb	lr, [r1, #-53]	@ zero_extendqisi2
  49:/home/hkh/git/eapidk-code-r76-trunk/apps/EeePProg/linux/../BinFuncs.c ****     pcvBuffer=((uint8_t*)pcvBuffer)+1;
 1666              		.loc 1 49 11 view .LVU751
 1667 06f0 0E2082E0 		add	r2, r2, lr
  49:/home/hkh/git/eapidk-code-r76-trunk/apps/EeePProg/linux/../BinFuncs.c ****     pcvBuffer=((uint8_t*)pcvBuffer)+1;
 1668              		.loc 1 49 13 view .LVU752
 1669 06f4 34E051E5 		ldrb	lr, [r1, #-52]	@ zero_extendqisi2
  49:/home/hkh/git/eapidk-code-r76-trunk/apps/EeePProg/linux/../BinFuncs.c ****     pcvBuffer=((uint8_t*)pcvBuffer)+1;
 1670              		.loc 1 49 11 view .LVU753
 1671 06f8 0E2082E0 		add	r2, r2, lr
  49:/home/hkh/git/eapidk-code-r76-trunk/apps/EeePProg/linux/../BinFuncs.c ****     pcvBuffer=((uint8_t*)pcvBuffer)+1;
 1672              		.loc 1 49 13 view .LVU754
 1673 06fc 33E051E5 		ldrb	lr, [r1, #-51]	@ zero_extendqisi2
  49:/home/hkh/git/eapidk-code-r76-trunk/apps/EeePProg/linux/../BinFuncs.c ****     pcvBuffer=((uint8_t*)pcvBuffer)+1;
 1674              		.loc 1 49 11 view .LVU755
 1675 0700 0E2082E0 		add	r2, r2, lr
  49:/home/hkh/git/eapidk-code-r76-trunk/apps/EeePProg/linux/../BinFuncs.c ****     pcvBuffer=((uint8_t*)pcvBuffer)+1;
 1676              		.loc 1 49 13 view .LVU756
 1677 0704 32E051E5 		ldrb	lr, [r1, #-50]	@ zero_extendqisi2
  49:/home/hkh/git/eapidk-code-r76-trunk/apps/EeePProg/linux/../BinFuncs.c ****     pcvBuffer=((uint8_t*)pcvBuffer)+1;
 1678              		.loc 1 49 11 view .LVU757
 1679 0708 0E2082E0 		add	r2, r2, lr
  49:/home/hkh/git/eapidk-code-r76-trunk/apps/EeePProg/linux/../BinFuncs.c ****     pcvBuffer=((uint8_t*)pcvBuffer)+1;
 1680              		.loc 1 49 13 view .LVU758
 1681 070c 31E051E5 		ldrb	lr, [r1, #-49]	@ zero_extendqisi2
  49:/home/hkh/git/eapidk-code-r76-trunk/apps/EeePProg/linux/../BinFuncs.c ****     pcvBuffer=((uint8_t*)pcvBuffer)+1;
 1682              		.loc 1 49 11 view .LVU759
 1683 0710 0E2082E0 		add	r2, r2, lr
  49:/home/hkh/git/eapidk-code-r76-trunk/apps/EeePProg/linux/../BinFuncs.c ****     pcvBuffer=((uint8_t*)pcvBuffer)+1;
 1684              		.loc 1 49 13 view .LVU760
 1685 0714 30E051E5 		ldrb	lr, [r1, #-48]	@ zero_extendqisi2
  49:/home/hkh/git/eapidk-code-r76-trunk/apps/EeePProg/linux/../BinFuncs.c ****     pcvBuffer=((uint8_t*)pcvBuffer)+1;
 1686              		.loc 1 49 11 view .LVU761
 1687 0718 0E2082E0 		add	r2, r2, lr
  49:/home/hkh/git/eapidk-code-r76-trunk/apps/EeePProg/linux/../BinFuncs.c ****     pcvBuffer=((uint8_t*)pcvBuffer)+1;
 1688              		.loc 1 49 13 view .LVU762
 1689 071c 2FE051E5 		ldrb	lr, [r1, #-47]	@ zero_extendqisi2
  49:/home/hkh/git/eapidk-code-r76-trunk/apps/EeePProg/linux/../BinFuncs.c ****     pcvBuffer=((uint8_t*)pcvBuffer)+1;
 1690              		.loc 1 49 11 view .LVU763
 1691 0720 0E2082E0 		add	r2, r2, lr
  49:/home/hkh/git/eapidk-code-r76-trunk/apps/EeePProg/linux/../BinFuncs.c ****     pcvBuffer=((uint8_t*)pcvBuffer)+1;
 1692              		.loc 1 49 13 view .LVU764
 1693 0724 2EE051E5 		ldrb	lr, [r1, #-46]	@ zero_extendqisi2
  49:/home/hkh/git/eapidk-code-r76-trunk/apps/EeePProg/linux/../BinFuncs.c ****     pcvBuffer=((uint8_t*)pcvBuffer)+1;
 1694              		.loc 1 49 11 view .LVU765
 1695 0728 0E2082E0 		add	r2, r2, lr
  49:/home/hkh/git/eapidk-code-r76-trunk/apps/EeePProg/linux/../BinFuncs.c ****     pcvBuffer=((uint8_t*)pcvBuffer)+1;
 1696              		.loc 1 49 13 view .LVU766
 1697 072c 2DE051E5 		ldrb	lr, [r1, #-45]	@ zero_extendqisi2
  49:/home/hkh/git/eapidk-code-r76-trunk/apps/EeePProg/linux/../BinFuncs.c ****     pcvBuffer=((uint8_t*)pcvBuffer)+1;
ARM GAS  /tmp/ccf3bFwG.s 			page 54


 1698              		.loc 1 49 11 view .LVU767
 1699 0730 0E2082E0 		add	r2, r2, lr
  49:/home/hkh/git/eapidk-code-r76-trunk/apps/EeePProg/linux/../BinFuncs.c ****     pcvBuffer=((uint8_t*)pcvBuffer)+1;
 1700              		.loc 1 49 13 view .LVU768
 1701 0734 2CE051E5 		ldrb	lr, [r1, #-44]	@ zero_extendqisi2
  49:/home/hkh/git/eapidk-code-r76-trunk/apps/EeePProg/linux/../BinFuncs.c ****     pcvBuffer=((uint8_t*)pcvBuffer)+1;
 1702              		.loc 1 49 11 view .LVU769
 1703 0738 0E2082E0 		add	r2, r2, lr
  49:/home/hkh/git/eapidk-code-r76-trunk/apps/EeePProg/linux/../BinFuncs.c ****     pcvBuffer=((uint8_t*)pcvBuffer)+1;
 1704              		.loc 1 49 13 view .LVU770
 1705 073c 2BE051E5 		ldrb	lr, [r1, #-43]	@ zero_extendqisi2
  49:/home/hkh/git/eapidk-code-r76-trunk/apps/EeePProg/linux/../BinFuncs.c ****     pcvBuffer=((uint8_t*)pcvBuffer)+1;
 1706              		.loc 1 49 11 view .LVU771
 1707 0740 0E2082E0 		add	r2, r2, lr
  49:/home/hkh/git/eapidk-code-r76-trunk/apps/EeePProg/linux/../BinFuncs.c ****     pcvBuffer=((uint8_t*)pcvBuffer)+1;
 1708              		.loc 1 49 13 view .LVU772
 1709 0744 2AE051E5 		ldrb	lr, [r1, #-42]	@ zero_extendqisi2
  49:/home/hkh/git/eapidk-code-r76-trunk/apps/EeePProg/linux/../BinFuncs.c ****     pcvBuffer=((uint8_t*)pcvBuffer)+1;
 1710              		.loc 1 49 11 view .LVU773
 1711 0748 0E2082E0 		add	r2, r2, lr
  49:/home/hkh/git/eapidk-code-r76-trunk/apps/EeePProg/linux/../BinFuncs.c ****     pcvBuffer=((uint8_t*)pcvBuffer)+1;
 1712              		.loc 1 49 13 view .LVU774
 1713 074c 29E051E5 		ldrb	lr, [r1, #-41]	@ zero_extendqisi2
  49:/home/hkh/git/eapidk-code-r76-trunk/apps/EeePProg/linux/../BinFuncs.c ****     pcvBuffer=((uint8_t*)pcvBuffer)+1;
 1714              		.loc 1 49 11 view .LVU775
 1715 0750 0E2082E0 		add	r2, r2, lr
  49:/home/hkh/git/eapidk-code-r76-trunk/apps/EeePProg/linux/../BinFuncs.c ****     pcvBuffer=((uint8_t*)pcvBuffer)+1;
 1716              		.loc 1 49 13 view .LVU776
 1717 0754 28E051E5 		ldrb	lr, [r1, #-40]	@ zero_extendqisi2
  49:/home/hkh/git/eapidk-code-r76-trunk/apps/EeePProg/linux/../BinFuncs.c ****     pcvBuffer=((uint8_t*)pcvBuffer)+1;
 1718              		.loc 1 49 11 view .LVU777
 1719 0758 0E2082E0 		add	r2, r2, lr
  49:/home/hkh/git/eapidk-code-r76-trunk/apps/EeePProg/linux/../BinFuncs.c ****     pcvBuffer=((uint8_t*)pcvBuffer)+1;
 1720              		.loc 1 49 13 view .LVU778
 1721 075c 27E051E5 		ldrb	lr, [r1, #-39]	@ zero_extendqisi2
  49:/home/hkh/git/eapidk-code-r76-trunk/apps/EeePProg/linux/../BinFuncs.c ****     pcvBuffer=((uint8_t*)pcvBuffer)+1;
 1722              		.loc 1 49 11 view .LVU779
 1723 0760 0E2082E0 		add	r2, r2, lr
  49:/home/hkh/git/eapidk-code-r76-trunk/apps/EeePProg/linux/../BinFuncs.c ****     pcvBuffer=((uint8_t*)pcvBuffer)+1;
 1724              		.loc 1 49 13 view .LVU780
 1725 0764 26E051E5 		ldrb	lr, [r1, #-38]	@ zero_extendqisi2
  49:/home/hkh/git/eapidk-code-r76-trunk/apps/EeePProg/linux/../BinFuncs.c ****     pcvBuffer=((uint8_t*)pcvBuffer)+1;
 1726              		.loc 1 49 11 view .LVU781
 1727 0768 0E2082E0 		add	r2, r2, lr
  49:/home/hkh/git/eapidk-code-r76-trunk/apps/EeePProg/linux/../BinFuncs.c ****     pcvBuffer=((uint8_t*)pcvBuffer)+1;
 1728              		.loc 1 49 13 view .LVU782
 1729 076c 25E051E5 		ldrb	lr, [r1, #-37]	@ zero_extendqisi2
  49:/home/hkh/git/eapidk-code-r76-trunk/apps/EeePProg/linux/../BinFuncs.c ****     pcvBuffer=((uint8_t*)pcvBuffer)+1;
 1730              		.loc 1 49 11 view .LVU783
 1731 0770 0E2082E0 		add	r2, r2, lr
  49:/home/hkh/git/eapidk-code-r76-trunk/apps/EeePProg/linux/../BinFuncs.c ****     pcvBuffer=((uint8_t*)pcvBuffer)+1;
 1732              		.loc 1 49 13 view .LVU784
 1733 0774 24E051E5 		ldrb	lr, [r1, #-36]	@ zero_extendqisi2
  49:/home/hkh/git/eapidk-code-r76-trunk/apps/EeePProg/linux/../BinFuncs.c ****     pcvBuffer=((uint8_t*)pcvBuffer)+1;
 1734              		.loc 1 49 11 view .LVU785
 1735 0778 0E2082E0 		add	r2, r2, lr
  49:/home/hkh/git/eapidk-code-r76-trunk/apps/EeePProg/linux/../BinFuncs.c ****     pcvBuffer=((uint8_t*)pcvBuffer)+1;
ARM GAS  /tmp/ccf3bFwG.s 			page 55


 1736              		.loc 1 49 13 view .LVU786
 1737 077c 23E051E5 		ldrb	lr, [r1, #-35]	@ zero_extendqisi2
  49:/home/hkh/git/eapidk-code-r76-trunk/apps/EeePProg/linux/../BinFuncs.c ****     pcvBuffer=((uint8_t*)pcvBuffer)+1;
 1738              		.loc 1 49 11 view .LVU787
 1739 0780 0E2082E0 		add	r2, r2, lr
  49:/home/hkh/git/eapidk-code-r76-trunk/apps/EeePProg/linux/../BinFuncs.c ****     pcvBuffer=((uint8_t*)pcvBuffer)+1;
 1740              		.loc 1 49 13 view .LVU788
 1741 0784 22E051E5 		ldrb	lr, [r1, #-34]	@ zero_extendqisi2
  49:/home/hkh/git/eapidk-code-r76-trunk/apps/EeePProg/linux/../BinFuncs.c ****     pcvBuffer=((uint8_t*)pcvBuffer)+1;
 1742              		.loc 1 49 11 view .LVU789
 1743 0788 0E2082E0 		add	r2, r2, lr
  49:/home/hkh/git/eapidk-code-r76-trunk/apps/EeePProg/linux/../BinFuncs.c ****     pcvBuffer=((uint8_t*)pcvBuffer)+1;
 1744              		.loc 1 49 13 view .LVU790
 1745 078c 21E051E5 		ldrb	lr, [r1, #-33]	@ zero_extendqisi2
  49:/home/hkh/git/eapidk-code-r76-trunk/apps/EeePProg/linux/../BinFuncs.c ****     pcvBuffer=((uint8_t*)pcvBuffer)+1;
 1746              		.loc 1 49 11 view .LVU791
 1747 0790 0E2082E0 		add	r2, r2, lr
 1748 0794 023083E0 		add	r3, r3, r2
 1749              	.LVL104:
  50:/home/hkh/git/eapidk-code-r76-trunk/apps/EeePProg/linux/../BinFuncs.c ****   }
 1750              		.loc 1 50 5 is_stmt 1 view .LVU792
  48:/home/hkh/git/eapidk-code-r76-trunk/apps/EeePProg/linux/../BinFuncs.c ****     ChkSum+=(uint32_t)(*((uint8_t*)pcvBuffer));
 1751              		.loc 1 48 9 view .LVU793
  48:/home/hkh/git/eapidk-code-r76-trunk/apps/EeePProg/linux/../BinFuncs.c ****     ChkSum+=(uint32_t)(*((uint8_t*)pcvBuffer));
 1752              		.loc 1 48 9 is_stmt 0 view .LVU794
 1753 0798 B9FFFF8A 		bhi	.L112
 1754 079c 01108CE2 		add	r1, ip, #1
 1755 07a0 011080E0 		add	r1, r0, r1
 1756              	.L113:
 1757              	.LVL105:
  49:/home/hkh/git/eapidk-code-r76-trunk/apps/EeePProg/linux/../BinFuncs.c ****     pcvBuffer=((uint8_t*)pcvBuffer)+1;
 1758              		.loc 1 49 5 is_stmt 1 view .LVU795
  49:/home/hkh/git/eapidk-code-r76-trunk/apps/EeePProg/linux/../BinFuncs.c ****     pcvBuffer=((uint8_t*)pcvBuffer)+1;
 1759              		.loc 1 49 13 is_stmt 0 view .LVU796
 1760 07a4 0120D0E4 		ldrb	r2, [r0], #1	@ zero_extendqisi2
 1761              	.LVL106:
  48:/home/hkh/git/eapidk-code-r76-trunk/apps/EeePProg/linux/../BinFuncs.c ****     ChkSum+=(uint32_t)(*((uint8_t*)pcvBuffer));
 1762              		.loc 1 48 9 view .LVU797
 1763 07a8 010050E1 		cmp	r0, r1
  49:/home/hkh/git/eapidk-code-r76-trunk/apps/EeePProg/linux/../BinFuncs.c ****     pcvBuffer=((uint8_t*)pcvBuffer)+1;
 1764              		.loc 1 49 11 view .LVU798
 1765 07ac 023083E0 		add	r3, r3, r2
 1766              	.LVL107:
  50:/home/hkh/git/eapidk-code-r76-trunk/apps/EeePProg/linux/../BinFuncs.c ****   }
 1767              		.loc 1 50 5 is_stmt 1 view .LVU799
  48:/home/hkh/git/eapidk-code-r76-trunk/apps/EeePProg/linux/../BinFuncs.c ****     ChkSum+=(uint32_t)(*((uint8_t*)pcvBuffer));
 1768              		.loc 1 48 9 view .LVU800
  48:/home/hkh/git/eapidk-code-r76-trunk/apps/EeePProg/linux/../BinFuncs.c ****     ChkSum+=(uint32_t)(*((uint8_t*)pcvBuffer));
 1769              		.loc 1 48 9 is_stmt 0 view .LVU801
 1770 07b0 FBFFFF1A 		bne	.L113
 1771              	.LBE82:
 1772              	.LBE86:
  68:/home/hkh/git/eapidk-code-r76-trunk/apps/EeePProg/linux/../BinFuncs.c **** }
 1773              		.loc 1 68 10 view .LVU802
 1774 07b4 7300EFE6 		uxtb	r0, r3
 1775              	.LVL108:
 1776              	.LBB87:
ARM GAS  /tmp/ccf3bFwG.s 			page 56


 1777              	.LBB83:
  52:/home/hkh/git/eapidk-code-r76-trunk/apps/EeePProg/linux/../BinFuncs.c **** }
 1778              		.loc 1 52 3 is_stmt 1 view .LVU803
  52:/home/hkh/git/eapidk-code-r76-trunk/apps/EeePProg/linux/../BinFuncs.c **** }
 1779              		.loc 1 52 3 is_stmt 0 view .LVU804
 1780              	.LBE83:
 1781              	.LBE87:
  69:/home/hkh/git/eapidk-code-r76-trunk/apps/EeePProg/linux/../BinFuncs.c **** 
 1782              		.loc 1 69 1 view .LVU805
 1783 07b8 04F09DE4 		ldr	pc, [sp], #4
 1784              	.LVL109:
 1785              	.L114:
 1786              		.cfi_def_cfa_offset 0
 1787              		.cfi_restore 14
 1788              	.LBB88:
 1789              	.LBB84:
  48:/home/hkh/git/eapidk-code-r76-trunk/apps/EeePProg/linux/../BinFuncs.c ****     ChkSum+=(uint32_t)(*((uint8_t*)pcvBuffer));
 1790              		.loc 1 48 9 view .LVU806
 1791 07bc 0100A0E1 		mov	r0, r1
 1792              	.LVL110:
  48:/home/hkh/git/eapidk-code-r76-trunk/apps/EeePProg/linux/../BinFuncs.c ****     ChkSum+=(uint32_t)(*((uint8_t*)pcvBuffer));
 1793              		.loc 1 48 9 view .LVU807
 1794 07c0 1EFF2FE1 		bx	lr
 1795              	.LVL111:
 1796              	.L115:
  48:/home/hkh/git/eapidk-code-r76-trunk/apps/EeePProg/linux/../BinFuncs.c ****     ChkSum+=(uint32_t)(*((uint8_t*)pcvBuffer));
 1797              		.loc 1 48 9 view .LVU808
 1798 07c4 01108CE2 		add	r1, ip, #1
 1799              	.LVL112:
  48:/home/hkh/git/eapidk-code-r76-trunk/apps/EeePProg/linux/../BinFuncs.c ****     ChkSum+=(uint32_t)(*((uint8_t*)pcvBuffer));
 1800              		.loc 1 48 9 view .LVU809
 1801 07c8 0030A0E3 		mov	r3, #0
 1802 07cc 011080E0 		add	r1, r0, r1
 1803              	.LVL113:
 1804              	.L120:
  49:/home/hkh/git/eapidk-code-r76-trunk/apps/EeePProg/linux/../BinFuncs.c ****     pcvBuffer=((uint8_t*)pcvBuffer)+1;
 1805              		.loc 1 49 5 is_stmt 1 view .LVU810
  49:/home/hkh/git/eapidk-code-r76-trunk/apps/EeePProg/linux/../BinFuncs.c ****     pcvBuffer=((uint8_t*)pcvBuffer)+1;
 1806              		.loc 1 49 13 is_stmt 0 view .LVU811
 1807 07d0 0120D0E4 		ldrb	r2, [r0], #1	@ zero_extendqisi2
 1808              	.LVL114:
  48:/home/hkh/git/eapidk-code-r76-trunk/apps/EeePProg/linux/../BinFuncs.c ****     ChkSum+=(uint32_t)(*((uint8_t*)pcvBuffer));
 1809              		.loc 1 48 9 view .LVU812
 1810 07d4 010050E1 		cmp	r0, r1
  49:/home/hkh/git/eapidk-code-r76-trunk/apps/EeePProg/linux/../BinFuncs.c ****     pcvBuffer=((uint8_t*)pcvBuffer)+1;
 1811              		.loc 1 49 11 view .LVU813
 1812 07d8 023083E0 		add	r3, r3, r2
 1813              	.LVL115:
  50:/home/hkh/git/eapidk-code-r76-trunk/apps/EeePProg/linux/../BinFuncs.c ****   }
 1814              		.loc 1 50 5 is_stmt 1 view .LVU814
  48:/home/hkh/git/eapidk-code-r76-trunk/apps/EeePProg/linux/../BinFuncs.c ****     ChkSum+=(uint32_t)(*((uint8_t*)pcvBuffer));
 1815              		.loc 1 48 9 view .LVU815
  48:/home/hkh/git/eapidk-code-r76-trunk/apps/EeePProg/linux/../BinFuncs.c ****     ChkSum+=(uint32_t)(*((uint8_t*)pcvBuffer));
 1816              		.loc 1 48 9 is_stmt 0 view .LVU816
 1817 07dc FBFFFF1A 		bne	.L120
 1818              	.LBE84:
 1819              	.LBE88:
ARM GAS  /tmp/ccf3bFwG.s 			page 57


  68:/home/hkh/git/eapidk-code-r76-trunk/apps/EeePProg/linux/../BinFuncs.c **** }
 1820              		.loc 1 68 10 view .LVU817
 1821 07e0 7300EFE6 		uxtb	r0, r3
 1822              	.LVL116:
 1823              	.LBB89:
 1824              	.LBB85:
  52:/home/hkh/git/eapidk-code-r76-trunk/apps/EeePProg/linux/../BinFuncs.c **** }
 1825              		.loc 1 52 3 is_stmt 1 view .LVU818
  52:/home/hkh/git/eapidk-code-r76-trunk/apps/EeePProg/linux/../BinFuncs.c **** }
 1826              		.loc 1 52 3 is_stmt 0 view .LVU819
 1827              	.LBE85:
 1828              	.LBE89:
  69:/home/hkh/git/eapidk-code-r76-trunk/apps/EeePProg/linux/../BinFuncs.c **** 
 1829              		.loc 1 69 1 view .LVU820
 1830 07e4 1EFF2FE1 		bx	lr
 1831              		.cfi_endproc
 1832              	.LFE3:
 1834              		.section	.rodata.str1.4
 1835 00fa 0000     		.align	2
 1836              	.LC11:
 1837 00fc 54422000 		.ascii	"TB \000"
 1838              		.align	2
 1839              	.LC12:
 1840 0100 75313643 		.ascii	"u16CRC_CCITT_init(&pContext)\000"
 1840      52435F43 
 1840      43495454 
 1840      5F696E69 
 1840      74282670 
 1841 011d 000000   		.align	2
 1842              	.LC13:
 1843 0120 75313643 		.ascii	"u16CRC_CCITT_bytes(pContext, pcvBuffer, stCount)\000"
 1843      52435F43 
 1843      43495454 
 1843      5F627974 
 1843      65732870 
 1844 0151 000000   		.align	2
 1845              	.LC14:
 1846 0154 75313643 		.ascii	"u16CRC_CCITT_fini(&pContext, pvDigest)\000"
 1846      52435F43 
 1846      43495454 
 1846      5F66696E 
 1846      69282670 
 1847              		.text
 1848              		.align	2
 1849              		.global	u16CRC_CCITT
 1850              		.syntax unified
 1851              		.arm
 1852              		.fpu vfpv3
 1854              	u16CRC_CCITT:
 1855              	.LVL117:
 1856              	.LFB8:
 198:/home/hkh/git/eapidk-code-r76-trunk/apps/EeePProg/linux/../BinFuncs.c ****   EApiStatus_t StatusCode=EAPI_STATUS_SUCCESS;
 1857              		.loc 1 198 1 is_stmt 1 view -0
 1858              		.cfi_startproc
 1859              		@ args = 0, pretend = 0, frame = 0
 1860              		@ frame_needed = 0, uses_anonymous_args = 0
 198:/home/hkh/git/eapidk-code-r76-trunk/apps/EeePProg/linux/../BinFuncs.c ****   EApiStatus_t StatusCode=EAPI_STATUS_SUCCESS;
ARM GAS  /tmp/ccf3bFwG.s 			page 58


 1861              		.loc 1 198 1 is_stmt 0 view .LVU822
 1862 07e8 70402DE9 		push	{r4, r5, r6, lr}
 1863              		.cfi_def_cfa_offset 16
 1864              		.cfi_offset 4, -16
 1865              		.cfi_offset 5, -12
 1866              		.cfi_offset 6, -8
 1867              		.cfi_offset 14, -4
 1868 07ec 0050A0E1 		mov	r5, r0
 1869 07f0 10D04DE2 		sub	sp, sp, #16
 1870              		.cfi_def_cfa_offset 32
 1871              	.LBB106:
 1872              	.LBB107:
  88:/home/hkh/git/eapidk-code-r76-trunk/apps/EeePProg/linux/../BinFuncs.c ****   EAPI_APP_ASSERT_PARAMATER_NULL(
 1873              		.loc 1 88 18 view .LVU823
 1874 07f4 0800A0E3 		mov	r0, #8
 1875              	.LVL118:
  88:/home/hkh/git/eapidk-code-r76-trunk/apps/EeePProg/linux/../BinFuncs.c ****   EAPI_APP_ASSERT_PARAMATER_NULL(
 1876              		.loc 1 88 18 view .LVU824
 1877              	.LBE107:
 1878              	.LBE106:
 199:/home/hkh/git/eapidk-code-r76-trunk/apps/EeePProg/linux/../BinFuncs.c ****   void * pContext;
 1879              		.loc 1 199 3 is_stmt 1 view .LVU825
 200:/home/hkh/git/eapidk-code-r76-trunk/apps/EeePProg/linux/../BinFuncs.c ****   DO(u16CRC_CCITT_init(&pContext));
 1880              		.loc 1 200 3 view .LVU826
 201:/home/hkh/git/eapidk-code-r76-trunk/apps/EeePProg/linux/../BinFuncs.c ****   DO(u16CRC_CCITT_bytes(pContext, pcvBuffer, stCount));
 1881              		.loc 1 201 3 view .LVU827
 201:/home/hkh/git/eapidk-code-r76-trunk/apps/EeePProg/linux/../BinFuncs.c ****   DO(u16CRC_CCITT_bytes(pContext, pcvBuffer, stCount));
 1882              		.loc 1 201 3 view .LVU828
 1883              	.LBB114:
 1884              	.LBI106:
  77:/home/hkh/git/eapidk-code-r76-trunk/apps/EeePProg/linux/../BinFuncs.c ****     void**pContext
 1885              		.loc 1 77 1 view .LVU829
 1886              	.LBB110:
  81:/home/hkh/git/eapidk-code-r76-trunk/apps/EeePProg/linux/../BinFuncs.c ****   CRC_State_t * pCRC;
 1887              		.loc 1 81 3 view .LVU830
  82:/home/hkh/git/eapidk-code-r76-trunk/apps/EeePProg/linux/../BinFuncs.c ****   EAPI_APP_ASSERT_PARAMATER_NULL(
 1888              		.loc 1 82 3 view .LVU831
  83:/home/hkh/git/eapidk-code-r76-trunk/apps/EeePProg/linux/../BinFuncs.c ****       u16CRC_CCITT_init,
 1889              		.loc 1 83 3 view .LVU832
  83:/home/hkh/git/eapidk-code-r76-trunk/apps/EeePProg/linux/../BinFuncs.c ****       u16CRC_CCITT_init,
 1890              		.loc 1 83 3 view .LVU833
  87:/home/hkh/git/eapidk-code-r76-trunk/apps/EeePProg/linux/../BinFuncs.c ****   *pContext=pCRC=malloc(sizeof(CRC_State_t));
 1891              		.loc 1 87 8 view .LVU834
  88:/home/hkh/git/eapidk-code-r76-trunk/apps/EeePProg/linux/../BinFuncs.c ****   EAPI_APP_ASSERT_PARAMATER_NULL(
 1892              		.loc 1 88 3 view .LVU835
 1893              	.LBE110:
 1894              	.LBE114:
 198:/home/hkh/git/eapidk-code-r76-trunk/apps/EeePProg/linux/../BinFuncs.c ****   EApiStatus_t StatusCode=EAPI_STATUS_SUCCESS;
 1895              		.loc 1 198 1 is_stmt 0 view .LVU836
 1896 07f8 0160A0E1 		mov	r6, r1
 1897 07fc 0240A0E1 		mov	r4, r2
 1898              	.LBB115:
 1899              	.LBB111:
  88:/home/hkh/git/eapidk-code-r76-trunk/apps/EeePProg/linux/../BinFuncs.c ****   EAPI_APP_ASSERT_PARAMATER_NULL(
 1900              		.loc 1 88 18 view .LVU837
 1901 0800 FEFFFFEB 		bl	malloc(PLT)
 1902              	.LVL119:
ARM GAS  /tmp/ccf3bFwG.s 			page 59


  89:/home/hkh/git/eapidk-code-r76-trunk/apps/EeePProg/linux/../BinFuncs.c ****       u16CRC_CCITT_init,
 1903              		.loc 1 89 3 is_stmt 1 view .LVU838
 1904 0804 000050E3 		cmp	r0, #0
  89:/home/hkh/git/eapidk-code-r76-trunk/apps/EeePProg/linux/../BinFuncs.c ****       u16CRC_CCITT_init,
 1905              		.loc 1 89 3 is_stmt 0 view .LVU839
 1906 0808 2D00000A 		beq	.L170
  89:/home/hkh/git/eapidk-code-r76-trunk/apps/EeePProg/linux/../BinFuncs.c ****       u16CRC_CCITT_init,
 1907              		.loc 1 89 3 is_stmt 1 view .LVU840
  93:/home/hkh/git/eapidk-code-r76-trunk/apps/EeePProg/linux/../BinFuncs.c ****   pCRC->CRC=0;
 1908              		.loc 1 93 8 view .LVU841
  94:/home/hkh/git/eapidk-code-r76-trunk/apps/EeePProg/linux/../BinFuncs.c ****   pCRC->Cnt=0;
 1909              		.loc 1 94 3 view .LVU842
 1910              	.LBE111:
 1911              	.LBE115:
 1912              	.LBB116:
 1913              	.LBB117:
 122:/home/hkh/git/eapidk-code-r76-trunk/apps/EeePProg/linux/../BinFuncs.c ****       u16CRC_CCITT_bytes,
 1914              		.loc 1 122 3 is_stmt 0 view .LVU843
 1915 080c 000055E3 		cmp	r5, #0
 1916              	.LBE117:
 1917              	.LBE116:
 1918              	.LBB122:
 1919              	.LBB112:
  94:/home/hkh/git/eapidk-code-r76-trunk/apps/EeePProg/linux/../BinFuncs.c ****   pCRC->Cnt=0;
 1920              		.loc 1 94 12 view .LVU844
 1921 0810 0030A0E3 		mov	r3, #0
 1922 0814 003080E5 		str	r3, [r0]
  95:/home/hkh/git/eapidk-code-r76-trunk/apps/EeePProg/linux/../BinFuncs.c **** 
 1923              		.loc 1 95 3 is_stmt 1 view .LVU845
  98:/home/hkh/git/eapidk-code-r76-trunk/apps/EeePProg/linux/../BinFuncs.c **** }
 1924              		.loc 1 98 3 view .LVU846
 1925              	.LVL120:
  98:/home/hkh/git/eapidk-code-r76-trunk/apps/EeePProg/linux/../BinFuncs.c **** }
 1926              		.loc 1 98 3 is_stmt 0 view .LVU847
 1927              	.LBE112:
 1928              	.LBE122:
 201:/home/hkh/git/eapidk-code-r76-trunk/apps/EeePProg/linux/../BinFuncs.c ****   DO(u16CRC_CCITT_bytes(pContext, pcvBuffer, stCount));
 1929              		.loc 1 201 3 is_stmt 1 view .LVU848
 201:/home/hkh/git/eapidk-code-r76-trunk/apps/EeePProg/linux/../BinFuncs.c ****   DO(u16CRC_CCITT_bytes(pContext, pcvBuffer, stCount));
 1930              		.loc 1 201 3 view .LVU849
 202:/home/hkh/git/eapidk-code-r76-trunk/apps/EeePProg/linux/../BinFuncs.c ****   DO(u16CRC_CCITT_fini(&pContext, pvDigest));
 1931              		.loc 1 202 3 view .LVU850
 202:/home/hkh/git/eapidk-code-r76-trunk/apps/EeePProg/linux/../BinFuncs.c ****   DO(u16CRC_CCITT_fini(&pContext, pvDigest));
 1932              		.loc 1 202 3 view .LVU851
 1933              	.LBB123:
 1934              	.LBI116:
 111:/home/hkh/git/eapidk-code-r76-trunk/apps/EeePProg/linux/../BinFuncs.c ****     __IN       void *pContext , /* CRC Context       */
 1935              		.loc 1 111 1 view .LVU852
 1936              	.LBB120:
 117:/home/hkh/git/eapidk-code-r76-trunk/apps/EeePProg/linux/../BinFuncs.c ****   const uint8_t *pcu8Buffer     =pcvBuffer; 
 1937              		.loc 1 117 3 view .LVU853
 118:/home/hkh/git/eapidk-code-r76-trunk/apps/EeePProg/linux/../BinFuncs.c ****   CRC_State_t   *pCRC           =pContext ;
 1938              		.loc 1 118 3 view .LVU854
 119:/home/hkh/git/eapidk-code-r76-trunk/apps/EeePProg/linux/../BinFuncs.c ****   unsigned       CRC            =pCRC->CRC;
 1939              		.loc 1 119 3 view .LVU855
 120:/home/hkh/git/eapidk-code-r76-trunk/apps/EeePProg/linux/../BinFuncs.c ****   unsigned       i; 
 1940              		.loc 1 120 3 view .LVU856
ARM GAS  /tmp/ccf3bFwG.s 			page 60


 121:/home/hkh/git/eapidk-code-r76-trunk/apps/EeePProg/linux/../BinFuncs.c ****   EAPI_APP_ASSERT_PARAMATER_NULL(
 1941              		.loc 1 121 3 view .LVU857
 122:/home/hkh/git/eapidk-code-r76-trunk/apps/EeePProg/linux/../BinFuncs.c ****       u16CRC_CCITT_bytes,
 1942              		.loc 1 122 3 view .LVU858
 1943 0818 4600000A 		beq	.L171
 122:/home/hkh/git/eapidk-code-r76-trunk/apps/EeePProg/linux/../BinFuncs.c ****       u16CRC_CCITT_bytes,
 1944              		.loc 1 122 3 view .LVU859
 126:/home/hkh/git/eapidk-code-r76-trunk/apps/EeePProg/linux/../BinFuncs.c **** 
 1945              		.loc 1 126 8 view .LVU860
 131:/home/hkh/git/eapidk-code-r76-trunk/apps/EeePProg/linux/../BinFuncs.c ****   while (stCount --) { 
 1946              		.loc 1 131 3 view .LVU861
 132:/home/hkh/git/eapidk-code-r76-trunk/apps/EeePProg/linux/../BinFuncs.c ****     CRC^= *pcu8Buffer++ << 8; 
 1947              		.loc 1 132 3 view .LVU862
 132:/home/hkh/git/eapidk-code-r76-trunk/apps/EeePProg/linux/../BinFuncs.c ****     CRC^= *pcu8Buffer++ << 8; 
 1948              		.loc 1 132 10 view .LVU863
 1949              	.LVL121:
 132:/home/hkh/git/eapidk-code-r76-trunk/apps/EeePProg/linux/../BinFuncs.c ****     CRC^= *pcu8Buffer++ << 8; 
 1950              		.loc 1 132 10 is_stmt 0 view .LVU864
 1951 081c 000056E3 		cmp	r6, #0
 1952 0820 1E00000A 		beq	.L129
 1953 0824 062085E0 		add	r2, r5, r6
 1954              	.LVL122:
 120:/home/hkh/git/eapidk-code-r76-trunk/apps/EeePProg/linux/../BinFuncs.c ****   unsigned       i; 
 1955              		.loc 1 120 18 view .LVU865
 1956 0828 0360A0E1 		mov	r6, r3
 1957              	.LVL123:
 137:/home/hkh/git/eapidk-code-r76-trunk/apps/EeePProg/linux/../BinFuncs.c ****       }else{ 
 1958              		.loc 1 137 12 view .LVU866
 1959 082c 213001E3 		movw	r3, #4129
 1960              	.LVL124:
 1961              	.L138:
 133:/home/hkh/git/eapidk-code-r76-trunk/apps/EeePProg/linux/../BinFuncs.c ****     for (i = 8; i ; i --){ 
 1962              		.loc 1 133 5 is_stmt 1 view .LVU867
 133:/home/hkh/git/eapidk-code-r76-trunk/apps/EeePProg/linux/../BinFuncs.c ****     for (i = 8; i ; i --){ 
 1963              		.loc 1 133 11 is_stmt 0 view .LVU868
 1964 0830 0110D5E4 		ldrb	r1, [r5], #1	@ zero_extendqisi2
 1965              	.LVL125:
 133:/home/hkh/git/eapidk-code-r76-trunk/apps/EeePProg/linux/../BinFuncs.c ****     for (i = 8; i ; i --){ 
 1966              		.loc 1 133 8 view .LVU869
 1967 0834 011426E0 		eor	r1, r6, r1, lsl #8
 1968              	.LVL126:
 134:/home/hkh/git/eapidk-code-r76-trunk/apps/EeePProg/linux/../BinFuncs.c ****       if (CRC & 0x8000){ 
 1969              		.loc 1 134 5 is_stmt 1 view .LVU870
 134:/home/hkh/git/eapidk-code-r76-trunk/apps/EeePProg/linux/../BinFuncs.c ****       if (CRC & 0x8000){ 
 1970              		.loc 1 134 17 view .LVU871
 135:/home/hkh/git/eapidk-code-r76-trunk/apps/EeePProg/linux/../BinFuncs.c ****         CRC+=CRC; 
 1971              		.loc 1 135 7 view .LVU872
 135:/home/hkh/git/eapidk-code-r76-trunk/apps/EeePProg/linux/../BinFuncs.c ****         CRC+=CRC; 
 1972              		.loc 1 135 10 is_stmt 0 view .LVU873
 1973 0838 020911E3 		tst	r1, #32768
 139:/home/hkh/git/eapidk-code-r76-trunk/apps/EeePProg/linux/../BinFuncs.c ****       }
 1974              		.loc 1 139 12 view .LVU874
 1975 083c 8110A0E1 		lsl	r1, r1, #1
 1976              	.LVL127:
 136:/home/hkh/git/eapidk-code-r76-trunk/apps/EeePProg/linux/../BinFuncs.c ****         CRC^=0x1021; 
 1977              		.loc 1 136 9 is_stmt 1 view .LVU875
 137:/home/hkh/git/eapidk-code-r76-trunk/apps/EeePProg/linux/../BinFuncs.c ****       }else{ 
ARM GAS  /tmp/ccf3bFwG.s 			page 61


 1978              		.loc 1 137 9 view .LVU876
 137:/home/hkh/git/eapidk-code-r76-trunk/apps/EeePProg/linux/../BinFuncs.c ****       }else{ 
 1979              		.loc 1 137 12 is_stmt 0 view .LVU877
 1980 0840 03102110 		eorne	r1, r1, r3
 1981              	.LVL128:
 134:/home/hkh/git/eapidk-code-r76-trunk/apps/EeePProg/linux/../BinFuncs.c ****       if (CRC & 0x8000){ 
 1982              		.loc 1 134 23 is_stmt 1 view .LVU878
 134:/home/hkh/git/eapidk-code-r76-trunk/apps/EeePProg/linux/../BinFuncs.c ****       if (CRC & 0x8000){ 
 1983              		.loc 1 134 17 view .LVU879
 135:/home/hkh/git/eapidk-code-r76-trunk/apps/EeePProg/linux/../BinFuncs.c ****         CRC+=CRC; 
 1984              		.loc 1 135 7 view .LVU880
 135:/home/hkh/git/eapidk-code-r76-trunk/apps/EeePProg/linux/../BinFuncs.c ****         CRC+=CRC; 
 1985              		.loc 1 135 10 is_stmt 0 view .LVU881
 1986 0844 020911E3 		tst	r1, #32768
 139:/home/hkh/git/eapidk-code-r76-trunk/apps/EeePProg/linux/../BinFuncs.c ****       }
 1987              		.loc 1 139 12 view .LVU882
 1988 0848 8110A0E1 		lsl	r1, r1, #1
 136:/home/hkh/git/eapidk-code-r76-trunk/apps/EeePProg/linux/../BinFuncs.c ****         CRC^=0x1021; 
 1989              		.loc 1 136 9 is_stmt 1 view .LVU883
 1990              	.LVL129:
 137:/home/hkh/git/eapidk-code-r76-trunk/apps/EeePProg/linux/../BinFuncs.c ****       }else{ 
 1991              		.loc 1 137 9 view .LVU884
 137:/home/hkh/git/eapidk-code-r76-trunk/apps/EeePProg/linux/../BinFuncs.c ****       }else{ 
 1992              		.loc 1 137 12 is_stmt 0 view .LVU885
 1993 084c 03102110 		eorne	r1, r1, r3
 1994              	.LVL130:
 134:/home/hkh/git/eapidk-code-r76-trunk/apps/EeePProg/linux/../BinFuncs.c ****       if (CRC & 0x8000){ 
 1995              		.loc 1 134 23 is_stmt 1 view .LVU886
 134:/home/hkh/git/eapidk-code-r76-trunk/apps/EeePProg/linux/../BinFuncs.c ****       if (CRC & 0x8000){ 
 1996              		.loc 1 134 17 view .LVU887
 135:/home/hkh/git/eapidk-code-r76-trunk/apps/EeePProg/linux/../BinFuncs.c ****         CRC+=CRC; 
 1997              		.loc 1 135 7 view .LVU888
 135:/home/hkh/git/eapidk-code-r76-trunk/apps/EeePProg/linux/../BinFuncs.c ****         CRC+=CRC; 
 1998              		.loc 1 135 10 is_stmt 0 view .LVU889
 1999 0850 020911E3 		tst	r1, #32768
 139:/home/hkh/git/eapidk-code-r76-trunk/apps/EeePProg/linux/../BinFuncs.c ****       }
 2000              		.loc 1 139 12 view .LVU890
 2001 0854 8110A0E1 		lsl	r1, r1, #1
 136:/home/hkh/git/eapidk-code-r76-trunk/apps/EeePProg/linux/../BinFuncs.c ****         CRC^=0x1021; 
 2002              		.loc 1 136 9 is_stmt 1 view .LVU891
 2003              	.LVL131:
 137:/home/hkh/git/eapidk-code-r76-trunk/apps/EeePProg/linux/../BinFuncs.c ****       }else{ 
 2004              		.loc 1 137 9 view .LVU892
 137:/home/hkh/git/eapidk-code-r76-trunk/apps/EeePProg/linux/../BinFuncs.c ****       }else{ 
 2005              		.loc 1 137 12 is_stmt 0 view .LVU893
 2006 0858 03102110 		eorne	r1, r1, r3
 2007              	.LVL132:
 134:/home/hkh/git/eapidk-code-r76-trunk/apps/EeePProg/linux/../BinFuncs.c ****       if (CRC & 0x8000){ 
 2008              		.loc 1 134 23 is_stmt 1 view .LVU894
 134:/home/hkh/git/eapidk-code-r76-trunk/apps/EeePProg/linux/../BinFuncs.c ****       if (CRC & 0x8000){ 
 2009              		.loc 1 134 17 view .LVU895
 135:/home/hkh/git/eapidk-code-r76-trunk/apps/EeePProg/linux/../BinFuncs.c ****         CRC+=CRC; 
 2010              		.loc 1 135 7 view .LVU896
 135:/home/hkh/git/eapidk-code-r76-trunk/apps/EeePProg/linux/../BinFuncs.c ****         CRC+=CRC; 
 2011              		.loc 1 135 10 is_stmt 0 view .LVU897
 2012 085c 020911E3 		tst	r1, #32768
 139:/home/hkh/git/eapidk-code-r76-trunk/apps/EeePProg/linux/../BinFuncs.c ****       }
ARM GAS  /tmp/ccf3bFwG.s 			page 62


 2013              		.loc 1 139 12 view .LVU898
 2014 0860 8110A0E1 		lsl	r1, r1, #1
 136:/home/hkh/git/eapidk-code-r76-trunk/apps/EeePProg/linux/../BinFuncs.c ****         CRC^=0x1021; 
 2015              		.loc 1 136 9 is_stmt 1 view .LVU899
 2016              	.LVL133:
 137:/home/hkh/git/eapidk-code-r76-trunk/apps/EeePProg/linux/../BinFuncs.c ****       }else{ 
 2017              		.loc 1 137 9 view .LVU900
 137:/home/hkh/git/eapidk-code-r76-trunk/apps/EeePProg/linux/../BinFuncs.c ****       }else{ 
 2018              		.loc 1 137 12 is_stmt 0 view .LVU901
 2019 0864 03102110 		eorne	r1, r1, r3
 2020              	.LVL134:
 134:/home/hkh/git/eapidk-code-r76-trunk/apps/EeePProg/linux/../BinFuncs.c ****       if (CRC & 0x8000){ 
 2021              		.loc 1 134 23 is_stmt 1 view .LVU902
 134:/home/hkh/git/eapidk-code-r76-trunk/apps/EeePProg/linux/../BinFuncs.c ****       if (CRC & 0x8000){ 
 2022              		.loc 1 134 17 view .LVU903
 135:/home/hkh/git/eapidk-code-r76-trunk/apps/EeePProg/linux/../BinFuncs.c ****         CRC+=CRC; 
 2023              		.loc 1 135 7 view .LVU904
 135:/home/hkh/git/eapidk-code-r76-trunk/apps/EeePProg/linux/../BinFuncs.c ****         CRC+=CRC; 
 2024              		.loc 1 135 10 is_stmt 0 view .LVU905
 2025 0868 020911E3 		tst	r1, #32768
 139:/home/hkh/git/eapidk-code-r76-trunk/apps/EeePProg/linux/../BinFuncs.c ****       }
 2026              		.loc 1 139 12 view .LVU906
 2027 086c 8110A0E1 		lsl	r1, r1, #1
 136:/home/hkh/git/eapidk-code-r76-trunk/apps/EeePProg/linux/../BinFuncs.c ****         CRC^=0x1021; 
 2028              		.loc 1 136 9 is_stmt 1 view .LVU907
 2029              	.LVL135:
 137:/home/hkh/git/eapidk-code-r76-trunk/apps/EeePProg/linux/../BinFuncs.c ****       }else{ 
 2030              		.loc 1 137 9 view .LVU908
 137:/home/hkh/git/eapidk-code-r76-trunk/apps/EeePProg/linux/../BinFuncs.c ****       }else{ 
 2031              		.loc 1 137 12 is_stmt 0 view .LVU909
 2032 0870 03102110 		eorne	r1, r1, r3
 2033              	.LVL136:
 134:/home/hkh/git/eapidk-code-r76-trunk/apps/EeePProg/linux/../BinFuncs.c ****       if (CRC & 0x8000){ 
 2034              		.loc 1 134 23 is_stmt 1 view .LVU910
 134:/home/hkh/git/eapidk-code-r76-trunk/apps/EeePProg/linux/../BinFuncs.c ****       if (CRC & 0x8000){ 
 2035              		.loc 1 134 17 view .LVU911
 135:/home/hkh/git/eapidk-code-r76-trunk/apps/EeePProg/linux/../BinFuncs.c ****         CRC+=CRC; 
 2036              		.loc 1 135 7 view .LVU912
 135:/home/hkh/git/eapidk-code-r76-trunk/apps/EeePProg/linux/../BinFuncs.c ****         CRC+=CRC; 
 2037              		.loc 1 135 10 is_stmt 0 view .LVU913
 2038 0874 020911E3 		tst	r1, #32768
 139:/home/hkh/git/eapidk-code-r76-trunk/apps/EeePProg/linux/../BinFuncs.c ****       }
 2039              		.loc 1 139 12 view .LVU914
 2040 0878 8110A0E1 		lsl	r1, r1, #1
 136:/home/hkh/git/eapidk-code-r76-trunk/apps/EeePProg/linux/../BinFuncs.c ****         CRC^=0x1021; 
 2041              		.loc 1 136 9 is_stmt 1 view .LVU915
 2042              	.LVL137:
 137:/home/hkh/git/eapidk-code-r76-trunk/apps/EeePProg/linux/../BinFuncs.c ****       }else{ 
 2043              		.loc 1 137 9 view .LVU916
 137:/home/hkh/git/eapidk-code-r76-trunk/apps/EeePProg/linux/../BinFuncs.c ****       }else{ 
 2044              		.loc 1 137 12 is_stmt 0 view .LVU917
 2045 087c 03102110 		eorne	r1, r1, r3
 2046              	.LVL138:
 134:/home/hkh/git/eapidk-code-r76-trunk/apps/EeePProg/linux/../BinFuncs.c ****       if (CRC & 0x8000){ 
 2047              		.loc 1 134 23 is_stmt 1 view .LVU918
 134:/home/hkh/git/eapidk-code-r76-trunk/apps/EeePProg/linux/../BinFuncs.c ****       if (CRC & 0x8000){ 
 2048              		.loc 1 134 17 view .LVU919
ARM GAS  /tmp/ccf3bFwG.s 			page 63


 135:/home/hkh/git/eapidk-code-r76-trunk/apps/EeePProg/linux/../BinFuncs.c ****         CRC+=CRC; 
 2049              		.loc 1 135 7 view .LVU920
 135:/home/hkh/git/eapidk-code-r76-trunk/apps/EeePProg/linux/../BinFuncs.c ****         CRC+=CRC; 
 2050              		.loc 1 135 10 is_stmt 0 view .LVU921
 2051 0880 020911E3 		tst	r1, #32768
 139:/home/hkh/git/eapidk-code-r76-trunk/apps/EeePProg/linux/../BinFuncs.c ****       }
 2052              		.loc 1 139 12 view .LVU922
 2053 0884 8110A0E1 		lsl	r1, r1, #1
 136:/home/hkh/git/eapidk-code-r76-trunk/apps/EeePProg/linux/../BinFuncs.c ****         CRC^=0x1021; 
 2054              		.loc 1 136 9 is_stmt 1 view .LVU923
 2055              	.LVL139:
 137:/home/hkh/git/eapidk-code-r76-trunk/apps/EeePProg/linux/../BinFuncs.c ****       }else{ 
 2056              		.loc 1 137 9 view .LVU924
 137:/home/hkh/git/eapidk-code-r76-trunk/apps/EeePProg/linux/../BinFuncs.c ****       }else{ 
 2057              		.loc 1 137 12 is_stmt 0 view .LVU925
 2058 0888 03102110 		eorne	r1, r1, r3
 2059              	.LVL140:
 134:/home/hkh/git/eapidk-code-r76-trunk/apps/EeePProg/linux/../BinFuncs.c ****       if (CRC & 0x8000){ 
 2060              		.loc 1 134 23 is_stmt 1 view .LVU926
 134:/home/hkh/git/eapidk-code-r76-trunk/apps/EeePProg/linux/../BinFuncs.c ****       if (CRC & 0x8000){ 
 2061              		.loc 1 134 17 view .LVU927
 135:/home/hkh/git/eapidk-code-r76-trunk/apps/EeePProg/linux/../BinFuncs.c ****         CRC+=CRC; 
 2062              		.loc 1 135 7 view .LVU928
 139:/home/hkh/git/eapidk-code-r76-trunk/apps/EeePProg/linux/../BinFuncs.c ****       }
 2063              		.loc 1 139 12 is_stmt 0 view .LVU929
 2064 088c 8160A0E1 		lsl	r6, r1, #1
 2065              	.LVL141:
 136:/home/hkh/git/eapidk-code-r76-trunk/apps/EeePProg/linux/../BinFuncs.c ****         CRC^=0x1021; 
 2066              		.loc 1 136 9 is_stmt 1 view .LVU930
 137:/home/hkh/git/eapidk-code-r76-trunk/apps/EeePProg/linux/../BinFuncs.c ****       }else{ 
 2067              		.loc 1 137 9 view .LVU931
 135:/home/hkh/git/eapidk-code-r76-trunk/apps/EeePProg/linux/../BinFuncs.c ****         CRC+=CRC; 
 2068              		.loc 1 135 10 is_stmt 0 view .LVU932
 2069 0890 020911E3 		tst	r1, #32768
 137:/home/hkh/git/eapidk-code-r76-trunk/apps/EeePProg/linux/../BinFuncs.c ****       }else{ 
 2070              		.loc 1 137 12 view .LVU933
 2071 0894 03602610 		eorne	r6, r6, r3
 2072              	.LVL142:
 132:/home/hkh/git/eapidk-code-r76-trunk/apps/EeePProg/linux/../BinFuncs.c ****     CRC^= *pcu8Buffer++ << 8; 
 2073              		.loc 1 132 10 is_stmt 1 view .LVU934
 132:/home/hkh/git/eapidk-code-r76-trunk/apps/EeePProg/linux/../BinFuncs.c ****     CRC^= *pcu8Buffer++ << 8; 
 2074              		.loc 1 132 10 is_stmt 0 view .LVU935
 2075 0898 020055E1 		cmp	r5, r2
 2076 089c E3FFFF1A 		bne	.L138
 2077              	.LVL143:
 2078              	.L129:
 143:/home/hkh/git/eapidk-code-r76-trunk/apps/EeePProg/linux/../BinFuncs.c **** 
 2079              		.loc 1 143 3 is_stmt 1 view .LVU936
 146:/home/hkh/git/eapidk-code-r76-trunk/apps/EeePProg/linux/../BinFuncs.c **** }
 2080              		.loc 1 146 3 view .LVU937
 146:/home/hkh/git/eapidk-code-r76-trunk/apps/EeePProg/linux/../BinFuncs.c **** }
 2081              		.loc 1 146 3 is_stmt 0 view .LVU938
 2082              	.LBE120:
 2083              	.LBE123:
 202:/home/hkh/git/eapidk-code-r76-trunk/apps/EeePProg/linux/../BinFuncs.c ****   DO(u16CRC_CCITT_fini(&pContext, pvDigest));
 2084              		.loc 1 202 3 is_stmt 1 view .LVU939
 202:/home/hkh/git/eapidk-code-r76-trunk/apps/EeePProg/linux/../BinFuncs.c ****   DO(u16CRC_CCITT_fini(&pContext, pvDigest));
ARM GAS  /tmp/ccf3bFwG.s 			page 64


 2085              		.loc 1 202 3 view .LVU940
 203:/home/hkh/git/eapidk-code-r76-trunk/apps/EeePProg/linux/../BinFuncs.c **** EAPI_APP_ASSERT_EXIT
 2086              		.loc 1 203 3 view .LVU941
 203:/home/hkh/git/eapidk-code-r76-trunk/apps/EeePProg/linux/../BinFuncs.c **** EAPI_APP_ASSERT_EXIT
 2087              		.loc 1 203 3 view .LVU942
 2088              	.LBB124:
 2089              	.LBI124:
 149:/home/hkh/git/eapidk-code-r76-trunk/apps/EeePProg/linux/../BinFuncs.c ****     __IN      void **pContext,  /* CRC Context       */
 2090              		.loc 1 149 1 view .LVU943
 2091              	.LBB125:
 154:/home/hkh/git/eapidk-code-r76-trunk/apps/EeePProg/linux/../BinFuncs.c ****   CRC_State_t * pCRC=*pContext;
 2092              		.loc 1 154 3 view .LVU944
 155:/home/hkh/git/eapidk-code-r76-trunk/apps/EeePProg/linux/../BinFuncs.c ****   unsigned      CRC=pCRC->CRC;
 2093              		.loc 1 155 3 view .LVU945
 156:/home/hkh/git/eapidk-code-r76-trunk/apps/EeePProg/linux/../BinFuncs.c ****   EAPI_APP_ASSERT_PARAMATER_NULL(
 2094              		.loc 1 156 3 view .LVU946
 157:/home/hkh/git/eapidk-code-r76-trunk/apps/EeePProg/linux/../BinFuncs.c ****       u16CRC_CCITT_fini,
 2095              		.loc 1 157 3 view .LVU947
 2096 08a0 000054E3 		cmp	r4, #0
 2097 08a4 3800000A 		beq	.L172
