ARM GAS  /tmp/ccf3bFwG.s 			page 1


   1              		.cpu cortex-a9
   2              		.eabi_attribute 28, 1
   3              		.eabi_attribute 20, 1
   4              		.eabi_attribute 21, 1
   5              		.eabi_attribute 23, 3
   6              		.eabi_attribute 24, 1
   7              		.eabi_attribute 25, 1
   8              		.eabi_attribute 26, 2
   9              		.eabi_attribute 30, 2
  10              		.eabi_attribute 34, 1
  11              		.eabi_attribute 18, 4
  12              		.file	"BinFuncs.c"
  13              		.text
  14              	.Ltext0:
  15              		.cfi_sections	.debug_frame
  16              		.section	.rodata.str1.4,"aMS",%progbits,1
  17              		.align	2
  18              	.LC0:
  19 0000 75313643 		.ascii	"u16CRC_CCITT_bytes\000"
  19      52435F43 
  19      43495454 
  19      5F627974 
  19      657300
  20 0013 00       		.align	2
  21              	.LC1:
  22 0014 2F686F6D 		.ascii	"/home/hkh/git/eapidk-code-r76-trunk/apps/EeePProg/l"
  22      652F686B 
  22      682F6769 
  22      742F6561 
  22      7069646B 
  23 0047 696E7578 		.ascii	"inux/../BinFuncs.c\000"
  23      2F2E2E2F 
  23      42696E46 
  23      756E6373 
  23      2E6300
  24 005a 0000     		.align	2
  25              	.LC2:
  26 005c 28706376 		.ascii	"(pcvBuffer==NULL)\000"
  26      42756666 
  26      65723D3D 
  26      4E554C4C 
  26      2900
  27 006e 0000     		.align	2
  28              	.LC3:
  29 0070 25730A00 		.ascii	"%s\012\000"
  30              		.text
  31              		.align	2
  32              		.global	u16CRC_CCITT_bytes
  33              		.arch armv7-a
  34              		.arch_extension mp
  35              		.arch_extension sec
  36              		.syntax unified
  37              		.arm
  38              		.fpu vfpv3
  40              	u16CRC_CCITT_bytes:
  41              	.LVL0:
  42              	.LFB5:
ARM GAS  /tmp/ccf3bFwG.s 			page 2


  43              		.file 1 "/home/hkh/git/eapidk-code-r76-trunk/apps/EeePProg/linux/../BinFuncs.c"
   1:/home/hkh/git/eapidk-code-r76-trunk/apps/EeePProg/linux/../BinFuncs.c **** /*
   2:/home/hkh/git/eapidk-code-r76-trunk/apps/EeePProg/linux/../BinFuncs.c ****  *<KHeader>
   3:/home/hkh/git/eapidk-code-r76-trunk/apps/EeePProg/linux/../BinFuncs.c ****  *+=========================================================================
   4:/home/hkh/git/eapidk-code-r76-trunk/apps/EeePProg/linux/../BinFuncs.c ****  *I  Project Name: EApiDK Embedded Application Development Kit
   5:/home/hkh/git/eapidk-code-r76-trunk/apps/EeePProg/linux/../BinFuncs.c ****  *+=========================================================================
   6:/home/hkh/git/eapidk-code-r76-trunk/apps/EeePProg/linux/../BinFuncs.c ****  *I  $HeadURL: file:///svn/p/eapidk/code/trunk/apps/EeePProg/BinFuncs.c $
   7:/home/hkh/git/eapidk-code-r76-trunk/apps/EeePProg/linux/../BinFuncs.c ****  *+=========================================================================
   8:/home/hkh/git/eapidk-code-r76-trunk/apps/EeePProg/linux/../BinFuncs.c ****  *I   Copyright: Copyright (c) 2002-2010, Kontron Embedded Modules GmbH
   9:/home/hkh/git/eapidk-code-r76-trunk/apps/EeePProg/linux/../BinFuncs.c ****  *I      Author: John Kearney,                  John.Kearney@kontron.com
  10:/home/hkh/git/eapidk-code-r76-trunk/apps/EeePProg/linux/../BinFuncs.c ****  *I
  11:/home/hkh/git/eapidk-code-r76-trunk/apps/EeePProg/linux/../BinFuncs.c ****  *I     License: This program contains proprietary and confidential 
  12:/home/hkh/git/eapidk-code-r76-trunk/apps/EeePProg/linux/../BinFuncs.c ****  *I              information. All rights reserved except as may be 
  13:/home/hkh/git/eapidk-code-r76-trunk/apps/EeePProg/linux/../BinFuncs.c ****  *I              permitted by prior written consent.
  14:/home/hkh/git/eapidk-code-r76-trunk/apps/EeePProg/linux/../BinFuncs.c ****  *I
  15:/home/hkh/git/eapidk-code-r76-trunk/apps/EeePProg/linux/../BinFuncs.c ****  *I Description: Auto Created for sprintf.c
  16:/home/hkh/git/eapidk-code-r76-trunk/apps/EeePProg/linux/../BinFuncs.c ****  *I
  17:/home/hkh/git/eapidk-code-r76-trunk/apps/EeePProg/linux/../BinFuncs.c ****  *+-------------------------------------------------------------------------
  18:/home/hkh/git/eapidk-code-r76-trunk/apps/EeePProg/linux/../BinFuncs.c ****  *I
  19:/home/hkh/git/eapidk-code-r76-trunk/apps/EeePProg/linux/../BinFuncs.c ****  *I  File Name            : BinFuncs.c
  20:/home/hkh/git/eapidk-code-r76-trunk/apps/EeePProg/linux/../BinFuncs.c ****  *I  File Location        : apps\EeePProg
  21:/home/hkh/git/eapidk-code-r76-trunk/apps/EeePProg/linux/../BinFuncs.c ****  *I  Last committed       : $Revision: 75 $
  22:/home/hkh/git/eapidk-code-r76-trunk/apps/EeePProg/linux/../BinFuncs.c ****  *I  Last changed by      : $Author: dethrophes $
  23:/home/hkh/git/eapidk-code-r76-trunk/apps/EeePProg/linux/../BinFuncs.c ****  *I  Last changed date    : $Date: 2010-06-28 23:50:38 +0000 (Mon, 28 Jun 2010) $
  24:/home/hkh/git/eapidk-code-r76-trunk/apps/EeePProg/linux/../BinFuncs.c ****  *I  ID                   : $Id: BinFuncs.c 75 2010-06-28 23:50:38Z dethrophes $
  25:/home/hkh/git/eapidk-code-r76-trunk/apps/EeePProg/linux/../BinFuncs.c ****  *I
  26:/home/hkh/git/eapidk-code-r76-trunk/apps/EeePProg/linux/../BinFuncs.c ****  *+=========================================================================
  27:/home/hkh/git/eapidk-code-r76-trunk/apps/EeePProg/linux/../BinFuncs.c ****  *</KHeader>
  28:/home/hkh/git/eapidk-code-r76-trunk/apps/EeePProg/linux/../BinFuncs.c ****  */
  29:/home/hkh/git/eapidk-code-r76-trunk/apps/EeePProg/linux/../BinFuncs.c **** 
  30:/home/hkh/git/eapidk-code-r76-trunk/apps/EeePProg/linux/../BinFuncs.c **** #include <EeePApp.h>
  31:/home/hkh/git/eapidk-code-r76-trunk/apps/EeePProg/linux/../BinFuncs.c **** 
  32:/home/hkh/git/eapidk-code-r76-trunk/apps/EeePProg/linux/../BinFuncs.c **** /*
  33:/home/hkh/git/eapidk-code-r76-trunk/apps/EeePProg/linux/../BinFuncs.c ****  *
  34:/home/hkh/git/eapidk-code-r76-trunk/apps/EeePProg/linux/../BinFuncs.c ****  *
  35:/home/hkh/git/eapidk-code-r76-trunk/apps/EeePProg/linux/../BinFuncs.c ****  *
  36:/home/hkh/git/eapidk-code-r76-trunk/apps/EeePProg/linux/../BinFuncs.c ****  *  Ckecksum
  37:/home/hkh/git/eapidk-code-r76-trunk/apps/EeePProg/linux/../BinFuncs.c ****  *
  38:/home/hkh/git/eapidk-code-r76-trunk/apps/EeePProg/linux/../BinFuncs.c ****  *
  39:/home/hkh/git/eapidk-code-r76-trunk/apps/EeePProg/linux/../BinFuncs.c ****  *
  40:/home/hkh/git/eapidk-code-r76-trunk/apps/EeePProg/linux/../BinFuncs.c ****  */
  41:/home/hkh/git/eapidk-code-r76-trunk/apps/EeePProg/linux/../BinFuncs.c **** uint32_t 
  42:/home/hkh/git/eapidk-code-r76-trunk/apps/EeePProg/linux/../BinFuncs.c **** u32ChecksumBlock(
  43:/home/hkh/git/eapidk-code-r76-trunk/apps/EeePProg/linux/../BinFuncs.c **** 	const void *pcvBuffer, 
  44:/home/hkh/git/eapidk-code-r76-trunk/apps/EeePProg/linux/../BinFuncs.c **** 	size_t  	  stLength
  45:/home/hkh/git/eapidk-code-r76-trunk/apps/EeePProg/linux/../BinFuncs.c **** 	)
  46:/home/hkh/git/eapidk-code-r76-trunk/apps/EeePProg/linux/../BinFuncs.c **** {
  47:/home/hkh/git/eapidk-code-r76-trunk/apps/EeePProg/linux/../BinFuncs.c ****   uint32_t ChkSum=0;
  48:/home/hkh/git/eapidk-code-r76-trunk/apps/EeePProg/linux/../BinFuncs.c ****   while(stLength--){
  49:/home/hkh/git/eapidk-code-r76-trunk/apps/EeePProg/linux/../BinFuncs.c ****     ChkSum+=(uint32_t)(*((uint8_t*)pcvBuffer));
  50:/home/hkh/git/eapidk-code-r76-trunk/apps/EeePProg/linux/../BinFuncs.c ****     pcvBuffer=((uint8_t*)pcvBuffer)+1;
  51:/home/hkh/git/eapidk-code-r76-trunk/apps/EeePProg/linux/../BinFuncs.c ****   }
  52:/home/hkh/git/eapidk-code-r76-trunk/apps/EeePProg/linux/../BinFuncs.c ****   return ChkSum;
  53:/home/hkh/git/eapidk-code-r76-trunk/apps/EeePProg/linux/../BinFuncs.c **** }
  54:/home/hkh/git/eapidk-code-r76-trunk/apps/EeePProg/linux/../BinFuncs.c **** uint16_t 
  55:/home/hkh/git/eapidk-code-r76-trunk/apps/EeePProg/linux/../BinFuncs.c **** u16ChecksumBlock(
  56:/home/hkh/git/eapidk-code-r76-trunk/apps/EeePProg/linux/../BinFuncs.c **** 	const void * pcvBuffer, 
ARM GAS  /tmp/ccf3bFwG.s 			page 3


  57:/home/hkh/git/eapidk-code-r76-trunk/apps/EeePProg/linux/../BinFuncs.c **** 	size_t   	   stLength
  58:/home/hkh/git/eapidk-code-r76-trunk/apps/EeePProg/linux/../BinFuncs.c **** 	)
  59:/home/hkh/git/eapidk-code-r76-trunk/apps/EeePProg/linux/../BinFuncs.c **** {
  60:/home/hkh/git/eapidk-code-r76-trunk/apps/EeePProg/linux/../BinFuncs.c ****   return EEEP_LO_UINT16(u32ChecksumBlock(pcvBuffer, stLength));
  61:/home/hkh/git/eapidk-code-r76-trunk/apps/EeePProg/linux/../BinFuncs.c **** }
  62:/home/hkh/git/eapidk-code-r76-trunk/apps/EeePProg/linux/../BinFuncs.c **** uint8_t  
  63:/home/hkh/git/eapidk-code-r76-trunk/apps/EeePProg/linux/../BinFuncs.c **** u8ChecksumBlock (
  64:/home/hkh/git/eapidk-code-r76-trunk/apps/EeePProg/linux/../BinFuncs.c **** 	const void * pcvBuffer, 
  65:/home/hkh/git/eapidk-code-r76-trunk/apps/EeePProg/linux/../BinFuncs.c **** 	size_t   	   stLength
  66:/home/hkh/git/eapidk-code-r76-trunk/apps/EeePProg/linux/../BinFuncs.c **** 	)
  67:/home/hkh/git/eapidk-code-r76-trunk/apps/EeePProg/linux/../BinFuncs.c **** {
  68:/home/hkh/git/eapidk-code-r76-trunk/apps/EeePProg/linux/../BinFuncs.c ****   return EEEP_LO_UINT8(u32ChecksumBlock(pcvBuffer, stLength));
  69:/home/hkh/git/eapidk-code-r76-trunk/apps/EeePProg/linux/../BinFuncs.c **** }
  70:/home/hkh/git/eapidk-code-r76-trunk/apps/EeePProg/linux/../BinFuncs.c **** 
  71:/home/hkh/git/eapidk-code-r76-trunk/apps/EeePProg/linux/../BinFuncs.c **** typedef struct CRC_State_s{
  72:/home/hkh/git/eapidk-code-r76-trunk/apps/EeePProg/linux/../BinFuncs.c ****   unsigned   CRC;
  73:/home/hkh/git/eapidk-code-r76-trunk/apps/EeePProg/linux/../BinFuncs.c ****   size_t     Cnt;
  74:/home/hkh/git/eapidk-code-r76-trunk/apps/EeePProg/linux/../BinFuncs.c **** }CRC_State_t;
  75:/home/hkh/git/eapidk-code-r76-trunk/apps/EeePProg/linux/../BinFuncs.c **** 
  76:/home/hkh/git/eapidk-code-r76-trunk/apps/EeePProg/linux/../BinFuncs.c **** EApiStatus_t
  77:/home/hkh/git/eapidk-code-r76-trunk/apps/EeePProg/linux/../BinFuncs.c **** u16CRC_CCITT_init (
  78:/home/hkh/git/eapidk-code-r76-trunk/apps/EeePProg/linux/../BinFuncs.c ****     void**pContext
  79:/home/hkh/git/eapidk-code-r76-trunk/apps/EeePProg/linux/../BinFuncs.c ****     )
  80:/home/hkh/git/eapidk-code-r76-trunk/apps/EeePProg/linux/../BinFuncs.c **** {
  81:/home/hkh/git/eapidk-code-r76-trunk/apps/EeePProg/linux/../BinFuncs.c ****   EApiStatus_t StatusCode=EAPI_STATUS_SUCCESS;
  82:/home/hkh/git/eapidk-code-r76-trunk/apps/EeePProg/linux/../BinFuncs.c ****   CRC_State_t * pCRC;
  83:/home/hkh/git/eapidk-code-r76-trunk/apps/EeePProg/linux/../BinFuncs.c ****   EAPI_APP_ASSERT_PARAMATER_NULL(
  84:/home/hkh/git/eapidk-code-r76-trunk/apps/EeePProg/linux/../BinFuncs.c ****       u16CRC_CCITT_init,
  85:/home/hkh/git/eapidk-code-r76-trunk/apps/EeePProg/linux/../BinFuncs.c ****       EAPI_STATUS_INVALID_PARAMETER,
  86:/home/hkh/git/eapidk-code-r76-trunk/apps/EeePProg/linux/../BinFuncs.c ****       pContext
  87:/home/hkh/git/eapidk-code-r76-trunk/apps/EeePProg/linux/../BinFuncs.c ****       );
  88:/home/hkh/git/eapidk-code-r76-trunk/apps/EeePProg/linux/../BinFuncs.c ****   *pContext=pCRC=malloc(sizeof(CRC_State_t));
  89:/home/hkh/git/eapidk-code-r76-trunk/apps/EeePProg/linux/../BinFuncs.c ****   EAPI_APP_ASSERT_PARAMATER_NULL(
  90:/home/hkh/git/eapidk-code-r76-trunk/apps/EeePProg/linux/../BinFuncs.c ****       u16CRC_CCITT_init,
  91:/home/hkh/git/eapidk-code-r76-trunk/apps/EeePProg/linux/../BinFuncs.c ****       EAPI_STATUS_ALLOC_ERROR,
  92:/home/hkh/git/eapidk-code-r76-trunk/apps/EeePProg/linux/../BinFuncs.c ****       pCRC
  93:/home/hkh/git/eapidk-code-r76-trunk/apps/EeePProg/linux/../BinFuncs.c ****       );
  94:/home/hkh/git/eapidk-code-r76-trunk/apps/EeePProg/linux/../BinFuncs.c ****   pCRC->CRC=0;
  95:/home/hkh/git/eapidk-code-r76-trunk/apps/EeePProg/linux/../BinFuncs.c ****   pCRC->Cnt=0;
  96:/home/hkh/git/eapidk-code-r76-trunk/apps/EeePProg/linux/../BinFuncs.c **** 
  97:/home/hkh/git/eapidk-code-r76-trunk/apps/EeePProg/linux/../BinFuncs.c **** EAPI_APP_ASSERT_EXIT
  98:/home/hkh/git/eapidk-code-r76-trunk/apps/EeePProg/linux/../BinFuncs.c ****   return StatusCode;
  99:/home/hkh/git/eapidk-code-r76-trunk/apps/EeePProg/linux/../BinFuncs.c **** }
 100:/home/hkh/git/eapidk-code-r76-trunk/apps/EeePProg/linux/../BinFuncs.c **** 
 101:/home/hkh/git/eapidk-code-r76-trunk/apps/EeePProg/linux/../BinFuncs.c **** /*
 102:/home/hkh/git/eapidk-code-r76-trunk/apps/EeePProg/linux/../BinFuncs.c ****  *
 103:/home/hkh/git/eapidk-code-r76-trunk/apps/EeePProg/linux/../BinFuncs.c ****  *
 104:/home/hkh/git/eapidk-code-r76-trunk/apps/EeePProg/linux/../BinFuncs.c ****  *
 105:/home/hkh/git/eapidk-code-r76-trunk/apps/EeePProg/linux/../BinFuncs.c ****  *  CRC_CCITT
 106:/home/hkh/git/eapidk-code-r76-trunk/apps/EeePProg/linux/../BinFuncs.c ****  *
 107:/home/hkh/git/eapidk-code-r76-trunk/apps/EeePProg/linux/../BinFuncs.c ****  *
 108:/home/hkh/git/eapidk-code-r76-trunk/apps/EeePProg/linux/../BinFuncs.c ****  *
 109:/home/hkh/git/eapidk-code-r76-trunk/apps/EeePProg/linux/../BinFuncs.c ****  */
 110:/home/hkh/git/eapidk-code-r76-trunk/apps/EeePProg/linux/../BinFuncs.c **** EApiStatus_t
 111:/home/hkh/git/eapidk-code-r76-trunk/apps/EeePProg/linux/../BinFuncs.c **** u16CRC_CCITT_bytes (
 112:/home/hkh/git/eapidk-code-r76-trunk/apps/EeePProg/linux/../BinFuncs.c ****     __IN       void *pContext , /* CRC Context       */
 113:/home/hkh/git/eapidk-code-r76-trunk/apps/EeePProg/linux/../BinFuncs.c ****     __IN const void *pcvBuffer, /* Pointer to Buffer */
ARM GAS  /tmp/ccf3bFwG.s 			page 4


 114:/home/hkh/git/eapidk-code-r76-trunk/apps/EeePProg/linux/../BinFuncs.c ****     __IN size_t      stCount    /* Num bytes to CRC */
 115:/home/hkh/git/eapidk-code-r76-trunk/apps/EeePProg/linux/../BinFuncs.c ****   )
 116:/home/hkh/git/eapidk-code-r76-trunk/apps/EeePProg/linux/../BinFuncs.c **** { 
  44              		.loc 1 116 1 view -0
  45              		.cfi_startproc
  46              		@ args = 0, pretend = 0, frame = 0
  47              		@ frame_needed = 0, uses_anonymous_args = 0
 117:/home/hkh/git/eapidk-code-r76-trunk/apps/EeePProg/linux/../BinFuncs.c ****   EApiStatus_t StatusCode=EAPI_STATUS_SUCCESS;
  48              		.loc 1 117 3 view .LVU1
 118:/home/hkh/git/eapidk-code-r76-trunk/apps/EeePProg/linux/../BinFuncs.c ****   const uint8_t *pcu8Buffer     =pcvBuffer; 
  49              		.loc 1 118 3 view .LVU2
 119:/home/hkh/git/eapidk-code-r76-trunk/apps/EeePProg/linux/../BinFuncs.c ****   CRC_State_t   *pCRC           =pContext ;
  50              		.loc 1 119 3 view .LVU3
 120:/home/hkh/git/eapidk-code-r76-trunk/apps/EeePProg/linux/../BinFuncs.c ****   unsigned       CRC            =pCRC->CRC;
  51              		.loc 1 120 3 view .LVU4
 121:/home/hkh/git/eapidk-code-r76-trunk/apps/EeePProg/linux/../BinFuncs.c ****   unsigned       i; 
 122:/home/hkh/git/eapidk-code-r76-trunk/apps/EeePProg/linux/../BinFuncs.c ****   EAPI_APP_ASSERT_PARAMATER_NULL(
  52              		.loc 1 122 3 is_stmt 0 view .LVU5
  53 0000 000051E3 		cmp	r1, #0
 116:/home/hkh/git/eapidk-code-r76-trunk/apps/EeePProg/linux/../BinFuncs.c ****   EApiStatus_t StatusCode=EAPI_STATUS_SUCCESS;
  54              		.loc 1 116 1 view .LVU6
  55 0004 10402DE9 		push	{r4, lr}
  56              		.cfi_def_cfa_offset 8
  57              		.cfi_offset 4, -8
  58              		.cfi_offset 14, -4
 120:/home/hkh/git/eapidk-code-r76-trunk/apps/EeePProg/linux/../BinFuncs.c ****   unsigned       CRC            =pCRC->CRC;
  59              		.loc 1 120 18 view .LVU7
  60 0008 003090E5 		ldr	r3, [r0]
  61              	.LVL1:
 121:/home/hkh/git/eapidk-code-r76-trunk/apps/EeePProg/linux/../BinFuncs.c ****   unsigned       i; 
  62              		.loc 1 121 3 is_stmt 1 view .LVU8
  63              		.loc 1 122 3 view .LVU9
 116:/home/hkh/git/eapidk-code-r76-trunk/apps/EeePProg/linux/../BinFuncs.c ****   EApiStatus_t StatusCode=EAPI_STATUS_SUCCESS;
  64              		.loc 1 116 1 is_stmt 0 view .LVU10
  65 000c 10D04DE2 		sub	sp, sp, #16
  66              		.cfi_def_cfa_offset 24
  67              		.loc 1 122 3 view .LVU11
  68 0010 2700000A 		beq	.L44
  69 0014 00E0A0E1 		mov	lr, r0
  70              		.loc 1 122 3 is_stmt 1 discriminator 2 view .LVU12
 123:/home/hkh/git/eapidk-code-r76-trunk/apps/EeePProg/linux/../BinFuncs.c ****       u16CRC_CCITT_bytes,
 124:/home/hkh/git/eapidk-code-r76-trunk/apps/EeePProg/linux/../BinFuncs.c ****       EAPI_STATUS_INVALID_PARAMETER,
 125:/home/hkh/git/eapidk-code-r76-trunk/apps/EeePProg/linux/../BinFuncs.c ****       pcvBuffer
 126:/home/hkh/git/eapidk-code-r76-trunk/apps/EeePProg/linux/../BinFuncs.c ****       );
  71              		.loc 1 126 8 discriminator 2 view .LVU13
 127:/home/hkh/git/eapidk-code-r76-trunk/apps/EeePProg/linux/../BinFuncs.c **** 
 128:/home/hkh/git/eapidk-code-r76-trunk/apps/EeePProg/linux/../BinFuncs.c **** 
 129:/home/hkh/git/eapidk-code-r76-trunk/apps/EeePProg/linux/../BinFuncs.c **** /*   printf("L%04i 0x%04X 0x%04lX\n", __LINE__, CRC&0xFFFF, (unsigned long)pCRC->Cnt); */
 130:/home/hkh/git/eapidk-code-r76-trunk/apps/EeePProg/linux/../BinFuncs.c **** /*   PrintHexAsciiTable(pcvBuffer, stCount, pcu8Buffer - pCRC->Cnt, NULL); */
 131:/home/hkh/git/eapidk-code-r76-trunk/apps/EeePProg/linux/../BinFuncs.c ****   pCRC->Cnt+=stCount;
  72              		.loc 1 131 3 discriminator 2 view .LVU14
  73              		.loc 1 131 12 is_stmt 0 discriminator 2 view .LVU15
  74 0018 040090E5 		ldr	r0, [r0, #4]
  75              	.LVL2:
 132:/home/hkh/git/eapidk-code-r76-trunk/apps/EeePProg/linux/../BinFuncs.c ****   while (stCount --) { 
  76              		.loc 1 132 10 discriminator 2 view .LVU16
  77 001c 000052E3 		cmp	r2, #0
ARM GAS  /tmp/ccf3bFwG.s 			page 5


 131:/home/hkh/git/eapidk-code-r76-trunk/apps/EeePProg/linux/../BinFuncs.c ****   while (stCount --) { 
  78              		.loc 1 131 12 discriminator 2 view .LVU17
  79 0020 020080E0 		add	r0, r0, r2
  80 0024 04008EE5 		str	r0, [lr, #4]
  81              		.loc 1 132 3 is_stmt 1 discriminator 2 view .LVU18
  82              		.loc 1 132 10 discriminator 2 view .LVU19
  83              	.LVL3:
  84              		.loc 1 132 10 is_stmt 0 discriminator 2 view .LVU20
  85 0028 1D00000A 		beq	.L4
  86 002c 020081E0 		add	r0, r1, r2
 133:/home/hkh/git/eapidk-code-r76-trunk/apps/EeePProg/linux/../BinFuncs.c ****     CRC^= *pcu8Buffer++ << 8; 
 134:/home/hkh/git/eapidk-code-r76-trunk/apps/EeePProg/linux/../BinFuncs.c ****     for (i = 8; i ; i --){ 
 135:/home/hkh/git/eapidk-code-r76-trunk/apps/EeePProg/linux/../BinFuncs.c ****       if (CRC & 0x8000){ 
 136:/home/hkh/git/eapidk-code-r76-trunk/apps/EeePProg/linux/../BinFuncs.c ****         CRC+=CRC; 
 137:/home/hkh/git/eapidk-code-r76-trunk/apps/EeePProg/linux/../BinFuncs.c ****         CRC^=0x1021; 
  87              		.loc 1 137 12 view .LVU21
  88 0030 212001E3 		movw	r2, #4129
  89              	.LVL4:
  90              	.L13:
 133:/home/hkh/git/eapidk-code-r76-trunk/apps/EeePProg/linux/../BinFuncs.c ****     CRC^= *pcu8Buffer++ << 8; 
  91              		.loc 1 133 5 is_stmt 1 view .LVU22
 133:/home/hkh/git/eapidk-code-r76-trunk/apps/EeePProg/linux/../BinFuncs.c ****     CRC^= *pcu8Buffer++ << 8; 
  92              		.loc 1 133 11 is_stmt 0 view .LVU23
  93 0034 01C0D1E4 		ldrb	ip, [r1], #1	@ zero_extendqisi2
  94              	.LVL5:
 133:/home/hkh/git/eapidk-code-r76-trunk/apps/EeePProg/linux/../BinFuncs.c ****     CRC^= *pcu8Buffer++ << 8; 
  95              		.loc 1 133 8 view .LVU24
  96 0038 0C3423E0 		eor	r3, r3, ip, lsl #8
  97              	.LVL6:
 134:/home/hkh/git/eapidk-code-r76-trunk/apps/EeePProg/linux/../BinFuncs.c ****       if (CRC & 0x8000){ 
  98              		.loc 1 134 5 is_stmt 1 view .LVU25
 134:/home/hkh/git/eapidk-code-r76-trunk/apps/EeePProg/linux/../BinFuncs.c ****       if (CRC & 0x8000){ 
  99              		.loc 1 134 17 view .LVU26
 135:/home/hkh/git/eapidk-code-r76-trunk/apps/EeePProg/linux/../BinFuncs.c ****         CRC+=CRC; 
 100              		.loc 1 135 7 view .LVU27
 135:/home/hkh/git/eapidk-code-r76-trunk/apps/EeePProg/linux/../BinFuncs.c ****         CRC+=CRC; 
 101              		.loc 1 135 10 is_stmt 0 view .LVU28
 102 003c 020913E3 		tst	r3, #32768
 138:/home/hkh/git/eapidk-code-r76-trunk/apps/EeePProg/linux/../BinFuncs.c ****       }else{ 
 139:/home/hkh/git/eapidk-code-r76-trunk/apps/EeePProg/linux/../BinFuncs.c ****         CRC+=CRC; 
 103              		.loc 1 139 12 view .LVU29
 104 0040 8330A0E1 		lsl	r3, r3, #1
 105              	.LVL7:
 136:/home/hkh/git/eapidk-code-r76-trunk/apps/EeePProg/linux/../BinFuncs.c ****         CRC^=0x1021; 
 106              		.loc 1 136 9 is_stmt 1 view .LVU30
 137:/home/hkh/git/eapidk-code-r76-trunk/apps/EeePProg/linux/../BinFuncs.c ****       }else{ 
 107              		.loc 1 137 9 view .LVU31
 137:/home/hkh/git/eapidk-code-r76-trunk/apps/EeePProg/linux/../BinFuncs.c ****       }else{ 
 108              		.loc 1 137 12 is_stmt 0 view .LVU32
 109 0044 02302310 		eorne	r3, r3, r2
 134:/home/hkh/git/eapidk-code-r76-trunk/apps/EeePProg/linux/../BinFuncs.c ****       if (CRC & 0x8000){ 
 110              		.loc 1 134 23 is_stmt 1 view .LVU33
 111              	.LVL8:
 134:/home/hkh/git/eapidk-code-r76-trunk/apps/EeePProg/linux/../BinFuncs.c ****       if (CRC & 0x8000){ 
 112              		.loc 1 134 17 view .LVU34
 135:/home/hkh/git/eapidk-code-r76-trunk/apps/EeePProg/linux/../BinFuncs.c ****         CRC+=CRC; 
 113              		.loc 1 135 7 view .LVU35
ARM GAS  /tmp/ccf3bFwG.s 			page 6


 135:/home/hkh/git/eapidk-code-r76-trunk/apps/EeePProg/linux/../BinFuncs.c ****         CRC+=CRC; 
 114              		.loc 1 135 10 is_stmt 0 view .LVU36
 115 0048 020913E3 		tst	r3, #32768
 116              		.loc 1 139 12 view .LVU37
 117 004c 8330A0E1 		lsl	r3, r3, #1
 136:/home/hkh/git/eapidk-code-r76-trunk/apps/EeePProg/linux/../BinFuncs.c ****         CRC^=0x1021; 
 118              		.loc 1 136 9 is_stmt 1 view .LVU38
 137:/home/hkh/git/eapidk-code-r76-trunk/apps/EeePProg/linux/../BinFuncs.c ****       }else{ 
 119              		.loc 1 137 9 view .LVU39
 137:/home/hkh/git/eapidk-code-r76-trunk/apps/EeePProg/linux/../BinFuncs.c ****       }else{ 
 120              		.loc 1 137 12 is_stmt 0 view .LVU40
 121 0050 02302310 		eorne	r3, r3, r2
 134:/home/hkh/git/eapidk-code-r76-trunk/apps/EeePProg/linux/../BinFuncs.c ****       if (CRC & 0x8000){ 
 122              		.loc 1 134 23 is_stmt 1 view .LVU41
 123              	.LVL9:
 134:/home/hkh/git/eapidk-code-r76-trunk/apps/EeePProg/linux/../BinFuncs.c ****       if (CRC & 0x8000){ 
 124              		.loc 1 134 17 view .LVU42
 135:/home/hkh/git/eapidk-code-r76-trunk/apps/EeePProg/linux/../BinFuncs.c ****         CRC+=CRC; 
 125              		.loc 1 135 7 view .LVU43
 135:/home/hkh/git/eapidk-code-r76-trunk/apps/EeePProg/linux/../BinFuncs.c ****         CRC+=CRC; 
 126              		.loc 1 135 10 is_stmt 0 view .LVU44
 127 0054 020913E3 		tst	r3, #32768
 128              		.loc 1 139 12 view .LVU45
 129 0058 8330A0E1 		lsl	r3, r3, #1
 136:/home/hkh/git/eapidk-code-r76-trunk/apps/EeePProg/linux/../BinFuncs.c ****         CRC^=0x1021; 
 130              		.loc 1 136 9 is_stmt 1 view .LVU46
 137:/home/hkh/git/eapidk-code-r76-trunk/apps/EeePProg/linux/../BinFuncs.c ****       }else{ 
 131              		.loc 1 137 9 view .LVU47
 137:/home/hkh/git/eapidk-code-r76-trunk/apps/EeePProg/linux/../BinFuncs.c ****       }else{ 
 132              		.loc 1 137 12 is_stmt 0 view .LVU48
 133 005c 02302310 		eorne	r3, r3, r2
 134:/home/hkh/git/eapidk-code-r76-trunk/apps/EeePProg/linux/../BinFuncs.c ****       if (CRC & 0x8000){ 
 134              		.loc 1 134 23 is_stmt 1 view .LVU49
 135              	.LVL10:
 134:/home/hkh/git/eapidk-code-r76-trunk/apps/EeePProg/linux/../BinFuncs.c ****       if (CRC & 0x8000){ 
 136              		.loc 1 134 17 view .LVU50
 135:/home/hkh/git/eapidk-code-r76-trunk/apps/EeePProg/linux/../BinFuncs.c ****         CRC+=CRC; 
 137              		.loc 1 135 7 view .LVU51
 135:/home/hkh/git/eapidk-code-r76-trunk/apps/EeePProg/linux/../BinFuncs.c ****         CRC+=CRC; 
 138              		.loc 1 135 10 is_stmt 0 view .LVU52
 139 0060 020913E3 		tst	r3, #32768
 140              		.loc 1 139 12 view .LVU53
 141 0064 8330A0E1 		lsl	r3, r3, #1
 136:/home/hkh/git/eapidk-code-r76-trunk/apps/EeePProg/linux/../BinFuncs.c ****         CRC^=0x1021; 
 142              		.loc 1 136 9 is_stmt 1 view .LVU54
 137:/home/hkh/git/eapidk-code-r76-trunk/apps/EeePProg/linux/../BinFuncs.c ****       }else{ 
 143              		.loc 1 137 9 view .LVU55
 137:/home/hkh/git/eapidk-code-r76-trunk/apps/EeePProg/linux/../BinFuncs.c ****       }else{ 
 144              		.loc 1 137 12 is_stmt 0 view .LVU56
 145 0068 02302310 		eorne	r3, r3, r2
 134:/home/hkh/git/eapidk-code-r76-trunk/apps/EeePProg/linux/../BinFuncs.c ****       if (CRC & 0x8000){ 
 146              		.loc 1 134 23 is_stmt 1 view .LVU57
 147              	.LVL11:
 134:/home/hkh/git/eapidk-code-r76-trunk/apps/EeePProg/linux/../BinFuncs.c ****       if (CRC & 0x8000){ 
 148              		.loc 1 134 17 view .LVU58
 135:/home/hkh/git/eapidk-code-r76-trunk/apps/EeePProg/linux/../BinFuncs.c ****         CRC+=CRC; 
 149              		.loc 1 135 7 view .LVU59
ARM GAS  /tmp/ccf3bFwG.s 			page 7


 135:/home/hkh/git/eapidk-code-r76-trunk/apps/EeePProg/linux/../BinFuncs.c ****         CRC+=CRC; 
 150              		.loc 1 135 10 is_stmt 0 view .LVU60
 151 006c 020913E3 		tst	r3, #32768
 152              		.loc 1 139 12 view .LVU61
 153 0070 8330A0E1 		lsl	r3, r3, #1
 136:/home/hkh/git/eapidk-code-r76-trunk/apps/EeePProg/linux/../BinFuncs.c ****         CRC^=0x1021; 
 154              		.loc 1 136 9 is_stmt 1 view .LVU62
 137:/home/hkh/git/eapidk-code-r76-trunk/apps/EeePProg/linux/../BinFuncs.c ****       }else{ 
 155              		.loc 1 137 9 view .LVU63
 137:/home/hkh/git/eapidk-code-r76-trunk/apps/EeePProg/linux/../BinFuncs.c ****       }else{ 
 156              		.loc 1 137 12 is_stmt 0 view .LVU64
 157 0074 02302310 		eorne	r3, r3, r2
 134:/home/hkh/git/eapidk-code-r76-trunk/apps/EeePProg/linux/../BinFuncs.c ****       if (CRC & 0x8000){ 
 158              		.loc 1 134 23 is_stmt 1 view .LVU65
 159              	.LVL12:
 134:/home/hkh/git/eapidk-code-r76-trunk/apps/EeePProg/linux/../BinFuncs.c ****       if (CRC & 0x8000){ 
 160              		.loc 1 134 17 view .LVU66
 135:/home/hkh/git/eapidk-code-r76-trunk/apps/EeePProg/linux/../BinFuncs.c ****         CRC+=CRC; 
 161              		.loc 1 135 7 view .LVU67
 135:/home/hkh/git/eapidk-code-r76-trunk/apps/EeePProg/linux/../BinFuncs.c ****         CRC+=CRC; 
 162              		.loc 1 135 10 is_stmt 0 view .LVU68
 163 0078 020913E3 		tst	r3, #32768
 164              		.loc 1 139 12 view .LVU69
 165 007c 8330A0E1 		lsl	r3, r3, #1
 136:/home/hkh/git/eapidk-code-r76-trunk/apps/EeePProg/linux/../BinFuncs.c ****         CRC^=0x1021; 
 166              		.loc 1 136 9 is_stmt 1 view .LVU70
 137:/home/hkh/git/eapidk-code-r76-trunk/apps/EeePProg/linux/../BinFuncs.c ****       }else{ 
 167              		.loc 1 137 9 view .LVU71
 137:/home/hkh/git/eapidk-code-r76-trunk/apps/EeePProg/linux/../BinFuncs.c ****       }else{ 
 168              		.loc 1 137 12 is_stmt 0 view .LVU72
 169 0080 02302310 		eorne	r3, r3, r2
 134:/home/hkh/git/eapidk-code-r76-trunk/apps/EeePProg/linux/../BinFuncs.c ****       if (CRC & 0x8000){ 
 170              		.loc 1 134 23 is_stmt 1 view .LVU73
 171              	.LVL13:
 134:/home/hkh/git/eapidk-code-r76-trunk/apps/EeePProg/linux/../BinFuncs.c ****       if (CRC & 0x8000){ 
 172              		.loc 1 134 17 view .LVU74
 135:/home/hkh/git/eapidk-code-r76-trunk/apps/EeePProg/linux/../BinFuncs.c ****         CRC+=CRC; 
 173              		.loc 1 135 7 view .LVU75
 135:/home/hkh/git/eapidk-code-r76-trunk/apps/EeePProg/linux/../BinFuncs.c ****         CRC+=CRC; 
 174              		.loc 1 135 10 is_stmt 0 view .LVU76
 175 0084 020913E3 		tst	r3, #32768
 176              		.loc 1 139 12 view .LVU77
 177 0088 8330A0E1 		lsl	r3, r3, #1
 136:/home/hkh/git/eapidk-code-r76-trunk/apps/EeePProg/linux/../BinFuncs.c ****         CRC^=0x1021; 
 178              		.loc 1 136 9 is_stmt 1 view .LVU78
 137:/home/hkh/git/eapidk-code-r76-trunk/apps/EeePProg/linux/../BinFuncs.c ****       }else{ 
 179              		.loc 1 137 9 view .LVU79
 137:/home/hkh/git/eapidk-code-r76-trunk/apps/EeePProg/linux/../BinFuncs.c ****       }else{ 
 180              		.loc 1 137 12 is_stmt 0 view .LVU80
 181 008c 02302310 		eorne	r3, r3, r2
 134:/home/hkh/git/eapidk-code-r76-trunk/apps/EeePProg/linux/../BinFuncs.c ****       if (CRC & 0x8000){ 
 182              		.loc 1 134 23 is_stmt 1 view .LVU81
 183              	.LVL14:
 134:/home/hkh/git/eapidk-code-r76-trunk/apps/EeePProg/linux/../BinFuncs.c ****       if (CRC & 0x8000){ 
 184              		.loc 1 134 17 view .LVU82
 135:/home/hkh/git/eapidk-code-r76-trunk/apps/EeePProg/linux/../BinFuncs.c ****         CRC+=CRC; 
 185              		.loc 1 135 7 view .LVU83
ARM GAS  /tmp/ccf3bFwG.s 			page 8


 135:/home/hkh/git/eapidk-code-r76-trunk/apps/EeePProg/linux/../BinFuncs.c ****         CRC+=CRC; 
 186              		.loc 1 135 10 is_stmt 0 view .LVU84
 187 0090 020913E3 		tst	r3, #32768
 188              		.loc 1 139 12 view .LVU85
 189 0094 8330A0E1 		lsl	r3, r3, #1
 136:/home/hkh/git/eapidk-code-r76-trunk/apps/EeePProg/linux/../BinFuncs.c ****         CRC^=0x1021; 
 190              		.loc 1 136 9 is_stmt 1 view .LVU86
 137:/home/hkh/git/eapidk-code-r76-trunk/apps/EeePProg/linux/../BinFuncs.c ****       }else{ 
 191              		.loc 1 137 9 view .LVU87
 137:/home/hkh/git/eapidk-code-r76-trunk/apps/EeePProg/linux/../BinFuncs.c ****       }else{ 
 192              		.loc 1 137 12 is_stmt 0 view .LVU88
 193 0098 02302310 		eorne	r3, r3, r2
 194              	.LVL15:
 132:/home/hkh/git/eapidk-code-r76-trunk/apps/EeePProg/linux/../BinFuncs.c ****     CRC^= *pcu8Buffer++ << 8; 
 195              		.loc 1 132 10 is_stmt 1 view .LVU89
 132:/home/hkh/git/eapidk-code-r76-trunk/apps/EeePProg/linux/../BinFuncs.c ****     CRC^= *pcu8Buffer++ << 8; 
 196              		.loc 1 132 10 is_stmt 0 view .LVU90
 197 009c 000051E1 		cmp	r1, r0
 198 00a0 E3FFFF1A 		bne	.L13
 199              	.LVL16:
 200              	.L4:
 140:/home/hkh/git/eapidk-code-r76-trunk/apps/EeePProg/linux/../BinFuncs.c ****       }
 141:/home/hkh/git/eapidk-code-r76-trunk/apps/EeePProg/linux/../BinFuncs.c ****     }
 142:/home/hkh/git/eapidk-code-r76-trunk/apps/EeePProg/linux/../BinFuncs.c ****   }
 143:/home/hkh/git/eapidk-code-r76-trunk/apps/EeePProg/linux/../BinFuncs.c ****   pCRC->CRC=CRC;
 201              		.loc 1 143 3 is_stmt 1 view .LVU91
 117:/home/hkh/git/eapidk-code-r76-trunk/apps/EeePProg/linux/../BinFuncs.c ****   const uint8_t *pcu8Buffer     =pcvBuffer; 
 202              		.loc 1 117 16 is_stmt 0 view .LVU92
 203 00a4 0000A0E3 		mov	r0, #0
 144:/home/hkh/git/eapidk-code-r76-trunk/apps/EeePProg/linux/../BinFuncs.c **** 
 145:/home/hkh/git/eapidk-code-r76-trunk/apps/EeePProg/linux/../BinFuncs.c **** EAPI_APP_ASSERT_EXIT
 146:/home/hkh/git/eapidk-code-r76-trunk/apps/EeePProg/linux/../BinFuncs.c ****   return StatusCode;
 204              		.loc 1 146 3 is_stmt 1 view .LVU93
 143:/home/hkh/git/eapidk-code-r76-trunk/apps/EeePProg/linux/../BinFuncs.c **** 
 205              		.loc 1 143 12 is_stmt 0 view .LVU94
 206 00a8 00308EE5 		str	r3, [lr]
 207              	.L3:
 208              	.LVL17:
 209              	.L1:
 147:/home/hkh/git/eapidk-code-r76-trunk/apps/EeePProg/linux/../BinFuncs.c **** }
 210              		.loc 1 147 1 view .LVU95
 211 00ac 10D08DE2 		add	sp, sp, #16
 212              		.cfi_remember_state
 213              		.cfi_def_cfa_offset 8
 214              		@ sp needed
 215 00b0 1080BDE8 		pop	{r4, pc}
 216              	.LVL18:
 217              	.L44:
 218              		.cfi_restore_state
 219              	.LBB22:
 220              	.LBI22:
 111:/home/hkh/git/eapidk-code-r76-trunk/apps/EeePProg/linux/../BinFuncs.c ****     __IN       void *pContext , /* CRC Context       */
 221              		.loc 1 111 1 is_stmt 1 view .LVU96
 222              	.LBB23:
 122:/home/hkh/git/eapidk-code-r76-trunk/apps/EeePProg/linux/../BinFuncs.c ****       u16CRC_CCITT_bytes,
 223              		.loc 1 122 3 view .LVU97
 122:/home/hkh/git/eapidk-code-r76-trunk/apps/EeePProg/linux/../BinFuncs.c ****       u16CRC_CCITT_bytes,
ARM GAS  /tmp/ccf3bFwG.s 			page 9


 224              		.loc 1 122 3 view .LVU98
 225 00b4 38C09FE5 		ldr	ip, .L45
 226 00b8 014CE0E3 		mvn	r4, #256
 227 00bc 34009FE5 		ldr	r0, .L45+4
 228              	.LVL19:
 122:/home/hkh/git/eapidk-code-r76-trunk/apps/EeePProg/linux/../BinFuncs.c ****       u16CRC_CCITT_bytes,
 229              		.loc 1 122 3 is_stmt 0 view .LVU99
 230 00c0 7A30A0E3 		mov	r3, #122
 231              	.LVL20:
 122:/home/hkh/git/eapidk-code-r76-trunk/apps/EeePProg/linux/../BinFuncs.c ****       u16CRC_CCITT_bytes,
 232              		.loc 1 122 3 view .LVU100
 233 00c4 30209FE5 		ldr	r2, .L45+8
 234              	.LVL21:
 122:/home/hkh/git/eapidk-code-r76-trunk/apps/EeePProg/linux/../BinFuncs.c ****       u16CRC_CCITT_bytes,
 235              		.loc 1 122 3 view .LVU101
 236 00c8 30109FE5 		ldr	r1, .L45+12
 237              	.LVL22:
 122:/home/hkh/git/eapidk-code-r76-trunk/apps/EeePProg/linux/../BinFuncs.c ****       u16CRC_CCITT_bytes,
 238              		.loc 1 122 3 view .LVU102
 239              	.LPIC2:
 240 00cc 0CC08FE0 		add	ip, pc, ip
 241              	.LPIC3:
 242 00d0 00008FE0 		add	r0, pc, r0
 243 00d4 00408DE5 		str	r4, [sp]
 244              	.LVL23:
 122:/home/hkh/git/eapidk-code-r76-trunk/apps/EeePProg/linux/../BinFuncs.c ****       u16CRC_CCITT_bytes,
 245              		.loc 1 122 3 view .LVU103
 246 00d8 01108DE9 		stmib	sp, {r0, ip}
 247              	.LPIC0:
 248 00dc 02208FE0 		add	r2, pc, r2
 249              	.LPIC1:
 250 00e0 01108FE0 		add	r1, pc, r1
 251 00e4 4500A0E3 		mov	r0, #69
 252 00e8 FEFFFFEB 		bl	siFormattedMessage_SC(PLT)
 253              	.LVL24:
 122:/home/hkh/git/eapidk-code-r76-trunk/apps/EeePProg/linux/../BinFuncs.c ****       u16CRC_CCITT_bytes,
 254              		.loc 1 122 3 is_stmt 1 view .LVU104
 122:/home/hkh/git/eapidk-code-r76-trunk/apps/EeePProg/linux/../BinFuncs.c ****       u16CRC_CCITT_bytes,
 255              		.loc 1 122 3 view .LVU105
 122:/home/hkh/git/eapidk-code-r76-trunk/apps/EeePProg/linux/../BinFuncs.c ****       u16CRC_CCITT_bytes,
 256              		.loc 1 122 3 view .LVU106
 257              	.LDL1:
 146:/home/hkh/git/eapidk-code-r76-trunk/apps/EeePProg/linux/../BinFuncs.c **** }
 258              		.loc 1 146 3 view .LVU107
 122:/home/hkh/git/eapidk-code-r76-trunk/apps/EeePProg/linux/../BinFuncs.c ****       u16CRC_CCITT_bytes,
 259              		.loc 1 122 3 is_stmt 0 view .LVU108
 260 00ec 0400A0E1 		mov	r0, r4
 261 00f0 EDFFFFEA 		b	.L1
 262              	.L46:
 263              		.align	2
 264              	.L45:
 265 00f4 20000000 		.word	.LC2-(.LPIC2+8)
 266 00f8 20000000 		.word	.LC3-(.LPIC3+8)
 267 00fc 18000000 		.word	.LC0-(.LPIC0+8)
 268 0100 18000000 		.word	.LC1-(.LPIC1+8)
 269              	.LBE23:
 270              	.LBE22:
ARM GAS  /tmp/ccf3bFwG.s 			page 10


 271              		.cfi_endproc
 272              	.LFE5:
 274              		.section	.rodata.str1.4
 275              		.align	2
 276              	.LC4:
 277 0074 75313643 		.ascii	"u16CRC_CCITT_init\000"
 277      52435F43 
 277      43495454 
 277      5F696E69 
 277      7400
 278 0086 0000     		.align	2
 279              	.LC5:
 280 0088 2870436F 		.ascii	"(pContext==NULL)\000"
 280      6E746578 
 280      743D3D4E 
 280      554C4C29 
 280      00
 281 0099 000000   		.align	2
 282              	.LC6:
 283 009c 28704352 		.ascii	"(pCRC==NULL)\000"
 283      433D3D4E 
 283      554C4C29 
 283      00
 284              		.text
 285              		.align	2
 286              		.global	u16CRC_CCITT_init
 287              		.syntax unified
 288              		.arm
 289              		.fpu vfpv3
 291              	u16CRC_CCITT_init:
 292              	.LVL25:
 293              	.LFB4:
  80:/home/hkh/git/eapidk-code-r76-trunk/apps/EeePProg/linux/../BinFuncs.c ****   EApiStatus_t StatusCode=EAPI_STATUS_SUCCESS;
 294              		.loc 1 80 1 is_stmt 1 view -0
 295              		.cfi_startproc
 296              		@ args = 0, pretend = 0, frame = 0
 297              		@ frame_needed = 0, uses_anonymous_args = 0
  81:/home/hkh/git/eapidk-code-r76-trunk/apps/EeePProg/linux/../BinFuncs.c ****   CRC_State_t * pCRC;
 298              		.loc 1 81 3 view .LVU110
  82:/home/hkh/git/eapidk-code-r76-trunk/apps/EeePProg/linux/../BinFuncs.c ****   EAPI_APP_ASSERT_PARAMATER_NULL(
 299              		.loc 1 82 3 view .LVU111
  83:/home/hkh/git/eapidk-code-r76-trunk/apps/EeePProg/linux/../BinFuncs.c ****       u16CRC_CCITT_init,
 300              		.loc 1 83 3 view .LVU112
  80:/home/hkh/git/eapidk-code-r76-trunk/apps/EeePProg/linux/../BinFuncs.c ****   EApiStatus_t StatusCode=EAPI_STATUS_SUCCESS;
 301              		.loc 1 80 1 is_stmt 0 view .LVU113
 302 0104 10402DE9 		push	{r4, lr}
 303              		.cfi_def_cfa_offset 8
 304              		.cfi_offset 4, -8
 305              		.cfi_offset 14, -4
  83:/home/hkh/git/eapidk-code-r76-trunk/apps/EeePProg/linux/../BinFuncs.c ****       u16CRC_CCITT_init,
 306              		.loc 1 83 3 view .LVU114
 307 0108 004050E2 		subs	r4, r0, #0
  80:/home/hkh/git/eapidk-code-r76-trunk/apps/EeePProg/linux/../BinFuncs.c ****   EApiStatus_t StatusCode=EAPI_STATUS_SUCCESS;
 308              		.loc 1 80 1 view .LVU115
 309 010c 10D04DE2 		sub	sp, sp, #16
 310              		.cfi_def_cfa_offset 24
  83:/home/hkh/git/eapidk-code-r76-trunk/apps/EeePProg/linux/../BinFuncs.c ****       u16CRC_CCITT_init,
ARM GAS  /tmp/ccf3bFwG.s 			page 11


 311              		.loc 1 83 3 view .LVU116
 312 0110 0A00000A 		beq	.L53
 313              	.L49:
  83:/home/hkh/git/eapidk-code-r76-trunk/apps/EeePProg/linux/../BinFuncs.c ****       u16CRC_CCITT_init,
 314              		.loc 1 83 3 is_stmt 1 discriminator 2 view .LVU117
  87:/home/hkh/git/eapidk-code-r76-trunk/apps/EeePProg/linux/../BinFuncs.c ****   *pContext=pCRC=malloc(sizeof(CRC_State_t));
 315              		.loc 1 87 8 discriminator 2 view .LVU118
  88:/home/hkh/git/eapidk-code-r76-trunk/apps/EeePProg/linux/../BinFuncs.c ****   EAPI_APP_ASSERT_PARAMATER_NULL(
 316              		.loc 1 88 3 discriminator 2 view .LVU119
  88:/home/hkh/git/eapidk-code-r76-trunk/apps/EeePProg/linux/../BinFuncs.c ****   EAPI_APP_ASSERT_PARAMATER_NULL(
 317              		.loc 1 88 18 is_stmt 0 discriminator 2 view .LVU120
 318 0114 0800A0E3 		mov	r0, #8
 319              	.LVL26:
  88:/home/hkh/git/eapidk-code-r76-trunk/apps/EeePProg/linux/../BinFuncs.c ****   EAPI_APP_ASSERT_PARAMATER_NULL(
 320              		.loc 1 88 18 discriminator 2 view .LVU121
 321 0118 FEFFFFEB 		bl	malloc(PLT)
 322              	.LVL27:
  89:/home/hkh/git/eapidk-code-r76-trunk/apps/EeePProg/linux/../BinFuncs.c ****       u16CRC_CCITT_init,
 323              		.loc 1 89 3 discriminator 2 view .LVU122
 324 011c 000050E3 		cmp	r0, #0
  88:/home/hkh/git/eapidk-code-r76-trunk/apps/EeePProg/linux/../BinFuncs.c ****   EAPI_APP_ASSERT_PARAMATER_NULL(
 325              		.loc 1 88 18 discriminator 2 view .LVU123
 326 0120 0030A0E1 		mov	r3, r0
 327              	.LVL28:
  94:/home/hkh/git/eapidk-code-r76-trunk/apps/EeePProg/linux/../BinFuncs.c ****   pCRC->Cnt=0;
 328              		.loc 1 94 12 discriminator 2 view .LVU124
 329 0124 210BDF1D 		vldrne.64	d16, .L55	@ int
  88:/home/hkh/git/eapidk-code-r76-trunk/apps/EeePProg/linux/../BinFuncs.c ****   EAPI_APP_ASSERT_PARAMATER_NULL(
 330              		.loc 1 88 12 discriminator 2 view .LVU125
 331 0128 000084E5 		str	r0, [r4]
  89:/home/hkh/git/eapidk-code-r76-trunk/apps/EeePProg/linux/../BinFuncs.c ****       u16CRC_CCITT_init,
 332              		.loc 1 89 3 is_stmt 1 discriminator 2 view .LVU126
  81:/home/hkh/git/eapidk-code-r76-trunk/apps/EeePProg/linux/../BinFuncs.c ****   CRC_State_t * pCRC;
 333              		.loc 1 81 16 is_stmt 0 discriminator 2 view .LVU127
 334 012c 0000A013 		movne	r0, #0
 335              	.LVL29:
  98:/home/hkh/git/eapidk-code-r76-trunk/apps/EeePProg/linux/../BinFuncs.c **** }
 336              		.loc 1 98 3 is_stmt 1 discriminator 2 view .LVU128
  94:/home/hkh/git/eapidk-code-r76-trunk/apps/EeePProg/linux/../BinFuncs.c ****   pCRC->Cnt=0;
 337              		.loc 1 94 12 is_stmt 0 discriminator 2 view .LVU129
 338 0130 000BC31D 		vstrne.64	d16, [r3]	@ int
  89:/home/hkh/git/eapidk-code-r76-trunk/apps/EeePProg/linux/../BinFuncs.c ****       u16CRC_CCITT_init,
 339              		.loc 1 89 3 discriminator 2 view .LVU130
 340 0134 1200000A 		beq	.L54
  99:/home/hkh/git/eapidk-code-r76-trunk/apps/EeePProg/linux/../BinFuncs.c **** 
 341              		.loc 1 99 1 view .LVU131
 342 0138 10D08DE2 		add	sp, sp, #16
 343              		.cfi_remember_state
 344              		.cfi_def_cfa_offset 8
 345              		@ sp needed
 346 013c 1080BDE8 		pop	{r4, pc}
 347              	.LVL30:
 348              	.L53:
 349              		.cfi_restore_state
  83:/home/hkh/git/eapidk-code-r76-trunk/apps/EeePProg/linux/../BinFuncs.c ****       u16CRC_CCITT_init,
 350              		.loc 1 83 3 is_stmt 1 discriminator 1 view .LVU132
  83:/home/hkh/git/eapidk-code-r76-trunk/apps/EeePProg/linux/../BinFuncs.c ****       u16CRC_CCITT_init,
ARM GAS  /tmp/ccf3bFwG.s 			page 12


 351              		.loc 1 83 3 discriminator 1 view .LVU133
 352 0140 70C09FE5 		ldr	ip, .L55+8
 353 0144 014CE0E3 		mvn	r4, #256
 354 0148 6C009FE5 		ldr	r0, .L55+12
 355              	.LVL31:
  83:/home/hkh/git/eapidk-code-r76-trunk/apps/EeePProg/linux/../BinFuncs.c ****       u16CRC_CCITT_init,
 356              		.loc 1 83 3 is_stmt 0 discriminator 1 view .LVU134
 357 014c 5330A0E3 		mov	r3, #83
 358 0150 68209FE5 		ldr	r2, .L55+16
 359 0154 68109FE5 		ldr	r1, .L55+20
 360              	.LPIC6:
 361 0158 0CC08FE0 		add	ip, pc, ip
 362              	.LPIC7:
 363 015c 00008FE0 		add	r0, pc, r0
 364              	.LPIC4:
 365 0160 02208FE0 		add	r2, pc, r2
 366              	.LPIC5:
 367 0164 01108FE0 		add	r1, pc, r1
 368              	.L52:
 369              	.LBB26:
 370              	.LBB27:
  89:/home/hkh/git/eapidk-code-r76-trunk/apps/EeePProg/linux/../BinFuncs.c ****       u16CRC_CCITT_init,
 371              		.loc 1 89 3 view .LVU135
 372 0168 01108DE9 		stmib	sp, {r0, ip}
 373 016c 4500A0E3 		mov	r0, #69
 374 0170 00408DE5 		str	r4, [sp]
 375 0174 FEFFFFEB 		bl	siFormattedMessage_SC(PLT)
 376              	.LVL32:
  89:/home/hkh/git/eapidk-code-r76-trunk/apps/EeePProg/linux/../BinFuncs.c ****       u16CRC_CCITT_init,
 377              		.loc 1 89 3 is_stmt 1 view .LVU136
  89:/home/hkh/git/eapidk-code-r76-trunk/apps/EeePProg/linux/../BinFuncs.c ****       u16CRC_CCITT_init,
 378              		.loc 1 89 3 view .LVU137
  89:/home/hkh/git/eapidk-code-r76-trunk/apps/EeePProg/linux/../BinFuncs.c ****       u16CRC_CCITT_init,
 379              		.loc 1 89 3 view .LVU138
 380              	.LDL2:
  98:/home/hkh/git/eapidk-code-r76-trunk/apps/EeePProg/linux/../BinFuncs.c **** }
 381              		.loc 1 98 3 view .LVU139
  89:/home/hkh/git/eapidk-code-r76-trunk/apps/EeePProg/linux/../BinFuncs.c ****       u16CRC_CCITT_init,
 382              		.loc 1 89 3 is_stmt 0 view .LVU140
 383 0178 0400A0E1 		mov	r0, r4
 384              	.LBE27:
 385              	.LBE26:
  99:/home/hkh/git/eapidk-code-r76-trunk/apps/EeePProg/linux/../BinFuncs.c **** 
 386              		.loc 1 99 1 view .LVU141
 387 017c 10D08DE2 		add	sp, sp, #16
 388              		.cfi_remember_state
 389              		.cfi_def_cfa_offset 8
 390              		@ sp needed
 391 0180 1080BDE8 		pop	{r4, pc}
 392              	.LVL33:
 393              	.L54:
 394              		.cfi_restore_state
 395              	.LBB29:
 396              	.LBI26:
  77:/home/hkh/git/eapidk-code-r76-trunk/apps/EeePProg/linux/../BinFuncs.c ****     void**pContext
 397              		.loc 1 77 1 is_stmt 1 view .LVU142
 398              	.LBB28:
ARM GAS  /tmp/ccf3bFwG.s 			page 13


  89:/home/hkh/git/eapidk-code-r76-trunk/apps/EeePProg/linux/../BinFuncs.c ****       u16CRC_CCITT_init,
 399              		.loc 1 89 3 view .LVU143
  89:/home/hkh/git/eapidk-code-r76-trunk/apps/EeePProg/linux/../BinFuncs.c ****       u16CRC_CCITT_init,
 400              		.loc 1 89 3 view .LVU144
 401 0184 3CC09FE5 		ldr	ip, .L55+24
 402 0188 0240E0E3 		mvn	r4, #2
 403              	.LVL34:
  89:/home/hkh/git/eapidk-code-r76-trunk/apps/EeePProg/linux/../BinFuncs.c ****       u16CRC_CCITT_init,
 404              		.loc 1 89 3 is_stmt 0 view .LVU145
 405 018c 38009FE5 		ldr	r0, .L55+28
 406 0190 5930A0E3 		mov	r3, #89
 407              	.LVL35:
  89:/home/hkh/git/eapidk-code-r76-trunk/apps/EeePProg/linux/../BinFuncs.c ****       u16CRC_CCITT_init,
 408              		.loc 1 89 3 view .LVU146
 409 0194 34209FE5 		ldr	r2, .L55+32
 410 0198 34109FE5 		ldr	r1, .L55+36
 411              	.LPIC10:
 412 019c 0CC08FE0 		add	ip, pc, ip
 413              	.LPIC11:
 414 01a0 00008FE0 		add	r0, pc, r0
 415              	.LPIC8:
 416 01a4 02208FE0 		add	r2, pc, r2
 417              	.LPIC9:
 418 01a8 01108FE0 		add	r1, pc, r1
 419 01ac EDFFFFEA 		b	.L52
 420              	.L56:
 421              		.align	3
 422              	.L55:
 423 01b0 00000000 		.word	0
 424 01b4 00000000 		.word	0
 425 01b8 58000000 		.word	.LC5-(.LPIC6+8)
 426 01bc 58000000 		.word	.LC3-(.LPIC7+8)
 427 01c0 58000000 		.word	.LC4-(.LPIC4+8)
 428 01c4 58000000 		.word	.LC1-(.LPIC5+8)
 429 01c8 24000000 		.word	.LC6-(.LPIC10+8)
 430 01cc 24000000 		.word	.LC3-(.LPIC11+8)
 431 01d0 24000000 		.word	.LC4-(.LPIC8+8)
 432 01d4 24000000 		.word	.LC1-(.LPIC9+8)
 433              	.LBE28:
 434              	.LBE29:
 435              		.cfi_endproc
 436              	.LFE4:
 438              		.section	.rodata.str1.4
 439 00a9 000000   		.align	2
 440              	.LC7:
 441 00ac 75313643 		.ascii	"u16CRC_CCITT_fini\000"
 441      52435F43 
 441      43495454 
 441      5F66696E 
 441      6900
 442 00be 0000     		.align	2
 443              	.LC8:
 444 00c0 28707644 		.ascii	"(pvDigest==NULL)\000"
 444      69676573 
 444      743D3D4E 
 444      554C4C29 
 444      00
ARM GAS  /tmp/ccf3bFwG.s 			page 14


 445              		.text
 446              		.align	2
 447              		.global	u16CRC_CCITT_fini
 448              		.syntax unified
 449              		.arm
 450              		.fpu vfpv3
 452              	u16CRC_CCITT_fini:
 453              	.LVL36:
 454              	.LFB6:
 148:/home/hkh/git/eapidk-code-r76-trunk/apps/EeePProg/linux/../BinFuncs.c **** EApiStatus_t
 149:/home/hkh/git/eapidk-code-r76-trunk/apps/EeePProg/linux/../BinFuncs.c **** u16CRC_CCITT_fini  (
 150:/home/hkh/git/eapidk-code-r76-trunk/apps/EeePProg/linux/../BinFuncs.c ****     __IN      void **pContext,  /* CRC Context       */
 151:/home/hkh/git/eapidk-code-r76-trunk/apps/EeePProg/linux/../BinFuncs.c ****     __OUT     void  *pvDigest   /* Pointer to Buffer */
 152:/home/hkh/git/eapidk-code-r76-trunk/apps/EeePProg/linux/../BinFuncs.c ****   )
 153:/home/hkh/git/eapidk-code-r76-trunk/apps/EeePProg/linux/../BinFuncs.c **** {
 455              		.loc 1 153 1 is_stmt 1 view -0
 456              		.cfi_startproc
 457              		@ args = 0, pretend = 0, frame = 0
 458              		@ frame_needed = 0, uses_anonymous_args = 0
 154:/home/hkh/git/eapidk-code-r76-trunk/apps/EeePProg/linux/../BinFuncs.c ****   EApiStatus_t StatusCode=EAPI_STATUS_SUCCESS;
 459              		.loc 1 154 3 view .LVU148
 155:/home/hkh/git/eapidk-code-r76-trunk/apps/EeePProg/linux/../BinFuncs.c ****   CRC_State_t * pCRC=*pContext;
 460              		.loc 1 155 3 view .LVU149
 153:/home/hkh/git/eapidk-code-r76-trunk/apps/EeePProg/linux/../BinFuncs.c ****   EApiStatus_t StatusCode=EAPI_STATUS_SUCCESS;
 461              		.loc 1 153 1 is_stmt 0 view .LVU150
 462 01d8 70402DE9 		push	{r4, r5, r6, lr}
 463              		.cfi_def_cfa_offset 16
 464              		.cfi_offset 4, -16
 465              		.cfi_offset 5, -12
 466              		.cfi_offset 6, -8
 467              		.cfi_offset 14, -4
 468 01dc 0050A0E1 		mov	r5, r0
 469              		.loc 1 155 17 view .LVU151
 470 01e0 000090E5 		ldr	r0, [r0]
 471              	.LVL37:
 156:/home/hkh/git/eapidk-code-r76-trunk/apps/EeePProg/linux/../BinFuncs.c ****   unsigned      CRC=pCRC->CRC;
 472              		.loc 1 156 3 is_stmt 1 view .LVU152
 157:/home/hkh/git/eapidk-code-r76-trunk/apps/EeePProg/linux/../BinFuncs.c ****   EAPI_APP_ASSERT_PARAMATER_NULL(
 473              		.loc 1 157 3 is_stmt 0 view .LVU153
 474 01e4 004051E2 		subs	r4, r1, #0
 153:/home/hkh/git/eapidk-code-r76-trunk/apps/EeePProg/linux/../BinFuncs.c ****   EApiStatus_t StatusCode=EAPI_STATUS_SUCCESS;
 475              		.loc 1 153 1 view .LVU154
 476 01e8 10D04DE2 		sub	sp, sp, #16
 477              		.cfi_def_cfa_offset 32
 156:/home/hkh/git/eapidk-code-r76-trunk/apps/EeePProg/linux/../BinFuncs.c ****   unsigned      CRC=pCRC->CRC;
 478              		.loc 1 156 17 view .LVU155
 479 01ec 006090E5 		ldr	r6, [r0]
 480              	.LVL38:
 481              		.loc 1 157 3 is_stmt 1 view .LVU156
 482 01f0 0800000A 		beq	.L61
 483              	.L59:
 484              		.loc 1 157 3 discriminator 2 view .LVU157
 158:/home/hkh/git/eapidk-code-r76-trunk/apps/EeePProg/linux/../BinFuncs.c ****       u16CRC_CCITT_fini,
 159:/home/hkh/git/eapidk-code-r76-trunk/apps/EeePProg/linux/../BinFuncs.c ****       EAPI_STATUS_INVALID_PARAMETER,
 160:/home/hkh/git/eapidk-code-r76-trunk/apps/EeePProg/linux/../BinFuncs.c ****       pvDigest
 161:/home/hkh/git/eapidk-code-r76-trunk/apps/EeePProg/linux/../BinFuncs.c ****       );
 485              		.loc 1 161 8 discriminator 2 view .LVU158
ARM GAS  /tmp/ccf3bFwG.s 			page 15


 162:/home/hkh/git/eapidk-code-r76-trunk/apps/EeePProg/linux/../BinFuncs.c **** /*   printf("L%04i 0x%04X 0x%04lX\n", __LINE__, pCRC->CRC&0xFFFF, (unsigned long)pCRC->Cnt); */
 163:/home/hkh/git/eapidk-code-r76-trunk/apps/EeePProg/linux/../BinFuncs.c ****   free(*pContext);
 486              		.loc 1 163 3 discriminator 2 view .LVU159
 487 01f4 FEFFFFEB 		bl	free(PLT)
 488              	.LVL39:
 164:/home/hkh/git/eapidk-code-r76-trunk/apps/EeePProg/linux/../BinFuncs.c ****   *pContext=NULL;
 489              		.loc 1 164 3 discriminator 2 view .LVU160
 490              		.loc 1 164 12 is_stmt 0 discriminator 2 view .LVU161
 491 01f8 0030A0E3 		mov	r3, #0
 492              	.LBB38:
 493              	.LBB39:
 165:/home/hkh/git/eapidk-code-r76-trunk/apps/EeePProg/linux/../BinFuncs.c **** 
 166:/home/hkh/git/eapidk-code-r76-trunk/apps/EeePProg/linux/../BinFuncs.c ****   EeeP_Set16BitValue_BE(pvDigest, EEEP_LO_UINT16(CRC));
 167:/home/hkh/git/eapidk-code-r76-trunk/apps/EeePProg/linux/../BinFuncs.c **** EAPI_APP_ASSERT_EXIT
 168:/home/hkh/git/eapidk-code-r76-trunk/apps/EeePProg/linux/../BinFuncs.c ****   return StatusCode;
 169:/home/hkh/git/eapidk-code-r76-trunk/apps/EeePProg/linux/../BinFuncs.c **** }
 170:/home/hkh/git/eapidk-code-r76-trunk/apps/EeePProg/linux/../BinFuncs.c **** EApiStatus_t
 171:/home/hkh/git/eapidk-code-r76-trunk/apps/EeePProg/linux/../BinFuncs.c **** u16CRC_CCITT_verify  (
 172:/home/hkh/git/eapidk-code-r76-trunk/apps/EeePProg/linux/../BinFuncs.c ****     __IN       void**pContext,  /* CRC Context       */
 173:/home/hkh/git/eapidk-code-r76-trunk/apps/EeePProg/linux/../BinFuncs.c ****     __OUT      void *pvDigest   /* Pointer to Buffer */
 174:/home/hkh/git/eapidk-code-r76-trunk/apps/EeePProg/linux/../BinFuncs.c ****   )
 175:/home/hkh/git/eapidk-code-r76-trunk/apps/EeePProg/linux/../BinFuncs.c **** {
 176:/home/hkh/git/eapidk-code-r76-trunk/apps/EeePProg/linux/../BinFuncs.c ****   EApiStatus_t StatusCode=EAPI_STATUS_SUCCESS;
 177:/home/hkh/git/eapidk-code-r76-trunk/apps/EeePProg/linux/../BinFuncs.c ****   uint8_t Digest[2];
 178:/home/hkh/git/eapidk-code-r76-trunk/apps/EeePProg/linux/../BinFuncs.c **** 
 179:/home/hkh/git/eapidk-code-r76-trunk/apps/EeePProg/linux/../BinFuncs.c ****   DO(u16CRC_CCITT_fini(pContext, Digest));
 180:/home/hkh/git/eapidk-code-r76-trunk/apps/EeePProg/linux/../BinFuncs.c **** 
 181:/home/hkh/git/eapidk-code-r76-trunk/apps/EeePProg/linux/../BinFuncs.c ****   EAPI_APP_RETURN_ERROR_IF(
 182:/home/hkh/git/eapidk-code-r76-trunk/apps/EeePProg/linux/../BinFuncs.c ****       u16CRC_CCITT_verify,
 183:/home/hkh/git/eapidk-code-r76-trunk/apps/EeePProg/linux/../BinFuncs.c ****       memcmp(Digest, pvDigest, sizeof(Digest)),
 184:/home/hkh/git/eapidk-code-r76-trunk/apps/EeePProg/linux/../BinFuncs.c ****       EAPI_STATUS_ERROR,
 185:/home/hkh/git/eapidk-code-r76-trunk/apps/EeePProg/linux/../BinFuncs.c ****       "Invalid CRC CCITT"
 186:/home/hkh/git/eapidk-code-r76-trunk/apps/EeePProg/linux/../BinFuncs.c ****       );
 187:/home/hkh/git/eapidk-code-r76-trunk/apps/EeePProg/linux/../BinFuncs.c **** 
 188:/home/hkh/git/eapidk-code-r76-trunk/apps/EeePProg/linux/../BinFuncs.c **** EAPI_APP_ASSERT_EXIT
 189:/home/hkh/git/eapidk-code-r76-trunk/apps/EeePProg/linux/../BinFuncs.c ****   return StatusCode;
 190:/home/hkh/git/eapidk-code-r76-trunk/apps/EeePProg/linux/../BinFuncs.c **** }
 191:/home/hkh/git/eapidk-code-r76-trunk/apps/EeePProg/linux/../BinFuncs.c **** 
 192:/home/hkh/git/eapidk-code-r76-trunk/apps/EeePProg/linux/../BinFuncs.c **** EApiStatus_t
 193:/home/hkh/git/eapidk-code-r76-trunk/apps/EeePProg/linux/../BinFuncs.c **** u16CRC_CCITT (
 194:/home/hkh/git/eapidk-code-r76-trunk/apps/EeePProg/linux/../BinFuncs.c ****     __IN const void    *pcvBuffer, /* Pointer to Buffer */
 195:/home/hkh/git/eapidk-code-r76-trunk/apps/EeePProg/linux/../BinFuncs.c ****     __IN       size_t   stCount  , /* Num bytes to CRC  */
 196:/home/hkh/git/eapidk-code-r76-trunk/apps/EeePProg/linux/../BinFuncs.c ****     __OUT      void    *pvDigest   /* Pointer to Buffer */
 197:/home/hkh/git/eapidk-code-r76-trunk/apps/EeePProg/linux/../BinFuncs.c ****   )
 198:/home/hkh/git/eapidk-code-r76-trunk/apps/EeePProg/linux/../BinFuncs.c **** { 
 199:/home/hkh/git/eapidk-code-r76-trunk/apps/EeePProg/linux/../BinFuncs.c ****   EApiStatus_t StatusCode=EAPI_STATUS_SUCCESS;
 200:/home/hkh/git/eapidk-code-r76-trunk/apps/EeePProg/linux/../BinFuncs.c ****   void * pContext;
 201:/home/hkh/git/eapidk-code-r76-trunk/apps/EeePProg/linux/../BinFuncs.c ****   DO(u16CRC_CCITT_init(&pContext));
 202:/home/hkh/git/eapidk-code-r76-trunk/apps/EeePProg/linux/../BinFuncs.c ****   DO(u16CRC_CCITT_bytes(pContext, pcvBuffer, stCount));
 203:/home/hkh/git/eapidk-code-r76-trunk/apps/EeePProg/linux/../BinFuncs.c ****   DO(u16CRC_CCITT_fini(&pContext, pvDigest));
 204:/home/hkh/git/eapidk-code-r76-trunk/apps/EeePProg/linux/../BinFuncs.c **** EAPI_APP_ASSERT_EXIT
 205:/home/hkh/git/eapidk-code-r76-trunk/apps/EeePProg/linux/../BinFuncs.c ****   return StatusCode;
 206:/home/hkh/git/eapidk-code-r76-trunk/apps/EeePProg/linux/../BinFuncs.c **** }
 207:/home/hkh/git/eapidk-code-r76-trunk/apps/EeePProg/linux/../BinFuncs.c **** HashFunc_t CRC_CCITT={
 208:/home/hkh/git/eapidk-code-r76-trunk/apps/EeePProg/linux/../BinFuncs.c ****     u16CRC_CCITT_init   ,
 209:/home/hkh/git/eapidk-code-r76-trunk/apps/EeePProg/linux/../BinFuncs.c ****     u16CRC_CCITT_bytes  ,
 210:/home/hkh/git/eapidk-code-r76-trunk/apps/EeePProg/linux/../BinFuncs.c ****     u16CRC_CCITT_fini   ,
ARM GAS  /tmp/ccf3bFwG.s 			page 16


 211:/home/hkh/git/eapidk-code-r76-trunk/apps/EeePProg/linux/../BinFuncs.c ****     u16CRC_CCITT_verify ,
 212:/home/hkh/git/eapidk-code-r76-trunk/apps/EeePProg/linux/../BinFuncs.c ****     sizeof(uint16_t)
 213:/home/hkh/git/eapidk-code-r76-trunk/apps/EeePProg/linux/../BinFuncs.c **** };
 214:/home/hkh/git/eapidk-code-r76-trunk/apps/EeePProg/linux/../BinFuncs.c **** 
 215:/home/hkh/git/eapidk-code-r76-trunk/apps/EeePProg/linux/../BinFuncs.c **** /*
 216:/home/hkh/git/eapidk-code-r76-trunk/apps/EeePProg/linux/../BinFuncs.c ****  *
 217:/home/hkh/git/eapidk-code-r76-trunk/apps/EeePProg/linux/../BinFuncs.c ****  *
 218:/home/hkh/git/eapidk-code-r76-trunk/apps/EeePProg/linux/../BinFuncs.c ****  *
 219:/home/hkh/git/eapidk-code-r76-trunk/apps/EeePProg/linux/../BinFuncs.c ****  *  PrintHexTable
 220:/home/hkh/git/eapidk-code-r76-trunk/apps/EeePProg/linux/../BinFuncs.c ****  *
 221:/home/hkh/git/eapidk-code-r76-trunk/apps/EeePProg/linux/../BinFuncs.c ****  *
 222:/home/hkh/git/eapidk-code-r76-trunk/apps/EeePProg/linux/../BinFuncs.c ****  *
 223:/home/hkh/git/eapidk-code-r76-trunk/apps/EeePProg/linux/../BinFuncs.c ****  */
 224:/home/hkh/git/eapidk-code-r76-trunk/apps/EeePProg/linux/../BinFuncs.c **** TCHAR
 225:/home/hkh/git/eapidk-code-r76-trunk/apps/EeePProg/linux/../BinFuncs.c **** cBin2Ascii(
 226:/home/hkh/git/eapidk-code-r76-trunk/apps/EeePProg/linux/../BinFuncs.c ****     __IN  unsigned int uiValue
 227:/home/hkh/git/eapidk-code-r76-trunk/apps/EeePProg/linux/../BinFuncs.c ****   )
 228:/home/hkh/git/eapidk-code-r76-trunk/apps/EeePProg/linux/../BinFuncs.c **** {
 229:/home/hkh/git/eapidk-code-r76-trunk/apps/EeePProg/linux/../BinFuncs.c ****   if(uiValue>=0x20&&uiValue<=0x7F){
 230:/home/hkh/git/eapidk-code-r76-trunk/apps/EeePProg/linux/../BinFuncs.c ****     return (char)(uiValue);
 231:/home/hkh/git/eapidk-code-r76-trunk/apps/EeePProg/linux/../BinFuncs.c ****   }else{
 232:/home/hkh/git/eapidk-code-r76-trunk/apps/EeePProg/linux/../BinFuncs.c ****     return '.';
 233:/home/hkh/git/eapidk-code-r76-trunk/apps/EeePProg/linux/../BinFuncs.c ****   }
 234:/home/hkh/git/eapidk-code-r76-trunk/apps/EeePProg/linux/../BinFuncs.c **** }
 235:/home/hkh/git/eapidk-code-r76-trunk/apps/EeePProg/linux/../BinFuncs.c **** signed int
 236:/home/hkh/git/eapidk-code-r76-trunk/apps/EeePProg/linux/../BinFuncs.c **** siBin2Ascii(
 237:/home/hkh/git/eapidk-code-r76-trunk/apps/EeePProg/linux/../BinFuncs.c ****     __OUT TCHAR          *pszString ,
 238:/home/hkh/git/eapidk-code-r76-trunk/apps/EeePProg/linux/../BinFuncs.c ****     __IN  size_t          BufLength ,
 239:/home/hkh/git/eapidk-code-r76-trunk/apps/EeePProg/linux/../BinFuncs.c ****     __IN  const uint8_t  *pcu8Value ,
 240:/home/hkh/git/eapidk-code-r76-trunk/apps/EeePProg/linux/../BinFuncs.c ****     __IN  size_t          VarSize   ,
 241:/home/hkh/git/eapidk-code-r76-trunk/apps/EeePProg/linux/../BinFuncs.c ****     __IN  const unsigned  cFlags
 242:/home/hkh/git/eapidk-code-r76-trunk/apps/EeePProg/linux/../BinFuncs.c ****   )
 243:/home/hkh/git/eapidk-code-r76-trunk/apps/EeePProg/linux/../BinFuncs.c **** {
 244:/home/hkh/git/eapidk-code-r76-trunk/apps/EeePProg/linux/../BinFuncs.c ****     signed int StringPos=0;
 245:/home/hkh/git/eapidk-code-r76-trunk/apps/EeePProg/linux/../BinFuncs.c ****     size_t Bufpos;
 246:/home/hkh/git/eapidk-code-r76-trunk/apps/EeePProg/linux/../BinFuncs.c ****     for(Bufpos=0;Bufpos<VarSize;Bufpos++){
 247:/home/hkh/git/eapidk-code-r76-trunk/apps/EeePProg/linux/../BinFuncs.c ****       if(cFlags&HEXTBL_BIG_ENDIAN){
 248:/home/hkh/git/eapidk-code-r76-trunk/apps/EeePProg/linux/../BinFuncs.c ****         StringPos+=EApiSprintf(
 249:/home/hkh/git/eapidk-code-r76-trunk/apps/EeePProg/linux/../BinFuncs.c ****             pszString+StringPos   ,
 250:/home/hkh/git/eapidk-code-r76-trunk/apps/EeePProg/linux/../BinFuncs.c ****             BufLength - StringPos , 
 251:/home/hkh/git/eapidk-code-r76-trunk/apps/EeePProg/linux/../BinFuncs.c ****             TEXT("%02X")                , 
 252:/home/hkh/git/eapidk-code-r76-trunk/apps/EeePProg/linux/../BinFuncs.c ****             pcu8Value[VarSize - 1 - Bufpos]
 253:/home/hkh/git/eapidk-code-r76-trunk/apps/EeePProg/linux/../BinFuncs.c ****           );
 254:/home/hkh/git/eapidk-code-r76-trunk/apps/EeePProg/linux/../BinFuncs.c ****       }else{
 255:/home/hkh/git/eapidk-code-r76-trunk/apps/EeePProg/linux/../BinFuncs.c ****         StringPos+=EApiSprintf(
 256:/home/hkh/git/eapidk-code-r76-trunk/apps/EeePProg/linux/../BinFuncs.c ****             pszString+StringPos   , 
 257:/home/hkh/git/eapidk-code-r76-trunk/apps/EeePProg/linux/../BinFuncs.c ****             BufLength - StringPos , 
 258:/home/hkh/git/eapidk-code-r76-trunk/apps/EeePProg/linux/../BinFuncs.c ****             TEXT("%02X")                , 
 259:/home/hkh/git/eapidk-code-r76-trunk/apps/EeePProg/linux/../BinFuncs.c ****             pcu8Value[Bufpos]
 260:/home/hkh/git/eapidk-code-r76-trunk/apps/EeePProg/linux/../BinFuncs.c ****           );
 261:/home/hkh/git/eapidk-code-r76-trunk/apps/EeePProg/linux/../BinFuncs.c ****       }
 262:/home/hkh/git/eapidk-code-r76-trunk/apps/EeePProg/linux/../BinFuncs.c ****     }
 263:/home/hkh/git/eapidk-code-r76-trunk/apps/EeePProg/linux/../BinFuncs.c ****     return StringPos;
 264:/home/hkh/git/eapidk-code-r76-trunk/apps/EeePProg/linux/../BinFuncs.c **** }
 265:/home/hkh/git/eapidk-code-r76-trunk/apps/EeePProg/linux/../BinFuncs.c **** 
 266:/home/hkh/git/eapidk-code-r76-trunk/apps/EeePProg/linux/../BinFuncs.c **** EApiStatus_t
 267:/home/hkh/git/eapidk-code-r76-trunk/apps/EeePProg/linux/../BinFuncs.c **** PrintHexAsciiTableEx(
ARM GAS  /tmp/ccf3bFwG.s 			page 17


 268:/home/hkh/git/eapidk-code-r76-trunk/apps/EeePProg/linux/../BinFuncs.c **** 	const void *   pcvBuffer	,
 269:/home/hkh/git/eapidk-code-r76-trunk/apps/EeePProg/linux/../BinFuncs.c **** 	const size_t   stBufSize	,
 270:/home/hkh/git/eapidk-code-r76-trunk/apps/EeePProg/linux/../BinFuncs.c **** 	const void *   pcvBase		,
 271:/home/hkh/git/eapidk-code-r76-trunk/apps/EeePProg/linux/../BinFuncs.c **** 	const TCHAR *  pcszDescription,
 272:/home/hkh/git/eapidk-code-r76-trunk/apps/EeePProg/linux/../BinFuncs.c **** 	const unsigned cuiFlags
 273:/home/hkh/git/eapidk-code-r76-trunk/apps/EeePProg/linux/../BinFuncs.c **** 	)
 274:/home/hkh/git/eapidk-code-r76-trunk/apps/EeePProg/linux/../BinFuncs.c **** {
 275:/home/hkh/git/eapidk-code-r76-trunk/apps/EeePProg/linux/../BinFuncs.c ****   EApiStatus_t StatusCode=EAPI_STATUS_SUCCESS;
 276:/home/hkh/git/eapidk-code-r76-trunk/apps/EeePProg/linux/../BinFuncs.c ****     size_t        stOffset;
 277:/home/hkh/git/eapidk-code-r76-trunk/apps/EeePProg/linux/../BinFuncs.c ****     size_t        stOffsetBase;
 278:/home/hkh/git/eapidk-code-r76-trunk/apps/EeePProg/linux/../BinFuncs.c ****     const uint8_t *pcu8Mem;
 279:/home/hkh/git/eapidk-code-r76-trunk/apps/EeePProg/linux/../BinFuncs.c ****     const uint8_t *pcu8PageEnd;
 280:/home/hkh/git/eapidk-code-r76-trunk/apps/EeePProg/linux/../BinFuncs.c ****     size_t        stElementSize;
 281:/home/hkh/git/eapidk-code-r76-trunk/apps/EeePProg/linux/../BinFuncs.c ****     size_t        stElementCount;
 282:/home/hkh/git/eapidk-code-r76-trunk/apps/EeePProg/linux/../BinFuncs.c ****     size_t        stRowSize;
 283:/home/hkh/git/eapidk-code-r76-trunk/apps/EeePProg/linux/../BinFuncs.c ****     TCHAR  szAsciiBufer[100];
 284:/home/hkh/git/eapidk-code-r76-trunk/apps/EeePProg/linux/../BinFuncs.c **** 
 285:/home/hkh/git/eapidk-code-r76-trunk/apps/EeePProg/linux/../BinFuncs.c **** 
 286:/home/hkh/git/eapidk-code-r76-trunk/apps/EeePProg/linux/../BinFuncs.c ****     EAPI_APP_ASSERT_PARAMATER_NULL(
 287:/home/hkh/git/eapidk-code-r76-trunk/apps/EeePProg/linux/../BinFuncs.c ****         PrintHexAsciiTableEx,
 288:/home/hkh/git/eapidk-code-r76-trunk/apps/EeePProg/linux/../BinFuncs.c ****         EAPI_STATUS_INVALID_PARAMETER,
 289:/home/hkh/git/eapidk-code-r76-trunk/apps/EeePProg/linux/../BinFuncs.c ****          pcvBuffer
 290:/home/hkh/git/eapidk-code-r76-trunk/apps/EeePProg/linux/../BinFuncs.c ****         );
 291:/home/hkh/git/eapidk-code-r76-trunk/apps/EeePProg/linux/../BinFuncs.c ****     if(pcvBase==NULL)
 292:/home/hkh/git/eapidk-code-r76-trunk/apps/EeePProg/linux/../BinFuncs.c ****       pcvBase=pcvBuffer;
 293:/home/hkh/git/eapidk-code-r76-trunk/apps/EeePProg/linux/../BinFuncs.c **** 
 294:/home/hkh/git/eapidk-code-r76-trunk/apps/EeePProg/linux/../BinFuncs.c ****     pcu8Mem=pcvBase;
 295:/home/hkh/git/eapidk-code-r76-trunk/apps/EeePProg/linux/../BinFuncs.c **** 
 296:/home/hkh/git/eapidk-code-r76-trunk/apps/EeePProg/linux/../BinFuncs.c ****     stElementSize=1<<((cuiFlags&HEXTBL_WIDTH_MASK)>>12);
 297:/home/hkh/git/eapidk-code-r76-trunk/apps/EeePProg/linux/../BinFuncs.c ****     stElementCount=cuiFlags&HEXTBL_COUNT_MASK;
 298:/home/hkh/git/eapidk-code-r76-trunk/apps/EeePProg/linux/../BinFuncs.c ****     stRowSize=stElementCount*stElementSize;
 299:/home/hkh/git/eapidk-code-r76-trunk/apps/EeePProg/linux/../BinFuncs.c ****     pcu8PageEnd=((const uint8_t *)pcvBuffer)+stBufSize;
 300:/home/hkh/git/eapidk-code-r76-trunk/apps/EeePProg/linux/../BinFuncs.c **** 
 301:/home/hkh/git/eapidk-code-r76-trunk/apps/EeePProg/linux/../BinFuncs.c ****     if(pcszDescription!=NULL)
 302:/home/hkh/git/eapidk-code-r76-trunk/apps/EeePProg/linux/../BinFuncs.c ****       EAPI_printf(TEXT("\n%s\n"), pcszDescription);
 303:/home/hkh/git/eapidk-code-r76-trunk/apps/EeePProg/linux/../BinFuncs.c ****     stOffset=((uint8_t*)pcvBuffer)- pcu8Mem;
 304:/home/hkh/git/eapidk-code-r76-trunk/apps/EeePProg/linux/../BinFuncs.c **** 
 305:/home/hkh/git/eapidk-code-r76-trunk/apps/EeePProg/linux/../BinFuncs.c ****     if(cuiFlags&HEXTBL_OFFSET_TITLE)
 306:/home/hkh/git/eapidk-code-r76-trunk/apps/EeePProg/linux/../BinFuncs.c ****       EAPI_printf(TEXT("\n\tOFFSET = 0x%08lX, LENGTH = 0x%08lX\n"), (unsigned long)stOffset, (unsig
 307:/home/hkh/git/eapidk-code-r76-trunk/apps/EeePProg/linux/../BinFuncs.c **** 
 308:/home/hkh/git/eapidk-code-r76-trunk/apps/EeePProg/linux/../BinFuncs.c ****     if(stBufSize==0) EAPI_APP_EXIT;
 309:/home/hkh/git/eapidk-code-r76-trunk/apps/EeePProg/linux/../BinFuncs.c **** 
 310:/home/hkh/git/eapidk-code-r76-trunk/apps/EeePProg/linux/../BinFuncs.c ****     pcu8Mem=((uint8_t*)pcvBuffer) - (stOffset%stRowSize);
 311:/home/hkh/git/eapidk-code-r76-trunk/apps/EeePProg/linux/../BinFuncs.c **** 
 312:/home/hkh/git/eapidk-code-r76-trunk/apps/EeePProg/linux/../BinFuncs.c ****     stOffsetBase=pcu8Mem - (uint8_t*)pcvBase;
 313:/home/hkh/git/eapidk-code-r76-trunk/apps/EeePProg/linux/../BinFuncs.c ****     while(pcu8Mem<pcu8PageEnd)
 314:/home/hkh/git/eapidk-code-r76-trunk/apps/EeePProg/linux/../BinFuncs.c ****     {
 315:/home/hkh/git/eapidk-code-r76-trunk/apps/EeePProg/linux/../BinFuncs.c ****       stOffset=pcu8Mem - (uint8_t*)pcvBase;
 316:/home/hkh/git/eapidk-code-r76-trunk/apps/EeePProg/linux/../BinFuncs.c ****       if(!((stOffset - stOffsetBase)%(stRowSize*16))){
 317:/home/hkh/git/eapidk-code-r76-trunk/apps/EeePProg/linux/../BinFuncs.c ****         /*
 318:/home/hkh/git/eapidk-code-r76-trunk/apps/EeePProg/linux/../BinFuncs.c ****          * Print Block Header
 319:/home/hkh/git/eapidk-code-r76-trunk/apps/EeePProg/linux/../BinFuncs.c ****          */
 320:/home/hkh/git/eapidk-code-r76-trunk/apps/EeePProg/linux/../BinFuncs.c ****         EAPI_printf(TEXT("\n"));
 321:/home/hkh/git/eapidk-code-r76-trunk/apps/EeePProg/linux/../BinFuncs.c ****         if(cuiFlags&HEXTBL_OFFSET_BAR)
 322:/home/hkh/git/eapidk-code-r76-trunk/apps/EeePProg/linux/../BinFuncs.c ****           EAPI_printf(TEXT("         "));
 323:/home/hkh/git/eapidk-code-r76-trunk/apps/EeePProg/linux/../BinFuncs.c ****         if(cuiFlags&HEXTBL_OFFSET_COUNT){
 324:/home/hkh/git/eapidk-code-r76-trunk/apps/EeePProg/linux/../BinFuncs.c ****           for(stOffset=0;stOffset<stElementCount;stOffset++){
ARM GAS  /tmp/ccf3bFwG.s 			page 18


 325:/home/hkh/git/eapidk-code-r76-trunk/apps/EeePProg/linux/../BinFuncs.c ****             EAPI_printf(TEXT("%0*lX "), (int)(2*stElementSize), (unsigned long)stOffset);
 326:/home/hkh/git/eapidk-code-r76-trunk/apps/EeePProg/linux/../BinFuncs.c ****           }
 327:/home/hkh/git/eapidk-code-r76-trunk/apps/EeePProg/linux/../BinFuncs.c ****           if(cuiFlags&HEXTBL_ASCII_MASK){
 328:/home/hkh/git/eapidk-code-r76-trunk/apps/EeePProg/linux/../BinFuncs.c ****             for(stOffset=0;stOffset<(stRowSize);stOffset++){
 329:/home/hkh/git/eapidk-code-r76-trunk/apps/EeePProg/linux/../BinFuncs.c ****               EAPI_printf(TEXT("%lX"), (((unsigned long)stOffset)&0xF));
 330:/home/hkh/git/eapidk-code-r76-trunk/apps/EeePProg/linux/../BinFuncs.c ****             }
 331:/home/hkh/git/eapidk-code-r76-trunk/apps/EeePProg/linux/../BinFuncs.c ****           }
 332:/home/hkh/git/eapidk-code-r76-trunk/apps/EeePProg/linux/../BinFuncs.c ****           EAPI_printf(TEXT("\n"));
 333:/home/hkh/git/eapidk-code-r76-trunk/apps/EeePProg/linux/../BinFuncs.c ****         }
 334:/home/hkh/git/eapidk-code-r76-trunk/apps/EeePProg/linux/../BinFuncs.c ****         stOffset=pcu8Mem - (uint8_t*)pcvBase;
 335:/home/hkh/git/eapidk-code-r76-trunk/apps/EeePProg/linux/../BinFuncs.c ****       }
 336:/home/hkh/git/eapidk-code-r76-trunk/apps/EeePProg/linux/../BinFuncs.c ****       if(cuiFlags&HEXTBL_OFFSET_BAR)
 337:/home/hkh/git/eapidk-code-r76-trunk/apps/EeePProg/linux/../BinFuncs.c ****         EAPI_printf(TEXT("%08lX ") , (unsigned long)stOffset);
 338:/home/hkh/git/eapidk-code-r76-trunk/apps/EeePProg/linux/../BinFuncs.c **** 
 339:/home/hkh/git/eapidk-code-r76-trunk/apps/EeePProg/linux/../BinFuncs.c ****         /*
 340:/home/hkh/git/eapidk-code-r76-trunk/apps/EeePProg/linux/../BinFuncs.c ****          * Print Binary Hex Data
 341:/home/hkh/git/eapidk-code-r76-trunk/apps/EeePProg/linux/../BinFuncs.c ****          */
 342:/home/hkh/git/eapidk-code-r76-trunk/apps/EeePProg/linux/../BinFuncs.c ****       for(stOffset=0; stOffset<stRowSize; stOffset+=stElementSize)
 343:/home/hkh/git/eapidk-code-r76-trunk/apps/EeePProg/linux/../BinFuncs.c ****       {
 344:/home/hkh/git/eapidk-code-r76-trunk/apps/EeePProg/linux/../BinFuncs.c ****         if((pcu8PageEnd>(pcu8Mem+stOffset))&&((stOffset+pcu8Mem)>=((uint8_t *)pcvBuffer))){
 345:/home/hkh/git/eapidk-code-r76-trunk/apps/EeePProg/linux/../BinFuncs.c ****           siBin2Ascii(
 346:/home/hkh/git/eapidk-code-r76-trunk/apps/EeePProg/linux/../BinFuncs.c ****               szAsciiBufer            , 
 347:/home/hkh/git/eapidk-code-r76-trunk/apps/EeePProg/linux/../BinFuncs.c ****               ARRAY_SIZE(szAsciiBufer), 
 348:/home/hkh/git/eapidk-code-r76-trunk/apps/EeePProg/linux/../BinFuncs.c ****               pcu8Mem+stOffset        , 
 349:/home/hkh/git/eapidk-code-r76-trunk/apps/EeePProg/linux/../BinFuncs.c ****               stElementSize           , 
 350:/home/hkh/git/eapidk-code-r76-trunk/apps/EeePProg/linux/../BinFuncs.c ****               cuiFlags
 351:/home/hkh/git/eapidk-code-r76-trunk/apps/EeePProg/linux/../BinFuncs.c ****             );
 352:/home/hkh/git/eapidk-code-r76-trunk/apps/EeePProg/linux/../BinFuncs.c ****           EAPI_printf(TEXT("%s "), szAsciiBufer);
 353:/home/hkh/git/eapidk-code-r76-trunk/apps/EeePProg/linux/../BinFuncs.c ****         }else{
 354:/home/hkh/git/eapidk-code-r76-trunk/apps/EeePProg/linux/../BinFuncs.c ****           EAPI_printf(TEXT("%*s "), (int)(2*stElementSize), TEXT(""));
 355:/home/hkh/git/eapidk-code-r76-trunk/apps/EeePProg/linux/../BinFuncs.c ****         }
 356:/home/hkh/git/eapidk-code-r76-trunk/apps/EeePProg/linux/../BinFuncs.c ****       }
 357:/home/hkh/git/eapidk-code-r76-trunk/apps/EeePProg/linux/../BinFuncs.c ****       if(cuiFlags&HEXTBL_ASCII_MASK){
 358:/home/hkh/git/eapidk-code-r76-trunk/apps/EeePProg/linux/../BinFuncs.c ****         /*
 359:/home/hkh/git/eapidk-code-r76-trunk/apps/EeePProg/linux/../BinFuncs.c ****          * Print ASCII Characters
 360:/home/hkh/git/eapidk-code-r76-trunk/apps/EeePProg/linux/../BinFuncs.c ****          */
 361:/home/hkh/git/eapidk-code-r76-trunk/apps/EeePProg/linux/../BinFuncs.c ****         for(stOffset=0;stOffset<stRowSize;stOffset++)
 362:/home/hkh/git/eapidk-code-r76-trunk/apps/EeePProg/linux/../BinFuncs.c ****         {
 363:/home/hkh/git/eapidk-code-r76-trunk/apps/EeePProg/linux/../BinFuncs.c ****           if((pcu8PageEnd>(pcu8Mem+stOffset))&&((stOffset+pcu8Mem)>=((uint8_t *)pcvBuffer))){
 364:/home/hkh/git/eapidk-code-r76-trunk/apps/EeePProg/linux/../BinFuncs.c ****             EAPI_printf(TEXT("%c"), cBin2Ascii(pcu8Mem[stOffset]));
 365:/home/hkh/git/eapidk-code-r76-trunk/apps/EeePProg/linux/../BinFuncs.c ****           }else{
 366:/home/hkh/git/eapidk-code-r76-trunk/apps/EeePProg/linux/../BinFuncs.c ****             EAPI_printf(TEXT(" "));
 367:/home/hkh/git/eapidk-code-r76-trunk/apps/EeePProg/linux/../BinFuncs.c ****           }
 368:/home/hkh/git/eapidk-code-r76-trunk/apps/EeePProg/linux/../BinFuncs.c ****         }
 369:/home/hkh/git/eapidk-code-r76-trunk/apps/EeePProg/linux/../BinFuncs.c ****       }
 370:/home/hkh/git/eapidk-code-r76-trunk/apps/EeePProg/linux/../BinFuncs.c ****       pcu8Mem+=stRowSize;
 371:/home/hkh/git/eapidk-code-r76-trunk/apps/EeePProg/linux/../BinFuncs.c ****       EAPI_printf(TEXT("\n"));
 372:/home/hkh/git/eapidk-code-r76-trunk/apps/EeePProg/linux/../BinFuncs.c ****     }
 373:/home/hkh/git/eapidk-code-r76-trunk/apps/EeePProg/linux/../BinFuncs.c **** EAPI_APP_ASSERT_EXIT
 374:/home/hkh/git/eapidk-code-r76-trunk/apps/EeePProg/linux/../BinFuncs.c ****   return StatusCode;
 375:/home/hkh/git/eapidk-code-r76-trunk/apps/EeePProg/linux/../BinFuncs.c **** }
 376:/home/hkh/git/eapidk-code-r76-trunk/apps/EeePProg/linux/../BinFuncs.c **** 
 377:/home/hkh/git/eapidk-code-r76-trunk/apps/EeePProg/linux/../BinFuncs.c **** void 
 378:/home/hkh/git/eapidk-code-r76-trunk/apps/EeePProg/linux/../BinFuncs.c **** PrintHexAsciiTable(
 379:/home/hkh/git/eapidk-code-r76-trunk/apps/EeePProg/linux/../BinFuncs.c **** 	__IN    const void *const pcvBuffer             ,
 380:/home/hkh/git/eapidk-code-r76-trunk/apps/EeePProg/linux/../BinFuncs.c **** 	__IN    const size_t      cstBufSize	        ,
 381:/home/hkh/git/eapidk-code-r76-trunk/apps/EeePProg/linux/../BinFuncs.c **** 	__IN    const void *const pcvBase		,
ARM GAS  /tmp/ccf3bFwG.s 			page 19


 382:/home/hkh/git/eapidk-code-r76-trunk/apps/EeePProg/linux/../BinFuncs.c **** 	__IN    const TCHAR *const pcszDescription
 383:/home/hkh/git/eapidk-code-r76-trunk/apps/EeePProg/linux/../BinFuncs.c **** 	)
 384:/home/hkh/git/eapidk-code-r76-trunk/apps/EeePProg/linux/../BinFuncs.c **** {
 385:/home/hkh/git/eapidk-code-r76-trunk/apps/EeePProg/linux/../BinFuncs.c ****   PrintHexAsciiTableEx(
 386:/home/hkh/git/eapidk-code-r76-trunk/apps/EeePProg/linux/../BinFuncs.c ****       pcvBuffer           ,
 387:/home/hkh/git/eapidk-code-r76-trunk/apps/EeePProg/linux/../BinFuncs.c ****       cstBufSize          ,
 388:/home/hkh/git/eapidk-code-r76-trunk/apps/EeePProg/linux/../BinFuncs.c ****       pcvBase             ,
 389:/home/hkh/git/eapidk-code-r76-trunk/apps/EeePProg/linux/../BinFuncs.c ****       pcszDescription     ,
 390:/home/hkh/git/eapidk-code-r76-trunk/apps/EeePProg/linux/../BinFuncs.c ****       HEXTBL_NORM8_ATTRIB
 391:/home/hkh/git/eapidk-code-r76-trunk/apps/EeePProg/linux/../BinFuncs.c ****     );
 392:/home/hkh/git/eapidk-code-r76-trunk/apps/EeePProg/linux/../BinFuncs.c **** }
 393:/home/hkh/git/eapidk-code-r76-trunk/apps/EeePProg/linux/../BinFuncs.c **** 
 394:/home/hkh/git/eapidk-code-r76-trunk/apps/EeePProg/linux/../BinFuncs.c **** 
 395:/home/hkh/git/eapidk-code-r76-trunk/apps/EeePProg/linux/../BinFuncs.c **** 
 396:/home/hkh/git/eapidk-code-r76-trunk/apps/EeePProg/linux/../BinFuncs.c **** /*
 397:/home/hkh/git/eapidk-code-r76-trunk/apps/EeePProg/linux/../BinFuncs.c ****  *
 398:/home/hkh/git/eapidk-code-r76-trunk/apps/EeePProg/linux/../BinFuncs.c ****  *
 399:/home/hkh/git/eapidk-code-r76-trunk/apps/EeePProg/linux/../BinFuncs.c ****  *
 400:/home/hkh/git/eapidk-code-r76-trunk/apps/EeePProg/linux/../BinFuncs.c ****  *  File Access Routines
 401:/home/hkh/git/eapidk-code-r76-trunk/apps/EeePProg/linux/../BinFuncs.c ****  *
 402:/home/hkh/git/eapidk-code-r76-trunk/apps/EeePProg/linux/../BinFuncs.c ****  *
 403:/home/hkh/git/eapidk-code-r76-trunk/apps/EeePProg/linux/../BinFuncs.c ****  *
 404:/home/hkh/git/eapidk-code-r76-trunk/apps/EeePProg/linux/../BinFuncs.c ****  */
 405:/home/hkh/git/eapidk-code-r76-trunk/apps/EeePProg/linux/../BinFuncs.c **** EApiStatus_t 
 406:/home/hkh/git/eapidk-code-r76-trunk/apps/EeePProg/linux/../BinFuncs.c **** LclWriteFile(
 407:/home/hkh/git/eapidk-code-r76-trunk/apps/EeePProg/linux/../BinFuncs.c ****     __IN const char *cszFilename, 
 408:/home/hkh/git/eapidk-code-r76-trunk/apps/EeePProg/linux/../BinFuncs.c ****     __IN const void *pcvBuffer  , 
 409:/home/hkh/git/eapidk-code-r76-trunk/apps/EeePProg/linux/../BinFuncs.c ****     __IN size_t      stWriteBCnt,
 410:/home/hkh/git/eapidk-code-r76-trunk/apps/EeePProg/linux/../BinFuncs.c ****     __IN const char *cszWriteType
 411:/home/hkh/git/eapidk-code-r76-trunk/apps/EeePProg/linux/../BinFuncs.c ****   )
 412:/home/hkh/git/eapidk-code-r76-trunk/apps/EeePProg/linux/../BinFuncs.c **** {
 413:/home/hkh/git/eapidk-code-r76-trunk/apps/EeePProg/linux/../BinFuncs.c ****   EApiStatus_t StatusCode=EAPI_STATUS_SUCCESS;
 414:/home/hkh/git/eapidk-code-r76-trunk/apps/EeePProg/linux/../BinFuncs.c ****   FILE *LclFilePtr;
 415:/home/hkh/git/eapidk-code-r76-trunk/apps/EeePProg/linux/../BinFuncs.c ****   EAPI_APP_ASSERT_PARAMATER_NULL(
 416:/home/hkh/git/eapidk-code-r76-trunk/apps/EeePProg/linux/../BinFuncs.c ****       LclWriteFile,
 417:/home/hkh/git/eapidk-code-r76-trunk/apps/EeePProg/linux/../BinFuncs.c ****       EAPI_STATUS_INVALID_PARAMETER,
 418:/home/hkh/git/eapidk-code-r76-trunk/apps/EeePProg/linux/../BinFuncs.c ****       cszFilename
 419:/home/hkh/git/eapidk-code-r76-trunk/apps/EeePProg/linux/../BinFuncs.c ****     );
 420:/home/hkh/git/eapidk-code-r76-trunk/apps/EeePProg/linux/../BinFuncs.c ****   EAPI_APP_ASSERT_PARAMATER_NULL(
 421:/home/hkh/git/eapidk-code-r76-trunk/apps/EeePProg/linux/../BinFuncs.c ****       LclWriteFile,
 422:/home/hkh/git/eapidk-code-r76-trunk/apps/EeePProg/linux/../BinFuncs.c ****       EAPI_STATUS_INVALID_PARAMETER,
 423:/home/hkh/git/eapidk-code-r76-trunk/apps/EeePProg/linux/../BinFuncs.c ****       pcvBuffer
 424:/home/hkh/git/eapidk-code-r76-trunk/apps/EeePProg/linux/../BinFuncs.c ****     );
 425:/home/hkh/git/eapidk-code-r76-trunk/apps/EeePProg/linux/../BinFuncs.c ****   EAPI_APP_ASSERT_PARAMATER_ZERO(
 426:/home/hkh/git/eapidk-code-r76-trunk/apps/EeePProg/linux/../BinFuncs.c ****       LclWriteFile,
 427:/home/hkh/git/eapidk-code-r76-trunk/apps/EeePProg/linux/../BinFuncs.c ****       EAPI_STATUS_INVALID_PARAMETER,
 428:/home/hkh/git/eapidk-code-r76-trunk/apps/EeePProg/linux/../BinFuncs.c ****       stWriteBCnt
 429:/home/hkh/git/eapidk-code-r76-trunk/apps/EeePProg/linux/../BinFuncs.c ****     );
 430:/home/hkh/git/eapidk-code-r76-trunk/apps/EeePProg/linux/../BinFuncs.c **** 
 431:/home/hkh/git/eapidk-code-r76-trunk/apps/EeePProg/linux/../BinFuncs.c ****   LclFilePtr=fopen(cszFilename, cszWriteType);
 432:/home/hkh/git/eapidk-code-r76-trunk/apps/EeePProg/linux/../BinFuncs.c ****   if(LclFilePtr==NULL){
 433:/home/hkh/git/eapidk-code-r76-trunk/apps/EeePProg/linux/../BinFuncs.c ****     StatusCode=EAPI_STATUS_WRITE_ERROR;
 434:/home/hkh/git/eapidk-code-r76-trunk/apps/EeePProg/linux/../BinFuncs.c ****     siFormattedMessage_SC('L', __FILE__, "LclWriteFile", __LINE__, StatusCode,
 435:/home/hkh/git/eapidk-code-r76-trunk/apps/EeePProg/linux/../BinFuncs.c ****         "Opening File %s(%s)\n", cszFilename, cszWriteType);
 436:/home/hkh/git/eapidk-code-r76-trunk/apps/EeePProg/linux/../BinFuncs.c ****     EAPI_APP_EXIT;
 437:/home/hkh/git/eapidk-code-r76-trunk/apps/EeePProg/linux/../BinFuncs.c ****   }
 438:/home/hkh/git/eapidk-code-r76-trunk/apps/EeePProg/linux/../BinFuncs.c ****   EAPI_APP_RETURN_ERROR_IF_S(
ARM GAS  /tmp/ccf3bFwG.s 			page 20


 439:/home/hkh/git/eapidk-code-r76-trunk/apps/EeePProg/linux/../BinFuncs.c ****       LclWriteFile,
 440:/home/hkh/git/eapidk-code-r76-trunk/apps/EeePProg/linux/../BinFuncs.c ****       (stWriteBCnt!=fwrite(pcvBuffer, sizeof(uint8_t), stWriteBCnt, LclFilePtr)),
 441:/home/hkh/git/eapidk-code-r76-trunk/apps/EeePProg/linux/../BinFuncs.c ****       EAPI_STATUS_WRITE_ERROR
 442:/home/hkh/git/eapidk-code-r76-trunk/apps/EeePProg/linux/../BinFuncs.c ****     );
 443:/home/hkh/git/eapidk-code-r76-trunk/apps/EeePProg/linux/../BinFuncs.c ****   fclose(LclFilePtr);
 444:/home/hkh/git/eapidk-code-r76-trunk/apps/EeePProg/linux/../BinFuncs.c **** EAPI_APP_ASSERT_EXIT
 445:/home/hkh/git/eapidk-code-r76-trunk/apps/EeePProg/linux/../BinFuncs.c ****   return StatusCode;
 446:/home/hkh/git/eapidk-code-r76-trunk/apps/EeePProg/linux/../BinFuncs.c **** }
 447:/home/hkh/git/eapidk-code-r76-trunk/apps/EeePProg/linux/../BinFuncs.c **** 
 448:/home/hkh/git/eapidk-code-r76-trunk/apps/EeePProg/linux/../BinFuncs.c **** EApiStatus_t
 449:/home/hkh/git/eapidk-code-r76-trunk/apps/EeePProg/linux/../BinFuncs.c **** LclReadFile(
 450:/home/hkh/git/eapidk-code-r76-trunk/apps/EeePProg/linux/../BinFuncs.c ****     __IN  const char *cszFilename, 
 451:/home/hkh/git/eapidk-code-r76-trunk/apps/EeePProg/linux/../BinFuncs.c ****     __OUT void      **pvBuffer, 
 452:/home/hkh/git/eapidk-code-r76-trunk/apps/EeePProg/linux/../BinFuncs.c ****     __OUT size_t     *pstReadBCnt,
 453:/home/hkh/git/eapidk-code-r76-trunk/apps/EeePProg/linux/../BinFuncs.c ****     __IN  const char *cszReadType 
 454:/home/hkh/git/eapidk-code-r76-trunk/apps/EeePProg/linux/../BinFuncs.c ****   )
 455:/home/hkh/git/eapidk-code-r76-trunk/apps/EeePProg/linux/../BinFuncs.c **** {
 456:/home/hkh/git/eapidk-code-r76-trunk/apps/EeePProg/linux/../BinFuncs.c ****   EApiStatus_t StatusCode=EAPI_STATUS_SUCCESS;
 457:/home/hkh/git/eapidk-code-r76-trunk/apps/EeePProg/linux/../BinFuncs.c ****   FILE *LclFilePtr;
 458:/home/hkh/git/eapidk-code-r76-trunk/apps/EeePProg/linux/../BinFuncs.c ****   size_t stFileLen;
 459:/home/hkh/git/eapidk-code-r76-trunk/apps/EeePProg/linux/../BinFuncs.c ****   EAPI_APP_ASSERT_PARAMATER_NULL(
 460:/home/hkh/git/eapidk-code-r76-trunk/apps/EeePProg/linux/../BinFuncs.c ****       LclReadFile,
 461:/home/hkh/git/eapidk-code-r76-trunk/apps/EeePProg/linux/../BinFuncs.c ****       EAPI_STATUS_INVALID_PARAMETER,
 462:/home/hkh/git/eapidk-code-r76-trunk/apps/EeePProg/linux/../BinFuncs.c ****       cszFilename
 463:/home/hkh/git/eapidk-code-r76-trunk/apps/EeePProg/linux/../BinFuncs.c ****     );
 464:/home/hkh/git/eapidk-code-r76-trunk/apps/EeePProg/linux/../BinFuncs.c ****   EAPI_APP_ASSERT_PARAMATER_NULL(
 465:/home/hkh/git/eapidk-code-r76-trunk/apps/EeePProg/linux/../BinFuncs.c ****       LclReadFile,
 466:/home/hkh/git/eapidk-code-r76-trunk/apps/EeePProg/linux/../BinFuncs.c ****       EAPI_STATUS_INVALID_PARAMETER,
 467:/home/hkh/git/eapidk-code-r76-trunk/apps/EeePProg/linux/../BinFuncs.c ****       pvBuffer
 468:/home/hkh/git/eapidk-code-r76-trunk/apps/EeePProg/linux/../BinFuncs.c ****     );
 469:/home/hkh/git/eapidk-code-r76-trunk/apps/EeePProg/linux/../BinFuncs.c ****   EAPI_APP_ASSERT_PARAMATER_NULL(
 470:/home/hkh/git/eapidk-code-r76-trunk/apps/EeePProg/linux/../BinFuncs.c ****       LclReadFile,
 471:/home/hkh/git/eapidk-code-r76-trunk/apps/EeePProg/linux/../BinFuncs.c ****       EAPI_STATUS_INVALID_PARAMETER,
 472:/home/hkh/git/eapidk-code-r76-trunk/apps/EeePProg/linux/../BinFuncs.c ****       pstReadBCnt
 473:/home/hkh/git/eapidk-code-r76-trunk/apps/EeePProg/linux/../BinFuncs.c ****     );
 474:/home/hkh/git/eapidk-code-r76-trunk/apps/EeePProg/linux/../BinFuncs.c ****   *pstReadBCnt=0;
 475:/home/hkh/git/eapidk-code-r76-trunk/apps/EeePProg/linux/../BinFuncs.c ****   LclFilePtr=fopen(cszFilename, cszReadType);
 476:/home/hkh/git/eapidk-code-r76-trunk/apps/EeePProg/linux/../BinFuncs.c ****   if(LclFilePtr==NULL){
 477:/home/hkh/git/eapidk-code-r76-trunk/apps/EeePProg/linux/../BinFuncs.c ****     StatusCode=EAPI_STATUS_READ_ERROR;
 478:/home/hkh/git/eapidk-code-r76-trunk/apps/EeePProg/linux/../BinFuncs.c ****     siFormattedMessage_SC('L', __FILE__, "LclReadFile", __LINE__, StatusCode,
 479:/home/hkh/git/eapidk-code-r76-trunk/apps/EeePProg/linux/../BinFuncs.c ****         "Opening File %s(%s)\n", cszFilename, cszReadType);
 480:/home/hkh/git/eapidk-code-r76-trunk/apps/EeePProg/linux/../BinFuncs.c ****     EAPI_APP_EXIT;
 481:/home/hkh/git/eapidk-code-r76-trunk/apps/EeePProg/linux/../BinFuncs.c ****   }
 482:/home/hkh/git/eapidk-code-r76-trunk/apps/EeePProg/linux/../BinFuncs.c **** 
 483:/home/hkh/git/eapidk-code-r76-trunk/apps/EeePProg/linux/../BinFuncs.c ****   fseek(LclFilePtr, 0, SEEK_END);
 484:/home/hkh/git/eapidk-code-r76-trunk/apps/EeePProg/linux/../BinFuncs.c ****   stFileLen=ftell(LclFilePtr);
 485:/home/hkh/git/eapidk-code-r76-trunk/apps/EeePProg/linux/../BinFuncs.c ****   *pvBuffer=malloc(stFileLen);
 486:/home/hkh/git/eapidk-code-r76-trunk/apps/EeePProg/linux/../BinFuncs.c ****   EAPI_APP_ASSERT_PARAMATER_NULL(
 487:/home/hkh/git/eapidk-code-r76-trunk/apps/EeePProg/linux/../BinFuncs.c ****       LclReadFile,
 488:/home/hkh/git/eapidk-code-r76-trunk/apps/EeePProg/linux/../BinFuncs.c ****       EAPI_STATUS_ALLOC_ERROR,
 489:/home/hkh/git/eapidk-code-r76-trunk/apps/EeePProg/linux/../BinFuncs.c ****       *pvBuffer
 490:/home/hkh/git/eapidk-code-r76-trunk/apps/EeePProg/linux/../BinFuncs.c ****     );
 491:/home/hkh/git/eapidk-code-r76-trunk/apps/EeePProg/linux/../BinFuncs.c **** 
 492:/home/hkh/git/eapidk-code-r76-trunk/apps/EeePProg/linux/../BinFuncs.c ****   rewind(LclFilePtr);
 493:/home/hkh/git/eapidk-code-r76-trunk/apps/EeePProg/linux/../BinFuncs.c ****   *pstReadBCnt=stFileLen;
 494:/home/hkh/git/eapidk-code-r76-trunk/apps/EeePProg/linux/../BinFuncs.c **** #if 0
 495:/home/hkh/git/eapidk-code-r76-trunk/apps/EeePProg/linux/../BinFuncs.c ****   if(stFileLen!=fread(*pvBuffer, sizeof(uint8_t), stFileLen, LclFilePtr)){
ARM GAS  /tmp/ccf3bFwG.s 			page 21


 496:/home/hkh/git/eapidk-code-r76-trunk/apps/EeePProg/linux/../BinFuncs.c ****     free(*pvBuffer);
 497:/home/hkh/git/eapidk-code-r76-trunk/apps/EeePProg/linux/../BinFuncs.c ****     *pvBuffer=NULL;
 498:/home/hkh/git/eapidk-code-r76-trunk/apps/EeePProg/linux/../BinFuncs.c ****     EAPI_APP_RETURN_ERROR(
 499:/home/hkh/git/eapidk-code-r76-trunk/apps/EeePProg/linux/../BinFuncs.c ****         LclReadFile,
 500:/home/hkh/git/eapidk-code-r76-trunk/apps/EeePProg/linux/../BinFuncs.c ****         EAPI_STATUS_READ_ERROR,
 501:/home/hkh/git/eapidk-code-r76-trunk/apps/EeePProg/linux/../BinFuncs.c ****         TEXT("(stFileLen!=fread(*pvBuffer, sizeof(uint8_t), stFileLen, LclFilePtr))")
 502:/home/hkh/git/eapidk-code-r76-trunk/apps/EeePProg/linux/../BinFuncs.c ****       );
 503:/home/hkh/git/eapidk-code-r76-trunk/apps/EeePProg/linux/../BinFuncs.c ****   }
 504:/home/hkh/git/eapidk-code-r76-trunk/apps/EeePProg/linux/../BinFuncs.c **** #else
 505:/home/hkh/git/eapidk-code-r76-trunk/apps/EeePProg/linux/../BinFuncs.c ****   stFileLen=fread(*pvBuffer, sizeof(uint8_t), stFileLen, LclFilePtr);
 506:/home/hkh/git/eapidk-code-r76-trunk/apps/EeePProg/linux/../BinFuncs.c **** #endif
 507:/home/hkh/git/eapidk-code-r76-trunk/apps/EeePProg/linux/../BinFuncs.c ****   *pstReadBCnt=stFileLen;
 508:/home/hkh/git/eapidk-code-r76-trunk/apps/EeePProg/linux/../BinFuncs.c ****   fclose(LclFilePtr);
 509:/home/hkh/git/eapidk-code-r76-trunk/apps/EeePProg/linux/../BinFuncs.c **** 
 510:/home/hkh/git/eapidk-code-r76-trunk/apps/EeePProg/linux/../BinFuncs.c **** EAPI_APP_ASSERT_EXIT
 511:/home/hkh/git/eapidk-code-r76-trunk/apps/EeePProg/linux/../BinFuncs.c ****   return StatusCode;
 512:/home/hkh/git/eapidk-code-r76-trunk/apps/EeePProg/linux/../BinFuncs.c **** }
 513:/home/hkh/git/eapidk-code-r76-trunk/apps/EeePProg/linux/../BinFuncs.c **** 
 514:/home/hkh/git/eapidk-code-r76-trunk/apps/EeePProg/linux/../BinFuncs.c **** EApiStatus_t 
 515:/home/hkh/git/eapidk-code-r76-trunk/apps/EeePProg/linux/../BinFuncs.c **** WriteBinaryFile(
 516:/home/hkh/git/eapidk-code-r76-trunk/apps/EeePProg/linux/../BinFuncs.c ****     __IN const char *cszFilename, 
 517:/home/hkh/git/eapidk-code-r76-trunk/apps/EeePProg/linux/../BinFuncs.c ****     __IN const void *pcvBuffer   , 
 518:/home/hkh/git/eapidk-code-r76-trunk/apps/EeePProg/linux/../BinFuncs.c ****     __IN size_t      stWriteBCnt
 519:/home/hkh/git/eapidk-code-r76-trunk/apps/EeePProg/linux/../BinFuncs.c ****   )
 520:/home/hkh/git/eapidk-code-r76-trunk/apps/EeePProg/linux/../BinFuncs.c **** {
 521:/home/hkh/git/eapidk-code-r76-trunk/apps/EeePProg/linux/../BinFuncs.c ****   return LclWriteFile(cszFilename, pcvBuffer, stWriteBCnt, "wb");
 522:/home/hkh/git/eapidk-code-r76-trunk/apps/EeePProg/linux/../BinFuncs.c **** }
 523:/home/hkh/git/eapidk-code-r76-trunk/apps/EeePProg/linux/../BinFuncs.c **** 
 524:/home/hkh/git/eapidk-code-r76-trunk/apps/EeePProg/linux/../BinFuncs.c **** EApiStatus_t
 525:/home/hkh/git/eapidk-code-r76-trunk/apps/EeePProg/linux/../BinFuncs.c **** ReadBinaryFile(
 526:/home/hkh/git/eapidk-code-r76-trunk/apps/EeePProg/linux/../BinFuncs.c ****     __IN  const char *cszFilename, 
 527:/home/hkh/git/eapidk-code-r76-trunk/apps/EeePProg/linux/../BinFuncs.c ****     __OUT void      **pvBuffer, 
 528:/home/hkh/git/eapidk-code-r76-trunk/apps/EeePProg/linux/../BinFuncs.c ****     __OUT size_t     *pstReadBCnt
 529:/home/hkh/git/eapidk-code-r76-trunk/apps/EeePProg/linux/../BinFuncs.c ****   )
 530:/home/hkh/git/eapidk-code-r76-trunk/apps/EeePProg/linux/../BinFuncs.c **** {
 531:/home/hkh/git/eapidk-code-r76-trunk/apps/EeePProg/linux/../BinFuncs.c ****   return LclReadFile(cszFilename, pvBuffer, pstReadBCnt, "rb");
 532:/home/hkh/git/eapidk-code-r76-trunk/apps/EeePProg/linux/../BinFuncs.c **** }
 533:/home/hkh/git/eapidk-code-r76-trunk/apps/EeePProg/linux/../BinFuncs.c **** EApiStatus_t 
 534:/home/hkh/git/eapidk-code-r76-trunk/apps/EeePProg/linux/../BinFuncs.c **** WriteTextFile(
 535:/home/hkh/git/eapidk-code-r76-trunk/apps/EeePProg/linux/../BinFuncs.c ****     __IN const char *cszFilename, 
 536:/home/hkh/git/eapidk-code-r76-trunk/apps/EeePProg/linux/../BinFuncs.c ****     __IN const void *pcvBuffer   , 
 537:/home/hkh/git/eapidk-code-r76-trunk/apps/EeePProg/linux/../BinFuncs.c ****     __IN size_t      stWriteBCnt
 538:/home/hkh/git/eapidk-code-r76-trunk/apps/EeePProg/linux/../BinFuncs.c ****   )
 539:/home/hkh/git/eapidk-code-r76-trunk/apps/EeePProg/linux/../BinFuncs.c **** {
 540:/home/hkh/git/eapidk-code-r76-trunk/apps/EeePProg/linux/../BinFuncs.c ****   return LclWriteFile(cszFilename, pcvBuffer, stWriteBCnt, "w");
 541:/home/hkh/git/eapidk-code-r76-trunk/apps/EeePProg/linux/../BinFuncs.c **** }
 542:/home/hkh/git/eapidk-code-r76-trunk/apps/EeePProg/linux/../BinFuncs.c **** 
 543:/home/hkh/git/eapidk-code-r76-trunk/apps/EeePProg/linux/../BinFuncs.c **** EApiStatus_t
 544:/home/hkh/git/eapidk-code-r76-trunk/apps/EeePProg/linux/../BinFuncs.c **** ReadTextFile(
 545:/home/hkh/git/eapidk-code-r76-trunk/apps/EeePProg/linux/../BinFuncs.c ****     __IN  const char *cszFilename, 
 546:/home/hkh/git/eapidk-code-r76-trunk/apps/EeePProg/linux/../BinFuncs.c ****     __OUT void      **pvBuffer, 
 547:/home/hkh/git/eapidk-code-r76-trunk/apps/EeePProg/linux/../BinFuncs.c ****     __OUT size_t     *pstReadBCnt
 548:/home/hkh/git/eapidk-code-r76-trunk/apps/EeePProg/linux/../BinFuncs.c ****   )
 549:/home/hkh/git/eapidk-code-r76-trunk/apps/EeePProg/linux/../BinFuncs.c **** {
 550:/home/hkh/git/eapidk-code-r76-trunk/apps/EeePProg/linux/../BinFuncs.c ****   return LclReadFile(cszFilename, pvBuffer, pstReadBCnt, "r");
 551:/home/hkh/git/eapidk-code-r76-trunk/apps/EeePProg/linux/../BinFuncs.c **** }
 552:/home/hkh/git/eapidk-code-r76-trunk/apps/EeePProg/linux/../BinFuncs.c **** 
ARM GAS  /tmp/ccf3bFwG.s 			page 22


 553:/home/hkh/git/eapidk-code-r76-trunk/apps/EeePProg/linux/../BinFuncs.c **** /*
 554:/home/hkh/git/eapidk-code-r76-trunk/apps/EeePProg/linux/../BinFuncs.c ****  *
 555:/home/hkh/git/eapidk-code-r76-trunk/apps/EeePProg/linux/../BinFuncs.c ****  *
 556:/home/hkh/git/eapidk-code-r76-trunk/apps/EeePProg/linux/../BinFuncs.c ****  *
 557:/home/hkh/git/eapidk-code-r76-trunk/apps/EeePProg/linux/../BinFuncs.c ****  *  Machine Independant Endian Access
 558:/home/hkh/git/eapidk-code-r76-trunk/apps/EeePProg/linux/../BinFuncs.c ****  *
 559:/home/hkh/git/eapidk-code-r76-trunk/apps/EeePProg/linux/../BinFuncs.c ****  *
 560:/home/hkh/git/eapidk-code-r76-trunk/apps/EeePProg/linux/../BinFuncs.c ****  *
 561:/home/hkh/git/eapidk-code-r76-trunk/apps/EeePProg/linux/../BinFuncs.c ****  */
 562:/home/hkh/git/eapidk-code-r76-trunk/apps/EeePProg/linux/../BinFuncs.c **** /*
 563:/home/hkh/git/eapidk-code-r76-trunk/apps/EeePProg/linux/../BinFuncs.c ****  * CPU Independent Multi Byte 
 564:/home/hkh/git/eapidk-code-r76-trunk/apps/EeePProg/linux/../BinFuncs.c ****  * Big Endian Memory Access
 565:/home/hkh/git/eapidk-code-r76-trunk/apps/EeePProg/linux/../BinFuncs.c ****  */
 566:/home/hkh/git/eapidk-code-r76-trunk/apps/EeePProg/linux/../BinFuncs.c **** void
 567:/home/hkh/git/eapidk-code-r76-trunk/apps/EeePProg/linux/../BinFuncs.c **** EeeP_Set16BitValue_BE(
 568:/home/hkh/git/eapidk-code-r76-trunk/apps/EeePProg/linux/../BinFuncs.c ****     uint8_t *pBuffer,
 569:/home/hkh/git/eapidk-code-r76-trunk/apps/EeePProg/linux/../BinFuncs.c ****     uint16_t Value
 570:/home/hkh/git/eapidk-code-r76-trunk/apps/EeePProg/linux/../BinFuncs.c ****      )
 571:/home/hkh/git/eapidk-code-r76-trunk/apps/EeePProg/linux/../BinFuncs.c **** {
 572:/home/hkh/git/eapidk-code-r76-trunk/apps/EeePProg/linux/../BinFuncs.c ****   pBuffer[1]=EEEP_LO_UINT8(Value       );
 573:/home/hkh/git/eapidk-code-r76-trunk/apps/EeePProg/linux/../BinFuncs.c ****   pBuffer[0]=EEEP_LO_UINT8(Value>>(8*1));
 494              		.loc 1 573 14 discriminator 2 view .LVU162
 495 01fc 5624E7E7 		ubfx	r2, r6, #8, #8
 496              	.LBE39:
 497              	.LBE38:
 164:/home/hkh/git/eapidk-code-r76-trunk/apps/EeePProg/linux/../BinFuncs.c ****   *pContext=NULL;
 498              		.loc 1 164 12 discriminator 2 view .LVU163
 499 0200 003085E5 		str	r3, [r5]
 166:/home/hkh/git/eapidk-code-r76-trunk/apps/EeePProg/linux/../BinFuncs.c **** EAPI_APP_ASSERT_EXIT
 500              		.loc 1 166 3 is_stmt 1 discriminator 2 view .LVU164
 501              	.LVL40:
 502              	.LBB42:
 503              	.LBI38:
 567:/home/hkh/git/eapidk-code-r76-trunk/apps/EeePProg/linux/../BinFuncs.c ****     uint8_t *pBuffer,
 504              		.loc 1 567 1 discriminator 2 view .LVU165
 505              	.LBB40:
 572:/home/hkh/git/eapidk-code-r76-trunk/apps/EeePProg/linux/../BinFuncs.c ****   pBuffer[0]=EEEP_LO_UINT8(Value>>(8*1));
 506              		.loc 1 572 3 discriminator 2 view .LVU166
 507              	.LBE40:
 508              	.LBE42:
 154:/home/hkh/git/eapidk-code-r76-trunk/apps/EeePProg/linux/../BinFuncs.c ****   CRC_State_t * pCRC=*pContext;
 509              		.loc 1 154 16 is_stmt 0 discriminator 2 view .LVU167
 510 0204 0300A0E1 		mov	r0, r3
 511              	.LBB43:
 512              	.LBB41:
 513              		.loc 1 573 14 discriminator 2 view .LVU168
 514 0208 0020C4E5 		strb	r2, [r4]
 572:/home/hkh/git/eapidk-code-r76-trunk/apps/EeePProg/linux/../BinFuncs.c ****   pBuffer[0]=EEEP_LO_UINT8(Value>>(8*1));
 515              		.loc 1 572 14 discriminator 2 view .LVU169
 516 020c 0160C4E5 		strb	r6, [r4, #1]
 517              		.loc 1 573 3 is_stmt 1 discriminator 2 view .LVU170
 518              	.LVL41:
 519              		.loc 1 573 3 is_stmt 0 discriminator 2 view .LVU171
 520              	.LBE41:
 521              	.LBE43:
 168:/home/hkh/git/eapidk-code-r76-trunk/apps/EeePProg/linux/../BinFuncs.c **** }
 522              		.loc 1 168 3 is_stmt 1 discriminator 2 view .LVU172
ARM GAS  /tmp/ccf3bFwG.s 			page 23


 169:/home/hkh/git/eapidk-code-r76-trunk/apps/EeePProg/linux/../BinFuncs.c **** EApiStatus_t
 523              		.loc 1 169 1 is_stmt 0 discriminator 2 view .LVU173
 524 0210 10D08DE2 		add	sp, sp, #16
 525              		.cfi_remember_state
 526              		.cfi_def_cfa_offset 16
 527              		@ sp needed
 528 0214 7080BDE8 		pop	{r4, r5, r6, pc}
 529              	.LVL42:
 530              	.L61:
 531              		.cfi_restore_state
 532              	.LBB44:
 533              	.LBI44:
 149:/home/hkh/git/eapidk-code-r76-trunk/apps/EeePProg/linux/../BinFuncs.c ****     __IN      void **pContext,  /* CRC Context       */
 534              		.loc 1 149 1 is_stmt 1 view .LVU174
 535              	.LBB45:
 157:/home/hkh/git/eapidk-code-r76-trunk/apps/EeePProg/linux/../BinFuncs.c ****       u16CRC_CCITT_fini,
 536              		.loc 1 157 3 view .LVU175
 157:/home/hkh/git/eapidk-code-r76-trunk/apps/EeePProg/linux/../BinFuncs.c ****       u16CRC_CCITT_fini,
 537              		.loc 1 157 3 view .LVU176
 538 0218 3CC09FE5 		ldr	ip, .L62
 539 021c 014CE0E3 		mvn	r4, #256
 540 0220 38009FE5 		ldr	r0, .L62+4
 541              	.LVL43:
 157:/home/hkh/git/eapidk-code-r76-trunk/apps/EeePProg/linux/../BinFuncs.c ****       u16CRC_CCITT_fini,
 542              		.loc 1 157 3 is_stmt 0 view .LVU177
 543 0224 9D30A0E3 		mov	r3, #157
 544 0228 34209FE5 		ldr	r2, .L62+8
 545 022c 34109FE5 		ldr	r1, .L62+12
 546              	.LVL44:
 157:/home/hkh/git/eapidk-code-r76-trunk/apps/EeePProg/linux/../BinFuncs.c ****       u16CRC_CCITT_fini,
 547              		.loc 1 157 3 view .LVU178
 548              	.LPIC14:
 549 0230 0CC08FE0 		add	ip, pc, ip
 550              	.LPIC15:
 551 0234 00008FE0 		add	r0, pc, r0
 552 0238 00408DE5 		str	r4, [sp]
 553              	.LVL45:
 157:/home/hkh/git/eapidk-code-r76-trunk/apps/EeePProg/linux/../BinFuncs.c ****       u16CRC_CCITT_fini,
 554              		.loc 1 157 3 view .LVU179
 555 023c 01108DE9 		stmib	sp, {r0, ip}
 556              	.LPIC12:
 557 0240 02208FE0 		add	r2, pc, r2
 558              	.LPIC13:
 559 0244 01108FE0 		add	r1, pc, r1
 560 0248 4500A0E3 		mov	r0, #69
 561 024c FEFFFFEB 		bl	siFormattedMessage_SC(PLT)
 562              	.LVL46:
 157:/home/hkh/git/eapidk-code-r76-trunk/apps/EeePProg/linux/../BinFuncs.c ****       u16CRC_CCITT_fini,
 563              		.loc 1 157 3 is_stmt 1 view .LVU180
 157:/home/hkh/git/eapidk-code-r76-trunk/apps/EeePProg/linux/../BinFuncs.c ****       u16CRC_CCITT_fini,
 564              		.loc 1 157 3 view .LVU181
 157:/home/hkh/git/eapidk-code-r76-trunk/apps/EeePProg/linux/../BinFuncs.c ****       u16CRC_CCITT_fini,
 565              		.loc 1 157 3 view .LVU182
 566              	.LDL3:
 168:/home/hkh/git/eapidk-code-r76-trunk/apps/EeePProg/linux/../BinFuncs.c **** }
 567              		.loc 1 168 3 view .LVU183
 157:/home/hkh/git/eapidk-code-r76-trunk/apps/EeePProg/linux/../BinFuncs.c ****       u16CRC_CCITT_fini,
ARM GAS  /tmp/ccf3bFwG.s 			page 24


 568              		.loc 1 157 3 is_stmt 0 view .LVU184
 569 0250 0400A0E1 		mov	r0, r4
 570              	.LBE45:
 571              	.LBE44:
 169:/home/hkh/git/eapidk-code-r76-trunk/apps/EeePProg/linux/../BinFuncs.c **** EApiStatus_t
 572              		.loc 1 169 1 view .LVU185
 573 0254 10D08DE2 		add	sp, sp, #16
 574              		.cfi_def_cfa_offset 16
 575              		@ sp needed
 576 0258 7080BDE8 		pop	{r4, r5, r6, pc}
 577              	.LVL47:
 578              	.L63:
 169:/home/hkh/git/eapidk-code-r76-trunk/apps/EeePProg/linux/../BinFuncs.c **** EApiStatus_t
 579              		.loc 1 169 1 view .LVU186
 580              		.align	2
 581              	.L62:
 582 025c 24000000 		.word	.LC8-(.LPIC14+8)
 583 0260 24000000 		.word	.LC3-(.LPIC15+8)
 584 0264 1C000000 		.word	.LC7-(.LPIC12+8)
 585 0268 1C000000 		.word	.LC1-(.LPIC13+8)
 586              		.cfi_endproc
 587              	.LFE6:
 589              		.section	.rodata.str1.4
 590 00d1 000000   		.align	2
 591              	.LC9:
 592 00d4 75313643 		.ascii	"u16CRC_CCITT_verify\000"
 592      52435F43 
 592      43495454 
 592      5F766572 
 592      69667900 
 593              		.align	2
 594              	.LC10:
 595 00e8 496E7661 		.ascii	"Invalid CRC CCITT\000"
 595      6C696420 
 595      43524320 
 595      43434954 
 595      5400
 596              		.text
 597              		.align	2
 598              		.global	u16CRC_CCITT_verify
 599              		.syntax unified
 600              		.arm
 601              		.fpu vfpv3
 603              	u16CRC_CCITT_verify:
 604              	.LVL48:
 605              	.LFB7:
 175:/home/hkh/git/eapidk-code-r76-trunk/apps/EeePProg/linux/../BinFuncs.c ****   EApiStatus_t StatusCode=EAPI_STATUS_SUCCESS;
 606              		.loc 1 175 1 is_stmt 1 view -0
 607              		.cfi_startproc
 608              		@ args = 0, pretend = 0, frame = 8
 609              		@ frame_needed = 0, uses_anonymous_args = 0
 175:/home/hkh/git/eapidk-code-r76-trunk/apps/EeePProg/linux/../BinFuncs.c ****   EApiStatus_t StatusCode=EAPI_STATUS_SUCCESS;
 610              		.loc 1 175 1 is_stmt 0 view .LVU188
 611 026c D0209FE5 		ldr	r2, .L74
 612 0270 F0402DE9 		push	{r4, r5, r6, r7, lr}
 613              		.cfi_def_cfa_offset 20
 614              		.cfi_offset 4, -20
ARM GAS  /tmp/ccf3bFwG.s 			page 25


 615              		.cfi_offset 5, -16
 616              		.cfi_offset 6, -12
 617              		.cfi_offset 7, -8
 618              		.cfi_offset 14, -4
 619 0274 0060A0E1 		mov	r6, r0
 620 0278 C8309FE5 		ldr	r3, .L74+4
 621 027c 1CD04DE2 		sub	sp, sp, #28
 622              		.cfi_def_cfa_offset 48
 175:/home/hkh/git/eapidk-code-r76-trunk/apps/EeePProg/linux/../BinFuncs.c ****   EApiStatus_t StatusCode=EAPI_STATUS_SUCCESS;
 623              		.loc 1 175 1 view .LVU189
 624              	.LPIC21:
 625 0280 02208FE0 		add	r2, pc, r2
 626 0284 0170A0E1 		mov	r7, r1
 627              	.LBB56:
 628              	.LBB57:
 155:/home/hkh/git/eapidk-code-r76-trunk/apps/EeePProg/linux/../BinFuncs.c ****   unsigned      CRC=pCRC->CRC;
 629              		.loc 1 155 17 view .LVU190
 630 0288 000090E5 		ldr	r0, [r0]
 631              	.LVL49:
 164:/home/hkh/git/eapidk-code-r76-trunk/apps/EeePProg/linux/../BinFuncs.c **** 
 632              		.loc 1 164 12 view .LVU191
 633 028c 0040A0E3 		mov	r4, #0
 634              	.LBE57:
 635              	.LBE56:
 175:/home/hkh/git/eapidk-code-r76-trunk/apps/EeePProg/linux/../BinFuncs.c ****   EApiStatus_t StatusCode=EAPI_STATUS_SUCCESS;
 636              		.loc 1 175 1 view .LVU192
 637 0290 033092E7 		ldr	r3, [r2, r3]
 638 0294 B050D0E1 		ldrh	r5, [r0]
 639 0298 003093E5 		ldr	r3, [r3]
 640 029c 14308DE5 		str	r3, [sp, #20]
 641 02a0 0030A0E3 		mov	r3, #0
 176:/home/hkh/git/eapidk-code-r76-trunk/apps/EeePProg/linux/../BinFuncs.c ****   uint8_t Digest[2];
 642              		.loc 1 176 3 is_stmt 1 view .LVU193
 643              	.LVL50:
 177:/home/hkh/git/eapidk-code-r76-trunk/apps/EeePProg/linux/../BinFuncs.c **** 
 644              		.loc 1 177 3 view .LVU194
 179:/home/hkh/git/eapidk-code-r76-trunk/apps/EeePProg/linux/../BinFuncs.c **** 
 645              		.loc 1 179 3 view .LVU195
 179:/home/hkh/git/eapidk-code-r76-trunk/apps/EeePProg/linux/../BinFuncs.c **** 
 646              		.loc 1 179 3 view .LVU196
 647              	.LBB64:
 648              	.LBI56:
 149:/home/hkh/git/eapidk-code-r76-trunk/apps/EeePProg/linux/../BinFuncs.c ****     __IN      void **pContext,  /* CRC Context       */
 649              		.loc 1 149 1 view .LVU197
 650              	.LBB62:
 154:/home/hkh/git/eapidk-code-r76-trunk/apps/EeePProg/linux/../BinFuncs.c ****   CRC_State_t * pCRC=*pContext;
 651              		.loc 1 154 3 view .LVU198
 155:/home/hkh/git/eapidk-code-r76-trunk/apps/EeePProg/linux/../BinFuncs.c ****   unsigned      CRC=pCRC->CRC;
 652              		.loc 1 155 3 view .LVU199
 156:/home/hkh/git/eapidk-code-r76-trunk/apps/EeePProg/linux/../BinFuncs.c ****   EAPI_APP_ASSERT_PARAMATER_NULL(
 653              		.loc 1 156 3 view .LVU200
 163:/home/hkh/git/eapidk-code-r76-trunk/apps/EeePProg/linux/../BinFuncs.c ****   *pContext=NULL;
 654              		.loc 1 163 3 is_stmt 0 view .LVU201
 655 02a4 FEFFFFEB 		bl	free(PLT)
 656              	.LVL51:
 163:/home/hkh/git/eapidk-code-r76-trunk/apps/EeePProg/linux/../BinFuncs.c ****   *pContext=NULL;
 657              		.loc 1 163 3 view .LVU202
ARM GAS  /tmp/ccf3bFwG.s 			page 26


 658 02a8 B55FBFE6 		rev16	r5, r5
 659              	.LVL52:
 157:/home/hkh/git/eapidk-code-r76-trunk/apps/EeePProg/linux/../BinFuncs.c ****       u16CRC_CCITT_fini,
 660              		.loc 1 157 3 is_stmt 1 view .LVU203
 157:/home/hkh/git/eapidk-code-r76-trunk/apps/EeePProg/linux/../BinFuncs.c ****       u16CRC_CCITT_fini,
 661              		.loc 1 157 3 view .LVU204
 161:/home/hkh/git/eapidk-code-r76-trunk/apps/EeePProg/linux/../BinFuncs.c **** /*   printf("L%04i 0x%04X 0x%04lX\n", __LINE__, pCRC->CRC&0xFFFF, (unsigned long)pCRC->Cnt); */
 662              		.loc 1 161 8 view .LVU205
 163:/home/hkh/git/eapidk-code-r76-trunk/apps/EeePProg/linux/../BinFuncs.c ****   *pContext=NULL;
 663              		.loc 1 163 3 view .LVU206
 164:/home/hkh/git/eapidk-code-r76-trunk/apps/EeePProg/linux/../BinFuncs.c **** 
 664              		.loc 1 164 3 view .LVU207
 164:/home/hkh/git/eapidk-code-r76-trunk/apps/EeePProg/linux/../BinFuncs.c **** 
 665              		.loc 1 164 12 is_stmt 0 view .LVU208
 666 02ac 004086E5 		str	r4, [r6]
 166:/home/hkh/git/eapidk-code-r76-trunk/apps/EeePProg/linux/../BinFuncs.c **** EAPI_APP_ASSERT_EXIT
 667              		.loc 1 166 3 is_stmt 1 view .LVU209
 668              	.LVL53:
 669              	.LBB58:
 670              	.LBI58:
 567:/home/hkh/git/eapidk-code-r76-trunk/apps/EeePProg/linux/../BinFuncs.c ****     uint8_t *pBuffer,
 671              		.loc 1 567 1 view .LVU210
 672              	.LBB59:
 572:/home/hkh/git/eapidk-code-r76-trunk/apps/EeePProg/linux/../BinFuncs.c ****   pBuffer[0]=EEEP_LO_UINT8(Value>>(8*1));
 673              		.loc 1 572 3 view .LVU211
 674              		.loc 1 573 3 view .LVU212
 675              	.LBE59:
 676              	.LBE58:
 677              	.LBE62:
 678              	.LBE64:
 181:/home/hkh/git/eapidk-code-r76-trunk/apps/EeePProg/linux/../BinFuncs.c ****       u16CRC_CCITT_verify,
 679              		.loc 1 181 3 is_stmt 0 view .LVU213
 680 02b0 0030D7E5 		ldrb	r3, [r7]	@ zero_extendqisi2
 681 02b4 7520EFE6 		uxtb	r2, r5
 682              	.LBB65:
 683              	.LBB63:
 684              	.LBB61:
 685              	.LBB60:
 686              		.loc 1 573 13 view .LVU214
 687 02b8 B051CDE1 		strh	r5, [sp, #16]	@ movhi
 688              	.LDL4:
 689              	.LVL54:
 690              		.loc 1 573 13 view .LVU215
 691              	.LBE60:
 692              	.LBE61:
 168:/home/hkh/git/eapidk-code-r76-trunk/apps/EeePProg/linux/../BinFuncs.c **** }
 693              		.loc 1 168 3 is_stmt 1 view .LVU216
 168:/home/hkh/git/eapidk-code-r76-trunk/apps/EeePProg/linux/../BinFuncs.c **** }
 694              		.loc 1 168 3 is_stmt 0 view .LVU217
 695              	.LBE63:
 696              	.LBE65:
 179:/home/hkh/git/eapidk-code-r76-trunk/apps/EeePProg/linux/../BinFuncs.c **** 
 697              		.loc 1 179 3 is_stmt 1 view .LVU218
 179:/home/hkh/git/eapidk-code-r76-trunk/apps/EeePProg/linux/../BinFuncs.c **** 
 698              		.loc 1 179 3 view .LVU219
 181:/home/hkh/git/eapidk-code-r76-trunk/apps/EeePProg/linux/../BinFuncs.c ****       u16CRC_CCITT_verify,
 699              		.loc 1 181 3 view .LVU220
ARM GAS  /tmp/ccf3bFwG.s 			page 27


 700 02bc 030052E1 		cmp	r2, r3
 701 02c0 1900000A 		beq	.L72
 702              	.L67:
 703              	.L65:
 704              	.LBB66:
 705              	.LBI66:
 171:/home/hkh/git/eapidk-code-r76-trunk/apps/EeePProg/linux/../BinFuncs.c ****     __IN       void**pContext,  /* CRC Context       */
 706              		.loc 1 171 1 view .LVU221
 707              	.LVL55:
 708              	.LBB67:
 181:/home/hkh/git/eapidk-code-r76-trunk/apps/EeePProg/linux/../BinFuncs.c ****       u16CRC_CCITT_verify,
 709              		.loc 1 181 3 view .LVU222
 181:/home/hkh/git/eapidk-code-r76-trunk/apps/EeePProg/linux/../BinFuncs.c ****       u16CRC_CCITT_verify,
 710              		.loc 1 181 3 view .LVU223
 711 02c4 80C09FE5 		ldr	ip, .L74+8
 712 02c8 0F4CE0E3 		mvn	r4, #3840
 713 02cc 7C009FE5 		ldr	r0, .L74+12
 714 02d0 B530A0E3 		mov	r3, #181
 715 02d4 78209FE5 		ldr	r2, .L74+16
 716 02d8 78109FE5 		ldr	r1, .L74+20
 717              	.LPIC18:
 718 02dc 0CC08FE0 		add	ip, pc, ip
 719              	.LPIC19:
 720 02e0 00008FE0 		add	r0, pc, r0
 721 02e4 00408DE5 		str	r4, [sp]
 722 02e8 01108DE9 		stmib	sp, {r0, ip}
 723              	.LPIC16:
 724 02ec 02208FE0 		add	r2, pc, r2
 725              	.LPIC17:
 726 02f0 01108FE0 		add	r1, pc, r1
 727 02f4 4500A0E3 		mov	r0, #69
 728 02f8 FEFFFFEB 		bl	siFormattedMessage_SC(PLT)
 729              	.LVL56:
 730              	.L71:
 181:/home/hkh/git/eapidk-code-r76-trunk/apps/EeePProg/linux/../BinFuncs.c ****       u16CRC_CCITT_verify,
 731              		.loc 1 181 3 view .LVU224
 181:/home/hkh/git/eapidk-code-r76-trunk/apps/EeePProg/linux/../BinFuncs.c ****       u16CRC_CCITT_verify,
 732              		.loc 1 181 3 view .LVU225
 181:/home/hkh/git/eapidk-code-r76-trunk/apps/EeePProg/linux/../BinFuncs.c ****       u16CRC_CCITT_verify,
 733              		.loc 1 181 3 view .LVU226
 734              	.LDL5:
 181:/home/hkh/git/eapidk-code-r76-trunk/apps/EeePProg/linux/../BinFuncs.c ****       u16CRC_CCITT_verify,
 735              		.loc 1 181 3 view .LVU227
 186:/home/hkh/git/eapidk-code-r76-trunk/apps/EeePProg/linux/../BinFuncs.c **** 
 736              		.loc 1 186 8 view .LVU228
 189:/home/hkh/git/eapidk-code-r76-trunk/apps/EeePProg/linux/../BinFuncs.c **** }
 737              		.loc 1 189 3 view .LVU229
 189:/home/hkh/git/eapidk-code-r76-trunk/apps/EeePProg/linux/../BinFuncs.c **** }
 738              		.loc 1 189 3 is_stmt 0 view .LVU230
 739              	.LBE67:
 740              	.LBE66:
 175:/home/hkh/git/eapidk-code-r76-trunk/apps/EeePProg/linux/../BinFuncs.c ****   EApiStatus_t StatusCode=EAPI_STATUS_SUCCESS;
 741              		.loc 1 175 1 view .LVU231
 742 02fc 58209FE5 		ldr	r2, .L74+24
 743              	.LBB69:
 744              	.LBB68:
 181:/home/hkh/git/eapidk-code-r76-trunk/apps/EeePProg/linux/../BinFuncs.c ****       u16CRC_CCITT_verify,
ARM GAS  /tmp/ccf3bFwG.s 			page 28


 745              		.loc 1 181 3 view .LVU232
 746 0300 0400A0E1 		mov	r0, r4
 747              	.LBE68:
 748              	.LBE69:
 190:/home/hkh/git/eapidk-code-r76-trunk/apps/EeePProg/linux/../BinFuncs.c **** 
 749              		.loc 1 190 1 view .LVU233
 750 0304 3C309FE5 		ldr	r3, .L74+4
 175:/home/hkh/git/eapidk-code-r76-trunk/apps/EeePProg/linux/../BinFuncs.c ****   EApiStatus_t StatusCode=EAPI_STATUS_SUCCESS;
 751              		.loc 1 175 1 view .LVU234
 752              	.LPIC20:
 753 0308 02208FE0 		add	r2, pc, r2
 190:/home/hkh/git/eapidk-code-r76-trunk/apps/EeePProg/linux/../BinFuncs.c **** 
 754              		.loc 1 190 1 view .LVU235
 755 030c 033092E7 		ldr	r3, [r2, r3]
 756 0310 002093E5 		ldr	r2, [r3]
 757 0314 14309DE5 		ldr	r3, [sp, #20]
 758 0318 022033E0 		eors	r2, r3, r2
 759 031c 0030A0E3 		mov	r3, #0
 760 0320 0600001A 		bne	.L73
 761 0324 1CD08DE2 		add	sp, sp, #28
 762              		.cfi_remember_state
 763              		.cfi_def_cfa_offset 20
 764              		@ sp needed
 765 0328 F080BDE8 		pop	{r4, r5, r6, r7, pc}
 766              	.LVL57:
 767              	.L72:
 768              		.cfi_restore_state
 181:/home/hkh/git/eapidk-code-r76-trunk/apps/EeePProg/linux/../BinFuncs.c ****       u16CRC_CCITT_verify,
 769              		.loc 1 181 3 view .LVU236
 770 032c 1120DDE5 		ldrb	r2, [sp, #17]	@ zero_extendqisi2
 771 0330 0130D7E5 		ldrb	r3, [r7, #1]	@ zero_extendqisi2
 772 0334 030052E1 		cmp	r2, r3
 773 0338 E1FFFF1A 		bne	.L65
 774 033c EEFFFFEA 		b	.L71
 775              	.L73:
 190:/home/hkh/git/eapidk-code-r76-trunk/apps/EeePProg/linux/../BinFuncs.c **** 
 776              		.loc 1 190 1 view .LVU237
 777 0340 FEFFFFEB 		bl	__stack_chk_fail(PLT)
 778              	.LVL58:
 779              	.L75:
 780              		.align	2
 781              	.L74:
 782 0344 BC000000 		.word	_GLOBAL_OFFSET_TABLE_-(.LPIC21+8)
 783 0348 00000000 		.word	__stack_chk_guard(GOT)
 784 034c 68000000 		.word	.LC10-(.LPIC18+8)
 785 0350 68000000 		.word	.LC3-(.LPIC19+8)
 786 0354 60000000 		.word	.LC9-(.LPIC16+8)
 787 0358 60000000 		.word	.LC1-(.LPIC17+8)
 788 035c 4C000000 		.word	_GLOBAL_OFFSET_TABLE_-(.LPIC20+8)
 789              		.cfi_endproc
 790              	.LFE7:
 792              		.align	2
 793              		.global	u32ChecksumBlock
 794              		.syntax unified
 795              		.arm
 796              		.fpu vfpv3
 798              	u32ChecksumBlock:
ARM GAS  /tmp/ccf3bFwG.s 			page 29


 799              	.LVL59:
 800              	.LFB1:
  46:/home/hkh/git/eapidk-code-r76-trunk/apps/EeePProg/linux/../BinFuncs.c ****   uint32_t ChkSum=0;
 801              		.loc 1 46 1 is_stmt 1 view -0
 802              		.cfi_startproc
 803              		@ args = 0, pretend = 0, frame = 0
 804              		@ frame_needed = 0, uses_anonymous_args = 0
  47:/home/hkh/git/eapidk-code-r76-trunk/apps/EeePProg/linux/../BinFuncs.c ****   while(stLength--){
 805              		.loc 1 47 3 view .LVU239
  48:/home/hkh/git/eapidk-code-r76-trunk/apps/EeePProg/linux/../BinFuncs.c ****     ChkSum+=(uint32_t)(*((uint8_t*)pcvBuffer));
 806              		.loc 1 48 3 view .LVU240
  48:/home/hkh/git/eapidk-code-r76-trunk/apps/EeePProg/linux/../BinFuncs.c ****     ChkSum+=(uint32_t)(*((uint8_t*)pcvBuffer));
 807              		.loc 1 48 9 view .LVU241
 808 0360 000051E3 		cmp	r1, #0
 809              	.LVL60:
  48:/home/hkh/git/eapidk-code-r76-trunk/apps/EeePProg/linux/../BinFuncs.c ****     ChkSum+=(uint32_t)(*((uint8_t*)pcvBuffer));
 810              		.loc 1 48 9 is_stmt 0 view .LVU242
 811 0364 5300000A 		beq	.L81
 812 0368 01C041E2 		sub	ip, r1, #1
 813              	.LVL61:
  48:/home/hkh/git/eapidk-code-r76-trunk/apps/EeePProg/linux/../BinFuncs.c ****     ChkSum+=(uint32_t)(*((uint8_t*)pcvBuffer));
 814              		.loc 1 48 9 view .LVU243
 815 036c 0030A0E1 		mov	r3, r0
 816 0370 1F005CE3 		cmp	ip, #31
 817 0374 5100009A 		bls	.L82
 818 0378 201080E2 		add	r1, r0, #32
  47:/home/hkh/git/eapidk-code-r76-trunk/apps/EeePProg/linux/../BinFuncs.c ****   while(stLength--){
 819              		.loc 1 47 12 view .LVU244
 820 037c 0000A0E3 		mov	r0, #0
 821              	.LVL62:
  46:/home/hkh/git/eapidk-code-r76-trunk/apps/EeePProg/linux/../BinFuncs.c ****   uint32_t ChkSum=0;
 822              		.loc 1 46 1 view .LVU245
 823 0380 04E02DE5 		str	lr, [sp, #-4]!
 824              		.cfi_def_cfa_offset 4
 825              		.cfi_offset 14, -4
 826              	.LVL63:
 827              	.L79:
  49:/home/hkh/git/eapidk-code-r76-trunk/apps/EeePProg/linux/../BinFuncs.c ****     pcvBuffer=((uint8_t*)pcvBuffer)+1;
 828              		.loc 1 49 5 is_stmt 1 view .LVU246
  49:/home/hkh/git/eapidk-code-r76-trunk/apps/EeePProg/linux/../BinFuncs.c ****     pcvBuffer=((uint8_t*)pcvBuffer)+1;
 829              		.loc 1 49 13 is_stmt 0 view .LVU247
 830 0384 1FE051E5 		ldrb	lr, [r1, #-31]	@ zero_extendqisi2
  48:/home/hkh/git/eapidk-code-r76-trunk/apps/EeePProg/linux/../BinFuncs.c ****     ChkSum+=(uint32_t)(*((uint8_t*)pcvBuffer));
 831              		.loc 1 48 17 view .LVU248
 832 0388 20C04CE2 		sub	ip, ip, #32
 833 038c 1F005CE3 		cmp	ip, #31
 834 0390 0130A0E1 		mov	r3, r1
 835              	.LVL64:
  50:/home/hkh/git/eapidk-code-r76-trunk/apps/EeePProg/linux/../BinFuncs.c ****   }
 836              		.loc 1 50 5 is_stmt 1 view .LVU249
  48:/home/hkh/git/eapidk-code-r76-trunk/apps/EeePProg/linux/../BinFuncs.c ****     ChkSum+=(uint32_t)(*((uint8_t*)pcvBuffer));
 837              		.loc 1 48 9 view .LVU250
  49:/home/hkh/git/eapidk-code-r76-trunk/apps/EeePProg/linux/../BinFuncs.c ****     pcvBuffer=((uint8_t*)pcvBuffer)+1;
 838              		.loc 1 49 5 view .LVU251
  50:/home/hkh/git/eapidk-code-r76-trunk/apps/EeePProg/linux/../BinFuncs.c ****   }
 839              		.loc 1 50 5 view .LVU252
  48:/home/hkh/git/eapidk-code-r76-trunk/apps/EeePProg/linux/../BinFuncs.c ****     ChkSum+=(uint32_t)(*((uint8_t*)pcvBuffer));
ARM GAS  /tmp/ccf3bFwG.s 			page 30


 840              		.loc 1 48 9 view .LVU253
  49:/home/hkh/git/eapidk-code-r76-trunk/apps/EeePProg/linux/../BinFuncs.c ****     pcvBuffer=((uint8_t*)pcvBuffer)+1;
 841              		.loc 1 49 5 view .LVU254
  50:/home/hkh/git/eapidk-code-r76-trunk/apps/EeePProg/linux/../BinFuncs.c ****   }
 842              		.loc 1 50 5 view .LVU255
  48:/home/hkh/git/eapidk-code-r76-trunk/apps/EeePProg/linux/../BinFuncs.c ****     ChkSum+=(uint32_t)(*((uint8_t*)pcvBuffer));
 843              		.loc 1 48 9 view .LVU256
  49:/home/hkh/git/eapidk-code-r76-trunk/apps/EeePProg/linux/../BinFuncs.c ****     pcvBuffer=((uint8_t*)pcvBuffer)+1;
 844              		.loc 1 49 5 view .LVU257
  50:/home/hkh/git/eapidk-code-r76-trunk/apps/EeePProg/linux/../BinFuncs.c ****   }
 845              		.loc 1 50 5 view .LVU258
  48:/home/hkh/git/eapidk-code-r76-trunk/apps/EeePProg/linux/../BinFuncs.c ****     ChkSum+=(uint32_t)(*((uint8_t*)pcvBuffer));
 846              		.loc 1 48 9 view .LVU259
  49:/home/hkh/git/eapidk-code-r76-trunk/apps/EeePProg/linux/../BinFuncs.c ****     pcvBuffer=((uint8_t*)pcvBuffer)+1;
 847              		.loc 1 49 5 view .LVU260
  50:/home/hkh/git/eapidk-code-r76-trunk/apps/EeePProg/linux/../BinFuncs.c ****   }
 848              		.loc 1 50 5 view .LVU261
  48:/home/hkh/git/eapidk-code-r76-trunk/apps/EeePProg/linux/../BinFuncs.c ****     ChkSum+=(uint32_t)(*((uint8_t*)pcvBuffer));
 849              		.loc 1 48 9 view .LVU262
  49:/home/hkh/git/eapidk-code-r76-trunk/apps/EeePProg/linux/../BinFuncs.c ****     pcvBuffer=((uint8_t*)pcvBuffer)+1;
 850              		.loc 1 49 5 view .LVU263
  50:/home/hkh/git/eapidk-code-r76-trunk/apps/EeePProg/linux/../BinFuncs.c ****   }
 851              		.loc 1 50 5 view .LVU264
  48:/home/hkh/git/eapidk-code-r76-trunk/apps/EeePProg/linux/../BinFuncs.c ****     ChkSum+=(uint32_t)(*((uint8_t*)pcvBuffer));
 852              		.loc 1 48 9 view .LVU265
  49:/home/hkh/git/eapidk-code-r76-trunk/apps/EeePProg/linux/../BinFuncs.c ****     pcvBuffer=((uint8_t*)pcvBuffer)+1;
 853              		.loc 1 49 5 view .LVU266
  50:/home/hkh/git/eapidk-code-r76-trunk/apps/EeePProg/linux/../BinFuncs.c ****   }
 854              		.loc 1 50 5 view .LVU267
  48:/home/hkh/git/eapidk-code-r76-trunk/apps/EeePProg/linux/../BinFuncs.c ****     ChkSum+=(uint32_t)(*((uint8_t*)pcvBuffer));
 855              		.loc 1 48 9 view .LVU268
  49:/home/hkh/git/eapidk-code-r76-trunk/apps/EeePProg/linux/../BinFuncs.c ****     pcvBuffer=((uint8_t*)pcvBuffer)+1;
 856              		.loc 1 49 5 view .LVU269
  50:/home/hkh/git/eapidk-code-r76-trunk/apps/EeePProg/linux/../BinFuncs.c ****   }
 857              		.loc 1 50 5 view .LVU270
  48:/home/hkh/git/eapidk-code-r76-trunk/apps/EeePProg/linux/../BinFuncs.c ****     ChkSum+=(uint32_t)(*((uint8_t*)pcvBuffer));
 858              		.loc 1 48 9 view .LVU271
  49:/home/hkh/git/eapidk-code-r76-trunk/apps/EeePProg/linux/../BinFuncs.c ****     pcvBuffer=((uint8_t*)pcvBuffer)+1;
 859              		.loc 1 49 5 view .LVU272
  50:/home/hkh/git/eapidk-code-r76-trunk/apps/EeePProg/linux/../BinFuncs.c ****   }
 860              		.loc 1 50 5 view .LVU273
  48:/home/hkh/git/eapidk-code-r76-trunk/apps/EeePProg/linux/../BinFuncs.c ****     ChkSum+=(uint32_t)(*((uint8_t*)pcvBuffer));
 861              		.loc 1 48 9 view .LVU274
  49:/home/hkh/git/eapidk-code-r76-trunk/apps/EeePProg/linux/../BinFuncs.c ****     pcvBuffer=((uint8_t*)pcvBuffer)+1;
 862              		.loc 1 49 5 view .LVU275
  50:/home/hkh/git/eapidk-code-r76-trunk/apps/EeePProg/linux/../BinFuncs.c ****   }
 863              		.loc 1 50 5 view .LVU276
  48:/home/hkh/git/eapidk-code-r76-trunk/apps/EeePProg/linux/../BinFuncs.c ****     ChkSum+=(uint32_t)(*((uint8_t*)pcvBuffer));
 864              		.loc 1 48 9 view .LVU277
  49:/home/hkh/git/eapidk-code-r76-trunk/apps/EeePProg/linux/../BinFuncs.c ****     pcvBuffer=((uint8_t*)pcvBuffer)+1;
 865              		.loc 1 49 5 view .LVU278
  50:/home/hkh/git/eapidk-code-r76-trunk/apps/EeePProg/linux/../BinFuncs.c ****   }
 866              		.loc 1 50 5 view .LVU279
  48:/home/hkh/git/eapidk-code-r76-trunk/apps/EeePProg/linux/../BinFuncs.c ****     ChkSum+=(uint32_t)(*((uint8_t*)pcvBuffer));
 867              		.loc 1 48 9 view .LVU280
  49:/home/hkh/git/eapidk-code-r76-trunk/apps/EeePProg/linux/../BinFuncs.c ****     pcvBuffer=((uint8_t*)pcvBuffer)+1;
 868              		.loc 1 49 5 view .LVU281
ARM GAS  /tmp/ccf3bFwG.s 			page 31


  50:/home/hkh/git/eapidk-code-r76-trunk/apps/EeePProg/linux/../BinFuncs.c ****   }
 869              		.loc 1 50 5 view .LVU282
  48:/home/hkh/git/eapidk-code-r76-trunk/apps/EeePProg/linux/../BinFuncs.c ****     ChkSum+=(uint32_t)(*((uint8_t*)pcvBuffer));
 870              		.loc 1 48 9 view .LVU283
  49:/home/hkh/git/eapidk-code-r76-trunk/apps/EeePProg/linux/../BinFuncs.c ****     pcvBuffer=((uint8_t*)pcvBuffer)+1;
 871              		.loc 1 49 5 view .LVU284
  50:/home/hkh/git/eapidk-code-r76-trunk/apps/EeePProg/linux/../BinFuncs.c ****   }
 872              		.loc 1 50 5 view .LVU285
  48:/home/hkh/git/eapidk-code-r76-trunk/apps/EeePProg/linux/../BinFuncs.c ****     ChkSum+=(uint32_t)(*((uint8_t*)pcvBuffer));
 873              		.loc 1 48 9 view .LVU286
  49:/home/hkh/git/eapidk-code-r76-trunk/apps/EeePProg/linux/../BinFuncs.c ****     pcvBuffer=((uint8_t*)pcvBuffer)+1;
 874              		.loc 1 49 5 view .LVU287
  50:/home/hkh/git/eapidk-code-r76-trunk/apps/EeePProg/linux/../BinFuncs.c ****   }
 875              		.loc 1 50 5 view .LVU288
  48:/home/hkh/git/eapidk-code-r76-trunk/apps/EeePProg/linux/../BinFuncs.c ****     ChkSum+=(uint32_t)(*((uint8_t*)pcvBuffer));
 876              		.loc 1 48 9 view .LVU289
  49:/home/hkh/git/eapidk-code-r76-trunk/apps/EeePProg/linux/../BinFuncs.c ****     pcvBuffer=((uint8_t*)pcvBuffer)+1;
 877              		.loc 1 49 5 view .LVU290
  50:/home/hkh/git/eapidk-code-r76-trunk/apps/EeePProg/linux/../BinFuncs.c ****   }
 878              		.loc 1 50 5 view .LVU291
  48:/home/hkh/git/eapidk-code-r76-trunk/apps/EeePProg/linux/../BinFuncs.c ****     ChkSum+=(uint32_t)(*((uint8_t*)pcvBuffer));
 879              		.loc 1 48 9 view .LVU292
  49:/home/hkh/git/eapidk-code-r76-trunk/apps/EeePProg/linux/../BinFuncs.c ****     pcvBuffer=((uint8_t*)pcvBuffer)+1;
 880              		.loc 1 49 5 view .LVU293
  50:/home/hkh/git/eapidk-code-r76-trunk/apps/EeePProg/linux/../BinFuncs.c ****   }
 881              		.loc 1 50 5 view .LVU294
  48:/home/hkh/git/eapidk-code-r76-trunk/apps/EeePProg/linux/../BinFuncs.c ****     ChkSum+=(uint32_t)(*((uint8_t*)pcvBuffer));
 882              		.loc 1 48 9 view .LVU295
  49:/home/hkh/git/eapidk-code-r76-trunk/apps/EeePProg/linux/../BinFuncs.c ****     pcvBuffer=((uint8_t*)pcvBuffer)+1;
 883              		.loc 1 49 5 view .LVU296
  50:/home/hkh/git/eapidk-code-r76-trunk/apps/EeePProg/linux/../BinFuncs.c ****   }
 884              		.loc 1 50 5 view .LVU297
  48:/home/hkh/git/eapidk-code-r76-trunk/apps/EeePProg/linux/../BinFuncs.c ****     ChkSum+=(uint32_t)(*((uint8_t*)pcvBuffer));
 885              		.loc 1 48 9 view .LVU298
  49:/home/hkh/git/eapidk-code-r76-trunk/apps/EeePProg/linux/../BinFuncs.c ****     pcvBuffer=((uint8_t*)pcvBuffer)+1;
 886              		.loc 1 49 5 view .LVU299
  50:/home/hkh/git/eapidk-code-r76-trunk/apps/EeePProg/linux/../BinFuncs.c ****   }
 887              		.loc 1 50 5 view .LVU300
  48:/home/hkh/git/eapidk-code-r76-trunk/apps/EeePProg/linux/../BinFuncs.c ****     ChkSum+=(uint32_t)(*((uint8_t*)pcvBuffer));
 888              		.loc 1 48 9 view .LVU301
  49:/home/hkh/git/eapidk-code-r76-trunk/apps/EeePProg/linux/../BinFuncs.c ****     pcvBuffer=((uint8_t*)pcvBuffer)+1;
 889              		.loc 1 49 5 view .LVU302
  50:/home/hkh/git/eapidk-code-r76-trunk/apps/EeePProg/linux/../BinFuncs.c ****   }
 890              		.loc 1 50 5 view .LVU303
  48:/home/hkh/git/eapidk-code-r76-trunk/apps/EeePProg/linux/../BinFuncs.c ****     ChkSum+=(uint32_t)(*((uint8_t*)pcvBuffer));
 891              		.loc 1 48 9 view .LVU304
  49:/home/hkh/git/eapidk-code-r76-trunk/apps/EeePProg/linux/../BinFuncs.c ****     pcvBuffer=((uint8_t*)pcvBuffer)+1;
 892              		.loc 1 49 5 view .LVU305
  50:/home/hkh/git/eapidk-code-r76-trunk/apps/EeePProg/linux/../BinFuncs.c ****   }
 893              		.loc 1 50 5 view .LVU306
  48:/home/hkh/git/eapidk-code-r76-trunk/apps/EeePProg/linux/../BinFuncs.c ****     ChkSum+=(uint32_t)(*((uint8_t*)pcvBuffer));
 894              		.loc 1 48 9 view .LVU307
  49:/home/hkh/git/eapidk-code-r76-trunk/apps/EeePProg/linux/../BinFuncs.c ****     pcvBuffer=((uint8_t*)pcvBuffer)+1;
 895              		.loc 1 49 5 view .LVU308
  50:/home/hkh/git/eapidk-code-r76-trunk/apps/EeePProg/linux/../BinFuncs.c ****   }
 896              		.loc 1 50 5 view .LVU309
  48:/home/hkh/git/eapidk-code-r76-trunk/apps/EeePProg/linux/../BinFuncs.c ****     ChkSum+=(uint32_t)(*((uint8_t*)pcvBuffer));
ARM GAS  /tmp/ccf3bFwG.s 			page 32


 897              		.loc 1 48 9 view .LVU310
  49:/home/hkh/git/eapidk-code-r76-trunk/apps/EeePProg/linux/../BinFuncs.c ****     pcvBuffer=((uint8_t*)pcvBuffer)+1;
 898              		.loc 1 49 5 view .LVU311
  50:/home/hkh/git/eapidk-code-r76-trunk/apps/EeePProg/linux/../BinFuncs.c ****   }
 899              		.loc 1 50 5 view .LVU312
  48:/home/hkh/git/eapidk-code-r76-trunk/apps/EeePProg/linux/../BinFuncs.c ****     ChkSum+=(uint32_t)(*((uint8_t*)pcvBuffer));
 900              		.loc 1 48 9 view .LVU313
  49:/home/hkh/git/eapidk-code-r76-trunk/apps/EeePProg/linux/../BinFuncs.c ****     pcvBuffer=((uint8_t*)pcvBuffer)+1;
 901              		.loc 1 49 5 view .LVU314
  50:/home/hkh/git/eapidk-code-r76-trunk/apps/EeePProg/linux/../BinFuncs.c ****   }
 902              		.loc 1 50 5 view .LVU315
  48:/home/hkh/git/eapidk-code-r76-trunk/apps/EeePProg/linux/../BinFuncs.c ****     ChkSum+=(uint32_t)(*((uint8_t*)pcvBuffer));
 903              		.loc 1 48 9 view .LVU316
  49:/home/hkh/git/eapidk-code-r76-trunk/apps/EeePProg/linux/../BinFuncs.c ****     pcvBuffer=((uint8_t*)pcvBuffer)+1;
 904              		.loc 1 49 5 view .LVU317
  50:/home/hkh/git/eapidk-code-r76-trunk/apps/EeePProg/linux/../BinFuncs.c ****   }
 905              		.loc 1 50 5 view .LVU318
  48:/home/hkh/git/eapidk-code-r76-trunk/apps/EeePProg/linux/../BinFuncs.c ****     ChkSum+=(uint32_t)(*((uint8_t*)pcvBuffer));
 906              		.loc 1 48 9 view .LVU319
  49:/home/hkh/git/eapidk-code-r76-trunk/apps/EeePProg/linux/../BinFuncs.c ****     pcvBuffer=((uint8_t*)pcvBuffer)+1;
 907              		.loc 1 49 5 view .LVU320
  50:/home/hkh/git/eapidk-code-r76-trunk/apps/EeePProg/linux/../BinFuncs.c ****   }
 908              		.loc 1 50 5 view .LVU321
  48:/home/hkh/git/eapidk-code-r76-trunk/apps/EeePProg/linux/../BinFuncs.c ****     ChkSum+=(uint32_t)(*((uint8_t*)pcvBuffer));
 909              		.loc 1 48 9 view .LVU322
  49:/home/hkh/git/eapidk-code-r76-trunk/apps/EeePProg/linux/../BinFuncs.c ****     pcvBuffer=((uint8_t*)pcvBuffer)+1;
 910              		.loc 1 49 5 view .LVU323
  50:/home/hkh/git/eapidk-code-r76-trunk/apps/EeePProg/linux/../BinFuncs.c ****   }
 911              		.loc 1 50 5 view .LVU324
  48:/home/hkh/git/eapidk-code-r76-trunk/apps/EeePProg/linux/../BinFuncs.c ****     ChkSum+=(uint32_t)(*((uint8_t*)pcvBuffer));
 912              		.loc 1 48 9 view .LVU325
  49:/home/hkh/git/eapidk-code-r76-trunk/apps/EeePProg/linux/../BinFuncs.c ****     pcvBuffer=((uint8_t*)pcvBuffer)+1;
 913              		.loc 1 49 5 view .LVU326
  50:/home/hkh/git/eapidk-code-r76-trunk/apps/EeePProg/linux/../BinFuncs.c ****   }
 914              		.loc 1 50 5 view .LVU327
  48:/home/hkh/git/eapidk-code-r76-trunk/apps/EeePProg/linux/../BinFuncs.c ****     ChkSum+=(uint32_t)(*((uint8_t*)pcvBuffer));
 915              		.loc 1 48 9 view .LVU328
  49:/home/hkh/git/eapidk-code-r76-trunk/apps/EeePProg/linux/../BinFuncs.c ****     pcvBuffer=((uint8_t*)pcvBuffer)+1;
 916              		.loc 1 49 5 view .LVU329
  50:/home/hkh/git/eapidk-code-r76-trunk/apps/EeePProg/linux/../BinFuncs.c ****   }
 917              		.loc 1 50 5 view .LVU330
  48:/home/hkh/git/eapidk-code-r76-trunk/apps/EeePProg/linux/../BinFuncs.c ****     ChkSum+=(uint32_t)(*((uint8_t*)pcvBuffer));
 918              		.loc 1 48 9 view .LVU331
  49:/home/hkh/git/eapidk-code-r76-trunk/apps/EeePProg/linux/../BinFuncs.c ****     pcvBuffer=((uint8_t*)pcvBuffer)+1;
 919              		.loc 1 49 5 view .LVU332
  50:/home/hkh/git/eapidk-code-r76-trunk/apps/EeePProg/linux/../BinFuncs.c ****   }
 920              		.loc 1 50 5 view .LVU333
  48:/home/hkh/git/eapidk-code-r76-trunk/apps/EeePProg/linux/../BinFuncs.c ****     ChkSum+=(uint32_t)(*((uint8_t*)pcvBuffer));
 921              		.loc 1 48 9 view .LVU334
  49:/home/hkh/git/eapidk-code-r76-trunk/apps/EeePProg/linux/../BinFuncs.c ****     pcvBuffer=((uint8_t*)pcvBuffer)+1;
 922              		.loc 1 49 5 view .LVU335
  50:/home/hkh/git/eapidk-code-r76-trunk/apps/EeePProg/linux/../BinFuncs.c ****   }
 923              		.loc 1 50 5 view .LVU336
  48:/home/hkh/git/eapidk-code-r76-trunk/apps/EeePProg/linux/../BinFuncs.c ****     ChkSum+=(uint32_t)(*((uint8_t*)pcvBuffer));
 924              		.loc 1 48 9 view .LVU337
  49:/home/hkh/git/eapidk-code-r76-trunk/apps/EeePProg/linux/../BinFuncs.c ****     pcvBuffer=((uint8_t*)pcvBuffer)+1;
 925              		.loc 1 49 5 view .LVU338
ARM GAS  /tmp/ccf3bFwG.s 			page 33


  50:/home/hkh/git/eapidk-code-r76-trunk/apps/EeePProg/linux/../BinFuncs.c ****   }
 926              		.loc 1 50 5 view .LVU339
  48:/home/hkh/git/eapidk-code-r76-trunk/apps/EeePProg/linux/../BinFuncs.c ****     ChkSum+=(uint32_t)(*((uint8_t*)pcvBuffer));
 927              		.loc 1 48 9 view .LVU340
  49:/home/hkh/git/eapidk-code-r76-trunk/apps/EeePProg/linux/../BinFuncs.c ****     pcvBuffer=((uint8_t*)pcvBuffer)+1;
 928              		.loc 1 49 5 view .LVU341
  49:/home/hkh/git/eapidk-code-r76-trunk/apps/EeePProg/linux/../BinFuncs.c ****     pcvBuffer=((uint8_t*)pcvBuffer)+1;
 929              		.loc 1 49 13 is_stmt 0 view .LVU342
 930 0394 202051E5 		ldrb	r2, [r1, #-32]	@ zero_extendqisi2
 931 0398 02F0D1F5 		pld	[r1, #2]
 932 039c 201081E2 		add	r1, r1, #32
 933              	.LVL65:
  49:/home/hkh/git/eapidk-code-r76-trunk/apps/EeePProg/linux/../BinFuncs.c ****     pcvBuffer=((uint8_t*)pcvBuffer)+1;
 934              		.loc 1 49 11 view .LVU343
 935 03a0 0E2082E0 		add	r2, r2, lr
  49:/home/hkh/git/eapidk-code-r76-trunk/apps/EeePProg/linux/../BinFuncs.c ****     pcvBuffer=((uint8_t*)pcvBuffer)+1;
 936              		.loc 1 49 13 view .LVU344
 937 03a4 3EE051E5 		ldrb	lr, [r1, #-62]	@ zero_extendqisi2
  49:/home/hkh/git/eapidk-code-r76-trunk/apps/EeePProg/linux/../BinFuncs.c ****     pcvBuffer=((uint8_t*)pcvBuffer)+1;
 938              		.loc 1 49 11 view .LVU345
 939 03a8 0E2082E0 		add	r2, r2, lr
  49:/home/hkh/git/eapidk-code-r76-trunk/apps/EeePProg/linux/../BinFuncs.c ****     pcvBuffer=((uint8_t*)pcvBuffer)+1;
 940              		.loc 1 49 13 view .LVU346
 941 03ac 3DE051E5 		ldrb	lr, [r1, #-61]	@ zero_extendqisi2
  49:/home/hkh/git/eapidk-code-r76-trunk/apps/EeePProg/linux/../BinFuncs.c ****     pcvBuffer=((uint8_t*)pcvBuffer)+1;
 942              		.loc 1 49 11 view .LVU347
 943 03b0 0E2082E0 		add	r2, r2, lr
  49:/home/hkh/git/eapidk-code-r76-trunk/apps/EeePProg/linux/../BinFuncs.c ****     pcvBuffer=((uint8_t*)pcvBuffer)+1;
 944              		.loc 1 49 13 view .LVU348
 945 03b4 3CE051E5 		ldrb	lr, [r1, #-60]	@ zero_extendqisi2
  49:/home/hkh/git/eapidk-code-r76-trunk/apps/EeePProg/linux/../BinFuncs.c ****     pcvBuffer=((uint8_t*)pcvBuffer)+1;
 946              		.loc 1 49 11 view .LVU349
 947 03b8 0E2082E0 		add	r2, r2, lr
  49:/home/hkh/git/eapidk-code-r76-trunk/apps/EeePProg/linux/../BinFuncs.c ****     pcvBuffer=((uint8_t*)pcvBuffer)+1;
 948              		.loc 1 49 13 view .LVU350
 949 03bc 3BE051E5 		ldrb	lr, [r1, #-59]	@ zero_extendqisi2
  49:/home/hkh/git/eapidk-code-r76-trunk/apps/EeePProg/linux/../BinFuncs.c ****     pcvBuffer=((uint8_t*)pcvBuffer)+1;
 950              		.loc 1 49 11 view .LVU351
 951 03c0 0E2082E0 		add	r2, r2, lr
  49:/home/hkh/git/eapidk-code-r76-trunk/apps/EeePProg/linux/../BinFuncs.c ****     pcvBuffer=((uint8_t*)pcvBuffer)+1;
 952              		.loc 1 49 13 view .LVU352
 953 03c4 3AE051E5 		ldrb	lr, [r1, #-58]	@ zero_extendqisi2
  49:/home/hkh/git/eapidk-code-r76-trunk/apps/EeePProg/linux/../BinFuncs.c ****     pcvBuffer=((uint8_t*)pcvBuffer)+1;
 954              		.loc 1 49 11 view .LVU353
 955 03c8 0E2082E0 		add	r2, r2, lr
  49:/home/hkh/git/eapidk-code-r76-trunk/apps/EeePProg/linux/../BinFuncs.c ****     pcvBuffer=((uint8_t*)pcvBuffer)+1;
 956              		.loc 1 49 13 view .LVU354
 957 03cc 39E051E5 		ldrb	lr, [r1, #-57]	@ zero_extendqisi2
  49:/home/hkh/git/eapidk-code-r76-trunk/apps/EeePProg/linux/../BinFuncs.c ****     pcvBuffer=((uint8_t*)pcvBuffer)+1;
 958              		.loc 1 49 11 view .LVU355
 959 03d0 0E2082E0 		add	r2, r2, lr
  49:/home/hkh/git/eapidk-code-r76-trunk/apps/EeePProg/linux/../BinFuncs.c ****     pcvBuffer=((uint8_t*)pcvBuffer)+1;
 960              		.loc 1 49 13 view .LVU356
 961 03d4 38E051E5 		ldrb	lr, [r1, #-56]	@ zero_extendqisi2
  49:/home/hkh/git/eapidk-code-r76-trunk/apps/EeePProg/linux/../BinFuncs.c ****     pcvBuffer=((uint8_t*)pcvBuffer)+1;
 962              		.loc 1 49 11 view .LVU357
 963 03d8 0E2082E0 		add	r2, r2, lr
ARM GAS  /tmp/ccf3bFwG.s 			page 34


  49:/home/hkh/git/eapidk-code-r76-trunk/apps/EeePProg/linux/../BinFuncs.c ****     pcvBuffer=((uint8_t*)pcvBuffer)+1;
 964              		.loc 1 49 13 view .LVU358
 965 03dc 37E051E5 		ldrb	lr, [r1, #-55]	@ zero_extendqisi2
  49:/home/hkh/git/eapidk-code-r76-trunk/apps/EeePProg/linux/../BinFuncs.c ****     pcvBuffer=((uint8_t*)pcvBuffer)+1;
 966              		.loc 1 49 11 view .LVU359
 967 03e0 0E2082E0 		add	r2, r2, lr
  49:/home/hkh/git/eapidk-code-r76-trunk/apps/EeePProg/linux/../BinFuncs.c ****     pcvBuffer=((uint8_t*)pcvBuffer)+1;
 968              		.loc 1 49 13 view .LVU360
 969 03e4 36E051E5 		ldrb	lr, [r1, #-54]	@ zero_extendqisi2
  49:/home/hkh/git/eapidk-code-r76-trunk/apps/EeePProg/linux/../BinFuncs.c ****     pcvBuffer=((uint8_t*)pcvBuffer)+1;
 970              		.loc 1 49 11 view .LVU361
 971 03e8 0E2082E0 		add	r2, r2, lr
  49:/home/hkh/git/eapidk-code-r76-trunk/apps/EeePProg/linux/../BinFuncs.c ****     pcvBuffer=((uint8_t*)pcvBuffer)+1;
 972              		.loc 1 49 13 view .LVU362
 973 03ec 35E051E5 		ldrb	lr, [r1, #-53]	@ zero_extendqisi2
  49:/home/hkh/git/eapidk-code-r76-trunk/apps/EeePProg/linux/../BinFuncs.c ****     pcvBuffer=((uint8_t*)pcvBuffer)+1;
 974              		.loc 1 49 11 view .LVU363
 975 03f0 0E2082E0 		add	r2, r2, lr
  49:/home/hkh/git/eapidk-code-r76-trunk/apps/EeePProg/linux/../BinFuncs.c ****     pcvBuffer=((uint8_t*)pcvBuffer)+1;
 976              		.loc 1 49 13 view .LVU364
 977 03f4 34E051E5 		ldrb	lr, [r1, #-52]	@ zero_extendqisi2
  49:/home/hkh/git/eapidk-code-r76-trunk/apps/EeePProg/linux/../BinFuncs.c ****     pcvBuffer=((uint8_t*)pcvBuffer)+1;
 978              		.loc 1 49 11 view .LVU365
 979 03f8 0E2082E0 		add	r2, r2, lr
  49:/home/hkh/git/eapidk-code-r76-trunk/apps/EeePProg/linux/../BinFuncs.c ****     pcvBuffer=((uint8_t*)pcvBuffer)+1;
 980              		.loc 1 49 13 view .LVU366
 981 03fc 33E051E5 		ldrb	lr, [r1, #-51]	@ zero_extendqisi2
  49:/home/hkh/git/eapidk-code-r76-trunk/apps/EeePProg/linux/../BinFuncs.c ****     pcvBuffer=((uint8_t*)pcvBuffer)+1;
 982              		.loc 1 49 11 view .LVU367
 983 0400 0E2082E0 		add	r2, r2, lr
  49:/home/hkh/git/eapidk-code-r76-trunk/apps/EeePProg/linux/../BinFuncs.c ****     pcvBuffer=((uint8_t*)pcvBuffer)+1;
 984              		.loc 1 49 13 view .LVU368
 985 0404 32E051E5 		ldrb	lr, [r1, #-50]	@ zero_extendqisi2
  49:/home/hkh/git/eapidk-code-r76-trunk/apps/EeePProg/linux/../BinFuncs.c ****     pcvBuffer=((uint8_t*)pcvBuffer)+1;
 986              		.loc 1 49 11 view .LVU369
 987 0408 0E2082E0 		add	r2, r2, lr
  49:/home/hkh/git/eapidk-code-r76-trunk/apps/EeePProg/linux/../BinFuncs.c ****     pcvBuffer=((uint8_t*)pcvBuffer)+1;
 988              		.loc 1 49 13 view .LVU370
 989 040c 31E051E5 		ldrb	lr, [r1, #-49]	@ zero_extendqisi2
  49:/home/hkh/git/eapidk-code-r76-trunk/apps/EeePProg/linux/../BinFuncs.c ****     pcvBuffer=((uint8_t*)pcvBuffer)+1;
 990              		.loc 1 49 11 view .LVU371
 991 0410 0E2082E0 		add	r2, r2, lr
  49:/home/hkh/git/eapidk-code-r76-trunk/apps/EeePProg/linux/../BinFuncs.c ****     pcvBuffer=((uint8_t*)pcvBuffer)+1;
 992              		.loc 1 49 13 view .LVU372
 993 0414 30E051E5 		ldrb	lr, [r1, #-48]	@ zero_extendqisi2
  49:/home/hkh/git/eapidk-code-r76-trunk/apps/EeePProg/linux/../BinFuncs.c ****     pcvBuffer=((uint8_t*)pcvBuffer)+1;
 994              		.loc 1 49 11 view .LVU373
 995 0418 0E2082E0 		add	r2, r2, lr
  49:/home/hkh/git/eapidk-code-r76-trunk/apps/EeePProg/linux/../BinFuncs.c ****     pcvBuffer=((uint8_t*)pcvBuffer)+1;
 996              		.loc 1 49 13 view .LVU374
 997 041c 2FE051E5 		ldrb	lr, [r1, #-47]	@ zero_extendqisi2
  49:/home/hkh/git/eapidk-code-r76-trunk/apps/EeePProg/linux/../BinFuncs.c ****     pcvBuffer=((uint8_t*)pcvBuffer)+1;
 998              		.loc 1 49 11 view .LVU375
 999 0420 0E2082E0 		add	r2, r2, lr
  49:/home/hkh/git/eapidk-code-r76-trunk/apps/EeePProg/linux/../BinFuncs.c ****     pcvBuffer=((uint8_t*)pcvBuffer)+1;
 1000              		.loc 1 49 13 view .LVU376
 1001 0424 2EE051E5 		ldrb	lr, [r1, #-46]	@ zero_extendqisi2
ARM GAS  /tmp/ccf3bFwG.s 			page 35


  49:/home/hkh/git/eapidk-code-r76-trunk/apps/EeePProg/linux/../BinFuncs.c ****     pcvBuffer=((uint8_t*)pcvBuffer)+1;
 1002              		.loc 1 49 11 view .LVU377
 1003 0428 0E2082E0 		add	r2, r2, lr
  49:/home/hkh/git/eapidk-code-r76-trunk/apps/EeePProg/linux/../BinFuncs.c ****     pcvBuffer=((uint8_t*)pcvBuffer)+1;
 1004              		.loc 1 49 13 view .LVU378
 1005 042c 2DE051E5 		ldrb	lr, [r1, #-45]	@ zero_extendqisi2
  49:/home/hkh/git/eapidk-code-r76-trunk/apps/EeePProg/linux/../BinFuncs.c ****     pcvBuffer=((uint8_t*)pcvBuffer)+1;
 1006              		.loc 1 49 11 view .LVU379
 1007 0430 0E2082E0 		add	r2, r2, lr
  49:/home/hkh/git/eapidk-code-r76-trunk/apps/EeePProg/linux/../BinFuncs.c ****     pcvBuffer=((uint8_t*)pcvBuffer)+1;
 1008              		.loc 1 49 13 view .LVU380
 1009 0434 2CE051E5 		ldrb	lr, [r1, #-44]	@ zero_extendqisi2
  49:/home/hkh/git/eapidk-code-r76-trunk/apps/EeePProg/linux/../BinFuncs.c ****     pcvBuffer=((uint8_t*)pcvBuffer)+1;
 1010              		.loc 1 49 11 view .LVU381
 1011 0438 0E2082E0 		add	r2, r2, lr
  49:/home/hkh/git/eapidk-code-r76-trunk/apps/EeePProg/linux/../BinFuncs.c ****     pcvBuffer=((uint8_t*)pcvBuffer)+1;
 1012              		.loc 1 49 13 view .LVU382
 1013 043c 2BE051E5 		ldrb	lr, [r1, #-43]	@ zero_extendqisi2
  49:/home/hkh/git/eapidk-code-r76-trunk/apps/EeePProg/linux/../BinFuncs.c ****     pcvBuffer=((uint8_t*)pcvBuffer)+1;
 1014              		.loc 1 49 11 view .LVU383
 1015 0440 0E2082E0 		add	r2, r2, lr
  49:/home/hkh/git/eapidk-code-r76-trunk/apps/EeePProg/linux/../BinFuncs.c ****     pcvBuffer=((uint8_t*)pcvBuffer)+1;
 1016              		.loc 1 49 13 view .LVU384
 1017 0444 2AE051E5 		ldrb	lr, [r1, #-42]	@ zero_extendqisi2
  49:/home/hkh/git/eapidk-code-r76-trunk/apps/EeePProg/linux/../BinFuncs.c ****     pcvBuffer=((uint8_t*)pcvBuffer)+1;
 1018              		.loc 1 49 11 view .LVU385
 1019 0448 0E2082E0 		add	r2, r2, lr
  49:/home/hkh/git/eapidk-code-r76-trunk/apps/EeePProg/linux/../BinFuncs.c ****     pcvBuffer=((uint8_t*)pcvBuffer)+1;
 1020              		.loc 1 49 13 view .LVU386
 1021 044c 29E051E5 		ldrb	lr, [r1, #-41]	@ zero_extendqisi2
  49:/home/hkh/git/eapidk-code-r76-trunk/apps/EeePProg/linux/../BinFuncs.c ****     pcvBuffer=((uint8_t*)pcvBuffer)+1;
 1022              		.loc 1 49 11 view .LVU387
 1023 0450 0E2082E0 		add	r2, r2, lr
  49:/home/hkh/git/eapidk-code-r76-trunk/apps/EeePProg/linux/../BinFuncs.c ****     pcvBuffer=((uint8_t*)pcvBuffer)+1;
 1024              		.loc 1 49 13 view .LVU388
 1025 0454 28E051E5 		ldrb	lr, [r1, #-40]	@ zero_extendqisi2
  49:/home/hkh/git/eapidk-code-r76-trunk/apps/EeePProg/linux/../BinFuncs.c ****     pcvBuffer=((uint8_t*)pcvBuffer)+1;
 1026              		.loc 1 49 11 view .LVU389
 1027 0458 0E2082E0 		add	r2, r2, lr
  49:/home/hkh/git/eapidk-code-r76-trunk/apps/EeePProg/linux/../BinFuncs.c ****     pcvBuffer=((uint8_t*)pcvBuffer)+1;
 1028              		.loc 1 49 13 view .LVU390
 1029 045c 27E051E5 		ldrb	lr, [r1, #-39]	@ zero_extendqisi2
  49:/home/hkh/git/eapidk-code-r76-trunk/apps/EeePProg/linux/../BinFuncs.c ****     pcvBuffer=((uint8_t*)pcvBuffer)+1;
 1030              		.loc 1 49 11 view .LVU391
 1031 0460 0E2082E0 		add	r2, r2, lr
  49:/home/hkh/git/eapidk-code-r76-trunk/apps/EeePProg/linux/../BinFuncs.c ****     pcvBuffer=((uint8_t*)pcvBuffer)+1;
 1032              		.loc 1 49 13 view .LVU392
 1033 0464 26E051E5 		ldrb	lr, [r1, #-38]	@ zero_extendqisi2
  49:/home/hkh/git/eapidk-code-r76-trunk/apps/EeePProg/linux/../BinFuncs.c ****     pcvBuffer=((uint8_t*)pcvBuffer)+1;
 1034              		.loc 1 49 11 view .LVU393
 1035 0468 0E2082E0 		add	r2, r2, lr
  49:/home/hkh/git/eapidk-code-r76-trunk/apps/EeePProg/linux/../BinFuncs.c ****     pcvBuffer=((uint8_t*)pcvBuffer)+1;
 1036              		.loc 1 49 13 view .LVU394
 1037 046c 25E051E5 		ldrb	lr, [r1, #-37]	@ zero_extendqisi2
  49:/home/hkh/git/eapidk-code-r76-trunk/apps/EeePProg/linux/../BinFuncs.c ****     pcvBuffer=((uint8_t*)pcvBuffer)+1;
 1038              		.loc 1 49 11 view .LVU395
 1039 0470 0E2082E0 		add	r2, r2, lr
ARM GAS  /tmp/ccf3bFwG.s 			page 36


  49:/home/hkh/git/eapidk-code-r76-trunk/apps/EeePProg/linux/../BinFuncs.c ****     pcvBuffer=((uint8_t*)pcvBuffer)+1;
 1040              		.loc 1 49 13 view .LVU396
 1041 0474 24E051E5 		ldrb	lr, [r1, #-36]	@ zero_extendqisi2
  49:/home/hkh/git/eapidk-code-r76-trunk/apps/EeePProg/linux/../BinFuncs.c ****     pcvBuffer=((uint8_t*)pcvBuffer)+1;
 1042              		.loc 1 49 11 view .LVU397
 1043 0478 0E2082E0 		add	r2, r2, lr
  49:/home/hkh/git/eapidk-code-r76-trunk/apps/EeePProg/linux/../BinFuncs.c ****     pcvBuffer=((uint8_t*)pcvBuffer)+1;
 1044              		.loc 1 49 13 view .LVU398
 1045 047c 23E051E5 		ldrb	lr, [r1, #-35]	@ zero_extendqisi2
  49:/home/hkh/git/eapidk-code-r76-trunk/apps/EeePProg/linux/../BinFuncs.c ****     pcvBuffer=((uint8_t*)pcvBuffer)+1;
 1046              		.loc 1 49 11 view .LVU399
 1047 0480 0E2082E0 		add	r2, r2, lr
  49:/home/hkh/git/eapidk-code-r76-trunk/apps/EeePProg/linux/../BinFuncs.c ****     pcvBuffer=((uint8_t*)pcvBuffer)+1;
 1048              		.loc 1 49 13 view .LVU400
 1049 0484 22E051E5 		ldrb	lr, [r1, #-34]	@ zero_extendqisi2
  49:/home/hkh/git/eapidk-code-r76-trunk/apps/EeePProg/linux/../BinFuncs.c ****     pcvBuffer=((uint8_t*)pcvBuffer)+1;
 1050              		.loc 1 49 11 view .LVU401
 1051 0488 0E2082E0 		add	r2, r2, lr
  49:/home/hkh/git/eapidk-code-r76-trunk/apps/EeePProg/linux/../BinFuncs.c ****     pcvBuffer=((uint8_t*)pcvBuffer)+1;
 1052              		.loc 1 49 13 view .LVU402
 1053 048c 21E051E5 		ldrb	lr, [r1, #-33]	@ zero_extendqisi2
  49:/home/hkh/git/eapidk-code-r76-trunk/apps/EeePProg/linux/../BinFuncs.c ****     pcvBuffer=((uint8_t*)pcvBuffer)+1;
 1054              		.loc 1 49 11 view .LVU403
 1055 0490 0E2082E0 		add	r2, r2, lr
 1056 0494 020080E0 		add	r0, r0, r2
 1057              	.LVL66:
  50:/home/hkh/git/eapidk-code-r76-trunk/apps/EeePProg/linux/../BinFuncs.c ****   }
 1058              		.loc 1 50 5 is_stmt 1 view .LVU404
  48:/home/hkh/git/eapidk-code-r76-trunk/apps/EeePProg/linux/../BinFuncs.c ****     ChkSum+=(uint32_t)(*((uint8_t*)pcvBuffer));
 1059              		.loc 1 48 9 view .LVU405
  48:/home/hkh/git/eapidk-code-r76-trunk/apps/EeePProg/linux/../BinFuncs.c ****     ChkSum+=(uint32_t)(*((uint8_t*)pcvBuffer));
 1060              		.loc 1 48 9 is_stmt 0 view .LVU406
 1061 0498 B9FFFF8A 		bhi	.L79
 1062 049c 01108CE2 		add	r1, ip, #1
 1063 04a0 011083E0 		add	r1, r3, r1
 1064              	.L80:
 1065              	.LVL67:
  49:/home/hkh/git/eapidk-code-r76-trunk/apps/EeePProg/linux/../BinFuncs.c ****     pcvBuffer=((uint8_t*)pcvBuffer)+1;
 1066              		.loc 1 49 5 is_stmt 1 view .LVU407
  49:/home/hkh/git/eapidk-code-r76-trunk/apps/EeePProg/linux/../BinFuncs.c ****     pcvBuffer=((uint8_t*)pcvBuffer)+1;
 1067              		.loc 1 49 13 is_stmt 0 view .LVU408
 1068 04a4 0120D3E4 		ldrb	r2, [r3], #1	@ zero_extendqisi2
 1069              	.LVL68:
  48:/home/hkh/git/eapidk-code-r76-trunk/apps/EeePProg/linux/../BinFuncs.c ****     ChkSum+=(uint32_t)(*((uint8_t*)pcvBuffer));
 1070              		.loc 1 48 9 view .LVU409
 1071 04a8 010053E1 		cmp	r3, r1
  49:/home/hkh/git/eapidk-code-r76-trunk/apps/EeePProg/linux/../BinFuncs.c ****     pcvBuffer=((uint8_t*)pcvBuffer)+1;
 1072              		.loc 1 49 11 view .LVU410
 1073 04ac 020080E0 		add	r0, r0, r2
 1074              	.LVL69:
  50:/home/hkh/git/eapidk-code-r76-trunk/apps/EeePProg/linux/../BinFuncs.c ****   }
 1075              		.loc 1 50 5 is_stmt 1 view .LVU411
  48:/home/hkh/git/eapidk-code-r76-trunk/apps/EeePProg/linux/../BinFuncs.c ****     ChkSum+=(uint32_t)(*((uint8_t*)pcvBuffer));
 1076              		.loc 1 48 9 view .LVU412
  48:/home/hkh/git/eapidk-code-r76-trunk/apps/EeePProg/linux/../BinFuncs.c ****     ChkSum+=(uint32_t)(*((uint8_t*)pcvBuffer));
 1077              		.loc 1 48 9 is_stmt 0 view .LVU413
 1078 04b0 FBFFFF1A 		bne	.L80
ARM GAS  /tmp/ccf3bFwG.s 			page 37


 1079 04b4 04F09DE4 		ldr	pc, [sp], #4
 1080              	.LVL70:
 1081              	.L81:
 1082              		.cfi_def_cfa_offset 0
 1083              		.cfi_restore 14
  47:/home/hkh/git/eapidk-code-r76-trunk/apps/EeePProg/linux/../BinFuncs.c ****   while(stLength--){
 1084              		.loc 1 47 12 view .LVU414
 1085 04b8 0100A0E1 		mov	r0, r1
 1086              	.LVL71:
  52:/home/hkh/git/eapidk-code-r76-trunk/apps/EeePProg/linux/../BinFuncs.c **** }
 1087              		.loc 1 52 3 is_stmt 1 view .LVU415
  52:/home/hkh/git/eapidk-code-r76-trunk/apps/EeePProg/linux/../BinFuncs.c **** }
 1088              		.loc 1 52 10 is_stmt 0 view .LVU416
 1089 04bc 1EFF2FE1 		bx	lr
 1090              	.LVL72:
 1091              	.L82:
  52:/home/hkh/git/eapidk-code-r76-trunk/apps/EeePProg/linux/../BinFuncs.c **** }
 1092              		.loc 1 52 10 view .LVU417
 1093 04c0 01108CE2 		add	r1, ip, #1
  48:/home/hkh/git/eapidk-code-r76-trunk/apps/EeePProg/linux/../BinFuncs.c ****     ChkSum+=(uint32_t)(*((uint8_t*)pcvBuffer));
 1094              		.loc 1 48 9 view .LVU418
 1095 04c4 0000A0E3 		mov	r0, #0
 1096              	.LVL73:
  48:/home/hkh/git/eapidk-code-r76-trunk/apps/EeePProg/linux/../BinFuncs.c ****     ChkSum+=(uint32_t)(*((uint8_t*)pcvBuffer));
 1097              		.loc 1 48 9 view .LVU419
 1098 04c8 011083E0 		add	r1, r3, r1
 1099              	.LVL74:
 1100              	.L87:
  49:/home/hkh/git/eapidk-code-r76-trunk/apps/EeePProg/linux/../BinFuncs.c ****     pcvBuffer=((uint8_t*)pcvBuffer)+1;
 1101              		.loc 1 49 5 is_stmt 1 view .LVU420
  49:/home/hkh/git/eapidk-code-r76-trunk/apps/EeePProg/linux/../BinFuncs.c ****     pcvBuffer=((uint8_t*)pcvBuffer)+1;
 1102              		.loc 1 49 13 is_stmt 0 view .LVU421
 1103 04cc 0120D3E4 		ldrb	r2, [r3], #1	@ zero_extendqisi2
 1104              	.LVL75:
  48:/home/hkh/git/eapidk-code-r76-trunk/apps/EeePProg/linux/../BinFuncs.c ****     ChkSum+=(uint32_t)(*((uint8_t*)pcvBuffer));
 1105              		.loc 1 48 9 view .LVU422
 1106 04d0 010053E1 		cmp	r3, r1
  49:/home/hkh/git/eapidk-code-r76-trunk/apps/EeePProg/linux/../BinFuncs.c ****     pcvBuffer=((uint8_t*)pcvBuffer)+1;
 1107              		.loc 1 49 11 view .LVU423
 1108 04d4 020080E0 		add	r0, r0, r2
 1109              	.LVL76:
  50:/home/hkh/git/eapidk-code-r76-trunk/apps/EeePProg/linux/../BinFuncs.c ****   }
 1110              		.loc 1 50 5 is_stmt 1 view .LVU424
  48:/home/hkh/git/eapidk-code-r76-trunk/apps/EeePProg/linux/../BinFuncs.c ****     ChkSum+=(uint32_t)(*((uint8_t*)pcvBuffer));
 1111              		.loc 1 48 9 view .LVU425
  48:/home/hkh/git/eapidk-code-r76-trunk/apps/EeePProg/linux/../BinFuncs.c ****     ChkSum+=(uint32_t)(*((uint8_t*)pcvBuffer));
 1112              		.loc 1 48 9 is_stmt 0 view .LVU426
 1113 04d8 FBFFFF1A 		bne	.L87
 1114 04dc 1EFF2FE1 		bx	lr
 1115              		.cfi_endproc
 1116              	.LFE1:
 1118              		.align	2
 1119              		.global	u16ChecksumBlock
 1120              		.syntax unified
 1121              		.arm
 1122              		.fpu vfpv3
 1124              	u16ChecksumBlock:
ARM GAS  /tmp/ccf3bFwG.s 			page 38


 1125              	.LVL77:
 1126              	.LFB2:
  59:/home/hkh/git/eapidk-code-r76-trunk/apps/EeePProg/linux/../BinFuncs.c ****   return EEEP_LO_UINT16(u32ChecksumBlock(pcvBuffer, stLength));
 1127              		.loc 1 59 1 is_stmt 1 view -0
 1128              		.cfi_startproc
 1129              		@ args = 0, pretend = 0, frame = 0
 1130              		@ frame_needed = 0, uses_anonymous_args = 0
  60:/home/hkh/git/eapidk-code-r76-trunk/apps/EeePProg/linux/../BinFuncs.c **** }
 1131              		.loc 1 60 3 view .LVU428
 1132              	.LBB70:
 1133              	.LBI70:
  42:/home/hkh/git/eapidk-code-r76-trunk/apps/EeePProg/linux/../BinFuncs.c **** 	const void *pcvBuffer, 
 1134              		.loc 1 42 1 view .LVU429
 1135              	.LBB71:
  47:/home/hkh/git/eapidk-code-r76-trunk/apps/EeePProg/linux/../BinFuncs.c ****   while(stLength--){
 1136              		.loc 1 47 3 view .LVU430
  48:/home/hkh/git/eapidk-code-r76-trunk/apps/EeePProg/linux/../BinFuncs.c ****     ChkSum+=(uint32_t)(*((uint8_t*)pcvBuffer));
 1137              		.loc 1 48 3 view .LVU431
  48:/home/hkh/git/eapidk-code-r76-trunk/apps/EeePProg/linux/../BinFuncs.c ****     ChkSum+=(uint32_t)(*((uint8_t*)pcvBuffer));
 1138              		.loc 1 48 9 view .LVU432
 1139 04e0 000051E3 		cmp	r1, #0
 1140              	.LVL78:
  48:/home/hkh/git/eapidk-code-r76-trunk/apps/EeePProg/linux/../BinFuncs.c ****     ChkSum+=(uint32_t)(*((uint8_t*)pcvBuffer));
 1141              		.loc 1 48 9 is_stmt 0 view .LVU433
 1142 04e4 5300000A 		beq	.L98
 1143 04e8 01C041E2 		sub	ip, r1, #1
 1144              	.LVL79:
  48:/home/hkh/git/eapidk-code-r76-trunk/apps/EeePProg/linux/../BinFuncs.c ****     ChkSum+=(uint32_t)(*((uint8_t*)pcvBuffer));
 1145              		.loc 1 48 9 view .LVU434
 1146 04ec 1F005CE3 		cmp	ip, #31
 1147 04f0 5200009A 		bls	.L99
 1148 04f4 201080E2 		add	r1, r0, #32
 1149              	.LVL80:
  47:/home/hkh/git/eapidk-code-r76-trunk/apps/EeePProg/linux/../BinFuncs.c ****   while(stLength--){
 1150              		.loc 1 47 12 view .LVU435
 1151 04f8 0030A0E3 		mov	r3, #0
 1152              	.LBE71:
 1153              	.LBE70:
  59:/home/hkh/git/eapidk-code-r76-trunk/apps/EeePProg/linux/../BinFuncs.c ****   return EEEP_LO_UINT16(u32ChecksumBlock(pcvBuffer, stLength));
 1154              		.loc 1 59 1 view .LVU436
 1155 04fc 04E02DE5 		str	lr, [sp, #-4]!
 1156              		.cfi_def_cfa_offset 4
 1157              		.cfi_offset 14, -4
 1158              	.LVL81:
 1159              	.L96:
 1160              	.LBB76:
 1161              	.LBB72:
  49:/home/hkh/git/eapidk-code-r76-trunk/apps/EeePProg/linux/../BinFuncs.c ****     pcvBuffer=((uint8_t*)pcvBuffer)+1;
 1162              		.loc 1 49 5 is_stmt 1 view .LVU437
  49:/home/hkh/git/eapidk-code-r76-trunk/apps/EeePProg/linux/../BinFuncs.c ****     pcvBuffer=((uint8_t*)pcvBuffer)+1;
 1163              		.loc 1 49 13 is_stmt 0 view .LVU438
 1164 0500 1FE051E5 		ldrb	lr, [r1, #-31]	@ zero_extendqisi2
  48:/home/hkh/git/eapidk-code-r76-trunk/apps/EeePProg/linux/../BinFuncs.c ****     ChkSum+=(uint32_t)(*((uint8_t*)pcvBuffer));
 1165              		.loc 1 48 17 view .LVU439
 1166 0504 20C04CE2 		sub	ip, ip, #32
 1167 0508 1F005CE3 		cmp	ip, #31
 1168 050c 0100A0E1 		mov	r0, r1
ARM GAS  /tmp/ccf3bFwG.s 			page 39


 1169              	.LVL82:
  50:/home/hkh/git/eapidk-code-r76-trunk/apps/EeePProg/linux/../BinFuncs.c ****   }
 1170              		.loc 1 50 5 is_stmt 1 view .LVU440
  48:/home/hkh/git/eapidk-code-r76-trunk/apps/EeePProg/linux/../BinFuncs.c ****     ChkSum+=(uint32_t)(*((uint8_t*)pcvBuffer));
 1171              		.loc 1 48 9 view .LVU441
  49:/home/hkh/git/eapidk-code-r76-trunk/apps/EeePProg/linux/../BinFuncs.c ****     pcvBuffer=((uint8_t*)pcvBuffer)+1;
 1172              		.loc 1 49 5 view .LVU442
  50:/home/hkh/git/eapidk-code-r76-trunk/apps/EeePProg/linux/../BinFuncs.c ****   }
 1173              		.loc 1 50 5 view .LVU443
  48:/home/hkh/git/eapidk-code-r76-trunk/apps/EeePProg/linux/../BinFuncs.c ****     ChkSum+=(uint32_t)(*((uint8_t*)pcvBuffer));
 1174              		.loc 1 48 9 view .LVU444
  49:/home/hkh/git/eapidk-code-r76-trunk/apps/EeePProg/linux/../BinFuncs.c ****     pcvBuffer=((uint8_t*)pcvBuffer)+1;
 1175              		.loc 1 49 5 view .LVU445
  50:/home/hkh/git/eapidk-code-r76-trunk/apps/EeePProg/linux/../BinFuncs.c ****   }
 1176              		.loc 1 50 5 view .LVU446
  48:/home/hkh/git/eapidk-code-r76-trunk/apps/EeePProg/linux/../BinFuncs.c ****     ChkSum+=(uint32_t)(*((uint8_t*)pcvBuffer));
 1177              		.loc 1 48 9 view .LVU447
  49:/home/hkh/git/eapidk-code-r76-trunk/apps/EeePProg/linux/../BinFuncs.c ****     pcvBuffer=((uint8_t*)pcvBuffer)+1;
 1178              		.loc 1 49 5 view .LVU448
  50:/home/hkh/git/eapidk-code-r76-trunk/apps/EeePProg/linux/../BinFuncs.c ****   }
 1179              		.loc 1 50 5 view .LVU449
  48:/home/hkh/git/eapidk-code-r76-trunk/apps/EeePProg/linux/../BinFuncs.c ****     ChkSum+=(uint32_t)(*((uint8_t*)pcvBuffer));
 1180              		.loc 1 48 9 view .LVU450
  49:/home/hkh/git/eapidk-code-r76-trunk/apps/EeePProg/linux/../BinFuncs.c ****     pcvBuffer=((uint8_t*)pcvBuffer)+1;
 1181              		.loc 1 49 5 view .LVU451
  50:/home/hkh/git/eapidk-code-r76-trunk/apps/EeePProg/linux/../BinFuncs.c ****   }
 1182              		.loc 1 50 5 view .LVU452
  48:/home/hkh/git/eapidk-code-r76-trunk/apps/EeePProg/linux/../BinFuncs.c ****     ChkSum+=(uint32_t)(*((uint8_t*)pcvBuffer));
 1183              		.loc 1 48 9 view .LVU453
  49:/home/hkh/git/eapidk-code-r76-trunk/apps/EeePProg/linux/../BinFuncs.c ****     pcvBuffer=((uint8_t*)pcvBuffer)+1;
 1184              		.loc 1 49 5 view .LVU454
  50:/home/hkh/git/eapidk-code-r76-trunk/apps/EeePProg/linux/../BinFuncs.c ****   }
 1185              		.loc 1 50 5 view .LVU455
  48:/home/hkh/git/eapidk-code-r76-trunk/apps/EeePProg/linux/../BinFuncs.c ****     ChkSum+=(uint32_t)(*((uint8_t*)pcvBuffer));
 1186              		.loc 1 48 9 view .LVU456
  49:/home/hkh/git/eapidk-code-r76-trunk/apps/EeePProg/linux/../BinFuncs.c ****     pcvBuffer=((uint8_t*)pcvBuffer)+1;
 1187              		.loc 1 49 5 view .LVU457
  50:/home/hkh/git/eapidk-code-r76-trunk/apps/EeePProg/linux/../BinFuncs.c ****   }
 1188              		.loc 1 50 5 view .LVU458
  48:/home/hkh/git/eapidk-code-r76-trunk/apps/EeePProg/linux/../BinFuncs.c ****     ChkSum+=(uint32_t)(*((uint8_t*)pcvBuffer));
 1189              		.loc 1 48 9 view .LVU459
  49:/home/hkh/git/eapidk-code-r76-trunk/apps/EeePProg/linux/../BinFuncs.c ****     pcvBuffer=((uint8_t*)pcvBuffer)+1;
 1190              		.loc 1 49 5 view .LVU460
  50:/home/hkh/git/eapidk-code-r76-trunk/apps/EeePProg/linux/../BinFuncs.c ****   }
 1191              		.loc 1 50 5 view .LVU461
  48:/home/hkh/git/eapidk-code-r76-trunk/apps/EeePProg/linux/../BinFuncs.c ****     ChkSum+=(uint32_t)(*((uint8_t*)pcvBuffer));
 1192              		.loc 1 48 9 view .LVU462
  49:/home/hkh/git/eapidk-code-r76-trunk/apps/EeePProg/linux/../BinFuncs.c ****     pcvBuffer=((uint8_t*)pcvBuffer)+1;
 1193              		.loc 1 49 5 view .LVU463
  50:/home/hkh/git/eapidk-code-r76-trunk/apps/EeePProg/linux/../BinFuncs.c ****   }
 1194              		.loc 1 50 5 view .LVU464
  48:/home/hkh/git/eapidk-code-r76-trunk/apps/EeePProg/linux/../BinFuncs.c ****     ChkSum+=(uint32_t)(*((uint8_t*)pcvBuffer));
 1195              		.loc 1 48 9 view .LVU465
  49:/home/hkh/git/eapidk-code-r76-trunk/apps/EeePProg/linux/../BinFuncs.c ****     pcvBuffer=((uint8_t*)pcvBuffer)+1;
 1196              		.loc 1 49 5 view .LVU466
  50:/home/hkh/git/eapidk-code-r76-trunk/apps/EeePProg/linux/../BinFuncs.c ****   }
 1197              		.loc 1 50 5 view .LVU467
ARM GAS  /tmp/ccf3bFwG.s 			page 40


  48:/home/hkh/git/eapidk-code-r76-trunk/apps/EeePProg/linux/../BinFuncs.c ****     ChkSum+=(uint32_t)(*((uint8_t*)pcvBuffer));
 1198              		.loc 1 48 9 view .LVU468
  49:/home/hkh/git/eapidk-code-r76-trunk/apps/EeePProg/linux/../BinFuncs.c ****     pcvBuffer=((uint8_t*)pcvBuffer)+1;
 1199              		.loc 1 49 5 view .LVU469
  50:/home/hkh/git/eapidk-code-r76-trunk/apps/EeePProg/linux/../BinFuncs.c ****   }
 1200              		.loc 1 50 5 view .LVU470
  48:/home/hkh/git/eapidk-code-r76-trunk/apps/EeePProg/linux/../BinFuncs.c ****     ChkSum+=(uint32_t)(*((uint8_t*)pcvBuffer));
 1201              		.loc 1 48 9 view .LVU471
  49:/home/hkh/git/eapidk-code-r76-trunk/apps/EeePProg/linux/../BinFuncs.c ****     pcvBuffer=((uint8_t*)pcvBuffer)+1;
 1202              		.loc 1 49 5 view .LVU472
  50:/home/hkh/git/eapidk-code-r76-trunk/apps/EeePProg/linux/../BinFuncs.c ****   }
 1203              		.loc 1 50 5 view .LVU473
  48:/home/hkh/git/eapidk-code-r76-trunk/apps/EeePProg/linux/../BinFuncs.c ****     ChkSum+=(uint32_t)(*((uint8_t*)pcvBuffer));
 1204              		.loc 1 48 9 view .LVU474
  49:/home/hkh/git/eapidk-code-r76-trunk/apps/EeePProg/linux/../BinFuncs.c ****     pcvBuffer=((uint8_t*)pcvBuffer)+1;
 1205              		.loc 1 49 5 view .LVU475
  50:/home/hkh/git/eapidk-code-r76-trunk/apps/EeePProg/linux/../BinFuncs.c ****   }
 1206              		.loc 1 50 5 view .LVU476
  48:/home/hkh/git/eapidk-code-r76-trunk/apps/EeePProg/linux/../BinFuncs.c ****     ChkSum+=(uint32_t)(*((uint8_t*)pcvBuffer));
 1207              		.loc 1 48 9 view .LVU477
  49:/home/hkh/git/eapidk-code-r76-trunk/apps/EeePProg/linux/../BinFuncs.c ****     pcvBuffer=((uint8_t*)pcvBuffer)+1;
 1208              		.loc 1 49 5 view .LVU478
  50:/home/hkh/git/eapidk-code-r76-trunk/apps/EeePProg/linux/../BinFuncs.c ****   }
 1209              		.loc 1 50 5 view .LVU479
  48:/home/hkh/git/eapidk-code-r76-trunk/apps/EeePProg/linux/../BinFuncs.c ****     ChkSum+=(uint32_t)(*((uint8_t*)pcvBuffer));
 1210              		.loc 1 48 9 view .LVU480
  49:/home/hkh/git/eapidk-code-r76-trunk/apps/EeePProg/linux/../BinFuncs.c ****     pcvBuffer=((uint8_t*)pcvBuffer)+1;
 1211              		.loc 1 49 5 view .LVU481
  50:/home/hkh/git/eapidk-code-r76-trunk/apps/EeePProg/linux/../BinFuncs.c ****   }
 1212              		.loc 1 50 5 view .LVU482
  48:/home/hkh/git/eapidk-code-r76-trunk/apps/EeePProg/linux/../BinFuncs.c ****     ChkSum+=(uint32_t)(*((uint8_t*)pcvBuffer));
 1213              		.loc 1 48 9 view .LVU483
  49:/home/hkh/git/eapidk-code-r76-trunk/apps/EeePProg/linux/../BinFuncs.c ****     pcvBuffer=((uint8_t*)pcvBuffer)+1;
 1214              		.loc 1 49 5 view .LVU484
  50:/home/hkh/git/eapidk-code-r76-trunk/apps/EeePProg/linux/../BinFuncs.c ****   }
 1215              		.loc 1 50 5 view .LVU485
  48:/home/hkh/git/eapidk-code-r76-trunk/apps/EeePProg/linux/../BinFuncs.c ****     ChkSum+=(uint32_t)(*((uint8_t*)pcvBuffer));
 1216              		.loc 1 48 9 view .LVU486
  49:/home/hkh/git/eapidk-code-r76-trunk/apps/EeePProg/linux/../BinFuncs.c ****     pcvBuffer=((uint8_t*)pcvBuffer)+1;
 1217              		.loc 1 49 5 view .LVU487
  50:/home/hkh/git/eapidk-code-r76-trunk/apps/EeePProg/linux/../BinFuncs.c ****   }
 1218              		.loc 1 50 5 view .LVU488
  48:/home/hkh/git/eapidk-code-r76-trunk/apps/EeePProg/linux/../BinFuncs.c ****     ChkSum+=(uint32_t)(*((uint8_t*)pcvBuffer));
 1219              		.loc 1 48 9 view .LVU489
  49:/home/hkh/git/eapidk-code-r76-trunk/apps/EeePProg/linux/../BinFuncs.c ****     pcvBuffer=((uint8_t*)pcvBuffer)+1;
 1220              		.loc 1 49 5 view .LVU490
  50:/home/hkh/git/eapidk-code-r76-trunk/apps/EeePProg/linux/../BinFuncs.c ****   }
 1221              		.loc 1 50 5 view .LVU491
  48:/home/hkh/git/eapidk-code-r76-trunk/apps/EeePProg/linux/../BinFuncs.c ****     ChkSum+=(uint32_t)(*((uint8_t*)pcvBuffer));
 1222              		.loc 1 48 9 view .LVU492
  49:/home/hkh/git/eapidk-code-r76-trunk/apps/EeePProg/linux/../BinFuncs.c ****     pcvBuffer=((uint8_t*)pcvBuffer)+1;
 1223              		.loc 1 49 5 view .LVU493
  50:/home/hkh/git/eapidk-code-r76-trunk/apps/EeePProg/linux/../BinFuncs.c ****   }
 1224              		.loc 1 50 5 view .LVU494
  48:/home/hkh/git/eapidk-code-r76-trunk/apps/EeePProg/linux/../BinFuncs.c ****     ChkSum+=(uint32_t)(*((uint8_t*)pcvBuffer));
 1225              		.loc 1 48 9 view .LVU495
  49:/home/hkh/git/eapidk-code-r76-trunk/apps/EeePProg/linux/../BinFuncs.c ****     pcvBuffer=((uint8_t*)pcvBuffer)+1;
ARM GAS  /tmp/ccf3bFwG.s 			page 41


 1226              		.loc 1 49 5 view .LVU496
  50:/home/hkh/git/eapidk-code-r76-trunk/apps/EeePProg/linux/../BinFuncs.c ****   }
 1227              		.loc 1 50 5 view .LVU497
  48:/home/hkh/git/eapidk-code-r76-trunk/apps/EeePProg/linux/../BinFuncs.c ****     ChkSum+=(uint32_t)(*((uint8_t*)pcvBuffer));
 1228              		.loc 1 48 9 view .LVU498
  49:/home/hkh/git/eapidk-code-r76-trunk/apps/EeePProg/linux/../BinFuncs.c ****     pcvBuffer=((uint8_t*)pcvBuffer)+1;
 1229              		.loc 1 49 5 view .LVU499
  50:/home/hkh/git/eapidk-code-r76-trunk/apps/EeePProg/linux/../BinFuncs.c ****   }
 1230              		.loc 1 50 5 view .LVU500
  48:/home/hkh/git/eapidk-code-r76-trunk/apps/EeePProg/linux/../BinFuncs.c ****     ChkSum+=(uint32_t)(*((uint8_t*)pcvBuffer));
 1231              		.loc 1 48 9 view .LVU501
  49:/home/hkh/git/eapidk-code-r76-trunk/apps/EeePProg/linux/../BinFuncs.c ****     pcvBuffer=((uint8_t*)pcvBuffer)+1;
 1232              		.loc 1 49 5 view .LVU502
  50:/home/hkh/git/eapidk-code-r76-trunk/apps/EeePProg/linux/../BinFuncs.c ****   }
 1233              		.loc 1 50 5 view .LVU503
  48:/home/hkh/git/eapidk-code-r76-trunk/apps/EeePProg/linux/../BinFuncs.c ****     ChkSum+=(uint32_t)(*((uint8_t*)pcvBuffer));
 1234              		.loc 1 48 9 view .LVU504
  49:/home/hkh/git/eapidk-code-r76-trunk/apps/EeePProg/linux/../BinFuncs.c ****     pcvBuffer=((uint8_t*)pcvBuffer)+1;
 1235              		.loc 1 49 5 view .LVU505
  50:/home/hkh/git/eapidk-code-r76-trunk/apps/EeePProg/linux/../BinFuncs.c ****   }
 1236              		.loc 1 50 5 view .LVU506
  48:/home/hkh/git/eapidk-code-r76-trunk/apps/EeePProg/linux/../BinFuncs.c ****     ChkSum+=(uint32_t)(*((uint8_t*)pcvBuffer));
 1237              		.loc 1 48 9 view .LVU507
  49:/home/hkh/git/eapidk-code-r76-trunk/apps/EeePProg/linux/../BinFuncs.c ****     pcvBuffer=((uint8_t*)pcvBuffer)+1;
 1238              		.loc 1 49 5 view .LVU508
  50:/home/hkh/git/eapidk-code-r76-trunk/apps/EeePProg/linux/../BinFuncs.c ****   }
 1239              		.loc 1 50 5 view .LVU509
  48:/home/hkh/git/eapidk-code-r76-trunk/apps/EeePProg/linux/../BinFuncs.c ****     ChkSum+=(uint32_t)(*((uint8_t*)pcvBuffer));
 1240              		.loc 1 48 9 view .LVU510
  49:/home/hkh/git/eapidk-code-r76-trunk/apps/EeePProg/linux/../BinFuncs.c ****     pcvBuffer=((uint8_t*)pcvBuffer)+1;
 1241              		.loc 1 49 5 view .LVU511
  50:/home/hkh/git/eapidk-code-r76-trunk/apps/EeePProg/linux/../BinFuncs.c ****   }
 1242              		.loc 1 50 5 view .LVU512
  48:/home/hkh/git/eapidk-code-r76-trunk/apps/EeePProg/linux/../BinFuncs.c ****     ChkSum+=(uint32_t)(*((uint8_t*)pcvBuffer));
 1243              		.loc 1 48 9 view .LVU513
  49:/home/hkh/git/eapidk-code-r76-trunk/apps/EeePProg/linux/../BinFuncs.c ****     pcvBuffer=((uint8_t*)pcvBuffer)+1;
 1244              		.loc 1 49 5 view .LVU514
  50:/home/hkh/git/eapidk-code-r76-trunk/apps/EeePProg/linux/../BinFuncs.c ****   }
 1245              		.loc 1 50 5 view .LVU515
  48:/home/hkh/git/eapidk-code-r76-trunk/apps/EeePProg/linux/../BinFuncs.c ****     ChkSum+=(uint32_t)(*((uint8_t*)pcvBuffer));
 1246              		.loc 1 48 9 view .LVU516
  49:/home/hkh/git/eapidk-code-r76-trunk/apps/EeePProg/linux/../BinFuncs.c ****     pcvBuffer=((uint8_t*)pcvBuffer)+1;
 1247              		.loc 1 49 5 view .LVU517
  50:/home/hkh/git/eapidk-code-r76-trunk/apps/EeePProg/linux/../BinFuncs.c ****   }
 1248              		.loc 1 50 5 view .LVU518
  48:/home/hkh/git/eapidk-code-r76-trunk/apps/EeePProg/linux/../BinFuncs.c ****     ChkSum+=(uint32_t)(*((uint8_t*)pcvBuffer));
 1249              		.loc 1 48 9 view .LVU519
  49:/home/hkh/git/eapidk-code-r76-trunk/apps/EeePProg/linux/../BinFuncs.c ****     pcvBuffer=((uint8_t*)pcvBuffer)+1;
 1250              		.loc 1 49 5 view .LVU520
  50:/home/hkh/git/eapidk-code-r76-trunk/apps/EeePProg/linux/../BinFuncs.c ****   }
 1251              		.loc 1 50 5 view .LVU521
  48:/home/hkh/git/eapidk-code-r76-trunk/apps/EeePProg/linux/../BinFuncs.c ****     ChkSum+=(uint32_t)(*((uint8_t*)pcvBuffer));
 1252              		.loc 1 48 9 view .LVU522
  49:/home/hkh/git/eapidk-code-r76-trunk/apps/EeePProg/linux/../BinFuncs.c ****     pcvBuffer=((uint8_t*)pcvBuffer)+1;
 1253              		.loc 1 49 5 view .LVU523
  50:/home/hkh/git/eapidk-code-r76-trunk/apps/EeePProg/linux/../BinFuncs.c ****   }
 1254              		.loc 1 50 5 view .LVU524
ARM GAS  /tmp/ccf3bFwG.s 			page 42


  48:/home/hkh/git/eapidk-code-r76-trunk/apps/EeePProg/linux/../BinFuncs.c ****     ChkSum+=(uint32_t)(*((uint8_t*)pcvBuffer));
 1255              		.loc 1 48 9 view .LVU525
  49:/home/hkh/git/eapidk-code-r76-trunk/apps/EeePProg/linux/../BinFuncs.c ****     pcvBuffer=((uint8_t*)pcvBuffer)+1;
 1256              		.loc 1 49 5 view .LVU526
  50:/home/hkh/git/eapidk-code-r76-trunk/apps/EeePProg/linux/../BinFuncs.c ****   }
 1257              		.loc 1 50 5 view .LVU527
  48:/home/hkh/git/eapidk-code-r76-trunk/apps/EeePProg/linux/../BinFuncs.c ****     ChkSum+=(uint32_t)(*((uint8_t*)pcvBuffer));
 1258              		.loc 1 48 9 view .LVU528
  49:/home/hkh/git/eapidk-code-r76-trunk/apps/EeePProg/linux/../BinFuncs.c ****     pcvBuffer=((uint8_t*)pcvBuffer)+1;
 1259              		.loc 1 49 5 view .LVU529
  50:/home/hkh/git/eapidk-code-r76-trunk/apps/EeePProg/linux/../BinFuncs.c ****   }
 1260              		.loc 1 50 5 view .LVU530
  48:/home/hkh/git/eapidk-code-r76-trunk/apps/EeePProg/linux/../BinFuncs.c ****     ChkSum+=(uint32_t)(*((uint8_t*)pcvBuffer));
 1261              		.loc 1 48 9 view .LVU531
  49:/home/hkh/git/eapidk-code-r76-trunk/apps/EeePProg/linux/../BinFuncs.c ****     pcvBuffer=((uint8_t*)pcvBuffer)+1;
 1262              		.loc 1 49 5 view .LVU532
  49:/home/hkh/git/eapidk-code-r76-trunk/apps/EeePProg/linux/../BinFuncs.c ****     pcvBuffer=((uint8_t*)pcvBuffer)+1;
 1263              		.loc 1 49 13 is_stmt 0 view .LVU533
 1264 0510 202051E5 		ldrb	r2, [r1, #-32]	@ zero_extendqisi2
 1265 0514 02F0D1F5 		pld	[r1, #2]
 1266 0518 201081E2 		add	r1, r1, #32
 1267              	.LVL83:
  49:/home/hkh/git/eapidk-code-r76-trunk/apps/EeePProg/linux/../BinFuncs.c ****     pcvBuffer=((uint8_t*)pcvBuffer)+1;
 1268              		.loc 1 49 11 view .LVU534
 1269 051c 0E2082E0 		add	r2, r2, lr
  49:/home/hkh/git/eapidk-code-r76-trunk/apps/EeePProg/linux/../BinFuncs.c ****     pcvBuffer=((uint8_t*)pcvBuffer)+1;
 1270              		.loc 1 49 13 view .LVU535
 1271 0520 3EE051E5 		ldrb	lr, [r1, #-62]	@ zero_extendqisi2
  49:/home/hkh/git/eapidk-code-r76-trunk/apps/EeePProg/linux/../BinFuncs.c ****     pcvBuffer=((uint8_t*)pcvBuffer)+1;
 1272              		.loc 1 49 11 view .LVU536
 1273 0524 0E2082E0 		add	r2, r2, lr
  49:/home/hkh/git/eapidk-code-r76-trunk/apps/EeePProg/linux/../BinFuncs.c ****     pcvBuffer=((uint8_t*)pcvBuffer)+1;
 1274              		.loc 1 49 13 view .LVU537
 1275 0528 3DE051E5 		ldrb	lr, [r1, #-61]	@ zero_extendqisi2
  49:/home/hkh/git/eapidk-code-r76-trunk/apps/EeePProg/linux/../BinFuncs.c ****     pcvBuffer=((uint8_t*)pcvBuffer)+1;
 1276              		.loc 1 49 11 view .LVU538
 1277 052c 0E2082E0 		add	r2, r2, lr
  49:/home/hkh/git/eapidk-code-r76-trunk/apps/EeePProg/linux/../BinFuncs.c ****     pcvBuffer=((uint8_t*)pcvBuffer)+1;
 1278              		.loc 1 49 13 view .LVU539
 1279 0530 3CE051E5 		ldrb	lr, [r1, #-60]	@ zero_extendqisi2
  49:/home/hkh/git/eapidk-code-r76-trunk/apps/EeePProg/linux/../BinFuncs.c ****     pcvBuffer=((uint8_t*)pcvBuffer)+1;
 1280              		.loc 1 49 11 view .LVU540
 1281 0534 0E2082E0 		add	r2, r2, lr
  49:/home/hkh/git/eapidk-code-r76-trunk/apps/EeePProg/linux/../BinFuncs.c ****     pcvBuffer=((uint8_t*)pcvBuffer)+1;
 1282              		.loc 1 49 13 view .LVU541
 1283 0538 3BE051E5 		ldrb	lr, [r1, #-59]	@ zero_extendqisi2
  49:/home/hkh/git/eapidk-code-r76-trunk/apps/EeePProg/linux/../BinFuncs.c ****     pcvBuffer=((uint8_t*)pcvBuffer)+1;
 1284              		.loc 1 49 11 view .LVU542
 1285 053c 0E2082E0 		add	r2, r2, lr
  49:/home/hkh/git/eapidk-code-r76-trunk/apps/EeePProg/linux/../BinFuncs.c ****     pcvBuffer=((uint8_t*)pcvBuffer)+1;
 1286              		.loc 1 49 13 view .LVU543
 1287 0540 3AE051E5 		ldrb	lr, [r1, #-58]	@ zero_extendqisi2
  49:/home/hkh/git/eapidk-code-r76-trunk/apps/EeePProg/linux/../BinFuncs.c ****     pcvBuffer=((uint8_t*)pcvBuffer)+1;
 1288              		.loc 1 49 11 view .LVU544
 1289 0544 0E2082E0 		add	r2, r2, lr
  49:/home/hkh/git/eapidk-code-r76-trunk/apps/EeePProg/linux/../BinFuncs.c ****     pcvBuffer=((uint8_t*)pcvBuffer)+1;
 1290              		.loc 1 49 13 view .LVU545
ARM GAS  /tmp/ccf3bFwG.s 			page 43


 1291 0548 39E051E5 		ldrb	lr, [r1, #-57]	@ zero_extendqisi2
  49:/home/hkh/git/eapidk-code-r76-trunk/apps/EeePProg/linux/../BinFuncs.c ****     pcvBuffer=((uint8_t*)pcvBuffer)+1;
 1292              		.loc 1 49 11 view .LVU546
 1293 054c 0E2082E0 		add	r2, r2, lr
  49:/home/hkh/git/eapidk-code-r76-trunk/apps/EeePProg/linux/../BinFuncs.c ****     pcvBuffer=((uint8_t*)pcvBuffer)+1;
 1294              		.loc 1 49 13 view .LVU547
 1295 0550 38E051E5 		ldrb	lr, [r1, #-56]	@ zero_extendqisi2
  49:/home/hkh/git/eapidk-code-r76-trunk/apps/EeePProg/linux/../BinFuncs.c ****     pcvBuffer=((uint8_t*)pcvBuffer)+1;
 1296              		.loc 1 49 11 view .LVU548
 1297 0554 0E2082E0 		add	r2, r2, lr
  49:/home/hkh/git/eapidk-code-r76-trunk/apps/EeePProg/linux/../BinFuncs.c ****     pcvBuffer=((uint8_t*)pcvBuffer)+1;
 1298              		.loc 1 49 13 view .LVU549
 1299 0558 37E051E5 		ldrb	lr, [r1, #-55]	@ zero_extendqisi2
  49:/home/hkh/git/eapidk-code-r76-trunk/apps/EeePProg/linux/../BinFuncs.c ****     pcvBuffer=((uint8_t*)pcvBuffer)+1;
 1300              		.loc 1 49 11 view .LVU550
 1301 055c 0E2082E0 		add	r2, r2, lr
  49:/home/hkh/git/eapidk-code-r76-trunk/apps/EeePProg/linux/../BinFuncs.c ****     pcvBuffer=((uint8_t*)pcvBuffer)+1;
 1302              		.loc 1 49 13 view .LVU551
 1303 0560 36E051E5 		ldrb	lr, [r1, #-54]	@ zero_extendqisi2
  49:/home/hkh/git/eapidk-code-r76-trunk/apps/EeePProg/linux/../BinFuncs.c ****     pcvBuffer=((uint8_t*)pcvBuffer)+1;
 1304              		.loc 1 49 11 view .LVU552
 1305 0564 0E2082E0 		add	r2, r2, lr
  49:/home/hkh/git/eapidk-code-r76-trunk/apps/EeePProg/linux/../BinFuncs.c ****     pcvBuffer=((uint8_t*)pcvBuffer)+1;
 1306              		.loc 1 49 13 view .LVU553
 1307 0568 35E051E5 		ldrb	lr, [r1, #-53]	@ zero_extendqisi2
  49:/home/hkh/git/eapidk-code-r76-trunk/apps/EeePProg/linux/../BinFuncs.c ****     pcvBuffer=((uint8_t*)pcvBuffer)+1;
 1308              		.loc 1 49 11 view .LVU554
 1309 056c 0E2082E0 		add	r2, r2, lr
  49:/home/hkh/git/eapidk-code-r76-trunk/apps/EeePProg/linux/../BinFuncs.c ****     pcvBuffer=((uint8_t*)pcvBuffer)+1;
 1310              		.loc 1 49 13 view .LVU555
 1311 0570 34E051E5 		ldrb	lr, [r1, #-52]	@ zero_extendqisi2
  49:/home/hkh/git/eapidk-code-r76-trunk/apps/EeePProg/linux/../BinFuncs.c ****     pcvBuffer=((uint8_t*)pcvBuffer)+1;
 1312              		.loc 1 49 11 view .LVU556
 1313 0574 0E2082E0 		add	r2, r2, lr
  49:/home/hkh/git/eapidk-code-r76-trunk/apps/EeePProg/linux/../BinFuncs.c ****     pcvBuffer=((uint8_t*)pcvBuffer)+1;
 1314              		.loc 1 49 13 view .LVU557
 1315 0578 33E051E5 		ldrb	lr, [r1, #-51]	@ zero_extendqisi2
  49:/home/hkh/git/eapidk-code-r76-trunk/apps/EeePProg/linux/../BinFuncs.c ****     pcvBuffer=((uint8_t*)pcvBuffer)+1;
 1316              		.loc 1 49 11 view .LVU558
 1317 057c 0E2082E0 		add	r2, r2, lr
  49:/home/hkh/git/eapidk-code-r76-trunk/apps/EeePProg/linux/../BinFuncs.c ****     pcvBuffer=((uint8_t*)pcvBuffer)+1;
 1318              		.loc 1 49 13 view .LVU559
 1319 0580 32E051E5 		ldrb	lr, [r1, #-50]	@ zero_extendqisi2
  49:/home/hkh/git/eapidk-code-r76-trunk/apps/EeePProg/linux/../BinFuncs.c ****     pcvBuffer=((uint8_t*)pcvBuffer)+1;
 1320              		.loc 1 49 11 view .LVU560
 1321 0584 0E2082E0 		add	r2, r2, lr
  49:/home/hkh/git/eapidk-code-r76-trunk/apps/EeePProg/linux/../BinFuncs.c ****     pcvBuffer=((uint8_t*)pcvBuffer)+1;
 1322              		.loc 1 49 13 view .LVU561
 1323 0588 31E051E5 		ldrb	lr, [r1, #-49]	@ zero_extendqisi2
  49:/home/hkh/git/eapidk-code-r76-trunk/apps/EeePProg/linux/../BinFuncs.c ****     pcvBuffer=((uint8_t*)pcvBuffer)+1;
 1324              		.loc 1 49 11 view .LVU562
 1325 058c 0E2082E0 		add	r2, r2, lr
  49:/home/hkh/git/eapidk-code-r76-trunk/apps/EeePProg/linux/../BinFuncs.c ****     pcvBuffer=((uint8_t*)pcvBuffer)+1;
 1326              		.loc 1 49 13 view .LVU563
 1327 0590 30E051E5 		ldrb	lr, [r1, #-48]	@ zero_extendqisi2
  49:/home/hkh/git/eapidk-code-r76-trunk/apps/EeePProg/linux/../BinFuncs.c ****     pcvBuffer=((uint8_t*)pcvBuffer)+1;
 1328              		.loc 1 49 11 view .LVU564
ARM GAS  /tmp/ccf3bFwG.s 			page 44


 1329 0594 0E2082E0 		add	r2, r2, lr
  49:/home/hkh/git/eapidk-code-r76-trunk/apps/EeePProg/linux/../BinFuncs.c ****     pcvBuffer=((uint8_t*)pcvBuffer)+1;
 1330              		.loc 1 49 13 view .LVU565
 1331 0598 2FE051E5 		ldrb	lr, [r1, #-47]	@ zero_extendqisi2
  49:/home/hkh/git/eapidk-code-r76-trunk/apps/EeePProg/linux/../BinFuncs.c ****     pcvBuffer=((uint8_t*)pcvBuffer)+1;
 1332              		.loc 1 49 11 view .LVU566
 1333 059c 0E2082E0 		add	r2, r2, lr
  49:/home/hkh/git/eapidk-code-r76-trunk/apps/EeePProg/linux/../BinFuncs.c ****     pcvBuffer=((uint8_t*)pcvBuffer)+1;
 1334              		.loc 1 49 13 view .LVU567
 1335 05a0 2EE051E5 		ldrb	lr, [r1, #-46]	@ zero_extendqisi2
  49:/home/hkh/git/eapidk-code-r76-trunk/apps/EeePProg/linux/../BinFuncs.c ****     pcvBuffer=((uint8_t*)pcvBuffer)+1;
 1336              		.loc 1 49 11 view .LVU568
 1337 05a4 0E2082E0 		add	r2, r2, lr
  49:/home/hkh/git/eapidk-code-r76-trunk/apps/EeePProg/linux/../BinFuncs.c ****     pcvBuffer=((uint8_t*)pcvBuffer)+1;
 1338              		.loc 1 49 13 view .LVU569
 1339 05a8 2DE051E5 		ldrb	lr, [r1, #-45]	@ zero_extendqisi2
  49:/home/hkh/git/eapidk-code-r76-trunk/apps/EeePProg/linux/../BinFuncs.c ****     pcvBuffer=((uint8_t*)pcvBuffer)+1;
 1340              		.loc 1 49 11 view .LVU570
 1341 05ac 0E2082E0 		add	r2, r2, lr
  49:/home/hkh/git/eapidk-code-r76-trunk/apps/EeePProg/linux/../BinFuncs.c ****     pcvBuffer=((uint8_t*)pcvBuffer)+1;
 1342              		.loc 1 49 13 view .LVU571
 1343 05b0 2CE051E5 		ldrb	lr, [r1, #-44]	@ zero_extendqisi2
  49:/home/hkh/git/eapidk-code-r76-trunk/apps/EeePProg/linux/../BinFuncs.c ****     pcvBuffer=((uint8_t*)pcvBuffer)+1;
 1344              		.loc 1 49 11 view .LVU572
 1345 05b4 0E2082E0 		add	r2, r2, lr
  49:/home/hkh/git/eapidk-code-r76-trunk/apps/EeePProg/linux/../BinFuncs.c ****     pcvBuffer=((uint8_t*)pcvBuffer)+1;
 1346              		.loc 1 49 13 view .LVU573
 1347 05b8 2BE051E5 		ldrb	lr, [r1, #-43]	@ zero_extendqisi2
  49:/home/hkh/git/eapidk-code-r76-trunk/apps/EeePProg/linux/../BinFuncs.c ****     pcvBuffer=((uint8_t*)pcvBuffer)+1;
 1348              		.loc 1 49 11 view .LVU574
 1349 05bc 0E2082E0 		add	r2, r2, lr
  49:/home/hkh/git/eapidk-code-r76-trunk/apps/EeePProg/linux/../BinFuncs.c ****     pcvBuffer=((uint8_t*)pcvBuffer)+1;
 1350              		.loc 1 49 13 view .LVU575
 1351 05c0 2AE051E5 		ldrb	lr, [r1, #-42]	@ zero_extendqisi2
  49:/home/hkh/git/eapidk-code-r76-trunk/apps/EeePProg/linux/../BinFuncs.c ****     pcvBuffer=((uint8_t*)pcvBuffer)+1;
 1352              		.loc 1 49 11 view .LVU576
 1353 05c4 0E2082E0 		add	r2, r2, lr
  49:/home/hkh/git/eapidk-code-r76-trunk/apps/EeePProg/linux/../BinFuncs.c ****     pcvBuffer=((uint8_t*)pcvBuffer)+1;
 1354              		.loc 1 49 13 view .LVU577
 1355 05c8 29E051E5 		ldrb	lr, [r1, #-41]	@ zero_extendqisi2
  49:/home/hkh/git/eapidk-code-r76-trunk/apps/EeePProg/linux/../BinFuncs.c ****     pcvBuffer=((uint8_t*)pcvBuffer)+1;
 1356              		.loc 1 49 11 view .LVU578
 1357 05cc 0E2082E0 		add	r2, r2, lr
  49:/home/hkh/git/eapidk-code-r76-trunk/apps/EeePProg/linux/../BinFuncs.c ****     pcvBuffer=((uint8_t*)pcvBuffer)+1;
 1358              		.loc 1 49 13 view .LVU579
 1359 05d0 28E051E5 		ldrb	lr, [r1, #-40]	@ zero_extendqisi2
  49:/home/hkh/git/eapidk-code-r76-trunk/apps/EeePProg/linux/../BinFuncs.c ****     pcvBuffer=((uint8_t*)pcvBuffer)+1;
 1360              		.loc 1 49 11 view .LVU580
 1361 05d4 0E2082E0 		add	r2, r2, lr
  49:/home/hkh/git/eapidk-code-r76-trunk/apps/EeePProg/linux/../BinFuncs.c ****     pcvBuffer=((uint8_t*)pcvBuffer)+1;
 1362              		.loc 1 49 13 view .LVU581
 1363 05d8 27E051E5 		ldrb	lr, [r1, #-39]	@ zero_extendqisi2
  49:/home/hkh/git/eapidk-code-r76-trunk/apps/EeePProg/linux/../BinFuncs.c ****     pcvBuffer=((uint8_t*)pcvBuffer)+1;
 1364              		.loc 1 49 11 view .LVU582
 1365 05dc 0E2082E0 		add	r2, r2, lr
  49:/home/hkh/git/eapidk-code-r76-trunk/apps/EeePProg/linux/../BinFuncs.c ****     pcvBuffer=((uint8_t*)pcvBuffer)+1;
 1366              		.loc 1 49 13 view .LVU583
ARM GAS  /tmp/ccf3bFwG.s 			page 45


 1367 05e0 26E051E5 		ldrb	lr, [r1, #-38]	@ zero_extendqisi2
  49:/home/hkh/git/eapidk-code-r76-trunk/apps/EeePProg/linux/../BinFuncs.c ****     pcvBuffer=((uint8_t*)pcvBuffer)+1;
 1368              		.loc 1 49 11 view .LVU584
 1369 05e4 0E2082E0 		add	r2, r2, lr
  49:/home/hkh/git/eapidk-code-r76-trunk/apps/EeePProg/linux/../BinFuncs.c ****     pcvBuffer=((uint8_t*)pcvBuffer)+1;
 1370              		.loc 1 49 13 view .LVU585
 1371 05e8 25E051E5 		ldrb	lr, [r1, #-37]	@ zero_extendqisi2
  49:/home/hkh/git/eapidk-code-r76-trunk/apps/EeePProg/linux/../BinFuncs.c ****     pcvBuffer=((uint8_t*)pcvBuffer)+1;
 1372              		.loc 1 49 11 view .LVU586
 1373 05ec 0E2082E0 		add	r2, r2, lr
  49:/home/hkh/git/eapidk-code-r76-trunk/apps/EeePProg/linux/../BinFuncs.c ****     pcvBuffer=((uint8_t*)pcvBuffer)+1;
 1374              		.loc 1 49 13 view .LVU587
 1375 05f0 24E051E5 		ldrb	lr, [r1, #-36]	@ zero_extendqisi2
  49:/home/hkh/git/eapidk-code-r76-trunk/apps/EeePProg/linux/../BinFuncs.c ****     pcvBuffer=((uint8_t*)pcvBuffer)+1;
 1376              		.loc 1 49 11 view .LVU588
 1377 05f4 0E2082E0 		add	r2, r2, lr
  49:/home/hkh/git/eapidk-code-r76-trunk/apps/EeePProg/linux/../BinFuncs.c ****     pcvBuffer=((uint8_t*)pcvBuffer)+1;
 1378              		.loc 1 49 13 view .LVU589
 1379 05f8 23E051E5 		ldrb	lr, [r1, #-35]	@ zero_extendqisi2
  49:/home/hkh/git/eapidk-code-r76-trunk/apps/EeePProg/linux/../BinFuncs.c ****     pcvBuffer=((uint8_t*)pcvBuffer)+1;
 1380              		.loc 1 49 11 view .LVU590
 1381 05fc 0E2082E0 		add	r2, r2, lr
  49:/home/hkh/git/eapidk-code-r76-trunk/apps/EeePProg/linux/../BinFuncs.c ****     pcvBuffer=((uint8_t*)pcvBuffer)+1;
 1382              		.loc 1 49 13 view .LVU591
 1383 0600 22E051E5 		ldrb	lr, [r1, #-34]	@ zero_extendqisi2
  49:/home/hkh/git/eapidk-code-r76-trunk/apps/EeePProg/linux/../BinFuncs.c ****     pcvBuffer=((uint8_t*)pcvBuffer)+1;
 1384              		.loc 1 49 11 view .LVU592
 1385 0604 0E2082E0 		add	r2, r2, lr
  49:/home/hkh/git/eapidk-code-r76-trunk/apps/EeePProg/linux/../BinFuncs.c ****     pcvBuffer=((uint8_t*)pcvBuffer)+1;
 1386              		.loc 1 49 13 view .LVU593
 1387 0608 21E051E5 		ldrb	lr, [r1, #-33]	@ zero_extendqisi2
  49:/home/hkh/git/eapidk-code-r76-trunk/apps/EeePProg/linux/../BinFuncs.c ****     pcvBuffer=((uint8_t*)pcvBuffer)+1;
 1388              		.loc 1 49 11 view .LVU594
 1389 060c 0E2082E0 		add	r2, r2, lr
 1390 0610 023083E0 		add	r3, r3, r2
 1391              	.LVL84:
  50:/home/hkh/git/eapidk-code-r76-trunk/apps/EeePProg/linux/../BinFuncs.c ****   }
 1392              		.loc 1 50 5 is_stmt 1 view .LVU595
  48:/home/hkh/git/eapidk-code-r76-trunk/apps/EeePProg/linux/../BinFuncs.c ****     ChkSum+=(uint32_t)(*((uint8_t*)pcvBuffer));
 1393              		.loc 1 48 9 view .LVU596
  48:/home/hkh/git/eapidk-code-r76-trunk/apps/EeePProg/linux/../BinFuncs.c ****     ChkSum+=(uint32_t)(*((uint8_t*)pcvBuffer));
 1394              		.loc 1 48 9 is_stmt 0 view .LVU597
 1395 0614 B9FFFF8A 		bhi	.L96
 1396 0618 01108CE2 		add	r1, ip, #1
 1397 061c 011080E0 		add	r1, r0, r1
 1398              	.L97:
 1399              	.LVL85:
  49:/home/hkh/git/eapidk-code-r76-trunk/apps/EeePProg/linux/../BinFuncs.c ****     pcvBuffer=((uint8_t*)pcvBuffer)+1;
 1400              		.loc 1 49 5 is_stmt 1 view .LVU598
  49:/home/hkh/git/eapidk-code-r76-trunk/apps/EeePProg/linux/../BinFuncs.c ****     pcvBuffer=((uint8_t*)pcvBuffer)+1;
 1401              		.loc 1 49 13 is_stmt 0 view .LVU599
 1402 0620 0120D0E4 		ldrb	r2, [r0], #1	@ zero_extendqisi2
 1403              	.LVL86:
  48:/home/hkh/git/eapidk-code-r76-trunk/apps/EeePProg/linux/../BinFuncs.c ****     ChkSum+=(uint32_t)(*((uint8_t*)pcvBuffer));
 1404              		.loc 1 48 9 view .LVU600
 1405 0624 010050E1 		cmp	r0, r1
  49:/home/hkh/git/eapidk-code-r76-trunk/apps/EeePProg/linux/../BinFuncs.c ****     pcvBuffer=((uint8_t*)pcvBuffer)+1;
ARM GAS  /tmp/ccf3bFwG.s 			page 46


 1406              		.loc 1 49 11 view .LVU601
 1407 0628 023083E0 		add	r3, r3, r2
 1408              	.LVL87:
  50:/home/hkh/git/eapidk-code-r76-trunk/apps/EeePProg/linux/../BinFuncs.c ****   }
 1409              		.loc 1 50 5 is_stmt 1 view .LVU602
  48:/home/hkh/git/eapidk-code-r76-trunk/apps/EeePProg/linux/../BinFuncs.c ****     ChkSum+=(uint32_t)(*((uint8_t*)pcvBuffer));
 1410              		.loc 1 48 9 view .LVU603
  48:/home/hkh/git/eapidk-code-r76-trunk/apps/EeePProg/linux/../BinFuncs.c ****     ChkSum+=(uint32_t)(*((uint8_t*)pcvBuffer));
 1411              		.loc 1 48 9 is_stmt 0 view .LVU604
 1412 062c FBFFFF1A 		bne	.L97
 1413              	.LBE72:
 1414              	.LBE76:
  60:/home/hkh/git/eapidk-code-r76-trunk/apps/EeePProg/linux/../BinFuncs.c **** }
 1415              		.loc 1 60 10 view .LVU605
 1416 0630 7300FFE6 		uxth	r0, r3
 1417              	.LVL88:
 1418              	.LBB77:
 1419              	.LBB73:
  52:/home/hkh/git/eapidk-code-r76-trunk/apps/EeePProg/linux/../BinFuncs.c **** }
 1420              		.loc 1 52 3 is_stmt 1 view .LVU606
  52:/home/hkh/git/eapidk-code-r76-trunk/apps/EeePProg/linux/../BinFuncs.c **** }
 1421              		.loc 1 52 3 is_stmt 0 view .LVU607
 1422              	.LBE73:
 1423              	.LBE77:
  61:/home/hkh/git/eapidk-code-r76-trunk/apps/EeePProg/linux/../BinFuncs.c **** uint8_t  
 1424              		.loc 1 61 1 view .LVU608
 1425 0634 04F09DE4 		ldr	pc, [sp], #4
 1426              	.LVL89:
 1427              	.L98:
 1428              		.cfi_def_cfa_offset 0
 1429              		.cfi_restore 14
 1430              	.LBB78:
 1431              	.LBB74:
  48:/home/hkh/git/eapidk-code-r76-trunk/apps/EeePProg/linux/../BinFuncs.c ****     ChkSum+=(uint32_t)(*((uint8_t*)pcvBuffer));
 1432              		.loc 1 48 9 view .LVU609
 1433 0638 0100A0E1 		mov	r0, r1
 1434              	.LVL90:
  48:/home/hkh/git/eapidk-code-r76-trunk/apps/EeePProg/linux/../BinFuncs.c ****     ChkSum+=(uint32_t)(*((uint8_t*)pcvBuffer));
 1435              		.loc 1 48 9 view .LVU610
 1436 063c 1EFF2FE1 		bx	lr
 1437              	.LVL91:
 1438              	.L99:
  48:/home/hkh/git/eapidk-code-r76-trunk/apps/EeePProg/linux/../BinFuncs.c ****     ChkSum+=(uint32_t)(*((uint8_t*)pcvBuffer));
 1439              		.loc 1 48 9 view .LVU611
 1440 0640 01108CE2 		add	r1, ip, #1
 1441              	.LVL92:
  48:/home/hkh/git/eapidk-code-r76-trunk/apps/EeePProg/linux/../BinFuncs.c ****     ChkSum+=(uint32_t)(*((uint8_t*)pcvBuffer));
 1442              		.loc 1 48 9 view .LVU612
 1443 0644 0030A0E3 		mov	r3, #0
 1444 0648 011080E0 		add	r1, r0, r1
 1445              	.LVL93:
 1446              	.L104:
  49:/home/hkh/git/eapidk-code-r76-trunk/apps/EeePProg/linux/../BinFuncs.c ****     pcvBuffer=((uint8_t*)pcvBuffer)+1;
 1447              		.loc 1 49 5 is_stmt 1 view .LVU613
  49:/home/hkh/git/eapidk-code-r76-trunk/apps/EeePProg/linux/../BinFuncs.c ****     pcvBuffer=((uint8_t*)pcvBuffer)+1;
 1448              		.loc 1 49 13 is_stmt 0 view .LVU614
 1449 064c 0120D0E4 		ldrb	r2, [r0], #1	@ zero_extendqisi2
ARM GAS  /tmp/ccf3bFwG.s 			page 47


 1450              	.LVL94:
  48:/home/hkh/git/eapidk-code-r76-trunk/apps/EeePProg/linux/../BinFuncs.c ****     ChkSum+=(uint32_t)(*((uint8_t*)pcvBuffer));
 1451              		.loc 1 48 9 view .LVU615
 1452 0650 010050E1 		cmp	r0, r1
  49:/home/hkh/git/eapidk-code-r76-trunk/apps/EeePProg/linux/../BinFuncs.c ****     pcvBuffer=((uint8_t*)pcvBuffer)+1;
 1453              		.loc 1 49 11 view .LVU616
 1454 0654 023083E0 		add	r3, r3, r2
 1455              	.LVL95:
  50:/home/hkh/git/eapidk-code-r76-trunk/apps/EeePProg/linux/../BinFuncs.c ****   }
 1456              		.loc 1 50 5 is_stmt 1 view .LVU617
  48:/home/hkh/git/eapidk-code-r76-trunk/apps/EeePProg/linux/../BinFuncs.c ****     ChkSum+=(uint32_t)(*((uint8_t*)pcvBuffer));
 1457              		.loc 1 48 9 view .LVU618
  48:/home/hkh/git/eapidk-code-r76-trunk/apps/EeePProg/linux/../BinFuncs.c ****     ChkSum+=(uint32_t)(*((uint8_t*)pcvBuffer));
 1458              		.loc 1 48 9 is_stmt 0 view .LVU619
 1459 0658 FBFFFF1A 		bne	.L104
 1460              	.LBE74:
 1461              	.LBE78:
  60:/home/hkh/git/eapidk-code-r76-trunk/apps/EeePProg/linux/../BinFuncs.c **** }
 1462              		.loc 1 60 10 view .LVU620
 1463 065c 7300FFE6 		uxth	r0, r3
 1464              	.LVL96:
 1465              	.LBB79:
 1466              	.LBB75:
  52:/home/hkh/git/eapidk-code-r76-trunk/apps/EeePProg/linux/../BinFuncs.c **** }
 1467              		.loc 1 52 3 is_stmt 1 view .LVU621
  52:/home/hkh/git/eapidk-code-r76-trunk/apps/EeePProg/linux/../BinFuncs.c **** }
 1468              		.loc 1 52 3 is_stmt 0 view .LVU622
 1469              	.LBE75:
 1470              	.LBE79:
  61:/home/hkh/git/eapidk-code-r76-trunk/apps/EeePProg/linux/../BinFuncs.c **** uint8_t  
 1471              		.loc 1 61 1 view .LVU623
 1472 0660 1EFF2FE1 		bx	lr
 1473              		.cfi_endproc
 1474              	.LFE2:
 1476              		.align	2
 1477              		.global	u8ChecksumBlock
 1478              		.syntax unified
 1479              		.arm
 1480              		.fpu vfpv3
 1482              	u8ChecksumBlock:
 1483              	.LVL97:
 1484              	.LFB3:
  67:/home/hkh/git/eapidk-code-r76-trunk/apps/EeePProg/linux/../BinFuncs.c ****   return EEEP_LO_UINT8(u32ChecksumBlock(pcvBuffer, stLength));
 1485              		.loc 1 67 1 is_stmt 1 view -0
 1486              		.cfi_startproc
 1487              		@ args = 0, pretend = 0, frame = 0
 1488              		@ frame_needed = 0, uses_anonymous_args = 0
  68:/home/hkh/git/eapidk-code-r76-trunk/apps/EeePProg/linux/../BinFuncs.c **** }
 1489              		.loc 1 68 3 view .LVU625
 1490              	.LBB80:
 1491              	.LBI80:
  42:/home/hkh/git/eapidk-code-r76-trunk/apps/EeePProg/linux/../BinFuncs.c **** 	const void *pcvBuffer, 
 1492              		.loc 1 42 1 view .LVU626
 1493              	.LBB81:
  47:/home/hkh/git/eapidk-code-r76-trunk/apps/EeePProg/linux/../BinFuncs.c ****   while(stLength--){
 1494              		.loc 1 47 3 view .LVU627
  48:/home/hkh/git/eapidk-code-r76-trunk/apps/EeePProg/linux/../BinFuncs.c ****     ChkSum+=(uint32_t)(*((uint8_t*)pcvBuffer));
ARM GAS  /tmp/ccf3bFwG.s 			page 48


 1495              		.loc 1 48 3 view .LVU628
  48:/home/hkh/git/eapidk-code-r76-trunk/apps/EeePProg/linux/../BinFuncs.c ****     ChkSum+=(uint32_t)(*((uint8_t*)pcvBuffer));
 1496              		.loc 1 48 9 view .LVU629
 1497 0664 000051E3 		cmp	r1, #0
 1498              	.LVL98:
  48:/home/hkh/git/eapidk-code-r76-trunk/apps/EeePProg/linux/../BinFuncs.c ****     ChkSum+=(uint32_t)(*((uint8_t*)pcvBuffer));
 1499              		.loc 1 48 9 is_stmt 0 view .LVU630
 1500 0668 5300000A 		beq	.L114
 1501 066c 01C041E2 		sub	ip, r1, #1
 1502              	.LVL99:
  48:/home/hkh/git/eapidk-code-r76-trunk/apps/EeePProg/linux/../BinFuncs.c ****     ChkSum+=(uint32_t)(*((uint8_t*)pcvBuffer));
 1503              		.loc 1 48 9 view .LVU631
 1504 0670 1F005CE3 		cmp	ip, #31
 1505 0674 5200009A 		bls	.L115
 1506 0678 201080E2 		add	r1, r0, #32
 1507              	.LVL100:
  47:/home/hkh/git/eapidk-code-r76-trunk/apps/EeePProg/linux/../BinFuncs.c ****   while(stLength--){
 1508              		.loc 1 47 12 view .LVU632
 1509 067c 0030A0E3 		mov	r3, #0
 1510              	.LBE81:
 1511              	.LBE80:
  67:/home/hkh/git/eapidk-code-r76-trunk/apps/EeePProg/linux/../BinFuncs.c ****   return EEEP_LO_UINT8(u32ChecksumBlock(pcvBuffer, stLength));
 1512              		.loc 1 67 1 view .LVU633
 1513 0680 04E02DE5 		str	lr, [sp, #-4]!
 1514              		.cfi_def_cfa_offset 4
 1515              		.cfi_offset 14, -4
 1516              	.LVL101:
 1517              	.L112:
 1518              	.LBB86:
 1519              	.LBB82:
  49:/home/hkh/git/eapidk-code-r76-trunk/apps/EeePProg/linux/../BinFuncs.c ****     pcvBuffer=((uint8_t*)pcvBuffer)+1;
 1520              		.loc 1 49 5 is_stmt 1 view .LVU634
  49:/home/hkh/git/eapidk-code-r76-trunk/apps/EeePProg/linux/../BinFuncs.c ****     pcvBuffer=((uint8_t*)pcvBuffer)+1;
 1521              		.loc 1 49 13 is_stmt 0 view .LVU635
 1522 0684 1FE051E5 		ldrb	lr, [r1, #-31]	@ zero_extendqisi2
  48:/home/hkh/git/eapidk-code-r76-trunk/apps/EeePProg/linux/../BinFuncs.c ****     ChkSum+=(uint32_t)(*((uint8_t*)pcvBuffer));
 1523              		.loc 1 48 17 view .LVU636
 1524 0688 20C04CE2 		sub	ip, ip, #32
 1525 068c 1F005CE3 		cmp	ip, #31
 1526 0690 0100A0E1 		mov	r0, r1
 1527              	.LVL102:
  50:/home/hkh/git/eapidk-code-r76-trunk/apps/EeePProg/linux/../BinFuncs.c ****   }
 1528              		.loc 1 50 5 is_stmt 1 view .LVU637
  48:/home/hkh/git/eapidk-code-r76-trunk/apps/EeePProg/linux/../BinFuncs.c ****     ChkSum+=(uint32_t)(*((uint8_t*)pcvBuffer));
 1529              		.loc 1 48 9 view .LVU638
  49:/home/hkh/git/eapidk-code-r76-trunk/apps/EeePProg/linux/../BinFuncs.c ****     pcvBuffer=((uint8_t*)pcvBuffer)+1;
 1530              		.loc 1 49 5 view .LVU639
  50:/home/hkh/git/eapidk-code-r76-trunk/apps/EeePProg/linux/../BinFuncs.c ****   }
 1531              		.loc 1 50 5 view .LVU640
  48:/home/hkh/git/eapidk-code-r76-trunk/apps/EeePProg/linux/../BinFuncs.c ****     ChkSum+=(uint32_t)(*((uint8_t*)pcvBuffer));
 1532              		.loc 1 48 9 view .LVU641
  49:/home/hkh/git/eapidk-code-r76-trunk/apps/EeePProg/linux/../BinFuncs.c ****     pcvBuffer=((uint8_t*)pcvBuffer)+1;
 1533              		.loc 1 49 5 view .LVU642
  50:/home/hkh/git/eapidk-code-r76-trunk/apps/EeePProg/linux/../BinFuncs.c ****   }
 1534              		.loc 1 50 5 view .LVU643
  48:/home/hkh/git/eapidk-code-r76-trunk/apps/EeePProg/linux/../BinFuncs.c ****     ChkSum+=(uint32_t)(*((uint8_t*)pcvBuffer));
 1535              		.loc 1 48 9 view .LVU644
ARM GAS  /tmp/ccf3bFwG.s 			page 49


  49:/home/hkh/git/eapidk-code-r76-trunk/apps/EeePProg/linux/../BinFuncs.c ****     pcvBuffer=((uint8_t*)pcvBuffer)+1;
 1536              		.loc 1 49 5 view .LVU645
  50:/home/hkh/git/eapidk-code-r76-trunk/apps/EeePProg/linux/../BinFuncs.c ****   }
 1537              		.loc 1 50 5 view .LVU646
  48:/home/hkh/git/eapidk-code-r76-trunk/apps/EeePProg/linux/../BinFuncs.c ****     ChkSum+=(uint32_t)(*((uint8_t*)pcvBuffer));
 1538              		.loc 1 48 9 view .LVU647
  49:/home/hkh/git/eapidk-code-r76-trunk/apps/EeePProg/linux/../BinFuncs.c ****     pcvBuffer=((uint8_t*)pcvBuffer)+1;
 1539              		.loc 1 49 5 view .LVU648
  50:/home/hkh/git/eapidk-code-r76-trunk/apps/EeePProg/linux/../BinFuncs.c ****   }
 1540              		.loc 1 50 5 view .LVU649
  48:/home/hkh/git/eapidk-code-r76-trunk/apps/EeePProg/linux/../BinFuncs.c ****     ChkSum+=(uint32_t)(*((uint8_t*)pcvBuffer));
 1541              		.loc 1 48 9 view .LVU650
  49:/home/hkh/git/eapidk-code-r76-trunk/apps/EeePProg/linux/../BinFuncs.c ****     pcvBuffer=((uint8_t*)pcvBuffer)+1;
 1542              		.loc 1 49 5 view .LVU651
  50:/home/hkh/git/eapidk-code-r76-trunk/apps/EeePProg/linux/../BinFuncs.c ****   }
 1543              		.loc 1 50 5 view .LVU652
  48:/home/hkh/git/eapidk-code-r76-trunk/apps/EeePProg/linux/../BinFuncs.c ****     ChkSum+=(uint32_t)(*((uint8_t*)pcvBuffer));
 1544              		.loc 1 48 9 view .LVU653
  49:/home/hkh/git/eapidk-code-r76-trunk/apps/EeePProg/linux/../BinFuncs.c ****     pcvBuffer=((uint8_t*)pcvBuffer)+1;
 1545              		.loc 1 49 5 view .LVU654
  50:/home/hkh/git/eapidk-code-r76-trunk/apps/EeePProg/linux/../BinFuncs.c ****   }
 1546              		.loc 1 50 5 view .LVU655
  48:/home/hkh/git/eapidk-code-r76-trunk/apps/EeePProg/linux/../BinFuncs.c ****     ChkSum+=(uint32_t)(*((uint8_t*)pcvBuffer));
 1547              		.loc 1 48 9 view .LVU656
  49:/home/hkh/git/eapidk-code-r76-trunk/apps/EeePProg/linux/../BinFuncs.c ****     pcvBuffer=((uint8_t*)pcvBuffer)+1;
 1548              		.loc 1 49 5 view .LVU657
  50:/home/hkh/git/eapidk-code-r76-trunk/apps/EeePProg/linux/../BinFuncs.c ****   }
 1549              		.loc 1 50 5 view .LVU658
  48:/home/hkh/git/eapidk-code-r76-trunk/apps/EeePProg/linux/../BinFuncs.c ****     ChkSum+=(uint32_t)(*((uint8_t*)pcvBuffer));
 1550              		.loc 1 48 9 view .LVU659
  49:/home/hkh/git/eapidk-code-r76-trunk/apps/EeePProg/linux/../BinFuncs.c ****     pcvBuffer=((uint8_t*)pcvBuffer)+1;
 1551              		.loc 1 49 5 view .LVU660
  50:/home/hkh/git/eapidk-code-r76-trunk/apps/EeePProg/linux/../BinFuncs.c ****   }
 1552              		.loc 1 50 5 view .LVU661
  48:/home/hkh/git/eapidk-code-r76-trunk/apps/EeePProg/linux/../BinFuncs.c ****     ChkSum+=(uint32_t)(*((uint8_t*)pcvBuffer));
 1553              		.loc 1 48 9 view .LVU662
  49:/home/hkh/git/eapidk-code-r76-trunk/apps/EeePProg/linux/../BinFuncs.c ****     pcvBuffer=((uint8_t*)pcvBuffer)+1;
 1554              		.loc 1 49 5 view .LVU663
  50:/home/hkh/git/eapidk-code-r76-trunk/apps/EeePProg/linux/../BinFuncs.c ****   }
 1555              		.loc 1 50 5 view .LVU664
  48:/home/hkh/git/eapidk-code-r76-trunk/apps/EeePProg/linux/../BinFuncs.c ****     ChkSum+=(uint32_t)(*((uint8_t*)pcvBuffer));
 1556              		.loc 1 48 9 view .LVU665
  49:/home/hkh/git/eapidk-code-r76-trunk/apps/EeePProg/linux/../BinFuncs.c ****     pcvBuffer=((uint8_t*)pcvBuffer)+1;
 1557              		.loc 1 49 5 view .LVU666
  50:/home/hkh/git/eapidk-code-r76-trunk/apps/EeePProg/linux/../BinFuncs.c ****   }
 1558              		.loc 1 50 5 view .LVU667
  48:/home/hkh/git/eapidk-code-r76-trunk/apps/EeePProg/linux/../BinFuncs.c ****     ChkSum+=(uint32_t)(*((uint8_t*)pcvBuffer));
 1559              		.loc 1 48 9 view .LVU668
  49:/home/hkh/git/eapidk-code-r76-trunk/apps/EeePProg/linux/../BinFuncs.c ****     pcvBuffer=((uint8_t*)pcvBuffer)+1;
 1560              		.loc 1 49 5 view .LVU669
  50:/home/hkh/git/eapidk-code-r76-trunk/apps/EeePProg/linux/../BinFuncs.c ****   }
 1561              		.loc 1 50 5 view .LVU670
  48:/home/hkh/git/eapidk-code-r76-trunk/apps/EeePProg/linux/../BinFuncs.c ****     ChkSum+=(uint32_t)(*((uint8_t*)pcvBuffer));
 1562              		.loc 1 48 9 view .LVU671
  49:/home/hkh/git/eapidk-code-r76-trunk/apps/EeePProg/linux/../BinFuncs.c ****     pcvBuffer=((uint8_t*)pcvBuffer)+1;
 1563              		.loc 1 49 5 view .LVU672
  50:/home/hkh/git/eapidk-code-r76-trunk/apps/EeePProg/linux/../BinFuncs.c ****   }
ARM GAS  /tmp/ccf3bFwG.s 			page 50


 1564              		.loc 1 50 5 view .LVU673
  48:/home/hkh/git/eapidk-code-r76-trunk/apps/EeePProg/linux/../BinFuncs.c ****     ChkSum+=(uint32_t)(*((uint8_t*)pcvBuffer));
 1565              		.loc 1 48 9 view .LVU674
  49:/home/hkh/git/eapidk-code-r76-trunk/apps/EeePProg/linux/../BinFuncs.c ****     pcvBuffer=((uint8_t*)pcvBuffer)+1;
 1566              		.loc 1 49 5 view .LVU675
  50:/home/hkh/git/eapidk-code-r76-trunk/apps/EeePProg/linux/../BinFuncs.c ****   }
 1567              		.loc 1 50 5 view .LVU676
  48:/home/hkh/git/eapidk-code-r76-trunk/apps/EeePProg/linux/../BinFuncs.c ****     ChkSum+=(uint32_t)(*((uint8_t*)pcvBuffer));
 1568              		.loc 1 48 9 view .LVU677
  49:/home/hkh/git/eapidk-code-r76-trunk/apps/EeePProg/linux/../BinFuncs.c ****     pcvBuffer=((uint8_t*)pcvBuffer)+1;
 1569              		.loc 1 49 5 view .LVU678
  50:/home/hkh/git/eapidk-code-r76-trunk/apps/EeePProg/linux/../BinFuncs.c ****   }
 1570              		.loc 1 50 5 view .LVU679
  48:/home/hkh/git/eapidk-code-r76-trunk/apps/EeePProg/linux/../BinFuncs.c ****     ChkSum+=(uint32_t)(*((uint8_t*)pcvBuffer));
 1571              		.loc 1 48 9 view .LVU680
  49:/home/hkh/git/eapidk-code-r76-trunk/apps/EeePProg/linux/../BinFuncs.c ****     pcvBuffer=((uint8_t*)pcvBuffer)+1;
 1572              		.loc 1 49 5 view .LVU681
  50:/home/hkh/git/eapidk-code-r76-trunk/apps/EeePProg/linux/../BinFuncs.c ****   }
 1573              		.loc 1 50 5 view .LVU682
  48:/home/hkh/git/eapidk-code-r76-trunk/apps/EeePProg/linux/../BinFuncs.c ****     ChkSum+=(uint32_t)(*((uint8_t*)pcvBuffer));
 1574              		.loc 1 48 9 view .LVU683
  49:/home/hkh/git/eapidk-code-r76-trunk/apps/EeePProg/linux/../BinFuncs.c ****     pcvBuffer=((uint8_t*)pcvBuffer)+1;
 1575              		.loc 1 49 5 view .LVU684
  50:/home/hkh/git/eapidk-code-r76-trunk/apps/EeePProg/linux/../BinFuncs.c ****   }
 1576              		.loc 1 50 5 view .LVU685
  48:/home/hkh/git/eapidk-code-r76-trunk/apps/EeePProg/linux/../BinFuncs.c ****     ChkSum+=(uint32_t)(*((uint8_t*)pcvBuffer));
 1577              		.loc 1 48 9 view .LVU686
  49:/home/hkh/git/eapidk-code-r76-trunk/apps/EeePProg/linux/../BinFuncs.c ****     pcvBuffer=((uint8_t*)pcvBuffer)+1;
 1578              		.loc 1 49 5 view .LVU687
  50:/home/hkh/git/eapidk-code-r76-trunk/apps/EeePProg/linux/../BinFuncs.c ****   }
 1579              		.loc 1 50 5 view .LVU688
  48:/home/hkh/git/eapidk-code-r76-trunk/apps/EeePProg/linux/../BinFuncs.c ****     ChkSum+=(uint32_t)(*((uint8_t*)pcvBuffer));
 1580              		.loc 1 48 9 view .LVU689
  49:/home/hkh/git/eapidk-code-r76-trunk/apps/EeePProg/linux/../BinFuncs.c ****     pcvBuffer=((uint8_t*)pcvBuffer)+1;
 1581              		.loc 1 49 5 view .LVU690
  50:/home/hkh/git/eapidk-code-r76-trunk/apps/EeePProg/linux/../BinFuncs.c ****   }
 1582              		.loc 1 50 5 view .LVU691
  48:/home/hkh/git/eapidk-code-r76-trunk/apps/EeePProg/linux/../BinFuncs.c ****     ChkSum+=(uint32_t)(*((uint8_t*)pcvBuffer));
 1583              		.loc 1 48 9 view .LVU692
  49:/home/hkh/git/eapidk-code-r76-trunk/apps/EeePProg/linux/../BinFuncs.c ****     pcvBuffer=((uint8_t*)pcvBuffer)+1;
 1584              		.loc 1 49 5 view .LVU693
  50:/home/hkh/git/eapidk-code-r76-trunk/apps/EeePProg/linux/../BinFuncs.c ****   }
 1585              		.loc 1 50 5 view .LVU694
  48:/home/hkh/git/eapidk-code-r76-trunk/apps/EeePProg/linux/../BinFuncs.c ****     ChkSum+=(uint32_t)(*((uint8_t*)pcvBuffer));
 1586              		.loc 1 48 9 view .LVU695
  49:/home/hkh/git/eapidk-code-r76-trunk/apps/EeePProg/linux/../BinFuncs.c ****     pcvBuffer=((uint8_t*)pcvBuffer)+1;
 1587              		.loc 1 49 5 view .LVU696
  50:/home/hkh/git/eapidk-code-r76-trunk/apps/EeePProg/linux/../BinFuncs.c ****   }
 1588              		.loc 1 50 5 view .LVU697
  48:/home/hkh/git/eapidk-code-r76-trunk/apps/EeePProg/linux/../BinFuncs.c ****     ChkSum+=(uint32_t)(*((uint8_t*)pcvBuffer));
 1589              		.loc 1 48 9 view .LVU698
  49:/home/hkh/git/eapidk-code-r76-trunk/apps/EeePProg/linux/../BinFuncs.c ****     pcvBuffer=((uint8_t*)pcvBuffer)+1;
 1590              		.loc 1 49 5 view .LVU699
  50:/home/hkh/git/eapidk-code-r76-trunk/apps/EeePProg/linux/../BinFuncs.c ****   }
 1591              		.loc 1 50 5 view .LVU700
  48:/home/hkh/git/eapidk-code-r76-trunk/apps/EeePProg/linux/../BinFuncs.c ****     ChkSum+=(uint32_t)(*((uint8_t*)pcvBuffer));
 1592              		.loc 1 48 9 view .LVU701
ARM GAS  /tmp/ccf3bFwG.s 			page 51


  49:/home/hkh/git/eapidk-code-r76-trunk/apps/EeePProg/linux/../BinFuncs.c ****     pcvBuffer=((uint8_t*)pcvBuffer)+1;
 1593              		.loc 1 49 5 view .LVU702
  50:/home/hkh/git/eapidk-code-r76-trunk/apps/EeePProg/linux/../BinFuncs.c ****   }
 1594              		.loc 1 50 5 view .LVU703
  48:/home/hkh/git/eapidk-code-r76-trunk/apps/EeePProg/linux/../BinFuncs.c ****     ChkSum+=(uint32_t)(*((uint8_t*)pcvBuffer));
 1595              		.loc 1 48 9 view .LVU704
  49:/home/hkh/git/eapidk-code-r76-trunk/apps/EeePProg/linux/../BinFuncs.c ****     pcvBuffer=((uint8_t*)pcvBuffer)+1;
 1596              		.loc 1 49 5 view .LVU705
  50:/home/hkh/git/eapidk-code-r76-trunk/apps/EeePProg/linux/../BinFuncs.c ****   }
 1597              		.loc 1 50 5 view .LVU706
  48:/home/hkh/git/eapidk-code-r76-trunk/apps/EeePProg/linux/../BinFuncs.c ****     ChkSum+=(uint32_t)(*((uint8_t*)pcvBuffer));
 1598              		.loc 1 48 9 view .LVU707
  49:/home/hkh/git/eapidk-code-r76-trunk/apps/EeePProg/linux/../BinFuncs.c ****     pcvBuffer=((uint8_t*)pcvBuffer)+1;
 1599              		.loc 1 49 5 view .LVU708
  50:/home/hkh/git/eapidk-code-r76-trunk/apps/EeePProg/linux/../BinFuncs.c ****   }
 1600              		.loc 1 50 5 view .LVU709
  48:/home/hkh/git/eapidk-code-r76-trunk/apps/EeePProg/linux/../BinFuncs.c ****     ChkSum+=(uint32_t)(*((uint8_t*)pcvBuffer));
 1601              		.loc 1 48 9 view .LVU710
  49:/home/hkh/git/eapidk-code-r76-trunk/apps/EeePProg/linux/../BinFuncs.c ****     pcvBuffer=((uint8_t*)pcvBuffer)+1;
 1602              		.loc 1 49 5 view .LVU711
  50:/home/hkh/git/eapidk-code-r76-trunk/apps/EeePProg/linux/../BinFuncs.c ****   }
 1603              		.loc 1 50 5 view .LVU712
  48:/home/hkh/git/eapidk-code-r76-trunk/apps/EeePProg/linux/../BinFuncs.c ****     ChkSum+=(uint32_t)(*((uint8_t*)pcvBuffer));
 1604              		.loc 1 48 9 view .LVU713
  49:/home/hkh/git/eapidk-code-r76-trunk/apps/EeePProg/linux/../BinFuncs.c ****     pcvBuffer=((uint8_t*)pcvBuffer)+1;
 1605              		.loc 1 49 5 view .LVU714
  50:/home/hkh/git/eapidk-code-r76-trunk/apps/EeePProg/linux/../BinFuncs.c ****   }
 1606              		.loc 1 50 5 view .LVU715
  48:/home/hkh/git/eapidk-code-r76-trunk/apps/EeePProg/linux/../BinFuncs.c ****     ChkSum+=(uint32_t)(*((uint8_t*)pcvBuffer));
 1607              		.loc 1 48 9 view .LVU716
  49:/home/hkh/git/eapidk-code-r76-trunk/apps/EeePProg/linux/../BinFuncs.c ****     pcvBuffer=((uint8_t*)pcvBuffer)+1;
 1608              		.loc 1 49 5 view .LVU717
  50:/home/hkh/git/eapidk-code-r76-trunk/apps/EeePProg/linux/../BinFuncs.c ****   }
 1609              		.loc 1 50 5 view .LVU718
  48:/home/hkh/git/eapidk-code-r76-trunk/apps/EeePProg/linux/../BinFuncs.c ****     ChkSum+=(uint32_t)(*((uint8_t*)pcvBuffer));
 1610              		.loc 1 48 9 view .LVU719
  49:/home/hkh/git/eapidk-code-r76-trunk/apps/EeePProg/linux/../BinFuncs.c ****     pcvBuffer=((uint8_t*)pcvBuffer)+1;
 1611              		.loc 1 49 5 view .LVU720
  50:/home/hkh/git/eapidk-code-r76-trunk/apps/EeePProg/linux/../BinFuncs.c ****   }
 1612              		.loc 1 50 5 view .LVU721
  48:/home/hkh/git/eapidk-code-r76-trunk/apps/EeePProg/linux/../BinFuncs.c ****     ChkSum+=(uint32_t)(*((uint8_t*)pcvBuffer));
 1613              		.loc 1 48 9 view .LVU722
  49:/home/hkh/git/eapidk-code-r76-trunk/apps/EeePProg/linux/../BinFuncs.c ****     pcvBuffer=((uint8_t*)pcvBuffer)+1;
 1614              		.loc 1 49 5 view .LVU723
  50:/home/hkh/git/eapidk-code-r76-trunk/apps/EeePProg/linux/../BinFuncs.c ****   }
 1615              		.loc 1 50 5 view .LVU724
  48:/home/hkh/git/eapidk-code-r76-trunk/apps/EeePProg/linux/../BinFuncs.c ****     ChkSum+=(uint32_t)(*((uint8_t*)pcvBuffer));
 1616              		.loc 1 48 9 view .LVU725
  49:/home/hkh/git/eapidk-code-r76-trunk/apps/EeePProg/linux/../BinFuncs.c ****     pcvBuffer=((uint8_t*)pcvBuffer)+1;
 1617              		.loc 1 49 5 view .LVU726
  50:/home/hkh/git/eapidk-code-r76-trunk/apps/EeePProg/linux/../BinFuncs.c ****   }
 1618              		.loc 1 50 5 view .LVU727
  48:/home/hkh/git/eapidk-code-r76-trunk/apps/EeePProg/linux/../BinFuncs.c ****     ChkSum+=(uint32_t)(*((uint8_t*)pcvBuffer));
 1619              		.loc 1 48 9 view .LVU728
  49:/home/hkh/git/eapidk-code-r76-trunk/apps/EeePProg/linux/../BinFuncs.c ****     pcvBuffer=((uint8_t*)pcvBuffer)+1;
 1620              		.loc 1 49 5 view .LVU729
  49:/home/hkh/git/eapidk-code-r76-trunk/apps/EeePProg/linux/../BinFuncs.c ****     pcvBuffer=((uint8_t*)pcvBuffer)+1;
ARM GAS  /tmp/ccf3bFwG.s 			page 52


 1621              		.loc 1 49 13 is_stmt 0 view .LVU730
 1622 0694 202051E5 		ldrb	r2, [r1, #-32]	@ zero_extendqisi2
 1623 0698 02F0D1F5 		pld	[r1, #2]
 1624 069c 201081E2 		add	r1, r1, #32
 1625              	.LVL103:
  49:/home/hkh/git/eapidk-code-r76-trunk/apps/EeePProg/linux/../BinFuncs.c ****     pcvBuffer=((uint8_t*)pcvBuffer)+1;
 1626              		.loc 1 49 11 view .LVU731
 1627 06a0 0E2082E0 		add	r2, r2, lr
  49:/home/hkh/git/eapidk-code-r76-trunk/apps/EeePProg/linux/../BinFuncs.c ****     pcvBuffer=((uint8_t*)pcvBuffer)+1;
 1628              		.loc 1 49 13 view .LVU732
 1629 06a4 3EE051E5 		ldrb	lr, [r1, #-62]	@ zero_extendqisi2
  49:/home/hkh/git/eapidk-code-r76-trunk/apps/EeePProg/linux/../BinFuncs.c ****     pcvBuffer=((uint8_t*)pcvBuffer)+1;
 1630              		.loc 1 49 11 view .LVU733
 1631 06a8 0E2082E0 		add	r2, r2, lr
  49:/home/hkh/git/eapidk-code-r76-trunk/apps/EeePProg/linux/../BinFuncs.c ****     pcvBuffer=((uint8_t*)pcvBuffer)+1;
 1632              		.loc 1 49 13 view .LVU734
 1633 06ac 3DE051E5 		ldrb	lr, [r1, #-61]	@ zero_extendqisi2
  49:/home/hkh/git/eapidk-code-r76-trunk/apps/EeePProg/linux/../BinFuncs.c ****     pcvBuffer=((uint8_t*)pcvBuffer)+1;
 1634              		.loc 1 49 11 view .LVU735
 1635 06b0 0E2082E0 		add	r2, r2, lr
  49:/home/hkh/git/eapidk-code-r76-trunk/apps/EeePProg/linux/../BinFuncs.c ****     pcvBuffer=((uint8_t*)pcvBuffer)+1;
 1636              		.loc 1 49 13 view .LVU736
 1637 06b4 3CE051E5 		ldrb	lr, [r1, #-60]	@ zero_extendqisi2
  49:/home/hkh/git/eapidk-code-r76-trunk/apps/EeePProg/linux/../BinFuncs.c ****     pcvBuffer=((uint8_t*)pcvBuffer)+1;
 1638              		.loc 1 49 11 view .LVU737
 1639 06b8 0E2082E0 		add	r2, r2, lr
  49:/home/hkh/git/eapidk-code-r76-trunk/apps/EeePProg/linux/../BinFuncs.c ****     pcvBuffer=((uint8_t*)pcvBuffer)+1;
 1640              		.loc 1 49 13 view .LVU738
 1641 06bc 3BE051E5 		ldrb	lr, [r1, #-59]	@ zero_extendqisi2
  49:/home/hkh/git/eapidk-code-r76-trunk/apps/EeePProg/linux/../BinFuncs.c ****     pcvBuffer=((uint8_t*)pcvBuffer)+1;
 1642              		.loc 1 49 11 view .LVU739
 1643 06c0 0E2082E0 		add	r2, r2, lr
  49:/home/hkh/git/eapidk-code-r76-trunk/apps/EeePProg/linux/../BinFuncs.c ****     pcvBuffer=((uint8_t*)pcvBuffer)+1;
 1644              		.loc 1 49 13 view .LVU740
 1645 06c4 3AE051E5 		ldrb	lr, [r1, #-58]	@ zero_extendqisi2
  49:/home/hkh/git/eapidk-code-r76-trunk/apps/EeePProg/linux/../BinFuncs.c ****     pcvBuffer=((uint8_t*)pcvBuffer)+1;
 1646              		.loc 1 49 11 view .LVU741
 1647 06c8 0E2082E0 		add	r2, r2, lr
  49:/home/hkh/git/eapidk-code-r76-trunk/apps/EeePProg/linux/../BinFuncs.c ****     pcvBuffer=((uint8_t*)pcvBuffer)+1;
 1648              		.loc 1 49 13 view .LVU742
 1649 06cc 39E051E5 		ldrb	lr, [r1, #-57]	@ zero_extendqisi2
  49:/home/hkh/git/eapidk-code-r76-trunk/apps/EeePProg/linux/../BinFuncs.c ****     pcvBuffer=((uint8_t*)pcvBuffer)+1;
 1650              		.loc 1 49 11 view .LVU743
 1651 06d0 0E2082E0 		add	r2, r2, lr
  49:/home/hkh/git/eapidk-code-r76-trunk/apps/EeePProg/linux/../BinFuncs.c ****     pcvBuffer=((uint8_t*)pcvBuffer)+1;
 1652              		.loc 1 49 13 view .LVU744
 1653 06d4 38E051E5 		ldrb	lr, [r1, #-56]	@ zero_extendqisi2
  49:/home/hkh/git/eapidk-code-r76-trunk/apps/EeePProg/linux/../BinFuncs.c ****     pcvBuffer=((uint8_t*)pcvBuffer)+1;
 1654              		.loc 1 49 11 view .LVU745
 1655 06d8 0E2082E0 		add	r2, r2, lr
  49:/home/hkh/git/eapidk-code-r76-trunk/apps/EeePProg/linux/../BinFuncs.c ****     pcvBuffer=((uint8_t*)pcvBuffer)+1;
 1656              		.loc 1 49 13 view .LVU746
 1657 06dc 37E051E5 		ldrb	lr, [r1, #-55]	@ zero_extendqisi2
  49:/home/hkh/git/eapidk-code-r76-trunk/apps/EeePProg/linux/../BinFuncs.c ****     pcvBuffer=((uint8_t*)pcvBuffer)+1;
 1658              		.loc 1 49 11 view .LVU747
 1659 06e0 0E2082E0 		add	r2, r2, lr
  49:/home/hkh/git/eapidk-code-r76-trunk/apps/EeePProg/linux/../BinFuncs.c ****     pcvBuffer=((uint8_t*)pcvBuffer)+1;
ARM GAS  /tmp/ccf3bFwG.s 			page 53


 1660              		.loc 1 49 13 view .LVU748
 1661 06e4 36E051E5 		ldrb	lr, [r1, #-54]	@ zero_extendqisi2
  49:/home/hkh/git/eapidk-code-r76-trunk/apps/EeePProg/linux/../BinFuncs.c ****     pcvBuffer=((uint8_t*)pcvBuffer)+1;
 1662              		.loc 1 49 11 view .LVU749
 1663 06e8 0E2082E0 		add	r2, r2, lr
  49:/home/hkh/git/eapidk-code-r76-trunk/apps/EeePProg/linux/../BinFuncs.c ****     pcvBuffer=((uint8_t*)pcvBuffer)+1;
 1664              		.loc 1 49 13 view .LVU750
 1665 06ec 35E051E5 		ldrb	lr, [r1, #-53]	@ zero_extendqisi2
  49:/home/hkh/git/eapidk-code-r76-trunk/apps/EeePProg/linux/../BinFuncs.c ****     pcvBuffer=((uint8_t*)pcvBuffer)+1;
 1666              		.loc 1 49 11 view .LVU751
 1667 06f0 0E2082E0 		add	r2, r2, lr
  49:/home/hkh/git/eapidk-code-r76-trunk/apps/EeePProg/linux/../BinFuncs.c ****     pcvBuffer=((uint8_t*)pcvBuffer)+1;
 1668              		.loc 1 49 13 view .LVU752
 1669 06f4 34E051E5 		ldrb	lr, [r1, #-52]	@ zero_extendqisi2
  49:/home/hkh/git/eapidk-code-r76-trunk/apps/EeePProg/linux/../BinFuncs.c ****     pcvBuffer=((uint8_t*)pcvBuffer)+1;
 1670              		.loc 1 49 11 view .LVU753
 1671 06f8 0E2082E0 		add	r2, r2, lr
  49:/home/hkh/git/eapidk-code-r76-trunk/apps/EeePProg/linux/../BinFuncs.c ****     pcvBuffer=((uint8_t*)pcvBuffer)+1;
 1672              		.loc 1 49 13 view .LVU754
 1673 06fc 33E051E5 		ldrb	lr, [r1, #-51]	@ zero_extendqisi2
  49:/home/hkh/git/eapidk-code-r76-trunk/apps/EeePProg/linux/../BinFuncs.c ****     pcvBuffer=((uint8_t*)pcvBuffer)+1;
 1674              		.loc 1 49 11 view .LVU755
 1675 0700 0E2082E0 		add	r2, r2, lr
  49:/home/hkh/git/eapidk-code-r76-trunk/apps/EeePProg/linux/../BinFuncs.c ****     pcvBuffer=((uint8_t*)pcvBuffer)+1;
 1676              		.loc 1 49 13 view .LVU756
 1677 0704 32E051E5 		ldrb	lr, [r1, #-50]	@ zero_extendqisi2
  49:/home/hkh/git/eapidk-code-r76-trunk/apps/EeePProg/linux/../BinFuncs.c ****     pcvBuffer=((uint8_t*)pcvBuffer)+1;
 1678              		.loc 1 49 11 view .LVU757
 1679 0708 0E2082E0 		add	r2, r2, lr
  49:/home/hkh/git/eapidk-code-r76-trunk/apps/EeePProg/linux/../BinFuncs.c ****     pcvBuffer=((uint8_t*)pcvBuffer)+1;
 1680              		.loc 1 49 13 view .LVU758
 1681 070c 31E051E5 		ldrb	lr, [r1, #-49]	@ zero_extendqisi2
  49:/home/hkh/git/eapidk-code-r76-trunk/apps/EeePProg/linux/../BinFuncs.c ****     pcvBuffer=((uint8_t*)pcvBuffer)+1;
 1682              		.loc 1 49 11 view .LVU759
 1683 0710 0E2082E0 		add	r2, r2, lr
  49:/home/hkh/git/eapidk-code-r76-trunk/apps/EeePProg/linux/../BinFuncs.c ****     pcvBuffer=((uint8_t*)pcvBuffer)+1;
 1684              		.loc 1 49 13 view .LVU760
 1685 0714 30E051E5 		ldrb	lr, [r1, #-48]	@ zero_extendqisi2
  49:/home/hkh/git/eapidk-code-r76-trunk/apps/EeePProg/linux/../BinFuncs.c ****     pcvBuffer=((uint8_t*)pcvBuffer)+1;
 1686              		.loc 1 49 11 view .LVU761
 1687 0718 0E2082E0 		add	r2, r2, lr
  49:/home/hkh/git/eapidk-code-r76-trunk/apps/EeePProg/linux/../BinFuncs.c ****     pcvBuffer=((uint8_t*)pcvBuffer)+1;
 1688              		.loc 1 49 13 view .LVU762
 1689 071c 2FE051E5 		ldrb	lr, [r1, #-47]	@ zero_extendqisi2
  49:/home/hkh/git/eapidk-code-r76-trunk/apps/EeePProg/linux/../BinFuncs.c ****     pcvBuffer=((uint8_t*)pcvBuffer)+1;
 1690              		.loc 1 49 11 view .LVU763
 1691 0720 0E2082E0 		add	r2, r2, lr
  49:/home/hkh/git/eapidk-code-r76-trunk/apps/EeePProg/linux/../BinFuncs.c ****     pcvBuffer=((uint8_t*)pcvBuffer)+1;
 1692              		.loc 1 49 13 view .LVU764
 1693 0724 2EE051E5 		ldrb	lr, [r1, #-46]	@ zero_extendqisi2
  49:/home/hkh/git/eapidk-code-r76-trunk/apps/EeePProg/linux/../BinFuncs.c ****     pcvBuffer=((uint8_t*)pcvBuffer)+1;
 1694              		.loc 1 49 11 view .LVU765
 1695 0728 0E2082E0 		add	r2, r2, lr
  49:/home/hkh/git/eapidk-code-r76-trunk/apps/EeePProg/linux/../BinFuncs.c ****     pcvBuffer=((uint8_t*)pcvBuffer)+1;
 1696              		.loc 1 49 13 view .LVU766
 1697 072c 2DE051E5 		ldrb	lr, [r1, #-45]	@ zero_extendqisi2
  49:/home/hkh/git/eapidk-code-r76-trunk/apps/EeePProg/linux/../BinFuncs.c ****     pcvBuffer=((uint8_t*)pcvBuffer)+1;
ARM GAS  /tmp/ccf3bFwG.s 			page 54


 1698              		.loc 1 49 11 view .LVU767
 1699 0730 0E2082E0 		add	r2, r2, lr
  49:/home/hkh/git/eapidk-code-r76-trunk/apps/EeePProg/linux/../BinFuncs.c ****     pcvBuffer=((uint8_t*)pcvBuffer)+1;
 1700              		.loc 1 49 13 view .LVU768
 1701 0734 2CE051E5 		ldrb	lr, [r1, #-44]	@ zero_extendqisi2
  49:/home/hkh/git/eapidk-code-r76-trunk/apps/EeePProg/linux/../BinFuncs.c ****     pcvBuffer=((uint8_t*)pcvBuffer)+1;
 1702              		.loc 1 49 11 view .LVU769
 1703 0738 0E2082E0 		add	r2, r2, lr
  49:/home/hkh/git/eapidk-code-r76-trunk/apps/EeePProg/linux/../BinFuncs.c ****     pcvBuffer=((uint8_t*)pcvBuffer)+1;
 1704              		.loc 1 49 13 view .LVU770
 1705 073c 2BE051E5 		ldrb	lr, [r1, #-43]	@ zero_extendqisi2
  49:/home/hkh/git/eapidk-code-r76-trunk/apps/EeePProg/linux/../BinFuncs.c ****     pcvBuffer=((uint8_t*)pcvBuffer)+1;
 1706              		.loc 1 49 11 view .LVU771
 1707 0740 0E2082E0 		add	r2, r2, lr
  49:/home/hkh/git/eapidk-code-r76-trunk/apps/EeePProg/linux/../BinFuncs.c ****     pcvBuffer=((uint8_t*)pcvBuffer)+1;
 1708              		.loc 1 49 13 view .LVU772
 1709 0744 2AE051E5 		ldrb	lr, [r1, #-42]	@ zero_extendqisi2
  49:/home/hkh/git/eapidk-code-r76-trunk/apps/EeePProg/linux/../BinFuncs.c ****     pcvBuffer=((uint8_t*)pcvBuffer)+1;
 1710              		.loc 1 49 11 view .LVU773
 1711 0748 0E2082E0 		add	r2, r2, lr
  49:/home/hkh/git/eapidk-code-r76-trunk/apps/EeePProg/linux/../BinFuncs.c ****     pcvBuffer=((uint8_t*)pcvBuffer)+1;
 1712              		.loc 1 49 13 view .LVU774
 1713 074c 29E051E5 		ldrb	lr, [r1, #-41]	@ zero_extendqisi2
  49:/home/hkh/git/eapidk-code-r76-trunk/apps/EeePProg/linux/../BinFuncs.c ****     pcvBuffer=((uint8_t*)pcvBuffer)+1;
 1714              		.loc 1 49 11 view .LVU775
 1715 0750 0E2082E0 		add	r2, r2, lr
  49:/home/hkh/git/eapidk-code-r76-trunk/apps/EeePProg/linux/../BinFuncs.c ****     pcvBuffer=((uint8_t*)pcvBuffer)+1;
 1716              		.loc 1 49 13 view .LVU776
 1717 0754 28E051E5 		ldrb	lr, [r1, #-40]	@ zero_extendqisi2
  49:/home/hkh/git/eapidk-code-r76-trunk/apps/EeePProg/linux/../BinFuncs.c ****     pcvBuffer=((uint8_t*)pcvBuffer)+1;
 1718              		.loc 1 49 11 view .LVU777
 1719 0758 0E2082E0 		add	r2, r2, lr
  49:/home/hkh/git/eapidk-code-r76-trunk/apps/EeePProg/linux/../BinFuncs.c ****     pcvBuffer=((uint8_t*)pcvBuffer)+1;
 1720              		.loc 1 49 13 view .LVU778
 1721 075c 27E051E5 		ldrb	lr, [r1, #-39]	@ zero_extendqisi2
  49:/home/hkh/git/eapidk-code-r76-trunk/apps/EeePProg/linux/../BinFuncs.c ****     pcvBuffer=((uint8_t*)pcvBuffer)+1;
 1722              		.loc 1 49 11 view .LVU779
 1723 0760 0E2082E0 		add	r2, r2, lr
  49:/home/hkh/git/eapidk-code-r76-trunk/apps/EeePProg/linux/../BinFuncs.c ****     pcvBuffer=((uint8_t*)pcvBuffer)+1;
 1724              		.loc 1 49 13 view .LVU780
 1725 0764 26E051E5 		ldrb	lr, [r1, #-38]	@ zero_extendqisi2
  49:/home/hkh/git/eapidk-code-r76-trunk/apps/EeePProg/linux/../BinFuncs.c ****     pcvBuffer=((uint8_t*)pcvBuffer)+1;
 1726              		.loc 1 49 11 view .LVU781
 1727 0768 0E2082E0 		add	r2, r2, lr
  49:/home/hkh/git/eapidk-code-r76-trunk/apps/EeePProg/linux/../BinFuncs.c ****     pcvBuffer=((uint8_t*)pcvBuffer)+1;
 1728              		.loc 1 49 13 view .LVU782
 1729 076c 25E051E5 		ldrb	lr, [r1, #-37]	@ zero_extendqisi2
  49:/home/hkh/git/eapidk-code-r76-trunk/apps/EeePProg/linux/../BinFuncs.c ****     pcvBuffer=((uint8_t*)pcvBuffer)+1;
 1730              		.loc 1 49 11 view .LVU783
 1731 0770 0E2082E0 		add	r2, r2, lr
  49:/home/hkh/git/eapidk-code-r76-trunk/apps/EeePProg/linux/../BinFuncs.c ****     pcvBuffer=((uint8_t*)pcvBuffer)+1;
 1732              		.loc 1 49 13 view .LVU784
 1733 0774 24E051E5 		ldrb	lr, [r1, #-36]	@ zero_extendqisi2
  49:/home/hkh/git/eapidk-code-r76-trunk/apps/EeePProg/linux/../BinFuncs.c ****     pcvBuffer=((uint8_t*)pcvBuffer)+1;
 1734              		.loc 1 49 11 view .LVU785
 1735 0778 0E2082E0 		add	r2, r2, lr
  49:/home/hkh/git/eapidk-code-r76-trunk/apps/EeePProg/linux/../BinFuncs.c ****     pcvBuffer=((uint8_t*)pcvBuffer)+1;
ARM GAS  /tmp/ccf3bFwG.s 			page 55


 1736              		.loc 1 49 13 view .LVU786
 1737 077c 23E051E5 		ldrb	lr, [r1, #-35]	@ zero_extendqisi2
  49:/home/hkh/git/eapidk-code-r76-trunk/apps/EeePProg/linux/../BinFuncs.c ****     pcvBuffer=((uint8_t*)pcvBuffer)+1;
 1738              		.loc 1 49 11 view .LVU787
 1739 0780 0E2082E0 		add	r2, r2, lr
  49:/home/hkh/git/eapidk-code-r76-trunk/apps/EeePProg/linux/../BinFuncs.c ****     pcvBuffer=((uint8_t*)pcvBuffer)+1;
 1740              		.loc 1 49 13 view .LVU788
 1741 0784 22E051E5 		ldrb	lr, [r1, #-34]	@ zero_extendqisi2
  49:/home/hkh/git/eapidk-code-r76-trunk/apps/EeePProg/linux/../BinFuncs.c ****     pcvBuffer=((uint8_t*)pcvBuffer)+1;
 1742              		.loc 1 49 11 view .LVU789
 1743 0788 0E2082E0 		add	r2, r2, lr
  49:/home/hkh/git/eapidk-code-r76-trunk/apps/EeePProg/linux/../BinFuncs.c ****     pcvBuffer=((uint8_t*)pcvBuffer)+1;
 1744              		.loc 1 49 13 view .LVU790
 1745 078c 21E051E5 		ldrb	lr, [r1, #-33]	@ zero_extendqisi2
  49:/home/hkh/git/eapidk-code-r76-trunk/apps/EeePProg/linux/../BinFuncs.c ****     pcvBuffer=((uint8_t*)pcvBuffer)+1;
 1746              		.loc 1 49 11 view .LVU791
 1747 0790 0E2082E0 		add	r2, r2, lr
 1748 0794 023083E0 		add	r3, r3, r2
 1749              	.LVL104:
  50:/home/hkh/git/eapidk-code-r76-trunk/apps/EeePProg/linux/../BinFuncs.c ****   }
 1750              		.loc 1 50 5 is_stmt 1 view .LVU792
  48:/home/hkh/git/eapidk-code-r76-trunk/apps/EeePProg/linux/../BinFuncs.c ****     ChkSum+=(uint32_t)(*((uint8_t*)pcvBuffer));
 1751              		.loc 1 48 9 view .LVU793
  48:/home/hkh/git/eapidk-code-r76-trunk/apps/EeePProg/linux/../BinFuncs.c ****     ChkSum+=(uint32_t)(*((uint8_t*)pcvBuffer));
 1752              		.loc 1 48 9 is_stmt 0 view .LVU794
 1753 0798 B9FFFF8A 		bhi	.L112
 1754 079c 01108CE2 		add	r1, ip, #1
 1755 07a0 011080E0 		add	r1, r0, r1
 1756              	.L113:
 1757              	.LVL105:
  49:/home/hkh/git/eapidk-code-r76-trunk/apps/EeePProg/linux/../BinFuncs.c ****     pcvBuffer=((uint8_t*)pcvBuffer)+1;
 1758              		.loc 1 49 5 is_stmt 1 view .LVU795
  49:/home/hkh/git/eapidk-code-r76-trunk/apps/EeePProg/linux/../BinFuncs.c ****     pcvBuffer=((uint8_t*)pcvBuffer)+1;
 1759              		.loc 1 49 13 is_stmt 0 view .LVU796
 1760 07a4 0120D0E4 		ldrb	r2, [r0], #1	@ zero_extendqisi2
 1761              	.LVL106:
  48:/home/hkh/git/eapidk-code-r76-trunk/apps/EeePProg/linux/../BinFuncs.c ****     ChkSum+=(uint32_t)(*((uint8_t*)pcvBuffer));
 1762              		.loc 1 48 9 view .LVU797
 1763 07a8 010050E1 		cmp	r0, r1
  49:/home/hkh/git/eapidk-code-r76-trunk/apps/EeePProg/linux/../BinFuncs.c ****     pcvBuffer=((uint8_t*)pcvBuffer)+1;
 1764              		.loc 1 49 11 view .LVU798
 1765 07ac 023083E0 		add	r3, r3, r2
 1766              	.LVL107:
  50:/home/hkh/git/eapidk-code-r76-trunk/apps/EeePProg/linux/../BinFuncs.c ****   }
 1767              		.loc 1 50 5 is_stmt 1 view .LVU799
  48:/home/hkh/git/eapidk-code-r76-trunk/apps/EeePProg/linux/../BinFuncs.c ****     ChkSum+=(uint32_t)(*((uint8_t*)pcvBuffer));
 1768              		.loc 1 48 9 view .LVU800
  48:/home/hkh/git/eapidk-code-r76-trunk/apps/EeePProg/linux/../BinFuncs.c ****     ChkSum+=(uint32_t)(*((uint8_t*)pcvBuffer));
 1769              		.loc 1 48 9 is_stmt 0 view .LVU801
 1770 07b0 FBFFFF1A 		bne	.L113
 1771              	.LBE82:
 1772              	.LBE86:
  68:/home/hkh/git/eapidk-code-r76-trunk/apps/EeePProg/linux/../BinFuncs.c **** }
 1773              		.loc 1 68 10 view .LVU802
 1774 07b4 7300EFE6 		uxtb	r0, r3
 1775              	.LVL108:
 1776              	.LBB87:
ARM GAS  /tmp/ccf3bFwG.s 			page 56


 1777              	.LBB83:
  52:/home/hkh/git/eapidk-code-r76-trunk/apps/EeePProg/linux/../BinFuncs.c **** }
 1778              		.loc 1 52 3 is_stmt 1 view .LVU803
  52:/home/hkh/git/eapidk-code-r76-trunk/apps/EeePProg/linux/../BinFuncs.c **** }
 1779              		.loc 1 52 3 is_stmt 0 view .LVU804
 1780              	.LBE83:
 1781              	.LBE87:
  69:/home/hkh/git/eapidk-code-r76-trunk/apps/EeePProg/linux/../BinFuncs.c **** 
 1782              		.loc 1 69 1 view .LVU805
 1783 07b8 04F09DE4 		ldr	pc, [sp], #4
 1784              	.LVL109:
 1785              	.L114:
 1786              		.cfi_def_cfa_offset 0
 1787              		.cfi_restore 14
 1788              	.LBB88:
 1789              	.LBB84:
  48:/home/hkh/git/eapidk-code-r76-trunk/apps/EeePProg/linux/../BinFuncs.c ****     ChkSum+=(uint32_t)(*((uint8_t*)pcvBuffer));
 1790              		.loc 1 48 9 view .LVU806
 1791 07bc 0100A0E1 		mov	r0, r1
 1792              	.LVL110:
  48:/home/hkh/git/eapidk-code-r76-trunk/apps/EeePProg/linux/../BinFuncs.c ****     ChkSum+=(uint32_t)(*((uint8_t*)pcvBuffer));
 1793              		.loc 1 48 9 view .LVU807
 1794 07c0 1EFF2FE1 		bx	lr
 1795              	.LVL111:
 1796              	.L115:
  48:/home/hkh/git/eapidk-code-r76-trunk/apps/EeePProg/linux/../BinFuncs.c ****     ChkSum+=(uint32_t)(*((uint8_t*)pcvBuffer));
 1797              		.loc 1 48 9 view .LVU808
 1798 07c4 01108CE2 		add	r1, ip, #1
 1799              	.LVL112:
  48:/home/hkh/git/eapidk-code-r76-trunk/apps/EeePProg/linux/../BinFuncs.c ****     ChkSum+=(uint32_t)(*((uint8_t*)pcvBuffer));
 1800              		.loc 1 48 9 view .LVU809
 1801 07c8 0030A0E3 		mov	r3, #0
 1802 07cc 011080E0 		add	r1, r0, r1
 1803              	.LVL113:
 1804              	.L120:
  49:/home/hkh/git/eapidk-code-r76-trunk/apps/EeePProg/linux/../BinFuncs.c ****     pcvBuffer=((uint8_t*)pcvBuffer)+1;
 1805              		.loc 1 49 5 is_stmt 1 view .LVU810
  49:/home/hkh/git/eapidk-code-r76-trunk/apps/EeePProg/linux/../BinFuncs.c ****     pcvBuffer=((uint8_t*)pcvBuffer)+1;
 1806              		.loc 1 49 13 is_stmt 0 view .LVU811
 1807 07d0 0120D0E4 		ldrb	r2, [r0], #1	@ zero_extendqisi2
 1808              	.LVL114:
  48:/home/hkh/git/eapidk-code-r76-trunk/apps/EeePProg/linux/../BinFuncs.c ****     ChkSum+=(uint32_t)(*((uint8_t*)pcvBuffer));
 1809              		.loc 1 48 9 view .LVU812
 1810 07d4 010050E1 		cmp	r0, r1
  49:/home/hkh/git/eapidk-code-r76-trunk/apps/EeePProg/linux/../BinFuncs.c ****     pcvBuffer=((uint8_t*)pcvBuffer)+1;
 1811              		.loc 1 49 11 view .LVU813
 1812 07d8 023083E0 		add	r3, r3, r2
 1813              	.LVL115:
  50:/home/hkh/git/eapidk-code-r76-trunk/apps/EeePProg/linux/../BinFuncs.c ****   }
 1814              		.loc 1 50 5 is_stmt 1 view .LVU814
  48:/home/hkh/git/eapidk-code-r76-trunk/apps/EeePProg/linux/../BinFuncs.c ****     ChkSum+=(uint32_t)(*((uint8_t*)pcvBuffer));
 1815              		.loc 1 48 9 view .LVU815
  48:/home/hkh/git/eapidk-code-r76-trunk/apps/EeePProg/linux/../BinFuncs.c ****     ChkSum+=(uint32_t)(*((uint8_t*)pcvBuffer));
 1816              		.loc 1 48 9 is_stmt 0 view .LVU816
 1817 07dc FBFFFF1A 		bne	.L120
 1818              	.LBE84:
 1819              	.LBE88:
ARM GAS  /tmp/ccf3bFwG.s 			page 57


  68:/home/hkh/git/eapidk-code-r76-trunk/apps/EeePProg/linux/../BinFuncs.c **** }
 1820              		.loc 1 68 10 view .LVU817
 1821 07e0 7300EFE6 		uxtb	r0, r3
 1822              	.LVL116:
 1823              	.LBB89:
 1824              	.LBB85:
  52:/home/hkh/git/eapidk-code-r76-trunk/apps/EeePProg/linux/../BinFuncs.c **** }
 1825              		.loc 1 52 3 is_stmt 1 view .LVU818
  52:/home/hkh/git/eapidk-code-r76-trunk/apps/EeePProg/linux/../BinFuncs.c **** }
 1826              		.loc 1 52 3 is_stmt 0 view .LVU819
 1827              	.LBE85:
 1828              	.LBE89:
  69:/home/hkh/git/eapidk-code-r76-trunk/apps/EeePProg/linux/../BinFuncs.c **** 
 1829              		.loc 1 69 1 view .LVU820
 1830 07e4 1EFF2FE1 		bx	lr
 1831              		.cfi_endproc
 1832              	.LFE3:
 1834              		.section	.rodata.str1.4
 1835 00fa 0000     		.align	2
 1836              	.LC11:
 1837 00fc 54422000 		.ascii	"TB \000"
 1838              		.align	2
 1839              	.LC12:
 1840 0100 75313643 		.ascii	"u16CRC_CCITT_init(&pContext)\000"
 1840      52435F43 
 1840      43495454 
 1840      5F696E69 
 1840      74282670 
 1841 011d 000000   		.align	2
 1842              	.LC13:
 1843 0120 75313643 		.ascii	"u16CRC_CCITT_bytes(pContext, pcvBuffer, stCount)\000"
 1843      52435F43 
 1843      43495454 
 1843      5F627974 
 1843      65732870 
 1844 0151 000000   		.align	2
 1845              	.LC14:
 1846 0154 75313643 		.ascii	"u16CRC_CCITT_fini(&pContext, pvDigest)\000"
 1846      52435F43 
 1846      43495454 
 1846      5F66696E 
 1846      69282670 
 1847              		.text
 1848              		.align	2
 1849              		.global	u16CRC_CCITT
 1850              		.syntax unified
 1851              		.arm
 1852              		.fpu vfpv3
 1854              	u16CRC_CCITT:
 1855              	.LVL117:
 1856              	.LFB8:
 198:/home/hkh/git/eapidk-code-r76-trunk/apps/EeePProg/linux/../BinFuncs.c ****   EApiStatus_t StatusCode=EAPI_STATUS_SUCCESS;
 1857              		.loc 1 198 1 is_stmt 1 view -0
 1858              		.cfi_startproc
 1859              		@ args = 0, pretend = 0, frame = 0
 1860              		@ frame_needed = 0, uses_anonymous_args = 0
 198:/home/hkh/git/eapidk-code-r76-trunk/apps/EeePProg/linux/../BinFuncs.c ****   EApiStatus_t StatusCode=EAPI_STATUS_SUCCESS;
ARM GAS  /tmp/ccf3bFwG.s 			page 58


 1861              		.loc 1 198 1 is_stmt 0 view .LVU822
 1862 07e8 70402DE9 		push	{r4, r5, r6, lr}
 1863              		.cfi_def_cfa_offset 16
 1864              		.cfi_offset 4, -16
 1865              		.cfi_offset 5, -12
 1866              		.cfi_offset 6, -8
 1867              		.cfi_offset 14, -4
 1868 07ec 0050A0E1 		mov	r5, r0
 1869 07f0 10D04DE2 		sub	sp, sp, #16
 1870              		.cfi_def_cfa_offset 32
 1871              	.LBB106:
 1872              	.LBB107:
  88:/home/hkh/git/eapidk-code-r76-trunk/apps/EeePProg/linux/../BinFuncs.c ****   EAPI_APP_ASSERT_PARAMATER_NULL(
 1873              		.loc 1 88 18 view .LVU823
 1874 07f4 0800A0E3 		mov	r0, #8
 1875              	.LVL118:
  88:/home/hkh/git/eapidk-code-r76-trunk/apps/EeePProg/linux/../BinFuncs.c ****   EAPI_APP_ASSERT_PARAMATER_NULL(
 1876              		.loc 1 88 18 view .LVU824
 1877              	.LBE107:
 1878              	.LBE106:
 199:/home/hkh/git/eapidk-code-r76-trunk/apps/EeePProg/linux/../BinFuncs.c ****   void * pContext;
 1879              		.loc 1 199 3 is_stmt 1 view .LVU825
 200:/home/hkh/git/eapidk-code-r76-trunk/apps/EeePProg/linux/../BinFuncs.c ****   DO(u16CRC_CCITT_init(&pContext));
 1880              		.loc 1 200 3 view .LVU826
 201:/home/hkh/git/eapidk-code-r76-trunk/apps/EeePProg/linux/../BinFuncs.c ****   DO(u16CRC_CCITT_bytes(pContext, pcvBuffer, stCount));
 1881              		.loc 1 201 3 view .LVU827
 201:/home/hkh/git/eapidk-code-r76-trunk/apps/EeePProg/linux/../BinFuncs.c ****   DO(u16CRC_CCITT_bytes(pContext, pcvBuffer, stCount));
 1882              		.loc 1 201 3 view .LVU828
 1883              	.LBB114:
 1884              	.LBI106:
  77:/home/hkh/git/eapidk-code-r76-trunk/apps/EeePProg/linux/../BinFuncs.c ****     void**pContext
 1885              		.loc 1 77 1 view .LVU829
 1886              	.LBB110:
  81:/home/hkh/git/eapidk-code-r76-trunk/apps/EeePProg/linux/../BinFuncs.c ****   CRC_State_t * pCRC;
 1887              		.loc 1 81 3 view .LVU830
  82:/home/hkh/git/eapidk-code-r76-trunk/apps/EeePProg/linux/../BinFuncs.c ****   EAPI_APP_ASSERT_PARAMATER_NULL(
 1888              		.loc 1 82 3 view .LVU831
  83:/home/hkh/git/eapidk-code-r76-trunk/apps/EeePProg/linux/../BinFuncs.c ****       u16CRC_CCITT_init,
 1889              		.loc 1 83 3 view .LVU832
  83:/home/hkh/git/eapidk-code-r76-trunk/apps/EeePProg/linux/../BinFuncs.c ****       u16CRC_CCITT_init,
 1890              		.loc 1 83 3 view .LVU833
  87:/home/hkh/git/eapidk-code-r76-trunk/apps/EeePProg/linux/../BinFuncs.c ****   *pContext=pCRC=malloc(sizeof(CRC_State_t));
 1891              		.loc 1 87 8 view .LVU834
  88:/home/hkh/git/eapidk-code-r76-trunk/apps/EeePProg/linux/../BinFuncs.c ****   EAPI_APP_ASSERT_PARAMATER_NULL(
 1892              		.loc 1 88 3 view .LVU835
 1893              	.LBE110:
 1894              	.LBE114:
 198:/home/hkh/git/eapidk-code-r76-trunk/apps/EeePProg/linux/../BinFuncs.c ****   EApiStatus_t StatusCode=EAPI_STATUS_SUCCESS;
 1895              		.loc 1 198 1 is_stmt 0 view .LVU836
 1896 07f8 0160A0E1 		mov	r6, r1
 1897 07fc 0240A0E1 		mov	r4, r2
 1898              	.LBB115:
 1899              	.LBB111:
  88:/home/hkh/git/eapidk-code-r76-trunk/apps/EeePProg/linux/../BinFuncs.c ****   EAPI_APP_ASSERT_PARAMATER_NULL(
 1900              		.loc 1 88 18 view .LVU837
 1901 0800 FEFFFFEB 		bl	malloc(PLT)
 1902              	.LVL119:
ARM GAS  /tmp/ccf3bFwG.s 			page 59


  89:/home/hkh/git/eapidk-code-r76-trunk/apps/EeePProg/linux/../BinFuncs.c ****       u16CRC_CCITT_init,
 1903              		.loc 1 89 3 is_stmt 1 view .LVU838
 1904 0804 000050E3 		cmp	r0, #0
  89:/home/hkh/git/eapidk-code-r76-trunk/apps/EeePProg/linux/../BinFuncs.c ****       u16CRC_CCITT_init,
 1905              		.loc 1 89 3 is_stmt 0 view .LVU839
 1906 0808 2D00000A 		beq	.L170
  89:/home/hkh/git/eapidk-code-r76-trunk/apps/EeePProg/linux/../BinFuncs.c ****       u16CRC_CCITT_init,
 1907              		.loc 1 89 3 is_stmt 1 view .LVU840
  93:/home/hkh/git/eapidk-code-r76-trunk/apps/EeePProg/linux/../BinFuncs.c ****   pCRC->CRC=0;
 1908              		.loc 1 93 8 view .LVU841
  94:/home/hkh/git/eapidk-code-r76-trunk/apps/EeePProg/linux/../BinFuncs.c ****   pCRC->Cnt=0;
 1909              		.loc 1 94 3 view .LVU842
 1910              	.LBE111:
 1911              	.LBE115:
 1912              	.LBB116:
 1913              	.LBB117:
 122:/home/hkh/git/eapidk-code-r76-trunk/apps/EeePProg/linux/../BinFuncs.c ****       u16CRC_CCITT_bytes,
 1914              		.loc 1 122 3 is_stmt 0 view .LVU843
 1915 080c 000055E3 		cmp	r5, #0
 1916              	.LBE117:
 1917              	.LBE116:
 1918              	.LBB122:
 1919              	.LBB112:
  94:/home/hkh/git/eapidk-code-r76-trunk/apps/EeePProg/linux/../BinFuncs.c ****   pCRC->Cnt=0;
 1920              		.loc 1 94 12 view .LVU844
 1921 0810 0030A0E3 		mov	r3, #0
 1922 0814 003080E5 		str	r3, [r0]
  95:/home/hkh/git/eapidk-code-r76-trunk/apps/EeePProg/linux/../BinFuncs.c **** 
 1923              		.loc 1 95 3 is_stmt 1 view .LVU845
  98:/home/hkh/git/eapidk-code-r76-trunk/apps/EeePProg/linux/../BinFuncs.c **** }
 1924              		.loc 1 98 3 view .LVU846
 1925              	.LVL120:
  98:/home/hkh/git/eapidk-code-r76-trunk/apps/EeePProg/linux/../BinFuncs.c **** }
 1926              		.loc 1 98 3 is_stmt 0 view .LVU847
 1927              	.LBE112:
 1928              	.LBE122:
 201:/home/hkh/git/eapidk-code-r76-trunk/apps/EeePProg/linux/../BinFuncs.c ****   DO(u16CRC_CCITT_bytes(pContext, pcvBuffer, stCount));
 1929              		.loc 1 201 3 is_stmt 1 view .LVU848
 201:/home/hkh/git/eapidk-code-r76-trunk/apps/EeePProg/linux/../BinFuncs.c ****   DO(u16CRC_CCITT_bytes(pContext, pcvBuffer, stCount));
 1930              		.loc 1 201 3 view .LVU849
 202:/home/hkh/git/eapidk-code-r76-trunk/apps/EeePProg/linux/../BinFuncs.c ****   DO(u16CRC_CCITT_fini(&pContext, pvDigest));
 1931              		.loc 1 202 3 view .LVU850
 202:/home/hkh/git/eapidk-code-r76-trunk/apps/EeePProg/linux/../BinFuncs.c ****   DO(u16CRC_CCITT_fini(&pContext, pvDigest));
 1932              		.loc 1 202 3 view .LVU851
 1933              	.LBB123:
 1934              	.LBI116:
 111:/home/hkh/git/eapidk-code-r76-trunk/apps/EeePProg/linux/../BinFuncs.c ****     __IN       void *pContext , /* CRC Context       */
 1935              		.loc 1 111 1 view .LVU852
 1936              	.LBB120:
 117:/home/hkh/git/eapidk-code-r76-trunk/apps/EeePProg/linux/../BinFuncs.c ****   const uint8_t *pcu8Buffer     =pcvBuffer; 
 1937              		.loc 1 117 3 view .LVU853
 118:/home/hkh/git/eapidk-code-r76-trunk/apps/EeePProg/linux/../BinFuncs.c ****   CRC_State_t   *pCRC           =pContext ;
 1938              		.loc 1 118 3 view .LVU854
 119:/home/hkh/git/eapidk-code-r76-trunk/apps/EeePProg/linux/../BinFuncs.c ****   unsigned       CRC            =pCRC->CRC;
 1939              		.loc 1 119 3 view .LVU855
 120:/home/hkh/git/eapidk-code-r76-trunk/apps/EeePProg/linux/../BinFuncs.c ****   unsigned       i; 
 1940              		.loc 1 120 3 view .LVU856
ARM GAS  /tmp/ccf3bFwG.s 			page 60


 121:/home/hkh/git/eapidk-code-r76-trunk/apps/EeePProg/linux/../BinFuncs.c ****   EAPI_APP_ASSERT_PARAMATER_NULL(
 1941              		.loc 1 121 3 view .LVU857
 122:/home/hkh/git/eapidk-code-r76-trunk/apps/EeePProg/linux/../BinFuncs.c ****       u16CRC_CCITT_bytes,
 1942              		.loc 1 122 3 view .LVU858
 1943 0818 4600000A 		beq	.L171
 122:/home/hkh/git/eapidk-code-r76-trunk/apps/EeePProg/linux/../BinFuncs.c ****       u16CRC_CCITT_bytes,
 1944              		.loc 1 122 3 view .LVU859
 126:/home/hkh/git/eapidk-code-r76-trunk/apps/EeePProg/linux/../BinFuncs.c **** 
 1945              		.loc 1 126 8 view .LVU860
 131:/home/hkh/git/eapidk-code-r76-trunk/apps/EeePProg/linux/../BinFuncs.c ****   while (stCount --) { 
 1946              		.loc 1 131 3 view .LVU861
 132:/home/hkh/git/eapidk-code-r76-trunk/apps/EeePProg/linux/../BinFuncs.c ****     CRC^= *pcu8Buffer++ << 8; 
 1947              		.loc 1 132 3 view .LVU862
 132:/home/hkh/git/eapidk-code-r76-trunk/apps/EeePProg/linux/../BinFuncs.c ****     CRC^= *pcu8Buffer++ << 8; 
 1948              		.loc 1 132 10 view .LVU863
 1949              	.LVL121:
 132:/home/hkh/git/eapidk-code-r76-trunk/apps/EeePProg/linux/../BinFuncs.c ****     CRC^= *pcu8Buffer++ << 8; 
 1950              		.loc 1 132 10 is_stmt 0 view .LVU864
 1951 081c 000056E3 		cmp	r6, #0
 1952 0820 1E00000A 		beq	.L129
 1953 0824 062085E0 		add	r2, r5, r6
 1954              	.LVL122:
 120:/home/hkh/git/eapidk-code-r76-trunk/apps/EeePProg/linux/../BinFuncs.c ****   unsigned       i; 
 1955              		.loc 1 120 18 view .LVU865
 1956 0828 0360A0E1 		mov	r6, r3
 1957              	.LVL123:
 137:/home/hkh/git/eapidk-code-r76-trunk/apps/EeePProg/linux/../BinFuncs.c ****       }else{ 
 1958              		.loc 1 137 12 view .LVU866
 1959 082c 213001E3 		movw	r3, #4129
 1960              	.LVL124:
 1961              	.L138:
 133:/home/hkh/git/eapidk-code-r76-trunk/apps/EeePProg/linux/../BinFuncs.c ****     for (i = 8; i ; i --){ 
 1962              		.loc 1 133 5 is_stmt 1 view .LVU867
 133:/home/hkh/git/eapidk-code-r76-trunk/apps/EeePProg/linux/../BinFuncs.c ****     for (i = 8; i ; i --){ 
 1963              		.loc 1 133 11 is_stmt 0 view .LVU868
 1964 0830 0110D5E4 		ldrb	r1, [r5], #1	@ zero_extendqisi2
 1965              	.LVL125:
 133:/home/hkh/git/eapidk-code-r76-trunk/apps/EeePProg/linux/../BinFuncs.c ****     for (i = 8; i ; i --){ 
 1966              		.loc 1 133 8 view .LVU869
 1967 0834 011426E0 		eor	r1, r6, r1, lsl #8
 1968              	.LVL126:
 134:/home/hkh/git/eapidk-code-r76-trunk/apps/EeePProg/linux/../BinFuncs.c ****       if (CRC & 0x8000){ 
 1969              		.loc 1 134 5 is_stmt 1 view .LVU870
 134:/home/hkh/git/eapidk-code-r76-trunk/apps/EeePProg/linux/../BinFuncs.c ****       if (CRC & 0x8000){ 
 1970              		.loc 1 134 17 view .LVU871
 135:/home/hkh/git/eapidk-code-r76-trunk/apps/EeePProg/linux/../BinFuncs.c ****         CRC+=CRC; 
 1971              		.loc 1 135 7 view .LVU872
 135:/home/hkh/git/eapidk-code-r76-trunk/apps/EeePProg/linux/../BinFuncs.c ****         CRC+=CRC; 
 1972              		.loc 1 135 10 is_stmt 0 view .LVU873
 1973 0838 020911E3 		tst	r1, #32768
 139:/home/hkh/git/eapidk-code-r76-trunk/apps/EeePProg/linux/../BinFuncs.c ****       }
 1974              		.loc 1 139 12 view .LVU874
 1975 083c 8110A0E1 		lsl	r1, r1, #1
 1976              	.LVL127:
 136:/home/hkh/git/eapidk-code-r76-trunk/apps/EeePProg/linux/../BinFuncs.c ****         CRC^=0x1021; 
 1977              		.loc 1 136 9 is_stmt 1 view .LVU875
 137:/home/hkh/git/eapidk-code-r76-trunk/apps/EeePProg/linux/../BinFuncs.c ****       }else{ 
ARM GAS  /tmp/ccf3bFwG.s 			page 61


 1978              		.loc 1 137 9 view .LVU876
 137:/home/hkh/git/eapidk-code-r76-trunk/apps/EeePProg/linux/../BinFuncs.c ****       }else{ 
 1979              		.loc 1 137 12 is_stmt 0 view .LVU877
 1980 0840 03102110 		eorne	r1, r1, r3
 1981              	.LVL128:
 134:/home/hkh/git/eapidk-code-r76-trunk/apps/EeePProg/linux/../BinFuncs.c ****       if (CRC & 0x8000){ 
 1982              		.loc 1 134 23 is_stmt 1 view .LVU878
 134:/home/hkh/git/eapidk-code-r76-trunk/apps/EeePProg/linux/../BinFuncs.c ****       if (CRC & 0x8000){ 
 1983              		.loc 1 134 17 view .LVU879
 135:/home/hkh/git/eapidk-code-r76-trunk/apps/EeePProg/linux/../BinFuncs.c ****         CRC+=CRC; 
 1984              		.loc 1 135 7 view .LVU880
 135:/home/hkh/git/eapidk-code-r76-trunk/apps/EeePProg/linux/../BinFuncs.c ****         CRC+=CRC; 
 1985              		.loc 1 135 10 is_stmt 0 view .LVU881
 1986 0844 020911E3 		tst	r1, #32768
 139:/home/hkh/git/eapidk-code-r76-trunk/apps/EeePProg/linux/../BinFuncs.c ****       }
 1987              		.loc 1 139 12 view .LVU882
 1988 0848 8110A0E1 		lsl	r1, r1, #1
 136:/home/hkh/git/eapidk-code-r76-trunk/apps/EeePProg/linux/../BinFuncs.c ****         CRC^=0x1021; 
 1989              		.loc 1 136 9 is_stmt 1 view .LVU883
 1990              	.LVL129:
 137:/home/hkh/git/eapidk-code-r76-trunk/apps/EeePProg/linux/../BinFuncs.c ****       }else{ 
 1991              		.loc 1 137 9 view .LVU884
 137:/home/hkh/git/eapidk-code-r76-trunk/apps/EeePProg/linux/../BinFuncs.c ****       }else{ 
 1992              		.loc 1 137 12 is_stmt 0 view .LVU885
 1993 084c 03102110 		eorne	r1, r1, r3
 1994              	.LVL130:
 134:/home/hkh/git/eapidk-code-r76-trunk/apps/EeePProg/linux/../BinFuncs.c ****       if (CRC & 0x8000){ 
 1995              		.loc 1 134 23 is_stmt 1 view .LVU886
 134:/home/hkh/git/eapidk-code-r76-trunk/apps/EeePProg/linux/../BinFuncs.c ****       if (CRC & 0x8000){ 
 1996              		.loc 1 134 17 view .LVU887
 135:/home/hkh/git/eapidk-code-r76-trunk/apps/EeePProg/linux/../BinFuncs.c ****         CRC+=CRC; 
 1997              		.loc 1 135 7 view .LVU888
 135:/home/hkh/git/eapidk-code-r76-trunk/apps/EeePProg/linux/../BinFuncs.c ****         CRC+=CRC; 
 1998              		.loc 1 135 10 is_stmt 0 view .LVU889
 1999 0850 020911E3 		tst	r1, #32768
 139:/home/hkh/git/eapidk-code-r76-trunk/apps/EeePProg/linux/../BinFuncs.c ****       }
 2000              		.loc 1 139 12 view .LVU890
 2001 0854 8110A0E1 		lsl	r1, r1, #1
 136:/home/hkh/git/eapidk-code-r76-trunk/apps/EeePProg/linux/../BinFuncs.c ****         CRC^=0x1021; 
 2002              		.loc 1 136 9 is_stmt 1 view .LVU891
 2003              	.LVL131:
 137:/home/hkh/git/eapidk-code-r76-trunk/apps/EeePProg/linux/../BinFuncs.c ****       }else{ 
 2004              		.loc 1 137 9 view .LVU892
 137:/home/hkh/git/eapidk-code-r76-trunk/apps/EeePProg/linux/../BinFuncs.c ****       }else{ 
 2005              		.loc 1 137 12 is_stmt 0 view .LVU893
 2006 0858 03102110 		eorne	r1, r1, r3
 2007              	.LVL132:
 134:/home/hkh/git/eapidk-code-r76-trunk/apps/EeePProg/linux/../BinFuncs.c ****       if (CRC & 0x8000){ 
 2008              		.loc 1 134 23 is_stmt 1 view .LVU894
 134:/home/hkh/git/eapidk-code-r76-trunk/apps/EeePProg/linux/../BinFuncs.c ****       if (CRC & 0x8000){ 
 2009              		.loc 1 134 17 view .LVU895
 135:/home/hkh/git/eapidk-code-r76-trunk/apps/EeePProg/linux/../BinFuncs.c ****         CRC+=CRC; 
 2010              		.loc 1 135 7 view .LVU896
 135:/home/hkh/git/eapidk-code-r76-trunk/apps/EeePProg/linux/../BinFuncs.c ****         CRC+=CRC; 
 2011              		.loc 1 135 10 is_stmt 0 view .LVU897
 2012 085c 020911E3 		tst	r1, #32768
 139:/home/hkh/git/eapidk-code-r76-trunk/apps/EeePProg/linux/../BinFuncs.c ****       }
ARM GAS  /tmp/ccf3bFwG.s 			page 62


 2013              		.loc 1 139 12 view .LVU898
 2014 0860 8110A0E1 		lsl	r1, r1, #1
 136:/home/hkh/git/eapidk-code-r76-trunk/apps/EeePProg/linux/../BinFuncs.c ****         CRC^=0x1021; 
 2015              		.loc 1 136 9 is_stmt 1 view .LVU899
 2016              	.LVL133:
 137:/home/hkh/git/eapidk-code-r76-trunk/apps/EeePProg/linux/../BinFuncs.c ****       }else{ 
 2017              		.loc 1 137 9 view .LVU900
 137:/home/hkh/git/eapidk-code-r76-trunk/apps/EeePProg/linux/../BinFuncs.c ****       }else{ 
 2018              		.loc 1 137 12 is_stmt 0 view .LVU901
 2019 0864 03102110 		eorne	r1, r1, r3
 2020              	.LVL134:
 134:/home/hkh/git/eapidk-code-r76-trunk/apps/EeePProg/linux/../BinFuncs.c ****       if (CRC & 0x8000){ 
 2021              		.loc 1 134 23 is_stmt 1 view .LVU902
 134:/home/hkh/git/eapidk-code-r76-trunk/apps/EeePProg/linux/../BinFuncs.c ****       if (CRC & 0x8000){ 
 2022              		.loc 1 134 17 view .LVU903
 135:/home/hkh/git/eapidk-code-r76-trunk/apps/EeePProg/linux/../BinFuncs.c ****         CRC+=CRC; 
 2023              		.loc 1 135 7 view .LVU904
 135:/home/hkh/git/eapidk-code-r76-trunk/apps/EeePProg/linux/../BinFuncs.c ****         CRC+=CRC; 
 2024              		.loc 1 135 10 is_stmt 0 view .LVU905
 2025 0868 020911E3 		tst	r1, #32768
 139:/home/hkh/git/eapidk-code-r76-trunk/apps/EeePProg/linux/../BinFuncs.c ****       }
 2026              		.loc 1 139 12 view .LVU906
 2027 086c 8110A0E1 		lsl	r1, r1, #1
 136:/home/hkh/git/eapidk-code-r76-trunk/apps/EeePProg/linux/../BinFuncs.c ****         CRC^=0x1021; 
 2028              		.loc 1 136 9 is_stmt 1 view .LVU907
 2029              	.LVL135:
 137:/home/hkh/git/eapidk-code-r76-trunk/apps/EeePProg/linux/../BinFuncs.c ****       }else{ 
 2030              		.loc 1 137 9 view .LVU908
 137:/home/hkh/git/eapidk-code-r76-trunk/apps/EeePProg/linux/../BinFuncs.c ****       }else{ 
 2031              		.loc 1 137 12 is_stmt 0 view .LVU909
 2032 0870 03102110 		eorne	r1, r1, r3
 2033              	.LVL136:
 134:/home/hkh/git/eapidk-code-r76-trunk/apps/EeePProg/linux/../BinFuncs.c ****       if (CRC & 0x8000){ 
 2034              		.loc 1 134 23 is_stmt 1 view .LVU910
 134:/home/hkh/git/eapidk-code-r76-trunk/apps/EeePProg/linux/../BinFuncs.c ****       if (CRC & 0x8000){ 
 2035              		.loc 1 134 17 view .LVU911
 135:/home/hkh/git/eapidk-code-r76-trunk/apps/EeePProg/linux/../BinFuncs.c ****         CRC+=CRC; 
 2036              		.loc 1 135 7 view .LVU912
 135:/home/hkh/git/eapidk-code-r76-trunk/apps/EeePProg/linux/../BinFuncs.c ****         CRC+=CRC; 
 2037              		.loc 1 135 10 is_stmt 0 view .LVU913
 2038 0874 020911E3 		tst	r1, #32768
 139:/home/hkh/git/eapidk-code-r76-trunk/apps/EeePProg/linux/../BinFuncs.c ****       }
 2039              		.loc 1 139 12 view .LVU914
 2040 0878 8110A0E1 		lsl	r1, r1, #1
 136:/home/hkh/git/eapidk-code-r76-trunk/apps/EeePProg/linux/../BinFuncs.c ****         CRC^=0x1021; 
 2041              		.loc 1 136 9 is_stmt 1 view .LVU915
 2042              	.LVL137:
 137:/home/hkh/git/eapidk-code-r76-trunk/apps/EeePProg/linux/../BinFuncs.c ****       }else{ 
 2043              		.loc 1 137 9 view .LVU916
 137:/home/hkh/git/eapidk-code-r76-trunk/apps/EeePProg/linux/../BinFuncs.c ****       }else{ 
 2044              		.loc 1 137 12 is_stmt 0 view .LVU917
 2045 087c 03102110 		eorne	r1, r1, r3
 2046              	.LVL138:
 134:/home/hkh/git/eapidk-code-r76-trunk/apps/EeePProg/linux/../BinFuncs.c ****       if (CRC & 0x8000){ 
 2047              		.loc 1 134 23 is_stmt 1 view .LVU918
 134:/home/hkh/git/eapidk-code-r76-trunk/apps/EeePProg/linux/../BinFuncs.c ****       if (CRC & 0x8000){ 
 2048              		.loc 1 134 17 view .LVU919
ARM GAS  /tmp/ccf3bFwG.s 			page 63


 135:/home/hkh/git/eapidk-code-r76-trunk/apps/EeePProg/linux/../BinFuncs.c ****         CRC+=CRC; 
 2049              		.loc 1 135 7 view .LVU920
 135:/home/hkh/git/eapidk-code-r76-trunk/apps/EeePProg/linux/../BinFuncs.c ****         CRC+=CRC; 
 2050              		.loc 1 135 10 is_stmt 0 view .LVU921
 2051 0880 020911E3 		tst	r1, #32768
 139:/home/hkh/git/eapidk-code-r76-trunk/apps/EeePProg/linux/../BinFuncs.c ****       }
 2052              		.loc 1 139 12 view .LVU922
 2053 0884 8110A0E1 		lsl	r1, r1, #1
 136:/home/hkh/git/eapidk-code-r76-trunk/apps/EeePProg/linux/../BinFuncs.c ****         CRC^=0x1021; 
 2054              		.loc 1 136 9 is_stmt 1 view .LVU923
 2055              	.LVL139:
 137:/home/hkh/git/eapidk-code-r76-trunk/apps/EeePProg/linux/../BinFuncs.c ****       }else{ 
 2056              		.loc 1 137 9 view .LVU924
 137:/home/hkh/git/eapidk-code-r76-trunk/apps/EeePProg/linux/../BinFuncs.c ****       }else{ 
 2057              		.loc 1 137 12 is_stmt 0 view .LVU925
 2058 0888 03102110 		eorne	r1, r1, r3
 2059              	.LVL140:
 134:/home/hkh/git/eapidk-code-r76-trunk/apps/EeePProg/linux/../BinFuncs.c ****       if (CRC & 0x8000){ 
 2060              		.loc 1 134 23 is_stmt 1 view .LVU926
 134:/home/hkh/git/eapidk-code-r76-trunk/apps/EeePProg/linux/../BinFuncs.c ****       if (CRC & 0x8000){ 
 2061              		.loc 1 134 17 view .LVU927
 135:/home/hkh/git/eapidk-code-r76-trunk/apps/EeePProg/linux/../BinFuncs.c ****         CRC+=CRC; 
 2062              		.loc 1 135 7 view .LVU928
 139:/home/hkh/git/eapidk-code-r76-trunk/apps/EeePProg/linux/../BinFuncs.c ****       }
 2063              		.loc 1 139 12 is_stmt 0 view .LVU929
 2064 088c 8160A0E1 		lsl	r6, r1, #1
 2065              	.LVL141:
 136:/home/hkh/git/eapidk-code-r76-trunk/apps/EeePProg/linux/../BinFuncs.c ****         CRC^=0x1021; 
 2066              		.loc 1 136 9 is_stmt 1 view .LVU930
 137:/home/hkh/git/eapidk-code-r76-trunk/apps/EeePProg/linux/../BinFuncs.c ****       }else{ 
 2067              		.loc 1 137 9 view .LVU931
 135:/home/hkh/git/eapidk-code-r76-trunk/apps/EeePProg/linux/../BinFuncs.c ****         CRC+=CRC; 
 2068              		.loc 1 135 10 is_stmt 0 view .LVU932
 2069 0890 020911E3 		tst	r1, #32768
 137:/home/hkh/git/eapidk-code-r76-trunk/apps/EeePProg/linux/../BinFuncs.c ****       }else{ 
 2070              		.loc 1 137 12 view .LVU933
 2071 0894 03602610 		eorne	r6, r6, r3
 2072              	.LVL142:
 132:/home/hkh/git/eapidk-code-r76-trunk/apps/EeePProg/linux/../BinFuncs.c ****     CRC^= *pcu8Buffer++ << 8; 
 2073              		.loc 1 132 10 is_stmt 1 view .LVU934
 132:/home/hkh/git/eapidk-code-r76-trunk/apps/EeePProg/linux/../BinFuncs.c ****     CRC^= *pcu8Buffer++ << 8; 
 2074              		.loc 1 132 10 is_stmt 0 view .LVU935
 2075 0898 020055E1 		cmp	r5, r2
 2076 089c E3FFFF1A 		bne	.L138
 2077              	.LVL143:
 2078              	.L129:
 143:/home/hkh/git/eapidk-code-r76-trunk/apps/EeePProg/linux/../BinFuncs.c **** 
 2079              		.loc 1 143 3 is_stmt 1 view .LVU936
 146:/home/hkh/git/eapidk-code-r76-trunk/apps/EeePProg/linux/../BinFuncs.c **** }
 2080              		.loc 1 146 3 view .LVU937
 146:/home/hkh/git/eapidk-code-r76-trunk/apps/EeePProg/linux/../BinFuncs.c **** }
 2081              		.loc 1 146 3 is_stmt 0 view .LVU938
 2082              	.LBE120:
 2083              	.LBE123:
 202:/home/hkh/git/eapidk-code-r76-trunk/apps/EeePProg/linux/../BinFuncs.c ****   DO(u16CRC_CCITT_fini(&pContext, pvDigest));
 2084              		.loc 1 202 3 is_stmt 1 view .LVU939
 202:/home/hkh/git/eapidk-code-r76-trunk/apps/EeePProg/linux/../BinFuncs.c ****   DO(u16CRC_CCITT_fini(&pContext, pvDigest));
ARM GAS  /tmp/ccf3bFwG.s 			page 64


 2085              		.loc 1 202 3 view .LVU940
 203:/home/hkh/git/eapidk-code-r76-trunk/apps/EeePProg/linux/../BinFuncs.c **** EAPI_APP_ASSERT_EXIT
 2086              		.loc 1 203 3 view .LVU941
 203:/home/hkh/git/eapidk-code-r76-trunk/apps/EeePProg/linux/../BinFuncs.c **** EAPI_APP_ASSERT_EXIT
 2087              		.loc 1 203 3 view .LVU942
 2088              	.LBB124:
 2089              	.LBI124:
 149:/home/hkh/git/eapidk-code-r76-trunk/apps/EeePProg/linux/../BinFuncs.c ****     __IN      void **pContext,  /* CRC Context       */
 2090              		.loc 1 149 1 view .LVU943
 2091              	.LBB125:
 154:/home/hkh/git/eapidk-code-r76-trunk/apps/EeePProg/linux/../BinFuncs.c ****   CRC_State_t * pCRC=*pContext;
 2092              		.loc 1 154 3 view .LVU944
 155:/home/hkh/git/eapidk-code-r76-trunk/apps/EeePProg/linux/../BinFuncs.c ****   unsigned      CRC=pCRC->CRC;
 2093              		.loc 1 155 3 view .LVU945
 156:/home/hkh/git/eapidk-code-r76-trunk/apps/EeePProg/linux/../BinFuncs.c ****   EAPI_APP_ASSERT_PARAMATER_NULL(
 2094              		.loc 1 156 3 view .LVU946
 157:/home/hkh/git/eapidk-code-r76-trunk/apps/EeePProg/linux/../BinFuncs.c ****       u16CRC_CCITT_fini,
 2095              		.loc 1 157 3 view .LVU947
 2096 08a0 000054E3 		cmp	r4, #0
 2097 08a4 3800000A 		beq	.L172
 2098              	.L127:
 157:/home/hkh/git/eapidk-code-r76-trunk/apps/EeePProg/linux/../BinFuncs.c ****       u16CRC_CCITT_fini,
 2099              		.loc 1 157 3 view .LVU948
 161:/home/hkh/git/eapidk-code-r76-trunk/apps/EeePProg/linux/../BinFuncs.c **** /*   printf("L%04i 0x%04X 0x%04lX\n", __LINE__, pCRC->CRC&0xFFFF, (unsigned long)pCRC->Cnt); */
 2100              		.loc 1 161 8 view .LVU949
 163:/home/hkh/git/eapidk-code-r76-trunk/apps/EeePProg/linux/../BinFuncs.c ****   *pContext=NULL;
 2101              		.loc 1 163 3 view .LVU950
 2102 08a8 FEFFFFEB 		bl	free(PLT)
 2103              	.LVL144:
 164:/home/hkh/git/eapidk-code-r76-trunk/apps/EeePProg/linux/../BinFuncs.c **** 
 2104              		.loc 1 164 3 view .LVU951
 166:/home/hkh/git/eapidk-code-r76-trunk/apps/EeePProg/linux/../BinFuncs.c **** EAPI_APP_ASSERT_EXIT
 2105              		.loc 1 166 3 view .LVU952
 2106              	.LBB126:
 2107              	.LBI126:
 567:/home/hkh/git/eapidk-code-r76-trunk/apps/EeePProg/linux/../BinFuncs.c ****     uint8_t *pBuffer,
 2108              		.loc 1 567 1 view .LVU953
 2109              	.LBB127:
 572:/home/hkh/git/eapidk-code-r76-trunk/apps/EeePProg/linux/../BinFuncs.c ****   pBuffer[0]=EEEP_LO_UINT8(Value>>(8*1));
 2110              		.loc 1 572 3 view .LVU954
 2111              		.loc 1 573 14 is_stmt 0 view .LVU955
 2112 08ac 5634E7E7 		ubfx	r3, r6, #8, #8
 2113              	.LBE127:
 2114              	.LBE126:
 2115              	.LBE125:
 2116              	.LBE124:
 203:/home/hkh/git/eapidk-code-r76-trunk/apps/EeePProg/linux/../BinFuncs.c **** EAPI_APP_ASSERT_EXIT
 2117              		.loc 1 203 3 view .LVU956
 2118 08b0 0000A0E3 		mov	r0, #0
 2119              	.LBB134:
 2120              	.LBB132:
 2121              	.LBB129:
 2122              	.LBB128:
 572:/home/hkh/git/eapidk-code-r76-trunk/apps/EeePProg/linux/../BinFuncs.c ****   pBuffer[0]=EEEP_LO_UINT8(Value>>(8*1));
 2123              		.loc 1 572 14 view .LVU957
 2124 08b4 0160C4E5 		strb	r6, [r4, #1]
 2125              		.loc 1 573 3 is_stmt 1 view .LVU958
ARM GAS  /tmp/ccf3bFwG.s 			page 65


 2126              		.loc 1 573 14 is_stmt 0 view .LVU959
 2127 08b8 0030C4E5 		strb	r3, [r4]
 2128              	.LVL145:
 2129              		.loc 1 573 14 view .LVU960
 2130              	.LBE128:
 2131              	.LBE129:
 168:/home/hkh/git/eapidk-code-r76-trunk/apps/EeePProg/linux/../BinFuncs.c **** }
 2132              		.loc 1 168 3 is_stmt 1 view .LVU961
 168:/home/hkh/git/eapidk-code-r76-trunk/apps/EeePProg/linux/../BinFuncs.c **** }
 2133              		.loc 1 168 3 is_stmt 0 view .LVU962
 2134              	.LBE132:
 2135              	.LBE134:
 203:/home/hkh/git/eapidk-code-r76-trunk/apps/EeePProg/linux/../BinFuncs.c **** EAPI_APP_ASSERT_EXIT
 2136              		.loc 1 203 3 is_stmt 1 view .LVU963
 203:/home/hkh/git/eapidk-code-r76-trunk/apps/EeePProg/linux/../BinFuncs.c **** EAPI_APP_ASSERT_EXIT
 2137              		.loc 1 203 3 view .LVU964
 205:/home/hkh/git/eapidk-code-r76-trunk/apps/EeePProg/linux/../BinFuncs.c **** }
 2138              		.loc 1 205 3 view .LVU965
 206:/home/hkh/git/eapidk-code-r76-trunk/apps/EeePProg/linux/../BinFuncs.c **** HashFunc_t CRC_CCITT={
 2139              		.loc 1 206 1 is_stmt 0 view .LVU966
 2140 08bc 10D08DE2 		add	sp, sp, #16
 2141              		.cfi_remember_state
 2142              		.cfi_def_cfa_offset 16
 2143              		@ sp needed
 2144 08c0 7080BDE8 		pop	{r4, r5, r6, pc}
 2145              	.LVL146:
 2146              	.L170:
 2147              		.cfi_restore_state
 2148              	.LBB135:
 2149              	.LBB113:
 2150              	.LBB108:
 2151              	.LBI108:
  77:/home/hkh/git/eapidk-code-r76-trunk/apps/EeePProg/linux/../BinFuncs.c ****     void**pContext
 2152              		.loc 1 77 1 is_stmt 1 view .LVU967
 2153              	.LBB109:
  89:/home/hkh/git/eapidk-code-r76-trunk/apps/EeePProg/linux/../BinFuncs.c ****       u16CRC_CCITT_init,
 2154              		.loc 1 89 3 view .LVU968
  89:/home/hkh/git/eapidk-code-r76-trunk/apps/EeePProg/linux/../BinFuncs.c ****       u16CRC_CCITT_init,
 2155              		.loc 1 89 3 view .LVU969
 2156 08c4 14219FE5 		ldr	r2, .L173
 2157 08c8 0240E0E3 		mvn	r4, #2
 2158              	.LVL147:
  89:/home/hkh/git/eapidk-code-r76-trunk/apps/EeePProg/linux/../BinFuncs.c ****       u16CRC_CCITT_init,
 2159              		.loc 1 89 3 is_stmt 0 view .LVU970
 2160 08cc 10619FE5 		ldr	r6, .L173+4
 2161              	.LVL148:
  89:/home/hkh/git/eapidk-code-r76-trunk/apps/EeePProg/linux/../BinFuncs.c ****       u16CRC_CCITT_init,
 2162              		.loc 1 89 3 view .LVU971
 2163 08d0 5930A0E3 		mov	r3, #89
 2164 08d4 0C519FE5 		ldr	r5, .L173+8
 2165              	.LVL149:
  89:/home/hkh/git/eapidk-code-r76-trunk/apps/EeePProg/linux/../BinFuncs.c ****       u16CRC_CCITT_init,
 2166              		.loc 1 89 3 view .LVU972
 2167 08d8 4500A0E3 		mov	r0, #69
 2168              	.LVL150:
  89:/home/hkh/git/eapidk-code-r76-trunk/apps/EeePProg/linux/../BinFuncs.c ****       u16CRC_CCITT_init,
 2169              		.loc 1 89 3 view .LVU973
ARM GAS  /tmp/ccf3bFwG.s 			page 66


 2170              	.LPIC24:
 2171 08dc 02208FE0 		add	r2, pc, r2
 2172 08e0 08208DE5 		str	r2, [sp, #8]
 2173              	.LPIC23:
 2174 08e4 06608FE0 		add	r6, pc, r6
 2175 08e8 FC209FE5 		ldr	r2, .L173+12
 2176              	.LPIC25:
 2177 08ec 05508FE0 		add	r5, pc, r5
 2178 08f0 0610A0E1 		mov	r1, r6
 2179 08f4 F040CDE1 		strd	r4, [sp]
 2180              	.LPIC22:
 2181 08f8 02208FE0 		add	r2, pc, r2
 2182 08fc FEFFFFEB 		bl	siFormattedMessage_SC(PLT)
 2183              	.LVL151:
  89:/home/hkh/git/eapidk-code-r76-trunk/apps/EeePProg/linux/../BinFuncs.c ****       u16CRC_CCITT_init,
 2184              		.loc 1 89 3 is_stmt 1 view .LVU974
  89:/home/hkh/git/eapidk-code-r76-trunk/apps/EeePProg/linux/../BinFuncs.c ****       u16CRC_CCITT_init,
 2185              		.loc 1 89 3 view .LVU975
  89:/home/hkh/git/eapidk-code-r76-trunk/apps/EeePProg/linux/../BinFuncs.c ****       u16CRC_CCITT_init,
 2186              		.loc 1 89 3 view .LVU976
 2187              	.LDL6:
  98:/home/hkh/git/eapidk-code-r76-trunk/apps/EeePProg/linux/../BinFuncs.c **** }
 2188              		.loc 1 98 3 view .LVU977
  98:/home/hkh/git/eapidk-code-r76-trunk/apps/EeePProg/linux/../BinFuncs.c **** }
 2189              		.loc 1 98 3 is_stmt 0 view .LVU978
 2190              	.LBE109:
 2191              	.LBE108:
  98:/home/hkh/git/eapidk-code-r76-trunk/apps/EeePProg/linux/../BinFuncs.c **** }
 2192              		.loc 1 98 3 is_stmt 1 view .LVU979
  98:/home/hkh/git/eapidk-code-r76-trunk/apps/EeePProg/linux/../BinFuncs.c **** }
 2193              		.loc 1 98 3 is_stmt 0 view .LVU980
 2194              	.LBE113:
 2195              	.LBE135:
 201:/home/hkh/git/eapidk-code-r76-trunk/apps/EeePProg/linux/../BinFuncs.c ****   DO(u16CRC_CCITT_bytes(pContext, pcvBuffer, stCount));
 2196              		.loc 1 201 3 is_stmt 1 view .LVU981
 201:/home/hkh/git/eapidk-code-r76-trunk/apps/EeePProg/linux/../BinFuncs.c ****   DO(u16CRC_CCITT_bytes(pContext, pcvBuffer, stCount));
 2197              		.loc 1 201 3 view .LVU982
 2198 0900 E8009FE5 		ldr	r0, .L173+16
 2199 0904 C930A0E3 		mov	r3, #201
 2200 0908 E4209FE5 		ldr	r2, .L173+20
 2201              	.LPIC28:
 2202 090c 00008FE0 		add	r0, pc, r0
 2203              	.LPIC26:
 2204 0910 02208FE0 		add	r2, pc, r2
 2205              	.LVL152:
 2206              	.L169:
 203:/home/hkh/git/eapidk-code-r76-trunk/apps/EeePProg/linux/../BinFuncs.c **** EAPI_APP_ASSERT_EXIT
 2207              		.loc 1 203 3 is_stmt 0 view .LVU983
 2208 0914 08008DE5 		str	r0, [sp, #8]
 2209 0918 0610A0E1 		mov	r1, r6
 2210 091c 04508DE5 		str	r5, [sp, #4]
 2211 0920 4500A0E3 		mov	r0, #69
 2212 0924 00408DE5 		str	r4, [sp]
 2213 0928 FEFFFFEB 		bl	siFormattedMessage_SC(PLT)
 2214              	.LVL153:
 203:/home/hkh/git/eapidk-code-r76-trunk/apps/EeePProg/linux/../BinFuncs.c **** EAPI_APP_ASSERT_EXIT
 2215              		.loc 1 203 3 is_stmt 1 view .LVU984
ARM GAS  /tmp/ccf3bFwG.s 			page 67


 2216 092c 0400A0E1 		mov	r0, r4
 206:/home/hkh/git/eapidk-code-r76-trunk/apps/EeePProg/linux/../BinFuncs.c **** HashFunc_t CRC_CCITT={
 2217              		.loc 1 206 1 is_stmt 0 view .LVU985
 2218 0930 10D08DE2 		add	sp, sp, #16
 2219              		.cfi_remember_state
 2220              		.cfi_def_cfa_offset 16
 2221              		@ sp needed
 2222 0934 7080BDE8 		pop	{r4, r5, r6, pc}
 2223              	.LVL154:
 2224              	.L171:
 2225              		.cfi_restore_state
 2226              	.LBB136:
 2227              	.LBB121:
 2228              	.LBB118:
 2229              	.LBI118:
 111:/home/hkh/git/eapidk-code-r76-trunk/apps/EeePProg/linux/../BinFuncs.c ****     __IN       void *pContext , /* CRC Context       */
 2230              		.loc 1 111 1 is_stmt 1 view .LVU986
 2231              	.LBB119:
 122:/home/hkh/git/eapidk-code-r76-trunk/apps/EeePProg/linux/../BinFuncs.c ****       u16CRC_CCITT_bytes,
 2232              		.loc 1 122 3 view .LVU987
 122:/home/hkh/git/eapidk-code-r76-trunk/apps/EeePProg/linux/../BinFuncs.c ****       u16CRC_CCITT_bytes,
 2233              		.loc 1 122 3 view .LVU988
 2234 0938 B8209FE5 		ldr	r2, .L173+24
 2235 093c 014CE0E3 		mvn	r4, #256
 2236              	.LVL155:
 122:/home/hkh/git/eapidk-code-r76-trunk/apps/EeePProg/linux/../BinFuncs.c ****       u16CRC_CCITT_bytes,
 2237              		.loc 1 122 3 is_stmt 0 view .LVU989
 2238 0940 B4609FE5 		ldr	r6, .L173+28
 2239              	.LVL156:
 122:/home/hkh/git/eapidk-code-r76-trunk/apps/EeePProg/linux/../BinFuncs.c ****       u16CRC_CCITT_bytes,
 2240              		.loc 1 122 3 view .LVU990
 2241 0944 7A30A0E3 		mov	r3, #122
 2242 0948 B0509FE5 		ldr	r5, .L173+32
 2243              	.LVL157:
 122:/home/hkh/git/eapidk-code-r76-trunk/apps/EeePProg/linux/../BinFuncs.c ****       u16CRC_CCITT_bytes,
 2244              		.loc 1 122 3 view .LVU991
 2245 094c 4500A0E3 		mov	r0, #69
 2246              	.LVL158:
 122:/home/hkh/git/eapidk-code-r76-trunk/apps/EeePProg/linux/../BinFuncs.c ****       u16CRC_CCITT_bytes,
 2247              		.loc 1 122 3 view .LVU992
 2248              	.LPIC32:
 2249 0950 02208FE0 		add	r2, pc, r2
 2250 0954 08208DE5 		str	r2, [sp, #8]
 2251              	.LPIC31:
 2252 0958 06608FE0 		add	r6, pc, r6
 2253 095c A0209FE5 		ldr	r2, .L173+36
 2254              	.LPIC33:
 2255 0960 05508FE0 		add	r5, pc, r5
 2256 0964 0610A0E1 		mov	r1, r6
 2257 0968 F040CDE1 		strd	r4, [sp]
 2258              	.LPIC30:
 2259 096c 02208FE0 		add	r2, pc, r2
 2260 0970 FEFFFFEB 		bl	siFormattedMessage_SC(PLT)
 2261              	.LVL159:
 122:/home/hkh/git/eapidk-code-r76-trunk/apps/EeePProg/linux/../BinFuncs.c ****       u16CRC_CCITT_bytes,
 2262              		.loc 1 122 3 is_stmt 1 view .LVU993
 122:/home/hkh/git/eapidk-code-r76-trunk/apps/EeePProg/linux/../BinFuncs.c ****       u16CRC_CCITT_bytes,
ARM GAS  /tmp/ccf3bFwG.s 			page 68


 2263              		.loc 1 122 3 view .LVU994
 122:/home/hkh/git/eapidk-code-r76-trunk/apps/EeePProg/linux/../BinFuncs.c ****       u16CRC_CCITT_bytes,
 2264              		.loc 1 122 3 view .LVU995
 2265              	.LDL7:
 146:/home/hkh/git/eapidk-code-r76-trunk/apps/EeePProg/linux/../BinFuncs.c **** }
 2266              		.loc 1 146 3 view .LVU996
 146:/home/hkh/git/eapidk-code-r76-trunk/apps/EeePProg/linux/../BinFuncs.c **** }
 2267              		.loc 1 146 3 is_stmt 0 view .LVU997
 2268              	.LBE119:
 2269              	.LBE118:
 146:/home/hkh/git/eapidk-code-r76-trunk/apps/EeePProg/linux/../BinFuncs.c **** }
 2270              		.loc 1 146 3 is_stmt 1 view .LVU998
 146:/home/hkh/git/eapidk-code-r76-trunk/apps/EeePProg/linux/../BinFuncs.c **** }
 2271              		.loc 1 146 3 is_stmt 0 view .LVU999
 2272              	.LBE121:
 2273              	.LBE136:
 202:/home/hkh/git/eapidk-code-r76-trunk/apps/EeePProg/linux/../BinFuncs.c ****   DO(u16CRC_CCITT_fini(&pContext, pvDigest));
 2274              		.loc 1 202 3 is_stmt 1 view .LVU1000
 202:/home/hkh/git/eapidk-code-r76-trunk/apps/EeePProg/linux/../BinFuncs.c ****   DO(u16CRC_CCITT_fini(&pContext, pvDigest));
 2275              		.loc 1 202 3 view .LVU1001
 2276 0974 8C009FE5 		ldr	r0, .L173+40
 2277 0978 CA30A0E3 		mov	r3, #202
 2278 097c 88209FE5 		ldr	r2, .L173+44
 2279              	.LPIC36:
 2280 0980 00008FE0 		add	r0, pc, r0
 2281              	.LPIC34:
 2282 0984 02208FE0 		add	r2, pc, r2
 2283 0988 E1FFFFEA 		b	.L169
 2284              	.LVL160:
 2285              	.L172:
 2286              	.LBB137:
 2287              	.LBB133:
 2288              	.LBB130:
 2289              	.LBI130:
 149:/home/hkh/git/eapidk-code-r76-trunk/apps/EeePProg/linux/../BinFuncs.c ****     __IN      void **pContext,  /* CRC Context       */
 2290              		.loc 1 149 1 view .LVU1002
 2291              	.LBB131:
 157:/home/hkh/git/eapidk-code-r76-trunk/apps/EeePProg/linux/../BinFuncs.c ****       u16CRC_CCITT_fini,
 2292              		.loc 1 157 3 view .LVU1003
 157:/home/hkh/git/eapidk-code-r76-trunk/apps/EeePProg/linux/../BinFuncs.c ****       u16CRC_CCITT_fini,
 2293              		.loc 1 157 3 view .LVU1004
 2294 098c 7C209FE5 		ldr	r2, .L173+48
 2295 0990 014CE0E3 		mvn	r4, #256
 2296              	.LVL161:
 157:/home/hkh/git/eapidk-code-r76-trunk/apps/EeePProg/linux/../BinFuncs.c ****       u16CRC_CCITT_fini,
 2297              		.loc 1 157 3 is_stmt 0 view .LVU1005
 2298 0994 78609FE5 		ldr	r6, .L173+52
 2299 0998 9D30A0E3 		mov	r3, #157
 2300 099c 74509FE5 		ldr	r5, .L173+56
 2301 09a0 4500A0E3 		mov	r0, #69
 2302              	.LVL162:
 157:/home/hkh/git/eapidk-code-r76-trunk/apps/EeePProg/linux/../BinFuncs.c ****       u16CRC_CCITT_fini,
 2303              		.loc 1 157 3 view .LVU1006
 2304              	.LPIC40:
 2305 09a4 02208FE0 		add	r2, pc, r2
 2306 09a8 08208DE5 		str	r2, [sp, #8]
 2307              	.LPIC39:
ARM GAS  /tmp/ccf3bFwG.s 			page 69


 2308 09ac 06608FE0 		add	r6, pc, r6
 2309 09b0 64209FE5 		ldr	r2, .L173+60
 2310              	.LPIC41:
 2311 09b4 05508FE0 		add	r5, pc, r5
 2312 09b8 0610A0E1 		mov	r1, r6
 2313 09bc F040CDE1 		strd	r4, [sp]
 2314              	.LPIC38:
 2315 09c0 02208FE0 		add	r2, pc, r2
 2316 09c4 FEFFFFEB 		bl	siFormattedMessage_SC(PLT)
 2317              	.LVL163:
 157:/home/hkh/git/eapidk-code-r76-trunk/apps/EeePProg/linux/../BinFuncs.c ****       u16CRC_CCITT_fini,
 2318              		.loc 1 157 3 is_stmt 1 view .LVU1007
 157:/home/hkh/git/eapidk-code-r76-trunk/apps/EeePProg/linux/../BinFuncs.c ****       u16CRC_CCITT_fini,
 2319              		.loc 1 157 3 view .LVU1008
 157:/home/hkh/git/eapidk-code-r76-trunk/apps/EeePProg/linux/../BinFuncs.c ****       u16CRC_CCITT_fini,
 2320              		.loc 1 157 3 view .LVU1009
 2321              	.LDL8:
 168:/home/hkh/git/eapidk-code-r76-trunk/apps/EeePProg/linux/../BinFuncs.c **** }
 2322              		.loc 1 168 3 view .LVU1010
 168:/home/hkh/git/eapidk-code-r76-trunk/apps/EeePProg/linux/../BinFuncs.c **** }
 2323              		.loc 1 168 3 is_stmt 0 view .LVU1011
 2324              	.LBE131:
 2325              	.LBE130:
 168:/home/hkh/git/eapidk-code-r76-trunk/apps/EeePProg/linux/../BinFuncs.c **** }
 2326              		.loc 1 168 3 is_stmt 1 view .LVU1012
 168:/home/hkh/git/eapidk-code-r76-trunk/apps/EeePProg/linux/../BinFuncs.c **** }
 2327              		.loc 1 168 3 is_stmt 0 view .LVU1013
 2328              	.LBE133:
 2329              	.LBE137:
 203:/home/hkh/git/eapidk-code-r76-trunk/apps/EeePProg/linux/../BinFuncs.c **** EAPI_APP_ASSERT_EXIT
 2330              		.loc 1 203 3 is_stmt 1 view .LVU1014
 203:/home/hkh/git/eapidk-code-r76-trunk/apps/EeePProg/linux/../BinFuncs.c **** EAPI_APP_ASSERT_EXIT
 2331              		.loc 1 203 3 view .LVU1015
 2332 09c8 50009FE5 		ldr	r0, .L173+64
 2333 09cc CB30A0E3 		mov	r3, #203
 2334 09d0 4C209FE5 		ldr	r2, .L173+68
 2335              	.LPIC44:
 2336 09d4 00008FE0 		add	r0, pc, r0
 2337              	.LPIC42:
 2338 09d8 02208FE0 		add	r2, pc, r2
 2339 09dc CCFFFFEA 		b	.L169
 2340              	.L174:
 2341              		.align	2
 2342              	.L173:
 2343 09e0 FC000000 		.word	.LC6-(.LPIC24+8)
 2344 09e4 F8000000 		.word	.LC1-(.LPIC23+8)
 2345 09e8 F4000000 		.word	.LC3-(.LPIC25+8)
 2346 09ec EC000000 		.word	.LC4-(.LPIC22+8)
 2347 09f0 DC000000 		.word	.LC12-(.LPIC28+8)
 2348 09f4 DC000000 		.word	.LC11-(.LPIC26+8)
 2349 09f8 A0000000 		.word	.LC2-(.LPIC32+8)
 2350 09fc 9C000000 		.word	.LC1-(.LPIC31+8)
 2351 0a00 98000000 		.word	.LC3-(.LPIC33+8)
 2352 0a04 90000000 		.word	.LC0-(.LPIC30+8)
 2353 0a08 80000000 		.word	.LC13-(.LPIC36+8)
 2354 0a0c 80000000 		.word	.LC11-(.LPIC34+8)
 2355 0a10 64000000 		.word	.LC8-(.LPIC40+8)
ARM GAS  /tmp/ccf3bFwG.s 			page 70


 2356 0a14 60000000 		.word	.LC1-(.LPIC39+8)
 2357 0a18 5C000000 		.word	.LC3-(.LPIC41+8)
 2358 0a1c 54000000 		.word	.LC7-(.LPIC38+8)
 2359 0a20 44000000 		.word	.LC14-(.LPIC44+8)
 2360 0a24 44000000 		.word	.LC11-(.LPIC42+8)
 2361              		.cfi_endproc
 2362              	.LFE8:
 2364              		.align	2
 2365              		.global	cBin2Ascii
 2366              		.syntax unified
 2367              		.arm
 2368              		.fpu vfpv3
 2370              	cBin2Ascii:
 2371              	.LVL164:
 2372              	.LFB9:
 228:/home/hkh/git/eapidk-code-r76-trunk/apps/EeePProg/linux/../BinFuncs.c ****   if(uiValue>=0x20&&uiValue<=0x7F){
 2373              		.loc 1 228 1 view -0
 2374              		.cfi_startproc
 2375              		@ args = 0, pretend = 0, frame = 0
 2376              		@ frame_needed = 0, uses_anonymous_args = 0
 2377              		@ link register save eliminated.
 229:/home/hkh/git/eapidk-code-r76-trunk/apps/EeePProg/linux/../BinFuncs.c ****     return (char)(uiValue);
 2378              		.loc 1 229 3 view .LVU1017
 229:/home/hkh/git/eapidk-code-r76-trunk/apps/EeePProg/linux/../BinFuncs.c ****     return (char)(uiValue);
 2379              		.loc 1 229 19 is_stmt 0 view .LVU1018
 2380 0a28 203040E2 		sub	r3, r0, #32
 229:/home/hkh/git/eapidk-code-r76-trunk/apps/EeePProg/linux/../BinFuncs.c ****     return (char)(uiValue);
 2381              		.loc 1 229 5 view .LVU1019
 2382 0a2c 600053E3 		cmp	r3, #96
 2383 0a30 2E00A023 		movcs	r0, #46
 2384              	.LVL165:
 234:/home/hkh/git/eapidk-code-r76-trunk/apps/EeePProg/linux/../BinFuncs.c **** signed int
 2385              		.loc 1 234 1 view .LVU1020
 2386 0a34 7000EFE6 		uxtb	r0, r0
 2387 0a38 1EFF2FE1 		bx	lr
 2388              		.cfi_endproc
 2389              	.LFE9:
 2391              		.section	.rodata.str1.4
 2392 017b 00       		.align	2
 2393              	.LC15:
 2394 017c 25303258 		.ascii	"%02X\000"
 2394      00
 2395              		.text
 2396              		.align	2
 2397              		.global	siBin2Ascii
 2398              		.syntax unified
 2399              		.arm
 2400              		.fpu vfpv3
 2402              	siBin2Ascii:
 2403              	.LVL166:
 2404              	.LFB10:
 243:/home/hkh/git/eapidk-code-r76-trunk/apps/EeePProg/linux/../BinFuncs.c ****     signed int StringPos=0;
 2405              		.loc 1 243 1 is_stmt 1 view -0
 2406              		.cfi_startproc
 2407              		@ args = 4, pretend = 0, frame = 0
 2408              		@ frame_needed = 0, uses_anonymous_args = 0
 243:/home/hkh/git/eapidk-code-r76-trunk/apps/EeePProg/linux/../BinFuncs.c ****     signed int StringPos=0;
ARM GAS  /tmp/ccf3bFwG.s 			page 71


 2409              		.loc 1 243 1 is_stmt 0 view .LVU1022
 2410 0a3c F0472DE9 		push	{r4, r5, r6, r7, r8, r9, r10, lr}
 2411              		.cfi_def_cfa_offset 32
 2412              		.cfi_offset 4, -32
 2413              		.cfi_offset 5, -28
 2414              		.cfi_offset 6, -24
 2415              		.cfi_offset 7, -20
 2416              		.cfi_offset 8, -16
 2417              		.cfi_offset 9, -12
 2418              		.cfi_offset 10, -8
 2419              		.cfi_offset 14, -4
 246:/home/hkh/git/eapidk-code-r76-trunk/apps/EeePProg/linux/../BinFuncs.c ****       if(cFlags&HEXTBL_BIG_ENDIAN){
 2420              		.loc 1 246 24 view .LVU1023
 2421 0a40 005053E2 		subs	r5, r3, #0
 244:/home/hkh/git/eapidk-code-r76-trunk/apps/EeePProg/linux/../BinFuncs.c ****     size_t Bufpos;
 2422              		.loc 1 244 5 is_stmt 1 view .LVU1024
 2423              	.LVL167:
 245:/home/hkh/git/eapidk-code-r76-trunk/apps/EeePProg/linux/../BinFuncs.c ****     for(Bufpos=0;Bufpos<VarSize;Bufpos++){
 2424              		.loc 1 245 5 view .LVU1025
 246:/home/hkh/git/eapidk-code-r76-trunk/apps/EeePProg/linux/../BinFuncs.c ****       if(cFlags&HEXTBL_BIG_ENDIAN){
 2425              		.loc 1 246 5 view .LVU1026
 246:/home/hkh/git/eapidk-code-r76-trunk/apps/EeePProg/linux/../BinFuncs.c ****       if(cFlags&HEXTBL_BIG_ENDIAN){
 2426              		.loc 1 246 24 view .LVU1027
 2427 0a44 2100000A 		beq	.L183
 2428 0a48 20309DE5 		ldr	r3, [sp, #32]
 2429              	.LVL168:
 246:/home/hkh/git/eapidk-code-r76-trunk/apps/EeePProg/linux/../BinFuncs.c ****       if(cFlags&HEXTBL_BIG_ENDIAN){
 2430              		.loc 1 246 24 is_stmt 0 view .LVU1028
 2431 0a4c 0070A0E1 		mov	r7, r0
 2432 0a50 0180A0E1 		mov	r8, r1
 2433 0a54 0260A0E1 		mov	r6, r2
 2434 0a58 014C13E2 		ands	r4, r3, #256
 2435 0a5c 0D00001A 		bne	.L179
 255:/home/hkh/git/eapidk-code-r76-trunk/apps/EeePProg/linux/../BinFuncs.c ****             pszString+StringPos   , 
 2436              		.loc 1 255 20 view .LVU1029
 2437 0a60 74909FE5 		ldr	r9, .L187
 2438 0a64 016042E2 		sub	r6, r2, #1
 2439 0a68 055086E0 		add	r5, r6, r5
 2440              	.LVL169:
 255:/home/hkh/git/eapidk-code-r76-trunk/apps/EeePProg/linux/../BinFuncs.c ****             pszString+StringPos   , 
 2441              		.loc 1 255 20 view .LVU1030
 2442              	.LPIC46:
 2443 0a6c 09908FE0 		add	r9, pc, r9
 2444              	.LVL170:
 2445              	.L180:
 247:/home/hkh/git/eapidk-code-r76-trunk/apps/EeePProg/linux/../BinFuncs.c ****         StringPos+=EApiSprintf(
 2446              		.loc 1 247 7 is_stmt 1 view .LVU1031
 255:/home/hkh/git/eapidk-code-r76-trunk/apps/EeePProg/linux/../BinFuncs.c ****             pszString+StringPos   , 
 2447              		.loc 1 255 9 view .LVU1032
 255:/home/hkh/git/eapidk-code-r76-trunk/apps/EeePProg/linux/../BinFuncs.c ****             pszString+StringPos   , 
 2448              		.loc 1 255 20 is_stmt 0 view .LVU1033
 2449 0a70 0130F6E5 		ldrb	r3, [r6, #1]!	@ zero_extendqisi2
 2450              	.LVL171:
 255:/home/hkh/git/eapidk-code-r76-trunk/apps/EeePProg/linux/../BinFuncs.c ****             pszString+StringPos   , 
 2451              		.loc 1 255 20 view .LVU1034
 2452 0a74 041048E0 		sub	r1, r8, r4
 2453 0a78 040087E0 		add	r0, r7, r4
ARM GAS  /tmp/ccf3bFwG.s 			page 72


 2454 0a7c 0920A0E1 		mov	r2, r9
 2455 0a80 FEFFFFEB 		bl	EApiSprintf(PLT)
 2456              	.LVL172:
 246:/home/hkh/git/eapidk-code-r76-trunk/apps/EeePProg/linux/../BinFuncs.c ****       if(cFlags&HEXTBL_BIG_ENDIAN){
 2457              		.loc 1 246 24 view .LVU1035
 2458 0a84 050056E1 		cmp	r6, r5
 255:/home/hkh/git/eapidk-code-r76-trunk/apps/EeePProg/linux/../BinFuncs.c ****             pszString+StringPos   , 
 2459              		.loc 1 255 18 view .LVU1036
 2460 0a88 004084E0 		add	r4, r4, r0
 2461              	.LVL173:
 246:/home/hkh/git/eapidk-code-r76-trunk/apps/EeePProg/linux/../BinFuncs.c ****       if(cFlags&HEXTBL_BIG_ENDIAN){
 2462              		.loc 1 246 39 is_stmt 1 view .LVU1037
 246:/home/hkh/git/eapidk-code-r76-trunk/apps/EeePProg/linux/../BinFuncs.c ****       if(cFlags&HEXTBL_BIG_ENDIAN){
 2463              		.loc 1 246 24 view .LVU1038
 2464 0a8c F7FFFF1A 		bne	.L180
 264:/home/hkh/git/eapidk-code-r76-trunk/apps/EeePProg/linux/../BinFuncs.c **** 
 2465              		.loc 1 264 1 is_stmt 0 view .LVU1039
 2466 0a90 0400A0E1 		mov	r0, r4
 2467 0a94 F087BDE8 		pop	{r4, r5, r6, r7, r8, r9, r10, pc}
 2468              	.LVL174:
 2469              	.L179:
 248:/home/hkh/git/eapidk-code-r76-trunk/apps/EeePProg/linux/../BinFuncs.c ****             pszString+StringPos   ,
 2470              		.loc 1 248 20 view .LVU1040
 2471 0a98 40909FE5 		ldr	r9, .L187+4
 2472 0a9c 055082E0 		add	r5, r2, r5
 2473              	.LVL175:
 244:/home/hkh/git/eapidk-code-r76-trunk/apps/EeePProg/linux/../BinFuncs.c ****     size_t Bufpos;
 2474              		.loc 1 244 16 view .LVU1041
 2475 0aa0 0040A0E3 		mov	r4, #0
 248:/home/hkh/git/eapidk-code-r76-trunk/apps/EeePProg/linux/../BinFuncs.c ****             pszString+StringPos   ,
 2476              		.loc 1 248 20 view .LVU1042
 2477              	.LPIC47:
 2478 0aa4 09908FE0 		add	r9, pc, r9
 2479              	.LVL176:
 2480              	.L182:
 247:/home/hkh/git/eapidk-code-r76-trunk/apps/EeePProg/linux/../BinFuncs.c ****         StringPos+=EApiSprintf(
 2481              		.loc 1 247 7 is_stmt 1 view .LVU1043
 248:/home/hkh/git/eapidk-code-r76-trunk/apps/EeePProg/linux/../BinFuncs.c ****             pszString+StringPos   ,
 2482              		.loc 1 248 9 view .LVU1044
 248:/home/hkh/git/eapidk-code-r76-trunk/apps/EeePProg/linux/../BinFuncs.c ****             pszString+StringPos   ,
 2483              		.loc 1 248 20 is_stmt 0 view .LVU1045
 2484 0aa8 013075E5 		ldrb	r3, [r5, #-1]!	@ zero_extendqisi2
 2485              	.LVL177:
 248:/home/hkh/git/eapidk-code-r76-trunk/apps/EeePProg/linux/../BinFuncs.c ****             pszString+StringPos   ,
 2486              		.loc 1 248 20 view .LVU1046
 2487 0aac 041048E0 		sub	r1, r8, r4
 2488 0ab0 040087E0 		add	r0, r7, r4
 2489 0ab4 0920A0E1 		mov	r2, r9
 2490 0ab8 FEFFFFEB 		bl	EApiSprintf(PLT)
 2491              	.LVL178:
 246:/home/hkh/git/eapidk-code-r76-trunk/apps/EeePProg/linux/../BinFuncs.c ****       if(cFlags&HEXTBL_BIG_ENDIAN){
 2492              		.loc 1 246 24 view .LVU1047
 2493 0abc 050056E1 		cmp	r6, r5
 248:/home/hkh/git/eapidk-code-r76-trunk/apps/EeePProg/linux/../BinFuncs.c ****             pszString+StringPos   ,
 2494              		.loc 1 248 18 view .LVU1048
 2495 0ac0 004084E0 		add	r4, r4, r0
 2496              	.LVL179:
ARM GAS  /tmp/ccf3bFwG.s 			page 73


 246:/home/hkh/git/eapidk-code-r76-trunk/apps/EeePProg/linux/../BinFuncs.c ****       if(cFlags&HEXTBL_BIG_ENDIAN){
 2497              		.loc 1 246 39 is_stmt 1 view .LVU1049
 246:/home/hkh/git/eapidk-code-r76-trunk/apps/EeePProg/linux/../BinFuncs.c ****       if(cFlags&HEXTBL_BIG_ENDIAN){
 2498              		.loc 1 246 24 view .LVU1050
 2499 0ac4 F7FFFF1A 		bne	.L182
 264:/home/hkh/git/eapidk-code-r76-trunk/apps/EeePProg/linux/../BinFuncs.c **** 
 2500              		.loc 1 264 1 is_stmt 0 view .LVU1051
 2501 0ac8 0400A0E1 		mov	r0, r4
 2502 0acc F087BDE8 		pop	{r4, r5, r6, r7, r8, r9, r10, pc}
 2503              	.LVL180:
 2504              	.L183:
 244:/home/hkh/git/eapidk-code-r76-trunk/apps/EeePProg/linux/../BinFuncs.c ****     size_t Bufpos;
 2505              		.loc 1 244 16 view .LVU1052
 2506 0ad0 0540A0E1 		mov	r4, r5
 263:/home/hkh/git/eapidk-code-r76-trunk/apps/EeePProg/linux/../BinFuncs.c **** }
 2507              		.loc 1 263 5 is_stmt 1 view .LVU1053
 264:/home/hkh/git/eapidk-code-r76-trunk/apps/EeePProg/linux/../BinFuncs.c **** 
 2508              		.loc 1 264 1 is_stmt 0 view .LVU1054
 2509 0ad4 0400A0E1 		mov	r0, r4
 2510              	.LVL181:
 264:/home/hkh/git/eapidk-code-r76-trunk/apps/EeePProg/linux/../BinFuncs.c **** 
 2511              		.loc 1 264 1 view .LVU1055
 2512 0ad8 F087BDE8 		pop	{r4, r5, r6, r7, r8, r9, r10, pc}
 2513              	.L188:
 2514              		.align	2
 2515              	.L187:
 2516 0adc 68000000 		.word	.LC15-(.LPIC46+8)
 2517 0ae0 34000000 		.word	.LC15-(.LPIC47+8)
 2518              		.cfi_endproc
 2519              	.LFE10:
 2521              		.section	.rodata.str1.4
 2522 0181 000000   		.align	2
 2523              	.LC16:
 2524 0184 5072696E 		.ascii	"PrintHexAsciiTableEx\000"
 2524      74486578 
 2524      41736369 
 2524      69546162 
 2524      6C654578 
 2525 0199 000000   		.align	2
 2526              	.LC17:
 2527 019c 0A25730A 		.ascii	"\012%s\012\000"
 2527      00
 2528 01a1 000000   		.align	2
 2529              	.LC18:
 2530 01a4 0A094F46 		.ascii	"\012\011OFFSET = 0x%08lX, LENGTH = 0x%08lX\012\000"
 2530      46534554 
 2530      203D2030 
 2530      78253038 
 2530      6C582C20 
 2531              		.global	__aeabi_uidivmod
 2532 01ca 0000     		.align	2
 2533              	.LC19:
 2534 01cc 20202020 		.ascii	"         \000"
 2534      20202020 
 2534      2000
 2535 01d6 0000     		.align	2
 2536              	.LC20:
ARM GAS  /tmp/ccf3bFwG.s 			page 74


 2537 01d8 2530386C 		.ascii	"%08lX \000"
 2537      582000
 2538 01df 00       		.align	2
 2539              	.LC21:
 2540 01e0 25302A6C 		.ascii	"%0*lX \000"
 2540      582000
 2541 01e7 00       		.align	2
 2542              	.LC22:
 2543 01e8 256C5800 		.ascii	"%lX\000"
 2544              		.align	2
 2545              	.LC23:
 2546 01ec 25732000 		.ascii	"%s \000"
 2547              		.align	2
 2548              	.LC24:
 2549 01f0 00       		.ascii	"\000"
 2550 01f1 000000   		.align	2
 2551              	.LC25:
 2552 01f4 252A7320 		.ascii	"%*s \000"
 2552      00
 2553              		.text
 2554              		.align	2
 2555              		.global	PrintHexAsciiTableEx
 2556              		.syntax unified
 2557              		.arm
 2558              		.fpu vfpv3
 2560              	PrintHexAsciiTableEx:
 2561              	.LVL182:
 2562              	.LFB11:
 274:/home/hkh/git/eapidk-code-r76-trunk/apps/EeePProg/linux/../BinFuncs.c ****   EApiStatus_t StatusCode=EAPI_STATUS_SUCCESS;
 2563              		.loc 1 274 1 is_stmt 1 view -0
 2564              		.cfi_startproc
 2565              		@ args = 4, pretend = 0, frame = 176
 2566              		@ frame_needed = 0, uses_anonymous_args = 0
 274:/home/hkh/git/eapidk-code-r76-trunk/apps/EeePProg/linux/../BinFuncs.c ****   EApiStatus_t StatusCode=EAPI_STATUS_SUCCESS;
 2567              		.loc 1 274 1 is_stmt 0 view .LVU1057
 2568 0ae4 F04F2DE9 		push	{r4, r5, r6, r7, r8, r9, r10, fp, lr}
 2569              		.cfi_def_cfa_offset 36
 2570              		.cfi_offset 4, -36
 2571              		.cfi_offset 5, -32
 2572              		.cfi_offset 6, -28
 2573              		.cfi_offset 7, -24
 2574              		.cfi_offset 8, -20
 2575              		.cfi_offset 9, -16
 2576              		.cfi_offset 10, -12
 2577              		.cfi_offset 11, -8
 2578              		.cfi_offset 14, -4
 286:/home/hkh/git/eapidk-code-r76-trunk/apps/EeePProg/linux/../BinFuncs.c ****         PrintHexAsciiTableEx,
 2579              		.loc 1 286 5 view .LVU1058
 2580 0ae8 000050E3 		cmp	r0, #0
 274:/home/hkh/git/eapidk-code-r76-trunk/apps/EeePProg/linux/../BinFuncs.c ****   EApiStatus_t StatusCode=EAPI_STATUS_SUCCESS;
 2581              		.loc 1 274 1 view .LVU1059
 2582 0aec C4D04DE2 		sub	sp, sp, #196
 2583              		.cfi_def_cfa_offset 232
 274:/home/hkh/git/eapidk-code-r76-trunk/apps/EeePProg/linux/../BinFuncs.c ****   EApiStatus_t StatusCode=EAPI_STATUS_SUCCESS;
 2584              		.loc 1 274 1 view .LVU1060
 2585 0af0 0150A0E1 		mov	r5, r1
 2586 0af4 0310A0E1 		mov	r1, r3
ARM GAS  /tmp/ccf3bFwG.s 			page 75


 2587              	.LVL183:
 286:/home/hkh/git/eapidk-code-r76-trunk/apps/EeePProg/linux/../BinFuncs.c ****         PrintHexAsciiTableEx,
 2588              		.loc 1 286 5 view .LVU1061
 2589 0af8 18008DE5 		str	r0, [sp, #24]
 274:/home/hkh/git/eapidk-code-r76-trunk/apps/EeePProg/linux/../BinFuncs.c ****   EApiStatus_t StatusCode=EAPI_STATUS_SUCCESS;
 2590              		.loc 1 274 1 view .LVU1062
 2591 0afc 3C049FE5 		ldr	r0, .L254
 2592              	.LVL184:
 274:/home/hkh/git/eapidk-code-r76-trunk/apps/EeePProg/linux/../BinFuncs.c ****   EApiStatus_t StatusCode=EAPI_STATUS_SUCCESS;
 2593              		.loc 1 274 1 view .LVU1063
 2594 0b00 3C349FE5 		ldr	r3, .L254+4
 2595              	.LVL185:
 274:/home/hkh/git/eapidk-code-r76-trunk/apps/EeePProg/linux/../BinFuncs.c ****   EApiStatus_t StatusCode=EAPI_STATUS_SUCCESS;
 2596              		.loc 1 274 1 view .LVU1064
 2597 0b04 34208DE5 		str	r2, [sp, #52]
 2598              	.LPIC64:
 2599 0b08 00008FE0 		add	r0, pc, r0
 2600 0b0c E8409DE5 		ldr	r4, [sp, #232]
 2601 0b10 033090E7 		ldr	r3, [r0, r3]
 2602 0b14 003093E5 		ldr	r3, [r3]
 2603 0b18 BC308DE5 		str	r3, [sp, #188]
 2604 0b1c 0030A0E3 		mov	r3, #0
 275:/home/hkh/git/eapidk-code-r76-trunk/apps/EeePProg/linux/../BinFuncs.c ****     size_t        stOffset;
 2605              		.loc 1 275 3 is_stmt 1 view .LVU1065
 2606              	.LVL186:
 276:/home/hkh/git/eapidk-code-r76-trunk/apps/EeePProg/linux/../BinFuncs.c ****     size_t        stOffsetBase;
 2607              		.loc 1 276 5 view .LVU1066
 277:/home/hkh/git/eapidk-code-r76-trunk/apps/EeePProg/linux/../BinFuncs.c ****     const uint8_t *pcu8Mem;
 2608              		.loc 1 277 5 view .LVU1067
 278:/home/hkh/git/eapidk-code-r76-trunk/apps/EeePProg/linux/../BinFuncs.c ****     const uint8_t *pcu8PageEnd;
 2609              		.loc 1 278 5 view .LVU1068
 279:/home/hkh/git/eapidk-code-r76-trunk/apps/EeePProg/linux/../BinFuncs.c ****     size_t        stElementSize;
 2610              		.loc 1 279 5 view .LVU1069
 280:/home/hkh/git/eapidk-code-r76-trunk/apps/EeePProg/linux/../BinFuncs.c ****     size_t        stElementCount;
 2611              		.loc 1 280 5 view .LVU1070
 281:/home/hkh/git/eapidk-code-r76-trunk/apps/EeePProg/linux/../BinFuncs.c ****     size_t        stRowSize;
 2612              		.loc 1 281 5 view .LVU1071
 282:/home/hkh/git/eapidk-code-r76-trunk/apps/EeePProg/linux/../BinFuncs.c ****     TCHAR  szAsciiBufer[100];
 2613              		.loc 1 282 5 view .LVU1072
 283:/home/hkh/git/eapidk-code-r76-trunk/apps/EeePProg/linux/../BinFuncs.c **** 
 2614              		.loc 1 283 5 view .LVU1073
 286:/home/hkh/git/eapidk-code-r76-trunk/apps/EeePProg/linux/../BinFuncs.c ****         PrintHexAsciiTableEx,
 2615              		.loc 1 286 5 view .LVU1074
 2616 0b20 F500000A 		beq	.L246
 291:/home/hkh/git/eapidk-code-r76-trunk/apps/EeePProg/linux/../BinFuncs.c ****       pcvBase=pcvBuffer;
 2617              		.loc 1 291 7 is_stmt 0 discriminator 2 view .LVU1075
 2618 0b24 000052E3 		cmp	r2, #0
 2619 0b28 0230A0E1 		mov	r3, r2
 286:/home/hkh/git/eapidk-code-r76-trunk/apps/EeePProg/linux/../BinFuncs.c ****         PrintHexAsciiTableEx,
 2620              		.loc 1 286 5 is_stmt 1 discriminator 2 view .LVU1076
 290:/home/hkh/git/eapidk-code-r76-trunk/apps/EeePProg/linux/../BinFuncs.c ****     if(pcvBase==NULL)
 2621              		.loc 1 290 10 discriminator 2 view .LVU1077
 291:/home/hkh/git/eapidk-code-r76-trunk/apps/EeePProg/linux/../BinFuncs.c ****       pcvBase=pcvBuffer;
 2622              		.loc 1 291 5 discriminator 2 view .LVU1078
 303:/home/hkh/git/eapidk-code-r76-trunk/apps/EeePProg/linux/../BinFuncs.c **** 
 2623              		.loc 1 303 35 is_stmt 0 discriminator 2 view .LVU1079
 2624 0b2c 18209D15 		ldrne	r2, [sp, #24]
ARM GAS  /tmp/ccf3bFwG.s 			page 76


 2625              	.LVL187:
 303:/home/hkh/git/eapidk-code-r76-trunk/apps/EeePProg/linux/../BinFuncs.c **** 
 2626              		.loc 1 303 35 discriminator 2 view .LVU1080
 2627 0b30 0260A001 		moveq	r6, r2
 2628 0b34 18309D05 		ldreq	r3, [sp, #24]
 2629              	.LVL188:
 303:/home/hkh/git/eapidk-code-r76-trunk/apps/EeePProg/linux/../BinFuncs.c **** 
 2630              		.loc 1 303 35 discriminator 2 view .LVU1081
 2631 0b38 03604210 		subne	r6, r2, r3
 2632 0b3c 34308D05 		streq	r3, [sp, #52]
 2633              	.LVL189:
 294:/home/hkh/git/eapidk-code-r76-trunk/apps/EeePProg/linux/../BinFuncs.c **** 
 2634              		.loc 1 294 5 is_stmt 1 discriminator 2 view .LVU1082
 296:/home/hkh/git/eapidk-code-r76-trunk/apps/EeePProg/linux/../BinFuncs.c ****     stElementCount=cuiFlags&HEXTBL_COUNT_MASK;
 2635              		.loc 1 296 5 discriminator 2 view .LVU1083
 297:/home/hkh/git/eapidk-code-r76-trunk/apps/EeePProg/linux/../BinFuncs.c ****     stRowSize=stElementCount*stElementSize;
 2636              		.loc 1 297 5 discriminator 2 view .LVU1084
 298:/home/hkh/git/eapidk-code-r76-trunk/apps/EeePProg/linux/../BinFuncs.c ****     pcu8PageEnd=((const uint8_t *)pcvBuffer)+stBufSize;
 2637              		.loc 1 298 5 discriminator 2 view .LVU1085
 299:/home/hkh/git/eapidk-code-r76-trunk/apps/EeePProg/linux/../BinFuncs.c **** 
 2638              		.loc 1 299 5 discriminator 2 view .LVU1086
 301:/home/hkh/git/eapidk-code-r76-trunk/apps/EeePProg/linux/../BinFuncs.c ****       EAPI_printf(TEXT("\n%s\n"), pcszDescription);
 2639              		.loc 1 301 5 discriminator 2 view .LVU1087
 301:/home/hkh/git/eapidk-code-r76-trunk/apps/EeePProg/linux/../BinFuncs.c ****       EAPI_printf(TEXT("\n%s\n"), pcszDescription);
 2640              		.loc 1 301 7 is_stmt 0 discriminator 2 view .LVU1088
 2641 0b40 000051E3 		cmp	r1, #0
 2642 0b44 0200000A 		beq	.L193
 302:/home/hkh/git/eapidk-code-r76-trunk/apps/EeePProg/linux/../BinFuncs.c ****     stOffset=((uint8_t*)pcvBuffer)- pcu8Mem;
 2643              		.loc 1 302 7 is_stmt 1 view .LVU1089
 2644 0b48 F8039FE5 		ldr	r0, .L254+8
 2645              	.LPIC52:
 2646 0b4c 00008FE0 		add	r0, pc, r0
 2647 0b50 FEFFFFEB 		bl	printf(PLT)
 2648              	.LVL190:
 2649              	.L193:
 303:/home/hkh/git/eapidk-code-r76-trunk/apps/EeePProg/linux/../BinFuncs.c **** 
 2650              		.loc 1 303 5 view .LVU1090
 305:/home/hkh/git/eapidk-code-r76-trunk/apps/EeePProg/linux/../BinFuncs.c ****       EAPI_printf(TEXT("\n\tOFFSET = 0x%08lX, LENGTH = 0x%08lX\n"), (unsigned long)stOffset, (unsig
 2651              		.loc 1 305 5 view .LVU1091
 305:/home/hkh/git/eapidk-code-r76-trunk/apps/EeePProg/linux/../BinFuncs.c ****       EAPI_printf(TEXT("\n\tOFFSET = 0x%08lX, LENGTH = 0x%08lX\n"), (unsigned long)stOffset, (unsig
 2652              		.loc 1 305 7 is_stmt 0 view .LVU1092
 2653 0b54 400014E3 		tst	r4, #64
 2654 0b58 D500001A 		bne	.L247
 2655              	.L194:
 308:/home/hkh/git/eapidk-code-r76-trunk/apps/EeePProg/linux/../BinFuncs.c **** 
 2656              		.loc 1 308 5 is_stmt 1 view .LVU1093
 308:/home/hkh/git/eapidk-code-r76-trunk/apps/EeePProg/linux/../BinFuncs.c **** 
 2657              		.loc 1 308 7 is_stmt 0 view .LVU1094
 2658 0b5c 000055E3 		cmp	r5, #0
 2659 0b60 C700000A 		beq	.L196
 299:/home/hkh/git/eapidk-code-r76-trunk/apps/EeePProg/linux/../BinFuncs.c **** 
 2660              		.loc 1 299 16 view .LVU1095
 2661 0b64 18709DE5 		ldr	r7, [sp, #24]
 297:/home/hkh/git/eapidk-code-r76-trunk/apps/EeePProg/linux/../BinFuncs.c ****     stRowSize=stElementCount*stElementSize;
 2662              		.loc 1 297 19 view .LVU1096
 2663 0b68 3F3004E2 		and	r3, r4, #63
 296:/home/hkh/git/eapidk-code-r76-trunk/apps/EeePProg/linux/../BinFuncs.c ****     stElementCount=cuiFlags&HEXTBL_COUNT_MASK;
ARM GAS  /tmp/ccf3bFwG.s 			page 77


 2664              		.loc 1 296 51 view .LVU1097
 2665 0b6c 54A6E2E7 		ubfx	r10, r4, #12, #3
 310:/home/hkh/git/eapidk-code-r76-trunk/apps/EeePProg/linux/../BinFuncs.c **** 
 2666              		.loc 1 310 46 view .LVU1098
 2667 0b70 0600A0E1 		mov	r0, r6
 297:/home/hkh/git/eapidk-code-r76-trunk/apps/EeePProg/linux/../BinFuncs.c ****     stRowSize=stElementCount*stElementSize;
 2668              		.loc 1 297 19 view .LVU1099
 2669 0b74 50308DE5 		str	r3, [sp, #80]
 299:/home/hkh/git/eapidk-code-r76-trunk/apps/EeePProg/linux/../BinFuncs.c **** 
 2670              		.loc 1 299 16 view .LVU1100
 2671 0b78 056087E0 		add	r6, r7, r5
 298:/home/hkh/git/eapidk-code-r76-trunk/apps/EeePProg/linux/../BinFuncs.c ****     pcu8PageEnd=((const uint8_t *)pcvBuffer)+stBufSize;
 2672              		.loc 1 298 14 view .LVU1101
 2673 0b7c 135AA0E1 		lsl	r5, r3, r10
 2674              	.LVL191:
 299:/home/hkh/git/eapidk-code-r76-trunk/apps/EeePProg/linux/../BinFuncs.c **** 
 2675              		.loc 1 299 16 view .LVU1102
 2676 0b80 14608DE5 		str	r6, [sp, #20]
 310:/home/hkh/git/eapidk-code-r76-trunk/apps/EeePProg/linux/../BinFuncs.c **** 
 2677              		.loc 1 310 5 is_stmt 1 view .LVU1103
 310:/home/hkh/git/eapidk-code-r76-trunk/apps/EeePProg/linux/../BinFuncs.c **** 
 2678              		.loc 1 310 46 is_stmt 0 view .LVU1104
 2679 0b84 0510A0E1 		mov	r1, r5
 298:/home/hkh/git/eapidk-code-r76-trunk/apps/EeePProg/linux/../BinFuncs.c ****     pcu8PageEnd=((const uint8_t *)pcvBuffer)+stBufSize;
 2680              		.loc 1 298 14 view .LVU1105
 2681 0b88 10508DE5 		str	r5, [sp, #16]
 310:/home/hkh/git/eapidk-code-r76-trunk/apps/EeePProg/linux/../BinFuncs.c **** 
 2682              		.loc 1 310 46 view .LVU1106
 2683 0b8c FEFFFFEB 		bl	__aeabi_uidivmod(PLT)
 2684              	.LVL192:
 312:/home/hkh/git/eapidk-code-r76-trunk/apps/EeePProg/linux/../BinFuncs.c ****     while(pcu8Mem<pcu8PageEnd)
 2685              		.loc 1 312 26 view .LVU1107
 2686 0b90 34209DE5 		ldr	r2, [sp, #52]
 310:/home/hkh/git/eapidk-code-r76-trunk/apps/EeePProg/linux/../BinFuncs.c **** 
 2687              		.loc 1 310 12 view .LVU1108
 2688 0b94 013047E0 		sub	r3, r7, r1
 313:/home/hkh/git/eapidk-code-r76-trunk/apps/EeePProg/linux/../BinFuncs.c ****     {
 2689              		.loc 1 313 18 view .LVU1109
 2690 0b98 030056E1 		cmp	r6, r3
 310:/home/hkh/git/eapidk-code-r76-trunk/apps/EeePProg/linux/../BinFuncs.c **** 
 2691              		.loc 1 310 12 view .LVU1110
 2692 0b9c 28308DE5 		str	r3, [sp, #40]
 2693              	.LVL193:
 312:/home/hkh/git/eapidk-code-r76-trunk/apps/EeePProg/linux/../BinFuncs.c ****     while(pcu8Mem<pcu8PageEnd)
 2694              		.loc 1 312 5 is_stmt 1 view .LVU1111
 312:/home/hkh/git/eapidk-code-r76-trunk/apps/EeePProg/linux/../BinFuncs.c ****     while(pcu8Mem<pcu8PageEnd)
 2695              		.loc 1 312 26 is_stmt 0 view .LVU1112
 2696 0ba0 026043E0 		sub	r6, r3, r2
 2697 0ba4 3C608DE5 		str	r6, [sp, #60]
 2698              	.LVL194:
 313:/home/hkh/git/eapidk-code-r76-trunk/apps/EeePProg/linux/../BinFuncs.c ****     {
 2699              		.loc 1 313 5 is_stmt 1 view .LVU1113
 313:/home/hkh/git/eapidk-code-r76-trunk/apps/EeePProg/linux/../BinFuncs.c ****     {
 2700              		.loc 1 313 18 view .LVU1114
 2701 0ba8 B500009A 		bls	.L196
 325:/home/hkh/git/eapidk-code-r76-trunk/apps/EeePProg/linux/../BinFuncs.c ****           }
 2702              		.loc 1 325 48 is_stmt 0 view .LVU1115
ARM GAS  /tmp/ccf3bFwG.s 			page 78


 2703 0bac 0230A0E3 		mov	r3, #2
 2704              	.LVL195:
 296:/home/hkh/git/eapidk-code-r76-trunk/apps/EeePProg/linux/../BinFuncs.c ****     stElementCount=cuiFlags&HEXTBL_COUNT_MASK;
 2705              		.loc 1 296 20 view .LVU1116
 2706 0bb0 0190A0E3 		mov	r9, #1
 325:/home/hkh/git/eapidk-code-r76-trunk/apps/EeePProg/linux/../BinFuncs.c ****           }
 2707              		.loc 1 325 48 view .LVU1117
 2708 0bb4 133AA0E1 		lsl	r3, r3, r10
 296:/home/hkh/git/eapidk-code-r76-trunk/apps/EeePProg/linux/../BinFuncs.c ****     stElementCount=cuiFlags&HEXTBL_COUNT_MASK;
 2709              		.loc 1 296 20 view .LVU1118
 2710 0bb8 199AA0E1 		lsl	r9, r9, r10
 325:/home/hkh/git/eapidk-code-r76-trunk/apps/EeePProg/linux/../BinFuncs.c ****           }
 2711              		.loc 1 325 48 view .LVU1119
 2712 0bbc 1C308DE5 		str	r3, [sp, #28]
 337:/home/hkh/git/eapidk-code-r76-trunk/apps/EeePProg/linux/../BinFuncs.c **** 
 2713              		.loc 1 337 9 view .LVU1120
 2714 0bc0 84339FE5 		ldr	r3, .L254+12
 2715              	.LPIC55:
 2716 0bc4 03308FE0 		add	r3, pc, r3
 2717 0bc8 48308DE5 		str	r3, [sp, #72]
 325:/home/hkh/git/eapidk-code-r76-trunk/apps/EeePProg/linux/../BinFuncs.c ****           }
 2718              		.loc 1 325 13 view .LVU1121
 2719 0bcc 7C339FE5 		ldr	r3, .L254+16
 2720              	.LPIC56:
 2721 0bd0 03308FE0 		add	r3, pc, r3
 2722 0bd4 54308DE5 		str	r3, [sp, #84]
 354:/home/hkh/git/eapidk-code-r76-trunk/apps/EeePProg/linux/../BinFuncs.c ****         }
 2723              		.loc 1 354 11 view .LVU1122
 2724 0bd8 74339FE5 		ldr	r3, .L254+20
 2725              	.LPIC61:
 2726 0bdc 03308FE0 		add	r3, pc, r3
 2727 0be0 20308DE5 		str	r3, [sp, #32]
 2728 0be4 6C339FE5 		ldr	r3, .L254+24
 2729              	.LPIC62:
 2730 0be8 03308FE0 		add	r3, pc, r3
 2731 0bec 24308DE5 		str	r3, [sp, #36]
 316:/home/hkh/git/eapidk-code-r76-trunk/apps/EeePProg/linux/../BinFuncs.c ****         /*
 2732              		.loc 1 316 48 view .LVU1123
 2733 0bf0 0532A0E1 		lsl	r3, r5, #4
 2734 0bf4 40308DE5 		str	r3, [sp, #64]
 321:/home/hkh/git/eapidk-code-r76-trunk/apps/EeePProg/linux/../BinFuncs.c ****           EAPI_printf(TEXT("         "));
 2735              		.loc 1 321 20 view .LVU1124
 2736 0bf8 023B04E2 		and	r3, r4, #2048
 2737 0bfc 38308DE5 		str	r3, [sp, #56]
 323:/home/hkh/git/eapidk-code-r76-trunk/apps/EeePProg/linux/../BinFuncs.c ****           for(stOffset=0;stOffset<stElementCount;stOffset++){
 2738              		.loc 1 323 20 view .LVU1125
 2739 0c00 803004E2 		and	r3, r4, #128
 2740 0c04 4C308DE5 		str	r3, [sp, #76]
 327:/home/hkh/git/eapidk-code-r76-trunk/apps/EeePProg/linux/../BinFuncs.c ****             for(stOffset=0;stOffset<(stRowSize);stOffset++){
 2741              		.loc 1 327 22 view .LVU1126
 2742 0c08 063C04E2 		and	r3, r4, #1536
 2743 0c0c 44308DE5 		str	r3, [sp, #68]
 2744              	.LBB144:
 2745              	.LBB145:
 247:/home/hkh/git/eapidk-code-r76-trunk/apps/EeePProg/linux/../BinFuncs.c ****         StringPos+=EApiSprintf(
 2746              		.loc 1 247 16 view .LVU1127
 2747 0c10 013C04E2 		and	r3, r4, #256
ARM GAS  /tmp/ccf3bFwG.s 			page 79


 2748 0c14 30308DE5 		str	r3, [sp, #48]
 2749              	.LVL196:
 2750              	.L206:
 247:/home/hkh/git/eapidk-code-r76-trunk/apps/EeePProg/linux/../BinFuncs.c ****         StringPos+=EApiSprintf(
 2751              		.loc 1 247 16 view .LVU1128
 2752              	.LBE145:
 2753              	.LBE144:
 315:/home/hkh/git/eapidk-code-r76-trunk/apps/EeePProg/linux/../BinFuncs.c ****       if(!((stOffset - stOffsetBase)%(stRowSize*16))){
 2754              		.loc 1 315 7 is_stmt 1 view .LVU1129
 316:/home/hkh/git/eapidk-code-r76-trunk/apps/EeePProg/linux/../BinFuncs.c ****         /*
 2755              		.loc 1 316 7 view .LVU1130
 316:/home/hkh/git/eapidk-code-r76-trunk/apps/EeePProg/linux/../BinFuncs.c ****         /*
 2756              		.loc 1 316 37 is_stmt 0 view .LVU1131
 2757 0c18 3C309DE5 		ldr	r3, [sp, #60]
 2758 0c1c 40109DE5 		ldr	r1, [sp, #64]
 2759 0c20 030046E0 		sub	r0, r6, r3
 2760 0c24 FEFFFFEB 		bl	__aeabi_uidivmod(PLT)
 2761              	.LVL197:
 316:/home/hkh/git/eapidk-code-r76-trunk/apps/EeePProg/linux/../BinFuncs.c ****         /*
 2762              		.loc 1 316 9 view .LVU1132
 2763 0c28 005051E2 		subs	r5, r1, #0
 2764 0c2c 6100000A 		beq	.L248
 2765              	.LVL198:
 2766              	.L197:
 336:/home/hkh/git/eapidk-code-r76-trunk/apps/EeePProg/linux/../BinFuncs.c ****         EAPI_printf(TEXT("%08lX ") , (unsigned long)stOffset);
 2767              		.loc 1 336 7 is_stmt 1 view .LVU1133
 336:/home/hkh/git/eapidk-code-r76-trunk/apps/EeePProg/linux/../BinFuncs.c ****         EAPI_printf(TEXT("%08lX ") , (unsigned long)stOffset);
 2768              		.loc 1 336 9 is_stmt 0 view .LVU1134
 2769 0c30 38309DE5 		ldr	r3, [sp, #56]
 2770 0c34 000053E3 		cmp	r3, #0
 2771 0c38 5600001A 		bne	.L204
 2772              	.L200:
 2773              	.LVL199:
 342:/home/hkh/git/eapidk-code-r76-trunk/apps/EeePProg/linux/../BinFuncs.c ****       {
 2774              		.loc 1 342 31 is_stmt 1 discriminator 1 view .LVU1135
 2775 0c3c 10309DE5 		ldr	r3, [sp, #16]
 2776 0c40 000053E3 		cmp	r3, #0
 2777 0c44 5900000A 		beq	.L249
 2778              	.L205:
 352:/home/hkh/git/eapidk-code-r76-trunk/apps/EeePProg/linux/../BinFuncs.c ****         }else{
 2779              		.loc 1 352 11 is_stmt 0 view .LVU1136
 2780 0c48 0C339FE5 		ldr	r3, .L254+28
 342:/home/hkh/git/eapidk-code-r76-trunk/apps/EeePProg/linux/../BinFuncs.c ****       {
 2781              		.loc 1 342 31 view .LVU1137
 2782 0c4c 0060A0E3 		mov	r6, #0
 2783 0c50 28409DE5 		ldr	r4, [sp, #40]
 352:/home/hkh/git/eapidk-code-r76-trunk/apps/EeePProg/linux/../BinFuncs.c ****         }else{
 2784              		.loc 1 352 11 view .LVU1138
 2785              	.LPIC60:
 2786 0c54 03308FE0 		add	r3, pc, r3
 2787 0c58 2C308DE5 		str	r3, [sp, #44]
 2788 0c5c 090000EA 		b	.L213
 2789              	.LVL200:
 2790              	.L207:
 354:/home/hkh/git/eapidk-code-r76-trunk/apps/EeePProg/linux/../BinFuncs.c ****         }
 2791              		.loc 1 354 11 is_stmt 1 view .LVU1139
 2792 0c60 20209DE5 		ldr	r2, [sp, #32]
ARM GAS  /tmp/ccf3bFwG.s 			page 80


 2793 0c64 09B084E0 		add	fp, r4, r9
 2794 0c68 1C109DE5 		ldr	r1, [sp, #28]
 2795 0c6c 24009DE5 		ldr	r0, [sp, #36]
 2796 0c70 FEFFFFEB 		bl	printf(PLT)
 2797              	.LVL201:
 2798              	.L212:
 342:/home/hkh/git/eapidk-code-r76-trunk/apps/EeePProg/linux/../BinFuncs.c ****       {
 2799              		.loc 1 342 51 discriminator 2 view .LVU1140
 342:/home/hkh/git/eapidk-code-r76-trunk/apps/EeePProg/linux/../BinFuncs.c ****       {
 2800              		.loc 1 342 31 is_stmt 0 discriminator 2 view .LVU1141
 2801 0c74 10309DE5 		ldr	r3, [sp, #16]
 342:/home/hkh/git/eapidk-code-r76-trunk/apps/EeePProg/linux/../BinFuncs.c ****       {
 2802              		.loc 1 342 51 discriminator 2 view .LVU1142
 2803 0c78 096086E0 		add	r6, r6, r9
 2804              	.LVL202:
 342:/home/hkh/git/eapidk-code-r76-trunk/apps/EeePProg/linux/../BinFuncs.c ****       {
 2805              		.loc 1 342 31 is_stmt 1 discriminator 2 view .LVU1143
 2806 0c7c 0B40A0E1 		mov	r4, fp
 2807 0c80 060053E1 		cmp	r3, r6
 2808 0c84 2E00009A 		bls	.L250
 2809              	.LVL203:
 2810              	.L213:
 344:/home/hkh/git/eapidk-code-r76-trunk/apps/EeePProg/linux/../BinFuncs.c ****           siBin2Ascii(
 2811              		.loc 1 344 9 view .LVU1144
 344:/home/hkh/git/eapidk-code-r76-trunk/apps/EeePProg/linux/../BinFuncs.c ****           siBin2Ascii(
 2812              		.loc 1 344 44 is_stmt 0 view .LVU1145
 2813 0c88 D421CDE1 		ldrd	r2, [sp, #20]
 2814 0c8c 040053E1 		cmp	r3, r4
 2815 0c90 0130A093 		movls	r3, #1
 2816 0c94 0030A083 		movhi	r3, #0
 2817 0c98 040052E1 		cmp	r2, r4
 2818 0c9c 0030A093 		movls	r3, #0
 2819 0ca0 000053E3 		cmp	r3, #0
 2820 0ca4 EDFFFF0A 		beq	.L207
 2821 0ca8 30509DE5 		ldr	r5, [sp, #48]
 2822 0cac 000055E3 		cmp	r5, #0
 2823 0cb0 1400001A 		bne	.L208
 2824              	.LBB148:
 2825              	.LBB146:
 246:/home/hkh/git/eapidk-code-r76-trunk/apps/EeePProg/linux/../BinFuncs.c ****       if(cFlags&HEXTBL_BIG_ENDIAN){
 2826              		.loc 1 246 24 view .LVU1146
 2827 0cb4 28309DE5 		ldr	r3, [sp, #40]
 2828 0cb8 01B049E2 		sub	fp, r9, #1
 255:/home/hkh/git/eapidk-code-r76-trunk/apps/EeePProg/linux/../BinFuncs.c ****             pszString+StringPos   , 
 2829              		.loc 1 255 20 view .LVU1147
 2830 0cbc 9CA29FE5 		ldr	r10, .L254+32
 2831 0cc0 017044E2 		sub	r7, r4, #1
 2832 0cc4 58808DE2 		add	r8, sp, #88
 246:/home/hkh/git/eapidk-code-r76-trunk/apps/EeePProg/linux/../BinFuncs.c ****       if(cFlags&HEXTBL_BIG_ENDIAN){
 2833              		.loc 1 246 24 view .LVU1148
 2834 0cc8 0BB083E0 		add	fp, r3, fp
 2835 0ccc 06B08BE0 		add	fp, fp, r6
 255:/home/hkh/git/eapidk-code-r76-trunk/apps/EeePProg/linux/../BinFuncs.c ****             pszString+StringPos   , 
 2836              		.loc 1 255 20 view .LVU1149
 2837              	.LPIC58:
 2838 0cd0 0AA08FE0 		add	r10, pc, r10
 2839              	.L209:
ARM GAS  /tmp/ccf3bFwG.s 			page 81


 2840              	.LVL204:
 247:/home/hkh/git/eapidk-code-r76-trunk/apps/EeePProg/linux/../BinFuncs.c ****         StringPos+=EApiSprintf(
 2841              		.loc 1 247 7 is_stmt 1 view .LVU1150
 255:/home/hkh/git/eapidk-code-r76-trunk/apps/EeePProg/linux/../BinFuncs.c ****             pszString+StringPos   , 
 2842              		.loc 1 255 9 view .LVU1151
 255:/home/hkh/git/eapidk-code-r76-trunk/apps/EeePProg/linux/../BinFuncs.c ****             pszString+StringPos   , 
 2843              		.loc 1 255 20 is_stmt 0 view .LVU1152
 2844 0cd4 0130F7E5 		ldrb	r3, [r7, #1]!	@ zero_extendqisi2
 2845              	.LVL205:
 255:/home/hkh/git/eapidk-code-r76-trunk/apps/EeePProg/linux/../BinFuncs.c ****             pszString+StringPos   , 
 2846              		.loc 1 255 20 view .LVU1153
 2847 0cd8 641065E2 		rsb	r1, r5, #100
 2848 0cdc 050088E0 		add	r0, r8, r5
 2849 0ce0 0A20A0E1 		mov	r2, r10
 2850 0ce4 FEFFFFEB 		bl	EApiSprintf(PLT)
 2851              	.LVL206:
 246:/home/hkh/git/eapidk-code-r76-trunk/apps/EeePProg/linux/../BinFuncs.c ****       if(cFlags&HEXTBL_BIG_ENDIAN){
 2852              		.loc 1 246 24 view .LVU1154
 2853 0ce8 07005BE1 		cmp	fp, r7
 255:/home/hkh/git/eapidk-code-r76-trunk/apps/EeePProg/linux/../BinFuncs.c ****             pszString+StringPos   , 
 2854              		.loc 1 255 18 view .LVU1155
 2855 0cec 005085E0 		add	r5, r5, r0
 2856              	.LVL207:
 246:/home/hkh/git/eapidk-code-r76-trunk/apps/EeePProg/linux/../BinFuncs.c ****       if(cFlags&HEXTBL_BIG_ENDIAN){
 2857              		.loc 1 246 39 is_stmt 1 view .LVU1156
 246:/home/hkh/git/eapidk-code-r76-trunk/apps/EeePProg/linux/../BinFuncs.c ****       if(cFlags&HEXTBL_BIG_ENDIAN){
 2858              		.loc 1 246 24 view .LVU1157
 2859 0cf0 F7FFFF1A 		bne	.L209
 2860 0cf4 09B084E0 		add	fp, r4, r9
 2861              	.LVL208:
 2862              	.L210:
 263:/home/hkh/git/eapidk-code-r76-trunk/apps/EeePProg/linux/../BinFuncs.c **** }
 2863              		.loc 1 263 5 view .LVU1158
 263:/home/hkh/git/eapidk-code-r76-trunk/apps/EeePProg/linux/../BinFuncs.c **** }
 2864              		.loc 1 263 5 is_stmt 0 view .LVU1159
 2865              	.LBE146:
 2866              	.LBE148:
 352:/home/hkh/git/eapidk-code-r76-trunk/apps/EeePProg/linux/../BinFuncs.c ****         }else{
 2867              		.loc 1 352 11 is_stmt 1 view .LVU1160
 2868 0cf8 2C009DE5 		ldr	r0, [sp, #44]
 2869 0cfc 0810A0E1 		mov	r1, r8
 2870 0d00 FEFFFFEB 		bl	printf(PLT)
 2871              	.LVL209:
 2872 0d04 DAFFFFEA 		b	.L212
 2873              	.L208:
 2874              	.LBB149:
 2875              	.LBB147:
 248:/home/hkh/git/eapidk-code-r76-trunk/apps/EeePProg/linux/../BinFuncs.c ****             pszString+StringPos   ,
 2876              		.loc 1 248 20 is_stmt 0 view .LVU1161
 2877 0d08 54A29FE5 		ldr	r10, .L254+36
 2878 0d0c 09B084E0 		add	fp, r4, r9
 2879 0d10 0B70A0E1 		mov	r7, fp
 244:/home/hkh/git/eapidk-code-r76-trunk/apps/EeePProg/linux/../BinFuncs.c ****     size_t Bufpos;
 2880              		.loc 1 244 16 view .LVU1162
 2881 0d14 0050A0E3 		mov	r5, #0
 2882 0d18 58808DE2 		add	r8, sp, #88
 248:/home/hkh/git/eapidk-code-r76-trunk/apps/EeePProg/linux/../BinFuncs.c ****             pszString+StringPos   ,
ARM GAS  /tmp/ccf3bFwG.s 			page 82


 2883              		.loc 1 248 20 view .LVU1163
 2884              	.LPIC59:
 2885 0d1c 0AA08FE0 		add	r10, pc, r10
 2886              	.L211:
 2887              	.LVL210:
 247:/home/hkh/git/eapidk-code-r76-trunk/apps/EeePProg/linux/../BinFuncs.c ****         StringPos+=EApiSprintf(
 2888              		.loc 1 247 7 is_stmt 1 view .LVU1164
 248:/home/hkh/git/eapidk-code-r76-trunk/apps/EeePProg/linux/../BinFuncs.c ****             pszString+StringPos   ,
 2889              		.loc 1 248 9 view .LVU1165
 248:/home/hkh/git/eapidk-code-r76-trunk/apps/EeePProg/linux/../BinFuncs.c ****             pszString+StringPos   ,
 2890              		.loc 1 248 20 is_stmt 0 view .LVU1166
 2891 0d20 013077E5 		ldrb	r3, [r7, #-1]!	@ zero_extendqisi2
 2892              	.LVL211:
 248:/home/hkh/git/eapidk-code-r76-trunk/apps/EeePProg/linux/../BinFuncs.c ****             pszString+StringPos   ,
 2893              		.loc 1 248 20 view .LVU1167
 2894 0d24 641065E2 		rsb	r1, r5, #100
 2895 0d28 050088E0 		add	r0, r8, r5
 2896 0d2c 0A20A0E1 		mov	r2, r10
 2897 0d30 FEFFFFEB 		bl	EApiSprintf(PLT)
 2898              	.LVL212:
 246:/home/hkh/git/eapidk-code-r76-trunk/apps/EeePProg/linux/../BinFuncs.c ****       if(cFlags&HEXTBL_BIG_ENDIAN){
 2899              		.loc 1 246 24 view .LVU1168
 2900 0d34 070054E1 		cmp	r4, r7
 248:/home/hkh/git/eapidk-code-r76-trunk/apps/EeePProg/linux/../BinFuncs.c ****             pszString+StringPos   ,
 2901              		.loc 1 248 18 view .LVU1169
 2902 0d38 005085E0 		add	r5, r5, r0
 2903              	.LVL213:
 246:/home/hkh/git/eapidk-code-r76-trunk/apps/EeePProg/linux/../BinFuncs.c ****       if(cFlags&HEXTBL_BIG_ENDIAN){
 2904              		.loc 1 246 39 is_stmt 1 view .LVU1170
 246:/home/hkh/git/eapidk-code-r76-trunk/apps/EeePProg/linux/../BinFuncs.c ****       if(cFlags&HEXTBL_BIG_ENDIAN){
 2905              		.loc 1 246 24 view .LVU1171
 2906 0d3c F7FFFF1A 		bne	.L211
 2907 0d40 ECFFFFEA 		b	.L210
 2908              	.L191:
 2909              	.LVL214:
 2910              	.L250:
 246:/home/hkh/git/eapidk-code-r76-trunk/apps/EeePProg/linux/../BinFuncs.c ****       if(cFlags&HEXTBL_BIG_ENDIAN){
 2911              		.loc 1 246 24 is_stmt 0 view .LVU1172
 2912              	.LBE147:
 2913              	.LBE149:
 357:/home/hkh/git/eapidk-code-r76-trunk/apps/EeePProg/linux/../BinFuncs.c ****         /*
 2914              		.loc 1 357 7 is_stmt 1 view .LVU1173
 357:/home/hkh/git/eapidk-code-r76-trunk/apps/EeePProg/linux/../BinFuncs.c ****         /*
 2915              		.loc 1 357 9 is_stmt 0 view .LVU1174
 2916 0d44 44309DE5 		ldr	r3, [sp, #68]
 2917 0d48 000053E3 		cmp	r3, #0
 2918 0d4c 3500001A 		bne	.L224
 2919 0d50 28309DE5 		ldr	r3, [sp, #40]
 2920 0d54 10209DE5 		ldr	r2, [sp, #16]
 2921 0d58 024083E0 		add	r4, r3, r2
 2922              	.LVL215:
 2923              	.L219:
 370:/home/hkh/git/eapidk-code-r76-trunk/apps/EeePProg/linux/../BinFuncs.c ****       EAPI_printf(TEXT("\n"));
 2924              		.loc 1 370 7 is_stmt 1 view .LVU1175
 371:/home/hkh/git/eapidk-code-r76-trunk/apps/EeePProg/linux/../BinFuncs.c ****     }
 2925              		.loc 1 371 7 is_stmt 0 view .LVU1176
 2926 0d5c 0A00A0E3 		mov	r0, #10
ARM GAS  /tmp/ccf3bFwG.s 			page 83


 370:/home/hkh/git/eapidk-code-r76-trunk/apps/EeePProg/linux/../BinFuncs.c ****       EAPI_printf(TEXT("\n"));
 2927              		.loc 1 370 14 view .LVU1177
 2928 0d60 28408DE5 		str	r4, [sp, #40]
 371:/home/hkh/git/eapidk-code-r76-trunk/apps/EeePProg/linux/../BinFuncs.c ****     }
 2929              		.loc 1 371 7 is_stmt 1 view .LVU1178
 2930 0d64 FEFFFFEB 		bl	putchar(PLT)
 2931              	.LVL216:
 313:/home/hkh/git/eapidk-code-r76-trunk/apps/EeePProg/linux/../BinFuncs.c ****     {
 2932              		.loc 1 313 18 view .LVU1179
 2933 0d68 14209DE5 		ldr	r2, [sp, #20]
 2934 0d6c 040052E1 		cmp	r2, r4
 2935 0d70 4300009A 		bls	.L196
 2936 0d74 34209DE5 		ldr	r2, [sp, #52]
 2937 0d78 026044E0 		sub	r6, r4, r2
 2938 0d7c A5FFFFEA 		b	.L206
 2939              	.LVL217:
 2940              	.L251:
 322:/home/hkh/git/eapidk-code-r76-trunk/apps/EeePProg/linux/../BinFuncs.c ****         if(cuiFlags&HEXTBL_OFFSET_COUNT){
 2941              		.loc 1 322 11 view .LVU1180
 2942 0d80 E0019FE5 		ldr	r0, .L254+40
 2943              	.LPIC54:
 2944 0d84 00008FE0 		add	r0, pc, r0
 2945 0d88 FEFFFFEB 		bl	printf(PLT)
 2946              	.LVL218:
 323:/home/hkh/git/eapidk-code-r76-trunk/apps/EeePProg/linux/../BinFuncs.c ****           for(stOffset=0;stOffset<stElementCount;stOffset++){
 2947              		.loc 1 323 9 view .LVU1181
 323:/home/hkh/git/eapidk-code-r76-trunk/apps/EeePProg/linux/../BinFuncs.c ****           for(stOffset=0;stOffset<stElementCount;stOffset++){
 2948              		.loc 1 323 11 is_stmt 0 view .LVU1182
 2949 0d8c 4C309DE5 		ldr	r3, [sp, #76]
 2950 0d90 000053E3 		cmp	r3, #0
 2951 0d94 0F00001A 		bne	.L199
 2952              	.L204:
 337:/home/hkh/git/eapidk-code-r76-trunk/apps/EeePProg/linux/../BinFuncs.c **** 
 2953              		.loc 1 337 9 is_stmt 1 view .LVU1183
 2954 0d98 48009DE5 		ldr	r0, [sp, #72]
 2955 0d9c 0610A0E1 		mov	r1, r6
 2956 0da0 FEFFFFEB 		bl	printf(PLT)
 2957              	.LVL219:
 342:/home/hkh/git/eapidk-code-r76-trunk/apps/EeePProg/linux/../BinFuncs.c ****       {
 2958              		.loc 1 342 31 view .LVU1184
 2959 0da4 10309DE5 		ldr	r3, [sp, #16]
 2960 0da8 000053E3 		cmp	r3, #0
 2961 0dac A5FFFF1A 		bne	.L205
 2962              	.L249:
 2963 0db0 28409DE5 		ldr	r4, [sp, #40]
 2964 0db4 E8FFFFEA 		b	.L219
 2965              	.LVL220:
 2966              	.L248:
 320:/home/hkh/git/eapidk-code-r76-trunk/apps/EeePProg/linux/../BinFuncs.c ****         if(cuiFlags&HEXTBL_OFFSET_BAR)
 2967              		.loc 1 320 9 view .LVU1185
 2968 0db8 0A00A0E3 		mov	r0, #10
 2969 0dbc FEFFFFEB 		bl	putchar(PLT)
 2970              	.LVL221:
 321:/home/hkh/git/eapidk-code-r76-trunk/apps/EeePProg/linux/../BinFuncs.c ****           EAPI_printf(TEXT("         "));
 2971              		.loc 1 321 9 view .LVU1186
 321:/home/hkh/git/eapidk-code-r76-trunk/apps/EeePProg/linux/../BinFuncs.c ****           EAPI_printf(TEXT("         "));
 2972              		.loc 1 321 11 is_stmt 0 view .LVU1187
ARM GAS  /tmp/ccf3bFwG.s 			page 84


 2973 0dc0 38309DE5 		ldr	r3, [sp, #56]
 2974 0dc4 000053E3 		cmp	r3, #0
 2975 0dc8 ECFFFF1A 		bne	.L251
 323:/home/hkh/git/eapidk-code-r76-trunk/apps/EeePProg/linux/../BinFuncs.c ****           for(stOffset=0;stOffset<stElementCount;stOffset++){
 2976              		.loc 1 323 9 is_stmt 1 view .LVU1188
 323:/home/hkh/git/eapidk-code-r76-trunk/apps/EeePProg/linux/../BinFuncs.c ****           for(stOffset=0;stOffset<stElementCount;stOffset++){
 2977              		.loc 1 323 11 is_stmt 0 view .LVU1189
 2978 0dcc 4C309DE5 		ldr	r3, [sp, #76]
 2979 0dd0 000053E3 		cmp	r3, #0
 2980 0dd4 98FFFF0A 		beq	.L200
 2981              	.L199:
 2982              	.LVL222:
 324:/home/hkh/git/eapidk-code-r76-trunk/apps/EeePProg/linux/../BinFuncs.c ****             EAPI_printf(TEXT("%0*lX "), (int)(2*stElementSize), (unsigned long)stOffset);
 2983              		.loc 1 324 34 is_stmt 1 view .LVU1190
 2984 0dd8 50309DE5 		ldr	r3, [sp, #80]
 2985 0ddc 000053E3 		cmp	r3, #0
 2986 0de0 0D00000A 		beq	.L202
 324:/home/hkh/git/eapidk-code-r76-trunk/apps/EeePProg/linux/../BinFuncs.c ****             EAPI_printf(TEXT("%0*lX "), (int)(2*stElementSize), (unsigned long)stOffset);
 2987              		.loc 1 324 23 is_stmt 0 view .LVU1191
 2988 0de4 1C709DE5 		ldr	r7, [sp, #28]
 2989 0de8 0380A0E1 		mov	r8, r3
 2990 0dec 54A09DE5 		ldr	r10, [sp, #84]
 2991 0df0 0040A0E3 		mov	r4, #0
 2992              	.LVL223:
 2993              	.L201:
 325:/home/hkh/git/eapidk-code-r76-trunk/apps/EeePProg/linux/../BinFuncs.c ****           }
 2994              		.loc 1 325 13 is_stmt 1 discriminator 3 view .LVU1192
 2995 0df4 0420A0E1 		mov	r2, r4
 2996 0df8 0710A0E1 		mov	r1, r7
 324:/home/hkh/git/eapidk-code-r76-trunk/apps/EeePProg/linux/../BinFuncs.c ****             EAPI_printf(TEXT("%0*lX "), (int)(2*stElementSize), (unsigned long)stOffset);
 2997              		.loc 1 324 58 is_stmt 0 discriminator 3 view .LVU1193
 2998 0dfc 014084E2 		add	r4, r4, #1
 2999              	.LVL224:
 325:/home/hkh/git/eapidk-code-r76-trunk/apps/EeePProg/linux/../BinFuncs.c ****           }
 3000              		.loc 1 325 13 discriminator 3 view .LVU1194
 3001 0e00 0A00A0E1 		mov	r0, r10
 3002 0e04 FEFFFFEB 		bl	printf(PLT)
 3003              	.LVL225:
 324:/home/hkh/git/eapidk-code-r76-trunk/apps/EeePProg/linux/../BinFuncs.c ****             EAPI_printf(TEXT("%0*lX "), (int)(2*stElementSize), (unsigned long)stOffset);
 3004              		.loc 1 324 58 is_stmt 1 discriminator 3 view .LVU1195
 324:/home/hkh/git/eapidk-code-r76-trunk/apps/EeePProg/linux/../BinFuncs.c ****             EAPI_printf(TEXT("%0*lX "), (int)(2*stElementSize), (unsigned long)stOffset);
 3005              		.loc 1 324 34 discriminator 3 view .LVU1196
 3006 0e08 040058E1 		cmp	r8, r4
 3007 0e0c F8FFFF1A 		bne	.L201
 327:/home/hkh/git/eapidk-code-r76-trunk/apps/EeePProg/linux/../BinFuncs.c ****             for(stOffset=0;stOffset<(stRowSize);stOffset++){
 3008              		.loc 1 327 11 view .LVU1197
 327:/home/hkh/git/eapidk-code-r76-trunk/apps/EeePProg/linux/../BinFuncs.c ****             for(stOffset=0;stOffset<(stRowSize);stOffset++){
 3009              		.loc 1 327 13 is_stmt 0 view .LVU1198
 3010 0e10 44309DE5 		ldr	r3, [sp, #68]
 3011 0e14 000053E3 		cmp	r3, #0
 3012 0e18 2B00001A 		bne	.L252
 3013              	.LVL226:
 3014              	.L202:
 332:/home/hkh/git/eapidk-code-r76-trunk/apps/EeePProg/linux/../BinFuncs.c ****         }
 3015              		.loc 1 332 11 is_stmt 1 view .LVU1199
 3016 0e1c 0A00A0E3 		mov	r0, #10
 3017 0e20 FEFFFFEB 		bl	putchar(PLT)
ARM GAS  /tmp/ccf3bFwG.s 			page 85


 3018              	.LVL227:
 3019 0e24 81FFFFEA 		b	.L197
 3020              	.LVL228:
 3021              	.L224:
 357:/home/hkh/git/eapidk-code-r76-trunk/apps/EeePProg/linux/../BinFuncs.c ****         /*
 3022              		.loc 1 357 9 is_stmt 0 view .LVU1200
 3023 0e28 28509DE5 		ldr	r5, [sp, #40]
 3024 0e2c 10309DE5 		ldr	r3, [sp, #16]
 3025 0e30 D461CDE1 		ldrd	r6, [sp, #20]
 3026              	.LVL229:
 357:/home/hkh/git/eapidk-code-r76-trunk/apps/EeePProg/linux/../BinFuncs.c ****         /*
 3027              		.loc 1 357 9 view .LVU1201
 3028 0e34 034085E0 		add	r4, r5, r3
 3029 0e38 040000EA 		b	.L218
 3030              	.LVL230:
 3031              	.L215:
 366:/home/hkh/git/eapidk-code-r76-trunk/apps/EeePProg/linux/../BinFuncs.c ****           }
 3032              		.loc 1 366 13 is_stmt 1 view .LVU1202
 3033 0e3c 2000A0E3 		mov	r0, #32
 3034 0e40 FEFFFFEB 		bl	putchar(PLT)
 3035              	.LVL231:
 3036              	.L217:
 361:/home/hkh/git/eapidk-code-r76-trunk/apps/EeePProg/linux/../BinFuncs.c ****         {
 3037              		.loc 1 361 51 discriminator 2 view .LVU1203
 361:/home/hkh/git/eapidk-code-r76-trunk/apps/EeePProg/linux/../BinFuncs.c ****         {
 3038              		.loc 1 361 32 discriminator 2 view .LVU1204
 3039 0e44 015085E2 		add	r5, r5, #1
 3040              	.LVL232:
 361:/home/hkh/git/eapidk-code-r76-trunk/apps/EeePProg/linux/../BinFuncs.c ****         {
 3041              		.loc 1 361 32 is_stmt 0 discriminator 2 view .LVU1205
 3042 0e48 040055E1 		cmp	r5, r4
 3043 0e4c C2FFFF0A 		beq	.L219
 3044              	.LVL233:
 3045              	.L218:
 363:/home/hkh/git/eapidk-code-r76-trunk/apps/EeePProg/linux/../BinFuncs.c ****             EAPI_printf(TEXT("%c"), cBin2Ascii(pcu8Mem[stOffset]));
 3046              		.loc 1 363 11 is_stmt 1 view .LVU1206
 363:/home/hkh/git/eapidk-code-r76-trunk/apps/EeePProg/linux/../BinFuncs.c ****             EAPI_printf(TEXT("%c"), cBin2Ascii(pcu8Mem[stOffset]));
 3047              		.loc 1 363 46 is_stmt 0 view .LVU1207
 3048 0e50 050056E1 		cmp	r6, r5
 3049 0e54 0130A083 		movhi	r3, #1
 3050 0e58 0030A093 		movls	r3, #0
 3051 0e5c 050057E1 		cmp	r7, r5
 3052 0e60 0030A083 		movhi	r3, #0
 3053 0e64 000053E3 		cmp	r3, #0
 3054 0e68 F3FFFF0A 		beq	.L215
 364:/home/hkh/git/eapidk-code-r76-trunk/apps/EeePProg/linux/../BinFuncs.c ****           }else{
 3055              		.loc 1 364 13 is_stmt 1 view .LVU1208
 364:/home/hkh/git/eapidk-code-r76-trunk/apps/EeePProg/linux/../BinFuncs.c ****           }else{
 3056              		.loc 1 364 55 is_stmt 0 view .LVU1209
 3057 0e6c 0000D5E5 		ldrb	r0, [r5]	@ zero_extendqisi2
 3058              	.LVL234:
 3059              	.LBB150:
 3060              	.LBI150:
 225:/home/hkh/git/eapidk-code-r76-trunk/apps/EeePProg/linux/../BinFuncs.c ****     __IN  unsigned int uiValue
 3061              		.loc 1 225 1 is_stmt 1 view .LVU1210
 3062              	.LBB151:
 229:/home/hkh/git/eapidk-code-r76-trunk/apps/EeePProg/linux/../BinFuncs.c ****     return (char)(uiValue);
ARM GAS  /tmp/ccf3bFwG.s 			page 86


 3063              		.loc 1 229 3 view .LVU1211
 229:/home/hkh/git/eapidk-code-r76-trunk/apps/EeePProg/linux/../BinFuncs.c ****     return (char)(uiValue);
 3064              		.loc 1 229 19 is_stmt 0 view .LVU1212
 3065 0e70 203040E2 		sub	r3, r0, #32
 229:/home/hkh/git/eapidk-code-r76-trunk/apps/EeePProg/linux/../BinFuncs.c ****     return (char)(uiValue);
 3066              		.loc 1 229 5 view .LVU1213
 3067 0e74 600053E3 		cmp	r3, #96
 3068              	.LBE151:
 3069              	.LBE150:
 364:/home/hkh/git/eapidk-code-r76-trunk/apps/EeePProg/linux/../BinFuncs.c ****           }else{
 3070              		.loc 1 364 13 view .LVU1214
 3071 0e78 2E00A023 		movcs	r0, #46
 3072 0e7c FEFFFFEB 		bl	putchar(PLT)
 3073              	.LVL235:
 3074 0e80 EFFFFFEA 		b	.L217
 3075              	.LVL236:
 3076              	.L196:
 275:/home/hkh/git/eapidk-code-r76-trunk/apps/EeePProg/linux/../BinFuncs.c ****     size_t        stOffset;
 3077              		.loc 1 275 16 view .LVU1215
 3078 0e84 0000A0E3 		mov	r0, #0
 3079              	.LVL237:
 3080              	.L189:
 274:/home/hkh/git/eapidk-code-r76-trunk/apps/EeePProg/linux/../BinFuncs.c ****   EApiStatus_t StatusCode=EAPI_STATUS_SUCCESS;
 3081              		.loc 1 274 1 view .LVU1216
 3082 0e88 DC209FE5 		ldr	r2, .L254+44
 375:/home/hkh/git/eapidk-code-r76-trunk/apps/EeePProg/linux/../BinFuncs.c **** 
 3083              		.loc 1 375 1 view .LVU1217
 3084 0e8c B0309FE5 		ldr	r3, .L254+4
 274:/home/hkh/git/eapidk-code-r76-trunk/apps/EeePProg/linux/../BinFuncs.c ****   EApiStatus_t StatusCode=EAPI_STATUS_SUCCESS;
 3085              		.loc 1 274 1 view .LVU1218
 3086              	.LPIC63:
 3087 0e90 02208FE0 		add	r2, pc, r2
 375:/home/hkh/git/eapidk-code-r76-trunk/apps/EeePProg/linux/../BinFuncs.c **** 
 3088              		.loc 1 375 1 view .LVU1219
 3089 0e94 033092E7 		ldr	r3, [r2, r3]
 3090 0e98 002093E5 		ldr	r2, [r3]
 3091 0e9c BC309DE5 		ldr	r3, [sp, #188]
 3092 0ea0 022033E0 		eors	r2, r3, r2
 3093 0ea4 0030A0E3 		mov	r3, #0
 3094 0ea8 2300001A 		bne	.L253
 3095 0eac C4D08DE2 		add	sp, sp, #196
 3096              		.cfi_remember_state
 3097              		.cfi_def_cfa_offset 36
 3098              		@ sp needed
 3099 0eb0 F08FBDE8 		pop	{r4, r5, r6, r7, r8, r9, r10, fp, pc}
 3100              	.LVL238:
 3101              	.L247:
 3102              		.cfi_restore_state
 306:/home/hkh/git/eapidk-code-r76-trunk/apps/EeePProg/linux/../BinFuncs.c **** 
 3103              		.loc 1 306 7 is_stmt 1 view .LVU1220
 3104 0eb4 B4009FE5 		ldr	r0, .L254+48
 3105 0eb8 0520A0E1 		mov	r2, r5
 3106 0ebc 0610A0E1 		mov	r1, r6
 3107              	.LPIC53:
 3108 0ec0 00008FE0 		add	r0, pc, r0
 3109 0ec4 FEFFFFEB 		bl	printf(PLT)
 3110              	.LVL239:
ARM GAS  /tmp/ccf3bFwG.s 			page 87


 3111 0ec8 23FFFFEA 		b	.L194
 3112              	.LVL240:
 3113              	.L252:
 328:/home/hkh/git/eapidk-code-r76-trunk/apps/EeePProg/linux/../BinFuncs.c ****               EAPI_printf(TEXT("%lX"), (((unsigned long)stOffset)&0xF));
 3114              		.loc 1 328 36 view .LVU1221
 3115 0ecc 10709DE5 		ldr	r7, [sp, #16]
 3116 0ed0 000057E3 		cmp	r7, #0
 3117 0ed4 D0FFFF0A 		beq	.L202
 329:/home/hkh/git/eapidk-code-r76-trunk/apps/EeePProg/linux/../BinFuncs.c ****             }
 3118              		.loc 1 329 15 is_stmt 0 view .LVU1222
 3119 0ed8 94409FE5 		ldr	r4, .L254+52
 3120              	.LPIC57:
 3121 0edc 04408FE0 		add	r4, pc, r4
 3122              	.LVL241:
 3123              	.L203:
 329:/home/hkh/git/eapidk-code-r76-trunk/apps/EeePProg/linux/../BinFuncs.c ****             }
 3124              		.loc 1 329 15 is_stmt 1 discriminator 3 view .LVU1223
 3125 0ee0 0F1005E2 		and	r1, r5, #15
 3126 0ee4 0400A0E1 		mov	r0, r4
 328:/home/hkh/git/eapidk-code-r76-trunk/apps/EeePProg/linux/../BinFuncs.c ****               EAPI_printf(TEXT("%lX"), (((unsigned long)stOffset)&0xF));
 3127              		.loc 1 328 57 is_stmt 0 discriminator 3 view .LVU1224
 3128 0ee8 015085E2 		add	r5, r5, #1
 3129              	.LVL242:
 329:/home/hkh/git/eapidk-code-r76-trunk/apps/EeePProg/linux/../BinFuncs.c ****             }
 3130              		.loc 1 329 15 discriminator 3 view .LVU1225
 3131 0eec FEFFFFEB 		bl	printf(PLT)
 3132              	.LVL243:
 328:/home/hkh/git/eapidk-code-r76-trunk/apps/EeePProg/linux/../BinFuncs.c ****               EAPI_printf(TEXT("%lX"), (((unsigned long)stOffset)&0xF));
 3133              		.loc 1 328 57 is_stmt 1 discriminator 3 view .LVU1226
 328:/home/hkh/git/eapidk-code-r76-trunk/apps/EeePProg/linux/../BinFuncs.c ****               EAPI_printf(TEXT("%lX"), (((unsigned long)stOffset)&0xF));
 3134              		.loc 1 328 36 discriminator 3 view .LVU1227
 3135 0ef0 050057E1 		cmp	r7, r5
 3136 0ef4 F9FFFF1A 		bne	.L203
 3137 0ef8 C7FFFFEA 		b	.L202
 3138              	.LVL244:
 3139              	.L246:
 286:/home/hkh/git/eapidk-code-r76-trunk/apps/EeePProg/linux/../BinFuncs.c ****         PrintHexAsciiTableEx,
 3140              		.loc 1 286 5 discriminator 1 view .LVU1228
 286:/home/hkh/git/eapidk-code-r76-trunk/apps/EeePProg/linux/../BinFuncs.c ****         PrintHexAsciiTableEx,
 3141              		.loc 1 286 5 discriminator 1 view .LVU1229
 3142 0efc 74C09FE5 		ldr	ip, .L254+56
 3143 0f00 014CE0E3 		mvn	r4, #256
 3144 0f04 70009FE5 		ldr	r0, .L254+60
 3145 0f08 1E3100E3 		movw	r3, #286
 3146 0f0c 6C209FE5 		ldr	r2, .L254+64
 3147              	.LVL245:
 286:/home/hkh/git/eapidk-code-r76-trunk/apps/EeePProg/linux/../BinFuncs.c ****         PrintHexAsciiTableEx,
 3148              		.loc 1 286 5 is_stmt 0 discriminator 1 view .LVU1230
 3149 0f10 6C109FE5 		ldr	r1, .L254+68
 3150              	.LVL246:
 286:/home/hkh/git/eapidk-code-r76-trunk/apps/EeePProg/linux/../BinFuncs.c ****         PrintHexAsciiTableEx,
 3151              		.loc 1 286 5 discriminator 1 view .LVU1231
 3152              	.LPIC50:
 3153 0f14 0CC08FE0 		add	ip, pc, ip
 3154              	.LPIC51:
 3155 0f18 00008FE0 		add	r0, pc, r0
 3156 0f1c 00408DE5 		str	r4, [sp]
ARM GAS  /tmp/ccf3bFwG.s 			page 88


 3157 0f20 01108DE9 		stmib	sp, {r0, ip}
 3158              	.LPIC48:
 3159 0f24 02208FE0 		add	r2, pc, r2
 3160              	.LPIC49:
 3161 0f28 01108FE0 		add	r1, pc, r1
 3162 0f2c 4500A0E3 		mov	r0, #69
 3163 0f30 FEFFFFEB 		bl	siFormattedMessage_SC(PLT)
 3164              	.LVL247:
 286:/home/hkh/git/eapidk-code-r76-trunk/apps/EeePProg/linux/../BinFuncs.c ****         PrintHexAsciiTableEx,
 3165              		.loc 1 286 5 is_stmt 1 discriminator 1 view .LVU1232
 286:/home/hkh/git/eapidk-code-r76-trunk/apps/EeePProg/linux/../BinFuncs.c ****         PrintHexAsciiTableEx,
 3166              		.loc 1 286 5 discriminator 1 view .LVU1233
 286:/home/hkh/git/eapidk-code-r76-trunk/apps/EeePProg/linux/../BinFuncs.c ****         PrintHexAsciiTableEx,
 3167              		.loc 1 286 5 discriminator 1 view .LVU1234
 3168 0f34 0400A0E1 		mov	r0, r4
 3169 0f38 D2FFFFEA 		b	.L189
 3170              	.LVL248:
 3171              	.L253:
 375:/home/hkh/git/eapidk-code-r76-trunk/apps/EeePProg/linux/../BinFuncs.c **** 
 3172              		.loc 1 375 1 is_stmt 0 view .LVU1235
 3173 0f3c FEFFFFEB 		bl	__stack_chk_fail(PLT)
 3174              	.LVL249:
 3175              	.L255:
 3176              		.align	2
 3177              	.L254:
 3178 0f40 30040000 		.word	_GLOBAL_OFFSET_TABLE_-(.LPIC64+8)
 3179 0f44 00000000 		.word	__stack_chk_guard(GOT)
 3180 0f48 F4030000 		.word	.LC17-(.LPIC52+8)
 3181 0f4c 80030000 		.word	.LC20-(.LPIC55+8)
 3182 0f50 78030000 		.word	.LC21-(.LPIC56+8)
 3183 0f54 70030000 		.word	.LC24-(.LPIC61+8)
 3184 0f58 68030000 		.word	.LC25-(.LPIC62+8)
 3185 0f5c 00030000 		.word	.LC23-(.LPIC60+8)
 3186 0f60 88020000 		.word	.LC15-(.LPIC58+8)
 3187 0f64 40020000 		.word	.LC15-(.LPIC59+8)
 3188 0f68 DC010000 		.word	.LC19-(.LPIC54+8)
 3189 0f6c D4000000 		.word	_GLOBAL_OFFSET_TABLE_-(.LPIC63+8)
 3190 0f70 A8000000 		.word	.LC18-(.LPIC53+8)
 3191 0f74 90000000 		.word	.LC22-(.LPIC57+8)
 3192 0f78 5C000000 		.word	.LC2-(.LPIC50+8)
 3193 0f7c 5C000000 		.word	.LC3-(.LPIC51+8)
 3194 0f80 54000000 		.word	.LC16-(.LPIC48+8)
 3195 0f84 54000000 		.word	.LC1-(.LPIC49+8)
 3196              		.cfi_endproc
 3197              	.LFE11:
 3199              		.align	2
 3200              		.global	PrintHexAsciiTable
 3201              		.syntax unified
 3202              		.arm
 3203              		.fpu vfpv3
 3205              	PrintHexAsciiTable:
 3206              	.LVL250:
 3207              	.LFB12:
 384:/home/hkh/git/eapidk-code-r76-trunk/apps/EeePProg/linux/../BinFuncs.c ****   PrintHexAsciiTableEx(
 3208              		.loc 1 384 1 is_stmt 1 view -0
 3209              		.cfi_startproc
 3210              		@ args = 0, pretend = 0, frame = 128
ARM GAS  /tmp/ccf3bFwG.s 			page 89


 3211              		@ frame_needed = 0, uses_anonymous_args = 0
 384:/home/hkh/git/eapidk-code-r76-trunk/apps/EeePProg/linux/../BinFuncs.c ****   PrintHexAsciiTableEx(
 3212              		.loc 1 384 1 is_stmt 0 view .LVU1237
 3213 0f88 F04F2DE9 		push	{r4, r5, r6, r7, r8, r9, r10, fp, lr}
 3214              		.cfi_def_cfa_offset 36
 3215              		.cfi_offset 4, -36
 3216              		.cfi_offset 5, -32
 3217              		.cfi_offset 6, -28
 3218              		.cfi_offset 7, -24
 3219              		.cfi_offset 8, -20
 3220              		.cfi_offset 9, -16
 3221              		.cfi_offset 10, -12
 3222              		.cfi_offset 11, -8
 3223              		.cfi_offset 14, -4
 3224              	.LBB160:
 3225              	.LBB161:
 286:/home/hkh/git/eapidk-code-r76-trunk/apps/EeePProg/linux/../BinFuncs.c ****         PrintHexAsciiTableEx,
 3226              		.loc 1 286 5 view .LVU1238
 3227 0f8c 008050E2 		subs	r8, r0, #0
 3228              	.LBE161:
 3229              	.LBE160:
 384:/home/hkh/git/eapidk-code-r76-trunk/apps/EeePProg/linux/../BinFuncs.c ****   PrintHexAsciiTableEx(
 3230              		.loc 1 384 1 view .LVU1239
 3231 0f90 A8029FE5 		ldr	r0, .L290
 3232              	.LVL251:
 384:/home/hkh/git/eapidk-code-r76-trunk/apps/EeePProg/linux/../BinFuncs.c ****   PrintHexAsciiTableEx(
 3233              		.loc 1 384 1 view .LVU1240
 3234 0f94 0160A0E1 		mov	r6, r1
 3235 0f98 0310A0E1 		mov	r1, r3
 3236              	.LVL252:
 384:/home/hkh/git/eapidk-code-r76-trunk/apps/EeePProg/linux/../BinFuncs.c ****   PrintHexAsciiTableEx(
 3237              		.loc 1 384 1 view .LVU1241
 3238 0f9c 94D04DE2 		sub	sp, sp, #148
 3239              		.cfi_def_cfa_offset 184
 384:/home/hkh/git/eapidk-code-r76-trunk/apps/EeePProg/linux/../BinFuncs.c ****   PrintHexAsciiTableEx(
 3240              		.loc 1 384 1 view .LVU1242
 3241 0fa0 9C329FE5 		ldr	r3, .L290+4
 3242              	.LVL253:
 384:/home/hkh/git/eapidk-code-r76-trunk/apps/EeePProg/linux/../BinFuncs.c ****   PrintHexAsciiTableEx(
 3243              		.loc 1 384 1 view .LVU1243
 3244              	.LPIC80:
 3245 0fa4 00008FE0 		add	r0, pc, r0
 3246 0fa8 18208DE5 		str	r2, [sp, #24]
 3247 0fac 033090E7 		ldr	r3, [r0, r3]
 3248 0fb0 003093E5 		ldr	r3, [r3]
 3249 0fb4 8C308DE5 		str	r3, [sp, #140]
 3250 0fb8 0030A0E3 		mov	r3, #0
 385:/home/hkh/git/eapidk-code-r76-trunk/apps/EeePProg/linux/../BinFuncs.c ****       pcvBuffer           ,
 3251              		.loc 1 385 3 is_stmt 1 view .LVU1244
 3252              	.LVL254:
 3253              	.LBB171:
 3254              	.LBI160:
 267:/home/hkh/git/eapidk-code-r76-trunk/apps/EeePProg/linux/../BinFuncs.c **** 	const void *   pcvBuffer	,
 3255              		.loc 1 267 1 view .LVU1245
 3256              	.LBB170:
 275:/home/hkh/git/eapidk-code-r76-trunk/apps/EeePProg/linux/../BinFuncs.c ****     size_t        stOffset;
 3257              		.loc 1 275 3 view .LVU1246
ARM GAS  /tmp/ccf3bFwG.s 			page 90


 276:/home/hkh/git/eapidk-code-r76-trunk/apps/EeePProg/linux/../BinFuncs.c ****     size_t        stOffsetBase;
 3258              		.loc 1 276 5 view .LVU1247
 277:/home/hkh/git/eapidk-code-r76-trunk/apps/EeePProg/linux/../BinFuncs.c ****     const uint8_t *pcu8Mem;
 3259              		.loc 1 277 5 view .LVU1248
 278:/home/hkh/git/eapidk-code-r76-trunk/apps/EeePProg/linux/../BinFuncs.c ****     const uint8_t *pcu8PageEnd;
 3260              		.loc 1 278 5 view .LVU1249
 279:/home/hkh/git/eapidk-code-r76-trunk/apps/EeePProg/linux/../BinFuncs.c ****     size_t        stElementSize;
 3261              		.loc 1 279 5 view .LVU1250
 280:/home/hkh/git/eapidk-code-r76-trunk/apps/EeePProg/linux/../BinFuncs.c ****     size_t        stElementCount;
 3262              		.loc 1 280 5 view .LVU1251
 281:/home/hkh/git/eapidk-code-r76-trunk/apps/EeePProg/linux/../BinFuncs.c ****     size_t        stRowSize;
 3263              		.loc 1 281 5 view .LVU1252
 282:/home/hkh/git/eapidk-code-r76-trunk/apps/EeePProg/linux/../BinFuncs.c ****     TCHAR  szAsciiBufer[100];
 3264              		.loc 1 282 5 view .LVU1253
 283:/home/hkh/git/eapidk-code-r76-trunk/apps/EeePProg/linux/../BinFuncs.c **** 
 3265              		.loc 1 283 5 view .LVU1254
 286:/home/hkh/git/eapidk-code-r76-trunk/apps/EeePProg/linux/../BinFuncs.c ****         PrintHexAsciiTableEx,
 3266              		.loc 1 286 5 view .LVU1255
 3267 0fbc 8500000A 		beq	.L285
 286:/home/hkh/git/eapidk-code-r76-trunk/apps/EeePProg/linux/../BinFuncs.c ****         PrintHexAsciiTableEx,
 3268              		.loc 1 286 5 view .LVU1256
 290:/home/hkh/git/eapidk-code-r76-trunk/apps/EeePProg/linux/../BinFuncs.c ****     if(pcvBase==NULL)
 3269              		.loc 1 290 10 view .LVU1257
 291:/home/hkh/git/eapidk-code-r76-trunk/apps/EeePProg/linux/../BinFuncs.c ****       pcvBase=pcvBuffer;
 3270              		.loc 1 291 5 view .LVU1258
 291:/home/hkh/git/eapidk-code-r76-trunk/apps/EeePProg/linux/../BinFuncs.c ****       pcvBase=pcvBuffer;
 3271              		.loc 1 291 7 is_stmt 0 view .LVU1259
 3272 0fc0 000052E3 		cmp	r2, #0
 303:/home/hkh/git/eapidk-code-r76-trunk/apps/EeePProg/linux/../BinFuncs.c **** 
 3273              		.loc 1 303 35 view .LVU1260
 3274 0fc4 02504810 		subne	r5, r8, r2
 3275 0fc8 0250A001 		moveq	r5, r2
 294:/home/hkh/git/eapidk-code-r76-trunk/apps/EeePProg/linux/../BinFuncs.c **** 
 3276              		.loc 1 294 5 is_stmt 1 view .LVU1261
 3277              	.LVL255:
 296:/home/hkh/git/eapidk-code-r76-trunk/apps/EeePProg/linux/../BinFuncs.c ****     stElementCount=cuiFlags&HEXTBL_COUNT_MASK;
 3278              		.loc 1 296 5 view .LVU1262
 297:/home/hkh/git/eapidk-code-r76-trunk/apps/EeePProg/linux/../BinFuncs.c ****     stRowSize=stElementCount*stElementSize;
 3279              		.loc 1 297 5 view .LVU1263
 298:/home/hkh/git/eapidk-code-r76-trunk/apps/EeePProg/linux/../BinFuncs.c ****     pcu8PageEnd=((const uint8_t *)pcvBuffer)+stBufSize;
 3280              		.loc 1 298 5 view .LVU1264
 299:/home/hkh/git/eapidk-code-r76-trunk/apps/EeePProg/linux/../BinFuncs.c **** 
 3281              		.loc 1 299 5 view .LVU1265
 301:/home/hkh/git/eapidk-code-r76-trunk/apps/EeePProg/linux/../BinFuncs.c ****       EAPI_printf(TEXT("\n%s\n"), pcszDescription);
 3282              		.loc 1 301 5 view .LVU1266
 3283 0fcc 18808D05 		streq	r8, [sp, #24]
 301:/home/hkh/git/eapidk-code-r76-trunk/apps/EeePProg/linux/../BinFuncs.c ****       EAPI_printf(TEXT("\n%s\n"), pcszDescription);
 3284              		.loc 1 301 7 is_stmt 0 view .LVU1267
 3285 0fd0 000051E3 		cmp	r1, #0
 3286 0fd4 0200000A 		beq	.L260
 302:/home/hkh/git/eapidk-code-r76-trunk/apps/EeePProg/linux/../BinFuncs.c ****     stOffset=((uint8_t*)pcvBuffer)- pcu8Mem;
 3287              		.loc 1 302 7 is_stmt 1 view .LVU1268
 3288 0fd8 68029FE5 		ldr	r0, .L290+8
 3289              	.LPIC69:
 3290 0fdc 00008FE0 		add	r0, pc, r0
 3291 0fe0 FEFFFFEB 		bl	printf(PLT)
 3292              	.LVL256:
ARM GAS  /tmp/ccf3bFwG.s 			page 91


 3293              	.L260:
 303:/home/hkh/git/eapidk-code-r76-trunk/apps/EeePProg/linux/../BinFuncs.c **** 
 3294              		.loc 1 303 5 view .LVU1269
 305:/home/hkh/git/eapidk-code-r76-trunk/apps/EeePProg/linux/../BinFuncs.c ****       EAPI_printf(TEXT("\n\tOFFSET = 0x%08lX, LENGTH = 0x%08lX\n"), (unsigned long)stOffset, (unsig
 3295              		.loc 1 305 5 view .LVU1270
 306:/home/hkh/git/eapidk-code-r76-trunk/apps/EeePProg/linux/../BinFuncs.c **** 
 3296              		.loc 1 306 7 view .LVU1271
 3297 0fe4 60029FE5 		ldr	r0, .L290+12
 3298 0fe8 0620A0E1 		mov	r2, r6
 3299 0fec 0510A0E1 		mov	r1, r5
 3300              	.LPIC70:
 3301 0ff0 00008FE0 		add	r0, pc, r0
 3302 0ff4 FEFFFFEB 		bl	printf(PLT)
 3303              	.LVL257:
 308:/home/hkh/git/eapidk-code-r76-trunk/apps/EeePProg/linux/../BinFuncs.c **** 
 3304              		.loc 1 308 5 view .LVU1272
 308:/home/hkh/git/eapidk-code-r76-trunk/apps/EeePProg/linux/../BinFuncs.c **** 
 3305              		.loc 1 308 7 is_stmt 0 view .LVU1273
 3306 0ff8 000056E3 		cmp	r6, #0
 3307 0ffc 8300000A 		beq	.L256
 312:/home/hkh/git/eapidk-code-r76-trunk/apps/EeePProg/linux/../BinFuncs.c ****     while(pcu8Mem<pcu8PageEnd)
 3308              		.loc 1 312 26 view .LVU1274
 3309 1000 18309DE5 		ldr	r3, [sp, #24]
 310:/home/hkh/git/eapidk-code-r76-trunk/apps/EeePProg/linux/../BinFuncs.c **** 
 3310              		.loc 1 310 46 view .LVU1275
 3311 1004 0F5005E2 		and	r5, r5, #15
 310:/home/hkh/git/eapidk-code-r76-trunk/apps/EeePProg/linux/../BinFuncs.c **** 
 3312              		.loc 1 310 12 view .LVU1276
 3313 1008 055048E0 		sub	r5, r8, r5
 299:/home/hkh/git/eapidk-code-r76-trunk/apps/EeePProg/linux/../BinFuncs.c **** 
 3314              		.loc 1 299 16 view .LVU1277
 3315 100c 066088E0 		add	r6, r8, r6
 3316              	.LVL258:
 310:/home/hkh/git/eapidk-code-r76-trunk/apps/EeePProg/linux/../BinFuncs.c **** 
 3317              		.loc 1 310 5 is_stmt 1 view .LVU1278
 312:/home/hkh/git/eapidk-code-r76-trunk/apps/EeePProg/linux/../BinFuncs.c ****     while(pcu8Mem<pcu8PageEnd)
 3318              		.loc 1 312 5 view .LVU1279
 313:/home/hkh/git/eapidk-code-r76-trunk/apps/EeePProg/linux/../BinFuncs.c ****     {
 3319              		.loc 1 313 18 is_stmt 0 view .LVU1280
 3320 1010 050056E1 		cmp	r6, r5
 312:/home/hkh/git/eapidk-code-r76-trunk/apps/EeePProg/linux/../BinFuncs.c ****     while(pcu8Mem<pcu8PageEnd)
 3321              		.loc 1 312 26 view .LVU1281
 3322 1014 039045E0 		sub	r9, r5, r3
 3323 1018 1C908DE5 		str	r9, [sp, #28]
 3324              	.LVL259:
 313:/home/hkh/git/eapidk-code-r76-trunk/apps/EeePProg/linux/../BinFuncs.c ****     {
 3325              		.loc 1 313 5 is_stmt 1 view .LVU1282
 313:/home/hkh/git/eapidk-code-r76-trunk/apps/EeePProg/linux/../BinFuncs.c ****     {
 3326              		.loc 1 313 18 view .LVU1283
 3327 101c 7B00009A 		bls	.L256
 315:/home/hkh/git/eapidk-code-r76-trunk/apps/EeePProg/linux/../BinFuncs.c ****       if(!((stOffset - stOffsetBase)%(stRowSize*16))){
 3328              		.loc 1 315 7 view .LVU1284
 3329              	.LVL260:
 316:/home/hkh/git/eapidk-code-r76-trunk/apps/EeePProg/linux/../BinFuncs.c ****         /*
 3330              		.loc 1 316 7 view .LVU1285
 322:/home/hkh/git/eapidk-code-r76-trunk/apps/EeePProg/linux/../BinFuncs.c ****         if(cuiFlags&HEXTBL_OFFSET_COUNT){
 3331              		.loc 1 322 11 is_stmt 0 view .LVU1286
ARM GAS  /tmp/ccf3bFwG.s 			page 92


 3332 1020 28329FE5 		ldr	r3, .L290+16
 3333 1024 10B085E2 		add	fp, r5, #16
 3334 1028 0B70A0E1 		mov	r7, fp
 3335              	.LPIC71:
 3336 102c 03308FE0 		add	r3, pc, r3
 3337 1030 24308DE5 		str	r3, [sp, #36]
 3338              	.LBB162:
 3339              	.LBB163:
 248:/home/hkh/git/eapidk-code-r76-trunk/apps/EeePProg/linux/../BinFuncs.c ****             pszString+StringPos   ,
 3340              		.loc 1 248 20 view .LVU1287
 3341 1034 18329FE5 		ldr	r3, .L290+20
 3342              	.LPIC77:
 3343 1038 03308FE0 		add	r3, pc, r3
 3344 103c 10308DE5 		str	r3, [sp, #16]
 3345              	.LBE163:
 3346              	.LBE162:
 352:/home/hkh/git/eapidk-code-r76-trunk/apps/EeePProg/linux/../BinFuncs.c ****         }else{
 3347              		.loc 1 352 11 view .LVU1288
 3348 1040 10329FE5 		ldr	r3, .L290+24
 3349              	.LPIC78:
 3350 1044 03308FE0 		add	r3, pc, r3
 3351 1048 14308DE5 		str	r3, [sp, #20]
 316:/home/hkh/git/eapidk-code-r76-trunk/apps/EeePProg/linux/../BinFuncs.c ****         /*
 3352              		.loc 1 316 22 view .LVU1289
 3353 104c 1C309DE5 		ldr	r3, [sp, #28]
 3354 1050 034049E0 		sub	r4, r9, r3
 316:/home/hkh/git/eapidk-code-r76-trunk/apps/EeePProg/linux/../BinFuncs.c ****         /*
 3355              		.loc 1 316 9 view .LVU1290
 3356 1054 FF4014E2 		ands	r4, r4, #255
 3357 1058 4100000A 		beq	.L286
 3358              	.LVL261:
 3359              	.L263:
 336:/home/hkh/git/eapidk-code-r76-trunk/apps/EeePProg/linux/../BinFuncs.c ****         EAPI_printf(TEXT("%08lX ") , (unsigned long)stOffset);
 3360              		.loc 1 336 7 is_stmt 1 view .LVU1291
 337:/home/hkh/git/eapidk-code-r76-trunk/apps/EeePProg/linux/../BinFuncs.c **** 
 3361              		.loc 1 337 9 view .LVU1292
 3362 105c F8019FE5 		ldr	r0, .L290+28
 3363 1060 0910A0E1 		mov	r1, r9
 354:/home/hkh/git/eapidk-code-r76-trunk/apps/EeePProg/linux/../BinFuncs.c ****         }
 3364              		.loc 1 354 11 is_stmt 0 view .LVU1293
 3365 1064 F4A19FE5 		ldr	r10, .L290+32
 337:/home/hkh/git/eapidk-code-r76-trunk/apps/EeePProg/linux/../BinFuncs.c **** 
 3366              		.loc 1 337 9 view .LVU1294
 3367 1068 0540A0E1 		mov	r4, r5
 3368              	.LPIC74:
 3369 106c 00008FE0 		add	r0, pc, r0
 354:/home/hkh/git/eapidk-code-r76-trunk/apps/EeePProg/linux/../BinFuncs.c ****         }
 3370              		.loc 1 354 11 view .LVU1295
 3371              	.LPIC75:
 3372 1070 0AA08FE0 		add	r10, pc, r10
 337:/home/hkh/git/eapidk-code-r76-trunk/apps/EeePProg/linux/../BinFuncs.c **** 
 3373              		.loc 1 337 9 view .LVU1296
 3374 1074 FEFFFFEB 		bl	printf(PLT)
 3375              	.LVL262:
 342:/home/hkh/git/eapidk-code-r76-trunk/apps/EeePProg/linux/../BinFuncs.c ****       {
 3376              		.loc 1 342 31 is_stmt 1 view .LVU1297
 3377 1078 070000EA 		b	.L267
ARM GAS  /tmp/ccf3bFwG.s 			page 93


 3378              	.LVL263:
 3379              	.L287:
 354:/home/hkh/git/eapidk-code-r76-trunk/apps/EeePProg/linux/../BinFuncs.c ****         }
 3380              		.loc 1 354 11 view .LVU1298
 3381 107c E0019FE5 		ldr	r0, .L290+36
 3382 1080 0A20A0E1 		mov	r2, r10
 3383 1084 0210A0E3 		mov	r1, #2
 3384              	.LPIC76:
 3385 1088 00008FE0 		add	r0, pc, r0
 3386 108c FEFFFFEB 		bl	printf(PLT)
 3387              	.LVL264:
 3388              	.L273:
 342:/home/hkh/git/eapidk-code-r76-trunk/apps/EeePProg/linux/../BinFuncs.c ****       {
 3389              		.loc 1 342 51 view .LVU1299
 342:/home/hkh/git/eapidk-code-r76-trunk/apps/EeePProg/linux/../BinFuncs.c ****       {
 3390              		.loc 1 342 31 view .LVU1300
 3391 1090 014084E2 		add	r4, r4, #1
 342:/home/hkh/git/eapidk-code-r76-trunk/apps/EeePProg/linux/../BinFuncs.c ****       {
 3392              		.loc 1 342 31 is_stmt 0 view .LVU1301
 3393 1094 040057E1 		cmp	r7, r4
 3394 1098 1500000A 		beq	.L271
 3395              	.L267:
 344:/home/hkh/git/eapidk-code-r76-trunk/apps/EeePProg/linux/../BinFuncs.c ****           siBin2Ascii(
 3396              		.loc 1 344 9 is_stmt 1 view .LVU1302
 344:/home/hkh/git/eapidk-code-r76-trunk/apps/EeePProg/linux/../BinFuncs.c ****           siBin2Ascii(
 3397              		.loc 1 344 44 is_stmt 0 view .LVU1303
 3398 109c 040058E1 		cmp	r8, r4
 3399 10a0 0130A093 		movls	r3, #1
 3400 10a4 0030A083 		movhi	r3, #0
 3401 10a8 040056E1 		cmp	r6, r4
 3402 10ac 0030A093 		movls	r3, #0
 3403 10b0 000053E3 		cmp	r3, #0
 3404 10b4 F0FFFF0A 		beq	.L287
 3405              	.L258:
 3406              	.LVL265:
 3407              	.LBB165:
 3408              	.LBB164:
 246:/home/hkh/git/eapidk-code-r76-trunk/apps/EeePProg/linux/../BinFuncs.c ****       if(cFlags&HEXTBL_BIG_ENDIAN){
 3409              		.loc 1 246 24 is_stmt 1 view .LVU1304
 247:/home/hkh/git/eapidk-code-r76-trunk/apps/EeePProg/linux/../BinFuncs.c ****         StringPos+=EApiSprintf(
 3410              		.loc 1 247 7 view .LVU1305
 248:/home/hkh/git/eapidk-code-r76-trunk/apps/EeePProg/linux/../BinFuncs.c ****             pszString+StringPos   ,
 3411              		.loc 1 248 9 view .LVU1306
 248:/home/hkh/git/eapidk-code-r76-trunk/apps/EeePProg/linux/../BinFuncs.c ****             pszString+StringPos   ,
 3412              		.loc 1 248 20 is_stmt 0 view .LVU1307
 3413 10b8 28908DE2 		add	r9, sp, #40
 3414 10bc 0030D4E5 		ldrb	r3, [r4]	@ zero_extendqisi2
 3415 10c0 10209DE5 		ldr	r2, [sp, #16]
 3416 10c4 0900A0E1 		mov	r0, r9
 3417 10c8 6410A0E3 		mov	r1, #100
 3418 10cc FEFFFFEB 		bl	EApiSprintf(PLT)
 3419              	.LVL266:
 246:/home/hkh/git/eapidk-code-r76-trunk/apps/EeePProg/linux/../BinFuncs.c ****       if(cFlags&HEXTBL_BIG_ENDIAN){
 3420              		.loc 1 246 39 is_stmt 1 view .LVU1308
 246:/home/hkh/git/eapidk-code-r76-trunk/apps/EeePProg/linux/../BinFuncs.c ****       if(cFlags&HEXTBL_BIG_ENDIAN){
 3421              		.loc 1 246 24 view .LVU1309
 263:/home/hkh/git/eapidk-code-r76-trunk/apps/EeePProg/linux/../BinFuncs.c **** }
ARM GAS  /tmp/ccf3bFwG.s 			page 94


 3422              		.loc 1 263 5 view .LVU1310
 263:/home/hkh/git/eapidk-code-r76-trunk/apps/EeePProg/linux/../BinFuncs.c **** }
 3423              		.loc 1 263 5 is_stmt 0 view .LVU1311
 3424              	.LBE164:
 3425              	.LBE165:
 352:/home/hkh/git/eapidk-code-r76-trunk/apps/EeePProg/linux/../BinFuncs.c ****         }else{
 3426              		.loc 1 352 11 is_stmt 1 view .LVU1312
 3427 10d0 14009DE5 		ldr	r0, [sp, #20]
 3428 10d4 0910A0E1 		mov	r1, r9
 3429 10d8 FEFFFFEB 		bl	printf(PLT)
 3430              	.LVL267:
 3431 10dc EBFFFFEA 		b	.L273
 3432              	.L268:
 366:/home/hkh/git/eapidk-code-r76-trunk/apps/EeePProg/linux/../BinFuncs.c ****           }
 3433              		.loc 1 366 13 view .LVU1313
 3434 10e0 2000A0E3 		mov	r0, #32
 361:/home/hkh/git/eapidk-code-r76-trunk/apps/EeePProg/linux/../BinFuncs.c ****         {
 3435              		.loc 1 361 32 is_stmt 0 view .LVU1314
 3436 10e4 015085E2 		add	r5, r5, #1
 366:/home/hkh/git/eapidk-code-r76-trunk/apps/EeePProg/linux/../BinFuncs.c ****           }
 3437              		.loc 1 366 13 view .LVU1315
 3438 10e8 FEFFFFEB 		bl	putchar(PLT)
 3439              	.LVL268:
 361:/home/hkh/git/eapidk-code-r76-trunk/apps/EeePProg/linux/../BinFuncs.c ****         {
 3440              		.loc 1 361 51 is_stmt 1 view .LVU1316
 361:/home/hkh/git/eapidk-code-r76-trunk/apps/EeePProg/linux/../BinFuncs.c ****         {
 3441              		.loc 1 361 32 view .LVU1317
 3442 10ec 050057E1 		cmp	r7, r5
 3443 10f0 0E00000A 		beq	.L288
 3444              	.L271:
 363:/home/hkh/git/eapidk-code-r76-trunk/apps/EeePProg/linux/../BinFuncs.c ****             EAPI_printf(TEXT("%c"), cBin2Ascii(pcu8Mem[stOffset]));
 3445              		.loc 1 363 11 view .LVU1318
 363:/home/hkh/git/eapidk-code-r76-trunk/apps/EeePProg/linux/../BinFuncs.c ****             EAPI_printf(TEXT("%c"), cBin2Ascii(pcu8Mem[stOffset]));
 3446              		.loc 1 363 46 is_stmt 0 view .LVU1319
 3447 10f4 050056E1 		cmp	r6, r5
 3448 10f8 0130A083 		movhi	r3, #1
 3449 10fc 0030A093 		movls	r3, #0
 3450 1100 050058E1 		cmp	r8, r5
 3451 1104 0030A083 		movhi	r3, #0
 3452 1108 000053E3 		cmp	r3, #0
 3453 110c F3FFFF0A 		beq	.L268
 364:/home/hkh/git/eapidk-code-r76-trunk/apps/EeePProg/linux/../BinFuncs.c ****           }else{
 3454              		.loc 1 364 13 is_stmt 1 view .LVU1320
 364:/home/hkh/git/eapidk-code-r76-trunk/apps/EeePProg/linux/../BinFuncs.c ****           }else{
 3455              		.loc 1 364 55 is_stmt 0 view .LVU1321
 3456 1110 0000D5E5 		ldrb	r0, [r5]	@ zero_extendqisi2
 3457              	.LVL269:
 3458              	.LBB166:
 3459              	.LBI166:
 225:/home/hkh/git/eapidk-code-r76-trunk/apps/EeePProg/linux/../BinFuncs.c ****     __IN  unsigned int uiValue
 3460              		.loc 1 225 1 is_stmt 1 view .LVU1322
 3461              	.LBB167:
 229:/home/hkh/git/eapidk-code-r76-trunk/apps/EeePProg/linux/../BinFuncs.c ****     return (char)(uiValue);
 3462              		.loc 1 229 3 view .LVU1323
 229:/home/hkh/git/eapidk-code-r76-trunk/apps/EeePProg/linux/../BinFuncs.c ****     return (char)(uiValue);
 3463              		.loc 1 229 3 is_stmt 0 view .LVU1324
 3464              	.LBE167:
ARM GAS  /tmp/ccf3bFwG.s 			page 95


 3465              	.LBE166:
 361:/home/hkh/git/eapidk-code-r76-trunk/apps/EeePProg/linux/../BinFuncs.c ****         {
 3466              		.loc 1 361 32 view .LVU1325
 3467 1114 015085E2 		add	r5, r5, #1
 3468              	.LBB169:
 3469              	.LBB168:
 229:/home/hkh/git/eapidk-code-r76-trunk/apps/EeePProg/linux/../BinFuncs.c ****     return (char)(uiValue);
 3470              		.loc 1 229 19 view .LVU1326
 3471 1118 203040E2 		sub	r3, r0, #32
 229:/home/hkh/git/eapidk-code-r76-trunk/apps/EeePProg/linux/../BinFuncs.c ****     return (char)(uiValue);
 3472              		.loc 1 229 5 view .LVU1327
 3473 111c 600053E3 		cmp	r3, #96
 3474              	.LBE168:
 3475              	.LBE169:
 364:/home/hkh/git/eapidk-code-r76-trunk/apps/EeePProg/linux/../BinFuncs.c ****           }else{
 3476              		.loc 1 364 13 view .LVU1328
 3477 1120 2E00A023 		movcs	r0, #46
 3478 1124 FEFFFFEB 		bl	putchar(PLT)
 3479              	.LVL270:
 361:/home/hkh/git/eapidk-code-r76-trunk/apps/EeePProg/linux/../BinFuncs.c ****         {
 3480              		.loc 1 361 51 is_stmt 1 view .LVU1329
 361:/home/hkh/git/eapidk-code-r76-trunk/apps/EeePProg/linux/../BinFuncs.c ****         {
 3481              		.loc 1 361 32 view .LVU1330
 3482 1128 050057E1 		cmp	r7, r5
 3483 112c F0FFFF1A 		bne	.L271
 3484              	.L288:
 370:/home/hkh/git/eapidk-code-r76-trunk/apps/EeePProg/linux/../BinFuncs.c ****       EAPI_printf(TEXT("\n"));
 3485              		.loc 1 370 7 view .LVU1331
 3486              	.LVL271:
 371:/home/hkh/git/eapidk-code-r76-trunk/apps/EeePProg/linux/../BinFuncs.c ****     }
 3487              		.loc 1 371 7 is_stmt 0 view .LVU1332
 3488 1130 0A00A0E3 		mov	r0, #10
 370:/home/hkh/git/eapidk-code-r76-trunk/apps/EeePProg/linux/../BinFuncs.c ****       EAPI_printf(TEXT("\n"));
 3489              		.loc 1 370 14 view .LVU1333
 3490 1134 0B50A0E1 		mov	r5, fp
 371:/home/hkh/git/eapidk-code-r76-trunk/apps/EeePProg/linux/../BinFuncs.c ****     }
 3491              		.loc 1 371 7 is_stmt 1 view .LVU1334
 3492 1138 FEFFFFEB 		bl	putchar(PLT)
 3493              	.LVL272:
 313:/home/hkh/git/eapidk-code-r76-trunk/apps/EeePProg/linux/../BinFuncs.c ****     {
 3494              		.loc 1 313 18 view .LVU1335
 3495 113c 0B0056E1 		cmp	r6, fp
 3496 1140 107087E2 		add	r7, r7, #16
 3497 1144 3100009A 		bls	.L256
 3498 1148 18309DE5 		ldr	r3, [sp, #24]
 3499 114c 03904BE0 		sub	r9, fp, r3
 316:/home/hkh/git/eapidk-code-r76-trunk/apps/EeePProg/linux/../BinFuncs.c ****         /*
 3500              		.loc 1 316 22 is_stmt 0 view .LVU1336
 3501 1150 1C309DE5 		ldr	r3, [sp, #28]
 3502 1154 10B08BE2 		add	fp, fp, #16
 3503              	.LVL273:
 315:/home/hkh/git/eapidk-code-r76-trunk/apps/EeePProg/linux/../BinFuncs.c ****       if(!((stOffset - stOffsetBase)%(stRowSize*16))){
 3504              		.loc 1 315 7 is_stmt 1 view .LVU1337
 316:/home/hkh/git/eapidk-code-r76-trunk/apps/EeePProg/linux/../BinFuncs.c ****         /*
 3505              		.loc 1 316 7 view .LVU1338
 316:/home/hkh/git/eapidk-code-r76-trunk/apps/EeePProg/linux/../BinFuncs.c ****         /*
 3506              		.loc 1 316 22 is_stmt 0 view .LVU1339
ARM GAS  /tmp/ccf3bFwG.s 			page 96


 3507 1158 034049E0 		sub	r4, r9, r3
 316:/home/hkh/git/eapidk-code-r76-trunk/apps/EeePProg/linux/../BinFuncs.c ****         /*
 3508              		.loc 1 316 9 view .LVU1340
 3509 115c FF4014E2 		ands	r4, r4, #255
 3510 1160 BDFFFF1A 		bne	.L263
 3511              	.LVL274:
 3512              	.L286:
 320:/home/hkh/git/eapidk-code-r76-trunk/apps/EeePProg/linux/../BinFuncs.c ****         if(cuiFlags&HEXTBL_OFFSET_BAR)
 3513              		.loc 1 320 9 is_stmt 1 view .LVU1341
 325:/home/hkh/git/eapidk-code-r76-trunk/apps/EeePProg/linux/../BinFuncs.c ****           }
 3514              		.loc 1 325 13 is_stmt 0 view .LVU1342
 3515 1164 FCA09FE5 		ldr	r10, .L290+40
 320:/home/hkh/git/eapidk-code-r76-trunk/apps/EeePProg/linux/../BinFuncs.c ****         if(cuiFlags&HEXTBL_OFFSET_BAR)
 3516              		.loc 1 320 9 view .LVU1343
 3517 1168 0A00A0E3 		mov	r0, #10
 3518 116c FEFFFFEB 		bl	putchar(PLT)
 3519              	.LVL275:
 321:/home/hkh/git/eapidk-code-r76-trunk/apps/EeePProg/linux/../BinFuncs.c ****           EAPI_printf(TEXT("         "));
 3520              		.loc 1 321 9 is_stmt 1 view .LVU1344
 322:/home/hkh/git/eapidk-code-r76-trunk/apps/EeePProg/linux/../BinFuncs.c ****         if(cuiFlags&HEXTBL_OFFSET_COUNT){
 3521              		.loc 1 322 11 view .LVU1345
 3522 1170 24009DE5 		ldr	r0, [sp, #36]
 325:/home/hkh/git/eapidk-code-r76-trunk/apps/EeePProg/linux/../BinFuncs.c ****           }
 3523              		.loc 1 325 13 is_stmt 0 view .LVU1346
 3524              	.LPIC72:
 3525 1174 0AA08FE0 		add	r10, pc, r10
 322:/home/hkh/git/eapidk-code-r76-trunk/apps/EeePProg/linux/../BinFuncs.c ****         if(cuiFlags&HEXTBL_OFFSET_COUNT){
 3526              		.loc 1 322 11 view .LVU1347
 3527 1178 FEFFFFEB 		bl	printf(PLT)
 3528              	.LVL276:
 323:/home/hkh/git/eapidk-code-r76-trunk/apps/EeePProg/linux/../BinFuncs.c ****           for(stOffset=0;stOffset<stElementCount;stOffset++){
 3529              		.loc 1 323 9 is_stmt 1 view .LVU1348
 324:/home/hkh/git/eapidk-code-r76-trunk/apps/EeePProg/linux/../BinFuncs.c ****             EAPI_printf(TEXT("%0*lX "), (int)(2*stElementSize), (unsigned long)stOffset);
 3530              		.loc 1 324 34 view .LVU1349
 324:/home/hkh/git/eapidk-code-r76-trunk/apps/EeePProg/linux/../BinFuncs.c ****             EAPI_printf(TEXT("%0*lX "), (int)(2*stElementSize), (unsigned long)stOffset);
 3531              		.loc 1 324 23 is_stmt 0 view .LVU1350
 3532 117c 0430A0E1 		mov	r3, r4
 3533 1180 20408DE5 		str	r4, [sp, #32]
 3534 1184 0A40A0E1 		mov	r4, r10
 3535 1188 03A0A0E1 		mov	r10, r3
 3536              	.LVL277:
 3537              	.L264:
 325:/home/hkh/git/eapidk-code-r76-trunk/apps/EeePProg/linux/../BinFuncs.c ****           }
 3538              		.loc 1 325 13 is_stmt 1 view .LVU1351
 3539 118c 0A20A0E1 		mov	r2, r10
 3540 1190 0210A0E3 		mov	r1, #2
 324:/home/hkh/git/eapidk-code-r76-trunk/apps/EeePProg/linux/../BinFuncs.c ****             EAPI_printf(TEXT("%0*lX "), (int)(2*stElementSize), (unsigned long)stOffset);
 3541              		.loc 1 324 58 is_stmt 0 view .LVU1352
 3542 1194 01A08AE2 		add	r10, r10, #1
 3543              	.LVL278:
 325:/home/hkh/git/eapidk-code-r76-trunk/apps/EeePProg/linux/../BinFuncs.c ****           }
 3544              		.loc 1 325 13 view .LVU1353
 3545 1198 0400A0E1 		mov	r0, r4
 3546 119c FEFFFFEB 		bl	printf(PLT)
 3547              	.LVL279:
 324:/home/hkh/git/eapidk-code-r76-trunk/apps/EeePProg/linux/../BinFuncs.c ****             EAPI_printf(TEXT("%0*lX "), (int)(2*stElementSize), (unsigned long)stOffset);
 3548              		.loc 1 324 58 is_stmt 1 view .LVU1354
ARM GAS  /tmp/ccf3bFwG.s 			page 97


 324:/home/hkh/git/eapidk-code-r76-trunk/apps/EeePProg/linux/../BinFuncs.c ****             EAPI_printf(TEXT("%0*lX "), (int)(2*stElementSize), (unsigned long)stOffset);
 3549              		.loc 1 324 34 view .LVU1355
 3550 11a0 10005AE3 		cmp	r10, #16
 3551 11a4 F8FFFF1A 		bne	.L264
 329:/home/hkh/git/eapidk-code-r76-trunk/apps/EeePProg/linux/../BinFuncs.c ****             }
 3552              		.loc 1 329 15 is_stmt 0 view .LVU1356
 3553 11a8 BCA09FE5 		ldr	r10, .L290+44
 3554              	.LVL280:
 329:/home/hkh/git/eapidk-code-r76-trunk/apps/EeePProg/linux/../BinFuncs.c ****             }
 3555              		.loc 1 329 15 view .LVU1357
 3556 11ac 20409DE5 		ldr	r4, [sp, #32]
 3557              	.LPIC73:
 3558 11b0 0AA08FE0 		add	r10, pc, r10
 3559              	.L265:
 3560              	.LVL281:
 329:/home/hkh/git/eapidk-code-r76-trunk/apps/EeePProg/linux/../BinFuncs.c ****             }
 3561              		.loc 1 329 15 is_stmt 1 view .LVU1358
 3562 11b4 0410A0E1 		mov	r1, r4
 3563 11b8 0A00A0E1 		mov	r0, r10
 328:/home/hkh/git/eapidk-code-r76-trunk/apps/EeePProg/linux/../BinFuncs.c ****               EAPI_printf(TEXT("%lX"), (((unsigned long)stOffset)&0xF));
 3564              		.loc 1 328 57 is_stmt 0 view .LVU1359
 3565 11bc 014084E2 		add	r4, r4, #1
 3566              	.LVL282:
 329:/home/hkh/git/eapidk-code-r76-trunk/apps/EeePProg/linux/../BinFuncs.c ****             }
 3567              		.loc 1 329 15 view .LVU1360
 3568 11c0 FEFFFFEB 		bl	printf(PLT)
 3569              	.LVL283:
 328:/home/hkh/git/eapidk-code-r76-trunk/apps/EeePProg/linux/../BinFuncs.c ****               EAPI_printf(TEXT("%lX"), (((unsigned long)stOffset)&0xF));
 3570              		.loc 1 328 57 is_stmt 1 view .LVU1361
 328:/home/hkh/git/eapidk-code-r76-trunk/apps/EeePProg/linux/../BinFuncs.c ****               EAPI_printf(TEXT("%lX"), (((unsigned long)stOffset)&0xF));
 3571              		.loc 1 328 36 view .LVU1362
 3572 11c4 100054E3 		cmp	r4, #16
 3573 11c8 F9FFFF1A 		bne	.L265
 332:/home/hkh/git/eapidk-code-r76-trunk/apps/EeePProg/linux/../BinFuncs.c ****         }
 3574              		.loc 1 332 11 view .LVU1363
 3575 11cc 0A00A0E3 		mov	r0, #10
 3576 11d0 FEFFFFEB 		bl	putchar(PLT)
 3577              	.LVL284:
 3578 11d4 A0FFFFEA 		b	.L263
 3579              	.LVL285:
 3580              	.L285:
 286:/home/hkh/git/eapidk-code-r76-trunk/apps/EeePProg/linux/../BinFuncs.c ****         PrintHexAsciiTableEx,
 3581              		.loc 1 286 5 view .LVU1364
 286:/home/hkh/git/eapidk-code-r76-trunk/apps/EeePProg/linux/../BinFuncs.c ****         PrintHexAsciiTableEx,
 3582              		.loc 1 286 5 view .LVU1365
 3583 11d8 90C09FE5 		ldr	ip, .L290+48
 3584 11dc 01ECE0E3 		mvn	lr, #256
 3585 11e0 8C009FE5 		ldr	r0, .L290+52
 3586 11e4 1E3100E3 		movw	r3, #286
 3587 11e8 88209FE5 		ldr	r2, .L290+56
 3588              	.LVL286:
 286:/home/hkh/git/eapidk-code-r76-trunk/apps/EeePProg/linux/../BinFuncs.c ****         PrintHexAsciiTableEx,
 3589              		.loc 1 286 5 is_stmt 0 view .LVU1366
 3590 11ec 88109FE5 		ldr	r1, .L290+60
 3591              	.LVL287:
 286:/home/hkh/git/eapidk-code-r76-trunk/apps/EeePProg/linux/../BinFuncs.c ****         PrintHexAsciiTableEx,
 3592              		.loc 1 286 5 view .LVU1367
ARM GAS  /tmp/ccf3bFwG.s 			page 98


 3593              	.LPIC67:
 3594 11f0 0CC08FE0 		add	ip, pc, ip
 3595              	.LPIC68:
 3596 11f4 00008FE0 		add	r0, pc, r0
 3597 11f8 00E08DE5 		str	lr, [sp]
 3598 11fc 01108DE9 		stmib	sp, {r0, ip}
 3599              	.LPIC65:
 3600 1200 02208FE0 		add	r2, pc, r2
 3601              	.LPIC66:
 3602 1204 01108FE0 		add	r1, pc, r1
 3603 1208 4500A0E3 		mov	r0, #69
 3604 120c FEFFFFEB 		bl	siFormattedMessage_SC(PLT)
 3605              	.LVL288:
 286:/home/hkh/git/eapidk-code-r76-trunk/apps/EeePProg/linux/../BinFuncs.c ****         PrintHexAsciiTableEx,
 3606              		.loc 1 286 5 is_stmt 1 view .LVU1368
 286:/home/hkh/git/eapidk-code-r76-trunk/apps/EeePProg/linux/../BinFuncs.c ****         PrintHexAsciiTableEx,
 3607              		.loc 1 286 5 view .LVU1369
 286:/home/hkh/git/eapidk-code-r76-trunk/apps/EeePProg/linux/../BinFuncs.c ****         PrintHexAsciiTableEx,
 3608              		.loc 1 286 5 view .LVU1370
 3609              	.L256:
 286:/home/hkh/git/eapidk-code-r76-trunk/apps/EeePProg/linux/../BinFuncs.c ****         PrintHexAsciiTableEx,
 3610              		.loc 1 286 5 is_stmt 0 view .LVU1371
 3611              	.LBE170:
 3612              	.LBE171:
 384:/home/hkh/git/eapidk-code-r76-trunk/apps/EeePProg/linux/../BinFuncs.c ****   PrintHexAsciiTableEx(
 3613              		.loc 1 384 1 view .LVU1372
 3614 1210 68209FE5 		ldr	r2, .L290+64
 392:/home/hkh/git/eapidk-code-r76-trunk/apps/EeePProg/linux/../BinFuncs.c **** 
 3615              		.loc 1 392 1 view .LVU1373
 3616 1214 28309FE5 		ldr	r3, .L290+4
 384:/home/hkh/git/eapidk-code-r76-trunk/apps/EeePProg/linux/../BinFuncs.c ****   PrintHexAsciiTableEx(
 3617              		.loc 1 384 1 view .LVU1374
 3618              	.LPIC79:
 3619 1218 02208FE0 		add	r2, pc, r2
 392:/home/hkh/git/eapidk-code-r76-trunk/apps/EeePProg/linux/../BinFuncs.c **** 
 3620              		.loc 1 392 1 view .LVU1375
 3621 121c 033092E7 		ldr	r3, [r2, r3]
 3622 1220 002093E5 		ldr	r2, [r3]
 3623 1224 8C309DE5 		ldr	r3, [sp, #140]
 3624 1228 022033E0 		eors	r2, r3, r2
 3625 122c 0030A0E3 		mov	r3, #0
 3626 1230 0100001A 		bne	.L289
 3627 1234 94D08DE2 		add	sp, sp, #148
 3628              		.cfi_remember_state
 3629              		.cfi_def_cfa_offset 36
 3630              		@ sp needed
 3631 1238 F08FBDE8 		pop	{r4, r5, r6, r7, r8, r9, r10, fp, pc}
 3632              	.LVL289:
 3633              	.L289:
 3634              		.cfi_restore_state
 392:/home/hkh/git/eapidk-code-r76-trunk/apps/EeePProg/linux/../BinFuncs.c **** 
 3635              		.loc 1 392 1 view .LVU1376
 3636 123c FEFFFFEB 		bl	__stack_chk_fail(PLT)
 3637              	.LVL290:
 3638              	.L291:
 3639              		.align	2
 3640              	.L290:
ARM GAS  /tmp/ccf3bFwG.s 			page 99


 3641 1240 94020000 		.word	_GLOBAL_OFFSET_TABLE_-(.LPIC80+8)
 3642 1244 00000000 		.word	__stack_chk_guard(GOT)
 3643 1248 64020000 		.word	.LC17-(.LPIC69+8)
 3644 124c 54020000 		.word	.LC18-(.LPIC70+8)
 3645 1250 1C020000 		.word	.LC19-(.LPIC71+8)
 3646 1254 14020000 		.word	.LC15-(.LPIC77+8)
 3647 1258 0C020000 		.word	.LC23-(.LPIC78+8)
 3648 125c E8010000 		.word	.LC20-(.LPIC74+8)
 3649 1260 E8010000 		.word	.LC24-(.LPIC75+8)
 3650 1264 D4010000 		.word	.LC25-(.LPIC76+8)
 3651 1268 EC000000 		.word	.LC21-(.LPIC72+8)
 3652 126c B4000000 		.word	.LC22-(.LPIC73+8)
 3653 1270 78000000 		.word	.LC2-(.LPIC67+8)
 3654 1274 78000000 		.word	.LC3-(.LPIC68+8)
 3655 1278 70000000 		.word	.LC16-(.LPIC65+8)
 3656 127c 70000000 		.word	.LC1-(.LPIC66+8)
 3657 1280 60000000 		.word	_GLOBAL_OFFSET_TABLE_-(.LPIC79+8)
 3658              		.cfi_endproc
 3659              	.LFE12:
 3661              		.section	.rodata.str1.4
 3662 01f9 000000   		.align	2
 3663              	.LC26:
 3664 01fc 4C636C57 		.ascii	"LclWriteFile\000"
 3664      72697465 
 3664      46696C65 
 3664      00
 3665 0209 000000   		.align	2
 3666              	.LC27:
 3667 020c 2863737A 		.ascii	"(cszFilename==NULL)\000"
 3667      46696C65 
 3667      6E616D65 
 3667      3D3D4E55 
 3667      4C4C2900 
 3668              		.align	2
 3669              	.LC28:
 3670 0220 28737457 		.ascii	"(stWriteBCnt==0)\000"
 3670      72697465 
 3670      42436E74 
 3670      3D3D3029 
 3670      00
 3671 0231 000000   		.align	2
 3672              	.LC29:
 3673 0234 4F70656E 		.ascii	"Opening File %s(%s)\012\000"
 3673      696E6720 
 3673      46696C65 
 3673      20257328 
 3673      2573290A 
 3674 0249 000000   		.align	2
 3675              	.LC30:
 3676 024c 28737457 		.ascii	"(stWriteBCnt!=fwrite(pcvBuffer, sizeof(uint8_t), st"
 3676      72697465 
 3676      42436E74 
 3676      213D6677 
 3676      72697465 
 3677 027f 57726974 		.ascii	"WriteBCnt, LclFilePtr))\000"
 3677      6542436E 
 3677      742C204C 
ARM GAS  /tmp/ccf3bFwG.s 			page 100


 3677      636C4669 
 3677      6C655074 
 3678              		.text
 3679              		.align	2
 3680              		.global	LclWriteFile
 3681              		.syntax unified
 3682              		.arm
 3683              		.fpu vfpv3
 3685              	LclWriteFile:
 3686              	.LVL291:
 3687              	.LFB13:
 412:/home/hkh/git/eapidk-code-r76-trunk/apps/EeePProg/linux/../BinFuncs.c ****   EApiStatus_t StatusCode=EAPI_STATUS_SUCCESS;
 3688              		.loc 1 412 1 is_stmt 1 view -0
 3689              		.cfi_startproc
 3690              		@ args = 0, pretend = 0, frame = 0
 3691              		@ frame_needed = 0, uses_anonymous_args = 0
 413:/home/hkh/git/eapidk-code-r76-trunk/apps/EeePProg/linux/../BinFuncs.c ****   FILE *LclFilePtr;
 3692              		.loc 1 413 3 view .LVU1378
 414:/home/hkh/git/eapidk-code-r76-trunk/apps/EeePProg/linux/../BinFuncs.c ****   EAPI_APP_ASSERT_PARAMATER_NULL(
 3693              		.loc 1 414 3 view .LVU1379
 415:/home/hkh/git/eapidk-code-r76-trunk/apps/EeePProg/linux/../BinFuncs.c ****       LclWriteFile,
 3694              		.loc 1 415 3 view .LVU1380
 412:/home/hkh/git/eapidk-code-r76-trunk/apps/EeePProg/linux/../BinFuncs.c ****   EApiStatus_t StatusCode=EAPI_STATUS_SUCCESS;
 3695              		.loc 1 412 1 is_stmt 0 view .LVU1381
 3696 1284 F0412DE9 		push	{r4, r5, r6, r7, r8, lr}
 3697              		.cfi_def_cfa_offset 24
 3698              		.cfi_offset 4, -24
 3699              		.cfi_offset 5, -20
 3700              		.cfi_offset 6, -16
 3701              		.cfi_offset 7, -12
 3702              		.cfi_offset 8, -8
 3703              		.cfi_offset 14, -4
 415:/home/hkh/git/eapidk-code-r76-trunk/apps/EeePProg/linux/../BinFuncs.c ****       LclWriteFile,
 3704              		.loc 1 415 3 view .LVU1382
 3705 1288 006050E2 		subs	r6, r0, #0
 412:/home/hkh/git/eapidk-code-r76-trunk/apps/EeePProg/linux/../BinFuncs.c ****   EApiStatus_t StatusCode=EAPI_STATUS_SUCCESS;
 3706              		.loc 1 412 1 view .LVU1383
 3707 128c 10D04DE2 		sub	sp, sp, #16
 3708              		.cfi_def_cfa_offset 40
 415:/home/hkh/git/eapidk-code-r76-trunk/apps/EeePProg/linux/../BinFuncs.c ****       LclWriteFile,
 3709              		.loc 1 415 3 view .LVU1384
 3710 1290 4400000A 		beq	.L301
 420:/home/hkh/git/eapidk-code-r76-trunk/apps/EeePProg/linux/../BinFuncs.c ****       LclWriteFile,
 3711              		.loc 1 420 3 discriminator 2 view .LVU1385
 3712 1294 000051E3 		cmp	r1, #0
 3713 1298 0150A0E1 		mov	r5, r1
 415:/home/hkh/git/eapidk-code-r76-trunk/apps/EeePProg/linux/../BinFuncs.c ****       LclWriteFile,
 3714              		.loc 1 415 3 is_stmt 1 discriminator 2 view .LVU1386
 419:/home/hkh/git/eapidk-code-r76-trunk/apps/EeePProg/linux/../BinFuncs.c ****   EAPI_APP_ASSERT_PARAMATER_NULL(
 3715              		.loc 1 419 6 discriminator 2 view .LVU1387
 420:/home/hkh/git/eapidk-code-r76-trunk/apps/EeePProg/linux/../BinFuncs.c ****       LclWriteFile,
 3716              		.loc 1 420 3 discriminator 2 view .LVU1388
 3717 129c 4C00000A 		beq	.L302
 425:/home/hkh/git/eapidk-code-r76-trunk/apps/EeePProg/linux/../BinFuncs.c ****       LclWriteFile,
 3718              		.loc 1 425 3 is_stmt 0 discriminator 2 view .LVU1389
 3719 12a0 000052E3 		cmp	r2, #0
 3720 12a4 0240A0E1 		mov	r4, r2
ARM GAS  /tmp/ccf3bFwG.s 			page 101


 420:/home/hkh/git/eapidk-code-r76-trunk/apps/EeePProg/linux/../BinFuncs.c ****       LclWriteFile,
 3721              		.loc 1 420 3 is_stmt 1 discriminator 2 view .LVU1390
 424:/home/hkh/git/eapidk-code-r76-trunk/apps/EeePProg/linux/../BinFuncs.c ****   EAPI_APP_ASSERT_PARAMATER_ZERO(
 3722              		.loc 1 424 6 discriminator 2 view .LVU1391
 425:/home/hkh/git/eapidk-code-r76-trunk/apps/EeePProg/linux/../BinFuncs.c ****       LclWriteFile,
 3723              		.loc 1 425 3 discriminator 2 view .LVU1392
 3724 12a8 2200000A 		beq	.L303
 3725              	.LVL292:
 3726              	.LBB174:
 3727              	.LBI174:
 406:/home/hkh/git/eapidk-code-r76-trunk/apps/EeePProg/linux/../BinFuncs.c ****     __IN const char *cszFilename, 
 3728              		.loc 1 406 1 view .LVU1393
 3729              	.LBB175:
 425:/home/hkh/git/eapidk-code-r76-trunk/apps/EeePProg/linux/../BinFuncs.c ****       LclWriteFile,
 3730              		.loc 1 425 3 view .LVU1394
 429:/home/hkh/git/eapidk-code-r76-trunk/apps/EeePProg/linux/../BinFuncs.c **** 
 3731              		.loc 1 429 6 view .LVU1395
 431:/home/hkh/git/eapidk-code-r76-trunk/apps/EeePProg/linux/../BinFuncs.c ****   if(LclFilePtr==NULL){
 3732              		.loc 1 431 3 view .LVU1396
 431:/home/hkh/git/eapidk-code-r76-trunk/apps/EeePProg/linux/../BinFuncs.c ****   if(LclFilePtr==NULL){
 3733              		.loc 1 431 14 is_stmt 0 view .LVU1397
 3734 12ac 0310A0E1 		mov	r1, r3
 3735              	.LVL293:
 431:/home/hkh/git/eapidk-code-r76-trunk/apps/EeePProg/linux/../BinFuncs.c ****   if(LclFilePtr==NULL){
 3736              		.loc 1 431 14 view .LVU1398
 3737 12b0 0380A0E1 		mov	r8, r3
 3738 12b4 FEFFFFEB 		bl	fopen(PLT)
 3739              	.LVL294:
 432:/home/hkh/git/eapidk-code-r76-trunk/apps/EeePProg/linux/../BinFuncs.c ****     StatusCode=EAPI_STATUS_WRITE_ERROR;
 3740              		.loc 1 432 3 is_stmt 1 view .LVU1399
 432:/home/hkh/git/eapidk-code-r76-trunk/apps/EeePProg/linux/../BinFuncs.c ****     StatusCode=EAPI_STATUS_WRITE_ERROR;
 3741              		.loc 1 432 5 is_stmt 0 view .LVU1400
 3742 12b8 007050E2 		subs	r7, r0, #0
 3743 12bc 2800000A 		beq	.L304
 438:/home/hkh/git/eapidk-code-r76-trunk/apps/EeePProg/linux/../BinFuncs.c ****       LclWriteFile,
 3744              		.loc 1 438 3 is_stmt 1 view .LVU1401
 3745 12c0 0730A0E1 		mov	r3, r7
 3746 12c4 0420A0E1 		mov	r2, r4
 3747 12c8 0500A0E1 		mov	r0, r5
 3748              	.LVL295:
 438:/home/hkh/git/eapidk-code-r76-trunk/apps/EeePProg/linux/../BinFuncs.c ****       LclWriteFile,
 3749              		.loc 1 438 3 is_stmt 0 view .LVU1402
 3750 12cc 0110A0E3 		mov	r1, #1
 3751 12d0 FEFFFFEB 		bl	fwrite(PLT)
 3752              	.LVL296:
 438:/home/hkh/git/eapidk-code-r76-trunk/apps/EeePProg/linux/../BinFuncs.c ****       LclWriteFile,
 3753              		.loc 1 438 3 view .LVU1403
 3754 12d4 000054E1 		cmp	r4, r0
 3755 12d8 0400001A 		bne	.L305
 438:/home/hkh/git/eapidk-code-r76-trunk/apps/EeePProg/linux/../BinFuncs.c ****       LclWriteFile,
 3756              		.loc 1 438 3 is_stmt 1 view .LVU1404
 442:/home/hkh/git/eapidk-code-r76-trunk/apps/EeePProg/linux/../BinFuncs.c ****   fclose(LclFilePtr);
 3757              		.loc 1 442 6 view .LVU1405
 443:/home/hkh/git/eapidk-code-r76-trunk/apps/EeePProg/linux/../BinFuncs.c **** EAPI_APP_ASSERT_EXIT
 3758              		.loc 1 443 3 view .LVU1406
 3759 12dc 0700A0E1 		mov	r0, r7
 3760 12e0 FEFFFFEB 		bl	fclose(PLT)
ARM GAS  /tmp/ccf3bFwG.s 			page 102


 3761              	.LVL297:
 413:/home/hkh/git/eapidk-code-r76-trunk/apps/EeePProg/linux/../BinFuncs.c ****   FILE *LclFilePtr;
 3762              		.loc 1 413 16 is_stmt 0 view .LVU1407
 3763 12e4 0000A0E3 		mov	r0, #0
 3764              	.LVL298:
 413:/home/hkh/git/eapidk-code-r76-trunk/apps/EeePProg/linux/../BinFuncs.c ****   FILE *LclFilePtr;
 3765              		.loc 1 413 16 view .LVU1408
 3766              	.LBE175:
 3767              	.LBE174:
 445:/home/hkh/git/eapidk-code-r76-trunk/apps/EeePProg/linux/../BinFuncs.c **** }
 3768              		.loc 1 445 3 is_stmt 1 view .LVU1409
 3769              	.L294:
 3770              	.L292:
 446:/home/hkh/git/eapidk-code-r76-trunk/apps/EeePProg/linux/../BinFuncs.c **** 
 3771              		.loc 1 446 1 is_stmt 0 view .LVU1410
 3772 12e8 10D08DE2 		add	sp, sp, #16
 3773              		.cfi_remember_state
 3774              		.cfi_def_cfa_offset 24
 3775              		@ sp needed
 3776 12ec F081BDE8 		pop	{r4, r5, r6, r7, r8, pc}
 3777              	.LVL299:
 3778              	.L305:
 3779              		.cfi_restore_state
 3780              	.LBB178:
 3781              	.LBB176:
 438:/home/hkh/git/eapidk-code-r76-trunk/apps/EeePProg/linux/../BinFuncs.c ****       LclWriteFile,
 3782              		.loc 1 438 3 is_stmt 1 view .LVU1411
 438:/home/hkh/git/eapidk-code-r76-trunk/apps/EeePProg/linux/../BinFuncs.c ****       LclWriteFile,
 3783              		.loc 1 438 3 view .LVU1412
 3784 12f0 08C19FE5 		ldr	ip, .L306
 3785 12f4 FE4A0FE3 		movw	r4, #64254
 3786              	.LVL300:
 438:/home/hkh/git/eapidk-code-r76-trunk/apps/EeePProg/linux/../BinFuncs.c ****       LclWriteFile,
 3787              		.loc 1 438 3 is_stmt 0 view .LVU1413
 3788 12f8 04019FE5 		ldr	r0, .L306+4
 3789 12fc FF4F4FE3 		movt	r4, 65535
 3790 1300 00219FE5 		ldr	r2, .L306+8
 3791 1304 B63100E3 		movw	r3, #438
 3792 1308 FC109FE5 		ldr	r1, .L306+12
 3793              	.LPIC98:
 3794 130c 0CC08FE0 		add	ip, pc, ip
 3795              	.LPIC99:
 3796 1310 00008FE0 		add	r0, pc, r0
 3797              	.LPIC96:
 3798 1314 02208FE0 		add	r2, pc, r2
 3799              	.LPIC97:
 3800 1318 01108FE0 		add	r1, pc, r1
 3801              	.LVL301:
 3802              	.L300:
 438:/home/hkh/git/eapidk-code-r76-trunk/apps/EeePProg/linux/../BinFuncs.c ****       LclWriteFile,
 3803              		.loc 1 438 3 view .LVU1414
 3804              	.LBE176:
 3805              	.LBE178:
 420:/home/hkh/git/eapidk-code-r76-trunk/apps/EeePProg/linux/../BinFuncs.c ****       LclWriteFile,
 3806              		.loc 1 420 3 discriminator 1 view .LVU1415
 3807 131c 01108DE9 		stmib	sp, {r0, ip}
 3808 1320 4500A0E3 		mov	r0, #69
ARM GAS  /tmp/ccf3bFwG.s 			page 103


 3809 1324 00408DE5 		str	r4, [sp]
 3810 1328 FEFFFFEB 		bl	siFormattedMessage_SC(PLT)
 3811              	.LVL302:
 420:/home/hkh/git/eapidk-code-r76-trunk/apps/EeePProg/linux/../BinFuncs.c ****       LclWriteFile,
 3812              		.loc 1 420 3 is_stmt 1 discriminator 1 view .LVU1416
 420:/home/hkh/git/eapidk-code-r76-trunk/apps/EeePProg/linux/../BinFuncs.c ****       LclWriteFile,
 3813              		.loc 1 420 3 discriminator 1 view .LVU1417
 420:/home/hkh/git/eapidk-code-r76-trunk/apps/EeePProg/linux/../BinFuncs.c ****       LclWriteFile,
 3814              		.loc 1 420 3 discriminator 1 view .LVU1418
 3815 132c 0400A0E1 		mov	r0, r4
 446:/home/hkh/git/eapidk-code-r76-trunk/apps/EeePProg/linux/../BinFuncs.c **** 
 3816              		.loc 1 446 1 is_stmt 0 discriminator 1 view .LVU1419
 3817 1330 10D08DE2 		add	sp, sp, #16
 3818              		.cfi_remember_state
 3819              		.cfi_def_cfa_offset 24
 3820              		@ sp needed
 3821 1334 F081BDE8 		pop	{r4, r5, r6, r7, r8, pc}
 3822              	.LVL303:
 3823              	.L303:
 3824              		.cfi_restore_state
 425:/home/hkh/git/eapidk-code-r76-trunk/apps/EeePProg/linux/../BinFuncs.c ****       LclWriteFile,
 3825              		.loc 1 425 3 is_stmt 1 discriminator 1 view .LVU1420
 425:/home/hkh/git/eapidk-code-r76-trunk/apps/EeePProg/linux/../BinFuncs.c ****       LclWriteFile,
 3826              		.loc 1 425 3 discriminator 1 view .LVU1421
 3827 1338 D0C09FE5 		ldr	ip, .L306+16
 3828 133c 014CE0E3 		mvn	r4, #256
 3829 1340 CC009FE5 		ldr	r0, .L306+20
 3830              	.LVL304:
 425:/home/hkh/git/eapidk-code-r76-trunk/apps/EeePProg/linux/../BinFuncs.c ****       LclWriteFile,
 3831              		.loc 1 425 3 is_stmt 0 discriminator 1 view .LVU1422
 3832 1344 A93100E3 		movw	r3, #425
 3833              	.LVL305:
 425:/home/hkh/git/eapidk-code-r76-trunk/apps/EeePProg/linux/../BinFuncs.c ****       LclWriteFile,
 3834              		.loc 1 425 3 discriminator 1 view .LVU1423
 3835 1348 C8209FE5 		ldr	r2, .L306+24
 3836              	.LVL306:
 425:/home/hkh/git/eapidk-code-r76-trunk/apps/EeePProg/linux/../BinFuncs.c ****       LclWriteFile,
 3837              		.loc 1 425 3 discriminator 1 view .LVU1424
 3838 134c C8109FE5 		ldr	r1, .L306+28
 3839              	.LVL307:
 425:/home/hkh/git/eapidk-code-r76-trunk/apps/EeePProg/linux/../BinFuncs.c ****       LclWriteFile,
 3840              		.loc 1 425 3 discriminator 1 view .LVU1425
 3841              	.LPIC91:
 3842 1350 0CC08FE0 		add	ip, pc, ip
 3843              	.LPIC92:
 3844 1354 00008FE0 		add	r0, pc, r0
 3845              	.LPIC89:
 3846 1358 02208FE0 		add	r2, pc, r2
 3847              	.LPIC90:
 3848 135c 01108FE0 		add	r1, pc, r1
 3849 1360 EDFFFFEA 		b	.L300
 3850              	.LVL308:
 3851              	.L304:
 3852              	.LBB179:
 3853              	.LBB177:
 433:/home/hkh/git/eapidk-code-r76-trunk/apps/EeePProg/linux/../BinFuncs.c ****     siFormattedMessage_SC('L', __FILE__, "LclWriteFile", __LINE__, StatusCode,
 3854              		.loc 1 433 5 is_stmt 1 view .LVU1426
ARM GAS  /tmp/ccf3bFwG.s 			page 104


 434:/home/hkh/git/eapidk-code-r76-trunk/apps/EeePProg/linux/../BinFuncs.c ****         "Opening File %s(%s)\n", cszFilename, cszWriteType);
 3855              		.loc 1 434 5 view .LVU1427
 3856 1364 B4009FE5 		ldr	r0, .L306+32
 3857              	.LVL309:
 434:/home/hkh/git/eapidk-code-r76-trunk/apps/EeePProg/linux/../BinFuncs.c ****         "Opening File %s(%s)\n", cszFilename, cszWriteType);
 3858              		.loc 1 434 5 is_stmt 0 view .LVU1428
 3859 1368 FE4A0FE3 		movw	r4, #64254
 3860              	.LVL310:
 434:/home/hkh/git/eapidk-code-r76-trunk/apps/EeePProg/linux/../BinFuncs.c ****         "Opening File %s(%s)\n", cszFilename, cszWriteType);
 3861              		.loc 1 434 5 view .LVU1429
 3862 136c B0209FE5 		ldr	r2, .L306+36
 3863 1370 FF4F4FE3 		movt	r4, 65535
 3864 1374 AC109FE5 		ldr	r1, .L306+40
 3865 1378 B23100E3 		movw	r3, #434
 3866              	.LPIC95:
 3867 137c 00008FE0 		add	r0, pc, r0
 3868 1380 0C808DE5 		str	r8, [sp, #12]
 3869 1384 04008DE5 		str	r0, [sp, #4]
 3870              	.LPIC93:
 3871 1388 02208FE0 		add	r2, pc, r2
 3872              	.LPIC94:
 3873 138c 01108FE0 		add	r1, pc, r1
 3874 1390 4C00A0E3 		mov	r0, #76
 3875 1394 08608DE5 		str	r6, [sp, #8]
 3876 1398 00408DE5 		str	r4, [sp]
 3877 139c FEFFFFEB 		bl	siFormattedMessage_SC(PLT)
 3878              	.LVL311:
 436:/home/hkh/git/eapidk-code-r76-trunk/apps/EeePProg/linux/../BinFuncs.c ****   }
 3879              		.loc 1 436 5 is_stmt 1 view .LVU1430
 433:/home/hkh/git/eapidk-code-r76-trunk/apps/EeePProg/linux/../BinFuncs.c ****     siFormattedMessage_SC('L', __FILE__, "LclWriteFile", __LINE__, StatusCode,
 3880              		.loc 1 433 15 is_stmt 0 view .LVU1431
 3881 13a0 0400A0E1 		mov	r0, r4
 436:/home/hkh/git/eapidk-code-r76-trunk/apps/EeePProg/linux/../BinFuncs.c ****   }
 3882              		.loc 1 436 5 view .LVU1432
 3883 13a4 CFFFFFEA 		b	.L292
 3884              	.LVL312:
 3885              	.L301:
 436:/home/hkh/git/eapidk-code-r76-trunk/apps/EeePProg/linux/../BinFuncs.c ****   }
 3886              		.loc 1 436 5 view .LVU1433
 3887              	.LBE177:
 3888              	.LBE179:
 415:/home/hkh/git/eapidk-code-r76-trunk/apps/EeePProg/linux/../BinFuncs.c ****       LclWriteFile,
 3889              		.loc 1 415 3 is_stmt 1 discriminator 1 view .LVU1434
 415:/home/hkh/git/eapidk-code-r76-trunk/apps/EeePProg/linux/../BinFuncs.c ****       LclWriteFile,
 3890              		.loc 1 415 3 discriminator 1 view .LVU1435
 3891 13a8 7CC09FE5 		ldr	ip, .L306+44
 3892 13ac 014CE0E3 		mvn	r4, #256
 3893 13b0 78009FE5 		ldr	r0, .L306+48
 3894              	.LVL313:
 415:/home/hkh/git/eapidk-code-r76-trunk/apps/EeePProg/linux/../BinFuncs.c ****       LclWriteFile,
 3895              		.loc 1 415 3 is_stmt 0 discriminator 1 view .LVU1436
 3896 13b4 9F3100E3 		movw	r3, #415
 3897              	.LVL314:
 415:/home/hkh/git/eapidk-code-r76-trunk/apps/EeePProg/linux/../BinFuncs.c ****       LclWriteFile,
 3898              		.loc 1 415 3 discriminator 1 view .LVU1437
 3899 13b8 74209FE5 		ldr	r2, .L306+52
 3900              	.LVL315:
ARM GAS  /tmp/ccf3bFwG.s 			page 105


 415:/home/hkh/git/eapidk-code-r76-trunk/apps/EeePProg/linux/../BinFuncs.c ****       LclWriteFile,
 3901              		.loc 1 415 3 discriminator 1 view .LVU1438
 3902 13bc 74109FE5 		ldr	r1, .L306+56
 3903              	.LVL316:
 415:/home/hkh/git/eapidk-code-r76-trunk/apps/EeePProg/linux/../BinFuncs.c ****       LclWriteFile,
 3904              		.loc 1 415 3 discriminator 1 view .LVU1439
 3905              	.LPIC83:
 3906 13c0 0CC08FE0 		add	ip, pc, ip
 3907              	.LPIC84:
 3908 13c4 00008FE0 		add	r0, pc, r0
 3909              	.LPIC81:
 3910 13c8 02208FE0 		add	r2, pc, r2
 3911              	.LPIC82:
 3912 13cc 01108FE0 		add	r1, pc, r1
 3913 13d0 D1FFFFEA 		b	.L300
 3914              	.LVL317:
 3915              	.L302:
 420:/home/hkh/git/eapidk-code-r76-trunk/apps/EeePProg/linux/../BinFuncs.c ****       LclWriteFile,
 3916              		.loc 1 420 3 is_stmt 1 discriminator 1 view .LVU1440
 420:/home/hkh/git/eapidk-code-r76-trunk/apps/EeePProg/linux/../BinFuncs.c ****       LclWriteFile,
 3917              		.loc 1 420 3 discriminator 1 view .LVU1441
 3918 13d4 60C09FE5 		ldr	ip, .L306+60
 3919 13d8 014CE0E3 		mvn	r4, #256
 3920 13dc 5C009FE5 		ldr	r0, .L306+64
 3921              	.LVL318:
 420:/home/hkh/git/eapidk-code-r76-trunk/apps/EeePProg/linux/../BinFuncs.c ****       LclWriteFile,
 3922              		.loc 1 420 3 is_stmt 0 discriminator 1 view .LVU1442
 3923 13e0 693FA0E3 		mov	r3, #420
 3924              	.LVL319:
 420:/home/hkh/git/eapidk-code-r76-trunk/apps/EeePProg/linux/../BinFuncs.c ****       LclWriteFile,
 3925              		.loc 1 420 3 discriminator 1 view .LVU1443
 3926 13e4 58209FE5 		ldr	r2, .L306+68
 3927              	.LVL320:
 420:/home/hkh/git/eapidk-code-r76-trunk/apps/EeePProg/linux/../BinFuncs.c ****       LclWriteFile,
 3928              		.loc 1 420 3 discriminator 1 view .LVU1444
 3929 13e8 58109FE5 		ldr	r1, .L306+72
 3930              	.LVL321:
 420:/home/hkh/git/eapidk-code-r76-trunk/apps/EeePProg/linux/../BinFuncs.c ****       LclWriteFile,
 3931              		.loc 1 420 3 discriminator 1 view .LVU1445
 3932              	.LPIC87:
 3933 13ec 0CC08FE0 		add	ip, pc, ip
 3934              	.LPIC88:
 3935 13f0 00008FE0 		add	r0, pc, r0
 3936              	.LPIC85:
 3937 13f4 02208FE0 		add	r2, pc, r2
 3938              	.LPIC86:
 3939 13f8 01108FE0 		add	r1, pc, r1
 3940 13fc C6FFFFEA 		b	.L300
 3941              	.L307:
 3942              		.align	2
 3943              	.L306:
 3944 1400 EC000000 		.word	.LC30-(.LPIC98+8)
 3945 1404 EC000000 		.word	.LC3-(.LPIC99+8)
 3946 1408 EC000000 		.word	.LC26-(.LPIC96+8)
 3947 140c EC000000 		.word	.LC1-(.LPIC97+8)
 3948 1410 B8000000 		.word	.LC28-(.LPIC91+8)
 3949 1414 B8000000 		.word	.LC3-(.LPIC92+8)
ARM GAS  /tmp/ccf3bFwG.s 			page 106


 3950 1418 B8000000 		.word	.LC26-(.LPIC89+8)
 3951 141c B8000000 		.word	.LC1-(.LPIC90+8)
 3952 1420 9C000000 		.word	.LC29-(.LPIC95+8)
 3953 1424 94000000 		.word	.LC26-(.LPIC93+8)
 3954 1428 94000000 		.word	.LC1-(.LPIC94+8)
 3955 142c 64000000 		.word	.LC27-(.LPIC83+8)
 3956 1430 64000000 		.word	.LC3-(.LPIC84+8)
 3957 1434 64000000 		.word	.LC26-(.LPIC81+8)
 3958 1438 64000000 		.word	.LC1-(.LPIC82+8)
 3959 143c 48000000 		.word	.LC2-(.LPIC87+8)
 3960 1440 48000000 		.word	.LC3-(.LPIC88+8)
 3961 1444 48000000 		.word	.LC26-(.LPIC85+8)
 3962 1448 48000000 		.word	.LC1-(.LPIC86+8)
 3963              		.cfi_endproc
 3964              	.LFE13:
 3966              		.section	.rodata.str1.4
 3967 0297 00       		.align	2
 3968              	.LC31:
 3969 0298 4C636C52 		.ascii	"LclReadFile\000"
 3969      65616446 
 3969      696C6500 
 3970              		.align	2
 3971              	.LC32:
 3972 02a4 28707642 		.ascii	"(pvBuffer==NULL)\000"
 3972      75666665 
 3972      723D3D4E 
 3972      554C4C29 
 3972      00
 3973 02b5 000000   		.align	2
 3974              	.LC33:
 3975 02b8 28707374 		.ascii	"(pstReadBCnt==NULL)\000"
 3975      52656164 
 3975      42436E74 
 3975      3D3D4E55 
 3975      4C4C2900 
 3976              		.align	2
 3977              	.LC34:
 3978 02cc 282A7076 		.ascii	"(*pvBuffer==NULL)\000"
 3978      42756666 
 3978      65723D3D 
 3978      4E554C4C 
 3978      2900
 3979              		.text
 3980              		.align	2
 3981              		.global	LclReadFile
 3982              		.syntax unified
 3983              		.arm
 3984              		.fpu vfpv3
 3986              	LclReadFile:
 3987              	.LVL322:
 3988              	.LFB14:
 455:/home/hkh/git/eapidk-code-r76-trunk/apps/EeePProg/linux/../BinFuncs.c ****   EApiStatus_t StatusCode=EAPI_STATUS_SUCCESS;
 3989              		.loc 1 455 1 is_stmt 1 view -0
 3990              		.cfi_startproc
 3991              		@ args = 0, pretend = 0, frame = 0
 3992              		@ frame_needed = 0, uses_anonymous_args = 0
 456:/home/hkh/git/eapidk-code-r76-trunk/apps/EeePProg/linux/../BinFuncs.c ****   FILE *LclFilePtr;
ARM GAS  /tmp/ccf3bFwG.s 			page 107


 3993              		.loc 1 456 3 view .LVU1447
 457:/home/hkh/git/eapidk-code-r76-trunk/apps/EeePProg/linux/../BinFuncs.c ****   size_t stFileLen;
 3994              		.loc 1 457 3 view .LVU1448
 458:/home/hkh/git/eapidk-code-r76-trunk/apps/EeePProg/linux/../BinFuncs.c ****   EAPI_APP_ASSERT_PARAMATER_NULL(
 3995              		.loc 1 458 3 view .LVU1449
 459:/home/hkh/git/eapidk-code-r76-trunk/apps/EeePProg/linux/../BinFuncs.c ****       LclReadFile,
 3996              		.loc 1 459 3 view .LVU1450
 455:/home/hkh/git/eapidk-code-r76-trunk/apps/EeePProg/linux/../BinFuncs.c ****   EApiStatus_t StatusCode=EAPI_STATUS_SUCCESS;
 3997              		.loc 1 455 1 is_stmt 0 view .LVU1451
 3998 144c F0432DE9 		push	{r4, r5, r6, r7, r8, r9, lr}
 3999              		.cfi_def_cfa_offset 28
 4000              		.cfi_offset 4, -28
 4001              		.cfi_offset 5, -24
 4002              		.cfi_offset 6, -20
 4003              		.cfi_offset 7, -16
 4004              		.cfi_offset 8, -12
 4005              		.cfi_offset 9, -8
 4006              		.cfi_offset 14, -4
 459:/home/hkh/git/eapidk-code-r76-trunk/apps/EeePProg/linux/../BinFuncs.c ****       LclReadFile,
 4007              		.loc 1 459 3 view .LVU1452
 4008 1450 009050E2 		subs	r9, r0, #0
 455:/home/hkh/git/eapidk-code-r76-trunk/apps/EeePProg/linux/../BinFuncs.c ****   EApiStatus_t StatusCode=EAPI_STATUS_SUCCESS;
 4009              		.loc 1 455 1 view .LVU1453
 4010 1454 14D04DE2 		sub	sp, sp, #20
 4011              		.cfi_def_cfa_offset 48
 459:/home/hkh/git/eapidk-code-r76-trunk/apps/EeePProg/linux/../BinFuncs.c ****       LclReadFile,
 4012              		.loc 1 459 3 view .LVU1454
 4013 1458 4500000A 		beq	.L317
 464:/home/hkh/git/eapidk-code-r76-trunk/apps/EeePProg/linux/../BinFuncs.c ****       LclReadFile,
 4014              		.loc 1 464 3 discriminator 2 view .LVU1455
 4015 145c 000051E3 		cmp	r1, #0
 4016 1460 0170A0E1 		mov	r7, r1
 459:/home/hkh/git/eapidk-code-r76-trunk/apps/EeePProg/linux/../BinFuncs.c ****       LclReadFile,
 4017              		.loc 1 459 3 is_stmt 1 discriminator 2 view .LVU1456
 463:/home/hkh/git/eapidk-code-r76-trunk/apps/EeePProg/linux/../BinFuncs.c ****   EAPI_APP_ASSERT_PARAMATER_NULL(
 4018              		.loc 1 463 6 discriminator 2 view .LVU1457
 464:/home/hkh/git/eapidk-code-r76-trunk/apps/EeePProg/linux/../BinFuncs.c ****       LclReadFile,
 4019              		.loc 1 464 3 discriminator 2 view .LVU1458
 4020 1464 4D00000A 		beq	.L318
 469:/home/hkh/git/eapidk-code-r76-trunk/apps/EeePProg/linux/../BinFuncs.c ****       LclReadFile,
 4021              		.loc 1 469 3 is_stmt 0 discriminator 2 view .LVU1459
 4022 1468 000052E3 		cmp	r2, #0
 4023 146c 0240A0E1 		mov	r4, r2
 464:/home/hkh/git/eapidk-code-r76-trunk/apps/EeePProg/linux/../BinFuncs.c ****       LclReadFile,
 4024              		.loc 1 464 3 is_stmt 1 discriminator 2 view .LVU1460
 468:/home/hkh/git/eapidk-code-r76-trunk/apps/EeePProg/linux/../BinFuncs.c ****   EAPI_APP_ASSERT_PARAMATER_NULL(
 4025              		.loc 1 468 6 discriminator 2 view .LVU1461
 469:/home/hkh/git/eapidk-code-r76-trunk/apps/EeePProg/linux/../BinFuncs.c ****       LclReadFile,
 4026              		.loc 1 469 3 discriminator 2 view .LVU1462
 4027 1470 1E00000A 		beq	.L319
 469:/home/hkh/git/eapidk-code-r76-trunk/apps/EeePProg/linux/../BinFuncs.c ****       LclReadFile,
 4028              		.loc 1 469 3 discriminator 2 view .LVU1463
 473:/home/hkh/git/eapidk-code-r76-trunk/apps/EeePProg/linux/../BinFuncs.c ****   *pstReadBCnt=0;
 4029              		.loc 1 473 6 discriminator 2 view .LVU1464
 474:/home/hkh/git/eapidk-code-r76-trunk/apps/EeePProg/linux/../BinFuncs.c ****   LclFilePtr=fopen(cszFilename, cszReadType);
 4030              		.loc 1 474 3 discriminator 2 view .LVU1465
 474:/home/hkh/git/eapidk-code-r76-trunk/apps/EeePProg/linux/../BinFuncs.c ****   LclFilePtr=fopen(cszFilename, cszReadType);
ARM GAS  /tmp/ccf3bFwG.s 			page 108


 4031              		.loc 1 474 15 is_stmt 0 discriminator 2 view .LVU1466
 4032 1474 0060A0E3 		mov	r6, #0
 475:/home/hkh/git/eapidk-code-r76-trunk/apps/EeePProg/linux/../BinFuncs.c ****   if(LclFilePtr==NULL){
 4033              		.loc 1 475 14 discriminator 2 view .LVU1467
 4034 1478 0310A0E1 		mov	r1, r3
 4035              	.LVL323:
 474:/home/hkh/git/eapidk-code-r76-trunk/apps/EeePProg/linux/../BinFuncs.c ****   LclFilePtr=fopen(cszFilename, cszReadType);
 4036              		.loc 1 474 15 discriminator 2 view .LVU1468
 4037 147c 006082E5 		str	r6, [r2]
 475:/home/hkh/git/eapidk-code-r76-trunk/apps/EeePProg/linux/../BinFuncs.c ****   if(LclFilePtr==NULL){
 4038              		.loc 1 475 3 is_stmt 1 discriminator 2 view .LVU1469
 4039 1480 0380A0E1 		mov	r8, r3
 475:/home/hkh/git/eapidk-code-r76-trunk/apps/EeePProg/linux/../BinFuncs.c ****   if(LclFilePtr==NULL){
 4040              		.loc 1 475 14 is_stmt 0 discriminator 2 view .LVU1470
 4041 1484 FEFFFFEB 		bl	fopen(PLT)
 4042              	.LVL324:
 476:/home/hkh/git/eapidk-code-r76-trunk/apps/EeePProg/linux/../BinFuncs.c ****     StatusCode=EAPI_STATUS_READ_ERROR;
 4043              		.loc 1 476 3 is_stmt 1 discriminator 2 view .LVU1471
 476:/home/hkh/git/eapidk-code-r76-trunk/apps/EeePProg/linux/../BinFuncs.c ****     StatusCode=EAPI_STATUS_READ_ERROR;
 4044              		.loc 1 476 5 is_stmt 0 discriminator 2 view .LVU1472
 4045 1488 005050E2 		subs	r5, r0, #0
 4046 148c 2800000A 		beq	.L320
 483:/home/hkh/git/eapidk-code-r76-trunk/apps/EeePProg/linux/../BinFuncs.c ****   stFileLen=ftell(LclFilePtr);
 4047              		.loc 1 483 3 is_stmt 1 view .LVU1473
 4048 1490 0220A0E3 		mov	r2, #2
 4049 1494 0610A0E1 		mov	r1, r6
 4050 1498 FEFFFFEB 		bl	fseek(PLT)
 4051              	.LVL325:
 484:/home/hkh/git/eapidk-code-r76-trunk/apps/EeePProg/linux/../BinFuncs.c ****   *pvBuffer=malloc(stFileLen);
 4052              		.loc 1 484 3 view .LVU1474
 484:/home/hkh/git/eapidk-code-r76-trunk/apps/EeePProg/linux/../BinFuncs.c ****   *pvBuffer=malloc(stFileLen);
 4053              		.loc 1 484 13 is_stmt 0 view .LVU1475
 4054 149c 0500A0E1 		mov	r0, r5
 4055 14a0 FEFFFFEB 		bl	ftell(PLT)
 4056              	.LVL326:
 4057 14a4 0080A0E1 		mov	r8, r0
 4058              	.LVL327:
 485:/home/hkh/git/eapidk-code-r76-trunk/apps/EeePProg/linux/../BinFuncs.c ****   EAPI_APP_ASSERT_PARAMATER_NULL(
 4059              		.loc 1 485 3 is_stmt 1 view .LVU1476
 485:/home/hkh/git/eapidk-code-r76-trunk/apps/EeePProg/linux/../BinFuncs.c ****   EAPI_APP_ASSERT_PARAMATER_NULL(
 4060              		.loc 1 485 13 is_stmt 0 view .LVU1477
 4061 14a8 FEFFFFEB 		bl	malloc(PLT)
 4062              	.LVL328:
 486:/home/hkh/git/eapidk-code-r76-trunk/apps/EeePProg/linux/../BinFuncs.c ****       LclReadFile,
 4063              		.loc 1 486 3 view .LVU1478
 4064 14ac 000050E3 		cmp	r0, #0
 485:/home/hkh/git/eapidk-code-r76-trunk/apps/EeePProg/linux/../BinFuncs.c ****   EAPI_APP_ASSERT_PARAMATER_NULL(
 4065              		.loc 1 485 12 view .LVU1479
 4066 14b0 000087E5 		str	r0, [r7]
 486:/home/hkh/git/eapidk-code-r76-trunk/apps/EeePProg/linux/../BinFuncs.c ****       LclReadFile,
 4067              		.loc 1 486 3 is_stmt 1 view .LVU1480
 4068 14b4 4400000A 		beq	.L321
 486:/home/hkh/git/eapidk-code-r76-trunk/apps/EeePProg/linux/../BinFuncs.c ****       LclReadFile,
 4069              		.loc 1 486 3 discriminator 2 view .LVU1481
 490:/home/hkh/git/eapidk-code-r76-trunk/apps/EeePProg/linux/../BinFuncs.c **** 
 4070              		.loc 1 490 6 discriminator 2 view .LVU1482
 492:/home/hkh/git/eapidk-code-r76-trunk/apps/EeePProg/linux/../BinFuncs.c ****   *pstReadBCnt=stFileLen;
ARM GAS  /tmp/ccf3bFwG.s 			page 109


 4071              		.loc 1 492 3 discriminator 2 view .LVU1483
 4072 14b8 0500A0E1 		mov	r0, r5
 4073 14bc FEFFFFEB 		bl	rewind(PLT)
 4074              	.LVL329:
 493:/home/hkh/git/eapidk-code-r76-trunk/apps/EeePProg/linux/../BinFuncs.c **** #if 0
 4075              		.loc 1 493 3 discriminator 2 view .LVU1484
 505:/home/hkh/git/eapidk-code-r76-trunk/apps/EeePProg/linux/../BinFuncs.c **** #endif
 4076              		.loc 1 505 13 is_stmt 0 discriminator 2 view .LVU1485
 4077 14c0 000097E5 		ldr	r0, [r7]
 4078 14c4 0820A0E1 		mov	r2, r8
 4079 14c8 0530A0E1 		mov	r3, r5
 4080 14cc 0110A0E3 		mov	r1, #1
 493:/home/hkh/git/eapidk-code-r76-trunk/apps/EeePProg/linux/../BinFuncs.c **** #if 0
 4081              		.loc 1 493 15 discriminator 2 view .LVU1486
 4082 14d0 008084E5 		str	r8, [r4]
 505:/home/hkh/git/eapidk-code-r76-trunk/apps/EeePProg/linux/../BinFuncs.c **** #endif
 4083              		.loc 1 505 3 is_stmt 1 discriminator 2 view .LVU1487
 505:/home/hkh/git/eapidk-code-r76-trunk/apps/EeePProg/linux/../BinFuncs.c **** #endif
 4084              		.loc 1 505 13 is_stmt 0 discriminator 2 view .LVU1488
 4085 14d4 FEFFFFEB 		bl	fread(PLT)
 4086              	.LVL330:
 507:/home/hkh/git/eapidk-code-r76-trunk/apps/EeePProg/linux/../BinFuncs.c ****   fclose(LclFilePtr);
 4087              		.loc 1 507 3 is_stmt 1 discriminator 2 view .LVU1489
 507:/home/hkh/git/eapidk-code-r76-trunk/apps/EeePProg/linux/../BinFuncs.c ****   fclose(LclFilePtr);
 4088              		.loc 1 507 15 is_stmt 0 discriminator 2 view .LVU1490
 4089 14d8 000084E5 		str	r0, [r4]
 508:/home/hkh/git/eapidk-code-r76-trunk/apps/EeePProg/linux/../BinFuncs.c **** 
 4090              		.loc 1 508 3 is_stmt 1 discriminator 2 view .LVU1491
 4091 14dc 0500A0E1 		mov	r0, r5
 4092              	.LVL331:
 508:/home/hkh/git/eapidk-code-r76-trunk/apps/EeePProg/linux/../BinFuncs.c **** 
 4093              		.loc 1 508 3 is_stmt 0 discriminator 2 view .LVU1492
 4094 14e0 FEFFFFEB 		bl	fclose(PLT)
 4095              	.LVL332:
 456:/home/hkh/git/eapidk-code-r76-trunk/apps/EeePProg/linux/../BinFuncs.c ****   FILE *LclFilePtr;
 4096              		.loc 1 456 16 discriminator 2 view .LVU1493
 4097 14e4 0600A0E1 		mov	r0, r6
 511:/home/hkh/git/eapidk-code-r76-trunk/apps/EeePProg/linux/../BinFuncs.c **** }
 4098              		.loc 1 511 3 is_stmt 1 discriminator 2 view .LVU1494
 4099              	.L310:
 4100              	.LVL333:
 4101              	.L308:
 512:/home/hkh/git/eapidk-code-r76-trunk/apps/EeePProg/linux/../BinFuncs.c **** 
 4102              		.loc 1 512 1 is_stmt 0 view .LVU1495
 4103 14e8 14D08DE2 		add	sp, sp, #20
 4104              		.cfi_remember_state
 4105              		.cfi_def_cfa_offset 28
 4106              		@ sp needed
 4107 14ec F083BDE8 		pop	{r4, r5, r6, r7, r8, r9, pc}
 4108              	.LVL334:
 4109              	.L319:
 4110              		.cfi_restore_state
 469:/home/hkh/git/eapidk-code-r76-trunk/apps/EeePProg/linux/../BinFuncs.c ****       LclReadFile,
 4111              		.loc 1 469 3 is_stmt 1 discriminator 1 view .LVU1496
 469:/home/hkh/git/eapidk-code-r76-trunk/apps/EeePProg/linux/../BinFuncs.c ****       LclReadFile,
 4112              		.loc 1 469 3 discriminator 1 view .LVU1497
 4113 14f0 00C19FE5 		ldr	ip, .L322
ARM GAS  /tmp/ccf3bFwG.s 			page 110


 4114 14f4 016CE0E3 		mvn	r6, #256
 4115 14f8 FC009FE5 		ldr	r0, .L322+4
 4116              	.LVL335:
 469:/home/hkh/git/eapidk-code-r76-trunk/apps/EeePProg/linux/../BinFuncs.c ****       LclReadFile,
 4117              		.loc 1 469 3 is_stmt 0 discriminator 1 view .LVU1498
 4118 14fc D53100E3 		movw	r3, #469
 4119              	.LVL336:
 469:/home/hkh/git/eapidk-code-r76-trunk/apps/EeePProg/linux/../BinFuncs.c ****       LclReadFile,
 4120              		.loc 1 469 3 discriminator 1 view .LVU1499
 4121 1500 F8209FE5 		ldr	r2, .L322+8
 4122              	.LVL337:
 469:/home/hkh/git/eapidk-code-r76-trunk/apps/EeePProg/linux/../BinFuncs.c ****       LclReadFile,
 4123              		.loc 1 469 3 discriminator 1 view .LVU1500
 4124 1504 F8109FE5 		ldr	r1, .L322+12
 4125              	.LVL338:
 469:/home/hkh/git/eapidk-code-r76-trunk/apps/EeePProg/linux/../BinFuncs.c ****       LclReadFile,
 4126              		.loc 1 469 3 discriminator 1 view .LVU1501
 4127              	.LPIC110:
 4128 1508 0CC08FE0 		add	ip, pc, ip
 4129              	.LPIC111:
 4130 150c 00008FE0 		add	r0, pc, r0
 4131              	.LPIC108:
 4132 1510 02208FE0 		add	r2, pc, r2
 4133              	.LPIC109:
 4134 1514 01108FE0 		add	r1, pc, r1
 4135              	.LVL339:
 4136              	.L316:
 464:/home/hkh/git/eapidk-code-r76-trunk/apps/EeePProg/linux/../BinFuncs.c ****       LclReadFile,
 4137              		.loc 1 464 3 discriminator 1 view .LVU1502
 4138 1518 01108DE9 		stmib	sp, {r0, ip}
 4139 151c 4500A0E3 		mov	r0, #69
 4140 1520 00608DE5 		str	r6, [sp]
 4141 1524 FEFFFFEB 		bl	siFormattedMessage_SC(PLT)
 4142              	.LVL340:
 464:/home/hkh/git/eapidk-code-r76-trunk/apps/EeePProg/linux/../BinFuncs.c ****       LclReadFile,
 4143              		.loc 1 464 3 is_stmt 1 discriminator 1 view .LVU1503
 464:/home/hkh/git/eapidk-code-r76-trunk/apps/EeePProg/linux/../BinFuncs.c ****       LclReadFile,
 4144              		.loc 1 464 3 discriminator 1 view .LVU1504
 464:/home/hkh/git/eapidk-code-r76-trunk/apps/EeePProg/linux/../BinFuncs.c ****       LclReadFile,
 4145              		.loc 1 464 3 discriminator 1 view .LVU1505
 4146 1528 0600A0E1 		mov	r0, r6
 512:/home/hkh/git/eapidk-code-r76-trunk/apps/EeePProg/linux/../BinFuncs.c **** 
 4147              		.loc 1 512 1 is_stmt 0 discriminator 1 view .LVU1506
 4148 152c 14D08DE2 		add	sp, sp, #20
 4149              		.cfi_remember_state
 4150              		.cfi_def_cfa_offset 28
 4151              		@ sp needed
 4152 1530 F083BDE8 		pop	{r4, r5, r6, r7, r8, r9, pc}
 4153              	.LVL341:
 4154              	.L320:
 4155              		.cfi_restore_state
 477:/home/hkh/git/eapidk-code-r76-trunk/apps/EeePProg/linux/../BinFuncs.c ****     siFormattedMessage_SC('L', __FILE__, "LclReadFile", __LINE__, StatusCode,
 4156              		.loc 1 477 5 is_stmt 1 view .LVU1507
 478:/home/hkh/git/eapidk-code-r76-trunk/apps/EeePProg/linux/../BinFuncs.c ****         "Opening File %s(%s)\n", cszFilename, cszReadType);
 4157              		.loc 1 478 5 view .LVU1508
 4158 1534 CC009FE5 		ldr	r0, .L322+16
 4159              	.LVL342:
ARM GAS  /tmp/ccf3bFwG.s 			page 111


 478:/home/hkh/git/eapidk-code-r76-trunk/apps/EeePProg/linux/../BinFuncs.c ****         "Opening File %s(%s)\n", cszFilename, cszReadType);
 4160              		.loc 1 478 5 is_stmt 0 view .LVU1509
 4161 1538 056CE0E3 		mvn	r6, #1280
 4162 153c C8209FE5 		ldr	r2, .L322+20
 4163 1540 DE3100E3 		movw	r3, #478
 4164 1544 C4109FE5 		ldr	r1, .L322+24
 4165              	.LPIC114:
 4166 1548 00008FE0 		add	r0, pc, r0
 4167 154c 0C808DE5 		str	r8, [sp, #12]
 4168 1550 04008DE5 		str	r0, [sp, #4]
 4169              	.LPIC112:
 4170 1554 02208FE0 		add	r2, pc, r2
 4171              	.LPIC113:
 4172 1558 01108FE0 		add	r1, pc, r1
 4173 155c 4C00A0E3 		mov	r0, #76
 4174 1560 08908DE5 		str	r9, [sp, #8]
 4175 1564 00608DE5 		str	r6, [sp]
 4176 1568 FEFFFFEB 		bl	siFormattedMessage_SC(PLT)
 4177              	.LVL343:
 480:/home/hkh/git/eapidk-code-r76-trunk/apps/EeePProg/linux/../BinFuncs.c ****   }
 4178              		.loc 1 480 5 is_stmt 1 view .LVU1510
 477:/home/hkh/git/eapidk-code-r76-trunk/apps/EeePProg/linux/../BinFuncs.c ****     siFormattedMessage_SC('L', __FILE__, "LclReadFile", __LINE__, StatusCode,
 4179              		.loc 1 477 15 is_stmt 0 view .LVU1511
 4180 156c 0600A0E1 		mov	r0, r6
 480:/home/hkh/git/eapidk-code-r76-trunk/apps/EeePProg/linux/../BinFuncs.c ****   }
 4181              		.loc 1 480 5 view .LVU1512
 4182 1570 DCFFFFEA 		b	.L308
 4183              	.LVL344:
 4184              	.L317:
 459:/home/hkh/git/eapidk-code-r76-trunk/apps/EeePProg/linux/../BinFuncs.c ****       LclReadFile,
 4185              		.loc 1 459 3 is_stmt 1 discriminator 1 view .LVU1513
 459:/home/hkh/git/eapidk-code-r76-trunk/apps/EeePProg/linux/../BinFuncs.c ****       LclReadFile,
 4186              		.loc 1 459 3 discriminator 1 view .LVU1514
 4187 1574 98C09FE5 		ldr	ip, .L322+28
 4188 1578 016CE0E3 		mvn	r6, #256
 4189 157c 94009FE5 		ldr	r0, .L322+32
 4190              	.LVL345:
 459:/home/hkh/git/eapidk-code-r76-trunk/apps/EeePProg/linux/../BinFuncs.c ****       LclReadFile,
 4191              		.loc 1 459 3 is_stmt 0 discriminator 1 view .LVU1515
 4192 1580 CB3100E3 		movw	r3, #459
 4193              	.LVL346:
 459:/home/hkh/git/eapidk-code-r76-trunk/apps/EeePProg/linux/../BinFuncs.c ****       LclReadFile,
 4194              		.loc 1 459 3 discriminator 1 view .LVU1516
 4195 1584 90209FE5 		ldr	r2, .L322+36
 4196              	.LVL347:
 459:/home/hkh/git/eapidk-code-r76-trunk/apps/EeePProg/linux/../BinFuncs.c ****       LclReadFile,
 4197              		.loc 1 459 3 discriminator 1 view .LVU1517
 4198 1588 90109FE5 		ldr	r1, .L322+40
 4199              	.LVL348:
 459:/home/hkh/git/eapidk-code-r76-trunk/apps/EeePProg/linux/../BinFuncs.c ****       LclReadFile,
 4200              		.loc 1 459 3 discriminator 1 view .LVU1518
 4201              	.LPIC102:
 4202 158c 0CC08FE0 		add	ip, pc, ip
 4203              	.LPIC103:
 4204 1590 00008FE0 		add	r0, pc, r0
 4205              	.LPIC100:
 4206 1594 02208FE0 		add	r2, pc, r2
ARM GAS  /tmp/ccf3bFwG.s 			page 112


 4207              	.LPIC101:
 4208 1598 01108FE0 		add	r1, pc, r1
 4209 159c DDFFFFEA 		b	.L316
 4210              	.LVL349:
 4211              	.L318:
 464:/home/hkh/git/eapidk-code-r76-trunk/apps/EeePProg/linux/../BinFuncs.c ****       LclReadFile,
 4212              		.loc 1 464 3 is_stmt 1 discriminator 1 view .LVU1519
 464:/home/hkh/git/eapidk-code-r76-trunk/apps/EeePProg/linux/../BinFuncs.c ****       LclReadFile,
 4213              		.loc 1 464 3 discriminator 1 view .LVU1520
 4214 15a0 7CC09FE5 		ldr	ip, .L322+44
 4215 15a4 016CE0E3 		mvn	r6, #256
 4216 15a8 78009FE5 		ldr	r0, .L322+48
 4217              	.LVL350:
 464:/home/hkh/git/eapidk-code-r76-trunk/apps/EeePProg/linux/../BinFuncs.c ****       LclReadFile,
 4218              		.loc 1 464 3 is_stmt 0 discriminator 1 view .LVU1521
 4219 15ac 1D3EA0E3 		mov	r3, #464
 4220              	.LVL351:
 464:/home/hkh/git/eapidk-code-r76-trunk/apps/EeePProg/linux/../BinFuncs.c ****       LclReadFile,
 4221              		.loc 1 464 3 discriminator 1 view .LVU1522
 4222 15b0 74209FE5 		ldr	r2, .L322+52
 4223              	.LVL352:
 464:/home/hkh/git/eapidk-code-r76-trunk/apps/EeePProg/linux/../BinFuncs.c ****       LclReadFile,
 4224              		.loc 1 464 3 discriminator 1 view .LVU1523
 4225 15b4 74109FE5 		ldr	r1, .L322+56
 4226              	.LVL353:
 464:/home/hkh/git/eapidk-code-r76-trunk/apps/EeePProg/linux/../BinFuncs.c ****       LclReadFile,
 4227              		.loc 1 464 3 discriminator 1 view .LVU1524
 4228              	.LPIC106:
 4229 15b8 0CC08FE0 		add	ip, pc, ip
 4230              	.LPIC107:
 4231 15bc 00008FE0 		add	r0, pc, r0
 4232              	.LPIC104:
 4233 15c0 02208FE0 		add	r2, pc, r2
 4234              	.LPIC105:
 4235 15c4 01108FE0 		add	r1, pc, r1
 4236 15c8 D2FFFFEA 		b	.L316
 4237              	.LVL354:
 4238              	.L321:
 486:/home/hkh/git/eapidk-code-r76-trunk/apps/EeePProg/linux/../BinFuncs.c ****       LclReadFile,
 4239              		.loc 1 486 3 is_stmt 1 discriminator 1 view .LVU1525
 486:/home/hkh/git/eapidk-code-r76-trunk/apps/EeePProg/linux/../BinFuncs.c ****       LclReadFile,
 4240              		.loc 1 486 3 discriminator 1 view .LVU1526
 4241 15cc 60C09FE5 		ldr	ip, .L322+60
 4242 15d0 0260E0E3 		mvn	r6, #2
 4243 15d4 5C009FE5 		ldr	r0, .L322+64
 4244 15d8 E63100E3 		movw	r3, #486
 4245 15dc 58209FE5 		ldr	r2, .L322+68
 4246 15e0 58109FE5 		ldr	r1, .L322+72
 4247              	.LPIC117:
 4248 15e4 0CC08FE0 		add	ip, pc, ip
 4249              	.LPIC118:
 4250 15e8 00008FE0 		add	r0, pc, r0
 4251              	.LPIC115:
 4252 15ec 02208FE0 		add	r2, pc, r2
 4253              	.LPIC116:
 4254 15f0 01108FE0 		add	r1, pc, r1
 4255 15f4 C7FFFFEA 		b	.L316
ARM GAS  /tmp/ccf3bFwG.s 			page 113


 4256              	.L323:
 4257              		.align	2
 4258              	.L322:
 4259 15f8 E8000000 		.word	.LC33-(.LPIC110+8)
 4260 15fc E8000000 		.word	.LC3-(.LPIC111+8)
 4261 1600 E8000000 		.word	.LC31-(.LPIC108+8)
 4262 1604 E8000000 		.word	.LC1-(.LPIC109+8)
 4263 1608 B8000000 		.word	.LC29-(.LPIC114+8)
 4264 160c B0000000 		.word	.LC31-(.LPIC112+8)
 4265 1610 B0000000 		.word	.LC1-(.LPIC113+8)
 4266 1614 80000000 		.word	.LC27-(.LPIC102+8)
 4267 1618 80000000 		.word	.LC3-(.LPIC103+8)
 4268 161c 80000000 		.word	.LC31-(.LPIC100+8)
 4269 1620 80000000 		.word	.LC1-(.LPIC101+8)
 4270 1624 64000000 		.word	.LC32-(.LPIC106+8)
 4271 1628 64000000 		.word	.LC3-(.LPIC107+8)
 4272 162c 64000000 		.word	.LC31-(.LPIC104+8)
 4273 1630 64000000 		.word	.LC1-(.LPIC105+8)
 4274 1634 48000000 		.word	.LC34-(.LPIC117+8)
 4275 1638 48000000 		.word	.LC3-(.LPIC118+8)
 4276 163c 48000000 		.word	.LC31-(.LPIC115+8)
 4277 1640 48000000 		.word	.LC1-(.LPIC116+8)
 4278              		.cfi_endproc
 4279              	.LFE14:
 4281              		.section	.rodata.str1.4
 4282 02de 0000     		.align	2
 4283              	.LC35:
 4284 02e0 776200   		.ascii	"wb\000"
 4285              		.text
 4286              		.align	2
 4287              		.global	WriteBinaryFile
 4288              		.syntax unified
 4289              		.arm
 4290              		.fpu vfpv3
 4292              	WriteBinaryFile:
 4293              	.LVL355:
 4294              	.LFB15:
 520:/home/hkh/git/eapidk-code-r76-trunk/apps/EeePProg/linux/../BinFuncs.c ****   return LclWriteFile(cszFilename, pcvBuffer, stWriteBCnt, "wb");
 4295              		.loc 1 520 1 view -0
 4296              		.cfi_startproc
 4297              		@ args = 0, pretend = 0, frame = 0
 4298              		@ frame_needed = 0, uses_anonymous_args = 0
 521:/home/hkh/git/eapidk-code-r76-trunk/apps/EeePProg/linux/../BinFuncs.c **** }
 4299              		.loc 1 521 3 view .LVU1528
 520:/home/hkh/git/eapidk-code-r76-trunk/apps/EeePProg/linux/../BinFuncs.c ****   return LclWriteFile(cszFilename, pcvBuffer, stWriteBCnt, "wb");
 4300              		.loc 1 520 1 is_stmt 0 view .LVU1529
 4301 1644 F0412DE9 		push	{r4, r5, r6, r7, r8, lr}
 4302              		.cfi_def_cfa_offset 24
 4303              		.cfi_offset 4, -24
 4304              		.cfi_offset 5, -20
 4305              		.cfi_offset 6, -16
 4306              		.cfi_offset 7, -12
 4307              		.cfi_offset 8, -8
 4308              		.cfi_offset 14, -4
 4309              	.LBB184:
 4310              	.LBB185:
 415:/home/hkh/git/eapidk-code-r76-trunk/apps/EeePProg/linux/../BinFuncs.c ****       LclWriteFile,
ARM GAS  /tmp/ccf3bFwG.s 			page 114


 4311              		.loc 1 415 3 view .LVU1530
 4312 1648 007050E2 		subs	r7, r0, #0
 4313              	.LVL356:
 415:/home/hkh/git/eapidk-code-r76-trunk/apps/EeePProg/linux/../BinFuncs.c ****       LclWriteFile,
 4314              		.loc 1 415 3 view .LVU1531
 4315              	.LBE185:
 4316              	.LBI184:
 406:/home/hkh/git/eapidk-code-r76-trunk/apps/EeePProg/linux/../BinFuncs.c ****     __IN const char *cszFilename, 
 4317              		.loc 1 406 1 is_stmt 1 view .LVU1532
 4318              	.LBB192:
 413:/home/hkh/git/eapidk-code-r76-trunk/apps/EeePProg/linux/../BinFuncs.c ****   FILE *LclFilePtr;
 4319              		.loc 1 413 3 view .LVU1533
 414:/home/hkh/git/eapidk-code-r76-trunk/apps/EeePProg/linux/../BinFuncs.c ****   EAPI_APP_ASSERT_PARAMATER_NULL(
 4320              		.loc 1 414 3 view .LVU1534
 415:/home/hkh/git/eapidk-code-r76-trunk/apps/EeePProg/linux/../BinFuncs.c ****       LclWriteFile,
 4321              		.loc 1 415 3 view .LVU1535
 4322              	.LBE192:
 4323              	.LBE184:
 520:/home/hkh/git/eapidk-code-r76-trunk/apps/EeePProg/linux/../BinFuncs.c ****   return LclWriteFile(cszFilename, pcvBuffer, stWriteBCnt, "wb");
 4324              		.loc 1 520 1 is_stmt 0 view .LVU1536
 4325 164c 10D04DE2 		sub	sp, sp, #16
 4326              		.cfi_def_cfa_offset 40
 4327              	.LBB196:
 4328              	.LBB193:
 415:/home/hkh/git/eapidk-code-r76-trunk/apps/EeePProg/linux/../BinFuncs.c ****       LclWriteFile,
 4329              		.loc 1 415 3 view .LVU1537
 4330 1650 4500000A 		beq	.L333
 420:/home/hkh/git/eapidk-code-r76-trunk/apps/EeePProg/linux/../BinFuncs.c ****       LclWriteFile,
 4331              		.loc 1 420 3 view .LVU1538
 4332 1654 000051E3 		cmp	r1, #0
 4333 1658 0150A0E1 		mov	r5, r1
 415:/home/hkh/git/eapidk-code-r76-trunk/apps/EeePProg/linux/../BinFuncs.c ****       LclWriteFile,
 4334              		.loc 1 415 3 is_stmt 1 view .LVU1539
 419:/home/hkh/git/eapidk-code-r76-trunk/apps/EeePProg/linux/../BinFuncs.c ****   EAPI_APP_ASSERT_PARAMATER_NULL(
 4335              		.loc 1 419 6 view .LVU1540
 420:/home/hkh/git/eapidk-code-r76-trunk/apps/EeePProg/linux/../BinFuncs.c ****       LclWriteFile,
 4336              		.loc 1 420 3 view .LVU1541
 4337 165c 4D00000A 		beq	.L334
 425:/home/hkh/git/eapidk-code-r76-trunk/apps/EeePProg/linux/../BinFuncs.c ****       LclWriteFile,
 4338              		.loc 1 425 3 is_stmt 0 view .LVU1542
 4339 1660 000052E3 		cmp	r2, #0
 4340 1664 0240A0E1 		mov	r4, r2
 420:/home/hkh/git/eapidk-code-r76-trunk/apps/EeePProg/linux/../BinFuncs.c ****       LclWriteFile,
 4341              		.loc 1 420 3 is_stmt 1 view .LVU1543
 424:/home/hkh/git/eapidk-code-r76-trunk/apps/EeePProg/linux/../BinFuncs.c ****   EAPI_APP_ASSERT_PARAMATER_ZERO(
 4342              		.loc 1 424 6 view .LVU1544
 425:/home/hkh/git/eapidk-code-r76-trunk/apps/EeePProg/linux/../BinFuncs.c ****       LclWriteFile,
 4343              		.loc 1 425 3 view .LVU1545
 4344 1668 2300000A 		beq	.L335
 4345              	.LVL357:
 4346              	.LBB186:
 4347              	.LBI186:
 406:/home/hkh/git/eapidk-code-r76-trunk/apps/EeePProg/linux/../BinFuncs.c ****     __IN const char *cszFilename, 
 4348              		.loc 1 406 1 view .LVU1546
 4349              	.LBB187:
 425:/home/hkh/git/eapidk-code-r76-trunk/apps/EeePProg/linux/../BinFuncs.c ****       LclWriteFile,
 4350              		.loc 1 425 3 view .LVU1547
ARM GAS  /tmp/ccf3bFwG.s 			page 115


 429:/home/hkh/git/eapidk-code-r76-trunk/apps/EeePProg/linux/../BinFuncs.c **** 
 4351              		.loc 1 429 6 view .LVU1548
 431:/home/hkh/git/eapidk-code-r76-trunk/apps/EeePProg/linux/../BinFuncs.c ****   if(LclFilePtr==NULL){
 4352              		.loc 1 431 3 view .LVU1549
 431:/home/hkh/git/eapidk-code-r76-trunk/apps/EeePProg/linux/../BinFuncs.c ****   if(LclFilePtr==NULL){
 4353              		.loc 1 431 14 is_stmt 0 view .LVU1550
 4354 166c 50819FE5 		ldr	r8, .L338
 4355              	.LPIC131:
 4356 1670 08808FE0 		add	r8, pc, r8
 4357 1674 0810A0E1 		mov	r1, r8
 4358              	.LVL358:
 431:/home/hkh/git/eapidk-code-r76-trunk/apps/EeePProg/linux/../BinFuncs.c ****   if(LclFilePtr==NULL){
 4359              		.loc 1 431 14 view .LVU1551
 4360 1678 FEFFFFEB 		bl	fopen(PLT)
 4361              	.LVL359:
 432:/home/hkh/git/eapidk-code-r76-trunk/apps/EeePProg/linux/../BinFuncs.c ****     StatusCode=EAPI_STATUS_WRITE_ERROR;
 4362              		.loc 1 432 3 is_stmt 1 view .LVU1552
 432:/home/hkh/git/eapidk-code-r76-trunk/apps/EeePProg/linux/../BinFuncs.c ****     StatusCode=EAPI_STATUS_WRITE_ERROR;
 4363              		.loc 1 432 5 is_stmt 0 view .LVU1553
 4364 167c 006050E2 		subs	r6, r0, #0
 4365 1680 2800000A 		beq	.L336
 438:/home/hkh/git/eapidk-code-r76-trunk/apps/EeePProg/linux/../BinFuncs.c ****       LclWriteFile,
 4366              		.loc 1 438 3 is_stmt 1 view .LVU1554
 4367 1684 0630A0E1 		mov	r3, r6
 4368 1688 0420A0E1 		mov	r2, r4
 4369 168c 0500A0E1 		mov	r0, r5
 4370              	.LVL360:
 438:/home/hkh/git/eapidk-code-r76-trunk/apps/EeePProg/linux/../BinFuncs.c ****       LclWriteFile,
 4371              		.loc 1 438 3 is_stmt 0 view .LVU1555
 4372 1690 0110A0E3 		mov	r1, #1
 4373 1694 FEFFFFEB 		bl	fwrite(PLT)
 4374              	.LVL361:
 438:/home/hkh/git/eapidk-code-r76-trunk/apps/EeePProg/linux/../BinFuncs.c ****       LclWriteFile,
 4375              		.loc 1 438 3 view .LVU1556
 4376 1698 000054E1 		cmp	r4, r0
 4377 169c 0400001A 		bne	.L337
 438:/home/hkh/git/eapidk-code-r76-trunk/apps/EeePProg/linux/../BinFuncs.c ****       LclWriteFile,
 4378              		.loc 1 438 3 is_stmt 1 view .LVU1557
 442:/home/hkh/git/eapidk-code-r76-trunk/apps/EeePProg/linux/../BinFuncs.c ****   fclose(LclFilePtr);
 4379              		.loc 1 442 6 view .LVU1558
 443:/home/hkh/git/eapidk-code-r76-trunk/apps/EeePProg/linux/../BinFuncs.c **** EAPI_APP_ASSERT_EXIT
 4380              		.loc 1 443 3 view .LVU1559
 4381 16a0 0600A0E1 		mov	r0, r6
 4382 16a4 FEFFFFEB 		bl	fclose(PLT)
 4383              	.LVL362:
 413:/home/hkh/git/eapidk-code-r76-trunk/apps/EeePProg/linux/../BinFuncs.c ****   FILE *LclFilePtr;
 4384              		.loc 1 413 16 is_stmt 0 view .LVU1560
 4385 16a8 0000A0E3 		mov	r0, #0
 4386              	.LVL363:
 413:/home/hkh/git/eapidk-code-r76-trunk/apps/EeePProg/linux/../BinFuncs.c ****   FILE *LclFilePtr;
 4387              		.loc 1 413 16 view .LVU1561
 4388              	.LBE187:
 4389              	.LBE186:
 445:/home/hkh/git/eapidk-code-r76-trunk/apps/EeePProg/linux/../BinFuncs.c **** }
 4390              		.loc 1 445 3 is_stmt 1 view .LVU1562
 4391              	.L326:
 4392              	.L324:
ARM GAS  /tmp/ccf3bFwG.s 			page 116


 445:/home/hkh/git/eapidk-code-r76-trunk/apps/EeePProg/linux/../BinFuncs.c **** }
 4393              		.loc 1 445 3 is_stmt 0 view .LVU1563
 4394              	.LBE193:
 4395              	.LBE196:
 522:/home/hkh/git/eapidk-code-r76-trunk/apps/EeePProg/linux/../BinFuncs.c **** 
 4396              		.loc 1 522 1 view .LVU1564
 4397 16ac 10D08DE2 		add	sp, sp, #16
 4398              		.cfi_remember_state
 4399              		.cfi_def_cfa_offset 24
 4400              		@ sp needed
 4401 16b0 F081BDE8 		pop	{r4, r5, r6, r7, r8, pc}
 4402              	.LVL364:
 4403              	.L337:
 4404              		.cfi_restore_state
 4405              	.LBB197:
 4406              	.LBB194:
 4407              	.LBB190:
 4408              	.LBB188:
 438:/home/hkh/git/eapidk-code-r76-trunk/apps/EeePProg/linux/../BinFuncs.c ****       LclWriteFile,
 4409              		.loc 1 438 3 is_stmt 1 view .LVU1565
 438:/home/hkh/git/eapidk-code-r76-trunk/apps/EeePProg/linux/../BinFuncs.c ****       LclWriteFile,
 4410              		.loc 1 438 3 view .LVU1566
 4411 16b4 0CC19FE5 		ldr	ip, .L338+4
 4412 16b8 FE4A0FE3 		movw	r4, #64254
 4413              	.LVL365:
 438:/home/hkh/git/eapidk-code-r76-trunk/apps/EeePProg/linux/../BinFuncs.c ****       LclWriteFile,
 4414              		.loc 1 438 3 is_stmt 0 view .LVU1567
 4415 16bc 08019FE5 		ldr	r0, .L338+8
 4416 16c0 FF4F4FE3 		movt	r4, 65535
 4417 16c4 04219FE5 		ldr	r2, .L338+12
 4418 16c8 B63100E3 		movw	r3, #438
 4419 16cc 00119FE5 		ldr	r1, .L338+16
 4420              	.LPIC138:
 4421 16d0 0CC08FE0 		add	ip, pc, ip
 4422              	.LPIC139:
 4423 16d4 00008FE0 		add	r0, pc, r0
 4424              	.LPIC136:
 4425 16d8 02208FE0 		add	r2, pc, r2
 4426              	.LPIC137:
 4427 16dc 01108FE0 		add	r1, pc, r1
 4428              	.LVL366:
 4429              	.L332:
 438:/home/hkh/git/eapidk-code-r76-trunk/apps/EeePProg/linux/../BinFuncs.c ****       LclWriteFile,
 4430              		.loc 1 438 3 view .LVU1568
 4431              	.LBE188:
 4432              	.LBE190:
 420:/home/hkh/git/eapidk-code-r76-trunk/apps/EeePProg/linux/../BinFuncs.c ****       LclWriteFile,
 4433              		.loc 1 420 3 view .LVU1569
 4434 16e0 01108DE9 		stmib	sp, {r0, ip}
 4435 16e4 4500A0E3 		mov	r0, #69
 4436 16e8 00408DE5 		str	r4, [sp]
 4437 16ec FEFFFFEB 		bl	siFormattedMessage_SC(PLT)
 4438              	.LVL367:
 420:/home/hkh/git/eapidk-code-r76-trunk/apps/EeePProg/linux/../BinFuncs.c ****       LclWriteFile,
 4439              		.loc 1 420 3 is_stmt 1 view .LVU1570
 420:/home/hkh/git/eapidk-code-r76-trunk/apps/EeePProg/linux/../BinFuncs.c ****       LclWriteFile,
 4440              		.loc 1 420 3 view .LVU1571
ARM GAS  /tmp/ccf3bFwG.s 			page 117


 420:/home/hkh/git/eapidk-code-r76-trunk/apps/EeePProg/linux/../BinFuncs.c ****       LclWriteFile,
 4441              		.loc 1 420 3 view .LVU1572
 4442 16f0 0400A0E1 		mov	r0, r4
 4443              	.LBE194:
 4444              	.LBE197:
 522:/home/hkh/git/eapidk-code-r76-trunk/apps/EeePProg/linux/../BinFuncs.c **** 
 4445              		.loc 1 522 1 is_stmt 0 view .LVU1573
 4446 16f4 10D08DE2 		add	sp, sp, #16
 4447              		.cfi_remember_state
 4448              		.cfi_def_cfa_offset 24
 4449              		@ sp needed
 4450 16f8 F081BDE8 		pop	{r4, r5, r6, r7, r8, pc}
 4451              	.LVL368:
 4452              	.L335:
 4453              		.cfi_restore_state
 4454              	.LBB198:
 4455              	.LBB195:
 425:/home/hkh/git/eapidk-code-r76-trunk/apps/EeePProg/linux/../BinFuncs.c ****       LclWriteFile,
 4456              		.loc 1 425 3 is_stmt 1 view .LVU1574
 425:/home/hkh/git/eapidk-code-r76-trunk/apps/EeePProg/linux/../BinFuncs.c ****       LclWriteFile,
 4457              		.loc 1 425 3 view .LVU1575
 4458 16fc D4C09FE5 		ldr	ip, .L338+20
 4459 1700 014CE0E3 		mvn	r4, #256
 4460 1704 D0009FE5 		ldr	r0, .L338+24
 4461              	.LVL369:
 425:/home/hkh/git/eapidk-code-r76-trunk/apps/EeePProg/linux/../BinFuncs.c ****       LclWriteFile,
 4462              		.loc 1 425 3 is_stmt 0 view .LVU1576
 4463 1708 A93100E3 		movw	r3, #425
 4464 170c CC209FE5 		ldr	r2, .L338+28
 4465              	.LVL370:
 425:/home/hkh/git/eapidk-code-r76-trunk/apps/EeePProg/linux/../BinFuncs.c ****       LclWriteFile,
 4466              		.loc 1 425 3 view .LVU1577
 4467 1710 CC109FE5 		ldr	r1, .L338+32
 4468              	.LVL371:
 425:/home/hkh/git/eapidk-code-r76-trunk/apps/EeePProg/linux/../BinFuncs.c ****       LclWriteFile,
 4469              		.loc 1 425 3 view .LVU1578
 4470              	.LPIC129:
 4471 1714 0CC08FE0 		add	ip, pc, ip
 4472              	.LPIC130:
 4473 1718 00008FE0 		add	r0, pc, r0
 4474              	.LPIC127:
 4475 171c 02208FE0 		add	r2, pc, r2
 4476              	.LPIC128:
 4477 1720 01108FE0 		add	r1, pc, r1
 4478 1724 EDFFFFEA 		b	.L332
 4479              	.LVL372:
 4480              	.L336:
 4481              	.LBB191:
 4482              	.LBB189:
 433:/home/hkh/git/eapidk-code-r76-trunk/apps/EeePProg/linux/../BinFuncs.c ****     siFormattedMessage_SC('L', __FILE__, "LclWriteFile", __LINE__, StatusCode,
 4483              		.loc 1 433 5 is_stmt 1 view .LVU1579
 434:/home/hkh/git/eapidk-code-r76-trunk/apps/EeePProg/linux/../BinFuncs.c ****         "Opening File %s(%s)\n", cszFilename, cszWriteType);
 4484              		.loc 1 434 5 view .LVU1580
 4485 1728 B8009FE5 		ldr	r0, .L338+36
 4486              	.LVL373:
 434:/home/hkh/git/eapidk-code-r76-trunk/apps/EeePProg/linux/../BinFuncs.c ****         "Opening File %s(%s)\n", cszFilename, cszWriteType);
 4487              		.loc 1 434 5 is_stmt 0 view .LVU1581
ARM GAS  /tmp/ccf3bFwG.s 			page 118


 4488 172c FE4A0FE3 		movw	r4, #64254
 4489              	.LVL374:
 434:/home/hkh/git/eapidk-code-r76-trunk/apps/EeePProg/linux/../BinFuncs.c ****         "Opening File %s(%s)\n", cszFilename, cszWriteType);
 4490              		.loc 1 434 5 view .LVU1582
 4491 1730 B4209FE5 		ldr	r2, .L338+40
 4492 1734 FF4F4FE3 		movt	r4, 65535
 4493 1738 B0109FE5 		ldr	r1, .L338+44
 4494 173c B23100E3 		movw	r3, #434
 4495              	.LPIC135:
 4496 1740 00008FE0 		add	r0, pc, r0
 4497 1744 0C808DE5 		str	r8, [sp, #12]
 4498 1748 04008DE5 		str	r0, [sp, #4]
 4499              	.LPIC132:
 4500 174c 02208FE0 		add	r2, pc, r2
 4501              	.LPIC133:
 4502 1750 01108FE0 		add	r1, pc, r1
 4503 1754 4C00A0E3 		mov	r0, #76
 4504 1758 08708DE5 		str	r7, [sp, #8]
 4505 175c 00408DE5 		str	r4, [sp]
 4506 1760 FEFFFFEB 		bl	siFormattedMessage_SC(PLT)
 4507              	.LVL375:
 436:/home/hkh/git/eapidk-code-r76-trunk/apps/EeePProg/linux/../BinFuncs.c ****   }
 4508              		.loc 1 436 5 is_stmt 1 view .LVU1583
 433:/home/hkh/git/eapidk-code-r76-trunk/apps/EeePProg/linux/../BinFuncs.c ****     siFormattedMessage_SC('L', __FILE__, "LclWriteFile", __LINE__, StatusCode,
 4509              		.loc 1 433 15 is_stmt 0 view .LVU1584
 4510 1764 0400A0E1 		mov	r0, r4
 436:/home/hkh/git/eapidk-code-r76-trunk/apps/EeePProg/linux/../BinFuncs.c ****   }
 4511              		.loc 1 436 5 view .LVU1585
 4512 1768 CFFFFFEA 		b	.L324
 4513              	.LVL376:
 4514              	.L333:
 436:/home/hkh/git/eapidk-code-r76-trunk/apps/EeePProg/linux/../BinFuncs.c ****   }
 4515              		.loc 1 436 5 view .LVU1586
 4516              	.LBE189:
 4517              	.LBE191:
 415:/home/hkh/git/eapidk-code-r76-trunk/apps/EeePProg/linux/../BinFuncs.c ****       LclWriteFile,
 4518              		.loc 1 415 3 is_stmt 1 view .LVU1587
 415:/home/hkh/git/eapidk-code-r76-trunk/apps/EeePProg/linux/../BinFuncs.c ****       LclWriteFile,
 4519              		.loc 1 415 3 view .LVU1588
 4520 176c 80C09FE5 		ldr	ip, .L338+48
 4521 1770 014CE0E3 		mvn	r4, #256
 4522 1774 7C009FE5 		ldr	r0, .L338+52
 4523              	.LVL377:
 415:/home/hkh/git/eapidk-code-r76-trunk/apps/EeePProg/linux/../BinFuncs.c ****       LclWriteFile,
 4524              		.loc 1 415 3 is_stmt 0 view .LVU1589
 4525 1778 9F3100E3 		movw	r3, #415
 4526 177c 78209FE5 		ldr	r2, .L338+56
 4527              	.LVL378:
 415:/home/hkh/git/eapidk-code-r76-trunk/apps/EeePProg/linux/../BinFuncs.c ****       LclWriteFile,
 4528              		.loc 1 415 3 view .LVU1590
 4529 1780 78109FE5 		ldr	r1, .L338+60
 4530              	.LVL379:
 415:/home/hkh/git/eapidk-code-r76-trunk/apps/EeePProg/linux/../BinFuncs.c ****       LclWriteFile,
 4531              		.loc 1 415 3 view .LVU1591
 4532              	.LPIC121:
 4533 1784 0CC08FE0 		add	ip, pc, ip
 4534              	.LPIC122:
ARM GAS  /tmp/ccf3bFwG.s 			page 119


 4535 1788 00008FE0 		add	r0, pc, r0
 4536              	.LPIC119:
 4537 178c 02208FE0 		add	r2, pc, r2
 4538              	.LPIC120:
 4539 1790 01108FE0 		add	r1, pc, r1
 4540 1794 D1FFFFEA 		b	.L332
 4541              	.LVL380:
 4542              	.L334:
 420:/home/hkh/git/eapidk-code-r76-trunk/apps/EeePProg/linux/../BinFuncs.c ****       LclWriteFile,
 4543              		.loc 1 420 3 is_stmt 1 view .LVU1592
 420:/home/hkh/git/eapidk-code-r76-trunk/apps/EeePProg/linux/../BinFuncs.c ****       LclWriteFile,
 4544              		.loc 1 420 3 view .LVU1593
 4545 1798 64C09FE5 		ldr	ip, .L338+64
 4546 179c 014CE0E3 		mvn	r4, #256
 4547 17a0 60009FE5 		ldr	r0, .L338+68
 4548              	.LVL381:
 420:/home/hkh/git/eapidk-code-r76-trunk/apps/EeePProg/linux/../BinFuncs.c ****       LclWriteFile,
 4549              		.loc 1 420 3 is_stmt 0 view .LVU1594
 4550 17a4 693FA0E3 		mov	r3, #420
 4551 17a8 5C209FE5 		ldr	r2, .L338+72
 4552              	.LVL382:
 420:/home/hkh/git/eapidk-code-r76-trunk/apps/EeePProg/linux/../BinFuncs.c ****       LclWriteFile,
 4553              		.loc 1 420 3 view .LVU1595
 4554 17ac 5C109FE5 		ldr	r1, .L338+76
 4555              	.LVL383:
 420:/home/hkh/git/eapidk-code-r76-trunk/apps/EeePProg/linux/../BinFuncs.c ****       LclWriteFile,
 4556              		.loc 1 420 3 view .LVU1596
 4557              	.LPIC125:
 4558 17b0 0CC08FE0 		add	ip, pc, ip
 4559              	.LPIC126:
 4560 17b4 00008FE0 		add	r0, pc, r0
 4561              	.LPIC123:
 4562 17b8 02208FE0 		add	r2, pc, r2
 4563              	.LPIC124:
 4564 17bc 01108FE0 		add	r1, pc, r1
 4565 17c0 C6FFFFEA 		b	.L332
 4566              	.L339:
 4567              		.align	2
 4568              	.L338:
 4569 17c4 4C010000 		.word	.LC35-(.LPIC131+8)
 4570 17c8 F0000000 		.word	.LC30-(.LPIC138+8)
 4571 17cc F0000000 		.word	.LC3-(.LPIC139+8)
 4572 17d0 F0000000 		.word	.LC26-(.LPIC136+8)
 4573 17d4 F0000000 		.word	.LC1-(.LPIC137+8)
 4574 17d8 BC000000 		.word	.LC28-(.LPIC129+8)
 4575 17dc BC000000 		.word	.LC3-(.LPIC130+8)
 4576 17e0 BC000000 		.word	.LC26-(.LPIC127+8)
 4577 17e4 BC000000 		.word	.LC1-(.LPIC128+8)
 4578 17e8 A0000000 		.word	.LC29-(.LPIC135+8)
 4579 17ec 98000000 		.word	.LC26-(.LPIC132+8)
 4580 17f0 98000000 		.word	.LC1-(.LPIC133+8)
 4581 17f4 68000000 		.word	.LC27-(.LPIC121+8)
 4582 17f8 68000000 		.word	.LC3-(.LPIC122+8)
 4583 17fc 68000000 		.word	.LC26-(.LPIC119+8)
 4584 1800 68000000 		.word	.LC1-(.LPIC120+8)
 4585 1804 4C000000 		.word	.LC2-(.LPIC125+8)
 4586 1808 4C000000 		.word	.LC3-(.LPIC126+8)
ARM GAS  /tmp/ccf3bFwG.s 			page 120


 4587 180c 4C000000 		.word	.LC26-(.LPIC123+8)
 4588 1810 4C000000 		.word	.LC1-(.LPIC124+8)
 4589              	.LBE195:
 4590              	.LBE198:
 4591              		.cfi_endproc
 4592              	.LFE15:
 4594              		.section	.rodata.str1.4
 4595 02e3 00       		.align	2
 4596              	.LC36:
 4597 02e4 726200   		.ascii	"rb\000"
 4598              		.text
 4599              		.align	2
 4600              		.global	ReadBinaryFile
 4601              		.syntax unified
 4602              		.arm
 4603              		.fpu vfpv3
 4605              	ReadBinaryFile:
 4606              	.LVL384:
 4607              	.LFB16:
 530:/home/hkh/git/eapidk-code-r76-trunk/apps/EeePProg/linux/../BinFuncs.c ****   return LclReadFile(cszFilename, pvBuffer, pstReadBCnt, "rb");
 4608              		.loc 1 530 1 is_stmt 1 view -0
 4609              		.cfi_startproc
 4610              		@ args = 0, pretend = 0, frame = 0
 4611              		@ frame_needed = 0, uses_anonymous_args = 0
 531:/home/hkh/git/eapidk-code-r76-trunk/apps/EeePProg/linux/../BinFuncs.c **** }
 4612              		.loc 1 531 3 view .LVU1598
 530:/home/hkh/git/eapidk-code-r76-trunk/apps/EeePProg/linux/../BinFuncs.c ****   return LclReadFile(cszFilename, pvBuffer, pstReadBCnt, "rb");
 4613              		.loc 1 530 1 is_stmt 0 view .LVU1599
 4614 1814 F0432DE9 		push	{r4, r5, r6, r7, r8, r9, lr}
 4615              		.cfi_def_cfa_offset 28
 4616              		.cfi_offset 4, -28
 4617              		.cfi_offset 5, -24
 4618              		.cfi_offset 6, -20
 4619              		.cfi_offset 7, -16
 4620              		.cfi_offset 8, -12
 4621              		.cfi_offset 9, -8
 4622              		.cfi_offset 14, -4
 4623              	.LBB201:
 4624              	.LBB202:
 459:/home/hkh/git/eapidk-code-r76-trunk/apps/EeePProg/linux/../BinFuncs.c ****       LclReadFile,
 4625              		.loc 1 459 3 view .LVU1600
 4626 1818 008050E2 		subs	r8, r0, #0
 4627              	.LVL385:
 459:/home/hkh/git/eapidk-code-r76-trunk/apps/EeePProg/linux/../BinFuncs.c ****       LclReadFile,
 4628              		.loc 1 459 3 view .LVU1601
 4629              	.LBE202:
 4630              	.LBI201:
 449:/home/hkh/git/eapidk-code-r76-trunk/apps/EeePProg/linux/../BinFuncs.c ****     __IN  const char *cszFilename, 
 4631              		.loc 1 449 1 is_stmt 1 view .LVU1602
 4632              	.LBB203:
 456:/home/hkh/git/eapidk-code-r76-trunk/apps/EeePProg/linux/../BinFuncs.c ****   FILE *LclFilePtr;
 4633              		.loc 1 456 3 view .LVU1603
 457:/home/hkh/git/eapidk-code-r76-trunk/apps/EeePProg/linux/../BinFuncs.c ****   size_t stFileLen;
 4634              		.loc 1 457 3 view .LVU1604
 458:/home/hkh/git/eapidk-code-r76-trunk/apps/EeePProg/linux/../BinFuncs.c ****   EAPI_APP_ASSERT_PARAMATER_NULL(
 4635              		.loc 1 458 3 view .LVU1605
 459:/home/hkh/git/eapidk-code-r76-trunk/apps/EeePProg/linux/../BinFuncs.c ****       LclReadFile,
ARM GAS  /tmp/ccf3bFwG.s 			page 121


 4636              		.loc 1 459 3 view .LVU1606
 4637              	.LBE203:
 4638              	.LBE201:
 530:/home/hkh/git/eapidk-code-r76-trunk/apps/EeePProg/linux/../BinFuncs.c ****   return LclReadFile(cszFilename, pvBuffer, pstReadBCnt, "rb");
 4639              		.loc 1 530 1 is_stmt 0 view .LVU1607
 4640 181c 14D04DE2 		sub	sp, sp, #20
 4641              		.cfi_def_cfa_offset 48
 4642              	.LBB207:
 4643              	.LBB204:
 459:/home/hkh/git/eapidk-code-r76-trunk/apps/EeePProg/linux/../BinFuncs.c ****       LclReadFile,
 4644              		.loc 1 459 3 view .LVU1608
 4645 1820 4500000A 		beq	.L349
 464:/home/hkh/git/eapidk-code-r76-trunk/apps/EeePProg/linux/../BinFuncs.c ****       LclReadFile,
 4646              		.loc 1 464 3 view .LVU1609
 4647 1824 000051E3 		cmp	r1, #0
 4648 1828 0170A0E1 		mov	r7, r1
 459:/home/hkh/git/eapidk-code-r76-trunk/apps/EeePProg/linux/../BinFuncs.c ****       LclReadFile,
 4649              		.loc 1 459 3 is_stmt 1 view .LVU1610
 463:/home/hkh/git/eapidk-code-r76-trunk/apps/EeePProg/linux/../BinFuncs.c ****   EAPI_APP_ASSERT_PARAMATER_NULL(
 4650              		.loc 1 463 6 view .LVU1611
 464:/home/hkh/git/eapidk-code-r76-trunk/apps/EeePProg/linux/../BinFuncs.c ****       LclReadFile,
 4651              		.loc 1 464 3 view .LVU1612
 4652 182c 4D00000A 		beq	.L350
 469:/home/hkh/git/eapidk-code-r76-trunk/apps/EeePProg/linux/../BinFuncs.c ****       LclReadFile,
 4653              		.loc 1 469 3 is_stmt 0 view .LVU1613
 4654 1830 000052E3 		cmp	r2, #0
 4655 1834 0240A0E1 		mov	r4, r2
 464:/home/hkh/git/eapidk-code-r76-trunk/apps/EeePProg/linux/../BinFuncs.c ****       LclReadFile,
 4656              		.loc 1 464 3 is_stmt 1 view .LVU1614
 468:/home/hkh/git/eapidk-code-r76-trunk/apps/EeePProg/linux/../BinFuncs.c ****   EAPI_APP_ASSERT_PARAMATER_NULL(
 4657              		.loc 1 468 6 view .LVU1615
 469:/home/hkh/git/eapidk-code-r76-trunk/apps/EeePProg/linux/../BinFuncs.c ****       LclReadFile,
 4658              		.loc 1 469 3 view .LVU1616
 4659 1838 1F00000A 		beq	.L351
 469:/home/hkh/git/eapidk-code-r76-trunk/apps/EeePProg/linux/../BinFuncs.c ****       LclReadFile,
 4660              		.loc 1 469 3 view .LVU1617
 473:/home/hkh/git/eapidk-code-r76-trunk/apps/EeePProg/linux/../BinFuncs.c ****   *pstReadBCnt=0;
 4661              		.loc 1 473 6 view .LVU1618
 474:/home/hkh/git/eapidk-code-r76-trunk/apps/EeePProg/linux/../BinFuncs.c ****   LclFilePtr=fopen(cszFilename, cszReadType);
 4662              		.loc 1 474 3 view .LVU1619
 475:/home/hkh/git/eapidk-code-r76-trunk/apps/EeePProg/linux/../BinFuncs.c ****   if(LclFilePtr==NULL){
 4663              		.loc 1 475 14 is_stmt 0 view .LVU1620
 4664 183c 7C919FE5 		ldr	r9, .L354
 474:/home/hkh/git/eapidk-code-r76-trunk/apps/EeePProg/linux/../BinFuncs.c ****   LclFilePtr=fopen(cszFilename, cszReadType);
 4665              		.loc 1 474 15 view .LVU1621
 4666 1840 0060A0E3 		mov	r6, #0
 4667 1844 006082E5 		str	r6, [r2]
 475:/home/hkh/git/eapidk-code-r76-trunk/apps/EeePProg/linux/../BinFuncs.c ****   if(LclFilePtr==NULL){
 4668              		.loc 1 475 3 is_stmt 1 view .LVU1622
 475:/home/hkh/git/eapidk-code-r76-trunk/apps/EeePProg/linux/../BinFuncs.c ****   if(LclFilePtr==NULL){
 4669              		.loc 1 475 14 is_stmt 0 view .LVU1623
 4670              	.LPIC152:
 4671 1848 09908FE0 		add	r9, pc, r9
 4672 184c 0910A0E1 		mov	r1, r9
 4673              	.LVL386:
 475:/home/hkh/git/eapidk-code-r76-trunk/apps/EeePProg/linux/../BinFuncs.c ****   if(LclFilePtr==NULL){
 4674              		.loc 1 475 14 view .LVU1624
ARM GAS  /tmp/ccf3bFwG.s 			page 122


 4675 1850 FEFFFFEB 		bl	fopen(PLT)
 4676              	.LVL387:
 476:/home/hkh/git/eapidk-code-r76-trunk/apps/EeePProg/linux/../BinFuncs.c ****     StatusCode=EAPI_STATUS_READ_ERROR;
 4677              		.loc 1 476 3 is_stmt 1 view .LVU1625
 476:/home/hkh/git/eapidk-code-r76-trunk/apps/EeePProg/linux/../BinFuncs.c ****     StatusCode=EAPI_STATUS_READ_ERROR;
 4678              		.loc 1 476 5 is_stmt 0 view .LVU1626
 4679 1854 005050E2 		subs	r5, r0, #0
 4680 1858 2800000A 		beq	.L352
 483:/home/hkh/git/eapidk-code-r76-trunk/apps/EeePProg/linux/../BinFuncs.c ****   stFileLen=ftell(LclFilePtr);
 4681              		.loc 1 483 3 is_stmt 1 view .LVU1627
 4682 185c 0220A0E3 		mov	r2, #2
 4683 1860 0610A0E1 		mov	r1, r6
 4684 1864 FEFFFFEB 		bl	fseek(PLT)
 4685              	.LVL388:
 484:/home/hkh/git/eapidk-code-r76-trunk/apps/EeePProg/linux/../BinFuncs.c ****   *pvBuffer=malloc(stFileLen);
 4686              		.loc 1 484 3 view .LVU1628
 484:/home/hkh/git/eapidk-code-r76-trunk/apps/EeePProg/linux/../BinFuncs.c ****   *pvBuffer=malloc(stFileLen);
 4687              		.loc 1 484 13 is_stmt 0 view .LVU1629
 4688 1868 0500A0E1 		mov	r0, r5
 4689 186c FEFFFFEB 		bl	ftell(PLT)
 4690              	.LVL389:
 4691 1870 0080A0E1 		mov	r8, r0
 4692              	.LVL390:
 485:/home/hkh/git/eapidk-code-r76-trunk/apps/EeePProg/linux/../BinFuncs.c ****   EAPI_APP_ASSERT_PARAMATER_NULL(
 4693              		.loc 1 485 3 is_stmt 1 view .LVU1630
 485:/home/hkh/git/eapidk-code-r76-trunk/apps/EeePProg/linux/../BinFuncs.c ****   EAPI_APP_ASSERT_PARAMATER_NULL(
 4694              		.loc 1 485 13 is_stmt 0 view .LVU1631
 4695 1874 FEFFFFEB 		bl	malloc(PLT)
 4696              	.LVL391:
 486:/home/hkh/git/eapidk-code-r76-trunk/apps/EeePProg/linux/../BinFuncs.c ****       LclReadFile,
 4697              		.loc 1 486 3 view .LVU1632
 4698 1878 000050E3 		cmp	r0, #0
 485:/home/hkh/git/eapidk-code-r76-trunk/apps/EeePProg/linux/../BinFuncs.c ****   EAPI_APP_ASSERT_PARAMATER_NULL(
 4699              		.loc 1 485 12 view .LVU1633
 4700 187c 000087E5 		str	r0, [r7]
 486:/home/hkh/git/eapidk-code-r76-trunk/apps/EeePProg/linux/../BinFuncs.c ****       LclReadFile,
 4701              		.loc 1 486 3 is_stmt 1 view .LVU1634
 4702 1880 4300000A 		beq	.L353
 486:/home/hkh/git/eapidk-code-r76-trunk/apps/EeePProg/linux/../BinFuncs.c ****       LclReadFile,
 4703              		.loc 1 486 3 view .LVU1635
 490:/home/hkh/git/eapidk-code-r76-trunk/apps/EeePProg/linux/../BinFuncs.c **** 
 4704              		.loc 1 490 6 view .LVU1636
 492:/home/hkh/git/eapidk-code-r76-trunk/apps/EeePProg/linux/../BinFuncs.c ****   *pstReadBCnt=stFileLen;
 4705              		.loc 1 492 3 view .LVU1637
 4706 1884 0500A0E1 		mov	r0, r5
 4707 1888 FEFFFFEB 		bl	rewind(PLT)
 4708              	.LVL392:
 493:/home/hkh/git/eapidk-code-r76-trunk/apps/EeePProg/linux/../BinFuncs.c **** #if 0
 4709              		.loc 1 493 3 view .LVU1638
 505:/home/hkh/git/eapidk-code-r76-trunk/apps/EeePProg/linux/../BinFuncs.c **** #endif
 4710              		.loc 1 505 13 is_stmt 0 view .LVU1639
 4711 188c 000097E5 		ldr	r0, [r7]
 4712 1890 0820A0E1 		mov	r2, r8
 4713 1894 0530A0E1 		mov	r3, r5
 4714 1898 0110A0E3 		mov	r1, #1
 493:/home/hkh/git/eapidk-code-r76-trunk/apps/EeePProg/linux/../BinFuncs.c **** #if 0
 4715              		.loc 1 493 15 view .LVU1640
ARM GAS  /tmp/ccf3bFwG.s 			page 123


 4716 189c 008084E5 		str	r8, [r4]
 505:/home/hkh/git/eapidk-code-r76-trunk/apps/EeePProg/linux/../BinFuncs.c **** #endif
 4717              		.loc 1 505 3 is_stmt 1 view .LVU1641
 505:/home/hkh/git/eapidk-code-r76-trunk/apps/EeePProg/linux/../BinFuncs.c **** #endif
 4718              		.loc 1 505 13 is_stmt 0 view .LVU1642
 4719 18a0 FEFFFFEB 		bl	fread(PLT)
 4720              	.LVL393:
 507:/home/hkh/git/eapidk-code-r76-trunk/apps/EeePProg/linux/../BinFuncs.c ****   fclose(LclFilePtr);
 4721              		.loc 1 507 3 is_stmt 1 view .LVU1643
 507:/home/hkh/git/eapidk-code-r76-trunk/apps/EeePProg/linux/../BinFuncs.c ****   fclose(LclFilePtr);
 4722              		.loc 1 507 15 is_stmt 0 view .LVU1644
 4723 18a4 000084E5 		str	r0, [r4]
 508:/home/hkh/git/eapidk-code-r76-trunk/apps/EeePProg/linux/../BinFuncs.c **** 
 4724              		.loc 1 508 3 is_stmt 1 view .LVU1645
 4725 18a8 0500A0E1 		mov	r0, r5
 4726              	.LVL394:
 508:/home/hkh/git/eapidk-code-r76-trunk/apps/EeePProg/linux/../BinFuncs.c **** 
 4727              		.loc 1 508 3 is_stmt 0 view .LVU1646
 4728 18ac FEFFFFEB 		bl	fclose(PLT)
 4729              	.LVL395:
 456:/home/hkh/git/eapidk-code-r76-trunk/apps/EeePProg/linux/../BinFuncs.c ****   FILE *LclFilePtr;
 4730              		.loc 1 456 16 view .LVU1647
 4731 18b0 0600A0E1 		mov	r0, r6
 511:/home/hkh/git/eapidk-code-r76-trunk/apps/EeePProg/linux/../BinFuncs.c **** }
 4732              		.loc 1 511 3 is_stmt 1 view .LVU1648
 4733              	.LVL396:
 4734              	.L342:
 4735              	.L340:
 511:/home/hkh/git/eapidk-code-r76-trunk/apps/EeePProg/linux/../BinFuncs.c **** }
 4736              		.loc 1 511 3 is_stmt 0 view .LVU1649
 4737              	.LBE204:
 4738              	.LBE207:
 532:/home/hkh/git/eapidk-code-r76-trunk/apps/EeePProg/linux/../BinFuncs.c **** EApiStatus_t 
 4739              		.loc 1 532 1 view .LVU1650
 4740 18b4 14D08DE2 		add	sp, sp, #20
 4741              		.cfi_remember_state
 4742              		.cfi_def_cfa_offset 28
 4743              		@ sp needed
 4744 18b8 F083BDE8 		pop	{r4, r5, r6, r7, r8, r9, pc}
 4745              	.LVL397:
 4746              	.L351:
 4747              		.cfi_restore_state
 4748              	.LBB208:
 4749              	.LBB205:
 469:/home/hkh/git/eapidk-code-r76-trunk/apps/EeePProg/linux/../BinFuncs.c ****       LclReadFile,
 4750              		.loc 1 469 3 is_stmt 1 view .LVU1651
 469:/home/hkh/git/eapidk-code-r76-trunk/apps/EeePProg/linux/../BinFuncs.c ****       LclReadFile,
 4751              		.loc 1 469 3 view .LVU1652
 4752 18bc 00C19FE5 		ldr	ip, .L354+4
 4753 18c0 016CE0E3 		mvn	r6, #256
 4754 18c4 FC009FE5 		ldr	r0, .L354+8
 4755              	.LVL398:
 469:/home/hkh/git/eapidk-code-r76-trunk/apps/EeePProg/linux/../BinFuncs.c ****       LclReadFile,
 4756              		.loc 1 469 3 is_stmt 0 view .LVU1653
 4757 18c8 D53100E3 		movw	r3, #469
 4758 18cc F8209FE5 		ldr	r2, .L354+12
 4759              	.LVL399:
ARM GAS  /tmp/ccf3bFwG.s 			page 124


 469:/home/hkh/git/eapidk-code-r76-trunk/apps/EeePProg/linux/../BinFuncs.c ****       LclReadFile,
 4760              		.loc 1 469 3 view .LVU1654
 4761 18d0 F8109FE5 		ldr	r1, .L354+16
 4762              	.LVL400:
 469:/home/hkh/git/eapidk-code-r76-trunk/apps/EeePProg/linux/../BinFuncs.c ****       LclReadFile,
 4763              		.loc 1 469 3 view .LVU1655
 4764              	.LPIC150:
 4765 18d4 0CC08FE0 		add	ip, pc, ip
 4766              	.LPIC151:
 4767 18d8 00008FE0 		add	r0, pc, r0
 4768              	.LPIC148:
 4769 18dc 02208FE0 		add	r2, pc, r2
 4770              	.LPIC149:
 4771 18e0 01108FE0 		add	r1, pc, r1
 4772              	.LVL401:
 4773              	.L348:
 464:/home/hkh/git/eapidk-code-r76-trunk/apps/EeePProg/linux/../BinFuncs.c ****       LclReadFile,
 4774              		.loc 1 464 3 view .LVU1656
 4775 18e4 01108DE9 		stmib	sp, {r0, ip}
 4776 18e8 4500A0E3 		mov	r0, #69
 4777 18ec 00608DE5 		str	r6, [sp]
 4778 18f0 FEFFFFEB 		bl	siFormattedMessage_SC(PLT)
 4779              	.LVL402:
 464:/home/hkh/git/eapidk-code-r76-trunk/apps/EeePProg/linux/../BinFuncs.c ****       LclReadFile,
 4780              		.loc 1 464 3 is_stmt 1 view .LVU1657
 464:/home/hkh/git/eapidk-code-r76-trunk/apps/EeePProg/linux/../BinFuncs.c ****       LclReadFile,
 4781              		.loc 1 464 3 view .LVU1658
 464:/home/hkh/git/eapidk-code-r76-trunk/apps/EeePProg/linux/../BinFuncs.c ****       LclReadFile,
 4782              		.loc 1 464 3 view .LVU1659
 4783 18f4 0600A0E1 		mov	r0, r6
 4784              	.LBE205:
 4785              	.LBE208:
 532:/home/hkh/git/eapidk-code-r76-trunk/apps/EeePProg/linux/../BinFuncs.c **** EApiStatus_t 
 4786              		.loc 1 532 1 is_stmt 0 view .LVU1660
 4787 18f8 14D08DE2 		add	sp, sp, #20
 4788              		.cfi_remember_state
 4789              		.cfi_def_cfa_offset 28
 4790              		@ sp needed
 4791 18fc F083BDE8 		pop	{r4, r5, r6, r7, r8, r9, pc}
 4792              	.LVL403:
 4793              	.L352:
 4794              		.cfi_restore_state
 4795              	.LBB209:
 4796              	.LBB206:
 477:/home/hkh/git/eapidk-code-r76-trunk/apps/EeePProg/linux/../BinFuncs.c ****     siFormattedMessage_SC('L', __FILE__, "LclReadFile", __LINE__, StatusCode,
 4797              		.loc 1 477 5 is_stmt 1 view .LVU1661
 478:/home/hkh/git/eapidk-code-r76-trunk/apps/EeePProg/linux/../BinFuncs.c ****         "Opening File %s(%s)\n", cszFilename, cszReadType);
 4798              		.loc 1 478 5 view .LVU1662
 4799 1900 CC009FE5 		ldr	r0, .L354+20
 4800              	.LVL404:
 478:/home/hkh/git/eapidk-code-r76-trunk/apps/EeePProg/linux/../BinFuncs.c ****         "Opening File %s(%s)\n", cszFilename, cszReadType);
 4801              		.loc 1 478 5 is_stmt 0 view .LVU1663
 4802 1904 056CE0E3 		mvn	r6, #1280
 4803 1908 C8209FE5 		ldr	r2, .L354+24
 4804 190c DE3100E3 		movw	r3, #478
 4805 1910 C4109FE5 		ldr	r1, .L354+28
 4806              	.LPIC156:
ARM GAS  /tmp/ccf3bFwG.s 			page 125


 4807 1914 00008FE0 		add	r0, pc, r0
 4808 1918 F880CDE1 		strd	r8, [sp, #8]
 4809 191c 04008DE5 		str	r0, [sp, #4]
 4810              	.LPIC153:
 4811 1920 02208FE0 		add	r2, pc, r2
 4812              	.LPIC154:
 4813 1924 01108FE0 		add	r1, pc, r1
 4814 1928 4C00A0E3 		mov	r0, #76
 4815 192c 00608DE5 		str	r6, [sp]
 4816 1930 FEFFFFEB 		bl	siFormattedMessage_SC(PLT)
 4817              	.LVL405:
 480:/home/hkh/git/eapidk-code-r76-trunk/apps/EeePProg/linux/../BinFuncs.c ****   }
 4818              		.loc 1 480 5 is_stmt 1 view .LVU1664
 477:/home/hkh/git/eapidk-code-r76-trunk/apps/EeePProg/linux/../BinFuncs.c ****     siFormattedMessage_SC('L', __FILE__, "LclReadFile", __LINE__, StatusCode,
 4819              		.loc 1 477 15 is_stmt 0 view .LVU1665
 4820 1934 0600A0E1 		mov	r0, r6
 480:/home/hkh/git/eapidk-code-r76-trunk/apps/EeePProg/linux/../BinFuncs.c ****   }
 4821              		.loc 1 480 5 view .LVU1666
 4822 1938 DDFFFFEA 		b	.L340
 4823              	.LVL406:
 4824              	.L349:
 459:/home/hkh/git/eapidk-code-r76-trunk/apps/EeePProg/linux/../BinFuncs.c ****       LclReadFile,
 4825              		.loc 1 459 3 is_stmt 1 view .LVU1667
 459:/home/hkh/git/eapidk-code-r76-trunk/apps/EeePProg/linux/../BinFuncs.c ****       LclReadFile,
 4826              		.loc 1 459 3 view .LVU1668
 4827 193c 9CC09FE5 		ldr	ip, .L354+32
 4828 1940 016CE0E3 		mvn	r6, #256
 4829 1944 98009FE5 		ldr	r0, .L354+36
 4830              	.LVL407:
 459:/home/hkh/git/eapidk-code-r76-trunk/apps/EeePProg/linux/../BinFuncs.c ****       LclReadFile,
 4831              		.loc 1 459 3 is_stmt 0 view .LVU1669
 4832 1948 CB3100E3 		movw	r3, #459
 4833 194c 94209FE5 		ldr	r2, .L354+40
 4834              	.LVL408:
 459:/home/hkh/git/eapidk-code-r76-trunk/apps/EeePProg/linux/../BinFuncs.c ****       LclReadFile,
 4835              		.loc 1 459 3 view .LVU1670
 4836 1950 94109FE5 		ldr	r1, .L354+44
 4837              	.LVL409:
 459:/home/hkh/git/eapidk-code-r76-trunk/apps/EeePProg/linux/../BinFuncs.c ****       LclReadFile,
 4838              		.loc 1 459 3 view .LVU1671
 4839              	.LPIC142:
 4840 1954 0CC08FE0 		add	ip, pc, ip
 4841              	.LPIC143:
 4842 1958 00008FE0 		add	r0, pc, r0
 4843              	.LPIC140:
 4844 195c 02208FE0 		add	r2, pc, r2
 4845              	.LPIC141:
 4846 1960 01108FE0 		add	r1, pc, r1
 4847 1964 DEFFFFEA 		b	.L348
 4848              	.LVL410:
 4849              	.L350:
 464:/home/hkh/git/eapidk-code-r76-trunk/apps/EeePProg/linux/../BinFuncs.c ****       LclReadFile,
 4850              		.loc 1 464 3 is_stmt 1 view .LVU1672
 464:/home/hkh/git/eapidk-code-r76-trunk/apps/EeePProg/linux/../BinFuncs.c ****       LclReadFile,
 4851              		.loc 1 464 3 view .LVU1673
 4852 1968 80C09FE5 		ldr	ip, .L354+48
 4853 196c 016CE0E3 		mvn	r6, #256
ARM GAS  /tmp/ccf3bFwG.s 			page 126


 4854 1970 7C009FE5 		ldr	r0, .L354+52
 4855              	.LVL411:
 464:/home/hkh/git/eapidk-code-r76-trunk/apps/EeePProg/linux/../BinFuncs.c ****       LclReadFile,
 4856              		.loc 1 464 3 is_stmt 0 view .LVU1674
 4857 1974 1D3EA0E3 		mov	r3, #464
 4858 1978 78209FE5 		ldr	r2, .L354+56
 4859              	.LVL412:
 464:/home/hkh/git/eapidk-code-r76-trunk/apps/EeePProg/linux/../BinFuncs.c ****       LclReadFile,
 4860              		.loc 1 464 3 view .LVU1675
 4861 197c 78109FE5 		ldr	r1, .L354+60
 4862              	.LVL413:
 464:/home/hkh/git/eapidk-code-r76-trunk/apps/EeePProg/linux/../BinFuncs.c ****       LclReadFile,
 4863              		.loc 1 464 3 view .LVU1676
 4864              	.LPIC146:
 4865 1980 0CC08FE0 		add	ip, pc, ip
 4866              	.LPIC147:
 4867 1984 00008FE0 		add	r0, pc, r0
 4868              	.LPIC144:
 4869 1988 02208FE0 		add	r2, pc, r2
 4870              	.LPIC145:
 4871 198c 01108FE0 		add	r1, pc, r1
 4872 1990 D3FFFFEA 		b	.L348
 4873              	.LVL414:
 4874              	.L353:
 486:/home/hkh/git/eapidk-code-r76-trunk/apps/EeePProg/linux/../BinFuncs.c ****       LclReadFile,
 4875              		.loc 1 486 3 is_stmt 1 view .LVU1677
 486:/home/hkh/git/eapidk-code-r76-trunk/apps/EeePProg/linux/../BinFuncs.c ****       LclReadFile,
 4876              		.loc 1 486 3 view .LVU1678
 4877 1994 64C09FE5 		ldr	ip, .L354+64
 4878 1998 0260E0E3 		mvn	r6, #2
 4879 199c 60009FE5 		ldr	r0, .L354+68
 4880 19a0 E63100E3 		movw	r3, #486
 4881 19a4 5C209FE5 		ldr	r2, .L354+72
 4882 19a8 5C109FE5 		ldr	r1, .L354+76
 4883              	.LPIC159:
 4884 19ac 0CC08FE0 		add	ip, pc, ip
 4885              	.LPIC160:
 4886 19b0 00008FE0 		add	r0, pc, r0
 4887              	.LPIC157:
 4888 19b4 02208FE0 		add	r2, pc, r2
 4889              	.LPIC158:
 4890 19b8 01108FE0 		add	r1, pc, r1
 4891 19bc C8FFFFEA 		b	.L348
 4892              	.L355:
 4893              		.align	2
 4894              	.L354:
 4895 19c0 70010000 		.word	.LC36-(.LPIC152+8)
 4896 19c4 E8000000 		.word	.LC33-(.LPIC150+8)
 4897 19c8 E8000000 		.word	.LC3-(.LPIC151+8)
 4898 19cc E8000000 		.word	.LC31-(.LPIC148+8)
 4899 19d0 E8000000 		.word	.LC1-(.LPIC149+8)
 4900 19d4 B8000000 		.word	.LC29-(.LPIC156+8)
 4901 19d8 B0000000 		.word	.LC31-(.LPIC153+8)
 4902 19dc B0000000 		.word	.LC1-(.LPIC154+8)
 4903 19e0 84000000 		.word	.LC27-(.LPIC142+8)
 4904 19e4 84000000 		.word	.LC3-(.LPIC143+8)
 4905 19e8 84000000 		.word	.LC31-(.LPIC140+8)
ARM GAS  /tmp/ccf3bFwG.s 			page 127


 4906 19ec 84000000 		.word	.LC1-(.LPIC141+8)
 4907 19f0 68000000 		.word	.LC32-(.LPIC146+8)
 4908 19f4 68000000 		.word	.LC3-(.LPIC147+8)
 4909 19f8 68000000 		.word	.LC31-(.LPIC144+8)
 4910 19fc 68000000 		.word	.LC1-(.LPIC145+8)
 4911 1a00 4C000000 		.word	.LC34-(.LPIC159+8)
 4912 1a04 4C000000 		.word	.LC3-(.LPIC160+8)
 4913 1a08 4C000000 		.word	.LC31-(.LPIC157+8)
 4914 1a0c 4C000000 		.word	.LC1-(.LPIC158+8)
 4915              	.LBE206:
 4916              	.LBE209:
 4917              		.cfi_endproc
 4918              	.LFE16:
 4920              		.section	.rodata.str1.4
 4921 02e7 00       		.align	2
 4922              	.LC37:
 4923 02e8 7700     		.ascii	"w\000"
 4924              		.text
 4925              		.align	2
 4926              		.global	WriteTextFile
 4927              		.syntax unified
 4928              		.arm
 4929              		.fpu vfpv3
 4931              	WriteTextFile:
 4932              	.LVL415:
 4933              	.LFB17:
 539:/home/hkh/git/eapidk-code-r76-trunk/apps/EeePProg/linux/../BinFuncs.c ****   return LclWriteFile(cszFilename, pcvBuffer, stWriteBCnt, "w");
 4934              		.loc 1 539 1 view -0
 4935              		.cfi_startproc
 4936              		@ args = 0, pretend = 0, frame = 0
 4937              		@ frame_needed = 0, uses_anonymous_args = 0
 540:/home/hkh/git/eapidk-code-r76-trunk/apps/EeePProg/linux/../BinFuncs.c **** }
 4938              		.loc 1 540 3 view .LVU1680
 539:/home/hkh/git/eapidk-code-r76-trunk/apps/EeePProg/linux/../BinFuncs.c ****   return LclWriteFile(cszFilename, pcvBuffer, stWriteBCnt, "w");
 4939              		.loc 1 539 1 is_stmt 0 view .LVU1681
 4940 1a10 F0412DE9 		push	{r4, r5, r6, r7, r8, lr}
 4941              		.cfi_def_cfa_offset 24
 4942              		.cfi_offset 4, -24
 4943              		.cfi_offset 5, -20
 4944              		.cfi_offset 6, -16
 4945              		.cfi_offset 7, -12
 4946              		.cfi_offset 8, -8
 4947              		.cfi_offset 14, -4
 4948              	.LBB214:
 4949              	.LBB215:
 415:/home/hkh/git/eapidk-code-r76-trunk/apps/EeePProg/linux/../BinFuncs.c ****       LclWriteFile,
 4950              		.loc 1 415 3 view .LVU1682
 4951 1a14 007050E2 		subs	r7, r0, #0
 4952              	.LVL416:
 415:/home/hkh/git/eapidk-code-r76-trunk/apps/EeePProg/linux/../BinFuncs.c ****       LclWriteFile,
 4953              		.loc 1 415 3 view .LVU1683
 4954              	.LBE215:
 4955              	.LBI214:
 406:/home/hkh/git/eapidk-code-r76-trunk/apps/EeePProg/linux/../BinFuncs.c ****     __IN const char *cszFilename, 
 4956              		.loc 1 406 1 is_stmt 1 view .LVU1684
 4957              	.LBB222:
 413:/home/hkh/git/eapidk-code-r76-trunk/apps/EeePProg/linux/../BinFuncs.c ****   FILE *LclFilePtr;
ARM GAS  /tmp/ccf3bFwG.s 			page 128


 4958              		.loc 1 413 3 view .LVU1685
 414:/home/hkh/git/eapidk-code-r76-trunk/apps/EeePProg/linux/../BinFuncs.c ****   EAPI_APP_ASSERT_PARAMATER_NULL(
 4959              		.loc 1 414 3 view .LVU1686
 415:/home/hkh/git/eapidk-code-r76-trunk/apps/EeePProg/linux/../BinFuncs.c ****       LclWriteFile,
 4960              		.loc 1 415 3 view .LVU1687
 4961              	.LBE222:
 4962              	.LBE214:
 539:/home/hkh/git/eapidk-code-r76-trunk/apps/EeePProg/linux/../BinFuncs.c ****   return LclWriteFile(cszFilename, pcvBuffer, stWriteBCnt, "w");
 4963              		.loc 1 539 1 is_stmt 0 view .LVU1688
 4964 1a18 10D04DE2 		sub	sp, sp, #16
 4965              		.cfi_def_cfa_offset 40
 4966              	.LBB226:
 4967              	.LBB223:
 415:/home/hkh/git/eapidk-code-r76-trunk/apps/EeePProg/linux/../BinFuncs.c ****       LclWriteFile,
 4968              		.loc 1 415 3 view .LVU1689
 4969 1a1c 4500000A 		beq	.L365
 420:/home/hkh/git/eapidk-code-r76-trunk/apps/EeePProg/linux/../BinFuncs.c ****       LclWriteFile,
 4970              		.loc 1 420 3 view .LVU1690
 4971 1a20 000051E3 		cmp	r1, #0
 4972 1a24 0150A0E1 		mov	r5, r1
 415:/home/hkh/git/eapidk-code-r76-trunk/apps/EeePProg/linux/../BinFuncs.c ****       LclWriteFile,
 4973              		.loc 1 415 3 is_stmt 1 view .LVU1691
 419:/home/hkh/git/eapidk-code-r76-trunk/apps/EeePProg/linux/../BinFuncs.c ****   EAPI_APP_ASSERT_PARAMATER_NULL(
 4974              		.loc 1 419 6 view .LVU1692
 420:/home/hkh/git/eapidk-code-r76-trunk/apps/EeePProg/linux/../BinFuncs.c ****       LclWriteFile,
 4975              		.loc 1 420 3 view .LVU1693
 4976 1a28 4D00000A 		beq	.L366
 425:/home/hkh/git/eapidk-code-r76-trunk/apps/EeePProg/linux/../BinFuncs.c ****       LclWriteFile,
 4977              		.loc 1 425 3 is_stmt 0 view .LVU1694
 4978 1a2c 000052E3 		cmp	r2, #0
 4979 1a30 0240A0E1 		mov	r4, r2
 420:/home/hkh/git/eapidk-code-r76-trunk/apps/EeePProg/linux/../BinFuncs.c ****       LclWriteFile,
 4980              		.loc 1 420 3 is_stmt 1 view .LVU1695
 424:/home/hkh/git/eapidk-code-r76-trunk/apps/EeePProg/linux/../BinFuncs.c ****   EAPI_APP_ASSERT_PARAMATER_ZERO(
 4981              		.loc 1 424 6 view .LVU1696
 425:/home/hkh/git/eapidk-code-r76-trunk/apps/EeePProg/linux/../BinFuncs.c ****       LclWriteFile,
 4982              		.loc 1 425 3 view .LVU1697
 4983 1a34 2300000A 		beq	.L367
 4984              	.LVL417:
 4985              	.LBB216:
 4986              	.LBI216:
 406:/home/hkh/git/eapidk-code-r76-trunk/apps/EeePProg/linux/../BinFuncs.c ****     __IN const char *cszFilename, 
 4987              		.loc 1 406 1 view .LVU1698
 4988              	.LBB217:
 425:/home/hkh/git/eapidk-code-r76-trunk/apps/EeePProg/linux/../BinFuncs.c ****       LclWriteFile,
 4989              		.loc 1 425 3 view .LVU1699
 429:/home/hkh/git/eapidk-code-r76-trunk/apps/EeePProg/linux/../BinFuncs.c **** 
 4990              		.loc 1 429 6 view .LVU1700
 431:/home/hkh/git/eapidk-code-r76-trunk/apps/EeePProg/linux/../BinFuncs.c ****   if(LclFilePtr==NULL){
 4991              		.loc 1 431 3 view .LVU1701
 431:/home/hkh/git/eapidk-code-r76-trunk/apps/EeePProg/linux/../BinFuncs.c ****   if(LclFilePtr==NULL){
 4992              		.loc 1 431 14 is_stmt 0 view .LVU1702
 4993 1a38 50819FE5 		ldr	r8, .L370
 4994              	.LPIC173:
 4995 1a3c 08808FE0 		add	r8, pc, r8
 4996 1a40 0810A0E1 		mov	r1, r8
 4997              	.LVL418:
ARM GAS  /tmp/ccf3bFwG.s 			page 129


 431:/home/hkh/git/eapidk-code-r76-trunk/apps/EeePProg/linux/../BinFuncs.c ****   if(LclFilePtr==NULL){
 4998              		.loc 1 431 14 view .LVU1703
 4999 1a44 FEFFFFEB 		bl	fopen(PLT)
 5000              	.LVL419:
 432:/home/hkh/git/eapidk-code-r76-trunk/apps/EeePProg/linux/../BinFuncs.c ****     StatusCode=EAPI_STATUS_WRITE_ERROR;
 5001              		.loc 1 432 3 is_stmt 1 view .LVU1704
 432:/home/hkh/git/eapidk-code-r76-trunk/apps/EeePProg/linux/../BinFuncs.c ****     StatusCode=EAPI_STATUS_WRITE_ERROR;
 5002              		.loc 1 432 5 is_stmt 0 view .LVU1705
 5003 1a48 006050E2 		subs	r6, r0, #0
 5004 1a4c 2800000A 		beq	.L368
 438:/home/hkh/git/eapidk-code-r76-trunk/apps/EeePProg/linux/../BinFuncs.c ****       LclWriteFile,
 5005              		.loc 1 438 3 is_stmt 1 view .LVU1706
 5006 1a50 0630A0E1 		mov	r3, r6
 5007 1a54 0420A0E1 		mov	r2, r4
 5008 1a58 0500A0E1 		mov	r0, r5
 5009              	.LVL420:
 438:/home/hkh/git/eapidk-code-r76-trunk/apps/EeePProg/linux/../BinFuncs.c ****       LclWriteFile,
 5010              		.loc 1 438 3 is_stmt 0 view .LVU1707
 5011 1a5c 0110A0E3 		mov	r1, #1
 5012 1a60 FEFFFFEB 		bl	fwrite(PLT)
 5013              	.LVL421:
 438:/home/hkh/git/eapidk-code-r76-trunk/apps/EeePProg/linux/../BinFuncs.c ****       LclWriteFile,
 5014              		.loc 1 438 3 view .LVU1708
 5015 1a64 000054E1 		cmp	r4, r0
 5016 1a68 0400001A 		bne	.L369
 438:/home/hkh/git/eapidk-code-r76-trunk/apps/EeePProg/linux/../BinFuncs.c ****       LclWriteFile,
 5017              		.loc 1 438 3 is_stmt 1 view .LVU1709
 442:/home/hkh/git/eapidk-code-r76-trunk/apps/EeePProg/linux/../BinFuncs.c ****   fclose(LclFilePtr);
 5018              		.loc 1 442 6 view .LVU1710
 443:/home/hkh/git/eapidk-code-r76-trunk/apps/EeePProg/linux/../BinFuncs.c **** EAPI_APP_ASSERT_EXIT
 5019              		.loc 1 443 3 view .LVU1711
 5020 1a6c 0600A0E1 		mov	r0, r6
 5021 1a70 FEFFFFEB 		bl	fclose(PLT)
 5022              	.LVL422:
 413:/home/hkh/git/eapidk-code-r76-trunk/apps/EeePProg/linux/../BinFuncs.c ****   FILE *LclFilePtr;
 5023              		.loc 1 413 16 is_stmt 0 view .LVU1712
 5024 1a74 0000A0E3 		mov	r0, #0
 5025              	.LVL423:
 413:/home/hkh/git/eapidk-code-r76-trunk/apps/EeePProg/linux/../BinFuncs.c ****   FILE *LclFilePtr;
 5026              		.loc 1 413 16 view .LVU1713
 5027              	.LBE217:
 5028              	.LBE216:
 445:/home/hkh/git/eapidk-code-r76-trunk/apps/EeePProg/linux/../BinFuncs.c **** }
 5029              		.loc 1 445 3 is_stmt 1 view .LVU1714
 5030              	.L358:
 5031              	.L356:
 445:/home/hkh/git/eapidk-code-r76-trunk/apps/EeePProg/linux/../BinFuncs.c **** }
 5032              		.loc 1 445 3 is_stmt 0 view .LVU1715
 5033              	.LBE223:
 5034              	.LBE226:
 541:/home/hkh/git/eapidk-code-r76-trunk/apps/EeePProg/linux/../BinFuncs.c **** 
 5035              		.loc 1 541 1 view .LVU1716
 5036 1a78 10D08DE2 		add	sp, sp, #16
 5037              		.cfi_remember_state
 5038              		.cfi_def_cfa_offset 24
 5039              		@ sp needed
 5040 1a7c F081BDE8 		pop	{r4, r5, r6, r7, r8, pc}
ARM GAS  /tmp/ccf3bFwG.s 			page 130


 5041              	.LVL424:
 5042              	.L369:
 5043              		.cfi_restore_state
 5044              	.LBB227:
 5045              	.LBB224:
 5046              	.LBB220:
 5047              	.LBB218:
 438:/home/hkh/git/eapidk-code-r76-trunk/apps/EeePProg/linux/../BinFuncs.c ****       LclWriteFile,
 5048              		.loc 1 438 3 is_stmt 1 view .LVU1717
 438:/home/hkh/git/eapidk-code-r76-trunk/apps/EeePProg/linux/../BinFuncs.c ****       LclWriteFile,
 5049              		.loc 1 438 3 view .LVU1718
 5050 1a80 0CC19FE5 		ldr	ip, .L370+4
 5051 1a84 FE4A0FE3 		movw	r4, #64254
 5052              	.LVL425:
 438:/home/hkh/git/eapidk-code-r76-trunk/apps/EeePProg/linux/../BinFuncs.c ****       LclWriteFile,
 5053              		.loc 1 438 3 is_stmt 0 view .LVU1719
 5054 1a88 08019FE5 		ldr	r0, .L370+8
 5055 1a8c FF4F4FE3 		movt	r4, 65535
 5056 1a90 04219FE5 		ldr	r2, .L370+12
 5057 1a94 B63100E3 		movw	r3, #438
 5058 1a98 00119FE5 		ldr	r1, .L370+16
 5059              	.LPIC180:
 5060 1a9c 0CC08FE0 		add	ip, pc, ip
 5061              	.LPIC181:
 5062 1aa0 00008FE0 		add	r0, pc, r0
 5063              	.LPIC178:
 5064 1aa4 02208FE0 		add	r2, pc, r2
 5065              	.LPIC179:
 5066 1aa8 01108FE0 		add	r1, pc, r1
 5067              	.LVL426:
 5068              	.L364:
 438:/home/hkh/git/eapidk-code-r76-trunk/apps/EeePProg/linux/../BinFuncs.c ****       LclWriteFile,
 5069              		.loc 1 438 3 view .LVU1720
 5070              	.LBE218:
 5071              	.LBE220:
 420:/home/hkh/git/eapidk-code-r76-trunk/apps/EeePProg/linux/../BinFuncs.c ****       LclWriteFile,
 5072              		.loc 1 420 3 view .LVU1721
 5073 1aac 01108DE9 		stmib	sp, {r0, ip}
 5074 1ab0 4500A0E3 		mov	r0, #69
 5075 1ab4 00408DE5 		str	r4, [sp]
 5076 1ab8 FEFFFFEB 		bl	siFormattedMessage_SC(PLT)
 5077              	.LVL427:
 420:/home/hkh/git/eapidk-code-r76-trunk/apps/EeePProg/linux/../BinFuncs.c ****       LclWriteFile,
 5078              		.loc 1 420 3 is_stmt 1 view .LVU1722
 420:/home/hkh/git/eapidk-code-r76-trunk/apps/EeePProg/linux/../BinFuncs.c ****       LclWriteFile,
 5079              		.loc 1 420 3 view .LVU1723
 420:/home/hkh/git/eapidk-code-r76-trunk/apps/EeePProg/linux/../BinFuncs.c ****       LclWriteFile,
 5080              		.loc 1 420 3 view .LVU1724
 5081 1abc 0400A0E1 		mov	r0, r4
 5082              	.LBE224:
 5083              	.LBE227:
 541:/home/hkh/git/eapidk-code-r76-trunk/apps/EeePProg/linux/../BinFuncs.c **** 
 5084              		.loc 1 541 1 is_stmt 0 view .LVU1725
 5085 1ac0 10D08DE2 		add	sp, sp, #16
 5086              		.cfi_remember_state
 5087              		.cfi_def_cfa_offset 24
 5088              		@ sp needed
ARM GAS  /tmp/ccf3bFwG.s 			page 131


 5089 1ac4 F081BDE8 		pop	{r4, r5, r6, r7, r8, pc}
 5090              	.LVL428:
 5091              	.L367:
 5092              		.cfi_restore_state
 5093              	.LBB228:
 5094              	.LBB225:
 425:/home/hkh/git/eapidk-code-r76-trunk/apps/EeePProg/linux/../BinFuncs.c ****       LclWriteFile,
 5095              		.loc 1 425 3 is_stmt 1 view .LVU1726
 425:/home/hkh/git/eapidk-code-r76-trunk/apps/EeePProg/linux/../BinFuncs.c ****       LclWriteFile,
 5096              		.loc 1 425 3 view .LVU1727
 5097 1ac8 D4C09FE5 		ldr	ip, .L370+20
 5098 1acc 014CE0E3 		mvn	r4, #256
 5099 1ad0 D0009FE5 		ldr	r0, .L370+24
 5100              	.LVL429:
 425:/home/hkh/git/eapidk-code-r76-trunk/apps/EeePProg/linux/../BinFuncs.c ****       LclWriteFile,
 5101              		.loc 1 425 3 is_stmt 0 view .LVU1728
 5102 1ad4 A93100E3 		movw	r3, #425
 5103 1ad8 CC209FE5 		ldr	r2, .L370+28
 5104              	.LVL430:
 425:/home/hkh/git/eapidk-code-r76-trunk/apps/EeePProg/linux/../BinFuncs.c ****       LclWriteFile,
 5105              		.loc 1 425 3 view .LVU1729
 5106 1adc CC109FE5 		ldr	r1, .L370+32
 5107              	.LVL431:
 425:/home/hkh/git/eapidk-code-r76-trunk/apps/EeePProg/linux/../BinFuncs.c ****       LclWriteFile,
 5108              		.loc 1 425 3 view .LVU1730
 5109              	.LPIC171:
 5110 1ae0 0CC08FE0 		add	ip, pc, ip
 5111              	.LPIC172:
 5112 1ae4 00008FE0 		add	r0, pc, r0
 5113              	.LPIC169:
 5114 1ae8 02208FE0 		add	r2, pc, r2
 5115              	.LPIC170:
 5116 1aec 01108FE0 		add	r1, pc, r1
 5117 1af0 EDFFFFEA 		b	.L364
 5118              	.LVL432:
 5119              	.L368:
 5120              	.LBB221:
 5121              	.LBB219:
 433:/home/hkh/git/eapidk-code-r76-trunk/apps/EeePProg/linux/../BinFuncs.c ****     siFormattedMessage_SC('L', __FILE__, "LclWriteFile", __LINE__, StatusCode,
 5122              		.loc 1 433 5 is_stmt 1 view .LVU1731
 434:/home/hkh/git/eapidk-code-r76-trunk/apps/EeePProg/linux/../BinFuncs.c ****         "Opening File %s(%s)\n", cszFilename, cszWriteType);
 5123              		.loc 1 434 5 view .LVU1732
 5124 1af4 B8009FE5 		ldr	r0, .L370+36
 5125              	.LVL433:
 434:/home/hkh/git/eapidk-code-r76-trunk/apps/EeePProg/linux/../BinFuncs.c ****         "Opening File %s(%s)\n", cszFilename, cszWriteType);
 5126              		.loc 1 434 5 is_stmt 0 view .LVU1733
 5127 1af8 FE4A0FE3 		movw	r4, #64254
 5128              	.LVL434:
 434:/home/hkh/git/eapidk-code-r76-trunk/apps/EeePProg/linux/../BinFuncs.c ****         "Opening File %s(%s)\n", cszFilename, cszWriteType);
 5129              		.loc 1 434 5 view .LVU1734
 5130 1afc B4209FE5 		ldr	r2, .L370+40
 5131 1b00 FF4F4FE3 		movt	r4, 65535
 5132 1b04 B0109FE5 		ldr	r1, .L370+44
 5133 1b08 B23100E3 		movw	r3, #434
 5134              	.LPIC177:
 5135 1b0c 00008FE0 		add	r0, pc, r0
 5136 1b10 0C808DE5 		str	r8, [sp, #12]
ARM GAS  /tmp/ccf3bFwG.s 			page 132


 5137 1b14 04008DE5 		str	r0, [sp, #4]
 5138              	.LPIC174:
 5139 1b18 02208FE0 		add	r2, pc, r2
 5140              	.LPIC175:
 5141 1b1c 01108FE0 		add	r1, pc, r1
 5142 1b20 4C00A0E3 		mov	r0, #76
 5143 1b24 08708DE5 		str	r7, [sp, #8]
 5144 1b28 00408DE5 		str	r4, [sp]
 5145 1b2c FEFFFFEB 		bl	siFormattedMessage_SC(PLT)
 5146              	.LVL435:
 436:/home/hkh/git/eapidk-code-r76-trunk/apps/EeePProg/linux/../BinFuncs.c ****   }
 5147              		.loc 1 436 5 is_stmt 1 view .LVU1735
 433:/home/hkh/git/eapidk-code-r76-trunk/apps/EeePProg/linux/../BinFuncs.c ****     siFormattedMessage_SC('L', __FILE__, "LclWriteFile", __LINE__, StatusCode,
 5148              		.loc 1 433 15 is_stmt 0 view .LVU1736
 5149 1b30 0400A0E1 		mov	r0, r4
 436:/home/hkh/git/eapidk-code-r76-trunk/apps/EeePProg/linux/../BinFuncs.c ****   }
 5150              		.loc 1 436 5 view .LVU1737
 5151 1b34 CFFFFFEA 		b	.L356
 5152              	.LVL436:
 5153              	.L365:
 436:/home/hkh/git/eapidk-code-r76-trunk/apps/EeePProg/linux/../BinFuncs.c ****   }
 5154              		.loc 1 436 5 view .LVU1738
 5155              	.LBE219:
 5156              	.LBE221:
 415:/home/hkh/git/eapidk-code-r76-trunk/apps/EeePProg/linux/../BinFuncs.c ****       LclWriteFile,
 5157              		.loc 1 415 3 is_stmt 1 view .LVU1739
 415:/home/hkh/git/eapidk-code-r76-trunk/apps/EeePProg/linux/../BinFuncs.c ****       LclWriteFile,
 5158              		.loc 1 415 3 view .LVU1740
 5159 1b38 80C09FE5 		ldr	ip, .L370+48
 5160 1b3c 014CE0E3 		mvn	r4, #256
 5161 1b40 7C009FE5 		ldr	r0, .L370+52
 5162              	.LVL437:
 415:/home/hkh/git/eapidk-code-r76-trunk/apps/EeePProg/linux/../BinFuncs.c ****       LclWriteFile,
 5163              		.loc 1 415 3 is_stmt 0 view .LVU1741
 5164 1b44 9F3100E3 		movw	r3, #415
 5165 1b48 78209FE5 		ldr	r2, .L370+56
 5166              	.LVL438:
 415:/home/hkh/git/eapidk-code-r76-trunk/apps/EeePProg/linux/../BinFuncs.c ****       LclWriteFile,
 5167              		.loc 1 415 3 view .LVU1742
 5168 1b4c 78109FE5 		ldr	r1, .L370+60
 5169              	.LVL439:
 415:/home/hkh/git/eapidk-code-r76-trunk/apps/EeePProg/linux/../BinFuncs.c ****       LclWriteFile,
 5170              		.loc 1 415 3 view .LVU1743
 5171              	.LPIC163:
 5172 1b50 0CC08FE0 		add	ip, pc, ip
 5173              	.LPIC164:
 5174 1b54 00008FE0 		add	r0, pc, r0
 5175              	.LPIC161:
 5176 1b58 02208FE0 		add	r2, pc, r2
 5177              	.LPIC162:
 5178 1b5c 01108FE0 		add	r1, pc, r1
 5179 1b60 D1FFFFEA 		b	.L364
 5180              	.LVL440:
 5181              	.L366:
 420:/home/hkh/git/eapidk-code-r76-trunk/apps/EeePProg/linux/../BinFuncs.c ****       LclWriteFile,
 5182              		.loc 1 420 3 is_stmt 1 view .LVU1744
 420:/home/hkh/git/eapidk-code-r76-trunk/apps/EeePProg/linux/../BinFuncs.c ****       LclWriteFile,
ARM GAS  /tmp/ccf3bFwG.s 			page 133


 5183              		.loc 1 420 3 view .LVU1745
 5184 1b64 64C09FE5 		ldr	ip, .L370+64
 5185 1b68 014CE0E3 		mvn	r4, #256
 5186 1b6c 60009FE5 		ldr	r0, .L370+68
 5187              	.LVL441:
 420:/home/hkh/git/eapidk-code-r76-trunk/apps/EeePProg/linux/../BinFuncs.c ****       LclWriteFile,
 5188              		.loc 1 420 3 is_stmt 0 view .LVU1746
 5189 1b70 693FA0E3 		mov	r3, #420
 5190 1b74 5C209FE5 		ldr	r2, .L370+72
 5191              	.LVL442:
 420:/home/hkh/git/eapidk-code-r76-trunk/apps/EeePProg/linux/../BinFuncs.c ****       LclWriteFile,
 5192              		.loc 1 420 3 view .LVU1747
 5193 1b78 5C109FE5 		ldr	r1, .L370+76
 5194              	.LVL443:
 420:/home/hkh/git/eapidk-code-r76-trunk/apps/EeePProg/linux/../BinFuncs.c ****       LclWriteFile,
 5195              		.loc 1 420 3 view .LVU1748
 5196              	.LPIC167:
 5197 1b7c 0CC08FE0 		add	ip, pc, ip
 5198              	.LPIC168:
 5199 1b80 00008FE0 		add	r0, pc, r0
 5200              	.LPIC165:
 5201 1b84 02208FE0 		add	r2, pc, r2
 5202              	.LPIC166:
 5203 1b88 01108FE0 		add	r1, pc, r1
 5204 1b8c C6FFFFEA 		b	.L364
 5205              	.L371:
 5206              		.align	2
 5207              	.L370:
 5208 1b90 4C010000 		.word	.LC37-(.LPIC173+8)
 5209 1b94 F0000000 		.word	.LC30-(.LPIC180+8)
 5210 1b98 F0000000 		.word	.LC3-(.LPIC181+8)
 5211 1b9c F0000000 		.word	.LC26-(.LPIC178+8)
 5212 1ba0 F0000000 		.word	.LC1-(.LPIC179+8)
 5213 1ba4 BC000000 		.word	.LC28-(.LPIC171+8)
 5214 1ba8 BC000000 		.word	.LC3-(.LPIC172+8)
 5215 1bac BC000000 		.word	.LC26-(.LPIC169+8)
 5216 1bb0 BC000000 		.word	.LC1-(.LPIC170+8)
 5217 1bb4 A0000000 		.word	.LC29-(.LPIC177+8)
 5218 1bb8 98000000 		.word	.LC26-(.LPIC174+8)
 5219 1bbc 98000000 		.word	.LC1-(.LPIC175+8)
 5220 1bc0 68000000 		.word	.LC27-(.LPIC163+8)
 5221 1bc4 68000000 		.word	.LC3-(.LPIC164+8)
 5222 1bc8 68000000 		.word	.LC26-(.LPIC161+8)
 5223 1bcc 68000000 		.word	.LC1-(.LPIC162+8)
 5224 1bd0 4C000000 		.word	.LC2-(.LPIC167+8)
 5225 1bd4 4C000000 		.word	.LC3-(.LPIC168+8)
 5226 1bd8 4C000000 		.word	.LC26-(.LPIC165+8)
 5227 1bdc 4C000000 		.word	.LC1-(.LPIC166+8)
 5228              	.LBE225:
 5229              	.LBE228:
 5230              		.cfi_endproc
 5231              	.LFE17:
 5233              		.section	.rodata.str1.4
 5234 02ea 0000     		.align	2
 5235              	.LC38:
 5236 02ec 7200     		.ascii	"r\000"
 5237              		.text
ARM GAS  /tmp/ccf3bFwG.s 			page 134


 5238              		.align	2
 5239              		.global	ReadTextFile
 5240              		.syntax unified
 5241              		.arm
 5242              		.fpu vfpv3
 5244              	ReadTextFile:
 5245              	.LVL444:
 5246              	.LFB18:
 549:/home/hkh/git/eapidk-code-r76-trunk/apps/EeePProg/linux/../BinFuncs.c ****   return LclReadFile(cszFilename, pvBuffer, pstReadBCnt, "r");
 5247              		.loc 1 549 1 is_stmt 1 view -0
 5248              		.cfi_startproc
 5249              		@ args = 0, pretend = 0, frame = 0
 5250              		@ frame_needed = 0, uses_anonymous_args = 0
 550:/home/hkh/git/eapidk-code-r76-trunk/apps/EeePProg/linux/../BinFuncs.c **** }
 5251              		.loc 1 550 3 view .LVU1750
 549:/home/hkh/git/eapidk-code-r76-trunk/apps/EeePProg/linux/../BinFuncs.c ****   return LclReadFile(cszFilename, pvBuffer, pstReadBCnt, "r");
 5252              		.loc 1 549 1 is_stmt 0 view .LVU1751
 5253 1be0 F0432DE9 		push	{r4, r5, r6, r7, r8, r9, lr}
 5254              		.cfi_def_cfa_offset 28
 5255              		.cfi_offset 4, -28
 5256              		.cfi_offset 5, -24
 5257              		.cfi_offset 6, -20
 5258              		.cfi_offset 7, -16
 5259              		.cfi_offset 8, -12
 5260              		.cfi_offset 9, -8
 5261              		.cfi_offset 14, -4
 5262              	.LBB231:
 5263              	.LBB232:
 459:/home/hkh/git/eapidk-code-r76-trunk/apps/EeePProg/linux/../BinFuncs.c ****       LclReadFile,
 5264              		.loc 1 459 3 view .LVU1752
 5265 1be4 008050E2 		subs	r8, r0, #0
 5266              	.LVL445:
 459:/home/hkh/git/eapidk-code-r76-trunk/apps/EeePProg/linux/../BinFuncs.c ****       LclReadFile,
 5267              		.loc 1 459 3 view .LVU1753
 5268              	.LBE232:
 5269              	.LBI231:
 449:/home/hkh/git/eapidk-code-r76-trunk/apps/EeePProg/linux/../BinFuncs.c ****     __IN  const char *cszFilename, 
 5270              		.loc 1 449 1 is_stmt 1 view .LVU1754
 5271              	.LBB233:
 456:/home/hkh/git/eapidk-code-r76-trunk/apps/EeePProg/linux/../BinFuncs.c ****   FILE *LclFilePtr;
 5272              		.loc 1 456 3 view .LVU1755
 457:/home/hkh/git/eapidk-code-r76-trunk/apps/EeePProg/linux/../BinFuncs.c ****   size_t stFileLen;
 5273              		.loc 1 457 3 view .LVU1756
 458:/home/hkh/git/eapidk-code-r76-trunk/apps/EeePProg/linux/../BinFuncs.c ****   EAPI_APP_ASSERT_PARAMATER_NULL(
 5274              		.loc 1 458 3 view .LVU1757
 459:/home/hkh/git/eapidk-code-r76-trunk/apps/EeePProg/linux/../BinFuncs.c ****       LclReadFile,
 5275              		.loc 1 459 3 view .LVU1758
 5276              	.LBE233:
 5277              	.LBE231:
 549:/home/hkh/git/eapidk-code-r76-trunk/apps/EeePProg/linux/../BinFuncs.c ****   return LclReadFile(cszFilename, pvBuffer, pstReadBCnt, "r");
 5278              		.loc 1 549 1 is_stmt 0 view .LVU1759
 5279 1be8 14D04DE2 		sub	sp, sp, #20
 5280              		.cfi_def_cfa_offset 48
 5281              	.LBB237:
 5282              	.LBB234:
 459:/home/hkh/git/eapidk-code-r76-trunk/apps/EeePProg/linux/../BinFuncs.c ****       LclReadFile,
 5283              		.loc 1 459 3 view .LVU1760
ARM GAS  /tmp/ccf3bFwG.s 			page 135


 5284 1bec 4500000A 		beq	.L381
 464:/home/hkh/git/eapidk-code-r76-trunk/apps/EeePProg/linux/../BinFuncs.c ****       LclReadFile,
 5285              		.loc 1 464 3 view .LVU1761
 5286 1bf0 000051E3 		cmp	r1, #0
 5287 1bf4 0170A0E1 		mov	r7, r1
 459:/home/hkh/git/eapidk-code-r76-trunk/apps/EeePProg/linux/../BinFuncs.c ****       LclReadFile,
 5288              		.loc 1 459 3 is_stmt 1 view .LVU1762
 463:/home/hkh/git/eapidk-code-r76-trunk/apps/EeePProg/linux/../BinFuncs.c ****   EAPI_APP_ASSERT_PARAMATER_NULL(
 5289              		.loc 1 463 6 view .LVU1763
 464:/home/hkh/git/eapidk-code-r76-trunk/apps/EeePProg/linux/../BinFuncs.c ****       LclReadFile,
 5290              		.loc 1 464 3 view .LVU1764
 5291 1bf8 4D00000A 		beq	.L382
 469:/home/hkh/git/eapidk-code-r76-trunk/apps/EeePProg/linux/../BinFuncs.c ****       LclReadFile,
 5292              		.loc 1 469 3 is_stmt 0 view .LVU1765
 5293 1bfc 000052E3 		cmp	r2, #0
 5294 1c00 0240A0E1 		mov	r4, r2
 464:/home/hkh/git/eapidk-code-r76-trunk/apps/EeePProg/linux/../BinFuncs.c ****       LclReadFile,
 5295              		.loc 1 464 3 is_stmt 1 view .LVU1766
 468:/home/hkh/git/eapidk-code-r76-trunk/apps/EeePProg/linux/../BinFuncs.c ****   EAPI_APP_ASSERT_PARAMATER_NULL(
 5296              		.loc 1 468 6 view .LVU1767
 469:/home/hkh/git/eapidk-code-r76-trunk/apps/EeePProg/linux/../BinFuncs.c ****       LclReadFile,
 5297              		.loc 1 469 3 view .LVU1768
 5298 1c04 1F00000A 		beq	.L383
 469:/home/hkh/git/eapidk-code-r76-trunk/apps/EeePProg/linux/../BinFuncs.c ****       LclReadFile,
 5299              		.loc 1 469 3 view .LVU1769
 473:/home/hkh/git/eapidk-code-r76-trunk/apps/EeePProg/linux/../BinFuncs.c ****   *pstReadBCnt=0;
 5300              		.loc 1 473 6 view .LVU1770
 474:/home/hkh/git/eapidk-code-r76-trunk/apps/EeePProg/linux/../BinFuncs.c ****   LclFilePtr=fopen(cszFilename, cszReadType);
 5301              		.loc 1 474 3 view .LVU1771
 475:/home/hkh/git/eapidk-code-r76-trunk/apps/EeePProg/linux/../BinFuncs.c ****   if(LclFilePtr==NULL){
 5302              		.loc 1 475 14 is_stmt 0 view .LVU1772
 5303 1c08 7C919FE5 		ldr	r9, .L386
 474:/home/hkh/git/eapidk-code-r76-trunk/apps/EeePProg/linux/../BinFuncs.c ****   LclFilePtr=fopen(cszFilename, cszReadType);
 5304              		.loc 1 474 15 view .LVU1773
 5305 1c0c 0060A0E3 		mov	r6, #0
 5306 1c10 006082E5 		str	r6, [r2]
 475:/home/hkh/git/eapidk-code-r76-trunk/apps/EeePProg/linux/../BinFuncs.c ****   if(LclFilePtr==NULL){
 5307              		.loc 1 475 3 is_stmt 1 view .LVU1774
 475:/home/hkh/git/eapidk-code-r76-trunk/apps/EeePProg/linux/../BinFuncs.c ****   if(LclFilePtr==NULL){
 5308              		.loc 1 475 14 is_stmt 0 view .LVU1775
 5309              	.LPIC194:
 5310 1c14 09908FE0 		add	r9, pc, r9
 5311 1c18 0910A0E1 		mov	r1, r9
 5312              	.LVL446:
 475:/home/hkh/git/eapidk-code-r76-trunk/apps/EeePProg/linux/../BinFuncs.c ****   if(LclFilePtr==NULL){
 5313              		.loc 1 475 14 view .LVU1776
 5314 1c1c FEFFFFEB 		bl	fopen(PLT)
 5315              	.LVL447:
 476:/home/hkh/git/eapidk-code-r76-trunk/apps/EeePProg/linux/../BinFuncs.c ****     StatusCode=EAPI_STATUS_READ_ERROR;
 5316              		.loc 1 476 3 is_stmt 1 view .LVU1777
 476:/home/hkh/git/eapidk-code-r76-trunk/apps/EeePProg/linux/../BinFuncs.c ****     StatusCode=EAPI_STATUS_READ_ERROR;
 5317              		.loc 1 476 5 is_stmt 0 view .LVU1778
 5318 1c20 005050E2 		subs	r5, r0, #0
 5319 1c24 2800000A 		beq	.L384
 483:/home/hkh/git/eapidk-code-r76-trunk/apps/EeePProg/linux/../BinFuncs.c ****   stFileLen=ftell(LclFilePtr);
 5320              		.loc 1 483 3 is_stmt 1 view .LVU1779
 5321 1c28 0220A0E3 		mov	r2, #2
ARM GAS  /tmp/ccf3bFwG.s 			page 136


 5322 1c2c 0610A0E1 		mov	r1, r6
 5323 1c30 FEFFFFEB 		bl	fseek(PLT)
 5324              	.LVL448:
 484:/home/hkh/git/eapidk-code-r76-trunk/apps/EeePProg/linux/../BinFuncs.c ****   *pvBuffer=malloc(stFileLen);
 5325              		.loc 1 484 3 view .LVU1780
 484:/home/hkh/git/eapidk-code-r76-trunk/apps/EeePProg/linux/../BinFuncs.c ****   *pvBuffer=malloc(stFileLen);
 5326              		.loc 1 484 13 is_stmt 0 view .LVU1781
 5327 1c34 0500A0E1 		mov	r0, r5
 5328 1c38 FEFFFFEB 		bl	ftell(PLT)
 5329              	.LVL449:
 5330 1c3c 0080A0E1 		mov	r8, r0
 5331              	.LVL450:
 485:/home/hkh/git/eapidk-code-r76-trunk/apps/EeePProg/linux/../BinFuncs.c ****   EAPI_APP_ASSERT_PARAMATER_NULL(
 5332              		.loc 1 485 3 is_stmt 1 view .LVU1782
 485:/home/hkh/git/eapidk-code-r76-trunk/apps/EeePProg/linux/../BinFuncs.c ****   EAPI_APP_ASSERT_PARAMATER_NULL(
 5333              		.loc 1 485 13 is_stmt 0 view .LVU1783
 5334 1c40 FEFFFFEB 		bl	malloc(PLT)
 5335              	.LVL451:
 486:/home/hkh/git/eapidk-code-r76-trunk/apps/EeePProg/linux/../BinFuncs.c ****       LclReadFile,
 5336              		.loc 1 486 3 view .LVU1784
 5337 1c44 000050E3 		cmp	r0, #0
 485:/home/hkh/git/eapidk-code-r76-trunk/apps/EeePProg/linux/../BinFuncs.c ****   EAPI_APP_ASSERT_PARAMATER_NULL(
 5338              		.loc 1 485 12 view .LVU1785
 5339 1c48 000087E5 		str	r0, [r7]
 486:/home/hkh/git/eapidk-code-r76-trunk/apps/EeePProg/linux/../BinFuncs.c ****       LclReadFile,
 5340              		.loc 1 486 3 is_stmt 1 view .LVU1786
 5341 1c4c 4300000A 		beq	.L385
 486:/home/hkh/git/eapidk-code-r76-trunk/apps/EeePProg/linux/../BinFuncs.c ****       LclReadFile,
 5342              		.loc 1 486 3 view .LVU1787
 490:/home/hkh/git/eapidk-code-r76-trunk/apps/EeePProg/linux/../BinFuncs.c **** 
 5343              		.loc 1 490 6 view .LVU1788
 492:/home/hkh/git/eapidk-code-r76-trunk/apps/EeePProg/linux/../BinFuncs.c ****   *pstReadBCnt=stFileLen;
 5344              		.loc 1 492 3 view .LVU1789
 5345 1c50 0500A0E1 		mov	r0, r5
 5346 1c54 FEFFFFEB 		bl	rewind(PLT)
 5347              	.LVL452:
 493:/home/hkh/git/eapidk-code-r76-trunk/apps/EeePProg/linux/../BinFuncs.c **** #if 0
 5348              		.loc 1 493 3 view .LVU1790
 505:/home/hkh/git/eapidk-code-r76-trunk/apps/EeePProg/linux/../BinFuncs.c **** #endif
 5349              		.loc 1 505 13 is_stmt 0 view .LVU1791
 5350 1c58 000097E5 		ldr	r0, [r7]
 5351 1c5c 0820A0E1 		mov	r2, r8
 5352 1c60 0530A0E1 		mov	r3, r5
 5353 1c64 0110A0E3 		mov	r1, #1
 493:/home/hkh/git/eapidk-code-r76-trunk/apps/EeePProg/linux/../BinFuncs.c **** #if 0
 5354              		.loc 1 493 15 view .LVU1792
 5355 1c68 008084E5 		str	r8, [r4]
 505:/home/hkh/git/eapidk-code-r76-trunk/apps/EeePProg/linux/../BinFuncs.c **** #endif
 5356              		.loc 1 505 3 is_stmt 1 view .LVU1793
 505:/home/hkh/git/eapidk-code-r76-trunk/apps/EeePProg/linux/../BinFuncs.c **** #endif
 5357              		.loc 1 505 13 is_stmt 0 view .LVU1794
 5358 1c6c FEFFFFEB 		bl	fread(PLT)
 5359              	.LVL453:
 507:/home/hkh/git/eapidk-code-r76-trunk/apps/EeePProg/linux/../BinFuncs.c ****   fclose(LclFilePtr);
 5360              		.loc 1 507 3 is_stmt 1 view .LVU1795
 507:/home/hkh/git/eapidk-code-r76-trunk/apps/EeePProg/linux/../BinFuncs.c ****   fclose(LclFilePtr);
 5361              		.loc 1 507 15 is_stmt 0 view .LVU1796
ARM GAS  /tmp/ccf3bFwG.s 			page 137


 5362 1c70 000084E5 		str	r0, [r4]
 508:/home/hkh/git/eapidk-code-r76-trunk/apps/EeePProg/linux/../BinFuncs.c **** 
 5363              		.loc 1 508 3 is_stmt 1 view .LVU1797
 5364 1c74 0500A0E1 		mov	r0, r5
 5365              	.LVL454:
 508:/home/hkh/git/eapidk-code-r76-trunk/apps/EeePProg/linux/../BinFuncs.c **** 
 5366              		.loc 1 508 3 is_stmt 0 view .LVU1798
 5367 1c78 FEFFFFEB 		bl	fclose(PLT)
 5368              	.LVL455:
 456:/home/hkh/git/eapidk-code-r76-trunk/apps/EeePProg/linux/../BinFuncs.c ****   FILE *LclFilePtr;
 5369              		.loc 1 456 16 view .LVU1799
 5370 1c7c 0600A0E1 		mov	r0, r6
 511:/home/hkh/git/eapidk-code-r76-trunk/apps/EeePProg/linux/../BinFuncs.c **** }
 5371              		.loc 1 511 3 is_stmt 1 view .LVU1800
 5372              	.LVL456:
 5373              	.L374:
 5374              	.L372:
 511:/home/hkh/git/eapidk-code-r76-trunk/apps/EeePProg/linux/../BinFuncs.c **** }
 5375              		.loc 1 511 3 is_stmt 0 view .LVU1801
 5376              	.LBE234:
 5377              	.LBE237:
 551:/home/hkh/git/eapidk-code-r76-trunk/apps/EeePProg/linux/../BinFuncs.c **** 
 5378              		.loc 1 551 1 view .LVU1802
 5379 1c80 14D08DE2 		add	sp, sp, #20
 5380              		.cfi_remember_state
 5381              		.cfi_def_cfa_offset 28
 5382              		@ sp needed
 5383 1c84 F083BDE8 		pop	{r4, r5, r6, r7, r8, r9, pc}
 5384              	.LVL457:
 5385              	.L383:
 5386              		.cfi_restore_state
 5387              	.LBB238:
 5388              	.LBB235:
 469:/home/hkh/git/eapidk-code-r76-trunk/apps/EeePProg/linux/../BinFuncs.c ****       LclReadFile,
 5389              		.loc 1 469 3 is_stmt 1 view .LVU1803
 469:/home/hkh/git/eapidk-code-r76-trunk/apps/EeePProg/linux/../BinFuncs.c ****       LclReadFile,
 5390              		.loc 1 469 3 view .LVU1804
 5391 1c88 00C19FE5 		ldr	ip, .L386+4
 5392 1c8c 016CE0E3 		mvn	r6, #256
 5393 1c90 FC009FE5 		ldr	r0, .L386+8
 5394              	.LVL458:
 469:/home/hkh/git/eapidk-code-r76-trunk/apps/EeePProg/linux/../BinFuncs.c ****       LclReadFile,
 5395              		.loc 1 469 3 is_stmt 0 view .LVU1805
 5396 1c94 D53100E3 		movw	r3, #469
 5397 1c98 F8209FE5 		ldr	r2, .L386+12
 5398              	.LVL459:
 469:/home/hkh/git/eapidk-code-r76-trunk/apps/EeePProg/linux/../BinFuncs.c ****       LclReadFile,
 5399              		.loc 1 469 3 view .LVU1806
 5400 1c9c F8109FE5 		ldr	r1, .L386+16
 5401              	.LVL460:
 469:/home/hkh/git/eapidk-code-r76-trunk/apps/EeePProg/linux/../BinFuncs.c ****       LclReadFile,
 5402              		.loc 1 469 3 view .LVU1807
 5403              	.LPIC192:
 5404 1ca0 0CC08FE0 		add	ip, pc, ip
 5405              	.LPIC193:
 5406 1ca4 00008FE0 		add	r0, pc, r0
 5407              	.LPIC190:
ARM GAS  /tmp/ccf3bFwG.s 			page 138


 5408 1ca8 02208FE0 		add	r2, pc, r2
 5409              	.LPIC191:
 5410 1cac 01108FE0 		add	r1, pc, r1
 5411              	.LVL461:
 5412              	.L380:
 464:/home/hkh/git/eapidk-code-r76-trunk/apps/EeePProg/linux/../BinFuncs.c ****       LclReadFile,
 5413              		.loc 1 464 3 view .LVU1808
 5414 1cb0 01108DE9 		stmib	sp, {r0, ip}
 5415 1cb4 4500A0E3 		mov	r0, #69
 5416 1cb8 00608DE5 		str	r6, [sp]
 5417 1cbc FEFFFFEB 		bl	siFormattedMessage_SC(PLT)
 5418              	.LVL462:
 464:/home/hkh/git/eapidk-code-r76-trunk/apps/EeePProg/linux/../BinFuncs.c ****       LclReadFile,
 5419              		.loc 1 464 3 is_stmt 1 view .LVU1809
 464:/home/hkh/git/eapidk-code-r76-trunk/apps/EeePProg/linux/../BinFuncs.c ****       LclReadFile,
 5420              		.loc 1 464 3 view .LVU1810
 464:/home/hkh/git/eapidk-code-r76-trunk/apps/EeePProg/linux/../BinFuncs.c ****       LclReadFile,
 5421              		.loc 1 464 3 view .LVU1811
 5422 1cc0 0600A0E1 		mov	r0, r6
 5423              	.LBE235:
 5424              	.LBE238:
 551:/home/hkh/git/eapidk-code-r76-trunk/apps/EeePProg/linux/../BinFuncs.c **** 
 5425              		.loc 1 551 1 is_stmt 0 view .LVU1812
 5426 1cc4 14D08DE2 		add	sp, sp, #20
 5427              		.cfi_remember_state
 5428              		.cfi_def_cfa_offset 28
 5429              		@ sp needed
 5430 1cc8 F083BDE8 		pop	{r4, r5, r6, r7, r8, r9, pc}
 5431              	.LVL463:
 5432              	.L384:
 5433              		.cfi_restore_state
 5434              	.LBB239:
 5435              	.LBB236:
 477:/home/hkh/git/eapidk-code-r76-trunk/apps/EeePProg/linux/../BinFuncs.c ****     siFormattedMessage_SC('L', __FILE__, "LclReadFile", __LINE__, StatusCode,
 5436              		.loc 1 477 5 is_stmt 1 view .LVU1813
 478:/home/hkh/git/eapidk-code-r76-trunk/apps/EeePProg/linux/../BinFuncs.c ****         "Opening File %s(%s)\n", cszFilename, cszReadType);
 5437              		.loc 1 478 5 view .LVU1814
 5438 1ccc CC009FE5 		ldr	r0, .L386+20
 5439              	.LVL464:
 478:/home/hkh/git/eapidk-code-r76-trunk/apps/EeePProg/linux/../BinFuncs.c ****         "Opening File %s(%s)\n", cszFilename, cszReadType);
 5440              		.loc 1 478 5 is_stmt 0 view .LVU1815
 5441 1cd0 056CE0E3 		mvn	r6, #1280
 5442 1cd4 C8209FE5 		ldr	r2, .L386+24
 5443 1cd8 DE3100E3 		movw	r3, #478
 5444 1cdc C4109FE5 		ldr	r1, .L386+28
 5445              	.LPIC198:
 5446 1ce0 00008FE0 		add	r0, pc, r0
 5447 1ce4 F880CDE1 		strd	r8, [sp, #8]
 5448 1ce8 04008DE5 		str	r0, [sp, #4]
 5449              	.LPIC195:
 5450 1cec 02208FE0 		add	r2, pc, r2
 5451              	.LPIC196:
 5452 1cf0 01108FE0 		add	r1, pc, r1
 5453 1cf4 4C00A0E3 		mov	r0, #76
 5454 1cf8 00608DE5 		str	r6, [sp]
 5455 1cfc FEFFFFEB 		bl	siFormattedMessage_SC(PLT)
 5456              	.LVL465:
ARM GAS  /tmp/ccf3bFwG.s 			page 139


 480:/home/hkh/git/eapidk-code-r76-trunk/apps/EeePProg/linux/../BinFuncs.c ****   }
 5457              		.loc 1 480 5 is_stmt 1 view .LVU1816
 477:/home/hkh/git/eapidk-code-r76-trunk/apps/EeePProg/linux/../BinFuncs.c ****     siFormattedMessage_SC('L', __FILE__, "LclReadFile", __LINE__, StatusCode,
 5458              		.loc 1 477 15 is_stmt 0 view .LVU1817
 5459 1d00 0600A0E1 		mov	r0, r6
 480:/home/hkh/git/eapidk-code-r76-trunk/apps/EeePProg/linux/../BinFuncs.c ****   }
 5460              		.loc 1 480 5 view .LVU1818
 5461 1d04 DDFFFFEA 		b	.L372
 5462              	.LVL466:
 5463              	.L381:
 459:/home/hkh/git/eapidk-code-r76-trunk/apps/EeePProg/linux/../BinFuncs.c ****       LclReadFile,
 5464              		.loc 1 459 3 is_stmt 1 view .LVU1819
 459:/home/hkh/git/eapidk-code-r76-trunk/apps/EeePProg/linux/../BinFuncs.c ****       LclReadFile,
 5465              		.loc 1 459 3 view .LVU1820
 5466 1d08 9CC09FE5 		ldr	ip, .L386+32
 5467 1d0c 016CE0E3 		mvn	r6, #256
 5468 1d10 98009FE5 		ldr	r0, .L386+36
 5469              	.LVL467:
 459:/home/hkh/git/eapidk-code-r76-trunk/apps/EeePProg/linux/../BinFuncs.c ****       LclReadFile,
 5470              		.loc 1 459 3 is_stmt 0 view .LVU1821
 5471 1d14 CB3100E3 		movw	r3, #459
 5472 1d18 94209FE5 		ldr	r2, .L386+40
 5473              	.LVL468:
 459:/home/hkh/git/eapidk-code-r76-trunk/apps/EeePProg/linux/../BinFuncs.c ****       LclReadFile,
 5474              		.loc 1 459 3 view .LVU1822
 5475 1d1c 94109FE5 		ldr	r1, .L386+44
 5476              	.LVL469:
 459:/home/hkh/git/eapidk-code-r76-trunk/apps/EeePProg/linux/../BinFuncs.c ****       LclReadFile,
 5477              		.loc 1 459 3 view .LVU1823
 5478              	.LPIC184:
 5479 1d20 0CC08FE0 		add	ip, pc, ip
 5480              	.LPIC185:
 5481 1d24 00008FE0 		add	r0, pc, r0
 5482              	.LPIC182:
 5483 1d28 02208FE0 		add	r2, pc, r2
 5484              	.LPIC183:
 5485 1d2c 01108FE0 		add	r1, pc, r1
 5486 1d30 DEFFFFEA 		b	.L380
 5487              	.LVL470:
 5488              	.L382:
 464:/home/hkh/git/eapidk-code-r76-trunk/apps/EeePProg/linux/../BinFuncs.c ****       LclReadFile,
 5489              		.loc 1 464 3 is_stmt 1 view .LVU1824
 464:/home/hkh/git/eapidk-code-r76-trunk/apps/EeePProg/linux/../BinFuncs.c ****       LclReadFile,
 5490              		.loc 1 464 3 view .LVU1825
 5491 1d34 80C09FE5 		ldr	ip, .L386+48
 5492 1d38 016CE0E3 		mvn	r6, #256
 5493 1d3c 7C009FE5 		ldr	r0, .L386+52
 5494              	.LVL471:
 464:/home/hkh/git/eapidk-code-r76-trunk/apps/EeePProg/linux/../BinFuncs.c ****       LclReadFile,
 5495              		.loc 1 464 3 is_stmt 0 view .LVU1826
 5496 1d40 1D3EA0E3 		mov	r3, #464
 5497 1d44 78209FE5 		ldr	r2, .L386+56
 5498              	.LVL472:
 464:/home/hkh/git/eapidk-code-r76-trunk/apps/EeePProg/linux/../BinFuncs.c ****       LclReadFile,
 5499              		.loc 1 464 3 view .LVU1827
 5500 1d48 78109FE5 		ldr	r1, .L386+60
 5501              	.LVL473:
ARM GAS  /tmp/ccf3bFwG.s 			page 140


 464:/home/hkh/git/eapidk-code-r76-trunk/apps/EeePProg/linux/../BinFuncs.c ****       LclReadFile,
 5502              		.loc 1 464 3 view .LVU1828
 5503              	.LPIC188:
 5504 1d4c 0CC08FE0 		add	ip, pc, ip
 5505              	.LPIC189:
 5506 1d50 00008FE0 		add	r0, pc, r0
 5507              	.LPIC186:
 5508 1d54 02208FE0 		add	r2, pc, r2
 5509              	.LPIC187:
 5510 1d58 01108FE0 		add	r1, pc, r1
 5511 1d5c D3FFFFEA 		b	.L380
 5512              	.LVL474:
 5513              	.L385:
 486:/home/hkh/git/eapidk-code-r76-trunk/apps/EeePProg/linux/../BinFuncs.c ****       LclReadFile,
 5514              		.loc 1 486 3 is_stmt 1 view .LVU1829
 486:/home/hkh/git/eapidk-code-r76-trunk/apps/EeePProg/linux/../BinFuncs.c ****       LclReadFile,
 5515              		.loc 1 486 3 view .LVU1830
 5516 1d60 64C09FE5 		ldr	ip, .L386+64
 5517 1d64 0260E0E3 		mvn	r6, #2
 5518 1d68 60009FE5 		ldr	r0, .L386+68
 5519 1d6c E63100E3 		movw	r3, #486
 5520 1d70 5C209FE5 		ldr	r2, .L386+72
 5521 1d74 5C109FE5 		ldr	r1, .L386+76
 5522              	.LPIC201:
 5523 1d78 0CC08FE0 		add	ip, pc, ip
 5524              	.LPIC202:
 5525 1d7c 00008FE0 		add	r0, pc, r0
 5526              	.LPIC199:
 5527 1d80 02208FE0 		add	r2, pc, r2
 5528              	.LPIC200:
 5529 1d84 01108FE0 		add	r1, pc, r1
 5530 1d88 C8FFFFEA 		b	.L380
 5531              	.L387:
 5532              		.align	2
 5533              	.L386:
 5534 1d8c 70010000 		.word	.LC38-(.LPIC194+8)
 5535 1d90 E8000000 		.word	.LC33-(.LPIC192+8)
 5536 1d94 E8000000 		.word	.LC3-(.LPIC193+8)
 5537 1d98 E8000000 		.word	.LC31-(.LPIC190+8)
 5538 1d9c E8000000 		.word	.LC1-(.LPIC191+8)
 5539 1da0 B8000000 		.word	.LC29-(.LPIC198+8)
 5540 1da4 B0000000 		.word	.LC31-(.LPIC195+8)
 5541 1da8 B0000000 		.word	.LC1-(.LPIC196+8)
 5542 1dac 84000000 		.word	.LC27-(.LPIC184+8)
 5543 1db0 84000000 		.word	.LC3-(.LPIC185+8)
 5544 1db4 84000000 		.word	.LC31-(.LPIC182+8)
 5545 1db8 84000000 		.word	.LC1-(.LPIC183+8)
 5546 1dbc 68000000 		.word	.LC32-(.LPIC188+8)
 5547 1dc0 68000000 		.word	.LC3-(.LPIC189+8)
 5548 1dc4 68000000 		.word	.LC31-(.LPIC186+8)
 5549 1dc8 68000000 		.word	.LC1-(.LPIC187+8)
 5550 1dcc 4C000000 		.word	.LC34-(.LPIC201+8)
 5551 1dd0 4C000000 		.word	.LC3-(.LPIC202+8)
 5552 1dd4 4C000000 		.word	.LC31-(.LPIC199+8)
 5553 1dd8 4C000000 		.word	.LC1-(.LPIC200+8)
 5554              	.LBE236:
 5555              	.LBE239:
ARM GAS  /tmp/ccf3bFwG.s 			page 141


 5556              		.cfi_endproc
 5557              	.LFE18:
 5559              		.align	2
 5560              		.global	EeeP_Set16BitValue_BE
 5561              		.syntax unified
 5562              		.arm
 5563              		.fpu vfpv3
 5565              	EeeP_Set16BitValue_BE:
 5566              	.LVL475:
 5567              	.LFB19:
 571:/home/hkh/git/eapidk-code-r76-trunk/apps/EeePProg/linux/../BinFuncs.c ****   pBuffer[1]=EEEP_LO_UINT8(Value       );
 5568              		.loc 1 571 1 view -0
 5569              		.cfi_startproc
 5570              		@ args = 0, pretend = 0, frame = 0
 5571              		@ frame_needed = 0, uses_anonymous_args = 0
 5572              		@ link register save eliminated.
 572:/home/hkh/git/eapidk-code-r76-trunk/apps/EeePProg/linux/../BinFuncs.c ****   pBuffer[0]=EEEP_LO_UINT8(Value>>(8*1));
 5573              		.loc 1 572 3 view .LVU1832
 5574              		.loc 1 573 14 is_stmt 0 view .LVU1833
 5575 1ddc 2134A0E1 		lsr	r3, r1, #8
 572:/home/hkh/git/eapidk-code-r76-trunk/apps/EeePProg/linux/../BinFuncs.c ****   pBuffer[0]=EEEP_LO_UINT8(Value>>(8*1));
 5576              		.loc 1 572 14 view .LVU1834
 5577 1de0 0110C0E5 		strb	r1, [r0, #1]
 5578              		.loc 1 573 3 is_stmt 1 view .LVU1835
 5579              		.loc 1 573 14 is_stmt 0 view .LVU1836
 5580 1de4 0030C0E5 		strb	r3, [r0]
 574:/home/hkh/git/eapidk-code-r76-trunk/apps/EeePProg/linux/../BinFuncs.c **** }
 5581              		.loc 1 574 1 view .LVU1837
 5582 1de8 1EFF2FE1 		bx	lr
 5583              		.cfi_endproc
 5584              	.LFE19:
 5586              		.align	2
 5587              		.global	EeeP_Get16BitValue_BE
 5588              		.syntax unified
 5589              		.arm
 5590              		.fpu vfpv3
 5592              	EeeP_Get16BitValue_BE:
 5593              	.LVL476:
 5594              	.LFB20:
 575:/home/hkh/git/eapidk-code-r76-trunk/apps/EeePProg/linux/../BinFuncs.c **** uint16_t
 576:/home/hkh/git/eapidk-code-r76-trunk/apps/EeePProg/linux/../BinFuncs.c **** EeeP_Get16BitValue_BE(
 577:/home/hkh/git/eapidk-code-r76-trunk/apps/EeePProg/linux/../BinFuncs.c ****     const uint8_t *pBuffer
 578:/home/hkh/git/eapidk-code-r76-trunk/apps/EeePProg/linux/../BinFuncs.c ****      )
 579:/home/hkh/git/eapidk-code-r76-trunk/apps/EeePProg/linux/../BinFuncs.c **** {
 5595              		.loc 1 579 1 is_stmt 1 view -0
 5596              		.cfi_startproc
 5597              		@ args = 0, pretend = 0, frame = 0
 5598              		@ frame_needed = 0, uses_anonymous_args = 0
 5599              		@ link register save eliminated.
 580:/home/hkh/git/eapidk-code-r76-trunk/apps/EeePProg/linux/../BinFuncs.c ****   return (pBuffer[1]       ) |
 5600              		.loc 1 580 3 view .LVU1839
 5601              		.loc 1 580 30 is_stmt 0 view .LVU1840
 5602 1dec B000D0E1 		ldrh	r0, [r0]	@ unaligned
 5603              	.LVL477:
 5604              		.loc 1 580 30 view .LVU1841
 5605 1df0 B00FBFE6 		rev16	r0, r0
 581:/home/hkh/git/eapidk-code-r76-trunk/apps/EeePProg/linux/../BinFuncs.c ****          (pBuffer[0]<<(8*1)) ;
ARM GAS  /tmp/ccf3bFwG.s 			page 142


 582:/home/hkh/git/eapidk-code-r76-trunk/apps/EeePProg/linux/../BinFuncs.c **** }
 5606              		.loc 1 582 1 view .LVU1842
 5607 1df4 7000FFE6 		uxth	r0, r0
 5608 1df8 1EFF2FE1 		bx	lr
 5609              		.cfi_endproc
 5610              	.LFE20:
 5612              		.align	2
 5613              		.global	EeeP_Set32BitValue_BE
 5614              		.syntax unified
 5615              		.arm
 5616              		.fpu vfpv3
 5618              	EeeP_Set32BitValue_BE:
 5619              	.LVL478:
 5620              	.LFB21:
 583:/home/hkh/git/eapidk-code-r76-trunk/apps/EeePProg/linux/../BinFuncs.c **** void
 584:/home/hkh/git/eapidk-code-r76-trunk/apps/EeePProg/linux/../BinFuncs.c **** EeeP_Set32BitValue_BE(
 585:/home/hkh/git/eapidk-code-r76-trunk/apps/EeePProg/linux/../BinFuncs.c ****     uint8_t *pBuffer,
 586:/home/hkh/git/eapidk-code-r76-trunk/apps/EeePProg/linux/../BinFuncs.c ****     uint32_t Value
 587:/home/hkh/git/eapidk-code-r76-trunk/apps/EeePProg/linux/../BinFuncs.c ****      )
 588:/home/hkh/git/eapidk-code-r76-trunk/apps/EeePProg/linux/../BinFuncs.c **** {
 5621              		.loc 1 588 1 is_stmt 1 view -0
 5622              		.cfi_startproc
 5623              		@ args = 0, pretend = 0, frame = 0
 5624              		@ frame_needed = 0, uses_anonymous_args = 0
 5625              		@ link register save eliminated.
 589:/home/hkh/git/eapidk-code-r76-trunk/apps/EeePProg/linux/../BinFuncs.c ****   pBuffer[3]=EEEP_LO_UINT8(Value       );
 5626              		.loc 1 589 3 view .LVU1844
 590:/home/hkh/git/eapidk-code-r76-trunk/apps/EeePProg/linux/../BinFuncs.c ****   pBuffer[2]=EEEP_LO_UINT8(Value>>(8*1));
 5627              		.loc 1 590 3 view .LVU1845
 591:/home/hkh/git/eapidk-code-r76-trunk/apps/EeePProg/linux/../BinFuncs.c ****   pBuffer[1]=EEEP_LO_UINT8(Value>>(8*2));
 5628              		.loc 1 591 3 view .LVU1846
 592:/home/hkh/git/eapidk-code-r76-trunk/apps/EeePProg/linux/../BinFuncs.c ****   pBuffer[0]=EEEP_LO_UINT8(Value>>(8*3));
 5629              		.loc 1 592 3 view .LVU1847
 5630 1dfc 311FBFE6 		rev	r1, r1
 5631              	.LVL479:
 5632              		.loc 1 592 13 is_stmt 0 view .LVU1848
 5633 1e00 001080E5 		str	r1, [r0]	@ unaligned
 593:/home/hkh/git/eapidk-code-r76-trunk/apps/EeePProg/linux/../BinFuncs.c **** }
 5634              		.loc 1 593 1 view .LVU1849
 5635 1e04 1EFF2FE1 		bx	lr
 5636              		.cfi_endproc
 5637              	.LFE21:
 5639              		.align	2
 5640              		.global	EeeP_Get32BitValue_BE
 5641              		.syntax unified
 5642              		.arm
 5643              		.fpu vfpv3
 5645              	EeeP_Get32BitValue_BE:
 5646              	.LVL480:
 5647              	.LFB22:
 594:/home/hkh/git/eapidk-code-r76-trunk/apps/EeePProg/linux/../BinFuncs.c **** uint32_t
 595:/home/hkh/git/eapidk-code-r76-trunk/apps/EeePProg/linux/../BinFuncs.c **** EeeP_Get32BitValue_BE(
 596:/home/hkh/git/eapidk-code-r76-trunk/apps/EeePProg/linux/../BinFuncs.c ****     const uint8_t *pBuffer
 597:/home/hkh/git/eapidk-code-r76-trunk/apps/EeePProg/linux/../BinFuncs.c ****      )
 598:/home/hkh/git/eapidk-code-r76-trunk/apps/EeePProg/linux/../BinFuncs.c **** {
 5648              		.loc 1 598 1 is_stmt 1 view -0
 5649              		.cfi_startproc
ARM GAS  /tmp/ccf3bFwG.s 			page 143


 5650              		@ args = 0, pretend = 0, frame = 0
 5651              		@ frame_needed = 0, uses_anonymous_args = 0
 5652              		@ link register save eliminated.
 599:/home/hkh/git/eapidk-code-r76-trunk/apps/EeePProg/linux/../BinFuncs.c ****   return (pBuffer[3]       ) |
 5653              		.loc 1 599 3 view .LVU1851
 5654 1e08 000090E5 		ldr	r0, [r0]	@ unaligned
 5655              	.LVL481:
 600:/home/hkh/git/eapidk-code-r76-trunk/apps/EeePProg/linux/../BinFuncs.c ****          (pBuffer[2]<<(8*1)) |
 601:/home/hkh/git/eapidk-code-r76-trunk/apps/EeePProg/linux/../BinFuncs.c ****          (pBuffer[1]<<(8*2)) |
 602:/home/hkh/git/eapidk-code-r76-trunk/apps/EeePProg/linux/../BinFuncs.c ****          (pBuffer[0]<<(8*3)) ;
 603:/home/hkh/git/eapidk-code-r76-trunk/apps/EeePProg/linux/../BinFuncs.c **** }
 5656              		.loc 1 603 1 is_stmt 0 view .LVU1852
 5657 1e0c 300FBFE6 		rev	r0, r0
 5658 1e10 1EFF2FE1 		bx	lr
 5659              		.cfi_endproc
 5660              	.LFE22:
 5662              		.align	2
 5663              		.global	EeeP_Set64BitValue_BE
 5664              		.syntax unified
 5665              		.arm
 5666              		.fpu vfpv3
 5668              	EeeP_Set64BitValue_BE:
 5669              	.LVL482:
 5670              	.LFB23:
 604:/home/hkh/git/eapidk-code-r76-trunk/apps/EeePProg/linux/../BinFuncs.c **** void
 605:/home/hkh/git/eapidk-code-r76-trunk/apps/EeePProg/linux/../BinFuncs.c **** EeeP_Set64BitValue_BE(
 606:/home/hkh/git/eapidk-code-r76-trunk/apps/EeePProg/linux/../BinFuncs.c ****     uint8_t *pBuffer,
 607:/home/hkh/git/eapidk-code-r76-trunk/apps/EeePProg/linux/../BinFuncs.c ****     uint64_t Value
 608:/home/hkh/git/eapidk-code-r76-trunk/apps/EeePProg/linux/../BinFuncs.c ****      )
 609:/home/hkh/git/eapidk-code-r76-trunk/apps/EeePProg/linux/../BinFuncs.c **** {
 5671              		.loc 1 609 1 is_stmt 1 view -0
 5672              		.cfi_startproc
 5673              		@ args = 0, pretend = 0, frame = 0
 5674              		@ frame_needed = 0, uses_anonymous_args = 0
 5675              		@ link register save eliminated.
 610:/home/hkh/git/eapidk-code-r76-trunk/apps/EeePProg/linux/../BinFuncs.c ****   pBuffer[7]=EEEP_LO_UINT8(Value       );
 5676              		.loc 1 610 3 view .LVU1854
 611:/home/hkh/git/eapidk-code-r76-trunk/apps/EeePProg/linux/../BinFuncs.c ****   pBuffer[6]=EEEP_LO_UINT8(Value>>(8*1));
 5677              		.loc 1 611 3 view .LVU1855
 612:/home/hkh/git/eapidk-code-r76-trunk/apps/EeePProg/linux/../BinFuncs.c ****   pBuffer[5]=EEEP_LO_UINT8(Value>>(8*2));
 5678              		.loc 1 612 3 view .LVU1856
 613:/home/hkh/git/eapidk-code-r76-trunk/apps/EeePProg/linux/../BinFuncs.c ****   pBuffer[4]=EEEP_LO_UINT8(Value>>(8*3));
 5679              		.loc 1 613 3 view .LVU1857
 614:/home/hkh/git/eapidk-code-r76-trunk/apps/EeePProg/linux/../BinFuncs.c ****   pBuffer[3]=EEEP_LO_UINT8(Value>>(8*4));
 615:/home/hkh/git/eapidk-code-r76-trunk/apps/EeePProg/linux/../BinFuncs.c ****   pBuffer[2]=EEEP_LO_UINT8(Value>>(8*5));
 616:/home/hkh/git/eapidk-code-r76-trunk/apps/EeePProg/linux/../BinFuncs.c ****   pBuffer[1]=EEEP_LO_UINT8(Value>>(8*6));
 617:/home/hkh/git/eapidk-code-r76-trunk/apps/EeePProg/linux/../BinFuncs.c ****   pBuffer[0]=EEEP_LO_UINT8(Value>>(8*7));
 5680              		.loc 1 617 14 is_stmt 0 view .LVU1858
 5681 1e14 23CCA0E1 		lsr	ip, r3, #24
 5682              		.loc 1 617 13 view .LVU1859
 5683 1e18 0010A0E3 		mov	r1, #0
 5684 1e1c 322FBFE6 		rev	r2, r2
 5685              	.LVL483:
 614:/home/hkh/git/eapidk-code-r76-trunk/apps/EeePProg/linux/../BinFuncs.c ****   pBuffer[3]=EEEP_LO_UINT8(Value>>(8*4));
 5686              		.loc 1 614 3 is_stmt 1 view .LVU1860
 615:/home/hkh/git/eapidk-code-r76-trunk/apps/EeePProg/linux/../BinFuncs.c ****   pBuffer[1]=EEEP_LO_UINT8(Value>>(8*6));
 5687              		.loc 1 615 3 view .LVU1861
ARM GAS  /tmp/ccf3bFwG.s 			page 144


 616:/home/hkh/git/eapidk-code-r76-trunk/apps/EeePProg/linux/../BinFuncs.c ****   pBuffer[0]=EEEP_LO_UINT8(Value>>(8*7));
 5688              		.loc 1 616 3 view .LVU1862
 5689              		.loc 1 617 3 view .LVU1863
 5690              		.loc 1 617 13 is_stmt 0 view .LVU1864
 5691 1e20 1C10C7E7 		bfi	r1, ip, #0, #8
 616:/home/hkh/git/eapidk-code-r76-trunk/apps/EeePProg/linux/../BinFuncs.c ****   pBuffer[0]=EEEP_LO_UINT8(Value>>(8*7));
 5692              		.loc 1 616 14 view .LVU1865
 5693 1e24 23C8A0E1 		lsr	ip, r3, #16
 5694              		.loc 1 617 13 view .LVU1866
 5695 1e28 042080E5 		str	r2, [r0, #4]	@ unaligned
 615:/home/hkh/git/eapidk-code-r76-trunk/apps/EeePProg/linux/../BinFuncs.c ****   pBuffer[1]=EEEP_LO_UINT8(Value>>(8*6));
 5696              		.loc 1 615 14 view .LVU1867
 5697 1e2c 2324A0E1 		lsr	r2, r3, #8
 5698              		.loc 1 617 13 view .LVU1868
 5699 1e30 1C14CFE7 		bfi	r1, ip, #8, #8
 5700 1e34 1218D7E7 		bfi	r1, r2, #16, #8
 5701 1e38 131CDFE7 		bfi	r1, r3, #24, #8
 5702 1e3c 001080E5 		str	r1, [r0]	@ unaligned
 618:/home/hkh/git/eapidk-code-r76-trunk/apps/EeePProg/linux/../BinFuncs.c **** }
 5703              		.loc 1 618 1 view .LVU1869
 5704 1e40 1EFF2FE1 		bx	lr
 5705              		.cfi_endproc
 5706              	.LFE23:
 5708              		.align	2
 5709              		.global	EeeP_Get64BitValue_BE
 5710              		.syntax unified
 5711              		.arm
 5712              		.fpu vfpv3
 5714              	EeeP_Get64BitValue_BE:
 5715              	.LVL484:
 5716              	.LFB24:
 619:/home/hkh/git/eapidk-code-r76-trunk/apps/EeePProg/linux/../BinFuncs.c **** uint64_t
 620:/home/hkh/git/eapidk-code-r76-trunk/apps/EeePProg/linux/../BinFuncs.c **** EeeP_Get64BitValue_BE(
 621:/home/hkh/git/eapidk-code-r76-trunk/apps/EeePProg/linux/../BinFuncs.c ****     const uint8_t *pBuffer
 622:/home/hkh/git/eapidk-code-r76-trunk/apps/EeePProg/linux/../BinFuncs.c ****      )
 623:/home/hkh/git/eapidk-code-r76-trunk/apps/EeePProg/linux/../BinFuncs.c **** {
 5717              		.loc 1 623 1 is_stmt 1 view -0
 5718              		.cfi_startproc
 5719              		@ args = 0, pretend = 0, frame = 0
 5720              		@ frame_needed = 0, uses_anonymous_args = 0
 5721              		@ link register save eliminated.
 624:/home/hkh/git/eapidk-code-r76-trunk/apps/EeePProg/linux/../BinFuncs.c ****   return (pBuffer[7]       ) |
 5722              		.loc 1 624 3 view .LVU1871
 625:/home/hkh/git/eapidk-code-r76-trunk/apps/EeePProg/linux/../BinFuncs.c ****          (pBuffer[6]<<(8*1)) |
 626:/home/hkh/git/eapidk-code-r76-trunk/apps/EeePProg/linux/../BinFuncs.c ****          (pBuffer[5]<<(8*2)) |
 627:/home/hkh/git/eapidk-code-r76-trunk/apps/EeePProg/linux/../BinFuncs.c ****          (pBuffer[4]<<(8*3)) |
 628:/home/hkh/git/eapidk-code-r76-trunk/apps/EeePProg/linux/../BinFuncs.c ****          ((uint64_t)pBuffer[3]<<(8*4)) |
 5723              		.loc 1 628 11 is_stmt 0 view .LVU1872
 5724 1e44 0310D0E5 		ldrb	r1, [r0, #3]	@ zero_extendqisi2
 629:/home/hkh/git/eapidk-code-r76-trunk/apps/EeePProg/linux/../BinFuncs.c ****          ((uint64_t)pBuffer[2]<<(8*5)) |
 5725              		.loc 1 629 11 view .LVU1873
 5726 1e48 02C0D0E5 		ldrb	ip, [r0, #2]	@ zero_extendqisi2
 630:/home/hkh/git/eapidk-code-r76-trunk/apps/EeePProg/linux/../BinFuncs.c ****          ((uint64_t)pBuffer[1]<<(8*6)) |
 5727              		.loc 1 630 11 view .LVU1874
 5728 1e4c 0120D0E5 		ldrb	r2, [r0, #1]	@ zero_extendqisi2
 631:/home/hkh/git/eapidk-code-r76-trunk/apps/EeePProg/linux/../BinFuncs.c ****          ((uint64_t)pBuffer[0]<<(8*7)) ;
 5729              		.loc 1 631 11 view .LVU1875
ARM GAS  /tmp/ccf3bFwG.s 			page 145


 5730 1e50 0030D0E5 		ldrb	r3, [r0]	@ zero_extendqisi2
 5731 1e54 040090E5 		ldr	r0, [r0, #4]	@ unaligned
 5732              	.LVL485:
 630:/home/hkh/git/eapidk-code-r76-trunk/apps/EeePProg/linux/../BinFuncs.c ****          ((uint64_t)pBuffer[1]<<(8*6)) |
 5733              		.loc 1 630 40 view .LVU1876
 5734 1e58 0C1481E1 		orr	r1, r1, ip, lsl #8
 5735 1e5c 021881E1 		orr	r1, r1, r2, lsl #16
 5736 1e60 300FBFE6 		rev	r0, r0
 5737 1e64 031C81E1 		orr	r1, r1, r3, lsl #24
 632:/home/hkh/git/eapidk-code-r76-trunk/apps/EeePProg/linux/../BinFuncs.c **** }
 5738              		.loc 1 632 1 view .LVU1877
 5739 1e68 C01F81E1 		orr	r1, r1, r0, asr #31
 5740 1e6c 1EFF2FE1 		bx	lr
 5741              		.cfi_endproc
 5742              	.LFE24:
 5744              		.align	2
 5745              		.global	EeeP_Set16BitValue_LE
 5746              		.syntax unified
 5747              		.arm
 5748              		.fpu vfpv3
 5750              	EeeP_Set16BitValue_LE:
 5751              	.LVL486:
 5752              	.LFB25:
 633:/home/hkh/git/eapidk-code-r76-trunk/apps/EeePProg/linux/../BinFuncs.c **** /*
 634:/home/hkh/git/eapidk-code-r76-trunk/apps/EeePProg/linux/../BinFuncs.c ****  * CPU Independent Multi Byte 
 635:/home/hkh/git/eapidk-code-r76-trunk/apps/EeePProg/linux/../BinFuncs.c ****  * Little Endian Memory Access
 636:/home/hkh/git/eapidk-code-r76-trunk/apps/EeePProg/linux/../BinFuncs.c ****  */
 637:/home/hkh/git/eapidk-code-r76-trunk/apps/EeePProg/linux/../BinFuncs.c **** void
 638:/home/hkh/git/eapidk-code-r76-trunk/apps/EeePProg/linux/../BinFuncs.c **** EeeP_Set16BitValue_LE(
 639:/home/hkh/git/eapidk-code-r76-trunk/apps/EeePProg/linux/../BinFuncs.c ****     uint8_t *pBuffer,
 640:/home/hkh/git/eapidk-code-r76-trunk/apps/EeePProg/linux/../BinFuncs.c ****     uint16_t Value
 641:/home/hkh/git/eapidk-code-r76-trunk/apps/EeePProg/linux/../BinFuncs.c ****      )
 642:/home/hkh/git/eapidk-code-r76-trunk/apps/EeePProg/linux/../BinFuncs.c **** {
 5753              		.loc 1 642 1 is_stmt 1 view -0
 5754              		.cfi_startproc
 5755              		@ args = 0, pretend = 0, frame = 0
 5756              		@ frame_needed = 0, uses_anonymous_args = 0
 5757              		@ link register save eliminated.
 643:/home/hkh/git/eapidk-code-r76-trunk/apps/EeePProg/linux/../BinFuncs.c ****   pBuffer[0]=EEEP_LO_UINT8(Value       );
 5758              		.loc 1 643 3 view .LVU1879
 644:/home/hkh/git/eapidk-code-r76-trunk/apps/EeePProg/linux/../BinFuncs.c ****   pBuffer[1]=EEEP_LO_UINT8(Value>>(8*1));
 5759              		.loc 1 644 14 is_stmt 0 view .LVU1880
 5760 1e70 2134A0E1 		lsr	r3, r1, #8
 643:/home/hkh/git/eapidk-code-r76-trunk/apps/EeePProg/linux/../BinFuncs.c ****   pBuffer[0]=EEEP_LO_UINT8(Value       );
 5761              		.loc 1 643 14 view .LVU1881
 5762 1e74 0010C0E5 		strb	r1, [r0]
 5763              		.loc 1 644 3 is_stmt 1 view .LVU1882
 5764              		.loc 1 644 14 is_stmt 0 view .LVU1883
 5765 1e78 0130C0E5 		strb	r3, [r0, #1]
 645:/home/hkh/git/eapidk-code-r76-trunk/apps/EeePProg/linux/../BinFuncs.c **** }
 5766              		.loc 1 645 1 view .LVU1884
 5767 1e7c 1EFF2FE1 		bx	lr
 5768              		.cfi_endproc
 5769              	.LFE25:
 5771              		.align	2
 5772              		.global	EeeP_Get16BitValue_LE
 5773              		.syntax unified
ARM GAS  /tmp/ccf3bFwG.s 			page 146


 5774              		.arm
 5775              		.fpu vfpv3
 5777              	EeeP_Get16BitValue_LE:
 5778              	.LVL487:
 5779              	.LFB26:
 646:/home/hkh/git/eapidk-code-r76-trunk/apps/EeePProg/linux/../BinFuncs.c **** uint16_t
 647:/home/hkh/git/eapidk-code-r76-trunk/apps/EeePProg/linux/../BinFuncs.c **** EeeP_Get16BitValue_LE(
 648:/home/hkh/git/eapidk-code-r76-trunk/apps/EeePProg/linux/../BinFuncs.c ****     const uint8_t *pBuffer
 649:/home/hkh/git/eapidk-code-r76-trunk/apps/EeePProg/linux/../BinFuncs.c ****      )
 650:/home/hkh/git/eapidk-code-r76-trunk/apps/EeePProg/linux/../BinFuncs.c **** {
 5780              		.loc 1 650 1 is_stmt 1 view -0
 5781              		.cfi_startproc
 5782              		@ args = 0, pretend = 0, frame = 0
 5783              		@ frame_needed = 0, uses_anonymous_args = 0
 5784              		@ link register save eliminated.
 651:/home/hkh/git/eapidk-code-r76-trunk/apps/EeePProg/linux/../BinFuncs.c ****   return (pBuffer[0]       ) |
 5785              		.loc 1 651 3 view .LVU1886
 652:/home/hkh/git/eapidk-code-r76-trunk/apps/EeePProg/linux/../BinFuncs.c ****          (pBuffer[1]<<(8*1)) ;
 653:/home/hkh/git/eapidk-code-r76-trunk/apps/EeePProg/linux/../BinFuncs.c **** }
 5786              		.loc 1 653 1 is_stmt 0 view .LVU1887
 5787 1e80 B000D0E1 		ldrh	r0, [r0]	@ unaligned
 5788              	.LVL488:
 5789              		.loc 1 653 1 view .LVU1888
 5790 1e84 1EFF2FE1 		bx	lr
 5791              		.cfi_endproc
 5792              	.LFE26:
 5794              		.align	2
 5795              		.global	EeeP_Set32BitValue_LE
 5796              		.syntax unified
 5797              		.arm
 5798              		.fpu vfpv3
 5800              	EeeP_Set32BitValue_LE:
 5801              	.LVL489:
 5802              	.LFB27:
 654:/home/hkh/git/eapidk-code-r76-trunk/apps/EeePProg/linux/../BinFuncs.c **** void
 655:/home/hkh/git/eapidk-code-r76-trunk/apps/EeePProg/linux/../BinFuncs.c **** EeeP_Set32BitValue_LE(
 656:/home/hkh/git/eapidk-code-r76-trunk/apps/EeePProg/linux/../BinFuncs.c ****     uint8_t *pBuffer,
 657:/home/hkh/git/eapidk-code-r76-trunk/apps/EeePProg/linux/../BinFuncs.c ****     uint32_t Value
 658:/home/hkh/git/eapidk-code-r76-trunk/apps/EeePProg/linux/../BinFuncs.c ****      )
 659:/home/hkh/git/eapidk-code-r76-trunk/apps/EeePProg/linux/../BinFuncs.c **** {
 5803              		.loc 1 659 1 is_stmt 1 view -0
 5804              		.cfi_startproc
 5805              		@ args = 0, pretend = 0, frame = 0
 5806              		@ frame_needed = 0, uses_anonymous_args = 0
 5807              		@ link register save eliminated.
 660:/home/hkh/git/eapidk-code-r76-trunk/apps/EeePProg/linux/../BinFuncs.c ****   pBuffer[0]=EEEP_LO_UINT8(Value       );
 5808              		.loc 1 660 3 view .LVU1890
 661:/home/hkh/git/eapidk-code-r76-trunk/apps/EeePProg/linux/../BinFuncs.c ****   pBuffer[1]=EEEP_LO_UINT8(Value>>(8*1));
 5809              		.loc 1 661 3 view .LVU1891
 662:/home/hkh/git/eapidk-code-r76-trunk/apps/EeePProg/linux/../BinFuncs.c ****   pBuffer[2]=EEEP_LO_UINT8(Value>>(8*2));
 5810              		.loc 1 662 3 view .LVU1892
 663:/home/hkh/git/eapidk-code-r76-trunk/apps/EeePProg/linux/../BinFuncs.c ****   pBuffer[3]=EEEP_LO_UINT8(Value>>(8*3));
 5811              		.loc 1 663 3 view .LVU1893
 660:/home/hkh/git/eapidk-code-r76-trunk/apps/EeePProg/linux/../BinFuncs.c ****   pBuffer[1]=EEEP_LO_UINT8(Value>>(8*1));
 5812              		.loc 1 660 13 is_stmt 0 view .LVU1894
 5813 1e88 001080E5 		str	r1, [r0]	@ unaligned
 664:/home/hkh/git/eapidk-code-r76-trunk/apps/EeePProg/linux/../BinFuncs.c **** }
ARM GAS  /tmp/ccf3bFwG.s 			page 147


 5814              		.loc 1 664 1 view .LVU1895
 5815 1e8c 1EFF2FE1 		bx	lr
 5816              		.cfi_endproc
 5817              	.LFE27:
 5819              		.align	2
 5820              		.global	EeeP_Get32BitValue_LE
 5821              		.syntax unified
 5822              		.arm
 5823              		.fpu vfpv3
 5825              	EeeP_Get32BitValue_LE:
 5826              	.LVL490:
 5827              	.LFB28:
 665:/home/hkh/git/eapidk-code-r76-trunk/apps/EeePProg/linux/../BinFuncs.c **** uint32_t
 666:/home/hkh/git/eapidk-code-r76-trunk/apps/EeePProg/linux/../BinFuncs.c **** EeeP_Get32BitValue_LE(
 667:/home/hkh/git/eapidk-code-r76-trunk/apps/EeePProg/linux/../BinFuncs.c ****     const uint8_t *pBuffer
 668:/home/hkh/git/eapidk-code-r76-trunk/apps/EeePProg/linux/../BinFuncs.c ****      )
 669:/home/hkh/git/eapidk-code-r76-trunk/apps/EeePProg/linux/../BinFuncs.c **** {
 5828              		.loc 1 669 1 is_stmt 1 view -0
 5829              		.cfi_startproc
 5830              		@ args = 0, pretend = 0, frame = 0
 5831              		@ frame_needed = 0, uses_anonymous_args = 0
 5832              		@ link register save eliminated.
 670:/home/hkh/git/eapidk-code-r76-trunk/apps/EeePProg/linux/../BinFuncs.c ****   return (pBuffer[0]       ) |
 5833              		.loc 1 670 3 view .LVU1897
 671:/home/hkh/git/eapidk-code-r76-trunk/apps/EeePProg/linux/../BinFuncs.c ****          (pBuffer[1]<<(8*1)) |
 672:/home/hkh/git/eapidk-code-r76-trunk/apps/EeePProg/linux/../BinFuncs.c ****          (pBuffer[2]<<(8*2)) |
 673:/home/hkh/git/eapidk-code-r76-trunk/apps/EeePProg/linux/../BinFuncs.c ****          (pBuffer[3]<<(8*3)) ;
 674:/home/hkh/git/eapidk-code-r76-trunk/apps/EeePProg/linux/../BinFuncs.c **** }
 5834              		.loc 1 674 1 is_stmt 0 view .LVU1898
 5835 1e90 000090E5 		ldr	r0, [r0]	@ unaligned
 5836              	.LVL491:
 5837              		.loc 1 674 1 view .LVU1899
 5838 1e94 1EFF2FE1 		bx	lr
 5839              		.cfi_endproc
 5840              	.LFE28:
 5842              		.align	2
 5843              		.global	EeeP_Set64BitValue_LE
 5844              		.syntax unified
 5845              		.arm
 5846              		.fpu vfpv3
 5848              	EeeP_Set64BitValue_LE:
 5849              	.LVL492:
 5850              	.LFB29:
 675:/home/hkh/git/eapidk-code-r76-trunk/apps/EeePProg/linux/../BinFuncs.c **** void
 676:/home/hkh/git/eapidk-code-r76-trunk/apps/EeePProg/linux/../BinFuncs.c **** EeeP_Set64BitValue_LE(
 677:/home/hkh/git/eapidk-code-r76-trunk/apps/EeePProg/linux/../BinFuncs.c ****     uint8_t *pBuffer,
 678:/home/hkh/git/eapidk-code-r76-trunk/apps/EeePProg/linux/../BinFuncs.c ****     uint64_t Value
 679:/home/hkh/git/eapidk-code-r76-trunk/apps/EeePProg/linux/../BinFuncs.c ****      )
 680:/home/hkh/git/eapidk-code-r76-trunk/apps/EeePProg/linux/../BinFuncs.c **** {
 5851              		.loc 1 680 1 is_stmt 1 view -0
 5852              		.cfi_startproc
 5853              		@ args = 0, pretend = 0, frame = 0
 5854              		@ frame_needed = 0, uses_anonymous_args = 0
 5855              		@ link register save eliminated.
 681:/home/hkh/git/eapidk-code-r76-trunk/apps/EeePProg/linux/../BinFuncs.c ****   pBuffer[0]=EEEP_LO_UINT8(Value       );
 5856              		.loc 1 681 3 view .LVU1901
 682:/home/hkh/git/eapidk-code-r76-trunk/apps/EeePProg/linux/../BinFuncs.c ****   pBuffer[1]=EEEP_LO_UINT8(Value>>(8*1));
ARM GAS  /tmp/ccf3bFwG.s 			page 148


 5857              		.loc 1 682 3 view .LVU1902
 683:/home/hkh/git/eapidk-code-r76-trunk/apps/EeePProg/linux/../BinFuncs.c ****   pBuffer[2]=EEEP_LO_UINT8(Value>>(8*2));
 5858              		.loc 1 683 3 view .LVU1903
 684:/home/hkh/git/eapidk-code-r76-trunk/apps/EeePProg/linux/../BinFuncs.c ****   pBuffer[3]=EEEP_LO_UINT8(Value>>(8*3));
 5859              		.loc 1 684 3 view .LVU1904
 685:/home/hkh/git/eapidk-code-r76-trunk/apps/EeePProg/linux/../BinFuncs.c ****   pBuffer[4]=EEEP_LO_UINT8(Value>>(8*4));
 5860              		.loc 1 685 3 view .LVU1905
 686:/home/hkh/git/eapidk-code-r76-trunk/apps/EeePProg/linux/../BinFuncs.c ****   pBuffer[5]=EEEP_LO_UINT8(Value>>(8*5));
 5861              		.loc 1 686 3 view .LVU1906
 687:/home/hkh/git/eapidk-code-r76-trunk/apps/EeePProg/linux/../BinFuncs.c ****   pBuffer[6]=EEEP_LO_UINT8(Value>>(8*6));
 5862              		.loc 1 687 3 view .LVU1907
 688:/home/hkh/git/eapidk-code-r76-trunk/apps/EeePProg/linux/../BinFuncs.c ****   pBuffer[7]=EEEP_LO_UINT8(Value>>(8*7));
 5863              		.loc 1 688 3 view .LVU1908
 686:/home/hkh/git/eapidk-code-r76-trunk/apps/EeePProg/linux/../BinFuncs.c ****   pBuffer[5]=EEEP_LO_UINT8(Value>>(8*5));
 5864              		.loc 1 686 14 is_stmt 0 view .LVU1909
 5865 1e98 23C4A0E1 		lsr	ip, r3, #8
 681:/home/hkh/git/eapidk-code-r76-trunk/apps/EeePProg/linux/../BinFuncs.c ****   pBuffer[1]=EEEP_LO_UINT8(Value>>(8*1));
 5866              		.loc 1 681 13 view .LVU1910
 5867 1e9c 0010A0E3 		mov	r1, #0
 5868 1ea0 1310C7E7 		bfi	r1, r3, #0, #8
 5869 1ea4 002080E5 		str	r2, [r0]	@ unaligned
 5870 1ea8 1C14CFE7 		bfi	r1, ip, #8, #8
 687:/home/hkh/git/eapidk-code-r76-trunk/apps/EeePProg/linux/../BinFuncs.c ****   pBuffer[6]=EEEP_LO_UINT8(Value>>(8*6));
 5871              		.loc 1 687 14 view .LVU1911
 5872 1eac 23C8A0E1 		lsr	ip, r3, #16
 5873              		.loc 1 688 14 view .LVU1912
 5874 1eb0 233CA0E1 		lsr	r3, r3, #24
 681:/home/hkh/git/eapidk-code-r76-trunk/apps/EeePProg/linux/../BinFuncs.c ****   pBuffer[1]=EEEP_LO_UINT8(Value>>(8*1));
 5875              		.loc 1 681 13 view .LVU1913
 5876 1eb4 1C18D7E7 		bfi	r1, ip, #16, #8
 5877 1eb8 131CDFE7 		bfi	r1, r3, #24, #8
 5878 1ebc 041080E5 		str	r1, [r0, #4]	@ unaligned
 689:/home/hkh/git/eapidk-code-r76-trunk/apps/EeePProg/linux/../BinFuncs.c **** }
 5879              		.loc 1 689 1 view .LVU1914
 5880 1ec0 1EFF2FE1 		bx	lr
 5881              		.cfi_endproc
 5882              	.LFE29:
 5884              		.align	2
 5885              		.global	EeeP_Get64BitValue_LE
 5886              		.syntax unified
 5887              		.arm
 5888              		.fpu vfpv3
 5890              	EeeP_Get64BitValue_LE:
 5891              	.LVL493:
 5892              	.LFB30:
 690:/home/hkh/git/eapidk-code-r76-trunk/apps/EeePProg/linux/../BinFuncs.c **** uint64_t
 691:/home/hkh/git/eapidk-code-r76-trunk/apps/EeePProg/linux/../BinFuncs.c **** EeeP_Get64BitValue_LE(
 692:/home/hkh/git/eapidk-code-r76-trunk/apps/EeePProg/linux/../BinFuncs.c ****     const uint8_t *pBuffer
 693:/home/hkh/git/eapidk-code-r76-trunk/apps/EeePProg/linux/../BinFuncs.c ****      )
 694:/home/hkh/git/eapidk-code-r76-trunk/apps/EeePProg/linux/../BinFuncs.c **** {
 5893              		.loc 1 694 1 is_stmt 1 view -0
 5894              		.cfi_startproc
 5895              		@ args = 0, pretend = 0, frame = 0
 5896              		@ frame_needed = 0, uses_anonymous_args = 0
 695:/home/hkh/git/eapidk-code-r76-trunk/apps/EeePProg/linux/../BinFuncs.c ****   return (pBuffer[0]       ) |
 5897              		.loc 1 695 3 view .LVU1916
 694:/home/hkh/git/eapidk-code-r76-trunk/apps/EeePProg/linux/../BinFuncs.c ****   return (pBuffer[0]       ) |
ARM GAS  /tmp/ccf3bFwG.s 			page 149


 5898              		.loc 1 694 1 is_stmt 0 view .LVU1917
 5899 1ec4 0020A0E1 		mov	r2, r0
 5900 1ec8 04E02DE5 		str	lr, [sp, #-4]!
 5901              		.cfi_def_cfa_offset 4
 5902              		.cfi_offset 14, -4
 696:/home/hkh/git/eapidk-code-r76-trunk/apps/EeePProg/linux/../BinFuncs.c ****          (pBuffer[1]<<(8*1)) |
 697:/home/hkh/git/eapidk-code-r76-trunk/apps/EeePProg/linux/../BinFuncs.c ****          (pBuffer[2]<<(8*2)) |
 5903              		.loc 1 697 30 view .LVU1918
 5904 1ecc 000090E5 		ldr	r0, [r0]	@ unaligned
 5905              	.LVL494:
 698:/home/hkh/git/eapidk-code-r76-trunk/apps/EeePProg/linux/../BinFuncs.c ****          (pBuffer[3]<<(8*3)) |
 699:/home/hkh/git/eapidk-code-r76-trunk/apps/EeePProg/linux/../BinFuncs.c ****          ((uint64_t)pBuffer[4]<<(8*4)) |
 5906              		.loc 1 699 11 view .LVU1919
 5907 1ed0 0430D2E5 		ldrb	r3, [r2, #4]	@ zero_extendqisi2
 700:/home/hkh/git/eapidk-code-r76-trunk/apps/EeePProg/linux/../BinFuncs.c ****          ((uint64_t)pBuffer[5]<<(8*5)) |
 5908              		.loc 1 700 11 view .LVU1920
 5909 1ed4 05E0D2E5 		ldrb	lr, [r2, #5]	@ zero_extendqisi2
 701:/home/hkh/git/eapidk-code-r76-trunk/apps/EeePProg/linux/../BinFuncs.c ****          ((uint64_t)pBuffer[6]<<(8*6)) |
 5910              		.loc 1 701 11 view .LVU1921
 5911 1ed8 06C0D2E5 		ldrb	ip, [r2, #6]	@ zero_extendqisi2
 702:/home/hkh/git/eapidk-code-r76-trunk/apps/EeePProg/linux/../BinFuncs.c ****          ((uint64_t)pBuffer[7]<<(8*7)) ;
 5912              		.loc 1 702 11 view .LVU1922
 5913 1edc 0710D2E5 		ldrb	r1, [r2, #7]	@ zero_extendqisi2
 701:/home/hkh/git/eapidk-code-r76-trunk/apps/EeePProg/linux/../BinFuncs.c ****          ((uint64_t)pBuffer[6]<<(8*6)) |
 5914              		.loc 1 701 40 view .LVU1923
 5915 1ee0 C03F83E1 		orr	r3, r3, r0, asr #31
 5916 1ee4 0E3483E1 		orr	r3, r3, lr, lsl #8
 5917 1ee8 0C3883E1 		orr	r3, r3, ip, lsl #16
 703:/home/hkh/git/eapidk-code-r76-trunk/apps/EeePProg/linux/../BinFuncs.c **** }
 5918              		.loc 1 703 1 view .LVU1924
 5919 1eec 011C83E1 		orr	r1, r3, r1, lsl #24
 5920 1ef0 04F09DE4 		ldr	pc, [sp], #4
 5921              		.cfi_endproc
 5922              	.LFE30:
 5924              		.global	CRC_CCITT
 5925              		.section	.data.rel.local,"aw"
 5926              		.align	2
 5929              	CRC_CCITT:
 5930 0000 00000000 		.word	u16CRC_CCITT_init
 5931 0004 00000000 		.word	u16CRC_CCITT_bytes
 5932 0008 00000000 		.word	u16CRC_CCITT_fini
 5933 000c 00000000 		.word	u16CRC_CCITT_verify
 5934 0010 02000000 		.word	2
 5935              		.text
 5936              	.Letext0:
 5937              		.file 2 "/home/hkh/buildroot-2022.02/output/host/arm-buildroot-linux-musleabihf/sysroot/usr/includ
 5938              		.file 3 "../../../include/EApi.h"
 5939              		.file 4 "../BinFuncs.h"
 5940              		.file 5 "/home/hkh/buildroot-2022.02/output/host/arm-buildroot-linux-musleabihf/sysroot/usr/includ
 5941              		.file 6 "../../include/EApiAHStr.h"
 5942              		.file 7 "/home/hkh/buildroot-2022.02/output/host/arm-buildroot-linux-musleabihf/sysroot/usr/includ
 5943              		.file 8 "/home/hkh/buildroot-2022.02/output/host/arm-buildroot-linux-musleabihf/sysroot/usr/includ
 5944              		.file 9 "../../include/DbgChk.h"
 5945              		.file 10 "<built-in>"
ARM GAS  /tmp/ccf3bFwG.s 			page 150


DEFINED SYMBOLS
                            *ABS*:0000000000000000 BinFuncs.c
     /tmp/ccf3bFwG.s:17     .rodata.str1.4:0000000000000000 $d
     /tmp/ccf3bFwG.s:18     .rodata.str1.4:0000000000000000 .LC0
     /tmp/ccf3bFwG.s:21     .rodata.str1.4:0000000000000014 .LC1
     /tmp/ccf3bFwG.s:25     .rodata.str1.4:000000000000005c .LC2
     /tmp/ccf3bFwG.s:28     .rodata.str1.4:0000000000000070 .LC3
     /tmp/ccf3bFwG.s:31     .text:0000000000000000 $a
     /tmp/ccf3bFwG.s:40     .text:0000000000000000 u16CRC_CCITT_bytes
     /tmp/ccf3bFwG.s:265    .text:00000000000000f4 $d
     /tmp/ccf3bFwG.s:276    .rodata.str1.4:0000000000000074 .LC4
     /tmp/ccf3bFwG.s:279    .rodata.str1.4:0000000000000088 .LC5
     /tmp/ccf3bFwG.s:282    .rodata.str1.4:000000000000009c .LC6
     /tmp/ccf3bFwG.s:285    .text:0000000000000104 $a
     /tmp/ccf3bFwG.s:291    .text:0000000000000104 u16CRC_CCITT_init
     /tmp/ccf3bFwG.s:423    .text:00000000000001b0 $d
     /tmp/ccf3bFwG.s:440    .rodata.str1.4:00000000000000ac .LC7
     /tmp/ccf3bFwG.s:443    .rodata.str1.4:00000000000000c0 .LC8
     /tmp/ccf3bFwG.s:446    .text:00000000000001d8 $a
     /tmp/ccf3bFwG.s:452    .text:00000000000001d8 u16CRC_CCITT_fini
     /tmp/ccf3bFwG.s:582    .text:000000000000025c $d
     /tmp/ccf3bFwG.s:591    .rodata.str1.4:00000000000000d4 .LC9
     /tmp/ccf3bFwG.s:594    .rodata.str1.4:00000000000000e8 .LC10
     /tmp/ccf3bFwG.s:597    .text:000000000000026c $a
     /tmp/ccf3bFwG.s:603    .text:000000000000026c u16CRC_CCITT_verify
     /tmp/ccf3bFwG.s:782    .text:0000000000000344 $d
     /tmp/ccf3bFwG.s:792    .text:0000000000000360 $a
     /tmp/ccf3bFwG.s:798    .text:0000000000000360 u32ChecksumBlock
     /tmp/ccf3bFwG.s:1124   .text:00000000000004e0 u16ChecksumBlock
     /tmp/ccf3bFwG.s:1482   .text:0000000000000664 u8ChecksumBlock
     /tmp/ccf3bFwG.s:1836   .rodata.str1.4:00000000000000fc .LC11
     /tmp/ccf3bFwG.s:1839   .rodata.str1.4:0000000000000100 .LC12
     /tmp/ccf3bFwG.s:1842   .rodata.str1.4:0000000000000120 .LC13
     /tmp/ccf3bFwG.s:1845   .rodata.str1.4:0000000000000154 .LC14
     /tmp/ccf3bFwG.s:1854   .text:00000000000007e8 u16CRC_CCITT
     /tmp/ccf3bFwG.s:2343   .text:00000000000009e0 $d
     /tmp/ccf3bFwG.s:2364   .text:0000000000000a28 $a
     /tmp/ccf3bFwG.s:2370   .text:0000000000000a28 cBin2Ascii
     /tmp/ccf3bFwG.s:2393   .rodata.str1.4:000000000000017c .LC15
     /tmp/ccf3bFwG.s:2402   .text:0000000000000a3c siBin2Ascii
     /tmp/ccf3bFwG.s:2516   .text:0000000000000adc $d
     /tmp/ccf3bFwG.s:2523   .rodata.str1.4:0000000000000184 .LC16
     /tmp/ccf3bFwG.s:2526   .rodata.str1.4:000000000000019c .LC17
     /tmp/ccf3bFwG.s:2529   .rodata.str1.4:00000000000001a4 .LC18
     /tmp/ccf3bFwG.s:2533   .rodata.str1.4:00000000000001cc .LC19
     /tmp/ccf3bFwG.s:2536   .rodata.str1.4:00000000000001d8 .LC20
     /tmp/ccf3bFwG.s:2539   .rodata.str1.4:00000000000001e0 .LC21
     /tmp/ccf3bFwG.s:2542   .rodata.str1.4:00000000000001e8 .LC22
     /tmp/ccf3bFwG.s:2545   .rodata.str1.4:00000000000001ec .LC23
     /tmp/ccf3bFwG.s:2548   .rodata.str1.4:00000000000001f0 .LC24
     /tmp/ccf3bFwG.s:2551   .rodata.str1.4:00000000000001f4 .LC25
     /tmp/ccf3bFwG.s:2554   .text:0000000000000ae4 $a
     /tmp/ccf3bFwG.s:2560   .text:0000000000000ae4 PrintHexAsciiTableEx
     /tmp/ccf3bFwG.s:3178   .text:0000000000000f40 $d
     /tmp/ccf3bFwG.s:3199   .text:0000000000000f88 $a
     /tmp/ccf3bFwG.s:3205   .text:0000000000000f88 PrintHexAsciiTable
     /tmp/ccf3bFwG.s:3641   .text:0000000000001240 $d
ARM GAS  /tmp/ccf3bFwG.s 			page 151


     /tmp/ccf3bFwG.s:3663   .rodata.str1.4:00000000000001fc .LC26
     /tmp/ccf3bFwG.s:3666   .rodata.str1.4:000000000000020c .LC27
     /tmp/ccf3bFwG.s:3669   .rodata.str1.4:0000000000000220 .LC28
     /tmp/ccf3bFwG.s:3672   .rodata.str1.4:0000000000000234 .LC29
     /tmp/ccf3bFwG.s:3675   .rodata.str1.4:000000000000024c .LC30
     /tmp/ccf3bFwG.s:3679   .text:0000000000001284 $a
     /tmp/ccf3bFwG.s:3685   .text:0000000000001284 LclWriteFile
     /tmp/ccf3bFwG.s:3944   .text:0000000000001400 $d
     /tmp/ccf3bFwG.s:3968   .rodata.str1.4:0000000000000298 .LC31
     /tmp/ccf3bFwG.s:3971   .rodata.str1.4:00000000000002a4 .LC32
     /tmp/ccf3bFwG.s:3974   .rodata.str1.4:00000000000002b8 .LC33
     /tmp/ccf3bFwG.s:3977   .rodata.str1.4:00000000000002cc .LC34
     /tmp/ccf3bFwG.s:3980   .text:000000000000144c $a
     /tmp/ccf3bFwG.s:3986   .text:000000000000144c LclReadFile
     /tmp/ccf3bFwG.s:4259   .text:00000000000015f8 $d
     /tmp/ccf3bFwG.s:4283   .rodata.str1.4:00000000000002e0 .LC35
     /tmp/ccf3bFwG.s:4286   .text:0000000000001644 $a
     /tmp/ccf3bFwG.s:4292   .text:0000000000001644 WriteBinaryFile
     /tmp/ccf3bFwG.s:4569   .text:00000000000017c4 $d
     /tmp/ccf3bFwG.s:4596   .rodata.str1.4:00000000000002e4 .LC36
     /tmp/ccf3bFwG.s:4599   .text:0000000000001814 $a
     /tmp/ccf3bFwG.s:4605   .text:0000000000001814 ReadBinaryFile
     /tmp/ccf3bFwG.s:4895   .text:00000000000019c0 $d
     /tmp/ccf3bFwG.s:4922   .rodata.str1.4:00000000000002e8 .LC37
     /tmp/ccf3bFwG.s:4925   .text:0000000000001a10 $a
     /tmp/ccf3bFwG.s:4931   .text:0000000000001a10 WriteTextFile
     /tmp/ccf3bFwG.s:5208   .text:0000000000001b90 $d
     /tmp/ccf3bFwG.s:5235   .rodata.str1.4:00000000000002ec .LC38
     /tmp/ccf3bFwG.s:5238   .text:0000000000001be0 $a
     /tmp/ccf3bFwG.s:5244   .text:0000000000001be0 ReadTextFile
     /tmp/ccf3bFwG.s:5534   .text:0000000000001d8c $d
     /tmp/ccf3bFwG.s:5559   .text:0000000000001ddc $a
     /tmp/ccf3bFwG.s:5565   .text:0000000000001ddc EeeP_Set16BitValue_BE
     /tmp/ccf3bFwG.s:5592   .text:0000000000001dec EeeP_Get16BitValue_BE
     /tmp/ccf3bFwG.s:5618   .text:0000000000001dfc EeeP_Set32BitValue_BE
     /tmp/ccf3bFwG.s:5645   .text:0000000000001e08 EeeP_Get32BitValue_BE
     /tmp/ccf3bFwG.s:5668   .text:0000000000001e14 EeeP_Set64BitValue_BE
     /tmp/ccf3bFwG.s:5714   .text:0000000000001e44 EeeP_Get64BitValue_BE
     /tmp/ccf3bFwG.s:5750   .text:0000000000001e70 EeeP_Set16BitValue_LE
     /tmp/ccf3bFwG.s:5777   .text:0000000000001e80 EeeP_Get16BitValue_LE
     /tmp/ccf3bFwG.s:5800   .text:0000000000001e88 EeeP_Set32BitValue_LE
     /tmp/ccf3bFwG.s:5825   .text:0000000000001e90 EeeP_Get32BitValue_LE
     /tmp/ccf3bFwG.s:5848   .text:0000000000001e98 EeeP_Set64BitValue_LE
     /tmp/ccf3bFwG.s:5890   .text:0000000000001ec4 EeeP_Get64BitValue_LE
     /tmp/ccf3bFwG.s:5929   .data.rel.local:0000000000000000 CRC_CCITT
     /tmp/ccf3bFwG.s:5926   .data.rel.local:0000000000000000 $d

UNDEFINED SYMBOLS
siFormattedMessage_SC
malloc
free
__stack_chk_fail
_GLOBAL_OFFSET_TABLE_
__stack_chk_guard
EApiSprintf
__aeabi_uidivmod
printf
ARM GAS  /tmp/ccf3bFwG.s 			page 152


putchar
fopen
fwrite
fclose
fseek
ftell
rewind
fread
