ARM GAS  /tmp/cc2djyQn.s 			page 1


   1              		.cpu cortex-a9
   2              		.eabi_attribute 28, 1
   3              		.eabi_attribute 20, 1
   4              		.eabi_attribute 21, 1
   5              		.eabi_attribute 23, 3
   6              		.eabi_attribute 24, 1
   7              		.eabi_attribute 25, 1
   8              		.eabi_attribute 26, 2
   9              		.eabi_attribute 30, 2
  10              		.eabi_attribute 34, 1
  11              		.eabi_attribute 18, 4
  12              		.file	"CfgPHelper.c"
  13              		.text
  14              	.Ltext0:
  15              		.cfi_sections	.debug_frame
  16              		.align	2
  17              		.global	No_Default_Txt
  18              		.arch armv7-a
  19              		.arch_extension mp
  20              		.arch_extension sec
  21              		.syntax unified
  22              		.arm
  23              		.fpu vfpv3
  25              	No_Default_Txt:
  26              	.LVL0:
  27              	.LFB1:
  28              		.file 1 "/home/hkh/git/eapidk-code-r76-trunk/apps/EeePProg/linux/../CfgPHelper.c"
   1:/home/hkh/git/eapidk-code-r76-trunk/apps/EeePProg/linux/../CfgPHelper.c **** /*
   2:/home/hkh/git/eapidk-code-r76-trunk/apps/EeePProg/linux/../CfgPHelper.c ****  *<KHeader>
   3:/home/hkh/git/eapidk-code-r76-trunk/apps/EeePProg/linux/../CfgPHelper.c ****  *+=========================================================================
   4:/home/hkh/git/eapidk-code-r76-trunk/apps/EeePProg/linux/../CfgPHelper.c ****  *I  Project Name: EApiDK Embedded Application Development Kit
   5:/home/hkh/git/eapidk-code-r76-trunk/apps/EeePProg/linux/../CfgPHelper.c ****  *+=========================================================================
   6:/home/hkh/git/eapidk-code-r76-trunk/apps/EeePProg/linux/../CfgPHelper.c ****  *I  $HeadURL: file:///svn/p/eapidk/code/trunk/apps/EeePProg/CfgPHelper.c $
   7:/home/hkh/git/eapidk-code-r76-trunk/apps/EeePProg/linux/../CfgPHelper.c ****  *+=========================================================================
   8:/home/hkh/git/eapidk-code-r76-trunk/apps/EeePProg/linux/../CfgPHelper.c ****  *I   Copyright: Copyright (c) 2002-2010, Kontron Embedded Modules GmbH
   9:/home/hkh/git/eapidk-code-r76-trunk/apps/EeePProg/linux/../CfgPHelper.c ****  *I      Author: John Kearney,                  John.Kearney@kontron.com
  10:/home/hkh/git/eapidk-code-r76-trunk/apps/EeePProg/linux/../CfgPHelper.c ****  *I
  11:/home/hkh/git/eapidk-code-r76-trunk/apps/EeePProg/linux/../CfgPHelper.c ****  *I     License: All rights reserved. This program and the accompanying 
  12:/home/hkh/git/eapidk-code-r76-trunk/apps/EeePProg/linux/../CfgPHelper.c ****  *I              materials are licensed and made available under the 
  13:/home/hkh/git/eapidk-code-r76-trunk/apps/EeePProg/linux/../CfgPHelper.c ****  *I              terms and conditions of the BSD License which 
  14:/home/hkh/git/eapidk-code-r76-trunk/apps/EeePProg/linux/../CfgPHelper.c ****  *I              accompanies this distribution. The full text of the 
  15:/home/hkh/git/eapidk-code-r76-trunk/apps/EeePProg/linux/../CfgPHelper.c ****  *I              license may be found at 
  16:/home/hkh/git/eapidk-code-r76-trunk/apps/EeePProg/linux/../CfgPHelper.c ****  *I              http://opensource.org/licenses/bsd-license.php
  17:/home/hkh/git/eapidk-code-r76-trunk/apps/EeePProg/linux/../CfgPHelper.c ****  *I              
  18:/home/hkh/git/eapidk-code-r76-trunk/apps/EeePProg/linux/../CfgPHelper.c ****  *I              THE PROGRAM IS DISTRIBUTED UNDER THE BSD LICENSE ON AN "
  19:/home/hkh/git/eapidk-code-r76-trunk/apps/EeePProg/linux/../CfgPHelper.c ****  *I              AS IS" BASIS, WITHOUT WARRANTIES OR REPRESENTATIONS OF 
  20:/home/hkh/git/eapidk-code-r76-trunk/apps/EeePProg/linux/../CfgPHelper.c ****  *I              ANY KIND, EITHER EXPRESS OR IMPLIED.
  21:/home/hkh/git/eapidk-code-r76-trunk/apps/EeePProg/linux/../CfgPHelper.c ****  *I
  22:/home/hkh/git/eapidk-code-r76-trunk/apps/EeePProg/linux/../CfgPHelper.c ****  *I Description: Auto Created for EApiValidateAPI.c
  23:/home/hkh/git/eapidk-code-r76-trunk/apps/EeePProg/linux/../CfgPHelper.c ****  *I
  24:/home/hkh/git/eapidk-code-r76-trunk/apps/EeePProg/linux/../CfgPHelper.c ****  *+-------------------------------------------------------------------------
  25:/home/hkh/git/eapidk-code-r76-trunk/apps/EeePProg/linux/../CfgPHelper.c ****  *I
  26:/home/hkh/git/eapidk-code-r76-trunk/apps/EeePProg/linux/../CfgPHelper.c ****  *I  File Name            : CfgPHelper.c
  27:/home/hkh/git/eapidk-code-r76-trunk/apps/EeePProg/linux/../CfgPHelper.c ****  *I  File Location        : apps\EeePProg
  28:/home/hkh/git/eapidk-code-r76-trunk/apps/EeePProg/linux/../CfgPHelper.c ****  *I  Last committed       : $Revision: 75 $
  29:/home/hkh/git/eapidk-code-r76-trunk/apps/EeePProg/linux/../CfgPHelper.c ****  *I  Last changed by      : $Author: dethrophes $
  30:/home/hkh/git/eapidk-code-r76-trunk/apps/EeePProg/linux/../CfgPHelper.c ****  *I  Last changed date    : $Date: 2010-06-28 23:50:38 +0000 (Mon, 28 Jun 2010) $
ARM GAS  /tmp/cc2djyQn.s 			page 2


  31:/home/hkh/git/eapidk-code-r76-trunk/apps/EeePProg/linux/../CfgPHelper.c ****  *I  ID                   : $Id: CfgPHelper.c 75 2010-06-28 23:50:38Z dethrophes $
  32:/home/hkh/git/eapidk-code-r76-trunk/apps/EeePProg/linux/../CfgPHelper.c ****  *I
  33:/home/hkh/git/eapidk-code-r76-trunk/apps/EeePProg/linux/../CfgPHelper.c ****  *+=========================================================================
  34:/home/hkh/git/eapidk-code-r76-trunk/apps/EeePProg/linux/../CfgPHelper.c ****  *</KHeader>
  35:/home/hkh/git/eapidk-code-r76-trunk/apps/EeePProg/linux/../CfgPHelper.c ****  */
  36:/home/hkh/git/eapidk-code-r76-trunk/apps/EeePProg/linux/../CfgPHelper.c ****   #include <EeePApp.h>
  37:/home/hkh/git/eapidk-code-r76-trunk/apps/EeePProg/linux/../CfgPHelper.c **** 
  38:/home/hkh/git/eapidk-code-r76-trunk/apps/EeePProg/linux/../CfgPHelper.c **** /*  */
  39:/home/hkh/git/eapidk-code-r76-trunk/apps/EeePProg/linux/../CfgPHelper.c **** 
  40:/home/hkh/git/eapidk-code-r76-trunk/apps/EeePProg/linux/../CfgPHelper.c **** Handlers_t  String_Element_funcs  ={ String_Element  , Dealloc_Element  , String_Help       , No_De
  41:/home/hkh/git/eapidk-code-r76-trunk/apps/EeePProg/linux/../CfgPHelper.c **** Handlers_t  Number_Element_funcs  ={ Number_Element  , GenClear_Element , Range_List_Help   , Range
  42:/home/hkh/git/eapidk-code-r76-trunk/apps/EeePProg/linux/../CfgPHelper.c **** Handlers_t  Size_Element_funcs    ={ Size_Element    , GenClear_Element , Range_List_Help   , Range
  43:/home/hkh/git/eapidk-code-r76-trunk/apps/EeePProg/linux/../CfgPHelper.c **** Handlers_t  TokenNum_Element_funcs={ TokenNum_Element, GenClear_Element , TokenNum_List_Help, Token
  44:/home/hkh/git/eapidk-code-r76-trunk/apps/EeePProg/linux/../CfgPHelper.c **** Handlers_t  Token_Element_funcs   ={ Token_Element   , GenClear_Element , Token_List_Help   , Token
  45:/home/hkh/git/eapidk-code-r76-trunk/apps/EeePProg/linux/../CfgPHelper.c **** Handlers_t  SpecRev_Element_funcs ={ SpecRev_Element , GenClear_Element , SpecRev_Help      , No_De
  46:/home/hkh/git/eapidk-code-r76-trunk/apps/EeePProg/linux/../CfgPHelper.c **** Handlers_t  PNPID_Element_funcs   ={ PNPID_Element   , GenClear_Element , PNPID_Help        , No_De
  47:/home/hkh/git/eapidk-code-r76-trunk/apps/EeePProg/linux/../CfgPHelper.c **** Handlers_t  I2C_EEPROM_Addr_funcs ={ I2C_EEPROM_Addr , GenClear_Element , I2C_EEPROM_Help   , No_De
  48:/home/hkh/git/eapidk-code-r76-trunk/apps/EeePProg/linux/../CfgPHelper.c **** Handlers_t  GUID_Element_funcs    ={ GUID_Element    , GenClear_Element , GUID_Help         , GUID_
  49:/home/hkh/git/eapidk-code-r76-trunk/apps/EeePProg/linux/../CfgPHelper.c **** 
  50:/home/hkh/git/eapidk-code-r76-trunk/apps/EeePProg/linux/../CfgPHelper.c **** /*
  51:/home/hkh/git/eapidk-code-r76-trunk/apps/EeePProg/linux/../CfgPHelper.c ****  *
  52:/home/hkh/git/eapidk-code-r76-trunk/apps/EeePProg/linux/../CfgPHelper.c ****  *  Default Text Functions
  53:/home/hkh/git/eapidk-code-r76-trunk/apps/EeePProg/linux/../CfgPHelper.c ****  *
  54:/home/hkh/git/eapidk-code-r76-trunk/apps/EeePProg/linux/../CfgPHelper.c ****  *
  55:/home/hkh/git/eapidk-code-r76-trunk/apps/EeePProg/linux/../CfgPHelper.c ****  */
  56:/home/hkh/git/eapidk-code-r76-trunk/apps/EeePProg/linux/../CfgPHelper.c **** EApiStatus_t                                    
  57:/home/hkh/git/eapidk-code-r76-trunk/apps/EeePProg/linux/../CfgPHelper.c **** No_Default_Txt(
  58:/home/hkh/git/eapidk-code-r76-trunk/apps/EeePProg/linux/../CfgPHelper.c ****     struct  CfgElementDesc_s *pElementDesc,
  59:/home/hkh/git/eapidk-code-r76-trunk/apps/EeePProg/linux/../CfgPHelper.c ****     FILE * stream ,
  60:/home/hkh/git/eapidk-code-r76-trunk/apps/EeePProg/linux/../CfgPHelper.c ****     __IN  unsigned int uiCount
  61:/home/hkh/git/eapidk-code-r76-trunk/apps/EeePProg/linux/../CfgPHelper.c ****   )
  62:/home/hkh/git/eapidk-code-r76-trunk/apps/EeePProg/linux/../CfgPHelper.c **** { 
  29              		.loc 1 62 1 view -0
  30              		.cfi_startproc
  31              		@ args = 0, pretend = 0, frame = 0
  32              		@ frame_needed = 0, uses_anonymous_args = 0
  33              		@ link register save eliminated.
  63:/home/hkh/git/eapidk-code-r76-trunk/apps/EeePProg/linux/../CfgPHelper.c ****   pElementDesc=pElementDesc;
  34              		.loc 1 63 3 view .LVU1
  64:/home/hkh/git/eapidk-code-r76-trunk/apps/EeePProg/linux/../CfgPHelper.c ****   stream=stream;
  35              		.loc 1 64 3 view .LVU2
  65:/home/hkh/git/eapidk-code-r76-trunk/apps/EeePProg/linux/../CfgPHelper.c ****   uiCount=uiCount;
  36              		.loc 1 65 3 view .LVU3
  66:/home/hkh/git/eapidk-code-r76-trunk/apps/EeePProg/linux/../CfgPHelper.c ****   return EAPI_STATUS_SUCCESS;
  37              		.loc 1 66 3 view .LVU4
  67:/home/hkh/git/eapidk-code-r76-trunk/apps/EeePProg/linux/../CfgPHelper.c **** }
  38              		.loc 1 67 1 is_stmt 0 view .LVU5
  39 0000 0000A0E3 		mov	r0, #0
  40              	.LVL1:
  41              		.loc 1 67 1 view .LVU6
  42 0004 1EFF2FE1 		bx	lr
  43              		.cfi_endproc
  44              	.LFE1:
  46              		.align	2
  47              		.global	Token_List_Default
  48              		.syntax unified
  49              		.arm
ARM GAS  /tmp/cc2djyQn.s 			page 3


  50              		.fpu vfpv3
  52              	Token_List_Default:
  53              	.LVL2:
  54              	.LFB3:
  68:/home/hkh/git/eapidk-code-r76-trunk/apps/EeePProg/linux/../CfgPHelper.c **** 
  69:/home/hkh/git/eapidk-code-r76-trunk/apps/EeePProg/linux/../CfgPHelper.c **** 
  70:/home/hkh/git/eapidk-code-r76-trunk/apps/EeePProg/linux/../CfgPHelper.c **** EApiStatus_t                                    
  71:/home/hkh/git/eapidk-code-r76-trunk/apps/EeePProg/linux/../CfgPHelper.c **** TokenNum_List_Default(
  72:/home/hkh/git/eapidk-code-r76-trunk/apps/EeePProg/linux/../CfgPHelper.c ****     __IN  struct  CfgElementDesc_s *pElementDesc,
  73:/home/hkh/git/eapidk-code-r76-trunk/apps/EeePProg/linux/../CfgPHelper.c ****     __IN  FILE * stream ,
  74:/home/hkh/git/eapidk-code-r76-trunk/apps/EeePProg/linux/../CfgPHelper.c ****     __IN  unsigned int uiCount
  75:/home/hkh/git/eapidk-code-r76-trunk/apps/EeePProg/linux/../CfgPHelper.c ****   )
  76:/home/hkh/git/eapidk-code-r76-trunk/apps/EeePProg/linux/../CfgPHelper.c **** { 
  77:/home/hkh/git/eapidk-code-r76-trunk/apps/EeePProg/linux/../CfgPHelper.c ****   EApiStatus_t StatusCode=EAPI_STATUS_SUCCESS;
  78:/home/hkh/git/eapidk-code-r76-trunk/apps/EeePProg/linux/../CfgPHelper.c ****   struct  CfgElementDesc_s LclElementDesc=*pElementDesc;
  79:/home/hkh/git/eapidk-code-r76-trunk/apps/EeePProg/linux/../CfgPHelper.c **** 
  80:/home/hkh/git/eapidk-code-r76-trunk/apps/EeePProg/linux/../CfgPHelper.c ****   if(((TokenNumDesc_t*)pElementDesc->pExtraInfo)->pTokens){
  81:/home/hkh/git/eapidk-code-r76-trunk/apps/EeePProg/linux/../CfgPHelper.c ****     LclElementDesc.pExtraInfo=((TokenNumDesc_t*)pElementDesc->pExtraInfo)->pTokens;
  82:/home/hkh/git/eapidk-code-r76-trunk/apps/EeePProg/linux/../CfgPHelper.c ****     DO(Token_List_Default(&LclElementDesc, stream, uiCount));
  83:/home/hkh/git/eapidk-code-r76-trunk/apps/EeePProg/linux/../CfgPHelper.c ****   }else{
  84:/home/hkh/git/eapidk-code-r76-trunk/apps/EeePProg/linux/../CfgPHelper.c ****     LclElementDesc.pExtraInfo=((TokenNumDesc_t*)pElementDesc->pExtraInfo)->pRange;
  85:/home/hkh/git/eapidk-code-r76-trunk/apps/EeePProg/linux/../CfgPHelper.c ****     DO(Range_Default_Txt(&LclElementDesc, stream, uiCount));
  86:/home/hkh/git/eapidk-code-r76-trunk/apps/EeePProg/linux/../CfgPHelper.c ****   }
  87:/home/hkh/git/eapidk-code-r76-trunk/apps/EeePProg/linux/../CfgPHelper.c **** EAPI_APP_ASSERT_EXIT
  88:/home/hkh/git/eapidk-code-r76-trunk/apps/EeePProg/linux/../CfgPHelper.c ****   return StatusCode;
  89:/home/hkh/git/eapidk-code-r76-trunk/apps/EeePProg/linux/../CfgPHelper.c **** }
  90:/home/hkh/git/eapidk-code-r76-trunk/apps/EeePProg/linux/../CfgPHelper.c **** EApiStatus_t                                    
  91:/home/hkh/git/eapidk-code-r76-trunk/apps/EeePProg/linux/../CfgPHelper.c **** Token_List_Default(
  92:/home/hkh/git/eapidk-code-r76-trunk/apps/EeePProg/linux/../CfgPHelper.c ****     struct  CfgElementDesc_s *pElementDesc,
  93:/home/hkh/git/eapidk-code-r76-trunk/apps/EeePProg/linux/../CfgPHelper.c ****     FILE * stream ,
  94:/home/hkh/git/eapidk-code-r76-trunk/apps/EeePProg/linux/../CfgPHelper.c ****     __IN  unsigned int uiCount
  95:/home/hkh/git/eapidk-code-r76-trunk/apps/EeePProg/linux/../CfgPHelper.c ****   )
  96:/home/hkh/git/eapidk-code-r76-trunk/apps/EeePProg/linux/../CfgPHelper.c **** { 
  55              		.loc 1 96 1 is_stmt 1 view -0
  56              		.cfi_startproc
  57              		@ args = 0, pretend = 0, frame = 0
  58              		@ frame_needed = 0, uses_anonymous_args = 0
  97:/home/hkh/git/eapidk-code-r76-trunk/apps/EeePProg/linux/../CfgPHelper.c ****   TokenDesc_t *pTokens;
  59              		.loc 1 97 3 view .LVU8
  98:/home/hkh/git/eapidk-code-r76-trunk/apps/EeePProg/linux/../CfgPHelper.c ****   uiCount=uiCount;
  60              		.loc 1 98 3 view .LVU9
  99:/home/hkh/git/eapidk-code-r76-trunk/apps/EeePProg/linux/../CfgPHelper.c ****   pTokens=((TokenListDesc_t*)pElementDesc->pExtraInfo)->pTokenList; 
  61              		.loc 1 99 3 view .LVU10
 100:/home/hkh/git/eapidk-code-r76-trunk/apps/EeePProg/linux/../CfgPHelper.c ****   fprintf(stream, "%s", pTokens->pszTokenList);
  62              		.loc 1 100 3 view .LVU11
  99:/home/hkh/git/eapidk-code-r76-trunk/apps/EeePProg/linux/../CfgPHelper.c ****   pTokens=((TokenListDesc_t*)pElementDesc->pExtraInfo)->pTokenList; 
  63              		.loc 1 99 10 is_stmt 0 view .LVU12
  64 0008 343090E5 		ldr	r3, [r0, #52]
  96:/home/hkh/git/eapidk-code-r76-trunk/apps/EeePProg/linux/../CfgPHelper.c ****   TokenDesc_t *pTokens;
  65              		.loc 1 96 1 view .LVU13
  66 000c 10402DE9 		push	{r4, lr}
  67              		.cfi_def_cfa_offset 8
  68              		.cfi_offset 4, -8
  69              		.cfi_offset 14, -4
  70              		.loc 1 100 3 view .LVU14
  71 0010 043093E5 		ldr	r3, [r3, #4]
  72 0014 000093E5 		ldr	r0, [r3]
ARM GAS  /tmp/cc2djyQn.s 			page 4


  73              	.LVL3:
  74              		.loc 1 100 3 view .LVU15
  75 0018 FEFFFFEB 		bl	fputs(PLT)
  76              	.LVL4:
 101:/home/hkh/git/eapidk-code-r76-trunk/apps/EeePProg/linux/../CfgPHelper.c ****   return EAPI_STATUS_SUCCESS;
  77              		.loc 1 101 3 is_stmt 1 view .LVU16
 102:/home/hkh/git/eapidk-code-r76-trunk/apps/EeePProg/linux/../CfgPHelper.c **** }
  78              		.loc 1 102 1 is_stmt 0 view .LVU17
  79 001c 0000A0E3 		mov	r0, #0
  80 0020 1080BDE8 		pop	{r4, pc}
  81              		.cfi_endproc
  82              	.LFE3:
  84              		.section	.rodata.str1.4,"aMS",%progbits,1
  85              		.align	2
  86              	.LC0:
  87 0000 30782530 		.ascii	"0x%02X\000"
  87      325800
  88              		.text
  89              		.align	2
  90              		.global	Range_Default_Txt
  91              		.syntax unified
  92              		.arm
  93              		.fpu vfpv3
  95              	Range_Default_Txt:
  96              	.LVL5:
  97              	.LFB4:
 103:/home/hkh/git/eapidk-code-r76-trunk/apps/EeePProg/linux/../CfgPHelper.c **** 
 104:/home/hkh/git/eapidk-code-r76-trunk/apps/EeePProg/linux/../CfgPHelper.c **** 
 105:/home/hkh/git/eapidk-code-r76-trunk/apps/EeePProg/linux/../CfgPHelper.c **** EApiStatus_t                                    
 106:/home/hkh/git/eapidk-code-r76-trunk/apps/EeePProg/linux/../CfgPHelper.c **** Range_Default_Txt(
 107:/home/hkh/git/eapidk-code-r76-trunk/apps/EeePProg/linux/../CfgPHelper.c ****     struct  CfgElementDesc_s *pElementDesc,
 108:/home/hkh/git/eapidk-code-r76-trunk/apps/EeePProg/linux/../CfgPHelper.c ****     FILE * stream ,
 109:/home/hkh/git/eapidk-code-r76-trunk/apps/EeePProg/linux/../CfgPHelper.c ****     __IN  unsigned int uiCount
 110:/home/hkh/git/eapidk-code-r76-trunk/apps/EeePProg/linux/../CfgPHelper.c ****   )
 111:/home/hkh/git/eapidk-code-r76-trunk/apps/EeePProg/linux/../CfgPHelper.c **** { 
  98              		.loc 1 111 1 is_stmt 1 view -0
  99              		.cfi_startproc
 100              		@ args = 0, pretend = 0, frame = 0
 101              		@ frame_needed = 0, uses_anonymous_args = 0
 112:/home/hkh/git/eapidk-code-r76-trunk/apps/EeePProg/linux/../CfgPHelper.c ****   NumberRangeDesc_t *pRange=pElementDesc->pExtraInfo;
 102              		.loc 1 112 3 view .LVU19
 113:/home/hkh/git/eapidk-code-r76-trunk/apps/EeePProg/linux/../CfgPHelper.c ****   uiCount=uiCount;
 103              		.loc 1 113 3 view .LVU20
 114:/home/hkh/git/eapidk-code-r76-trunk/apps/EeePProg/linux/../CfgPHelper.c ****   fprintf(
 104              		.loc 1 114 3 view .LVU21
 115:/home/hkh/git/eapidk-code-r76-trunk/apps/EeePProg/linux/../CfgPHelper.c ****       stream, 
 116:/home/hkh/git/eapidk-code-r76-trunk/apps/EeePProg/linux/../CfgPHelper.c ****       "0x%02X", 
 117:/home/hkh/git/eapidk-code-r76-trunk/apps/EeePProg/linux/../CfgPHelper.c ****       pRange->pNumberRange->uiLowerLimit
 105              		.loc 1 117 13 is_stmt 0 view .LVU22
 106 0024 343090E5 		ldr	r3, [r0, #52]
 111:/home/hkh/git/eapidk-code-r76-trunk/apps/EeePProg/linux/../CfgPHelper.c ****   NumberRangeDesc_t *pRange=pElementDesc->pExtraInfo;
 107              		.loc 1 111 1 view .LVU23
 108 0028 0120A0E1 		mov	r2, r1
 109              	.LVL6:
 114:/home/hkh/git/eapidk-code-r76-trunk/apps/EeePProg/linux/../CfgPHelper.c ****   fprintf(
 110              		.loc 1 114 3 view .LVU24
 111 002c 1C109FE5 		ldr	r1, .L7
ARM GAS  /tmp/cc2djyQn.s 			page 5


 112              	.LVL7:
 114:/home/hkh/git/eapidk-code-r76-trunk/apps/EeePProg/linux/../CfgPHelper.c ****   fprintf(
 113              		.loc 1 114 3 view .LVU25
 114 0030 0200A0E1 		mov	r0, r2
 115              	.LVL8:
 111:/home/hkh/git/eapidk-code-r76-trunk/apps/EeePProg/linux/../CfgPHelper.c ****   NumberRangeDesc_t *pRange=pElementDesc->pExtraInfo;
 116              		.loc 1 111 1 view .LVU26
 117 0034 10402DE9 		push	{r4, lr}
 118              		.cfi_def_cfa_offset 8
 119              		.cfi_offset 4, -8
 120              		.cfi_offset 14, -4
 114:/home/hkh/git/eapidk-code-r76-trunk/apps/EeePProg/linux/../CfgPHelper.c ****   fprintf(
 121              		.loc 1 114 3 view .LVU27
 122 0038 043093E5 		ldr	r3, [r3, #4]
 123              	.LVL9:
 114:/home/hkh/git/eapidk-code-r76-trunk/apps/EeePProg/linux/../CfgPHelper.c ****   fprintf(
 124              		.loc 1 114 3 view .LVU28
 125              	.LPIC0:
 126 003c 01108FE0 		add	r1, pc, r1
 127 0040 002093E5 		ldr	r2, [r3]
 128              	.LVL10:
 114:/home/hkh/git/eapidk-code-r76-trunk/apps/EeePProg/linux/../CfgPHelper.c ****   fprintf(
 129              		.loc 1 114 3 view .LVU29
 130 0044 FEFFFFEB 		bl	fprintf(PLT)
 131              	.LVL11:
 118:/home/hkh/git/eapidk-code-r76-trunk/apps/EeePProg/linux/../CfgPHelper.c ****     );
 119:/home/hkh/git/eapidk-code-r76-trunk/apps/EeePProg/linux/../CfgPHelper.c ****   return EAPI_STATUS_SUCCESS;
 132              		.loc 1 119 3 is_stmt 1 view .LVU30
 120:/home/hkh/git/eapidk-code-r76-trunk/apps/EeePProg/linux/../CfgPHelper.c **** }
 133              		.loc 1 120 1 is_stmt 0 view .LVU31
 134 0048 0000A0E3 		mov	r0, #0
 135 004c 1080BDE8 		pop	{r4, pc}
 136              	.L8:
 137              		.align	2
 138              	.L7:
 139 0050 0C000000 		.word	.LC0-(.LPIC0+8)
 140              		.cfi_endproc
 141              	.LFE4:
 143              		.align	2
 144              		.global	TokenNum_List_Default
 145              		.syntax unified
 146              		.arm
 147              		.fpu vfpv3
 149              	TokenNum_List_Default:
 150              	.LVL12:
 151              	.LFB2:
  76:/home/hkh/git/eapidk-code-r76-trunk/apps/EeePProg/linux/../CfgPHelper.c ****   EApiStatus_t StatusCode=EAPI_STATUS_SUCCESS;
 152              		.loc 1 76 1 is_stmt 1 view -0
 153              		.cfi_startproc
 154              		@ args = 0, pretend = 0, frame = 0
 155              		@ frame_needed = 0, uses_anonymous_args = 0
  77:/home/hkh/git/eapidk-code-r76-trunk/apps/EeePProg/linux/../CfgPHelper.c ****   struct  CfgElementDesc_s LclElementDesc=*pElementDesc;
 156              		.loc 1 77 3 view .LVU33
  78:/home/hkh/git/eapidk-code-r76-trunk/apps/EeePProg/linux/../CfgPHelper.c **** 
 157              		.loc 1 78 3 view .LVU34
  78:/home/hkh/git/eapidk-code-r76-trunk/apps/EeePProg/linux/../CfgPHelper.c **** 
 158              		.loc 1 78 28 is_stmt 0 view .LVU35
ARM GAS  /tmp/cc2djyQn.s 			page 6


 159 0054 342090E5 		ldr	r2, [r0, #52]
 160              	.LVL13:
  80:/home/hkh/git/eapidk-code-r76-trunk/apps/EeePProg/linux/../CfgPHelper.c ****     LclElementDesc.pExtraInfo=((TokenNumDesc_t*)pElementDesc->pExtraInfo)->pTokens;
 161              		.loc 1 80 3 is_stmt 1 view .LVU36
  76:/home/hkh/git/eapidk-code-r76-trunk/apps/EeePProg/linux/../CfgPHelper.c ****   EApiStatus_t StatusCode=EAPI_STATUS_SUCCESS;
 162              		.loc 1 76 1 is_stmt 0 view .LVU37
 163 0058 10402DE9 		push	{r4, lr}
 164              		.cfi_def_cfa_offset 8
 165              		.cfi_offset 4, -8
 166              		.cfi_offset 14, -4
  80:/home/hkh/git/eapidk-code-r76-trunk/apps/EeePProg/linux/../CfgPHelper.c ****     LclElementDesc.pExtraInfo=((TokenNumDesc_t*)pElementDesc->pExtraInfo)->pTokens;
 167              		.loc 1 80 49 view .LVU38
 168 005c 003092E5 		ldr	r3, [r2]
  80:/home/hkh/git/eapidk-code-r76-trunk/apps/EeePProg/linux/../CfgPHelper.c ****     LclElementDesc.pExtraInfo=((TokenNumDesc_t*)pElementDesc->pExtraInfo)->pTokens;
 169              		.loc 1 80 5 view .LVU39
 170 0060 000053E3 		cmp	r3, #0
 171 0064 0400000A 		beq	.L10
 172              	.L11:
  81:/home/hkh/git/eapidk-code-r76-trunk/apps/EeePProg/linux/../CfgPHelper.c ****     DO(Token_List_Default(&LclElementDesc, stream, uiCount));
 173              		.loc 1 81 5 is_stmt 1 view .LVU40
  82:/home/hkh/git/eapidk-code-r76-trunk/apps/EeePProg/linux/../CfgPHelper.c ****   }else{
 174              		.loc 1 82 5 view .LVU41
  82:/home/hkh/git/eapidk-code-r76-trunk/apps/EeePProg/linux/../CfgPHelper.c ****   }else{
 175              		.loc 1 82 5 view .LVU42
 176              	.LVL14:
 177              	.LBB6:
 178              	.LBI6:
  91:/home/hkh/git/eapidk-code-r76-trunk/apps/EeePProg/linux/../CfgPHelper.c ****     struct  CfgElementDesc_s *pElementDesc,
 179              		.loc 1 91 1 view .LVU43
 180              	.LBB7:
  97:/home/hkh/git/eapidk-code-r76-trunk/apps/EeePProg/linux/../CfgPHelper.c ****   uiCount=uiCount;
 181              		.loc 1 97 3 view .LVU44
  98:/home/hkh/git/eapidk-code-r76-trunk/apps/EeePProg/linux/../CfgPHelper.c ****   pTokens=((TokenListDesc_t*)pElementDesc->pExtraInfo)->pTokenList; 
 182              		.loc 1 98 3 view .LVU45
  99:/home/hkh/git/eapidk-code-r76-trunk/apps/EeePProg/linux/../CfgPHelper.c ****   fprintf(stream, "%s", pTokens->pszTokenList);
 183              		.loc 1 99 3 view .LVU46
 100:/home/hkh/git/eapidk-code-r76-trunk/apps/EeePProg/linux/../CfgPHelper.c ****   return EAPI_STATUS_SUCCESS;
 184              		.loc 1 100 3 view .LVU47
 185 0068 043093E5 		ldr	r3, [r3, #4]
 186              	.LVL15:
 100:/home/hkh/git/eapidk-code-r76-trunk/apps/EeePProg/linux/../CfgPHelper.c ****   return EAPI_STATUS_SUCCESS;
 187              		.loc 1 100 3 is_stmt 0 view .LVU48
 188 006c 000093E5 		ldr	r0, [r3]
 189              	.LVL16:
 100:/home/hkh/git/eapidk-code-r76-trunk/apps/EeePProg/linux/../CfgPHelper.c ****   return EAPI_STATUS_SUCCESS;
 190              		.loc 1 100 3 view .LVU49
 191 0070 FEFFFFEB 		bl	fputs(PLT)
 192              	.LVL17:
 101:/home/hkh/git/eapidk-code-r76-trunk/apps/EeePProg/linux/../CfgPHelper.c **** }
 193              		.loc 1 101 3 is_stmt 1 view .LVU50
 101:/home/hkh/git/eapidk-code-r76-trunk/apps/EeePProg/linux/../CfgPHelper.c **** }
 194              		.loc 1 101 3 is_stmt 0 view .LVU51
 195              	.LBE7:
 196              	.LBE6:
  82:/home/hkh/git/eapidk-code-r76-trunk/apps/EeePProg/linux/../CfgPHelper.c ****   }else{
 197              		.loc 1 82 5 is_stmt 1 view .LVU52
  85:/home/hkh/git/eapidk-code-r76-trunk/apps/EeePProg/linux/../CfgPHelper.c ****   }
ARM GAS  /tmp/cc2djyQn.s 			page 7


 198              		.loc 1 85 5 view .LVU53
  88:/home/hkh/git/eapidk-code-r76-trunk/apps/EeePProg/linux/../CfgPHelper.c **** }
 199              		.loc 1 88 3 view .LVU54
  89:/home/hkh/git/eapidk-code-r76-trunk/apps/EeePProg/linux/../CfgPHelper.c **** EApiStatus_t                                    
 200              		.loc 1 89 1 is_stmt 0 view .LVU55
 201 0074 0000A0E3 		mov	r0, #0
 202 0078 1080BDE8 		pop	{r4, pc}
 203              	.LVL18:
 204              	.L10:
  84:/home/hkh/git/eapidk-code-r76-trunk/apps/EeePProg/linux/../CfgPHelper.c ****     DO(Range_Default_Txt(&LclElementDesc, stream, uiCount));
 205              		.loc 1 84 5 is_stmt 1 view .LVU56
  85:/home/hkh/git/eapidk-code-r76-trunk/apps/EeePProg/linux/../CfgPHelper.c ****   }
 206              		.loc 1 85 5 view .LVU57
  85:/home/hkh/git/eapidk-code-r76-trunk/apps/EeePProg/linux/../CfgPHelper.c ****   }
 207              		.loc 1 85 5 view .LVU58
 208              	.LBB8:
 209              	.LBI8:
 106:/home/hkh/git/eapidk-code-r76-trunk/apps/EeePProg/linux/../CfgPHelper.c ****     struct  CfgElementDesc_s *pElementDesc,
 210              		.loc 1 106 1 view .LVU59
 211              	.LBB9:
 112:/home/hkh/git/eapidk-code-r76-trunk/apps/EeePProg/linux/../CfgPHelper.c ****   uiCount=uiCount;
 212              		.loc 1 112 3 view .LVU60
 113:/home/hkh/git/eapidk-code-r76-trunk/apps/EeePProg/linux/../CfgPHelper.c ****   fprintf(
 213              		.loc 1 113 3 view .LVU61
 114:/home/hkh/git/eapidk-code-r76-trunk/apps/EeePProg/linux/../CfgPHelper.c ****       stream, 
 214              		.loc 1 114 3 view .LVU62
 117:/home/hkh/git/eapidk-code-r76-trunk/apps/EeePProg/linux/../CfgPHelper.c ****     );
 215              		.loc 1 117 13 is_stmt 0 view .LVU63
 216 007c 043092E5 		ldr	r3, [r2, #4]
 217 0080 0100A0E1 		mov	r0, r1
 218              	.LVL19:
 114:/home/hkh/git/eapidk-code-r76-trunk/apps/EeePProg/linux/../CfgPHelper.c ****       stream, 
 219              		.loc 1 114 3 view .LVU64
 220 0084 14109FE5 		ldr	r1, .L13
 221              	.LVL20:
 114:/home/hkh/git/eapidk-code-r76-trunk/apps/EeePProg/linux/../CfgPHelper.c ****       stream, 
 222              		.loc 1 114 3 view .LVU65
 223 0088 043093E5 		ldr	r3, [r3, #4]
 224              	.LPIC1:
 225 008c 01108FE0 		add	r1, pc, r1
 226 0090 002093E5 		ldr	r2, [r3]
 227              	.LVL21:
 114:/home/hkh/git/eapidk-code-r76-trunk/apps/EeePProg/linux/../CfgPHelper.c ****       stream, 
 228              		.loc 1 114 3 view .LVU66
 229 0094 FEFFFFEB 		bl	fprintf(PLT)
 230              	.LVL22:
 119:/home/hkh/git/eapidk-code-r76-trunk/apps/EeePProg/linux/../CfgPHelper.c **** }
 231              		.loc 1 119 3 is_stmt 1 view .LVU67
 119:/home/hkh/git/eapidk-code-r76-trunk/apps/EeePProg/linux/../CfgPHelper.c **** }
 232              		.loc 1 119 3 is_stmt 0 view .LVU68
 233              	.LBE9:
 234              	.LBE8:
  85:/home/hkh/git/eapidk-code-r76-trunk/apps/EeePProg/linux/../CfgPHelper.c ****   }
 235              		.loc 1 85 5 is_stmt 1 view .LVU69
  85:/home/hkh/git/eapidk-code-r76-trunk/apps/EeePProg/linux/../CfgPHelper.c ****   }
 236              		.loc 1 85 5 view .LVU70
  88:/home/hkh/git/eapidk-code-r76-trunk/apps/EeePProg/linux/../CfgPHelper.c **** }
ARM GAS  /tmp/cc2djyQn.s 			page 8


 237              		.loc 1 88 3 view .LVU71
  89:/home/hkh/git/eapidk-code-r76-trunk/apps/EeePProg/linux/../CfgPHelper.c **** EApiStatus_t                                    
 238              		.loc 1 89 1 is_stmt 0 view .LVU72
 239 0098 0000A0E3 		mov	r0, #0
 240 009c 1080BDE8 		pop	{r4, pc}
 241              	.L14:
 242              		.align	2
 243              	.L13:
 244 00a0 0C000000 		.word	.LC0-(.LPIC1+8)
 245              		.cfi_endproc
 246              	.LFE2:
 248              		.section	.rodata.str1.4
 249 0007 00       		.align	2
 250              	.LC1:
 251 0008 46464646 		.ascii	"FFFFFFFF-FFFF-FFFF-FFFF-FFFFFFFFFFFF\000"
 251      46464646 
 251      2D464646 
 251      462D4646 
 251      46462D46 
 252              		.text
 253              		.align	2
 254              		.global	GUID_Default
 255              		.syntax unified
 256              		.arm
 257              		.fpu vfpv3
 259              	GUID_Default:
 260              	.LVL23:
 261              	.LFB5:
 121:/home/hkh/git/eapidk-code-r76-trunk/apps/EeePProg/linux/../CfgPHelper.c **** 
 122:/home/hkh/git/eapidk-code-r76-trunk/apps/EeePProg/linux/../CfgPHelper.c **** EApiStatus_t                                    
 123:/home/hkh/git/eapidk-code-r76-trunk/apps/EeePProg/linux/../CfgPHelper.c **** GUID_Default(
 124:/home/hkh/git/eapidk-code-r76-trunk/apps/EeePProg/linux/../CfgPHelper.c ****     struct  CfgElementDesc_s *pElementDesc,
 125:/home/hkh/git/eapidk-code-r76-trunk/apps/EeePProg/linux/../CfgPHelper.c ****     FILE * stream ,
 126:/home/hkh/git/eapidk-code-r76-trunk/apps/EeePProg/linux/../CfgPHelper.c ****     __IN  unsigned int uiCount
 127:/home/hkh/git/eapidk-code-r76-trunk/apps/EeePProg/linux/../CfgPHelper.c ****   )
 128:/home/hkh/git/eapidk-code-r76-trunk/apps/EeePProg/linux/../CfgPHelper.c **** { 
 262              		.loc 1 128 1 is_stmt 1 view -0
 263              		.cfi_startproc
 264              		@ args = 0, pretend = 0, frame = 0
 265              		@ frame_needed = 0, uses_anonymous_args = 0
 129:/home/hkh/git/eapidk-code-r76-trunk/apps/EeePProg/linux/../CfgPHelper.c ****   uiCount=uiCount;
 266              		.loc 1 129 3 view .LVU74
 130:/home/hkh/git/eapidk-code-r76-trunk/apps/EeePProg/linux/../CfgPHelper.c ****   pElementDesc=pElementDesc;
 267              		.loc 1 130 3 view .LVU75
 131:/home/hkh/git/eapidk-code-r76-trunk/apps/EeePProg/linux/../CfgPHelper.c ****   fprintf(stream, "FFFFFFFF-FFFF-FFFF-FFFF-FFFFFFFFFFFF");
 268              		.loc 1 131 3 view .LVU76
 269 00a4 1C009FE5 		ldr	r0, .L17
 270              	.LVL24:
 128:/home/hkh/git/eapidk-code-r76-trunk/apps/EeePProg/linux/../CfgPHelper.c ****   uiCount=uiCount;
 271              		.loc 1 128 1 is_stmt 0 view .LVU77
 272 00a8 0130A0E1 		mov	r3, r1
 273              		.loc 1 131 3 view .LVU78
 274 00ac 2420A0E3 		mov	r2, #36
 275              	.LVL25:
 276              		.loc 1 131 3 view .LVU79
 277 00b0 0110A0E3 		mov	r1, #1
 278              	.LVL26:
ARM GAS  /tmp/cc2djyQn.s 			page 9


 128:/home/hkh/git/eapidk-code-r76-trunk/apps/EeePProg/linux/../CfgPHelper.c ****   uiCount=uiCount;
 279              		.loc 1 128 1 view .LVU80
 280 00b4 10402DE9 		push	{r4, lr}
 281              		.cfi_def_cfa_offset 8
 282              		.cfi_offset 4, -8
 283              		.cfi_offset 14, -4
 284              		.loc 1 131 3 view .LVU81
 285              	.LPIC2:
 286 00b8 00008FE0 		add	r0, pc, r0
 287 00bc FEFFFFEB 		bl	fwrite(PLT)
 288              	.LVL27:
 132:/home/hkh/git/eapidk-code-r76-trunk/apps/EeePProg/linux/../CfgPHelper.c ****   return EAPI_STATUS_SUCCESS;
 289              		.loc 1 132 3 is_stmt 1 view .LVU82
 133:/home/hkh/git/eapidk-code-r76-trunk/apps/EeePProg/linux/../CfgPHelper.c **** }
 290              		.loc 1 133 1 is_stmt 0 view .LVU83
 291 00c0 0000A0E3 		mov	r0, #0
 292 00c4 1080BDE8 		pop	{r4, pc}
 293              	.L18:
 294              		.align	2
 295              	.L17:
 296 00c8 08000000 		.word	.LC1-(.LPIC2+8)
 297              		.cfi_endproc
 298              	.LFE5:
 300              		.section	.rodata.str1.4
 301 002d 000000   		.align	2
 302              	.LC2:
 303 0030 47656E65 		.ascii	"Generic String\000"
 303      72696320 
 303      53747269 
 303      6E6700
 304 003f 00       		.align	2
 305              	.LC3:
 306 0040 25730A00 		.ascii	"%s\012\000"
 307              		.align	2
 308              	.LC4:
 309 0044 2020204D 		.ascii	"   Max Length %u\012\000"
 309      6178204C 
 309      656E6774 
 309      68202575 
 309      0A00
 310 0056 0000     		.align	2
 311              	.LC5:
 312 0058 2020204D 		.ascii	"   Min Length %u\012\000"
 312      696E204C 
 312      656E6774 
 312      68202575 
 312      0A00
 313 006a 0000     		.align	2
 314              	.LC6:
 315 006c 20202054 		.ascii	"   Trailing spaces %s\012\000"
 315      7261696C 
 315      696E6720 
 315      73706163 
 315      65732025 
 316              		.text
 317              		.align	2
 318              		.global	String_Help
ARM GAS  /tmp/cc2djyQn.s 			page 10


 319              		.syntax unified
 320              		.arm
 321              		.fpu vfpv3
 323              	String_Help:
 324              	.LVL28:
 325              	.LFB6:
 134:/home/hkh/git/eapidk-code-r76-trunk/apps/EeePProg/linux/../CfgPHelper.c **** 
 135:/home/hkh/git/eapidk-code-r76-trunk/apps/EeePProg/linux/../CfgPHelper.c **** /*
 136:/home/hkh/git/eapidk-code-r76-trunk/apps/EeePProg/linux/../CfgPHelper.c ****  *
 137:/home/hkh/git/eapidk-code-r76-trunk/apps/EeePProg/linux/../CfgPHelper.c ****  *  HELP Functions
 138:/home/hkh/git/eapidk-code-r76-trunk/apps/EeePProg/linux/../CfgPHelper.c ****  *
 139:/home/hkh/git/eapidk-code-r76-trunk/apps/EeePProg/linux/../CfgPHelper.c ****  *
 140:/home/hkh/git/eapidk-code-r76-trunk/apps/EeePProg/linux/../CfgPHelper.c ****  */
 141:/home/hkh/git/eapidk-code-r76-trunk/apps/EeePProg/linux/../CfgPHelper.c **** const char *DeletePreserve[]={
 142:/home/hkh/git/eapidk-code-r76-trunk/apps/EeePProg/linux/../CfgPHelper.c ****   "Deleted",
 143:/home/hkh/git/eapidk-code-r76-trunk/apps/EeePProg/linux/../CfgPHelper.c ****   "Preserved"
 144:/home/hkh/git/eapidk-code-r76-trunk/apps/EeePProg/linux/../CfgPHelper.c **** };
 145:/home/hkh/git/eapidk-code-r76-trunk/apps/EeePProg/linux/../CfgPHelper.c **** EApiStatus_t                                    
 146:/home/hkh/git/eapidk-code-r76-trunk/apps/EeePProg/linux/../CfgPHelper.c **** String_Help(
 147:/home/hkh/git/eapidk-code-r76-trunk/apps/EeePProg/linux/../CfgPHelper.c ****     __IN  struct CfgElementDesc_s *pElementDesc, 
 148:/home/hkh/git/eapidk-code-r76-trunk/apps/EeePProg/linux/../CfgPHelper.c ****     __OUT char *szHelpBuf, 
 149:/home/hkh/git/eapidk-code-r76-trunk/apps/EeePProg/linux/../CfgPHelper.c ****     __IN  size_t stHBufLen 
 150:/home/hkh/git/eapidk-code-r76-trunk/apps/EeePProg/linux/../CfgPHelper.c ****   )
 151:/home/hkh/git/eapidk-code-r76-trunk/apps/EeePProg/linux/../CfgPHelper.c **** { 
 326              		.loc 1 151 1 is_stmt 1 view -0
 327              		.cfi_startproc
 328              		@ args = 0, pretend = 0, frame = 0
 329              		@ frame_needed = 0, uses_anonymous_args = 0
 152:/home/hkh/git/eapidk-code-r76-trunk/apps/EeePProg/linux/../CfgPHelper.c ****   StringDesc_t *pStringDesc=pElementDesc->pExtraInfo; 
 330              		.loc 1 152 3 view .LVU85
 151:/home/hkh/git/eapidk-code-r76-trunk/apps/EeePProg/linux/../CfgPHelper.c ****   StringDesc_t *pStringDesc=pElementDesc->pExtraInfo; 
 331              		.loc 1 151 1 is_stmt 0 view .LVU86
 332 00cc F0412DE9 		push	{r4, r5, r6, r7, r8, lr}
 333              		.cfi_def_cfa_offset 24
 334              		.cfi_offset 4, -24
 335              		.cfi_offset 5, -20
 336              		.cfi_offset 6, -16
 337              		.cfi_offset 7, -12
 338              		.cfi_offset 8, -8
 339              		.cfi_offset 14, -4
 151:/home/hkh/git/eapidk-code-r76-trunk/apps/EeePProg/linux/../CfgPHelper.c ****   StringDesc_t *pStringDesc=pElementDesc->pExtraInfo; 
 340              		.loc 1 151 1 view .LVU87
 341 00d0 0260A0E1 		mov	r6, r2
 153:/home/hkh/git/eapidk-code-r76-trunk/apps/EeePProg/linux/../CfgPHelper.c ****   int len=0;
 154:/home/hkh/git/eapidk-code-r76-trunk/apps/EeePProg/linux/../CfgPHelper.c ****   len+=EApiSprintfA(szHelpBuf + len, stHBufLen - len, 
 342              		.loc 1 154 8 view .LVU88
 343 00d4 B0309FE5 		ldr	r3, .L35
 151:/home/hkh/git/eapidk-code-r76-trunk/apps/EeePProg/linux/../CfgPHelper.c ****   StringDesc_t *pStringDesc=pElementDesc->pExtraInfo; 
 344              		.loc 1 151 1 view .LVU89
 345 00d8 0150A0E1 		mov	r5, r1
 346              		.loc 1 154 8 view .LVU90
 347 00dc 0610A0E1 		mov	r1, r6
 348              	.LVL29:
 349              		.loc 1 154 8 view .LVU91
 350 00e0 A8209FE5 		ldr	r2, .L35+4
 351              	.LVL30:
 152:/home/hkh/git/eapidk-code-r76-trunk/apps/EeePProg/linux/../CfgPHelper.c ****   int len=0;
ARM GAS  /tmp/cc2djyQn.s 			page 11


 352              		.loc 1 152 17 view .LVU92
 353 00e4 347090E5 		ldr	r7, [r0, #52]
 354              	.LVL31:
 153:/home/hkh/git/eapidk-code-r76-trunk/apps/EeePProg/linux/../CfgPHelper.c ****   int len=0;
 355              		.loc 1 153 3 is_stmt 1 view .LVU93
 356              		.loc 1 154 3 view .LVU94
 357              		.loc 1 154 8 is_stmt 0 view .LVU95
 358              	.LPIC3:
 359 00e8 03308FE0 		add	r3, pc, r3
 360 00ec 0500A0E1 		mov	r0, r5
 361              	.LVL32:
 362              		.loc 1 154 8 view .LVU96
 363              	.LPIC4:
 364 00f0 02208FE0 		add	r2, pc, r2
 365 00f4 FEFFFFEB 		bl	EApiSprintfA(PLT)
 366              	.LVL33:
 155:/home/hkh/git/eapidk-code-r76-trunk/apps/EeePProg/linux/../CfgPHelper.c **** 		  "%s\n", "Generic String");
 156:/home/hkh/git/eapidk-code-r76-trunk/apps/EeePProg/linux/../CfgPHelper.c ****   if(pStringDesc!=NULL){
 367              		.loc 1 156 5 view .LVU97
 368 00f8 000057E3 		cmp	r7, #0
 369              	.LVL34:
 370              		.loc 1 156 3 is_stmt 1 view .LVU98
 371              		.loc 1 156 5 is_stmt 0 view .LVU99
 372 00fc 0F00000A 		beq	.L20
 157:/home/hkh/git/eapidk-code-r76-trunk/apps/EeePProg/linux/../CfgPHelper.c ****     if(pStringDesc->uiMaxLength){
 373              		.loc 1 157 19 view .LVU100
 374 0100 043097E5 		ldr	r3, [r7, #4]
 375 0104 0040A0E1 		mov	r4, r0
 376              		.loc 1 157 5 is_stmt 1 view .LVU101
 377              		.loc 1 157 7 is_stmt 0 view .LVU102
 378 0108 000053E3 		cmp	r3, #0
 379 010c 1400001A 		bne	.L33
 158:/home/hkh/git/eapidk-code-r76-trunk/apps/EeePProg/linux/../CfgPHelper.c **** 	len+=EApiSprintfA(szHelpBuf + len, stHBufLen - len, 
 159:/home/hkh/git/eapidk-code-r76-trunk/apps/EeePProg/linux/../CfgPHelper.c **** 			"   Max Length %u\n", pStringDesc->uiMaxLength);
 160:/home/hkh/git/eapidk-code-r76-trunk/apps/EeePProg/linux/../CfgPHelper.c ****     }
 161:/home/hkh/git/eapidk-code-r76-trunk/apps/EeePProg/linux/../CfgPHelper.c ****     if(pStringDesc->uiMinLength){
 380              		.loc 1 161 5 is_stmt 1 view .LVU103
 381              		.loc 1 161 19 is_stmt 0 view .LVU104
 382 0110 003097E5 		ldr	r3, [r7]
 383              		.loc 1 161 7 view .LVU105
 384 0114 000053E3 		cmp	r3, #0
 385 0118 0A00001A 		bne	.L34
 386              	.LVL35:
 387              	.L22:
 162:/home/hkh/git/eapidk-code-r76-trunk/apps/EeePProg/linux/../CfgPHelper.c **** 	len+=EApiSprintfA(szHelpBuf + len, stHBufLen - len, 
 163:/home/hkh/git/eapidk-code-r76-trunk/apps/EeePProg/linux/../CfgPHelper.c **** 		"   Min Length %u\n", pStringDesc->uiMinLength);
 164:/home/hkh/git/eapidk-code-r76-trunk/apps/EeePProg/linux/../CfgPHelper.c ****     }
 165:/home/hkh/git/eapidk-code-r76-trunk/apps/EeePProg/linux/../CfgPHelper.c ****     len+=EApiSprintfA(szHelpBuf + len, stHBufLen - len, 
 388              		.loc 1 165 5 is_stmt 1 view .LVU106
 389              		.loc 1 165 10 is_stmt 0 view .LVU107
 390 011c 70309FE5 		ldr	r3, .L35+8
 391 0120 041046E0 		sub	r1, r6, r4
 392 0124 082097E5 		ldr	r2, [r7, #8]
 393 0128 040085E0 		add	r0, r5, r4
 394              	.LPIC7:
 395 012c 03308FE0 		add	r3, pc, r3
 396 0130 023193E7 		ldr	r3, [r3, r2, lsl #2]
ARM GAS  /tmp/cc2djyQn.s 			page 12


 397 0134 5C209FE5 		ldr	r2, .L35+12
 398              	.LPIC8:
 399 0138 02208FE0 		add	r2, pc, r2
 400 013c FEFFFFEB 		bl	EApiSprintfA(PLT)
 401              	.LVL36:
 402              	.L20:
 166:/home/hkh/git/eapidk-code-r76-trunk/apps/EeePProg/linux/../CfgPHelper.c **** 		"   Trailing spaces %s\n", DeletePreserve[pStringDesc->uiPreserveTrailingSpaces]);
 167:/home/hkh/git/eapidk-code-r76-trunk/apps/EeePProg/linux/../CfgPHelper.c ****   }
 168:/home/hkh/git/eapidk-code-r76-trunk/apps/EeePProg/linux/../CfgPHelper.c ****   return EAPI_STATUS_SUCCESS;
 403              		.loc 1 168 3 is_stmt 1 view .LVU108
 169:/home/hkh/git/eapidk-code-r76-trunk/apps/EeePProg/linux/../CfgPHelper.c **** }
 404              		.loc 1 169 1 is_stmt 0 view .LVU109
 405 0140 0000A0E3 		mov	r0, #0
 406 0144 F081BDE8 		pop	{r4, r5, r6, r7, r8, pc}
 407              	.LVL37:
 408              	.L34:
 162:/home/hkh/git/eapidk-code-r76-trunk/apps/EeePProg/linux/../CfgPHelper.c **** 	len+=EApiSprintfA(szHelpBuf + len, stHBufLen - len, 
 409              		.loc 1 162 2 is_stmt 1 view .LVU110
 162:/home/hkh/git/eapidk-code-r76-trunk/apps/EeePProg/linux/../CfgPHelper.c **** 	len+=EApiSprintfA(szHelpBuf + len, stHBufLen - len, 
 410              		.loc 1 162 7 is_stmt 0 view .LVU111
 411 0148 4C209FE5 		ldr	r2, .L35+16
 412 014c 041046E0 		sub	r1, r6, r4
 413 0150 040085E0 		add	r0, r5, r4
 414              	.LPIC6:
 415 0154 02208FE0 		add	r2, pc, r2
 416 0158 FEFFFFEB 		bl	EApiSprintfA(PLT)
 417              	.LVL38:
 162:/home/hkh/git/eapidk-code-r76-trunk/apps/EeePProg/linux/../CfgPHelper.c **** 	len+=EApiSprintfA(szHelpBuf + len, stHBufLen - len, 
 418              		.loc 1 162 5 view .LVU112
 419 015c 004084E0 		add	r4, r4, r0
 420              	.LVL39:
 162:/home/hkh/git/eapidk-code-r76-trunk/apps/EeePProg/linux/../CfgPHelper.c **** 	len+=EApiSprintfA(szHelpBuf + len, stHBufLen - len, 
 421              		.loc 1 162 5 view .LVU113
 422 0160 EDFFFFEA 		b	.L22
 423              	.LVL40:
 424              	.L33:
 158:/home/hkh/git/eapidk-code-r76-trunk/apps/EeePProg/linux/../CfgPHelper.c **** 			"   Max Length %u\n", pStringDesc->uiMaxLength);
 425              		.loc 1 158 2 is_stmt 1 view .LVU114
 158:/home/hkh/git/eapidk-code-r76-trunk/apps/EeePProg/linux/../CfgPHelper.c **** 			"   Max Length %u\n", pStringDesc->uiMaxLength);
 426              		.loc 1 158 7 is_stmt 0 view .LVU115
 427 0164 34209FE5 		ldr	r2, .L35+20
 428 0168 001046E0 		sub	r1, r6, r0
 429 016c 000085E0 		add	r0, r5, r0
 430              	.LVL41:
 158:/home/hkh/git/eapidk-code-r76-trunk/apps/EeePProg/linux/../CfgPHelper.c **** 			"   Max Length %u\n", pStringDesc->uiMaxLength);
 431              		.loc 1 158 7 view .LVU116
 432              	.LPIC5:
 433 0170 02208FE0 		add	r2, pc, r2
 434 0174 FEFFFFEB 		bl	EApiSprintfA(PLT)
 435              	.LVL42:
 161:/home/hkh/git/eapidk-code-r76-trunk/apps/EeePProg/linux/../CfgPHelper.c **** 	len+=EApiSprintfA(szHelpBuf + len, stHBufLen - len, 
 436              		.loc 1 161 19 view .LVU117
 437 0178 003097E5 		ldr	r3, [r7]
 158:/home/hkh/git/eapidk-code-r76-trunk/apps/EeePProg/linux/../CfgPHelper.c **** 			"   Max Length %u\n", pStringDesc->uiMaxLength);
 438              		.loc 1 158 5 view .LVU118
 439 017c 004084E0 		add	r4, r4, r0
 440              	.LVL43:
ARM GAS  /tmp/cc2djyQn.s 			page 13


 161:/home/hkh/git/eapidk-code-r76-trunk/apps/EeePProg/linux/../CfgPHelper.c **** 	len+=EApiSprintfA(szHelpBuf + len, stHBufLen - len, 
 441              		.loc 1 161 5 is_stmt 1 view .LVU119
 161:/home/hkh/git/eapidk-code-r76-trunk/apps/EeePProg/linux/../CfgPHelper.c **** 	len+=EApiSprintfA(szHelpBuf + len, stHBufLen - len, 
 442              		.loc 1 161 7 is_stmt 0 view .LVU120
 443 0180 000053E3 		cmp	r3, #0
 444 0184 E4FFFF0A 		beq	.L22
 445 0188 EEFFFFEA 		b	.L34
 446              	.L36:
 447              		.align	2
 448              	.L35:
 449 018c 9C000000 		.word	.LC2-(.LPIC3+8)
 450 0190 98000000 		.word	.LC3-(.LPIC4+8)
 451 0194 60000000 		.word	.LANCHOR0-(.LPIC7+8)
 452 0198 58000000 		.word	.LC6-(.LPIC8+8)
 453 019c 40000000 		.word	.LC5-(.LPIC6+8)
 454 01a0 28000000 		.word	.LC4-(.LPIC5+8)
 455              		.cfi_endproc
 456              	.LFE6:
 458              		.section	.rodata.str1.4
 459 0083 00       		.align	2
 460              	.LC7:
 461 0084 47656E65 		.ascii	"Generic Number\000"
 461      72696320 
 461      4E756D62 
 461      657200
 462 0093 00       		.align	2
 463              	.LC8:
 464 0094 4D656574 		.ascii	"Meeting one of the following conditions\000"
 464      696E6720 
 464      6F6E6520 
 464      6F662074 
 464      68652066 
 465              		.align	2
 466              	.LC9:
 467 00bc 4D656574 		.ascii	"Meeting the following condition\000"
 467      696E6720 
 467      74686520 
 467      666F6C6C 
 467      6F77696E 
 468              		.align	2
 469              	.LC10:
 470 00dc 09204E75 		.ascii	"\011 Number == %8u(0x%04X)\012\000"
 470      6D626572 
 470      203D3D20 
 470      25387528 
 470      30782530 
 471 00f5 000000   		.align	2
 472              	.LC11:
 473 00f8 09202538 		.ascii	"\011 %8u(0x%04X) <= Number <= %8u(0x%04X)\012\000"
 473      75283078 
 473      25303458 
 473      29203C3D 
 473      204E756D 
 474              		.align	2
 475              	.LC12:
 476 0120 09204E75 		.ascii	"\011 Number < %8u(0x%04X) || %8u(0x%04X) < Number\012"
 476      6D626572 
ARM GAS  /tmp/cc2djyQn.s 			page 14


 476      203C2025 
 476      38752830 
 476      78253034 
 477 014f 00       		.ascii	"\000"
 478              		.text
 479              		.align	2
 480              		.global	Range_List_Help
 481              		.syntax unified
 482              		.arm
 483              		.fpu vfpv3
 485              	Range_List_Help:
 486              	.LVL44:
 487              	.LFB7:
 170:/home/hkh/git/eapidk-code-r76-trunk/apps/EeePProg/linux/../CfgPHelper.c **** EApiStatus_t
 171:/home/hkh/git/eapidk-code-r76-trunk/apps/EeePProg/linux/../CfgPHelper.c **** Range_List_Help(
 172:/home/hkh/git/eapidk-code-r76-trunk/apps/EeePProg/linux/../CfgPHelper.c ****     __IN  struct CfgElementDesc_s *pElementDesc, 
 173:/home/hkh/git/eapidk-code-r76-trunk/apps/EeePProg/linux/../CfgPHelper.c ****     __OUT char *szHelpBuf, 
 174:/home/hkh/git/eapidk-code-r76-trunk/apps/EeePProg/linux/../CfgPHelper.c ****     __IN  size_t stHBufLen 
 175:/home/hkh/git/eapidk-code-r76-trunk/apps/EeePProg/linux/../CfgPHelper.c ****   )
 176:/home/hkh/git/eapidk-code-r76-trunk/apps/EeePProg/linux/../CfgPHelper.c **** { 
 488              		.loc 1 176 1 is_stmt 1 view -0
 489              		.cfi_startproc
 490              		@ args = 0, pretend = 0, frame = 0
 491              		@ frame_needed = 0, uses_anonymous_args = 0
 177:/home/hkh/git/eapidk-code-r76-trunk/apps/EeePProg/linux/../CfgPHelper.c ****   NumberRange_t *pNumRange;
 492              		.loc 1 177 3 view .LVU122
 178:/home/hkh/git/eapidk-code-r76-trunk/apps/EeePProg/linux/../CfgPHelper.c ****   size_t stRangeCnt;
 493              		.loc 1 178 3 view .LVU123
 179:/home/hkh/git/eapidk-code-r76-trunk/apps/EeePProg/linux/../CfgPHelper.c ****   int len=0;
 494              		.loc 1 179 3 view .LVU124
 180:/home/hkh/git/eapidk-code-r76-trunk/apps/EeePProg/linux/../CfgPHelper.c ****   len=EApiSprintfA(szHelpBuf + len, stHBufLen - len, 
 495              		.loc 1 180 3 view .LVU125
 176:/home/hkh/git/eapidk-code-r76-trunk/apps/EeePProg/linux/../CfgPHelper.c ****   NumberRange_t *pNumRange;
 496              		.loc 1 176 1 is_stmt 0 view .LVU126
 497 01a4 F04F2DE9 		push	{r4, r5, r6, r7, r8, r9, r10, fp, lr}
 498              		.cfi_def_cfa_offset 36
 499              		.cfi_offset 4, -36
 500              		.cfi_offset 5, -32
 501              		.cfi_offset 6, -28
 502              		.cfi_offset 7, -24
 503              		.cfi_offset 8, -20
 504              		.cfi_offset 9, -16
 505              		.cfi_offset 10, -12
 506              		.cfi_offset 11, -8
 507              		.cfi_offset 14, -4
 508 01a8 0170A0E1 		mov	r7, r1
 509              		.loc 1 180 7 view .LVU127
 510 01ac 44919FE5 		ldr	r9, .L54
 176:/home/hkh/git/eapidk-code-r76-trunk/apps/EeePProg/linux/../CfgPHelper.c ****   NumberRange_t *pNumRange;
 511              		.loc 1 176 1 view .LVU128
 512 01b0 0280A0E1 		mov	r8, r2
 513 01b4 0040A0E1 		mov	r4, r0
 514 01b8 14D04DE2 		sub	sp, sp, #20
 515              		.cfi_def_cfa_offset 56
 516              		.loc 1 180 7 view .LVU129
 517 01bc 38319FE5 		ldr	r3, .L54+4
 518 01c0 0810A0E1 		mov	r1, r8
ARM GAS  /tmp/cc2djyQn.s 			page 15


 519              	.LVL45:
 520              		.loc 1 180 7 view .LVU130
 521              	.LPIC10:
 522 01c4 09908FE0 		add	r9, pc, r9
 523 01c8 0700A0E1 		mov	r0, r7
 524              	.LVL46:
 525              		.loc 1 180 7 view .LVU131
 526 01cc 0920A0E1 		mov	r2, r9
 527              	.LVL47:
 528              		.loc 1 180 7 view .LVU132
 529              	.LPIC9:
 530 01d0 03308FE0 		add	r3, pc, r3
 531 01d4 FEFFFFEB 		bl	EApiSprintfA(PLT)
 532              	.LVL48:
 181:/home/hkh/git/eapidk-code-r76-trunk/apps/EeePProg/linux/../CfgPHelper.c **** 	"%s\n", "Generic Number");
 182:/home/hkh/git/eapidk-code-r76-trunk/apps/EeePProg/linux/../CfgPHelper.c ****   if(pElementDesc->pExtraInfo==NULL) return EAPI_STATUS_SUCCESS;
 533              		.loc 1 182 18 view .LVU133
 534 01d8 343094E5 		ldr	r3, [r4, #52]
 535              	.LVL49:
 536              		.loc 1 182 3 is_stmt 1 view .LVU134
 537              		.loc 1 182 5 is_stmt 0 view .LVU135
 538 01dc 000053E3 		cmp	r3, #0
 539 01e0 3500000A 		beq	.L48
 183:/home/hkh/git/eapidk-code-r76-trunk/apps/EeePProg/linux/../CfgPHelper.c ****   pNumRange=((NumberRangeDesc_t*)pElementDesc->pExtraInfo)->pNumberRange; 
 184:/home/hkh/git/eapidk-code-r76-trunk/apps/EeePProg/linux/../CfgPHelper.c ****   stRangeCnt=((NumberRangeDesc_t*)pElementDesc->pExtraInfo)->stRangeCount; 
 540              		.loc 1 184 13 view .LVU136
 541 01e4 006093E5 		ldr	r6, [r3]
 542 01e8 0050A0E1 		mov	r5, r0
 183:/home/hkh/git/eapidk-code-r76-trunk/apps/EeePProg/linux/../CfgPHelper.c ****   pNumRange=((NumberRangeDesc_t*)pElementDesc->pExtraInfo)->pNumberRange; 
 543              		.loc 1 183 3 is_stmt 1 view .LVU137
 183:/home/hkh/git/eapidk-code-r76-trunk/apps/EeePProg/linux/../CfgPHelper.c ****   pNumRange=((NumberRangeDesc_t*)pElementDesc->pExtraInfo)->pNumberRange; 
 544              		.loc 1 183 12 is_stmt 0 view .LVU138
 545 01ec 044093E5 		ldr	r4, [r3, #4]
 546              	.LVL50:
 547              		.loc 1 184 3 is_stmt 1 view .LVU139
 185:/home/hkh/git/eapidk-code-r76-trunk/apps/EeePProg/linux/../CfgPHelper.c ****   if(stRangeCnt>1)
 548              		.loc 1 185 3 view .LVU140
 186:/home/hkh/git/eapidk-code-r76-trunk/apps/EeePProg/linux/../CfgPHelper.c ****     len+=EApiSprintfA(szHelpBuf + len, stHBufLen - len, 
 549              		.loc 1 186 10 is_stmt 0 view .LVU141
 550 01f0 0920A0E1 		mov	r2, r9
 551 01f4 000087E0 		add	r0, r7, r0
 552              	.LVL51:
 553              		.loc 1 186 10 view .LVU142
 554 01f8 051048E0 		sub	r1, r8, r5
 185:/home/hkh/git/eapidk-code-r76-trunk/apps/EeePProg/linux/../CfgPHelper.c ****   if(stRangeCnt>1)
 555              		.loc 1 185 5 view .LVU143
 556 01fc 010056E3 		cmp	r6, #1
 557 0200 3000009A 		bls	.L39
 558              		.loc 1 186 5 is_stmt 1 view .LVU144
 559              		.loc 1 186 10 is_stmt 0 view .LVU145
 560 0204 F4309FE5 		ldr	r3, .L54+8
 561              	.LPIC11:
 562 0208 03308FE0 		add	r3, pc, r3
 563 020c FEFFFFEB 		bl	EApiSprintfA(PLT)
 564              	.LVL52:
 565              		.loc 1 186 8 view .LVU146
 566 0210 005085E0 		add	r5, r5, r0
ARM GAS  /tmp/cc2djyQn.s 			page 16


 567              	.LVL53:
 187:/home/hkh/git/eapidk-code-r76-trunk/apps/EeePProg/linux/../CfgPHelper.c **** 	"%s\n", "Meeting one of the following conditions");
 188:/home/hkh/git/eapidk-code-r76-trunk/apps/EeePProg/linux/../CfgPHelper.c ****   else
 189:/home/hkh/git/eapidk-code-r76-trunk/apps/EeePProg/linux/../CfgPHelper.c ****     len+=EApiSprintfA(szHelpBuf + len, stHBufLen - len, 
 190:/home/hkh/git/eapidk-code-r76-trunk/apps/EeePProg/linux/../CfgPHelper.c **** 	"%s\n", "Meeting the following condition");
 191:/home/hkh/git/eapidk-code-r76-trunk/apps/EeePProg/linux/../CfgPHelper.c ****   while(stRangeCnt--){
 568              		.loc 1 191 9 is_stmt 1 view .LVU147
 569              	.L40:
 192:/home/hkh/git/eapidk-code-r76-trunk/apps/EeePProg/linux/../CfgPHelper.c ****     switch(pNumRange->uiType){
 193:/home/hkh/git/eapidk-code-r76-trunk/apps/EeePProg/linux/../CfgPHelper.c ****       case RANGE_INCLUSIVE:
 194:/home/hkh/git/eapidk-code-r76-trunk/apps/EeePProg/linux/../CfgPHelper.c ****         if(pNumRange->uiLowerLimit==pNumRange->uiUpperLimit)
 195:/home/hkh/git/eapidk-code-r76-trunk/apps/EeePProg/linux/../CfgPHelper.c **** 	  len+=EApiSprintfA(szHelpBuf + len, stHBufLen - len, 
 196:/home/hkh/git/eapidk-code-r76-trunk/apps/EeePProg/linux/../CfgPHelper.c ****               "\t Number == %8u(0x%04X)\n",
 197:/home/hkh/git/eapidk-code-r76-trunk/apps/EeePProg/linux/../CfgPHelper.c ****               pNumRange->uiLowerLimit, 
 198:/home/hkh/git/eapidk-code-r76-trunk/apps/EeePProg/linux/../CfgPHelper.c ****               pNumRange->uiLowerLimit 
 199:/home/hkh/git/eapidk-code-r76-trunk/apps/EeePProg/linux/../CfgPHelper.c ****             );
 200:/home/hkh/git/eapidk-code-r76-trunk/apps/EeePProg/linux/../CfgPHelper.c ****         else
 201:/home/hkh/git/eapidk-code-r76-trunk/apps/EeePProg/linux/../CfgPHelper.c **** 	  len+=EApiSprintfA(szHelpBuf + len, stHBufLen - len, 
 202:/home/hkh/git/eapidk-code-r76-trunk/apps/EeePProg/linux/../CfgPHelper.c ****               "\t %8u(0x%04X) <= Number <= %8u(0x%04X)\n", 
 203:/home/hkh/git/eapidk-code-r76-trunk/apps/EeePProg/linux/../CfgPHelper.c ****               pNumRange->uiLowerLimit, 
 204:/home/hkh/git/eapidk-code-r76-trunk/apps/EeePProg/linux/../CfgPHelper.c ****               pNumRange->uiLowerLimit, 
 205:/home/hkh/git/eapidk-code-r76-trunk/apps/EeePProg/linux/../CfgPHelper.c ****               pNumRange->uiUpperLimit, 
 206:/home/hkh/git/eapidk-code-r76-trunk/apps/EeePProg/linux/../CfgPHelper.c ****               pNumRange->uiUpperLimit
 207:/home/hkh/git/eapidk-code-r76-trunk/apps/EeePProg/linux/../CfgPHelper.c ****             );
 208:/home/hkh/git/eapidk-code-r76-trunk/apps/EeePProg/linux/../CfgPHelper.c ****         break;
 209:/home/hkh/git/eapidk-code-r76-trunk/apps/EeePProg/linux/../CfgPHelper.c ****       case RANGE_EXCLUSIVE:
 210:/home/hkh/git/eapidk-code-r76-trunk/apps/EeePProg/linux/../CfgPHelper.c **** 	len+=EApiSprintfA(szHelpBuf + len, stHBufLen - len, 
 570              		.loc 1 210 7 is_stmt 0 view .LVU148
 571 0214 E8A09FE5 		ldr	r10, .L54+12
 572 0218 284084E2 		add	r4, r4, #40
 573              	.LVL54:
 201:/home/hkh/git/eapidk-code-r76-trunk/apps/EeePProg/linux/../CfgPHelper.c ****               "\t %8u(0x%04X) <= Number <= %8u(0x%04X)\n", 
 574              		.loc 1 201 9 view .LVU149
 575 021c E4909FE5 		ldr	r9, .L54+16
 195:/home/hkh/git/eapidk-code-r76-trunk/apps/EeePProg/linux/../CfgPHelper.c ****               "\t Number == %8u(0x%04X)\n",
 576              		.loc 1 195 9 view .LVU150
 577 0220 E4B09FE5 		ldr	fp, .L54+20
 578              		.loc 1 210 7 view .LVU151
 579              	.LPIC17:
 580 0224 0AA08FE0 		add	r10, pc, r10
 201:/home/hkh/git/eapidk-code-r76-trunk/apps/EeePProg/linux/../CfgPHelper.c ****               "\t %8u(0x%04X) <= Number <= %8u(0x%04X)\n", 
 581              		.loc 1 201 9 view .LVU152
 582              	.LPIC16:
 583 0228 09908FE0 		add	r9, pc, r9
 195:/home/hkh/git/eapidk-code-r76-trunk/apps/EeePProg/linux/../CfgPHelper.c ****               "\t Number == %8u(0x%04X)\n",
 584              		.loc 1 195 9 view .LVU153
 585              	.LPIC15:
 586 022c 0BB08FE0 		add	fp, pc, fp
 587 0230 100000EA 		b	.L45
 588              	.LVL55:
 589              	.L53:
 194:/home/hkh/git/eapidk-code-r76-trunk/apps/EeePProg/linux/../CfgPHelper.c **** 	  len+=EApiSprintfA(szHelpBuf + len, stHBufLen - len, 
 590              		.loc 1 194 9 is_stmt 1 view .LVU154
 192:/home/hkh/git/eapidk-code-r76-trunk/apps/EeePProg/linux/../CfgPHelper.c ****       case RANGE_INCLUSIVE:
 591              		.loc 1 192 5 is_stmt 0 view .LVU155
 592 0234 010053E3 		cmp	r3, #1
 195:/home/hkh/git/eapidk-code-r76-trunk/apps/EeePProg/linux/../CfgPHelper.c ****               "\t Number == %8u(0x%04X)\n",
ARM GAS  /tmp/cc2djyQn.s 			page 17


 593              		.loc 1 195 9 view .LVU156
 594 0238 050087E0 		add	r0, r7, r5
 595 023c 051048E0 		sub	r1, r8, r5
 192:/home/hkh/git/eapidk-code-r76-trunk/apps/EeePProg/linux/../CfgPHelper.c ****       case RANGE_INCLUSIVE:
 596              		.loc 1 192 5 view .LVU157
 597 0240 0900001A 		bne	.L43
 201:/home/hkh/git/eapidk-code-r76-trunk/apps/EeePProg/linux/../CfgPHelper.c ****               "\t %8u(0x%04X) <= Number <= %8u(0x%04X)\n", 
 598              		.loc 1 201 4 is_stmt 1 view .LVU158
 194:/home/hkh/git/eapidk-code-r76-trunk/apps/EeePProg/linux/../CfgPHelper.c **** 	  len+=EApiSprintfA(szHelpBuf + len, stHBufLen - len, 
 599              		.loc 1 194 21 is_stmt 0 view .LVU159
 600 0244 28C014E5 		ldr	ip, [r4, #-40]
 201:/home/hkh/git/eapidk-code-r76-trunk/apps/EeePProg/linux/../CfgPHelper.c ****               "\t %8u(0x%04X) <= Number <= %8u(0x%04X)\n", 
 601              		.loc 1 201 9 view .LVU160
 602 0248 0920A0E1 		mov	r2, r9
 194:/home/hkh/git/eapidk-code-r76-trunk/apps/EeePProg/linux/../CfgPHelper.c **** 	  len+=EApiSprintfA(szHelpBuf + len, stHBufLen - len, 
 603              		.loc 1 194 46 view .LVU161
 604 024c 24E014E5 		ldr	lr, [r4, #-36]
 201:/home/hkh/git/eapidk-code-r76-trunk/apps/EeePProg/linux/../CfgPHelper.c ****               "\t %8u(0x%04X) <= Number <= %8u(0x%04X)\n", 
 605              		.loc 1 201 9 view .LVU162
 606 0250 0C30A0E1 		mov	r3, ip
 194:/home/hkh/git/eapidk-code-r76-trunk/apps/EeePProg/linux/../CfgPHelper.c **** 	  len+=EApiSprintfA(szHelpBuf + len, stHBufLen - len, 
 607              		.loc 1 194 11 view .LVU163
 608 0254 0E005CE1 		cmp	ip, lr
 609 0258 2100000A 		beq	.L52
 201:/home/hkh/git/eapidk-code-r76-trunk/apps/EeePProg/linux/../CfgPHelper.c ****               "\t %8u(0x%04X) <= Number <= %8u(0x%04X)\n", 
 610              		.loc 1 201 9 view .LVU164
 611 025c 08E08DE5 		str	lr, [sp, #8]
 612 0260 00508DE8 		stm	sp, {ip, lr}
 613 0264 FEFFFFEB 		bl	EApiSprintfA(PLT)
 614              	.LVL56:
 201:/home/hkh/git/eapidk-code-r76-trunk/apps/EeePProg/linux/../CfgPHelper.c ****               "\t %8u(0x%04X) <= Number <= %8u(0x%04X)\n", 
 615              		.loc 1 201 7 view .LVU165
 616 0268 005085E0 		add	r5, r5, r0
 617              	.LVL57:
 618              	.L43:
 211:/home/hkh/git/eapidk-code-r76-trunk/apps/EeePProg/linux/../CfgPHelper.c ****               "\t Number < %8u(0x%04X) || %8u(0x%04X) < Number\n",
 212:/home/hkh/git/eapidk-code-r76-trunk/apps/EeePProg/linux/../CfgPHelper.c ****               pNumRange->uiLowerLimit, 
 213:/home/hkh/git/eapidk-code-r76-trunk/apps/EeePProg/linux/../CfgPHelper.c ****               pNumRange->uiLowerLimit, 
 214:/home/hkh/git/eapidk-code-r76-trunk/apps/EeePProg/linux/../CfgPHelper.c ****               pNumRange->uiUpperLimit, 
 215:/home/hkh/git/eapidk-code-r76-trunk/apps/EeePProg/linux/../CfgPHelper.c ****               pNumRange->uiUpperLimit
 216:/home/hkh/git/eapidk-code-r76-trunk/apps/EeePProg/linux/../CfgPHelper.c ****             );
 217:/home/hkh/git/eapidk-code-r76-trunk/apps/EeePProg/linux/../CfgPHelper.c ****         break;
 218:/home/hkh/git/eapidk-code-r76-trunk/apps/EeePProg/linux/../CfgPHelper.c ****       default:
 219:/home/hkh/git/eapidk-code-r76-trunk/apps/EeePProg/linux/../CfgPHelper.c ****         break;
 220:/home/hkh/git/eapidk-code-r76-trunk/apps/EeePProg/linux/../CfgPHelper.c ****     }
 221:/home/hkh/git/eapidk-code-r76-trunk/apps/EeePProg/linux/../CfgPHelper.c ****     pNumRange++;
 619              		.loc 1 221 5 is_stmt 1 view .LVU166
 191:/home/hkh/git/eapidk-code-r76-trunk/apps/EeePProg/linux/../CfgPHelper.c ****     switch(pNumRange->uiType){
 620              		.loc 1 191 9 view .LVU167
 191:/home/hkh/git/eapidk-code-r76-trunk/apps/EeePProg/linux/../CfgPHelper.c ****     switch(pNumRange->uiType){
 621              		.loc 1 191 9 is_stmt 0 view .LVU168
 622 026c 016056E2 		subs	r6, r6, #1
 623              	.LVL58:
 191:/home/hkh/git/eapidk-code-r76-trunk/apps/EeePProg/linux/../CfgPHelper.c ****     switch(pNumRange->uiType){
 624              		.loc 1 191 9 view .LVU169
 625 0270 0C4084E2 		add	r4, r4, #12
 626              	.LVL59:
ARM GAS  /tmp/cc2djyQn.s 			page 18


 191:/home/hkh/git/eapidk-code-r76-trunk/apps/EeePProg/linux/../CfgPHelper.c ****     switch(pNumRange->uiType){
 627              		.loc 1 191 9 view .LVU170
 628 0274 1000000A 		beq	.L48
 629              	.LVL60:
 630              	.L45:
 192:/home/hkh/git/eapidk-code-r76-trunk/apps/EeePProg/linux/../CfgPHelper.c ****       case RANGE_INCLUSIVE:
 631              		.loc 1 192 5 is_stmt 1 view .LVU171
 192:/home/hkh/git/eapidk-code-r76-trunk/apps/EeePProg/linux/../CfgPHelper.c ****       case RANGE_INCLUSIVE:
 632              		.loc 1 192 21 is_stmt 0 view .LVU172
 633 0278 203014E5 		ldr	r3, [r4, #-32]
 192:/home/hkh/git/eapidk-code-r76-trunk/apps/EeePProg/linux/../CfgPHelper.c ****       case RANGE_INCLUSIVE:
 634              		.loc 1 192 5 view .LVU173
 635 027c 000053E3 		cmp	r3, #0
 636 0280 EBFFFF1A 		bne	.L53
 210:/home/hkh/git/eapidk-code-r76-trunk/apps/EeePProg/linux/../CfgPHelper.c ****               "\t Number < %8u(0x%04X) || %8u(0x%04X) < Number\n",
 637              		.loc 1 210 2 is_stmt 1 view .LVU174
 210:/home/hkh/git/eapidk-code-r76-trunk/apps/EeePProg/linux/../CfgPHelper.c ****               "\t Number < %8u(0x%04X) || %8u(0x%04X) < Number\n",
 638              		.loc 1 210 7 is_stmt 0 view .LVU175
 639 0284 242014E5 		ldr	r2, [r4, #-36]
 640 0288 051048E0 		sub	r1, r8, r5
 641 028c 283014E5 		ldr	r3, [r4, #-40]
 642 0290 050087E0 		add	r0, r7, r5
 643 0294 00F0D4F5 		pld	[r4]
 191:/home/hkh/git/eapidk-code-r76-trunk/apps/EeePProg/linux/../CfgPHelper.c ****     switch(pNumRange->uiType){
 644              		.loc 1 191 9 view .LVU176
 645 0298 0C4084E2 		add	r4, r4, #12
 646              	.LVL61:
 210:/home/hkh/git/eapidk-code-r76-trunk/apps/EeePProg/linux/../CfgPHelper.c ****               "\t Number < %8u(0x%04X) || %8u(0x%04X) < Number\n",
 647              		.loc 1 210 7 view .LVU177
 648 029c 08208DE5 		str	r2, [sp, #8]
 649 02a0 04208DE5 		str	r2, [sp, #4]
 650 02a4 0A20A0E1 		mov	r2, r10
 651 02a8 00308DE5 		str	r3, [sp]
 652 02ac FEFFFFEB 		bl	EApiSprintfA(PLT)
 653              	.LVL62:
 191:/home/hkh/git/eapidk-code-r76-trunk/apps/EeePProg/linux/../CfgPHelper.c ****     switch(pNumRange->uiType){
 654              		.loc 1 191 9 view .LVU178
 655 02b0 016056E2 		subs	r6, r6, #1
 656              	.LVL63:
 210:/home/hkh/git/eapidk-code-r76-trunk/apps/EeePProg/linux/../CfgPHelper.c ****               "\t Number < %8u(0x%04X) || %8u(0x%04X) < Number\n",
 657              		.loc 1 210 5 view .LVU179
 658 02b4 005085E0 		add	r5, r5, r0
 659              	.LVL64:
 217:/home/hkh/git/eapidk-code-r76-trunk/apps/EeePProg/linux/../CfgPHelper.c ****       default:
 660              		.loc 1 217 9 is_stmt 1 view .LVU180
 661              		.loc 1 221 5 view .LVU181
 191:/home/hkh/git/eapidk-code-r76-trunk/apps/EeePProg/linux/../CfgPHelper.c ****     switch(pNumRange->uiType){
 662              		.loc 1 191 9 view .LVU182
 191:/home/hkh/git/eapidk-code-r76-trunk/apps/EeePProg/linux/../CfgPHelper.c ****     switch(pNumRange->uiType){
 663              		.loc 1 191 9 is_stmt 0 view .LVU183
 664 02b8 EEFFFF1A 		bne	.L45
 665              	.LVL65:
 666              	.L48:
 222:/home/hkh/git/eapidk-code-r76-trunk/apps/EeePProg/linux/../CfgPHelper.c ****   }
 223:/home/hkh/git/eapidk-code-r76-trunk/apps/EeePProg/linux/../CfgPHelper.c ****   return EAPI_STATUS_SUCCESS;
 224:/home/hkh/git/eapidk-code-r76-trunk/apps/EeePProg/linux/../CfgPHelper.c **** }
 667              		.loc 1 224 1 view .LVU184
ARM GAS  /tmp/cc2djyQn.s 			page 19


 668 02bc 0000A0E3 		mov	r0, #0
 669 02c0 14D08DE2 		add	sp, sp, #20
 670              		.cfi_remember_state
 671              		.cfi_def_cfa_offset 36
 672              		@ sp needed
 673 02c4 F08FBDE8 		pop	{r4, r5, r6, r7, r8, r9, r10, fp, pc}
 674              	.LVL66:
 675              	.L39:
 676              		.cfi_restore_state
 189:/home/hkh/git/eapidk-code-r76-trunk/apps/EeePProg/linux/../CfgPHelper.c **** 	"%s\n", "Meeting the following condition");
 677              		.loc 1 189 5 is_stmt 1 view .LVU185
 189:/home/hkh/git/eapidk-code-r76-trunk/apps/EeePProg/linux/../CfgPHelper.c **** 	"%s\n", "Meeting the following condition");
 678              		.loc 1 189 10 is_stmt 0 view .LVU186
 679 02c8 40309FE5 		ldr	r3, .L54+24
 680              	.LPIC13:
 681 02cc 03308FE0 		add	r3, pc, r3
 682 02d0 FEFFFFEB 		bl	EApiSprintfA(PLT)
 683              	.LVL67:
 191:/home/hkh/git/eapidk-code-r76-trunk/apps/EeePProg/linux/../CfgPHelper.c ****     switch(pNumRange->uiType){
 684              		.loc 1 191 9 view .LVU187
 685 02d4 000056E3 		cmp	r6, #0
 686              	.LVL68:
 191:/home/hkh/git/eapidk-code-r76-trunk/apps/EeePProg/linux/../CfgPHelper.c ****     switch(pNumRange->uiType){
 687              		.loc 1 191 9 is_stmt 1 view .LVU188
 191:/home/hkh/git/eapidk-code-r76-trunk/apps/EeePProg/linux/../CfgPHelper.c ****     switch(pNumRange->uiType){
 688              		.loc 1 191 9 is_stmt 0 view .LVU189
 689 02d8 F7FFFF0A 		beq	.L48
 189:/home/hkh/git/eapidk-code-r76-trunk/apps/EeePProg/linux/../CfgPHelper.c **** 	"%s\n", "Meeting the following condition");
 690              		.loc 1 189 8 view .LVU190
 691 02dc 005085E0 		add	r5, r5, r0
 692              	.LVL69:
 189:/home/hkh/git/eapidk-code-r76-trunk/apps/EeePProg/linux/../CfgPHelper.c **** 	"%s\n", "Meeting the following condition");
 693              		.loc 1 189 8 view .LVU191
 694 02e0 CBFFFFEA 		b	.L40
 695              	.LVL70:
 696              	.L52:
 195:/home/hkh/git/eapidk-code-r76-trunk/apps/EeePProg/linux/../CfgPHelper.c ****               "\t Number == %8u(0x%04X)\n",
 697              		.loc 1 195 4 is_stmt 1 view .LVU192
 195:/home/hkh/git/eapidk-code-r76-trunk/apps/EeePProg/linux/../CfgPHelper.c ****               "\t Number == %8u(0x%04X)\n",
 698              		.loc 1 195 9 is_stmt 0 view .LVU193
 699 02e4 0B20A0E1 		mov	r2, fp
 700 02e8 00C08DE5 		str	ip, [sp]
 701 02ec FEFFFFEB 		bl	EApiSprintfA(PLT)
 702              	.LVL71:
 195:/home/hkh/git/eapidk-code-r76-trunk/apps/EeePProg/linux/../CfgPHelper.c ****               "\t Number == %8u(0x%04X)\n",
 703              		.loc 1 195 7 view .LVU194
 704 02f0 005085E0 		add	r5, r5, r0
 705              	.LVL72:
 195:/home/hkh/git/eapidk-code-r76-trunk/apps/EeePProg/linux/../CfgPHelper.c ****               "\t Number == %8u(0x%04X)\n",
 706              		.loc 1 195 7 view .LVU195
 707 02f4 DCFFFFEA 		b	.L43
 708              	.L55:
 709              		.align	2
 710              	.L54:
 711 02f8 2C010000 		.word	.LC3-(.LPIC10+8)
 712 02fc 24010000 		.word	.LC7-(.LPIC9+8)
 713 0300 F0000000 		.word	.LC8-(.LPIC11+8)
ARM GAS  /tmp/cc2djyQn.s 			page 20


 714 0304 D8000000 		.word	.LC12-(.LPIC17+8)
 715 0308 D8000000 		.word	.LC11-(.LPIC16+8)
 716 030c D8000000 		.word	.LC10-(.LPIC15+8)
 717 0310 3C000000 		.word	.LC9-(.LPIC13+8)
 718              		.cfi_endproc
 719              	.LFE7:
 721              		.section	.rodata.str1.4
 722              		.align	2
 723              	.LC13:
 724 0150 53757070 		.ascii	"Supported Options\000"
 724      6F727465 
 724      64204F70 
 724      74696F6E 
 724      7300
 725 0162 0000     		.align	2
 726              	.LC14:
 727 0164 09202573 		.ascii	"\011 %s\012\000"
 727      0A00
 728              		.text
 729              		.align	2
 730              		.global	Token_List_Help
 731              		.syntax unified
 732              		.arm
 733              		.fpu vfpv3
 735              	Token_List_Help:
 736              	.LVL73:
 737              	.LFB9:
 225:/home/hkh/git/eapidk-code-r76-trunk/apps/EeePProg/linux/../CfgPHelper.c **** EApiStatus_t                                    
 226:/home/hkh/git/eapidk-code-r76-trunk/apps/EeePProg/linux/../CfgPHelper.c **** TokenNum_List_Help(
 227:/home/hkh/git/eapidk-code-r76-trunk/apps/EeePProg/linux/../CfgPHelper.c ****     __IN  struct CfgElementDesc_s *pElementDesc, 
 228:/home/hkh/git/eapidk-code-r76-trunk/apps/EeePProg/linux/../CfgPHelper.c ****     __OUT char *szHelpBuf, 
 229:/home/hkh/git/eapidk-code-r76-trunk/apps/EeePProg/linux/../CfgPHelper.c ****     __IN  size_t stHBufLen 
 230:/home/hkh/git/eapidk-code-r76-trunk/apps/EeePProg/linux/../CfgPHelper.c ****   )
 231:/home/hkh/git/eapidk-code-r76-trunk/apps/EeePProg/linux/../CfgPHelper.c **** { 
 232:/home/hkh/git/eapidk-code-r76-trunk/apps/EeePProg/linux/../CfgPHelper.c ****   EApiStatus_t StatusCode=EAPI_STATUS_SUCCESS;
 233:/home/hkh/git/eapidk-code-r76-trunk/apps/EeePProg/linux/../CfgPHelper.c ****   struct  CfgElementDesc_s LclElementDesc=*pElementDesc;
 234:/home/hkh/git/eapidk-code-r76-trunk/apps/EeePProg/linux/../CfgPHelper.c ****   int len;
 235:/home/hkh/git/eapidk-code-r76-trunk/apps/EeePProg/linux/../CfgPHelper.c **** 
 236:/home/hkh/git/eapidk-code-r76-trunk/apps/EeePProg/linux/../CfgPHelper.c ****   LclElementDesc.pExtraInfo=((TokenNumDesc_t*)pElementDesc->pExtraInfo)->pTokens;
 237:/home/hkh/git/eapidk-code-r76-trunk/apps/EeePProg/linux/../CfgPHelper.c ****   DO(Token_List_Help(&LclElementDesc, szHelpBuf, stHBufLen));
 238:/home/hkh/git/eapidk-code-r76-trunk/apps/EeePProg/linux/../CfgPHelper.c ****   len=(signed)strlen(szHelpBuf);
 239:/home/hkh/git/eapidk-code-r76-trunk/apps/EeePProg/linux/../CfgPHelper.c ****   len+=EApiSprintfA(szHelpBuf + len, stHBufLen - len, "Or a \n");
 240:/home/hkh/git/eapidk-code-r76-trunk/apps/EeePProg/linux/../CfgPHelper.c ****   LclElementDesc.pExtraInfo=((TokenNumDesc_t*)pElementDesc->pExtraInfo)->pRange;
 241:/home/hkh/git/eapidk-code-r76-trunk/apps/EeePProg/linux/../CfgPHelper.c ****   DO(Range_List_Help(&LclElementDesc, szHelpBuf + len, stHBufLen - len));
 242:/home/hkh/git/eapidk-code-r76-trunk/apps/EeePProg/linux/../CfgPHelper.c **** EAPI_APP_ASSERT_EXIT
 243:/home/hkh/git/eapidk-code-r76-trunk/apps/EeePProg/linux/../CfgPHelper.c ****   return StatusCode;
 244:/home/hkh/git/eapidk-code-r76-trunk/apps/EeePProg/linux/../CfgPHelper.c **** }
 245:/home/hkh/git/eapidk-code-r76-trunk/apps/EeePProg/linux/../CfgPHelper.c **** EApiStatus_t
 246:/home/hkh/git/eapidk-code-r76-trunk/apps/EeePProg/linux/../CfgPHelper.c **** Token_List_Help(
 247:/home/hkh/git/eapidk-code-r76-trunk/apps/EeePProg/linux/../CfgPHelper.c ****     __IN  struct CfgElementDesc_s *pElementDesc, 
 248:/home/hkh/git/eapidk-code-r76-trunk/apps/EeePProg/linux/../CfgPHelper.c ****     __OUT char *szHelpBuf, 
 249:/home/hkh/git/eapidk-code-r76-trunk/apps/EeePProg/linux/../CfgPHelper.c ****     __IN  size_t stHBufLen 
 250:/home/hkh/git/eapidk-code-r76-trunk/apps/EeePProg/linux/../CfgPHelper.c ****   )
 251:/home/hkh/git/eapidk-code-r76-trunk/apps/EeePProg/linux/../CfgPHelper.c **** { 
 738              		.loc 1 251 1 is_stmt 1 view -0
 739              		.cfi_startproc
 740              		@ args = 0, pretend = 0, frame = 0
ARM GAS  /tmp/cc2djyQn.s 			page 21


 741              		@ frame_needed = 0, uses_anonymous_args = 0
 252:/home/hkh/git/eapidk-code-r76-trunk/apps/EeePProg/linux/../CfgPHelper.c ****   TokenDesc_t *pTokens;
 742              		.loc 1 252 3 view .LVU197
 253:/home/hkh/git/eapidk-code-r76-trunk/apps/EeePProg/linux/../CfgPHelper.c ****   size_t stTokenCount;
 743              		.loc 1 253 3 view .LVU198
 254:/home/hkh/git/eapidk-code-r76-trunk/apps/EeePProg/linux/../CfgPHelper.c ****   int len;
 744              		.loc 1 254 3 view .LVU199
 255:/home/hkh/git/eapidk-code-r76-trunk/apps/EeePProg/linux/../CfgPHelper.c ****   len=EApiSprintfA(szHelpBuf, stHBufLen, 
 745              		.loc 1 255 3 view .LVU200
 251:/home/hkh/git/eapidk-code-r76-trunk/apps/EeePProg/linux/../CfgPHelper.c ****   TokenDesc_t *pTokens;
 746              		.loc 1 251 1 is_stmt 0 view .LVU201
 747 0314 F0472DE9 		push	{r4, r5, r6, r7, r8, r9, r10, lr}
 748              		.cfi_def_cfa_offset 32
 749              		.cfi_offset 4, -32
 750              		.cfi_offset 5, -28
 751              		.cfi_offset 6, -24
 752              		.cfi_offset 7, -20
 753              		.cfi_offset 8, -16
 754              		.cfi_offset 9, -12
 755              		.cfi_offset 10, -8
 756              		.cfi_offset 14, -4
 251:/home/hkh/git/eapidk-code-r76-trunk/apps/EeePProg/linux/../CfgPHelper.c ****   TokenDesc_t *pTokens;
 757              		.loc 1 251 1 view .LVU202
 758 0318 0280A0E1 		mov	r8, r2
 759              		.loc 1 255 7 view .LVU203
 760 031c FC309FE5 		ldr	r3, .L67
 251:/home/hkh/git/eapidk-code-r76-trunk/apps/EeePProg/linux/../CfgPHelper.c ****   TokenDesc_t *pTokens;
 761              		.loc 1 251 1 view .LVU204
 762 0320 0170A0E1 		mov	r7, r1
 763 0324 0050A0E1 		mov	r5, r0
 764              		.loc 1 255 7 view .LVU205
 765 0328 0810A0E1 		mov	r1, r8
 766              	.LVL74:
 767              		.loc 1 255 7 view .LVU206
 768 032c F0209FE5 		ldr	r2, .L67+4
 769              	.LVL75:
 770              		.loc 1 255 7 view .LVU207
 771 0330 0700A0E1 		mov	r0, r7
 772              	.LVL76:
 773              		.loc 1 255 7 view .LVU208
 774              	.LPIC18:
 775 0334 03308FE0 		add	r3, pc, r3
 776              	.LPIC19:
 777 0338 02208FE0 		add	r2, pc, r2
 778 033c FEFFFFEB 		bl	EApiSprintfA(PLT)
 779              	.LVL77:
 256:/home/hkh/git/eapidk-code-r76-trunk/apps/EeePProg/linux/../CfgPHelper.c **** 	"%s\n", "Supported Options");
 257:/home/hkh/git/eapidk-code-r76-trunk/apps/EeePProg/linux/../CfgPHelper.c ****   pTokens=((TokenListDesc_t*)pElementDesc->pExtraInfo)->pTokenList; 
 780              		.loc 1 257 42 view .LVU209
 781 0340 343095E5 		ldr	r3, [r5, #52]
 782              	.LVL78:
 783              		.loc 1 257 3 is_stmt 1 view .LVU210
 258:/home/hkh/git/eapidk-code-r76-trunk/apps/EeePProg/linux/../CfgPHelper.c ****   stTokenCount=((TokenListDesc_t*)pElementDesc->pExtraInfo)->uiTokenCount; 
 784              		.loc 1 258 15 is_stmt 0 view .LVU211
 785 0344 600093E8 		ldm	r3, {r5, r6}
 786              	.LVL79:
 259:/home/hkh/git/eapidk-code-r76-trunk/apps/EeePProg/linux/../CfgPHelper.c ****   while(stTokenCount--){
ARM GAS  /tmp/cc2djyQn.s 			page 22


 787              		.loc 1 259 3 is_stmt 1 view .LVU212
 788              		.loc 1 259 9 view .LVU213
 789 0348 000055E3 		cmp	r5, #0
 790              	.LVL80:
 791              		.loc 1 259 9 is_stmt 0 view .LVU214
 792 034c 3100000A 		beq	.L57
 793 0350 015045E2 		sub	r5, r5, #1
 794              	.LVL81:
 795              		.loc 1 259 9 view .LVU215
 796 0354 0040A0E1 		mov	r4, r0
 797 0358 030055E3 		cmp	r5, #3
 798 035c 2000009A 		bls	.L58
 260:/home/hkh/git/eapidk-code-r76-trunk/apps/EeePProg/linux/../CfgPHelper.c **** 	len+=EApiSprintfA(szHelpBuf + len, stHBufLen - len,
 799              		.loc 1 260 7 view .LVU216
 800 0360 C0A09FE5 		ldr	r10, .L67+8
 801 0364 209086E2 		add	r9, r6, #32
 802              	.LPIC20:
 803 0368 0AA08FE0 		add	r10, pc, r10
 804              	.LVL82:
 805              	.L59:
 806              		.loc 1 260 2 is_stmt 1 view .LVU217
 807              		.loc 1 260 7 is_stmt 0 view .LVU218
 808 036c 203019E5 		ldr	r3, [r9, #-32]
 809 0370 041048E0 		sub	r1, r8, r4
 810 0374 0A20A0E1 		mov	r2, r10
 811 0378 040087E0 		add	r0, r7, r4
 812 037c 28F0D9F5 		pld	[r9, #40]
 259:/home/hkh/git/eapidk-code-r76-trunk/apps/EeePProg/linux/../CfgPHelper.c ****   while(stTokenCount--){
 813              		.loc 1 259 21 view .LVU219
 814 0380 045045E2 		sub	r5, r5, #4
 815              	.LVL83:
 816              		.loc 1 260 7 view .LVU220
 817 0384 FEFFFFEB 		bl	EApiSprintfA(PLT)
 818              	.LVL84:
 819              		.loc 1 260 5 view .LVU221
 820 0388 046080E0 		add	r6, r0, r4
 821              	.LVL85:
 261:/home/hkh/git/eapidk-code-r76-trunk/apps/EeePProg/linux/../CfgPHelper.c **** 		"\t %s\n", pTokens->pszTokenList);
 262:/home/hkh/git/eapidk-code-r76-trunk/apps/EeePProg/linux/../CfgPHelper.c ****     pTokens++;
 822              		.loc 1 262 5 is_stmt 1 view .LVU222
 259:/home/hkh/git/eapidk-code-r76-trunk/apps/EeePProg/linux/../CfgPHelper.c **** 	len+=EApiSprintfA(szHelpBuf + len, stHBufLen - len,
 823              		.loc 1 259 9 view .LVU223
 260:/home/hkh/git/eapidk-code-r76-trunk/apps/EeePProg/linux/../CfgPHelper.c **** 	len+=EApiSprintfA(szHelpBuf + len, stHBufLen - len,
 824              		.loc 1 260 2 view .LVU224
 260:/home/hkh/git/eapidk-code-r76-trunk/apps/EeePProg/linux/../CfgPHelper.c **** 	len+=EApiSprintfA(szHelpBuf + len, stHBufLen - len,
 825              		.loc 1 260 7 is_stmt 0 view .LVU225
 826 038c 183019E5 		ldr	r3, [r9, #-24]
 827 0390 061048E0 		sub	r1, r8, r6
 828 0394 0A20A0E1 		mov	r2, r10
 829 0398 060087E0 		add	r0, r7, r6
 830 039c FEFFFFEB 		bl	EApiSprintfA(PLT)
 831              	.LVL86:
 260:/home/hkh/git/eapidk-code-r76-trunk/apps/EeePProg/linux/../CfgPHelper.c **** 	len+=EApiSprintfA(szHelpBuf + len, stHBufLen - len,
 832              		.loc 1 260 5 view .LVU226
 833 03a0 006086E0 		add	r6, r6, r0
 834              	.LVL87:
 835              		.loc 1 262 5 is_stmt 1 view .LVU227
ARM GAS  /tmp/cc2djyQn.s 			page 23


 259:/home/hkh/git/eapidk-code-r76-trunk/apps/EeePProg/linux/../CfgPHelper.c **** 	len+=EApiSprintfA(szHelpBuf + len, stHBufLen - len,
 836              		.loc 1 259 9 view .LVU228
 260:/home/hkh/git/eapidk-code-r76-trunk/apps/EeePProg/linux/../CfgPHelper.c **** 	len+=EApiSprintfA(szHelpBuf + len, stHBufLen - len,
 837              		.loc 1 260 2 view .LVU229
 260:/home/hkh/git/eapidk-code-r76-trunk/apps/EeePProg/linux/../CfgPHelper.c **** 	len+=EApiSprintfA(szHelpBuf + len, stHBufLen - len,
 838              		.loc 1 260 7 is_stmt 0 view .LVU230
 839 03a4 103019E5 		ldr	r3, [r9, #-16]
 840 03a8 061048E0 		sub	r1, r8, r6
 841 03ac 0A20A0E1 		mov	r2, r10
 842 03b0 060087E0 		add	r0, r7, r6
 843 03b4 FEFFFFEB 		bl	EApiSprintfA(PLT)
 844              	.LVL88:
 260:/home/hkh/git/eapidk-code-r76-trunk/apps/EeePProg/linux/../CfgPHelper.c **** 	len+=EApiSprintfA(szHelpBuf + len, stHBufLen - len,
 845              		.loc 1 260 5 view .LVU231
 846 03b8 006086E0 		add	r6, r6, r0
 847              	.LVL89:
 848              		.loc 1 262 5 is_stmt 1 view .LVU232
 259:/home/hkh/git/eapidk-code-r76-trunk/apps/EeePProg/linux/../CfgPHelper.c **** 	len+=EApiSprintfA(szHelpBuf + len, stHBufLen - len,
 849              		.loc 1 259 9 view .LVU233
 260:/home/hkh/git/eapidk-code-r76-trunk/apps/EeePProg/linux/../CfgPHelper.c **** 	len+=EApiSprintfA(szHelpBuf + len, stHBufLen - len,
 850              		.loc 1 260 2 view .LVU234
 260:/home/hkh/git/eapidk-code-r76-trunk/apps/EeePProg/linux/../CfgPHelper.c **** 	len+=EApiSprintfA(szHelpBuf + len, stHBufLen - len,
 851              		.loc 1 260 7 is_stmt 0 view .LVU235
 852 03bc 083019E5 		ldr	r3, [r9, #-8]
 853 03c0 061048E0 		sub	r1, r8, r6
 854 03c4 060087E0 		add	r0, r7, r6
 855 03c8 0A20A0E1 		mov	r2, r10
 856 03cc FEFFFFEB 		bl	EApiSprintfA(PLT)
 857              	.LVL90:
 858 03d0 030055E3 		cmp	r5, #3
 260:/home/hkh/git/eapidk-code-r76-trunk/apps/EeePProg/linux/../CfgPHelper.c **** 	len+=EApiSprintfA(szHelpBuf + len, stHBufLen - len,
 859              		.loc 1 260 5 view .LVU236
 860 03d4 004086E0 		add	r4, r6, r0
 861              	.LVL91:
 862              		.loc 1 262 5 is_stmt 1 view .LVU237
 259:/home/hkh/git/eapidk-code-r76-trunk/apps/EeePProg/linux/../CfgPHelper.c **** 	len+=EApiSprintfA(szHelpBuf + len, stHBufLen - len,
 863              		.loc 1 259 9 view .LVU238
 259:/home/hkh/git/eapidk-code-r76-trunk/apps/EeePProg/linux/../CfgPHelper.c **** 	len+=EApiSprintfA(szHelpBuf + len, stHBufLen - len,
 864              		.loc 1 259 9 is_stmt 0 view .LVU239
 865 03d8 0960A0E1 		mov	r6, r9
 866 03dc 209089E2 		add	r9, r9, #32
 867              	.LVL92:
 259:/home/hkh/git/eapidk-code-r76-trunk/apps/EeePProg/linux/../CfgPHelper.c **** 	len+=EApiSprintfA(szHelpBuf + len, stHBufLen - len,
 868              		.loc 1 259 9 view .LVU240
 869 03e0 E1FFFF8A 		bhi	.L59
 870              	.LVL93:
 871              	.L58:
 260:/home/hkh/git/eapidk-code-r76-trunk/apps/EeePProg/linux/../CfgPHelper.c **** 	len+=EApiSprintfA(szHelpBuf + len, stHBufLen - len,
 872              		.loc 1 260 7 view .LVU241
 873 03e4 40909FE5 		ldr	r9, .L67+12
 874 03e8 086086E2 		add	r6, r6, #8
 875              	.LVL94:
 260:/home/hkh/git/eapidk-code-r76-trunk/apps/EeePProg/linux/../CfgPHelper.c **** 	len+=EApiSprintfA(szHelpBuf + len, stHBufLen - len,
 876              		.loc 1 260 7 view .LVU242
 877              	.LPIC24:
 878 03ec 09908FE0 		add	r9, pc, r9
 879              	.LVL95:
ARM GAS  /tmp/cc2djyQn.s 			page 24


 880              	.L60:
 260:/home/hkh/git/eapidk-code-r76-trunk/apps/EeePProg/linux/../CfgPHelper.c **** 	len+=EApiSprintfA(szHelpBuf + len, stHBufLen - len,
 881              		.loc 1 260 2 is_stmt 1 view .LVU243
 260:/home/hkh/git/eapidk-code-r76-trunk/apps/EeePProg/linux/../CfgPHelper.c **** 	len+=EApiSprintfA(szHelpBuf + len, stHBufLen - len,
 882              		.loc 1 260 7 is_stmt 0 view .LVU244
 883 03f0 083016E5 		ldr	r3, [r6, #-8]
 884 03f4 041048E0 		sub	r1, r8, r4
 885 03f8 040087E0 		add	r0, r7, r4
 886 03fc 0920A0E1 		mov	r2, r9
 887 0400 FEFFFFEB 		bl	EApiSprintfA(PLT)
 888              	.LVL96:
 259:/home/hkh/git/eapidk-code-r76-trunk/apps/EeePProg/linux/../CfgPHelper.c **** 	len+=EApiSprintfA(szHelpBuf + len, stHBufLen - len,
 889              		.loc 1 259 9 view .LVU245
 890 0404 000055E3 		cmp	r5, #0
 260:/home/hkh/git/eapidk-code-r76-trunk/apps/EeePProg/linux/../CfgPHelper.c **** 	len+=EApiSprintfA(szHelpBuf + len, stHBufLen - len,
 891              		.loc 1 260 5 view .LVU246
 892 0408 004084E0 		add	r4, r4, r0
 893              	.LVL97:
 894              		.loc 1 262 5 is_stmt 1 view .LVU247
 259:/home/hkh/git/eapidk-code-r76-trunk/apps/EeePProg/linux/../CfgPHelper.c **** 	len+=EApiSprintfA(szHelpBuf + len, stHBufLen - len,
 895              		.loc 1 259 9 view .LVU248
 259:/home/hkh/git/eapidk-code-r76-trunk/apps/EeePProg/linux/../CfgPHelper.c **** 	len+=EApiSprintfA(szHelpBuf + len, stHBufLen - len,
 896              		.loc 1 259 21 is_stmt 0 view .LVU249
 897 040c 015045E2 		sub	r5, r5, #1
 898              	.LVL98:
 259:/home/hkh/git/eapidk-code-r76-trunk/apps/EeePProg/linux/../CfgPHelper.c **** 	len+=EApiSprintfA(szHelpBuf + len, stHBufLen - len,
 899              		.loc 1 259 9 view .LVU250
 900 0410 086086E2 		add	r6, r6, #8
 901              	.LVL99:
 259:/home/hkh/git/eapidk-code-r76-trunk/apps/EeePProg/linux/../CfgPHelper.c **** 	len+=EApiSprintfA(szHelpBuf + len, stHBufLen - len,
 902              		.loc 1 259 9 view .LVU251
 903 0414 F5FFFF1A 		bne	.L60
 904              	.LVL100:
 905              	.L57:
 263:/home/hkh/git/eapidk-code-r76-trunk/apps/EeePProg/linux/../CfgPHelper.c ****   }
 264:/home/hkh/git/eapidk-code-r76-trunk/apps/EeePProg/linux/../CfgPHelper.c ****   return EAPI_STATUS_SUCCESS;
 906              		.loc 1 264 3 is_stmt 1 view .LVU252
 265:/home/hkh/git/eapidk-code-r76-trunk/apps/EeePProg/linux/../CfgPHelper.c **** }
 907              		.loc 1 265 1 is_stmt 0 view .LVU253
 908 0418 0000A0E3 		mov	r0, #0
 909 041c F087BDE8 		pop	{r4, r5, r6, r7, r8, r9, r10, pc}
 910              	.L68:
 911              		.align	2
 912              	.L67:
 913 0420 E4000000 		.word	.LC13-(.LPIC18+8)
 914 0424 E4000000 		.word	.LC3-(.LPIC19+8)
 915 0428 B8000000 		.word	.LC14-(.LPIC20+8)
 916 042c 38000000 		.word	.LC14-(.LPIC24+8)
 917              		.cfi_endproc
 918              	.LFE9:
 920              		.section	.rodata.str1.4
 921 016a 0000     		.align	2
 922              	.LC15:
 923 016c 47554944 		.ascii	"GUID in the Format F9168C5E-CEB2-4faa-B6BF-329BF39F"
 923      20696E20 
 923      74686520 
 923      466F726D 
ARM GAS  /tmp/cc2djyQn.s 			page 25


 923      61742046 
 924 019f 41314534 		.ascii	"A1E4\012  Means Not Supported 00000000-0000-0000-00"
 924      0A20204D 
 924      65616E73 
 924      204E6F74 
 924      20537570 
 925 01cf 30302D30 		.ascii	"00-000000000000\012  Means Setable       FFFFFFFF-F"
 925      30303030 
 925      30303030 
 925      3030300A 
 925      20204D65 
 926 01ff 4646462D 		.ascii	"FFF-FFFF-FFFF-FFFFFFFFFFFF\012\000"
 926      46464646 
 926      2D464646 
 926      462D4646 
 926      46464646 
 927              		.text
 928              		.align	2
 929              		.global	GUID_Help
 930              		.syntax unified
 931              		.arm
 932              		.fpu vfpv3
 934              	GUID_Help:
 935              	.LVL101:
 936              	.LFB10:
 266:/home/hkh/git/eapidk-code-r76-trunk/apps/EeePProg/linux/../CfgPHelper.c **** EApiStatus_t
 267:/home/hkh/git/eapidk-code-r76-trunk/apps/EeePProg/linux/../CfgPHelper.c **** GUID_Help(
 268:/home/hkh/git/eapidk-code-r76-trunk/apps/EeePProg/linux/../CfgPHelper.c ****     __IN  struct CfgElementDesc_s *pElementDesc, 
 269:/home/hkh/git/eapidk-code-r76-trunk/apps/EeePProg/linux/../CfgPHelper.c ****     __OUT char *szHelpBuf, 
 270:/home/hkh/git/eapidk-code-r76-trunk/apps/EeePProg/linux/../CfgPHelper.c ****     __IN  size_t stHBufLen 
 271:/home/hkh/git/eapidk-code-r76-trunk/apps/EeePProg/linux/../CfgPHelper.c ****   )
 272:/home/hkh/git/eapidk-code-r76-trunk/apps/EeePProg/linux/../CfgPHelper.c **** { 
 937              		.loc 1 272 1 is_stmt 1 view -0
 938              		.cfi_startproc
 939              		@ args = 0, pretend = 0, frame = 0
 940              		@ frame_needed = 0, uses_anonymous_args = 0
 273:/home/hkh/git/eapidk-code-r76-trunk/apps/EeePProg/linux/../CfgPHelper.c ****   pElementDesc=pElementDesc;
 941              		.loc 1 273 3 view .LVU255
 274:/home/hkh/git/eapidk-code-r76-trunk/apps/EeePProg/linux/../CfgPHelper.c ****   EApiSprintfA(szHelpBuf , stHBufLen , 
 942              		.loc 1 274 3 view .LVU256
 272:/home/hkh/git/eapidk-code-r76-trunk/apps/EeePProg/linux/../CfgPHelper.c ****   pElementDesc=pElementDesc;
 943              		.loc 1 272 1 is_stmt 0 view .LVU257
 944 0430 0100A0E1 		mov	r0, r1
 945              	.LVL102:
 946              		.loc 1 274 3 view .LVU258
 947 0434 0210A0E1 		mov	r1, r2
 948              	.LVL103:
 949              		.loc 1 274 3 view .LVU259
 950 0438 10209FE5 		ldr	r2, .L71
 951              	.LVL104:
 272:/home/hkh/git/eapidk-code-r76-trunk/apps/EeePProg/linux/../CfgPHelper.c ****   pElementDesc=pElementDesc;
 952              		.loc 1 272 1 view .LVU260
 953 043c 10402DE9 		push	{r4, lr}
 954              		.cfi_def_cfa_offset 8
 955              		.cfi_offset 4, -8
 956              		.cfi_offset 14, -4
 957              		.loc 1 274 3 view .LVU261
ARM GAS  /tmp/cc2djyQn.s 			page 26


 958              	.LPIC25:
 959 0440 02208FE0 		add	r2, pc, r2
 960 0444 FEFFFFEB 		bl	EApiSprintfA(PLT)
 961              	.LVL105:
 275:/home/hkh/git/eapidk-code-r76-trunk/apps/EeePProg/linux/../CfgPHelper.c **** 		"GUID in the Format F9168C5E-CEB2-4faa-B6BF-329BF39FA1E4\n"
 276:/home/hkh/git/eapidk-code-r76-trunk/apps/EeePProg/linux/../CfgPHelper.c **** 		"  Means Not Supported 00000000-0000-0000-0000-000000000000\n"
 277:/home/hkh/git/eapidk-code-r76-trunk/apps/EeePProg/linux/../CfgPHelper.c **** 		"  Means Setable       FFFFFFFF-FFFF-FFFF-FFFF-FFFFFFFFFFFF\n"
 278:/home/hkh/git/eapidk-code-r76-trunk/apps/EeePProg/linux/../CfgPHelper.c **** 		  );
 279:/home/hkh/git/eapidk-code-r76-trunk/apps/EeePProg/linux/../CfgPHelper.c ****   return EAPI_STATUS_SUCCESS;
 962              		.loc 1 279 3 is_stmt 1 view .LVU262
 280:/home/hkh/git/eapidk-code-r76-trunk/apps/EeePProg/linux/../CfgPHelper.c **** }
 963              		.loc 1 280 1 is_stmt 0 view .LVU263
 964 0448 0000A0E3 		mov	r0, #0
 965 044c 1080BDE8 		pop	{r4, pc}
 966              	.L72:
 967              		.align	2
 968              	.L71:
 969 0450 08000000 		.word	.LC15-(.LPIC25+8)
 970              		.cfi_endproc
 971              	.LFE10:
 973              		.section	.rodata.str1.4
 974 021b 00       		.align	2
 975              	.LC16:
 976 021c 322E300A 		.ascii	"2.0\012\000"
 976      00
 977              		.text
 978              		.align	2
 979              		.global	SpecRev_Help
 980              		.syntax unified
 981              		.arm
 982              		.fpu vfpv3
 984              	SpecRev_Help:
 985              	.LVL106:
 986              	.LFB11:
 281:/home/hkh/git/eapidk-code-r76-trunk/apps/EeePProg/linux/../CfgPHelper.c **** EApiStatus_t
 282:/home/hkh/git/eapidk-code-r76-trunk/apps/EeePProg/linux/../CfgPHelper.c **** SpecRev_Help(
 283:/home/hkh/git/eapidk-code-r76-trunk/apps/EeePProg/linux/../CfgPHelper.c ****     __IN  struct CfgElementDesc_s *pElementDesc, 
 284:/home/hkh/git/eapidk-code-r76-trunk/apps/EeePProg/linux/../CfgPHelper.c ****     __OUT char *szHelpBuf, 
 285:/home/hkh/git/eapidk-code-r76-trunk/apps/EeePProg/linux/../CfgPHelper.c ****     __IN  size_t stHBufLen 
 286:/home/hkh/git/eapidk-code-r76-trunk/apps/EeePProg/linux/../CfgPHelper.c ****   )
 287:/home/hkh/git/eapidk-code-r76-trunk/apps/EeePProg/linux/../CfgPHelper.c **** { 
 987              		.loc 1 287 1 is_stmt 1 view -0
 988              		.cfi_startproc
 989              		@ args = 0, pretend = 0, frame = 0
 990              		@ frame_needed = 0, uses_anonymous_args = 0
 288:/home/hkh/git/eapidk-code-r76-trunk/apps/EeePProg/linux/../CfgPHelper.c ****   pElementDesc=pElementDesc;
 991              		.loc 1 288 3 view .LVU265
 289:/home/hkh/git/eapidk-code-r76-trunk/apps/EeePProg/linux/../CfgPHelper.c ****   EApiSprintfA(szHelpBuf , stHBufLen , "2.0\n");
 992              		.loc 1 289 3 view .LVU266
 287:/home/hkh/git/eapidk-code-r76-trunk/apps/EeePProg/linux/../CfgPHelper.c ****   pElementDesc=pElementDesc;
 993              		.loc 1 287 1 is_stmt 0 view .LVU267
 994 0454 0100A0E1 		mov	r0, r1
 995              	.LVL107:
 996              		.loc 1 289 3 view .LVU268
 997 0458 0210A0E1 		mov	r1, r2
 998              	.LVL108:
 999              		.loc 1 289 3 view .LVU269
ARM GAS  /tmp/cc2djyQn.s 			page 27


 1000 045c 10209FE5 		ldr	r2, .L75
 1001              	.LVL109:
 287:/home/hkh/git/eapidk-code-r76-trunk/apps/EeePProg/linux/../CfgPHelper.c ****   pElementDesc=pElementDesc;
 1002              		.loc 1 287 1 view .LVU270
 1003 0460 10402DE9 		push	{r4, lr}
 1004              		.cfi_def_cfa_offset 8
 1005              		.cfi_offset 4, -8
 1006              		.cfi_offset 14, -4
 1007              		.loc 1 289 3 view .LVU271
 1008              	.LPIC26:
 1009 0464 02208FE0 		add	r2, pc, r2
 1010 0468 FEFFFFEB 		bl	EApiSprintfA(PLT)
 1011              	.LVL110:
 290:/home/hkh/git/eapidk-code-r76-trunk/apps/EeePProg/linux/../CfgPHelper.c ****   return EAPI_STATUS_SUCCESS;
 1012              		.loc 1 290 3 is_stmt 1 view .LVU272
 291:/home/hkh/git/eapidk-code-r76-trunk/apps/EeePProg/linux/../CfgPHelper.c **** }
 1013              		.loc 1 291 1 is_stmt 0 view .LVU273
 1014 046c 0000A0E3 		mov	r0, #0
 1015 0470 1080BDE8 		pop	{r4, pc}
 1016              	.L76:
 1017              		.align	2
 1018              	.L75:
 1019 0474 08000000 		.word	.LC16-(.LPIC26+8)
 1020              		.cfi_endproc
 1021              	.LFE11:
 1023              		.section	.rodata.str1.4
 1024 0221 000000   		.align	2
 1025              	.LC17:
 1026 0224 33204C65 		.ascii	"3 Letter PNPID e.g. PMG,KEM\000"
 1026      74746572 
 1026      20504E50 
 1026      49442065 
 1026      2E672E20 
 1027              		.text
 1028              		.align	2
 1029              		.global	PNPID_Help
 1030              		.syntax unified
 1031              		.arm
 1032              		.fpu vfpv3
 1034              	PNPID_Help:
 1035              	.LVL111:
 1036              	.LFB12:
 292:/home/hkh/git/eapidk-code-r76-trunk/apps/EeePProg/linux/../CfgPHelper.c **** EApiStatus_t
 293:/home/hkh/git/eapidk-code-r76-trunk/apps/EeePProg/linux/../CfgPHelper.c **** PNPID_Help(
 294:/home/hkh/git/eapidk-code-r76-trunk/apps/EeePProg/linux/../CfgPHelper.c ****     __IN  struct CfgElementDesc_s *pElementDesc, 
 295:/home/hkh/git/eapidk-code-r76-trunk/apps/EeePProg/linux/../CfgPHelper.c ****     __OUT char *szHelpBuf, 
 296:/home/hkh/git/eapidk-code-r76-trunk/apps/EeePProg/linux/../CfgPHelper.c ****     __IN  size_t stHBufLen 
 297:/home/hkh/git/eapidk-code-r76-trunk/apps/EeePProg/linux/../CfgPHelper.c ****   )
 298:/home/hkh/git/eapidk-code-r76-trunk/apps/EeePProg/linux/../CfgPHelper.c **** { 
 1037              		.loc 1 298 1 is_stmt 1 view -0
 1038              		.cfi_startproc
 1039              		@ args = 0, pretend = 0, frame = 0
 1040              		@ frame_needed = 0, uses_anonymous_args = 0
 299:/home/hkh/git/eapidk-code-r76-trunk/apps/EeePProg/linux/../CfgPHelper.c ****   pElementDesc=pElementDesc;
 1041              		.loc 1 299 3 view .LVU275
 300:/home/hkh/git/eapidk-code-r76-trunk/apps/EeePProg/linux/../CfgPHelper.c ****   EApiSprintfA(szHelpBuf , stHBufLen , "3 Letter PNPID e.g. PMG,KEM");
 1042              		.loc 1 300 3 view .LVU276
ARM GAS  /tmp/cc2djyQn.s 			page 28


 298:/home/hkh/git/eapidk-code-r76-trunk/apps/EeePProg/linux/../CfgPHelper.c ****   pElementDesc=pElementDesc;
 1043              		.loc 1 298 1 is_stmt 0 view .LVU277
 1044 0478 0100A0E1 		mov	r0, r1
 1045              	.LVL112:
 1046              		.loc 1 300 3 view .LVU278
 1047 047c 0210A0E1 		mov	r1, r2
 1048              	.LVL113:
 1049              		.loc 1 300 3 view .LVU279
 1050 0480 10209FE5 		ldr	r2, .L79
 1051              	.LVL114:
 298:/home/hkh/git/eapidk-code-r76-trunk/apps/EeePProg/linux/../CfgPHelper.c ****   pElementDesc=pElementDesc;
 1052              		.loc 1 298 1 view .LVU280
 1053 0484 10402DE9 		push	{r4, lr}
 1054              		.cfi_def_cfa_offset 8
 1055              		.cfi_offset 4, -8
 1056              		.cfi_offset 14, -4
 1057              		.loc 1 300 3 view .LVU281
 1058              	.LPIC27:
 1059 0488 02208FE0 		add	r2, pc, r2
 1060 048c FEFFFFEB 		bl	EApiSprintfA(PLT)
 1061              	.LVL115:
 301:/home/hkh/git/eapidk-code-r76-trunk/apps/EeePProg/linux/../CfgPHelper.c ****   return EAPI_STATUS_SUCCESS;
 1062              		.loc 1 301 3 is_stmt 1 view .LVU282
 302:/home/hkh/git/eapidk-code-r76-trunk/apps/EeePProg/linux/../CfgPHelper.c **** }
 1063              		.loc 1 302 1 is_stmt 0 view .LVU283
 1064 0490 0000A0E3 		mov	r0, #0
 1065 0494 1080BDE8 		pop	{r4, pc}
 1066              	.L80:
 1067              		.align	2
 1068              	.L79:
 1069 0498 08000000 		.word	.LC17-(.LPIC27+8)
 1070              		.cfi_endproc
 1071              	.LFE12:
 1073              		.section	.rodata.str1.4
 1074              		.align	2
 1075              	.LC18:
 1076 0240 456E636F 		.ascii	"Encodded I2C EEPROM Device Selector Address 0xA0,0x"
 1076      64646564 
 1076      20493243 
 1076      20454550 
 1076      524F4D20 
 1077 0273 41322C30 		.ascii	"A2,0xA4,0xA6,0xA8,0xAA,0xAC,0xAE\012\000"
 1077      7841342C 
 1077      30784136 
 1077      2C307841 
 1077      382C3078 
 1078              		.text
 1079              		.align	2
 1080              		.global	I2C_EEPROM_Help
 1081              		.syntax unified
 1082              		.arm
 1083              		.fpu vfpv3
 1085              	I2C_EEPROM_Help:
 1086              	.LVL116:
 1087              	.LFB13:
 303:/home/hkh/git/eapidk-code-r76-trunk/apps/EeePProg/linux/../CfgPHelper.c **** EApiStatus_t
 304:/home/hkh/git/eapidk-code-r76-trunk/apps/EeePProg/linux/../CfgPHelper.c **** I2C_EEPROM_Help(
ARM GAS  /tmp/cc2djyQn.s 			page 29


 305:/home/hkh/git/eapidk-code-r76-trunk/apps/EeePProg/linux/../CfgPHelper.c ****     __IN  struct CfgElementDesc_s *pElementDesc, 
 306:/home/hkh/git/eapidk-code-r76-trunk/apps/EeePProg/linux/../CfgPHelper.c ****     __OUT char *szHelpBuf, 
 307:/home/hkh/git/eapidk-code-r76-trunk/apps/EeePProg/linux/../CfgPHelper.c ****     __IN  size_t stHBufLen 
 308:/home/hkh/git/eapidk-code-r76-trunk/apps/EeePProg/linux/../CfgPHelper.c ****   )
 309:/home/hkh/git/eapidk-code-r76-trunk/apps/EeePProg/linux/../CfgPHelper.c **** { 
 1088              		.loc 1 309 1 is_stmt 1 view -0
 1089              		.cfi_startproc
 1090              		@ args = 0, pretend = 0, frame = 0
 1091              		@ frame_needed = 0, uses_anonymous_args = 0
 310:/home/hkh/git/eapidk-code-r76-trunk/apps/EeePProg/linux/../CfgPHelper.c ****   pElementDesc=pElementDesc;
 1092              		.loc 1 310 3 view .LVU285
 311:/home/hkh/git/eapidk-code-r76-trunk/apps/EeePProg/linux/../CfgPHelper.c ****   EApiSprintfA(szHelpBuf , stHBufLen , 
 1093              		.loc 1 311 3 view .LVU286
 309:/home/hkh/git/eapidk-code-r76-trunk/apps/EeePProg/linux/../CfgPHelper.c ****   pElementDesc=pElementDesc;
 1094              		.loc 1 309 1 is_stmt 0 view .LVU287
 1095 049c 0100A0E1 		mov	r0, r1
 1096              	.LVL117:
 1097              		.loc 1 311 3 view .LVU288
 1098 04a0 0210A0E1 		mov	r1, r2
 1099              	.LVL118:
 1100              		.loc 1 311 3 view .LVU289
 1101 04a4 10209FE5 		ldr	r2, .L83
 1102              	.LVL119:
 309:/home/hkh/git/eapidk-code-r76-trunk/apps/EeePProg/linux/../CfgPHelper.c ****   pElementDesc=pElementDesc;
 1103              		.loc 1 309 1 view .LVU290
 1104 04a8 10402DE9 		push	{r4, lr}
 1105              		.cfi_def_cfa_offset 8
 1106              		.cfi_offset 4, -8
 1107              		.cfi_offset 14, -4
 1108              		.loc 1 311 3 view .LVU291
 1109              	.LPIC28:
 1110 04ac 02208FE0 		add	r2, pc, r2
 1111 04b0 FEFFFFEB 		bl	EApiSprintfA(PLT)
 1112              	.LVL120:
 312:/home/hkh/git/eapidk-code-r76-trunk/apps/EeePProg/linux/../CfgPHelper.c **** 		  "Encodded I2C EEPROM Device Selector Address 0xA0,0xA2,0xA4,0xA6,0xA8,0xAA,0xAC,0xAE\n");
 313:/home/hkh/git/eapidk-code-r76-trunk/apps/EeePProg/linux/../CfgPHelper.c ****   return EAPI_STATUS_SUCCESS;
 1113              		.loc 1 313 3 is_stmt 1 view .LVU292
 314:/home/hkh/git/eapidk-code-r76-trunk/apps/EeePProg/linux/../CfgPHelper.c **** }
 1114              		.loc 1 314 1 is_stmt 0 view .LVU293
 1115 04b4 0000A0E3 		mov	r0, #0
 1116 04b8 1080BDE8 		pop	{r4, pc}
 1117              	.L84:
 1118              		.align	2
 1119              	.L83:
 1120 04bc 08000000 		.word	.LC18-(.LPIC28+8)
 1121              		.cfi_endproc
 1122              	.LFE13:
 1124              		.section	.rodata.str1.4
 1125 0295 000000   		.align	2
 1126              	.LC19:
 1127 0298 53747269 		.ascii	"String_Element\000"
 1127      6E675F45 
 1127      6C656D65 
 1127      6E7400
 1128 02a7 00       		.align	2
 1129              	.LC20:
 1130 02a8 2F686F6D 		.ascii	"/home/hkh/git/eapidk-code-r76-trunk/apps/EeePProg/l"
ARM GAS  /tmp/cc2djyQn.s 			page 30


 1130      652F686B 
 1130      682F6769 
 1130      742F6561 
 1130      7069646B 
 1131 02db 696E7578 		.ascii	"inux/../CfgPHelper.c\000"
 1131      2F2E2E2F 
 1131      43666750 
 1131      48656C70 
 1131      65722E63 
 1132              		.align	2
 1133              	.LC21:
 1134 02f0 70456C65 		.ascii	"pElementDesc->stBitOffset != 0\000"
 1134      6D656E74 
 1134      44657363 
 1134      2D3E7374 
 1134      4269744F 
 1135 030f 00       		.align	2
 1136              	.LC22:
 1137 0310 70456C65 		.ascii	"pElementDesc->stBitLength != 8*sizeof(char*)\000"
 1137      6D656E74 
 1137      44657363 
 1137      2D3E7374 
 1137      4269744C 
 1138 033d 000000   		.align	2
 1139              	.LC23:
 1140 0340 70456C65 		.ascii	"pElementDesc->Instances.stElementSize != sizeof(cha"
 1140      6D656E74 
 1140      44657363 
 1140      2D3E496E 
 1140      7374616E 
 1141 0373 722A2900 		.ascii	"r*)\000"
 1142 0377 00       		.align	2
 1143              	.LC24:
 1144 0378 09537472 		.ascii	"\011String_Element = String Too Short, %s\012\000"
 1144      696E675F 
 1144      456C656D 
 1144      656E7420 
 1144      3D205374 
 1145              		.align	2
 1146              	.LC25:
 1147 03a0 09537472 		.ascii	"\011String_Element = String Too Long, %s\012\000"
 1147      696E675F 
 1147      456C656D 
 1147      656E7420 
 1147      3D205374 
 1148              		.text
 1149              		.align	2
 1150              		.global	String_Element
 1151              		.syntax unified
 1152              		.arm
 1153              		.fpu vfpv3
 1155              	String_Element:
 1156              	.LVL121:
 1157              	.LFB16:
 315:/home/hkh/git/eapidk-code-r76-trunk/apps/EeePProg/linux/../CfgPHelper.c **** 
 316:/home/hkh/git/eapidk-code-r76-trunk/apps/EeePProg/linux/../CfgPHelper.c **** /*
 317:/home/hkh/git/eapidk-code-r76-trunk/apps/EeePProg/linux/../CfgPHelper.c ****  *
ARM GAS  /tmp/cc2djyQn.s 			page 31


 318:/home/hkh/git/eapidk-code-r76-trunk/apps/EeePProg/linux/../CfgPHelper.c ****  *  Clean Functions
 319:/home/hkh/git/eapidk-code-r76-trunk/apps/EeePProg/linux/../CfgPHelper.c ****  *
 320:/home/hkh/git/eapidk-code-r76-trunk/apps/EeePProg/linux/../CfgPHelper.c ****  *
 321:/home/hkh/git/eapidk-code-r76-trunk/apps/EeePProg/linux/../CfgPHelper.c ****  */
 322:/home/hkh/git/eapidk-code-r76-trunk/apps/EeePProg/linux/../CfgPHelper.c **** EApiStatus_t
 323:/home/hkh/git/eapidk-code-r76-trunk/apps/EeePProg/linux/../CfgPHelper.c **** Dealloc_Element(
 324:/home/hkh/git/eapidk-code-r76-trunk/apps/EeePProg/linux/../CfgPHelper.c ****     __IN    struct  CfgElementDesc_s *pElementDesc, 
 325:/home/hkh/git/eapidk-code-r76-trunk/apps/EeePProg/linux/../CfgPHelper.c ****     __INOUT void   *pCurElement
 326:/home/hkh/git/eapidk-code-r76-trunk/apps/EeePProg/linux/../CfgPHelper.c ****   )
 327:/home/hkh/git/eapidk-code-r76-trunk/apps/EeePProg/linux/../CfgPHelper.c **** { 
 328:/home/hkh/git/eapidk-code-r76-trunk/apps/EeePProg/linux/../CfgPHelper.c ****   EApiStatus_t StatusCode=EAPI_STATUS_SUCCESS;
 329:/home/hkh/git/eapidk-code-r76-trunk/apps/EeePProg/linux/../CfgPHelper.c ****   EAPI_APP_ASSERT_PARAMATER_CHECK_S(
 330:/home/hkh/git/eapidk-code-r76-trunk/apps/EeePProg/linux/../CfgPHelper.c ****                 Dealloc_Element,
 331:/home/hkh/git/eapidk-code-r76-trunk/apps/EeePProg/linux/../CfgPHelper.c ****                 EAPI_STATUS_INVALID_PARAMETER,
 332:/home/hkh/git/eapidk-code-r76-trunk/apps/EeePProg/linux/../CfgPHelper.c ****                 pElementDesc->stBitOffset != 0
 333:/home/hkh/git/eapidk-code-r76-trunk/apps/EeePProg/linux/../CfgPHelper.c ****         );
 334:/home/hkh/git/eapidk-code-r76-trunk/apps/EeePProg/linux/../CfgPHelper.c ****   EAPI_APP_ASSERT_PARAMATER_CHECK_S(
 335:/home/hkh/git/eapidk-code-r76-trunk/apps/EeePProg/linux/../CfgPHelper.c ****                 Dealloc_Element,
 336:/home/hkh/git/eapidk-code-r76-trunk/apps/EeePProg/linux/../CfgPHelper.c ****                 EAPI_STATUS_INVALID_PARAMETER,
 337:/home/hkh/git/eapidk-code-r76-trunk/apps/EeePProg/linux/../CfgPHelper.c ****                 pElementDesc->stBitLength != 8*sizeof(char*)
 338:/home/hkh/git/eapidk-code-r76-trunk/apps/EeePProg/linux/../CfgPHelper.c ****         );
 339:/home/hkh/git/eapidk-code-r76-trunk/apps/EeePProg/linux/../CfgPHelper.c ****   EAPI_APP_ASSERT_PARAMATER_CHECK_S(
 340:/home/hkh/git/eapidk-code-r76-trunk/apps/EeePProg/linux/../CfgPHelper.c ****                 Dealloc_Element,
 341:/home/hkh/git/eapidk-code-r76-trunk/apps/EeePProg/linux/../CfgPHelper.c ****                 EAPI_STATUS_INVALID_PARAMETER,
 342:/home/hkh/git/eapidk-code-r76-trunk/apps/EeePProg/linux/../CfgPHelper.c ****                 pElementDesc->Instances.stElementSize != sizeof(char*)
 343:/home/hkh/git/eapidk-code-r76-trunk/apps/EeePProg/linux/../CfgPHelper.c ****         );
 344:/home/hkh/git/eapidk-code-r76-trunk/apps/EeePProg/linux/../CfgPHelper.c ****   if(*(char**)pCurElement!=NULL){
 345:/home/hkh/git/eapidk-code-r76-trunk/apps/EeePProg/linux/../CfgPHelper.c ****     free(*(char**)pCurElement);
 346:/home/hkh/git/eapidk-code-r76-trunk/apps/EeePProg/linux/../CfgPHelper.c ****     *(char**)pCurElement=NULL;
 347:/home/hkh/git/eapidk-code-r76-trunk/apps/EeePProg/linux/../CfgPHelper.c ****   }
 348:/home/hkh/git/eapidk-code-r76-trunk/apps/EeePProg/linux/../CfgPHelper.c **** EAPI_APP_ASSERT_EXIT
 349:/home/hkh/git/eapidk-code-r76-trunk/apps/EeePProg/linux/../CfgPHelper.c ****   return EAPI_STATUS_SUCCESS;
 350:/home/hkh/git/eapidk-code-r76-trunk/apps/EeePProg/linux/../CfgPHelper.c **** }
 351:/home/hkh/git/eapidk-code-r76-trunk/apps/EeePProg/linux/../CfgPHelper.c **** 
 352:/home/hkh/git/eapidk-code-r76-trunk/apps/EeePProg/linux/../CfgPHelper.c **** EApiStatus_t
 353:/home/hkh/git/eapidk-code-r76-trunk/apps/EeePProg/linux/../CfgPHelper.c **** GenClear_Element(
 354:/home/hkh/git/eapidk-code-r76-trunk/apps/EeePProg/linux/../CfgPHelper.c ****     struct  CfgElementDesc_s *pElementDesc, 
 355:/home/hkh/git/eapidk-code-r76-trunk/apps/EeePProg/linux/../CfgPHelper.c ****     __OUT void    *pvCurElement                 
 356:/home/hkh/git/eapidk-code-r76-trunk/apps/EeePProg/linux/../CfgPHelper.c ****   )
 357:/home/hkh/git/eapidk-code-r76-trunk/apps/EeePProg/linux/../CfgPHelper.c **** { 
 358:/home/hkh/git/eapidk-code-r76-trunk/apps/EeePProg/linux/../CfgPHelper.c ****   EApiStatus_t StatusCode=EAPI_STATUS_SUCCESS;
 359:/home/hkh/git/eapidk-code-r76-trunk/apps/EeePProg/linux/../CfgPHelper.c ****   uint8_t *pu8CurElement=pvCurElement;
 360:/home/hkh/git/eapidk-code-r76-trunk/apps/EeePProg/linux/../CfgPHelper.c ****   size_t stByteOffset=pElementDesc->stBitOffset/8;
 361:/home/hkh/git/eapidk-code-r76-trunk/apps/EeePProg/linux/../CfgPHelper.c ****   size_t stBitOffset =pElementDesc->stBitOffset%8;
 362:/home/hkh/git/eapidk-code-r76-trunk/apps/EeePProg/linux/../CfgPHelper.c ****   size_t stByteLen   =((pElementDesc->stBitLength + stBitOffset)/8) ;
 363:/home/hkh/git/eapidk-code-r76-trunk/apps/EeePProg/linux/../CfgPHelper.c ****   size_t stBitLen    =(pElementDesc->stBitLength + stBitOffset - 8)%8;
 364:/home/hkh/git/eapidk-code-r76-trunk/apps/EeePProg/linux/../CfgPHelper.c ****   EAPI_APP_ASSERT_PARAMATER_CHECK_S(
 365:/home/hkh/git/eapidk-code-r76-trunk/apps/EeePProg/linux/../CfgPHelper.c ****                 Dealloc_Element,
 366:/home/hkh/git/eapidk-code-r76-trunk/apps/EeePProg/linux/../CfgPHelper.c ****                 EAPI_STATUS_INVALID_PARAMETER,
 367:/home/hkh/git/eapidk-code-r76-trunk/apps/EeePProg/linux/../CfgPHelper.c ****                 pElementDesc->stBitLength+ pElementDesc->stBitOffset> pElementDesc->Instances.stEle
 368:/home/hkh/git/eapidk-code-r76-trunk/apps/EeePProg/linux/../CfgPHelper.c ****         );
 369:/home/hkh/git/eapidk-code-r76-trunk/apps/EeePProg/linux/../CfgPHelper.c ****   if(stBitOffset){
 370:/home/hkh/git/eapidk-code-r76-trunk/apps/EeePProg/linux/../CfgPHelper.c ****     *(pu8CurElement+stByteOffset)=(uint8_t)(*(pu8CurElement+stByteOffset)&((1<<stBitOffset)-1));
 371:/home/hkh/git/eapidk-code-r76-trunk/apps/EeePProg/linux/../CfgPHelper.c ****     ++stByteOffset;
 372:/home/hkh/git/eapidk-code-r76-trunk/apps/EeePProg/linux/../CfgPHelper.c ****   }
 373:/home/hkh/git/eapidk-code-r76-trunk/apps/EeePProg/linux/../CfgPHelper.c ****   if(stByteLen){
 374:/home/hkh/git/eapidk-code-r76-trunk/apps/EeePProg/linux/../CfgPHelper.c ****     memset(pu8CurElement+stByteOffset, 0x00, stByteLen);
ARM GAS  /tmp/cc2djyQn.s 			page 32


 375:/home/hkh/git/eapidk-code-r76-trunk/apps/EeePProg/linux/../CfgPHelper.c ****     stByteOffset+=stByteLen;
 376:/home/hkh/git/eapidk-code-r76-trunk/apps/EeePProg/linux/../CfgPHelper.c ****     if(stBitLen){
 377:/home/hkh/git/eapidk-code-r76-trunk/apps/EeePProg/linux/../CfgPHelper.c ****       *(pu8CurElement+stByteOffset)=(uint8_t)(*(pu8CurElement+stByteOffset)&(UINT8_MAX<<stBitLen));
 378:/home/hkh/git/eapidk-code-r76-trunk/apps/EeePProg/linux/../CfgPHelper.c ****     }
 379:/home/hkh/git/eapidk-code-r76-trunk/apps/EeePProg/linux/../CfgPHelper.c ****   }
 380:/home/hkh/git/eapidk-code-r76-trunk/apps/EeePProg/linux/../CfgPHelper.c **** EAPI_APP_ASSERT_EXIT
 381:/home/hkh/git/eapidk-code-r76-trunk/apps/EeePProg/linux/../CfgPHelper.c ****   return EAPI_STATUS_SUCCESS;
 382:/home/hkh/git/eapidk-code-r76-trunk/apps/EeePProg/linux/../CfgPHelper.c **** }
 383:/home/hkh/git/eapidk-code-r76-trunk/apps/EeePProg/linux/../CfgPHelper.c **** 
 384:/home/hkh/git/eapidk-code-r76-trunk/apps/EeePProg/linux/../CfgPHelper.c **** /*
 385:/home/hkh/git/eapidk-code-r76-trunk/apps/EeePProg/linux/../CfgPHelper.c ****  *
 386:/home/hkh/git/eapidk-code-r76-trunk/apps/EeePProg/linux/../CfgPHelper.c ****  *  Parse Functions
 387:/home/hkh/git/eapidk-code-r76-trunk/apps/EeePProg/linux/../CfgPHelper.c ****  *
 388:/home/hkh/git/eapidk-code-r76-trunk/apps/EeePProg/linux/../CfgPHelper.c ****  *
 389:/home/hkh/git/eapidk-code-r76-trunk/apps/EeePProg/linux/../CfgPHelper.c ****  */
 390:/home/hkh/git/eapidk-code-r76-trunk/apps/EeePProg/linux/../CfgPHelper.c **** EApiStatus_t
 391:/home/hkh/git/eapidk-code-r76-trunk/apps/EeePProg/linux/../CfgPHelper.c **** String_Element(
 392:/home/hkh/git/eapidk-code-r76-trunk/apps/EeePProg/linux/../CfgPHelper.c ****     struct  CfgElementDesc_s *pElementDesc, 
 393:/home/hkh/git/eapidk-code-r76-trunk/apps/EeePProg/linux/../CfgPHelper.c ****     void  *pCurElement, 
 394:/home/hkh/git/eapidk-code-r76-trunk/apps/EeePProg/linux/../CfgPHelper.c ****     char   *szValue
 395:/home/hkh/git/eapidk-code-r76-trunk/apps/EeePProg/linux/../CfgPHelper.c ****   )
 396:/home/hkh/git/eapidk-code-r76-trunk/apps/EeePProg/linux/../CfgPHelper.c **** { 
 1158              		.loc 1 396 1 is_stmt 1 view -0
 1159              		.cfi_startproc
 1160              		@ args = 0, pretend = 0, frame = 0
 1161              		@ frame_needed = 0, uses_anonymous_args = 0
 397:/home/hkh/git/eapidk-code-r76-trunk/apps/EeePProg/linux/../CfgPHelper.c ****   EApiStatus_t StatusCode=EAPI_STATUS_SUCCESS;
 1162              		.loc 1 397 3 view .LVU295
 398:/home/hkh/git/eapidk-code-r76-trunk/apps/EeePProg/linux/../CfgPHelper.c ****   StringDesc_t *pStringDesc=pElementDesc->pExtraInfo; 
 1163              		.loc 1 398 3 view .LVU296
 399:/home/hkh/git/eapidk-code-r76-trunk/apps/EeePProg/linux/../CfgPHelper.c ****   size_t stStrLength;
 400:/home/hkh/git/eapidk-code-r76-trunk/apps/EeePProg/linux/../CfgPHelper.c ****   EAPI_APP_ASSERT_PARAMATER_CHECK_S(
 1164              		.loc 1 400 3 is_stmt 0 view .LVU297
 1165 04c0 283090E5 		ldr	r3, [r0, #40]
 396:/home/hkh/git/eapidk-code-r76-trunk/apps/EeePProg/linux/../CfgPHelper.c ****   EApiStatus_t StatusCode=EAPI_STATUS_SUCCESS;
 1166              		.loc 1 396 1 view .LVU298
 1167 04c4 F0402DE9 		push	{r4, r5, r6, r7, lr}
 1168              		.cfi_def_cfa_offset 20
 1169              		.cfi_offset 4, -20
 1170              		.cfi_offset 5, -16
 1171              		.cfi_offset 6, -12
 1172              		.cfi_offset 7, -8
 1173              		.cfi_offset 14, -4
 1174 04c8 14D04DE2 		sub	sp, sp, #20
 1175              		.cfi_def_cfa_offset 40
 398:/home/hkh/git/eapidk-code-r76-trunk/apps/EeePProg/linux/../CfgPHelper.c ****   StringDesc_t *pStringDesc=pElementDesc->pExtraInfo; 
 1176              		.loc 1 398 17 view .LVU299
 1177 04cc 345090E5 		ldr	r5, [r0, #52]
 1178              	.LVL122:
 399:/home/hkh/git/eapidk-code-r76-trunk/apps/EeePProg/linux/../CfgPHelper.c ****   size_t stStrLength;
 1179              		.loc 1 399 3 is_stmt 1 view .LVU300
 1180              		.loc 1 400 3 view .LVU301
 1181 04d0 000053E3 		cmp	r3, #0
 1182 04d4 2D00001A 		bne	.L100
 1183              		.loc 1 400 3 discriminator 2 view .LVU302
 401:/home/hkh/git/eapidk-code-r76-trunk/apps/EeePProg/linux/../CfgPHelper.c ****                 String_Element,
 402:/home/hkh/git/eapidk-code-r76-trunk/apps/EeePProg/linux/../CfgPHelper.c ****                 EAPI_STATUS_INVALID_PARAMETER,
ARM GAS  /tmp/cc2djyQn.s 			page 33


 403:/home/hkh/git/eapidk-code-r76-trunk/apps/EeePProg/linux/../CfgPHelper.c ****                 pElementDesc->stBitOffset != 0
 404:/home/hkh/git/eapidk-code-r76-trunk/apps/EeePProg/linux/../CfgPHelper.c ****         );
 1184              		.loc 1 404 10 discriminator 2 view .LVU303
 405:/home/hkh/git/eapidk-code-r76-trunk/apps/EeePProg/linux/../CfgPHelper.c ****   EAPI_APP_ASSERT_PARAMATER_CHECK_S(
 1185              		.loc 1 405 3 discriminator 2 view .LVU304
 1186 04d8 2C3090E5 		ldr	r3, [r0, #44]
 1187 04dc 200053E3 		cmp	r3, #32
 1188 04e0 1900001A 		bne	.L101
 1189              		.loc 1 405 3 discriminator 2 view .LVU305
 406:/home/hkh/git/eapidk-code-r76-trunk/apps/EeePProg/linux/../CfgPHelper.c ****                 String_Element,
 407:/home/hkh/git/eapidk-code-r76-trunk/apps/EeePProg/linux/../CfgPHelper.c ****                 EAPI_STATUS_INVALID_PARAMETER,
 408:/home/hkh/git/eapidk-code-r76-trunk/apps/EeePProg/linux/../CfgPHelper.c ****                 pElementDesc->stBitLength != 8*sizeof(char*)
 409:/home/hkh/git/eapidk-code-r76-trunk/apps/EeePProg/linux/../CfgPHelper.c ****         );
 1190              		.loc 1 409 10 discriminator 2 view .LVU306
 410:/home/hkh/git/eapidk-code-r76-trunk/apps/EeePProg/linux/../CfgPHelper.c ****   EAPI_APP_ASSERT_PARAMATER_CHECK_S(
 1191              		.loc 1 410 3 discriminator 2 view .LVU307
 1192 04e4 143090E5 		ldr	r3, [r0, #20]
 1193 04e8 040053E3 		cmp	r3, #4
 1194 04ec 3200001A 		bne	.L102
 411:/home/hkh/git/eapidk-code-r76-trunk/apps/EeePProg/linux/../CfgPHelper.c ****                 String_Element,
 412:/home/hkh/git/eapidk-code-r76-trunk/apps/EeePProg/linux/../CfgPHelper.c ****                 EAPI_STATUS_INVALID_PARAMETER,
 413:/home/hkh/git/eapidk-code-r76-trunk/apps/EeePProg/linux/../CfgPHelper.c ****                 pElementDesc->Instances.stElementSize != sizeof(char*)
 414:/home/hkh/git/eapidk-code-r76-trunk/apps/EeePProg/linux/../CfgPHelper.c ****         );
 415:/home/hkh/git/eapidk-code-r76-trunk/apps/EeePProg/linux/../CfgPHelper.c ****   if(pStringDesc!=NULL){
 1195              		.loc 1 415 5 is_stmt 0 discriminator 2 view .LVU308
 1196 04f0 000055E3 		cmp	r5, #0
 1197 04f4 0160A0E1 		mov	r6, r1
 1198 04f8 0240A0E1 		mov	r4, r2
 410:/home/hkh/git/eapidk-code-r76-trunk/apps/EeePProg/linux/../CfgPHelper.c ****   EAPI_APP_ASSERT_PARAMATER_CHECK_S(
 1199              		.loc 1 410 3 is_stmt 1 discriminator 2 view .LVU309
 414:/home/hkh/git/eapidk-code-r76-trunk/apps/EeePProg/linux/../CfgPHelper.c ****   if(pStringDesc!=NULL){
 1200              		.loc 1 414 10 discriminator 2 view .LVU310
 1201              		.loc 1 415 3 discriminator 2 view .LVU311
 1202              		.loc 1 415 5 is_stmt 0 discriminator 2 view .LVU312
 1203 04fc 0C00000A 		beq	.L91
 416:/home/hkh/git/eapidk-code-r76-trunk/apps/EeePProg/linux/../CfgPHelper.c ****     if(!pStringDesc->uiPreserveTrailingSpaces){
 1204              		.loc 1 416 5 is_stmt 1 view .LVU313
 1205              		.loc 1 416 7 is_stmt 0 view .LVU314
 1206 0500 083095E5 		ldr	r3, [r5, #8]
 1207 0504 000053E3 		cmp	r3, #0
 1208 0508 3600000A 		beq	.L103
 1209              	.LVL123:
 1210              	.L92:
 417:/home/hkh/git/eapidk-code-r76-trunk/apps/EeePProg/linux/../CfgPHelper.c ****       stripWhiteSpaces(szValue);
 418:/home/hkh/git/eapidk-code-r76-trunk/apps/EeePProg/linux/../CfgPHelper.c ****     }
 419:/home/hkh/git/eapidk-code-r76-trunk/apps/EeePProg/linux/../CfgPHelper.c ****     stStrLength=strlen(szValue);
 1211              		.loc 1 419 5 is_stmt 1 view .LVU315
 1212              		.loc 1 419 17 is_stmt 0 view .LVU316
 1213 050c 0400A0E1 		mov	r0, r4
 1214 0510 FEFFFFEB 		bl	strlen(PLT)
 1215              	.LVL124:
 420:/home/hkh/git/eapidk-code-r76-trunk/apps/EeePProg/linux/../CfgPHelper.c ****     if(pStringDesc->uiMinLength){
 421:/home/hkh/git/eapidk-code-r76-trunk/apps/EeePProg/linux/../CfgPHelper.c ****       if(pStringDesc->uiMinLength>stStrLength){
 1216              		.loc 1 421 9 view .LVU317
 1217 0514 003095E5 		ldr	r3, [r5]
 419:/home/hkh/git/eapidk-code-r76-trunk/apps/EeePProg/linux/../CfgPHelper.c ****     if(pStringDesc->uiMinLength){
 1218              		.loc 1 419 17 view .LVU318
ARM GAS  /tmp/cc2djyQn.s 			page 34


 1219 0518 0070A0E1 		mov	r7, r0
 1220              	.LVL125:
 420:/home/hkh/git/eapidk-code-r76-trunk/apps/EeePProg/linux/../CfgPHelper.c ****     if(pStringDesc->uiMinLength){
 1221              		.loc 1 420 5 is_stmt 1 view .LVU319
 1222              		.loc 1 421 7 view .LVU320
 1223              		.loc 1 421 9 is_stmt 0 view .LVU321
 1224 051c 000053E1 		cmp	r3, r0
 1225 0520 3800008A 		bhi	.L104
 1226              	.LVL126:
 1227              	.L93:
 422:/home/hkh/git/eapidk-code-r76-trunk/apps/EeePProg/linux/../CfgPHelper.c ****         printf("\tString_Element = String Too Short, %s\n", szValue);
 423:/home/hkh/git/eapidk-code-r76-trunk/apps/EeePProg/linux/../CfgPHelper.c ****       }
 424:/home/hkh/git/eapidk-code-r76-trunk/apps/EeePProg/linux/../CfgPHelper.c ****     }
 425:/home/hkh/git/eapidk-code-r76-trunk/apps/EeePProg/linux/../CfgPHelper.c ****     if(pStringDesc->uiMaxLength){
 1228              		.loc 1 425 5 is_stmt 1 view .LVU322
 1229              		.loc 1 425 19 is_stmt 0 view .LVU323
 1230 0524 043095E5 		ldr	r3, [r5, #4]
 426:/home/hkh/git/eapidk-code-r76-trunk/apps/EeePProg/linux/../CfgPHelper.c ****       if(pStringDesc->uiMaxLength<stStrLength){
 1231              		.loc 1 426 7 is_stmt 1 view .LVU324
 1232              		.loc 1 426 9 is_stmt 0 view .LVU325
 1233 0528 000053E3 		cmp	r3, #0
 1234 052c 07005311 		cmpne	r3, r7
 1235 0530 2F00003A 		bcc	.L105
 1236              	.LVL127:
 1237              	.L91:
 1238              	.L87:
 427:/home/hkh/git/eapidk-code-r76-trunk/apps/EeePProg/linux/../CfgPHelper.c ****         printf("\tString_Element = String Too Long, %s\n", szValue);
 428:/home/hkh/git/eapidk-code-r76-trunk/apps/EeePProg/linux/../CfgPHelper.c ****       }
 429:/home/hkh/git/eapidk-code-r76-trunk/apps/EeePProg/linux/../CfgPHelper.c ****     }
 430:/home/hkh/git/eapidk-code-r76-trunk/apps/EeePProg/linux/../CfgPHelper.c ****   }
 431:/home/hkh/git/eapidk-code-r76-trunk/apps/EeePProg/linux/../CfgPHelper.c ****   *(char **)pCurElement=EAPI_strdup(szValue);
 1239              		.loc 1 431 3 is_stmt 1 view .LVU326
 1240              		.loc 1 431 25 is_stmt 0 view .LVU327
 1241 0534 0400A0E1 		mov	r0, r4
 1242 0538 FEFFFFEB 		bl	strdup(PLT)
 1243              	.LVL128:
 432:/home/hkh/git/eapidk-code-r76-trunk/apps/EeePProg/linux/../CfgPHelper.c **** #if TEST_EEPCFG
 433:/home/hkh/git/eapidk-code-r76-trunk/apps/EeePProg/linux/../CfgPHelper.c **** /*   printf("\tString_Element = %s, %s\n", *(char**)pCurElement, szValue); */
 434:/home/hkh/git/eapidk-code-r76-trunk/apps/EeePProg/linux/../CfgPHelper.c **** #endif
 435:/home/hkh/git/eapidk-code-r76-trunk/apps/EeePProg/linux/../CfgPHelper.c **** EAPI_APP_ASSERT_EXIT
 436:/home/hkh/git/eapidk-code-r76-trunk/apps/EeePProg/linux/../CfgPHelper.c ****   return EAPI_STATUS_SUCCESS;
 1244              		.loc 1 436 3 is_stmt 1 view .LVU328
 431:/home/hkh/git/eapidk-code-r76-trunk/apps/EeePProg/linux/../CfgPHelper.c **** #if TEST_EEPCFG
 1245              		.loc 1 431 24 is_stmt 0 view .LVU329
 1246 053c 000086E5 		str	r0, [r6]
 437:/home/hkh/git/eapidk-code-r76-trunk/apps/EeePProg/linux/../CfgPHelper.c **** }
 1247              		.loc 1 437 1 view .LVU330
 1248 0540 0000A0E3 		mov	r0, #0
 1249 0544 14D08DE2 		add	sp, sp, #20
 1250              		.cfi_remember_state
 1251              		.cfi_def_cfa_offset 20
 1252              		@ sp needed
 1253 0548 F080BDE8 		pop	{r4, r5, r6, r7, pc}
 1254              	.LVL129:
 1255              	.L101:
 1256              		.cfi_restore_state
 405:/home/hkh/git/eapidk-code-r76-trunk/apps/EeePProg/linux/../CfgPHelper.c ****                 String_Element,
ARM GAS  /tmp/cc2djyQn.s 			page 35


 1257              		.loc 1 405 3 is_stmt 1 discriminator 1 view .LVU331
 405:/home/hkh/git/eapidk-code-r76-trunk/apps/EeePProg/linux/../CfgPHelper.c ****                 String_Element,
 1258              		.loc 1 405 3 discriminator 1 view .LVU332
 1259 054c C8C09FE5 		ldr	ip, .L106
 1260 0550 01ECE0E3 		mvn	lr, #256
 1261 0554 C4009FE5 		ldr	r0, .L106+4
 1262              	.LVL130:
 405:/home/hkh/git/eapidk-code-r76-trunk/apps/EeePProg/linux/../CfgPHelper.c ****                 String_Element,
 1263              		.loc 1 405 3 is_stmt 0 discriminator 1 view .LVU333
 1264 0558 953100E3 		movw	r3, #405
 1265 055c C0209FE5 		ldr	r2, .L106+8
 1266              	.LVL131:
 405:/home/hkh/git/eapidk-code-r76-trunk/apps/EeePProg/linux/../CfgPHelper.c ****                 String_Element,
 1267              		.loc 1 405 3 discriminator 1 view .LVU334
 1268 0560 C0109FE5 		ldr	r1, .L106+12
 1269              	.LVL132:
 405:/home/hkh/git/eapidk-code-r76-trunk/apps/EeePProg/linux/../CfgPHelper.c ****                 String_Element,
 1270              		.loc 1 405 3 discriminator 1 view .LVU335
 1271              	.LPIC35:
 1272 0564 0CC08FE0 		add	ip, pc, ip
 1273              	.LPIC36:
 1274 0568 00008FE0 		add	r0, pc, r0
 1275              	.LPIC33:
 1276 056c 02208FE0 		add	r2, pc, r2
 1277              	.LPIC34:
 1278 0570 01108FE0 		add	r1, pc, r1
 1279              	.L99:
 1280 0574 01108DE9 		stmib	sp, {r0, ip}
 1281 0578 4500A0E3 		mov	r0, #69
 1282 057c 00E08DE5 		str	lr, [sp]
 1283 0580 FEFFFFEB 		bl	siFormattedMessage_SC(PLT)
 1284              	.LVL133:
 405:/home/hkh/git/eapidk-code-r76-trunk/apps/EeePProg/linux/../CfgPHelper.c ****                 String_Element,
 1285              		.loc 1 405 3 is_stmt 1 discriminator 1 view .LVU336
 405:/home/hkh/git/eapidk-code-r76-trunk/apps/EeePProg/linux/../CfgPHelper.c ****                 String_Element,
 1286              		.loc 1 405 3 discriminator 1 view .LVU337
 405:/home/hkh/git/eapidk-code-r76-trunk/apps/EeePProg/linux/../CfgPHelper.c ****                 String_Element,
 1287              		.loc 1 405 3 discriminator 1 view .LVU338
 436:/home/hkh/git/eapidk-code-r76-trunk/apps/EeePProg/linux/../CfgPHelper.c **** }
 1288              		.loc 1 436 3 discriminator 1 view .LVU339
 1289              		.loc 1 437 1 is_stmt 0 discriminator 1 view .LVU340
 1290 0584 0000A0E3 		mov	r0, #0
 1291 0588 14D08DE2 		add	sp, sp, #20
 1292              		.cfi_remember_state
 1293              		.cfi_def_cfa_offset 20
 1294              		@ sp needed
 1295 058c F080BDE8 		pop	{r4, r5, r6, r7, pc}
 1296              	.LVL134:
 1297              	.L100:
 1298              		.cfi_restore_state
 400:/home/hkh/git/eapidk-code-r76-trunk/apps/EeePProg/linux/../CfgPHelper.c ****                 String_Element,
 1299              		.loc 1 400 3 is_stmt 1 discriminator 1 view .LVU341
 400:/home/hkh/git/eapidk-code-r76-trunk/apps/EeePProg/linux/../CfgPHelper.c ****                 String_Element,
 1300              		.loc 1 400 3 discriminator 1 view .LVU342
 1301 0590 94C09FE5 		ldr	ip, .L106+16
 1302 0594 01ECE0E3 		mvn	lr, #256
 1303 0598 90009FE5 		ldr	r0, .L106+20
ARM GAS  /tmp/cc2djyQn.s 			page 36


 1304              	.LVL135:
 400:/home/hkh/git/eapidk-code-r76-trunk/apps/EeePProg/linux/../CfgPHelper.c ****                 String_Element,
 1305              		.loc 1 400 3 is_stmt 0 discriminator 1 view .LVU343
 1306 059c 193EA0E3 		mov	r3, #400
 1307 05a0 8C209FE5 		ldr	r2, .L106+24
 1308              	.LVL136:
 400:/home/hkh/git/eapidk-code-r76-trunk/apps/EeePProg/linux/../CfgPHelper.c ****                 String_Element,
 1309              		.loc 1 400 3 discriminator 1 view .LVU344
 1310 05a4 8C109FE5 		ldr	r1, .L106+28
 1311              	.LVL137:
 400:/home/hkh/git/eapidk-code-r76-trunk/apps/EeePProg/linux/../CfgPHelper.c ****                 String_Element,
 1312              		.loc 1 400 3 discriminator 1 view .LVU345
 1313              	.LPIC31:
 1314 05a8 0CC08FE0 		add	ip, pc, ip
 1315              	.LPIC32:
 1316 05ac 00008FE0 		add	r0, pc, r0
 1317              	.LPIC29:
 1318 05b0 02208FE0 		add	r2, pc, r2
 1319              	.LPIC30:
 1320 05b4 01108FE0 		add	r1, pc, r1
 1321 05b8 EDFFFFEA 		b	.L99
 1322              	.LVL138:
 1323              	.L102:
 410:/home/hkh/git/eapidk-code-r76-trunk/apps/EeePProg/linux/../CfgPHelper.c ****                 String_Element,
 1324              		.loc 1 410 3 is_stmt 1 discriminator 1 view .LVU346
 410:/home/hkh/git/eapidk-code-r76-trunk/apps/EeePProg/linux/../CfgPHelper.c ****                 String_Element,
 1325              		.loc 1 410 3 discriminator 1 view .LVU347
 1326 05bc 78C09FE5 		ldr	ip, .L106+32
 1327 05c0 01ECE0E3 		mvn	lr, #256
 1328 05c4 74009FE5 		ldr	r0, .L106+36
 1329              	.LVL139:
 410:/home/hkh/git/eapidk-code-r76-trunk/apps/EeePProg/linux/../CfgPHelper.c ****                 String_Element,
 1330              		.loc 1 410 3 is_stmt 0 discriminator 1 view .LVU348
 1331 05c8 9A3100E3 		movw	r3, #410
 1332 05cc 70209FE5 		ldr	r2, .L106+40
 1333              	.LVL140:
 410:/home/hkh/git/eapidk-code-r76-trunk/apps/EeePProg/linux/../CfgPHelper.c ****                 String_Element,
 1334              		.loc 1 410 3 discriminator 1 view .LVU349
 1335 05d0 70109FE5 		ldr	r1, .L106+44
 1336              	.LVL141:
 410:/home/hkh/git/eapidk-code-r76-trunk/apps/EeePProg/linux/../CfgPHelper.c ****                 String_Element,
 1337              		.loc 1 410 3 discriminator 1 view .LVU350
 1338              	.LPIC39:
 1339 05d4 0CC08FE0 		add	ip, pc, ip
 1340              	.LPIC40:
 1341 05d8 00008FE0 		add	r0, pc, r0
 1342              	.LPIC37:
 1343 05dc 02208FE0 		add	r2, pc, r2
 1344              	.LPIC38:
 1345 05e0 01108FE0 		add	r1, pc, r1
 1346 05e4 E2FFFFEA 		b	.L99
 1347              	.LVL142:
 1348              	.L103:
 417:/home/hkh/git/eapidk-code-r76-trunk/apps/EeePProg/linux/../CfgPHelper.c ****     }
 1349              		.loc 1 417 7 is_stmt 1 view .LVU351
 1350 05e8 0200A0E1 		mov	r0, r2
 1351              	.LVL143:
ARM GAS  /tmp/cc2djyQn.s 			page 37


 417:/home/hkh/git/eapidk-code-r76-trunk/apps/EeePProg/linux/../CfgPHelper.c ****     }
 1352              		.loc 1 417 7 is_stmt 0 view .LVU352
 1353 05ec FEFFFFEB 		bl	stripWhiteSpaces(PLT)
 1354              	.LVL144:
 417:/home/hkh/git/eapidk-code-r76-trunk/apps/EeePProg/linux/../CfgPHelper.c ****     }
 1355              		.loc 1 417 7 view .LVU353
 1356 05f0 C5FFFFEA 		b	.L92
 1357              	.LVL145:
 1358              	.L105:
 427:/home/hkh/git/eapidk-code-r76-trunk/apps/EeePProg/linux/../CfgPHelper.c ****       }
 1359              		.loc 1 427 9 is_stmt 1 view .LVU354
 1360 05f4 50009FE5 		ldr	r0, .L106+48
 1361 05f8 0410A0E1 		mov	r1, r4
 1362              	.LPIC42:
 1363 05fc 00008FE0 		add	r0, pc, r0
 1364 0600 FEFFFFEB 		bl	printf(PLT)
 1365              	.LVL146:
 1366 0604 CAFFFFEA 		b	.L91
 1367              	.LVL147:
 1368              	.L104:
 422:/home/hkh/git/eapidk-code-r76-trunk/apps/EeePProg/linux/../CfgPHelper.c ****       }
 1369              		.loc 1 422 9 view .LVU355
 1370 0608 40009FE5 		ldr	r0, .L106+52
 1371              	.LVL148:
 422:/home/hkh/git/eapidk-code-r76-trunk/apps/EeePProg/linux/../CfgPHelper.c ****       }
 1372              		.loc 1 422 9 is_stmt 0 view .LVU356
 1373 060c 0410A0E1 		mov	r1, r4
 1374              	.LPIC41:
 1375 0610 00008FE0 		add	r0, pc, r0
 1376 0614 FEFFFFEB 		bl	printf(PLT)
 1377              	.LVL149:
 1378 0618 C1FFFFEA 		b	.L93
 1379              	.L107:
 1380              		.align	2
 1381              	.L106:
 1382 061c B0000000 		.word	.LC22-(.LPIC35+8)
 1383 0620 B0000000 		.word	.LC3-(.LPIC36+8)
 1384 0624 B0000000 		.word	.LC19-(.LPIC33+8)
 1385 0628 B0000000 		.word	.LC20-(.LPIC34+8)
 1386 062c 7C000000 		.word	.LC21-(.LPIC31+8)
 1387 0630 7C000000 		.word	.LC3-(.LPIC32+8)
 1388 0634 7C000000 		.word	.LC19-(.LPIC29+8)
 1389 0638 7C000000 		.word	.LC20-(.LPIC30+8)
 1390 063c 60000000 		.word	.LC23-(.LPIC39+8)
 1391 0640 60000000 		.word	.LC3-(.LPIC40+8)
 1392 0644 60000000 		.word	.LC19-(.LPIC37+8)
 1393 0648 60000000 		.word	.LC20-(.LPIC38+8)
 1394 064c 48000000 		.word	.LC25-(.LPIC42+8)
 1395 0650 38000000 		.word	.LC24-(.LPIC41+8)
 1396              		.cfi_endproc
 1397              	.LFE16:
 1399              		.section	.rodata.str1.4
 1400 03c7 00       		.align	2
 1401              	.LC26:
 1402 03c8 54422000 		.ascii	"TB \000"
 1403              		.align	2
 1404              	.LC27:
ARM GAS  /tmp/cc2djyQn.s 			page 38


 1405 03cc 50617273 		.ascii	"ParseAsciiEqu(szValue, &sllValue)\000"
 1405      65417363 
 1405      69694571 
 1405      7528737A 
 1405      56616C75 
 1406 03ee 0000     		.align	2
 1407              	.LC28:
 1408 03f0 094E756D 		.ascii	"\011Number_Element = Outside Range, %s\012\000"
 1408      6265725F 
 1408      456C656D 
 1408      656E7420 
 1408      3D204F75 
 1409 0415 000000   		.align	2
 1410              	.LC29:
 1411 0418 41737369 		.ascii	"AssignValue_VAB( sllValue, pCurElement, (signed int"
 1411      676E5661 
 1411      6C75655F 
 1411      56414228 
 1411      20736C6C 
 1412 044b 2970456C 		.ascii	")pElementDesc->stBitOffset , (signed int)pElementDe"
 1412      656D656E 
 1412      74446573 
 1412      632D3E73 
 1412      74426974 
 1413 047e 73632D3E 		.ascii	"sc->stBitLength , (signed int)pElementDesc->Instanc"
 1413      73744269 
 1413      744C656E 
 1413      67746820 
 1413      2C202873 
 1414 04b1 65732E73 		.ascii	"es.stElementSize )\000"
 1414      74456C65 
 1414      6D656E74 
 1414      53697A65 
 1414      202900
 1415              		.text
 1416              		.align	2
 1417              		.global	Number_Element
 1418              		.syntax unified
 1419              		.arm
 1420              		.fpu vfpv3
 1422              	Number_Element:
 1423              	.LVL150:
 1424              	.LFB18:
 438:/home/hkh/git/eapidk-code-r76-trunk/apps/EeePProg/linux/../CfgPHelper.c **** EApiStatus_t
 439:/home/hkh/git/eapidk-code-r76-trunk/apps/EeePProg/linux/../CfgPHelper.c **** GUID_Element(
 440:/home/hkh/git/eapidk-code-r76-trunk/apps/EeePProg/linux/../CfgPHelper.c ****     struct  CfgElementDesc_s *pElementDesc, 
 441:/home/hkh/git/eapidk-code-r76-trunk/apps/EeePProg/linux/../CfgPHelper.c ****     void    *pCurElement, 
 442:/home/hkh/git/eapidk-code-r76-trunk/apps/EeePProg/linux/../CfgPHelper.c ****     char   *szValue
 443:/home/hkh/git/eapidk-code-r76-trunk/apps/EeePProg/linux/../CfgPHelper.c ****   )
 444:/home/hkh/git/eapidk-code-r76-trunk/apps/EeePProg/linux/../CfgPHelper.c **** { 
 445:/home/hkh/git/eapidk-code-r76-trunk/apps/EeePProg/linux/../CfgPHelper.c ****   EApiStatus_t StatusCode=EAPI_STATUS_SUCCESS;
 446:/home/hkh/git/eapidk-code-r76-trunk/apps/EeePProg/linux/../CfgPHelper.c ****   unsigned int i;
 447:/home/hkh/git/eapidk-code-r76-trunk/apps/EeePProg/linux/../CfgPHelper.c ****   char    *szEnd;
 448:/home/hkh/git/eapidk-code-r76-trunk/apps/EeePProg/linux/../CfgPHelper.c ****   char     Short[3];
 449:/home/hkh/git/eapidk-code-r76-trunk/apps/EeePProg/linux/../CfgPHelper.c ****   EeePGUID_t *pGUID=pCurElement;
 450:/home/hkh/git/eapidk-code-r76-trunk/apps/EeePProg/linux/../CfgPHelper.c ****   EAPI_APP_ASSERT_PARAMATER_CHECK_S(
 451:/home/hkh/git/eapidk-code-r76-trunk/apps/EeePProg/linux/../CfgPHelper.c ****                 GUID_Element,
ARM GAS  /tmp/cc2djyQn.s 			page 39


 452:/home/hkh/git/eapidk-code-r76-trunk/apps/EeePProg/linux/../CfgPHelper.c ****                 EAPI_STATUS_INVALID_PARAMETER,
 453:/home/hkh/git/eapidk-code-r76-trunk/apps/EeePProg/linux/../CfgPHelper.c ****                 pElementDesc->stBitOffset != 0
 454:/home/hkh/git/eapidk-code-r76-trunk/apps/EeePProg/linux/../CfgPHelper.c ****         );
 455:/home/hkh/git/eapidk-code-r76-trunk/apps/EeePProg/linux/../CfgPHelper.c ****   EAPI_APP_ASSERT_PARAMATER_CHECK_S(
 456:/home/hkh/git/eapidk-code-r76-trunk/apps/EeePProg/linux/../CfgPHelper.c ****                 GUID_Element,
 457:/home/hkh/git/eapidk-code-r76-trunk/apps/EeePProg/linux/../CfgPHelper.c ****                 EAPI_STATUS_INVALID_PARAMETER,
 458:/home/hkh/git/eapidk-code-r76-trunk/apps/EeePProg/linux/../CfgPHelper.c ****                 pElementDesc->Instances.stElementSize != sizeof(*pGUID)
 459:/home/hkh/git/eapidk-code-r76-trunk/apps/EeePProg/linux/../CfgPHelper.c ****         );
 460:/home/hkh/git/eapidk-code-r76-trunk/apps/EeePProg/linux/../CfgPHelper.c ****   szValue=skipWhiteSpaces(szValue);
 461:/home/hkh/git/eapidk-code-r76-trunk/apps/EeePProg/linux/../CfgPHelper.c ****   stripWhiteSpaces(szValue);
 462:/home/hkh/git/eapidk-code-r76-trunk/apps/EeePProg/linux/../CfgPHelper.c ****   /*0000000000111111111122222222223333333333
 463:/home/hkh/git/eapidk-code-r76-trunk/apps/EeePProg/linux/../CfgPHelper.c ****    *0123456789012345678901234567890123456789
 464:/home/hkh/git/eapidk-code-r76-trunk/apps/EeePProg/linux/../CfgPHelper.c ****    *F9168C5E-CEB2-4faa-B6BF-329BF39FA1E4
 465:/home/hkh/git/eapidk-code-r76-trunk/apps/EeePProg/linux/../CfgPHelper.c ****    */
 466:/home/hkh/git/eapidk-code-r76-trunk/apps/EeePProg/linux/../CfgPHelper.c ****   if( szValue[ 8]!='-'||
 467:/home/hkh/git/eapidk-code-r76-trunk/apps/EeePProg/linux/../CfgPHelper.c ****       szValue[13]!='-'||
 468:/home/hkh/git/eapidk-code-r76-trunk/apps/EeePProg/linux/../CfgPHelper.c ****       szValue[18]!='-'||
 469:/home/hkh/git/eapidk-code-r76-trunk/apps/EeePProg/linux/../CfgPHelper.c ****       szValue[23]!='-'||
 470:/home/hkh/git/eapidk-code-r76-trunk/apps/EeePProg/linux/../CfgPHelper.c ****       szValue[36]!='\0'
 471:/home/hkh/git/eapidk-code-r76-trunk/apps/EeePProg/linux/../CfgPHelper.c ****     )
 472:/home/hkh/git/eapidk-code-r76-trunk/apps/EeePProg/linux/../CfgPHelper.c ****   {
 473:/home/hkh/git/eapidk-code-r76-trunk/apps/EeePProg/linux/../CfgPHelper.c ****     printf("\tString_Element = Invalid Format, %s\n", szValue);
 474:/home/hkh/git/eapidk-code-r76-trunk/apps/EeePProg/linux/../CfgPHelper.c ****     return EAPI_STATUS_ERROR;
 475:/home/hkh/git/eapidk-code-r76-trunk/apps/EeePProg/linux/../CfgPHelper.c ****   }
 476:/home/hkh/git/eapidk-code-r76-trunk/apps/EeePProg/linux/../CfgPHelper.c ****   EeeP_Set32BitValue_BE(pGUID->a.b, strtoul(szValue+0, &szEnd, 16));
 477:/home/hkh/git/eapidk-code-r76-trunk/apps/EeePProg/linux/../CfgPHelper.c ****   EeeP_Set16BitValue_BE(pGUID->b[0].b, (uint16_t)strtoul(szValue+ 9, &szEnd, 16));
 478:/home/hkh/git/eapidk-code-r76-trunk/apps/EeePProg/linux/../CfgPHelper.c ****   EeeP_Set16BitValue_BE(pGUID->b[1].b, (uint16_t)strtoul(szValue+14, &szEnd, 16));
 479:/home/hkh/git/eapidk-code-r76-trunk/apps/EeePProg/linux/../CfgPHelper.c ****   for(i=19;i<22;i+=2){
 480:/home/hkh/git/eapidk-code-r76-trunk/apps/EeePProg/linux/../CfgPHelper.c ****     memcpy(Short, szValue+i, 2);
 481:/home/hkh/git/eapidk-code-r76-trunk/apps/EeePProg/linux/../CfgPHelper.c ****     Short[2]='\0';
 482:/home/hkh/git/eapidk-code-r76-trunk/apps/EeePProg/linux/../CfgPHelper.c ****     pGUID->c[0 + ((i - 19)/2)]=(uint8_t)strtoul(Short, &szEnd, 16);
 483:/home/hkh/git/eapidk-code-r76-trunk/apps/EeePProg/linux/../CfgPHelper.c ****   }
 484:/home/hkh/git/eapidk-code-r76-trunk/apps/EeePProg/linux/../CfgPHelper.c ****   for(i=24;i<35;i+=2){
 485:/home/hkh/git/eapidk-code-r76-trunk/apps/EeePProg/linux/../CfgPHelper.c ****     memcpy(Short, szValue+i, 2);
 486:/home/hkh/git/eapidk-code-r76-trunk/apps/EeePProg/linux/../CfgPHelper.c ****     Short[2]='\0';
 487:/home/hkh/git/eapidk-code-r76-trunk/apps/EeePProg/linux/../CfgPHelper.c ****     pGUID->c[2 + ((i - 24)/2)]=(uint8_t)strtoul(Short, &szEnd, 16);
 488:/home/hkh/git/eapidk-code-r76-trunk/apps/EeePProg/linux/../CfgPHelper.c ****   }
 489:/home/hkh/git/eapidk-code-r76-trunk/apps/EeePProg/linux/../CfgPHelper.c **** #if TEST_EEPCFG
 490:/home/hkh/git/eapidk-code-r76-trunk/apps/EeePProg/linux/../CfgPHelper.c **** /*   printf("\tGUID_Element = "); */
 491:/home/hkh/git/eapidk-code-r76-trunk/apps/EeePProg/linux/../CfgPHelper.c **** /*   PrintHexAsciiTableEx( */
 492:/home/hkh/git/eapidk-code-r76-trunk/apps/EeePProg/linux/../CfgPHelper.c **** /*       pCurElement,  */
 493:/home/hkh/git/eapidk-code-r76-trunk/apps/EeePProg/linux/../CfgPHelper.c **** /*       16,  */
 494:/home/hkh/git/eapidk-code-r76-trunk/apps/EeePProg/linux/../CfgPHelper.c **** /*       pCurElement,  */
 495:/home/hkh/git/eapidk-code-r76-trunk/apps/EeePProg/linux/../CfgPHelper.c **** /*       NULL, */
 496:/home/hkh/git/eapidk-code-r76-trunk/apps/EeePProg/linux/../CfgPHelper.c **** /*       HEXTBL_8BIT_ELEMENT|16 */
 497:/home/hkh/git/eapidk-code-r76-trunk/apps/EeePProg/linux/../CfgPHelper.c **** /*     ); */
 498:/home/hkh/git/eapidk-code-r76-trunk/apps/EeePProg/linux/../CfgPHelper.c **** #endif
 499:/home/hkh/git/eapidk-code-r76-trunk/apps/EeePProg/linux/../CfgPHelper.c ****  
 500:/home/hkh/git/eapidk-code-r76-trunk/apps/EeePProg/linux/../CfgPHelper.c **** EAPI_APP_ASSERT_EXIT
 501:/home/hkh/git/eapidk-code-r76-trunk/apps/EeePProg/linux/../CfgPHelper.c ****   return StatusCode;
 502:/home/hkh/git/eapidk-code-r76-trunk/apps/EeePProg/linux/../CfgPHelper.c **** }
 503:/home/hkh/git/eapidk-code-r76-trunk/apps/EeePProg/linux/../CfgPHelper.c **** EApiStatus_t
 504:/home/hkh/git/eapidk-code-r76-trunk/apps/EeePProg/linux/../CfgPHelper.c **** Number_Element(
 505:/home/hkh/git/eapidk-code-r76-trunk/apps/EeePProg/linux/../CfgPHelper.c ****     struct  CfgElementDesc_s *pElementDesc, 
 506:/home/hkh/git/eapidk-code-r76-trunk/apps/EeePProg/linux/../CfgPHelper.c ****     void *pCurElement,
 507:/home/hkh/git/eapidk-code-r76-trunk/apps/EeePProg/linux/../CfgPHelper.c ****     char   *szValue
 508:/home/hkh/git/eapidk-code-r76-trunk/apps/EeePProg/linux/../CfgPHelper.c ****   )
ARM GAS  /tmp/cc2djyQn.s 			page 40


 509:/home/hkh/git/eapidk-code-r76-trunk/apps/EeePProg/linux/../CfgPHelper.c **** { 
 1425              		.loc 1 509 1 is_stmt 1 view -0
 1426              		.cfi_startproc
 1427              		@ args = 0, pretend = 0, frame = 16
 1428              		@ frame_needed = 0, uses_anonymous_args = 0
 1429              		.loc 1 509 1 is_stmt 0 view .LVU358
 1430 0654 F0402DE9 		push	{r4, r5, r6, r7, lr}
 1431              		.cfi_def_cfa_offset 20
 1432              		.cfi_offset 4, -20
 1433              		.cfi_offset 5, -16
 1434              		.cfi_offset 6, -12
 1435              		.cfi_offset 7, -8
 1436              		.cfi_offset 14, -4
 1437 0658 0050A0E1 		mov	r5, r0
 1438 065c 0260A0E1 		mov	r6, r2
 510:/home/hkh/git/eapidk-code-r76-trunk/apps/EeePProg/linux/../CfgPHelper.c ****   EApiStatus_t StatusCode=EAPI_STATUS_SUCCESS;
 511:/home/hkh/git/eapidk-code-r76-trunk/apps/EeePProg/linux/../CfgPHelper.c ****   signed long long sllValue;
 512:/home/hkh/git/eapidk-code-r76-trunk/apps/EeePProg/linux/../CfgPHelper.c ****   
 513:/home/hkh/git/eapidk-code-r76-trunk/apps/EeePProg/linux/../CfgPHelper.c ****   DO(ParseAsciiEqu(szValue, &sllValue));
 1439              		.loc 1 513 3 view .LVU359
 1440 0660 0200A0E1 		mov	r0, r2
 1441              	.LVL151:
 509:/home/hkh/git/eapidk-code-r76-trunk/apps/EeePProg/linux/../CfgPHelper.c ****   EApiStatus_t StatusCode=EAPI_STATUS_SUCCESS;
 1442              		.loc 1 509 1 view .LVU360
 1443 0664 24D04DE2 		sub	sp, sp, #36
 1444              		.cfi_def_cfa_offset 56
 509:/home/hkh/git/eapidk-code-r76-trunk/apps/EeePProg/linux/../CfgPHelper.c ****   EApiStatus_t StatusCode=EAPI_STATUS_SUCCESS;
 1445              		.loc 1 509 1 view .LVU361
 1446 0668 0170A0E1 		mov	r7, r1
 1447 066c 0C219FE5 		ldr	r2, .L126
 1448              	.LVL152:
 1449              		.loc 1 513 3 view .LVU362
 1450 0670 10108DE2 		add	r1, sp, #16
 509:/home/hkh/git/eapidk-code-r76-trunk/apps/EeePProg/linux/../CfgPHelper.c ****   EApiStatus_t StatusCode=EAPI_STATUS_SUCCESS;
 1451              		.loc 1 509 1 view .LVU363
 1452 0674 08319FE5 		ldr	r3, .L126+4
 1453              	.LPIC53:
 1454 0678 02208FE0 		add	r2, pc, r2
 1455 067c 033092E7 		ldr	r3, [r2, r3]
 1456 0680 003093E5 		ldr	r3, [r3]
 1457 0684 1C308DE5 		str	r3, [sp, #28]
 1458 0688 0030A0E3 		mov	r3, #0
 510:/home/hkh/git/eapidk-code-r76-trunk/apps/EeePProg/linux/../CfgPHelper.c ****   EApiStatus_t StatusCode=EAPI_STATUS_SUCCESS;
 1459              		.loc 1 510 3 is_stmt 1 view .LVU364
 1460              	.LVL153:
 511:/home/hkh/git/eapidk-code-r76-trunk/apps/EeePProg/linux/../CfgPHelper.c ****   
 1461              		.loc 1 511 3 view .LVU365
 1462              		.loc 1 513 3 view .LVU366
 1463              		.loc 1 513 3 view .LVU367
 1464 068c FEFFFFEB 		bl	ParseAsciiEqu(PLT)
 1465              	.LVL154:
 1466              		.loc 1 513 3 view .LVU368
 1467 0690 004050E2 		subs	r4, r0, #0
 1468 0694 2A00001A 		bne	.L124
 1469              		.loc 1 513 3 discriminator 2 view .LVU369
 514:/home/hkh/git/eapidk-code-r76-trunk/apps/EeePProg/linux/../CfgPHelper.c ****   if(pElementDesc->pExtraInfo!=NULL){
 1470              		.loc 1 514 3 discriminator 2 view .LVU370
ARM GAS  /tmp/cc2djyQn.s 			page 41


 1471              		.loc 1 514 18 is_stmt 0 discriminator 2 view .LVU371
 1472 0698 340095E5 		ldr	r0, [r5, #52]
 1473              	.LVL155:
 515:/home/hkh/git/eapidk-code-r76-trunk/apps/EeePProg/linux/../CfgPHelper.c ****     StatusCode=RangeCheckAny(
 1474              		.loc 1 515 16 discriminator 2 view .LVU372
 1475 069c 10109DE5 		ldr	r1, [sp, #16]
 514:/home/hkh/git/eapidk-code-r76-trunk/apps/EeePProg/linux/../CfgPHelper.c ****   if(pElementDesc->pExtraInfo!=NULL){
 1476              		.loc 1 514 5 discriminator 2 view .LVU373
 1477 06a0 000050E3 		cmp	r0, #0
 1478 06a4 1200000A 		beq	.L111
 1479              		.loc 1 515 5 is_stmt 1 view .LVU374
 1480              		.loc 1 515 16 is_stmt 0 view .LVU375
 1481 06a8 FEFFFFEB 		bl	RangeCheckAny(PLT)
 1482              	.LVL156:
 516:/home/hkh/git/eapidk-code-r76-trunk/apps/EeePProg/linux/../CfgPHelper.c ****         ((NumberRangeDesc_t*)pElementDesc->pExtraInfo), 
 517:/home/hkh/git/eapidk-code-r76-trunk/apps/EeePProg/linux/../CfgPHelper.c ****         (unsigned long)sllValue
 518:/home/hkh/git/eapidk-code-r76-trunk/apps/EeePProg/linux/../CfgPHelper.c ****       );
 519:/home/hkh/git/eapidk-code-r76-trunk/apps/EeePProg/linux/../CfgPHelper.c ****   }
 520:/home/hkh/git/eapidk-code-r76-trunk/apps/EeePProg/linux/../CfgPHelper.c ****   if(!EAPI_TEST_SUCCESS(StatusCode)){
 1483              		.loc 1 520 3 is_stmt 1 view .LVU376
 1484              		.loc 1 520 5 is_stmt 0 view .LVU377
 1485 06ac 004050E2 		subs	r4, r0, #0
 1486 06b0 0F00000A 		beq	.L111
 521:/home/hkh/git/eapidk-code-r76-trunk/apps/EeePProg/linux/../CfgPHelper.c ****     printf("\tNumber_Element = Outside Range, %s\n", szValue);
 1487              		.loc 1 521 5 is_stmt 1 view .LVU378
 1488 06b4 CC009FE5 		ldr	r0, .L126+8
 1489              	.LVL157:
 1490              		.loc 1 521 5 is_stmt 0 view .LVU379
 1491 06b8 0610A0E1 		mov	r1, r6
 1492              	.LPIC47:
 1493 06bc 00008FE0 		add	r0, pc, r0
 1494 06c0 FEFFFFEB 		bl	printf(PLT)
 1495              	.LVL158:
 1496              	.L108:
 509:/home/hkh/git/eapidk-code-r76-trunk/apps/EeePProg/linux/../CfgPHelper.c ****   EApiStatus_t StatusCode=EAPI_STATUS_SUCCESS;
 1497              		.loc 1 509 1 view .LVU380
 1498 06c4 C0209FE5 		ldr	r2, .L126+12
 522:/home/hkh/git/eapidk-code-r76-trunk/apps/EeePProg/linux/../CfgPHelper.c ****   }else{
 523:/home/hkh/git/eapidk-code-r76-trunk/apps/EeePProg/linux/../CfgPHelper.c **** /*     printf("\tNumber_Element = 0x%04lX, %s\n", *(unsigned long*)pCurElement, szValue); */
 524:/home/hkh/git/eapidk-code-r76-trunk/apps/EeePProg/linux/../CfgPHelper.c ****   	DO(AssignValue_VAB(
 525:/home/hkh/git/eapidk-code-r76-trunk/apps/EeePProg/linux/../CfgPHelper.c ****             sllValue, 
 526:/home/hkh/git/eapidk-code-r76-trunk/apps/EeePProg/linux/../CfgPHelper.c ****             pCurElement, 
 527:/home/hkh/git/eapidk-code-r76-trunk/apps/EeePProg/linux/../CfgPHelper.c ****             (signed int)pElementDesc->stBitOffset  ,
 528:/home/hkh/git/eapidk-code-r76-trunk/apps/EeePProg/linux/../CfgPHelper.c ****             (signed int)pElementDesc->stBitLength     , 
 529:/home/hkh/git/eapidk-code-r76-trunk/apps/EeePProg/linux/../CfgPHelper.c ****             (signed int)pElementDesc->Instances.stElementSize
 530:/home/hkh/git/eapidk-code-r76-trunk/apps/EeePProg/linux/../CfgPHelper.c ****           ));
 531:/home/hkh/git/eapidk-code-r76-trunk/apps/EeePProg/linux/../CfgPHelper.c ****   }
 532:/home/hkh/git/eapidk-code-r76-trunk/apps/EeePProg/linux/../CfgPHelper.c **** 
 533:/home/hkh/git/eapidk-code-r76-trunk/apps/EeePProg/linux/../CfgPHelper.c ****   
 534:/home/hkh/git/eapidk-code-r76-trunk/apps/EeePProg/linux/../CfgPHelper.c **** EAPI_APP_ASSERT_EXIT
 535:/home/hkh/git/eapidk-code-r76-trunk/apps/EeePProg/linux/../CfgPHelper.c ****   return StatusCode;
 536:/home/hkh/git/eapidk-code-r76-trunk/apps/EeePProg/linux/../CfgPHelper.c **** }
 1499              		.loc 1 536 1 view .LVU381
 1500 06c8 B4309FE5 		ldr	r3, .L126+4
 509:/home/hkh/git/eapidk-code-r76-trunk/apps/EeePProg/linux/../CfgPHelper.c ****   EApiStatus_t StatusCode=EAPI_STATUS_SUCCESS;
 1501              		.loc 1 509 1 view .LVU382
 1502              	.LPIC52:
ARM GAS  /tmp/cc2djyQn.s 			page 42


 1503 06cc 02208FE0 		add	r2, pc, r2
 1504              		.loc 1 536 1 view .LVU383
 1505 06d0 033092E7 		ldr	r3, [r2, r3]
 1506 06d4 002093E5 		ldr	r2, [r3]
 1507 06d8 1C309DE5 		ldr	r3, [sp, #28]
 1508 06dc 022033E0 		eors	r2, r3, r2
 1509 06e0 0030A0E3 		mov	r3, #0
 1510 06e4 2400001A 		bne	.L125
 1511 06e8 0400A0E1 		mov	r0, r4
 1512 06ec 24D08DE2 		add	sp, sp, #36
 1513              		.cfi_remember_state
 1514              		.cfi_def_cfa_offset 20
 1515              		@ sp needed
 1516 06f0 F080BDE8 		pop	{r4, r5, r6, r7, pc}
 1517              	.LVL159:
 1518              	.L111:
 1519              		.cfi_restore_state
 524:/home/hkh/git/eapidk-code-r76-trunk/apps/EeePProg/linux/../CfgPHelper.c ****             sllValue, 
 1520              		.loc 1 524 4 is_stmt 1 view .LVU384
 524:/home/hkh/git/eapidk-code-r76-trunk/apps/EeePProg/linux/../CfgPHelper.c ****             sllValue, 
 1521              		.loc 1 524 4 view .LVU385
 1522 06f4 140095E5 		ldr	r0, [r5, #20]
 1523 06f8 0720A0E1 		mov	r2, r7
 1524 06fc 2C1095E5 		ldr	r1, [r5, #44]
 1525 0700 283095E5 		ldr	r3, [r5, #40]
 1526 0704 04008DE5 		str	r0, [sp, #4]
 1527 0708 00108DE5 		str	r1, [sp]
 1528 070c D001CDE1 		ldrd	r0, [sp, #16]
 1529 0710 FEFFFFEB 		bl	AssignValue_VAB(PLT)
 1530              	.LVL160:
 524:/home/hkh/git/eapidk-code-r76-trunk/apps/EeePProg/linux/../CfgPHelper.c ****             sllValue, 
 1531              		.loc 1 524 4 view .LVU386
 1532 0714 004050E2 		subs	r4, r0, #0
 1533 0718 E9FFFF0A 		beq	.L108
 524:/home/hkh/git/eapidk-code-r76-trunk/apps/EeePProg/linux/../CfgPHelper.c ****             sllValue, 
 1534              		.loc 1 524 4 discriminator 1 view .LVU387
 1535 071c 6CC09FE5 		ldr	ip, .L126+16
 1536 0720 833FA0E3 		mov	r3, #524
 1537 0724 68009FE5 		ldr	r0, .L126+20
 1538              	.LVL161:
 524:/home/hkh/git/eapidk-code-r76-trunk/apps/EeePProg/linux/../CfgPHelper.c ****             sllValue, 
 1539              		.loc 1 524 4 is_stmt 0 discriminator 1 view .LVU388
 1540 0728 68209FE5 		ldr	r2, .L126+24
 1541 072c 68109FE5 		ldr	r1, .L126+28
 1542              	.LPIC50:
 1543 0730 0CC08FE0 		add	ip, pc, ip
 1544              	.LPIC51:
 1545 0734 00008FE0 		add	r0, pc, r0
 1546              	.LPIC48:
 1547 0738 02208FE0 		add	r2, pc, r2
 1548              	.LPIC49:
 1549 073c 01108FE0 		add	r1, pc, r1
 1550 0740 080000EA 		b	.L123
 1551              	.LVL162:
 1552              	.L124:
 513:/home/hkh/git/eapidk-code-r76-trunk/apps/EeePProg/linux/../CfgPHelper.c ****   if(pElementDesc->pExtraInfo!=NULL){
 1553              		.loc 1 513 3 is_stmt 1 discriminator 1 view .LVU389
ARM GAS  /tmp/cc2djyQn.s 			page 43


 1554 0744 54C09FE5 		ldr	ip, .L126+32
 1555 0748 013200E3 		movw	r3, #513
 1556 074c 50009FE5 		ldr	r0, .L126+36
 1557              	.LVL163:
 513:/home/hkh/git/eapidk-code-r76-trunk/apps/EeePProg/linux/../CfgPHelper.c ****   if(pElementDesc->pExtraInfo!=NULL){
 1558              		.loc 1 513 3 is_stmt 0 discriminator 1 view .LVU390
 1559 0750 50209FE5 		ldr	r2, .L126+40
 1560 0754 50109FE5 		ldr	r1, .L126+44
 1561              	.LPIC45:
 1562 0758 0CC08FE0 		add	ip, pc, ip
 1563              	.LPIC46:
 1564 075c 00008FE0 		add	r0, pc, r0
 1565              	.LPIC43:
 1566 0760 02208FE0 		add	r2, pc, r2
 1567              	.LPIC44:
 1568 0764 01108FE0 		add	r1, pc, r1
 1569              	.L123:
 1570              	.L110:
 524:/home/hkh/git/eapidk-code-r76-trunk/apps/EeePProg/linux/../CfgPHelper.c ****             sllValue, 
 1571              		.loc 1 524 4 discriminator 1 view .LVU391
 1572 0768 01108DE9 		stmib	sp, {r0, ip}
 1573 076c 4500A0E3 		mov	r0, #69
 1574 0770 00408DE5 		str	r4, [sp]
 1575 0774 FEFFFFEB 		bl	siFormattedMessage_SC(PLT)
 1576              	.LVL164:
 524:/home/hkh/git/eapidk-code-r76-trunk/apps/EeePProg/linux/../CfgPHelper.c ****             sllValue, 
 1577              		.loc 1 524 4 is_stmt 1 discriminator 1 view .LVU392
 524:/home/hkh/git/eapidk-code-r76-trunk/apps/EeePProg/linux/../CfgPHelper.c ****             sllValue, 
 1578              		.loc 1 524 4 discriminator 1 view .LVU393
 535:/home/hkh/git/eapidk-code-r76-trunk/apps/EeePProg/linux/../CfgPHelper.c **** }
 1579              		.loc 1 535 3 discriminator 1 view .LVU394
 535:/home/hkh/git/eapidk-code-r76-trunk/apps/EeePProg/linux/../CfgPHelper.c **** }
 1580              		.loc 1 535 10 is_stmt 0 discriminator 1 view .LVU395
 1581 0778 D1FFFFEA 		b	.L108
 1582              	.L125:
 1583              		.loc 1 536 1 view .LVU396
 1584 077c FEFFFFEB 		bl	__stack_chk_fail(PLT)
 1585              	.LVL165:
 1586              	.L127:
 1587              		.align	2
 1588              	.L126:
 1589 0780 00010000 		.word	_GLOBAL_OFFSET_TABLE_-(.LPIC53+8)
 1590 0784 00000000 		.word	__stack_chk_guard(GOT)
 1591 0788 C4000000 		.word	.LC28-(.LPIC47+8)
 1592 078c B8000000 		.word	_GLOBAL_OFFSET_TABLE_-(.LPIC52+8)
 1593 0790 58000000 		.word	.LC29-(.LPIC50+8)
 1594 0794 58000000 		.word	.LC3-(.LPIC51+8)
 1595 0798 58000000 		.word	.LC26-(.LPIC48+8)
 1596 079c 58000000 		.word	.LC20-(.LPIC49+8)
 1597 07a0 40000000 		.word	.LC27-(.LPIC45+8)
 1598 07a4 40000000 		.word	.LC3-(.LPIC46+8)
 1599 07a8 40000000 		.word	.LC26-(.LPIC43+8)
 1600 07ac 40000000 		.word	.LC20-(.LPIC44+8)
 1601              		.cfi_endproc
 1602              	.LFE18:
 1604              		.section	.rodata.str1.4
 1605              		.align	2
ARM GAS  /tmp/cc2djyQn.s 			page 44


 1606              	.LC30:
 1607 04c4 50617273 		.ascii	"ParseAsciiEquEx(szValue, &SizeMacroDesc, &sllValue)"
 1607      65417363 
 1607      69694571 
 1607      75457828 
 1607      737A5661 
 1608 04f7 00       		.ascii	"\000"
 1609              		.text
 1610              		.align	2
 1611              		.global	Size_Element
 1612              		.syntax unified
 1613              		.arm
 1614              		.fpu vfpv3
 1616              	Size_Element:
 1617              	.LVL166:
 1618              	.LFB19:
 537:/home/hkh/git/eapidk-code-r76-trunk/apps/EeePProg/linux/../CfgPHelper.c **** static MacroItem_t SizeMacros[]={
 538:/home/hkh/git/eapidk-code-r76-trunk/apps/EeePProg/linux/../CfgPHelper.c ****   {"BYTES", ""          },
 539:/home/hkh/git/eapidk-code-r76-trunk/apps/EeePProg/linux/../CfgPHelper.c ****   {"KB"   , "*(1024 BYTES)"},
 540:/home/hkh/git/eapidk-code-r76-trunk/apps/EeePProg/linux/../CfgPHelper.c ****   {"MB"   , "*(1024 KB)"},
 541:/home/hkh/git/eapidk-code-r76-trunk/apps/EeePProg/linux/../CfgPHelper.c ****   {"GB"   , "*(1024 MB)"},
 542:/home/hkh/git/eapidk-code-r76-trunk/apps/EeePProg/linux/../CfgPHelper.c **** };
 543:/home/hkh/git/eapidk-code-r76-trunk/apps/EeePProg/linux/../CfgPHelper.c **** static MacroList_t SizeMacroDesc={SizeMacros, ARRAY_SIZE(SizeMacros)};
 544:/home/hkh/git/eapidk-code-r76-trunk/apps/EeePProg/linux/../CfgPHelper.c **** 
 545:/home/hkh/git/eapidk-code-r76-trunk/apps/EeePProg/linux/../CfgPHelper.c **** EApiStatus_t
 546:/home/hkh/git/eapidk-code-r76-trunk/apps/EeePProg/linux/../CfgPHelper.c **** Size_Element(
 547:/home/hkh/git/eapidk-code-r76-trunk/apps/EeePProg/linux/../CfgPHelper.c ****     struct  CfgElementDesc_s *pElementDesc, 
 548:/home/hkh/git/eapidk-code-r76-trunk/apps/EeePProg/linux/../CfgPHelper.c ****     void *pCurElement,
 549:/home/hkh/git/eapidk-code-r76-trunk/apps/EeePProg/linux/../CfgPHelper.c ****     char   *szValue
 550:/home/hkh/git/eapidk-code-r76-trunk/apps/EeePProg/linux/../CfgPHelper.c ****   )
 551:/home/hkh/git/eapidk-code-r76-trunk/apps/EeePProg/linux/../CfgPHelper.c **** { 
 1619              		.loc 1 551 1 is_stmt 1 view -0
 1620              		.cfi_startproc
 1621              		@ args = 0, pretend = 0, frame = 16
 1622              		@ frame_needed = 0, uses_anonymous_args = 0
 552:/home/hkh/git/eapidk-code-r76-trunk/apps/EeePProg/linux/../CfgPHelper.c ****   EApiStatus_t StatusCode=EAPI_STATUS_SUCCESS;
 553:/home/hkh/git/eapidk-code-r76-trunk/apps/EeePProg/linux/../CfgPHelper.c ****   signed long long sllValue;
 554:/home/hkh/git/eapidk-code-r76-trunk/apps/EeePProg/linux/../CfgPHelper.c ****   
 555:/home/hkh/git/eapidk-code-r76-trunk/apps/EeePProg/linux/../CfgPHelper.c ****   DO(ParseAsciiEquEx(szValue, &SizeMacroDesc, &sllValue));
 1623              		.loc 1 555 3 is_stmt 0 view .LVU398
 1624 07b0 30319FE5 		ldr	r3, .L146
 551:/home/hkh/git/eapidk-code-r76-trunk/apps/EeePProg/linux/../CfgPHelper.c ****   EApiStatus_t StatusCode=EAPI_STATUS_SUCCESS;
 1625              		.loc 1 551 1 view .LVU399
 1626 07b4 F0402DE9 		push	{r4, r5, r6, r7, lr}
 1627              		.cfi_def_cfa_offset 20
 1628              		.cfi_offset 4, -20
 1629              		.cfi_offset 5, -16
 1630              		.cfi_offset 6, -12
 1631              		.cfi_offset 7, -8
 1632              		.cfi_offset 14, -4
 1633 07b8 0060A0E1 		mov	r6, r0
 1634 07bc 28019FE5 		ldr	r0, .L146+4
 1635              	.LVL167:
 551:/home/hkh/git/eapidk-code-r76-trunk/apps/EeePProg/linux/../CfgPHelper.c ****   EApiStatus_t StatusCode=EAPI_STATUS_SUCCESS;
 1636              		.loc 1 551 1 view .LVU400
 1637 07c0 0170A0E1 		mov	r7, r1
 1638              		.loc 1 555 3 view .LVU401
ARM GAS  /tmp/cc2djyQn.s 			page 45


 1639              	.LPIC54:
 1640 07c4 03308FE0 		add	r3, pc, r3
 551:/home/hkh/git/eapidk-code-r76-trunk/apps/EeePProg/linux/../CfgPHelper.c ****   EApiStatus_t StatusCode=EAPI_STATUS_SUCCESS;
 1641              		.loc 1 551 1 view .LVU402
 1642 07c8 24D04DE2 		sub	sp, sp, #36
 1643              		.cfi_def_cfa_offset 56
 1644              		.loc 1 555 3 view .LVU403
 1645 07cc 081083E2 		add	r1, r3, #8
 1646              	.LVL168:
 551:/home/hkh/git/eapidk-code-r76-trunk/apps/EeePProg/linux/../CfgPHelper.c ****   EApiStatus_t StatusCode=EAPI_STATUS_SUCCESS;
 1647              		.loc 1 551 1 view .LVU404
 1648 07d0 18319FE5 		ldr	r3, .L146+8
 1649              	.LPIC65:
 1650 07d4 00008FE0 		add	r0, pc, r0
 1651 07d8 0250A0E1 		mov	r5, r2
 1652              		.loc 1 555 3 view .LVU405
 1653 07dc 10208DE2 		add	r2, sp, #16
 551:/home/hkh/git/eapidk-code-r76-trunk/apps/EeePProg/linux/../CfgPHelper.c ****   EApiStatus_t StatusCode=EAPI_STATUS_SUCCESS;
 1654              		.loc 1 551 1 view .LVU406
 1655 07e0 033090E7 		ldr	r3, [r0, r3]
 1656              		.loc 1 555 3 view .LVU407
 1657 07e4 0500A0E1 		mov	r0, r5
 551:/home/hkh/git/eapidk-code-r76-trunk/apps/EeePProg/linux/../CfgPHelper.c ****   EApiStatus_t StatusCode=EAPI_STATUS_SUCCESS;
 1658              		.loc 1 551 1 view .LVU408
 1659 07e8 003093E5 		ldr	r3, [r3]
 1660 07ec 1C308DE5 		str	r3, [sp, #28]
 1661 07f0 0030A0E3 		mov	r3, #0
 552:/home/hkh/git/eapidk-code-r76-trunk/apps/EeePProg/linux/../CfgPHelper.c ****   EApiStatus_t StatusCode=EAPI_STATUS_SUCCESS;
 1662              		.loc 1 552 3 is_stmt 1 view .LVU409
 1663              	.LVL169:
 553:/home/hkh/git/eapidk-code-r76-trunk/apps/EeePProg/linux/../CfgPHelper.c ****   
 1664              		.loc 1 553 3 view .LVU410
 1665              		.loc 1 555 3 view .LVU411
 1666              		.loc 1 555 3 view .LVU412
 1667 07f4 FEFFFFEB 		bl	ParseAsciiEquEx(PLT)
 1668              	.LVL170:
 1669              		.loc 1 555 3 view .LVU413
 1670 07f8 004050E2 		subs	r4, r0, #0
 1671 07fc 2A00001A 		bne	.L144
 1672              		.loc 1 555 3 discriminator 2 view .LVU414
 556:/home/hkh/git/eapidk-code-r76-trunk/apps/EeePProg/linux/../CfgPHelper.c ****   if(pElementDesc->pExtraInfo!=NULL){
 1673              		.loc 1 556 3 discriminator 2 view .LVU415
 1674              		.loc 1 556 18 is_stmt 0 discriminator 2 view .LVU416
 1675 0800 340096E5 		ldr	r0, [r6, #52]
 1676              	.LVL171:
 557:/home/hkh/git/eapidk-code-r76-trunk/apps/EeePProg/linux/../CfgPHelper.c ****     StatusCode=RangeCheckAny(
 1677              		.loc 1 557 16 discriminator 2 view .LVU417
 1678 0804 10109DE5 		ldr	r1, [sp, #16]
 556:/home/hkh/git/eapidk-code-r76-trunk/apps/EeePProg/linux/../CfgPHelper.c ****   if(pElementDesc->pExtraInfo!=NULL){
 1679              		.loc 1 556 5 discriminator 2 view .LVU418
 1680 0808 000050E3 		cmp	r0, #0
 1681 080c 1200000A 		beq	.L131
 1682              		.loc 1 557 5 is_stmt 1 view .LVU419
 1683              		.loc 1 557 16 is_stmt 0 view .LVU420
 1684 0810 FEFFFFEB 		bl	RangeCheckAny(PLT)
 1685              	.LVL172:
 558:/home/hkh/git/eapidk-code-r76-trunk/apps/EeePProg/linux/../CfgPHelper.c ****         ((NumberRangeDesc_t*)pElementDesc->pExtraInfo), 
ARM GAS  /tmp/cc2djyQn.s 			page 46


 559:/home/hkh/git/eapidk-code-r76-trunk/apps/EeePProg/linux/../CfgPHelper.c ****         (unsigned long)sllValue
 560:/home/hkh/git/eapidk-code-r76-trunk/apps/EeePProg/linux/../CfgPHelper.c ****       );
 561:/home/hkh/git/eapidk-code-r76-trunk/apps/EeePProg/linux/../CfgPHelper.c ****   }
 562:/home/hkh/git/eapidk-code-r76-trunk/apps/EeePProg/linux/../CfgPHelper.c **** 
 563:/home/hkh/git/eapidk-code-r76-trunk/apps/EeePProg/linux/../CfgPHelper.c ****   if(!EAPI_TEST_SUCCESS(StatusCode)){
 1686              		.loc 1 563 3 is_stmt 1 view .LVU421
 1687              		.loc 1 563 5 is_stmt 0 view .LVU422
 1688 0814 004050E2 		subs	r4, r0, #0
 1689 0818 0F00000A 		beq	.L131
 564:/home/hkh/git/eapidk-code-r76-trunk/apps/EeePProg/linux/../CfgPHelper.c ****     printf("\tNumber_Element = Outside Range, %s\n", szValue);
 1690              		.loc 1 564 5 is_stmt 1 view .LVU423
 1691 081c D0009FE5 		ldr	r0, .L146+12
 1692              	.LVL173:
 1693              		.loc 1 564 5 is_stmt 0 view .LVU424
 1694 0820 0510A0E1 		mov	r1, r5
 1695              	.LPIC59:
 1696 0824 00008FE0 		add	r0, pc, r0
 1697 0828 FEFFFFEB 		bl	printf(PLT)
 1698              	.LVL174:
 1699              	.L128:
 551:/home/hkh/git/eapidk-code-r76-trunk/apps/EeePProg/linux/../CfgPHelper.c ****   EApiStatus_t StatusCode=EAPI_STATUS_SUCCESS;
 1700              		.loc 1 551 1 view .LVU425
 1701 082c C4209FE5 		ldr	r2, .L146+16
 565:/home/hkh/git/eapidk-code-r76-trunk/apps/EeePProg/linux/../CfgPHelper.c ****   }else{
 566:/home/hkh/git/eapidk-code-r76-trunk/apps/EeePProg/linux/../CfgPHelper.c **** /*     printf("\tNumber_Element = 0x%04lX, %s\n", *(unsigned long*)pCurElement, szValue); */
 567:/home/hkh/git/eapidk-code-r76-trunk/apps/EeePProg/linux/../CfgPHelper.c ****   	DO(AssignValue_VAB(
 568:/home/hkh/git/eapidk-code-r76-trunk/apps/EeePProg/linux/../CfgPHelper.c ****             sllValue, 
 569:/home/hkh/git/eapidk-code-r76-trunk/apps/EeePProg/linux/../CfgPHelper.c ****             pCurElement, 
 570:/home/hkh/git/eapidk-code-r76-trunk/apps/EeePProg/linux/../CfgPHelper.c ****             (signed int)pElementDesc->stBitOffset  ,
 571:/home/hkh/git/eapidk-code-r76-trunk/apps/EeePProg/linux/../CfgPHelper.c ****             (signed int)pElementDesc->stBitLength     , 
 572:/home/hkh/git/eapidk-code-r76-trunk/apps/EeePProg/linux/../CfgPHelper.c ****             (signed int)pElementDesc->Instances.stElementSize
 573:/home/hkh/git/eapidk-code-r76-trunk/apps/EeePProg/linux/../CfgPHelper.c ****           ));
 574:/home/hkh/git/eapidk-code-r76-trunk/apps/EeePProg/linux/../CfgPHelper.c ****   }
 575:/home/hkh/git/eapidk-code-r76-trunk/apps/EeePProg/linux/../CfgPHelper.c **** 
 576:/home/hkh/git/eapidk-code-r76-trunk/apps/EeePProg/linux/../CfgPHelper.c ****   
 577:/home/hkh/git/eapidk-code-r76-trunk/apps/EeePProg/linux/../CfgPHelper.c **** EAPI_APP_ASSERT_EXIT
 578:/home/hkh/git/eapidk-code-r76-trunk/apps/EeePProg/linux/../CfgPHelper.c ****   return StatusCode;
 579:/home/hkh/git/eapidk-code-r76-trunk/apps/EeePProg/linux/../CfgPHelper.c **** }
 1702              		.loc 1 579 1 view .LVU426
 1703 0830 B8309FE5 		ldr	r3, .L146+8
 551:/home/hkh/git/eapidk-code-r76-trunk/apps/EeePProg/linux/../CfgPHelper.c ****   EApiStatus_t StatusCode=EAPI_STATUS_SUCCESS;
 1704              		.loc 1 551 1 view .LVU427
 1705              	.LPIC64:
 1706 0834 02208FE0 		add	r2, pc, r2
 1707              		.loc 1 579 1 view .LVU428
 1708 0838 033092E7 		ldr	r3, [r2, r3]
 1709 083c 002093E5 		ldr	r2, [r3]
 1710 0840 1C309DE5 		ldr	r3, [sp, #28]
 1711 0844 022033E0 		eors	r2, r3, r2
 1712 0848 0030A0E3 		mov	r3, #0
 1713 084c 2400001A 		bne	.L145
 1714 0850 0400A0E1 		mov	r0, r4
 1715 0854 24D08DE2 		add	sp, sp, #36
 1716              		.cfi_remember_state
 1717              		.cfi_def_cfa_offset 20
 1718              		@ sp needed
 1719 0858 F080BDE8 		pop	{r4, r5, r6, r7, pc}
ARM GAS  /tmp/cc2djyQn.s 			page 47


 1720              	.LVL175:
 1721              	.L131:
 1722              		.cfi_restore_state
 567:/home/hkh/git/eapidk-code-r76-trunk/apps/EeePProg/linux/../CfgPHelper.c ****             sllValue, 
 1723              		.loc 1 567 4 is_stmt 1 view .LVU429
 567:/home/hkh/git/eapidk-code-r76-trunk/apps/EeePProg/linux/../CfgPHelper.c ****             sllValue, 
 1724              		.loc 1 567 4 view .LVU430
 1725 085c 140096E5 		ldr	r0, [r6, #20]
 1726 0860 0720A0E1 		mov	r2, r7
 1727 0864 2C1096E5 		ldr	r1, [r6, #44]
 1728 0868 283096E5 		ldr	r3, [r6, #40]
 1729 086c 04008DE5 		str	r0, [sp, #4]
 1730 0870 00108DE5 		str	r1, [sp]
 1731 0874 D001CDE1 		ldrd	r0, [sp, #16]
 1732 0878 FEFFFFEB 		bl	AssignValue_VAB(PLT)
 1733              	.LVL176:
 567:/home/hkh/git/eapidk-code-r76-trunk/apps/EeePProg/linux/../CfgPHelper.c ****             sllValue, 
 1734              		.loc 1 567 4 view .LVU431
 1735 087c 004050E2 		subs	r4, r0, #0
 1736 0880 E9FFFF0A 		beq	.L128
 567:/home/hkh/git/eapidk-code-r76-trunk/apps/EeePProg/linux/../CfgPHelper.c ****             sllValue, 
 1737              		.loc 1 567 4 discriminator 1 view .LVU432
 1738 0884 70C09FE5 		ldr	ip, .L146+20
 1739 0888 373200E3 		movw	r3, #567
 1740 088c 6C009FE5 		ldr	r0, .L146+24
 1741              	.LVL177:
 567:/home/hkh/git/eapidk-code-r76-trunk/apps/EeePProg/linux/../CfgPHelper.c ****             sllValue, 
 1742              		.loc 1 567 4 is_stmt 0 discriminator 1 view .LVU433
 1743 0890 6C209FE5 		ldr	r2, .L146+28
 1744 0894 6C109FE5 		ldr	r1, .L146+32
 1745              	.LPIC62:
 1746 0898 0CC08FE0 		add	ip, pc, ip
 1747              	.LPIC63:
 1748 089c 00008FE0 		add	r0, pc, r0
 1749              	.LPIC60:
 1750 08a0 02208FE0 		add	r2, pc, r2
 1751              	.LPIC61:
 1752 08a4 01108FE0 		add	r1, pc, r1
 1753 08a8 080000EA 		b	.L143
 1754              	.LVL178:
 1755              	.L144:
 555:/home/hkh/git/eapidk-code-r76-trunk/apps/EeePProg/linux/../CfgPHelper.c ****   if(pElementDesc->pExtraInfo!=NULL){
 1756              		.loc 1 555 3 is_stmt 1 discriminator 1 view .LVU434
 1757 08ac 58C09FE5 		ldr	ip, .L146+36
 1758 08b0 2B3200E3 		movw	r3, #555
 1759 08b4 54009FE5 		ldr	r0, .L146+40
 1760              	.LVL179:
 555:/home/hkh/git/eapidk-code-r76-trunk/apps/EeePProg/linux/../CfgPHelper.c ****   if(pElementDesc->pExtraInfo!=NULL){
 1761              		.loc 1 555 3 is_stmt 0 discriminator 1 view .LVU435
 1762 08b8 54209FE5 		ldr	r2, .L146+44
 1763 08bc 54109FE5 		ldr	r1, .L146+48
 1764              	.LPIC57:
 1765 08c0 0CC08FE0 		add	ip, pc, ip
 1766              	.LPIC58:
 1767 08c4 00008FE0 		add	r0, pc, r0
 1768              	.LPIC55:
 1769 08c8 02208FE0 		add	r2, pc, r2
ARM GAS  /tmp/cc2djyQn.s 			page 48


 1770              	.LPIC56:
 1771 08cc 01108FE0 		add	r1, pc, r1
 1772              	.L143:
 1773              	.L130:
 567:/home/hkh/git/eapidk-code-r76-trunk/apps/EeePProg/linux/../CfgPHelper.c ****             sllValue, 
 1774              		.loc 1 567 4 discriminator 1 view .LVU436
 1775 08d0 01108DE9 		stmib	sp, {r0, ip}
 1776 08d4 4500A0E3 		mov	r0, #69
 1777 08d8 00408DE5 		str	r4, [sp]
 1778 08dc FEFFFFEB 		bl	siFormattedMessage_SC(PLT)
 1779              	.LVL180:
 567:/home/hkh/git/eapidk-code-r76-trunk/apps/EeePProg/linux/../CfgPHelper.c ****             sllValue, 
 1780              		.loc 1 567 4 is_stmt 1 discriminator 1 view .LVU437
 567:/home/hkh/git/eapidk-code-r76-trunk/apps/EeePProg/linux/../CfgPHelper.c ****             sllValue, 
 1781              		.loc 1 567 4 discriminator 1 view .LVU438
 578:/home/hkh/git/eapidk-code-r76-trunk/apps/EeePProg/linux/../CfgPHelper.c **** }
 1782              		.loc 1 578 3 discriminator 1 view .LVU439
 578:/home/hkh/git/eapidk-code-r76-trunk/apps/EeePProg/linux/../CfgPHelper.c **** }
 1783              		.loc 1 578 10 is_stmt 0 discriminator 1 view .LVU440
 1784 08e0 D1FFFFEA 		b	.L128
 1785              	.L145:
 1786              		.loc 1 579 1 view .LVU441
 1787 08e4 FEFFFFEB 		bl	__stack_chk_fail(PLT)
 1788              	.LVL181:
 1789              	.L147:
 1790              		.align	2
 1791              	.L146:
 1792 08e8 1C010000 		.word	.LANCHOR0-(.LPIC54+8)
 1793 08ec 10010000 		.word	_GLOBAL_OFFSET_TABLE_-(.LPIC65+8)
 1794 08f0 00000000 		.word	__stack_chk_guard(GOT)
 1795 08f4 C8000000 		.word	.LC28-(.LPIC59+8)
 1796 08f8 BC000000 		.word	_GLOBAL_OFFSET_TABLE_-(.LPIC64+8)
 1797 08fc 5C000000 		.word	.LC29-(.LPIC62+8)
 1798 0900 5C000000 		.word	.LC3-(.LPIC63+8)
 1799 0904 5C000000 		.word	.LC26-(.LPIC60+8)
 1800 0908 5C000000 		.word	.LC20-(.LPIC61+8)
 1801 090c 44000000 		.word	.LC30-(.LPIC57+8)
 1802 0910 44000000 		.word	.LC3-(.LPIC58+8)
 1803 0914 44000000 		.word	.LC26-(.LPIC55+8)
 1804 0918 44000000 		.word	.LC20-(.LPIC56+8)
 1805              		.cfi_endproc
 1806              	.LFE19:
 1808              		.section	.rodata.str1.4
 1809              		.align	2
 1810              	.LC31:
 1811 04f8 4932435F 		.ascii	"I2C_EEPROM_Addr\000"
 1811      45455052 
 1811      4F4D5F41 
 1811      64647200 
 1812              		.align	2
 1813              	.LC32:
 1814 0508 70456C65 		.ascii	"pElementDesc->Instances.stElementSize < sizeof(uint"
 1814      6D656E74 
 1814      44657363 
 1814      2D3E496E 
 1814      7374616E 
 1815 053b 31365F74 		.ascii	"16_t)\000"
ARM GAS  /tmp/cc2djyQn.s 			page 49


 1815      2900
 1816 0541 000000   		.align	2
 1817              	.LC33:
 1818 0544 70456C65 		.ascii	"pElementDesc->stBitLength < 8*sizeof(uint16_t)\000"
 1818      6D656E74 
 1818      44657363 
 1818      2D3E7374 
 1818      4269744C 
 1819 0573 00       		.align	2
 1820              	.LC34:
 1821 0574 41737369 		.ascii	"AssignValue_VAB( ulDeviceAddress, pCurElement, (sig"
 1821      676E5661 
 1821      6C75655F 
 1821      56414228 
 1821      20756C44 
 1822 05a7 6E656420 		.ascii	"ned int)pElementDesc->stBitOffset , (signed int)pEl"
 1822      696E7429 
 1822      70456C65 
 1822      6D656E74 
 1822      44657363 
 1823 05da 656D656E 		.ascii	"ementDesc->stBitLength , (signed int)pElementDesc->"
 1823      74446573 
 1823      632D3E73 
 1823      74426974 
 1823      4C656E67 
 1824 060d 496E7374 		.ascii	"Instances.stElementSize )\000"
 1824      616E6365 
 1824      732E7374 
 1824      456C656D 
 1824      656E7453 
 1825 0627 00       		.align	2
 1826              	.LC35:
 1827 0628 09493243 		.ascii	"\011I2C_EEPROM_Addr = Invalid Address 0x%02lX, %s\012"
 1827      5F454550 
 1827      524F4D5F 
 1827      41646472 
 1827      203D2049 
 1828 0657 00       		.ascii	"\000"
 1829              		.text
 1830              		.align	2
 1831              		.global	I2C_EEPROM_Addr
 1832              		.syntax unified
 1833              		.arm
 1834              		.fpu vfpv3
 1836              	I2C_EEPROM_Addr:
 1837              	.LVL182:
 1838              	.LFB20:
 580:/home/hkh/git/eapidk-code-r76-trunk/apps/EeePProg/linux/../CfgPHelper.c **** 
 581:/home/hkh/git/eapidk-code-r76-trunk/apps/EeePProg/linux/../CfgPHelper.c **** EApiStatus_t
 582:/home/hkh/git/eapidk-code-r76-trunk/apps/EeePProg/linux/../CfgPHelper.c **** I2C_EEPROM_Addr(
 583:/home/hkh/git/eapidk-code-r76-trunk/apps/EeePProg/linux/../CfgPHelper.c ****     struct  CfgElementDesc_s *pElementDesc, 
 584:/home/hkh/git/eapidk-code-r76-trunk/apps/EeePProg/linux/../CfgPHelper.c ****     void *pCurElement,
 585:/home/hkh/git/eapidk-code-r76-trunk/apps/EeePProg/linux/../CfgPHelper.c ****     char   *szValue
 586:/home/hkh/git/eapidk-code-r76-trunk/apps/EeePProg/linux/../CfgPHelper.c ****   )
 587:/home/hkh/git/eapidk-code-r76-trunk/apps/EeePProg/linux/../CfgPHelper.c **** { 
 1839              		.loc 1 587 1 is_stmt 1 view -0
 1840              		.cfi_startproc
ARM GAS  /tmp/cc2djyQn.s 			page 50


 1841              		@ args = 0, pretend = 0, frame = 0
 1842              		@ frame_needed = 0, uses_anonymous_args = 0
 588:/home/hkh/git/eapidk-code-r76-trunk/apps/EeePProg/linux/../CfgPHelper.c ****   EApiStatus_t StatusCode=EAPI_STATUS_SUCCESS;
 1843              		.loc 1 588 3 view .LVU443
 589:/home/hkh/git/eapidk-code-r76-trunk/apps/EeePProg/linux/../CfgPHelper.c ****   unsigned long ulDeviceAddress=ulConvertStr2NumEx(szValue, NULL);
 1844              		.loc 1 589 3 view .LVU444
 587:/home/hkh/git/eapidk-code-r76-trunk/apps/EeePProg/linux/../CfgPHelper.c ****   EApiStatus_t StatusCode=EAPI_STATUS_SUCCESS;
 1845              		.loc 1 587 1 is_stmt 0 view .LVU445
 1846 091c 70402DE9 		push	{r4, r5, r6, lr}
 1847              		.cfi_def_cfa_offset 16
 1848              		.cfi_offset 4, -16
 1849              		.cfi_offset 5, -12
 1850              		.cfi_offset 6, -8
 1851              		.cfi_offset 14, -4
 1852 0920 0040A0E1 		mov	r4, r0
 1853 0924 10D04DE2 		sub	sp, sp, #16
 1854              		.cfi_def_cfa_offset 32
 587:/home/hkh/git/eapidk-code-r76-trunk/apps/EeePProg/linux/../CfgPHelper.c ****   EApiStatus_t StatusCode=EAPI_STATUS_SUCCESS;
 1855              		.loc 1 587 1 view .LVU446
 1856 0928 0160A0E1 		mov	r6, r1
 1857              		.loc 1 589 33 view .LVU447
 1858 092c 0200A0E1 		mov	r0, r2
 1859              	.LVL183:
 1860              		.loc 1 589 33 view .LVU448
 1861 0930 0010A0E3 		mov	r1, #0
 1862              	.LVL184:
 587:/home/hkh/git/eapidk-code-r76-trunk/apps/EeePProg/linux/../CfgPHelper.c ****   EApiStatus_t StatusCode=EAPI_STATUS_SUCCESS;
 1863              		.loc 1 587 1 view .LVU449
 1864 0934 0250A0E1 		mov	r5, r2
 1865              		.loc 1 589 33 view .LVU450
 1866 0938 FEFFFFEB 		bl	ulConvertStr2NumEx(PLT)
 1867              	.LVL185:
 590:/home/hkh/git/eapidk-code-r76-trunk/apps/EeePProg/linux/../CfgPHelper.c **** 
 591:/home/hkh/git/eapidk-code-r76-trunk/apps/EeePProg/linux/../CfgPHelper.c ****   EAPI_APP_ASSERT_PARAMATER_CHECK_S(
 1868              		.loc 1 591 3 is_stmt 1 view .LVU451
 1869 093c 143094E5 		ldr	r3, [r4, #20]
 1870 0940 010053E3 		cmp	r3, #1
 1871 0944 3700009A 		bls	.L158
 1872              		.loc 1 591 3 discriminator 2 view .LVU452
 592:/home/hkh/git/eapidk-code-r76-trunk/apps/EeePProg/linux/../CfgPHelper.c ****                 I2C_EEPROM_Addr,
 593:/home/hkh/git/eapidk-code-r76-trunk/apps/EeePProg/linux/../CfgPHelper.c ****                 EAPI_STATUS_INVALID_PARAMETER,
 594:/home/hkh/git/eapidk-code-r76-trunk/apps/EeePProg/linux/../CfgPHelper.c ****                 pElementDesc->Instances.stElementSize < sizeof(uint16_t)
 595:/home/hkh/git/eapidk-code-r76-trunk/apps/EeePProg/linux/../CfgPHelper.c ****         );
 1873              		.loc 1 595 10 discriminator 2 view .LVU453
 596:/home/hkh/git/eapidk-code-r76-trunk/apps/EeePProg/linux/../CfgPHelper.c ****   EAPI_APP_ASSERT_PARAMATER_CHECK_S(
 1874              		.loc 1 596 3 discriminator 2 view .LVU454
 1875 0948 2CC094E5 		ldr	ip, [r4, #44]
 1876 094c 0F005CE3 		cmp	ip, #15
 1877 0950 2300009A 		bls	.L159
 597:/home/hkh/git/eapidk-code-r76-trunk/apps/EeePProg/linux/../CfgPHelper.c ****                 I2C_EEPROM_Addr,
 598:/home/hkh/git/eapidk-code-r76-trunk/apps/EeePProg/linux/../CfgPHelper.c ****                 EAPI_STATUS_INVALID_PARAMETER,
 599:/home/hkh/git/eapidk-code-r76-trunk/apps/EeePProg/linux/../CfgPHelper.c ****                 pElementDesc->stBitLength < 8*sizeof(uint16_t)
 600:/home/hkh/git/eapidk-code-r76-trunk/apps/EeePProg/linux/../CfgPHelper.c ****         );
 601:/home/hkh/git/eapidk-code-r76-trunk/apps/EeePProg/linux/../CfgPHelper.c **** 
 602:/home/hkh/git/eapidk-code-r76-trunk/apps/EeePProg/linux/../CfgPHelper.c ****   if((ulDeviceAddress<=0xAE)&&(ulDeviceAddress>=0xA0)&&!(ulDeviceAddress&1)){
 1878              		.loc 1 602 29 is_stmt 0 discriminator 2 view .LVU455
 1879 0954 A02040E2 		sub	r2, r0, #160
ARM GAS  /tmp/cc2djyQn.s 			page 51


 1880 0958 0010A0E1 		mov	r1, r0
 596:/home/hkh/git/eapidk-code-r76-trunk/apps/EeePProg/linux/../CfgPHelper.c ****   EAPI_APP_ASSERT_PARAMATER_CHECK_S(
 1881              		.loc 1 596 3 is_stmt 1 discriminator 2 view .LVU456
 600:/home/hkh/git/eapidk-code-r76-trunk/apps/EeePProg/linux/../CfgPHelper.c **** 
 1882              		.loc 1 600 10 discriminator 2 view .LVU457
 1883              		.loc 1 602 3 discriminator 2 view .LVU458
 1884              		.loc 1 602 5 is_stmt 0 discriminator 2 view .LVU459
 1885 095c 0E0052E3 		cmp	r2, #14
 1886 0960 0100008A 		bhi	.L152
 1887              		.loc 1 602 54 discriminator 1 view .LVU460
 1888 0964 01E010E2 		ands	lr, r0, #1
 1889 0968 0700000A 		beq	.L160
 1890              	.L152:
 603:/home/hkh/git/eapidk-code-r76-trunk/apps/EeePProg/linux/../CfgPHelper.c **** /*     printf("\tI2C_EEPROM_Addr = 0x%02lX, %s\n", ulDeviceAddress, szValue); */
 604:/home/hkh/git/eapidk-code-r76-trunk/apps/EeePProg/linux/../CfgPHelper.c ****   	DO(AssignValue_VAB(
 605:/home/hkh/git/eapidk-code-r76-trunk/apps/EeePProg/linux/../CfgPHelper.c ****             ulDeviceAddress, 
 606:/home/hkh/git/eapidk-code-r76-trunk/apps/EeePProg/linux/../CfgPHelper.c ****             pCurElement, 
 607:/home/hkh/git/eapidk-code-r76-trunk/apps/EeePProg/linux/../CfgPHelper.c ****             (signed int)pElementDesc->stBitOffset  ,
 608:/home/hkh/git/eapidk-code-r76-trunk/apps/EeePProg/linux/../CfgPHelper.c ****             (signed int)pElementDesc->stBitLength     , 
 609:/home/hkh/git/eapidk-code-r76-trunk/apps/EeePProg/linux/../CfgPHelper.c ****             (signed int)pElementDesc->Instances.stElementSize
 610:/home/hkh/git/eapidk-code-r76-trunk/apps/EeePProg/linux/../CfgPHelper.c ****           ));
 611:/home/hkh/git/eapidk-code-r76-trunk/apps/EeePProg/linux/../CfgPHelper.c ****   }else{
 612:/home/hkh/git/eapidk-code-r76-trunk/apps/EeePProg/linux/../CfgPHelper.c ****   	printf("\tI2C_EEPROM_Addr = Invalid Address 0x%02lX, %s\n", ulDeviceAddress, szValue);
 1891              		.loc 1 612 4 is_stmt 1 view .LVU461
 1892 096c E0009FE5 		ldr	r0, .L161
 1893              	.LVL186:
 1894              		.loc 1 612 4 is_stmt 0 view .LVU462
 1895 0970 0520A0E1 		mov	r2, r5
 613:/home/hkh/git/eapidk-code-r76-trunk/apps/EeePProg/linux/../CfgPHelper.c ****   	StatusCode=EAPI_STATUS_ERROR;
 1896              		.loc 1 613 14 view .LVU463
 1897 0974 0F4CE0E3 		mvn	r4, #3840
 1898              	.LVL187:
 612:/home/hkh/git/eapidk-code-r76-trunk/apps/EeePProg/linux/../CfgPHelper.c ****   	StatusCode=EAPI_STATUS_ERROR;
 1899              		.loc 1 612 4 view .LVU464
 1900              	.LPIC78:
 1901 0978 00008FE0 		add	r0, pc, r0
 1902 097c FEFFFFEB 		bl	printf(PLT)
 1903              	.LVL188:
 1904              		.loc 1 613 4 is_stmt 1 view .LVU465
 614:/home/hkh/git/eapidk-code-r76-trunk/apps/EeePProg/linux/../CfgPHelper.c ****   }
 615:/home/hkh/git/eapidk-code-r76-trunk/apps/EeePProg/linux/../CfgPHelper.c **** 
 616:/home/hkh/git/eapidk-code-r76-trunk/apps/EeePProg/linux/../CfgPHelper.c **** EAPI_APP_ASSERT_EXIT
 617:/home/hkh/git/eapidk-code-r76-trunk/apps/EeePProg/linux/../CfgPHelper.c ****   return StatusCode;
 1905              		.loc 1 617 3 view .LVU466
 1906              	.L150:
 1907              	.L148:
 618:/home/hkh/git/eapidk-code-r76-trunk/apps/EeePProg/linux/../CfgPHelper.c **** }
 1908              		.loc 1 618 1 is_stmt 0 view .LVU467
 1909 0980 0400A0E1 		mov	r0, r4
 1910 0984 10D08DE2 		add	sp, sp, #16
 1911              		.cfi_remember_state
 1912              		.cfi_def_cfa_offset 16
 1913              		@ sp needed
 1914 0988 7080BDE8 		pop	{r4, r5, r6, pc}
 1915              	.LVL189:
 1916              	.L160:
 1917              		.cfi_restore_state
ARM GAS  /tmp/cc2djyQn.s 			page 52


 604:/home/hkh/git/eapidk-code-r76-trunk/apps/EeePProg/linux/../CfgPHelper.c ****             ulDeviceAddress, 
 1918              		.loc 1 604 4 is_stmt 1 view .LVU468
 604:/home/hkh/git/eapidk-code-r76-trunk/apps/EeePProg/linux/../CfgPHelper.c ****             ulDeviceAddress, 
 1919              		.loc 1 604 4 view .LVU469
 1920 098c 04308DE5 		str	r3, [sp, #4]
 1921 0990 0620A0E1 		mov	r2, r6
 1922 0994 283094E5 		ldr	r3, [r4, #40]
 1923 0998 0E10A0E1 		mov	r1, lr
 1924 099c 00C08DE5 		str	ip, [sp]
 1925 09a0 FEFFFFEB 		bl	AssignValue_VAB(PLT)
 1926              	.LVL190:
 604:/home/hkh/git/eapidk-code-r76-trunk/apps/EeePProg/linux/../CfgPHelper.c ****             ulDeviceAddress, 
 1927              		.loc 1 604 4 view .LVU470
 1928 09a4 004050E2 		subs	r4, r0, #0
 1929              	.LVL191:
 604:/home/hkh/git/eapidk-code-r76-trunk/apps/EeePProg/linux/../CfgPHelper.c ****             ulDeviceAddress, 
 1930              		.loc 1 604 4 is_stmt 0 view .LVU471
 1931 09a8 F4FFFF0A 		beq	.L148
 604:/home/hkh/git/eapidk-code-r76-trunk/apps/EeePProg/linux/../CfgPHelper.c ****             ulDeviceAddress, 
 1932              		.loc 1 604 4 is_stmt 1 discriminator 1 view .LVU472
 1933 09ac A4C09FE5 		ldr	ip, .L161+4
 1934 09b0 973FA0E3 		mov	r3, #604
 1935 09b4 A0009FE5 		ldr	r0, .L161+8
 1936              	.LVL192:
 604:/home/hkh/git/eapidk-code-r76-trunk/apps/EeePProg/linux/../CfgPHelper.c ****             ulDeviceAddress, 
 1937              		.loc 1 604 4 is_stmt 0 discriminator 1 view .LVU473
 1938 09b8 A0209FE5 		ldr	r2, .L161+12
 1939 09bc A0109FE5 		ldr	r1, .L161+16
 1940              	.LPIC76:
 1941 09c0 0CC08FE0 		add	ip, pc, ip
 1942              	.LPIC77:
 1943 09c4 00008FE0 		add	r0, pc, r0
 1944 09c8 00408DE5 		str	r4, [sp]
 1945 09cc 01108DE9 		stmib	sp, {r0, ip}
 1946              	.LPIC74:
 1947 09d0 02208FE0 		add	r2, pc, r2
 1948              	.LPIC75:
 1949 09d4 01108FE0 		add	r1, pc, r1
 1950 09d8 4500A0E3 		mov	r0, #69
 1951 09dc FEFFFFEB 		bl	siFormattedMessage_SC(PLT)
 1952              	.LVL193:
 604:/home/hkh/git/eapidk-code-r76-trunk/apps/EeePProg/linux/../CfgPHelper.c ****             ulDeviceAddress, 
 1953              		.loc 1 604 4 is_stmt 1 discriminator 1 view .LVU474
 1954 09e0 E6FFFFEA 		b	.L148
 1955              	.LVL194:
 1956              	.L159:
 596:/home/hkh/git/eapidk-code-r76-trunk/apps/EeePProg/linux/../CfgPHelper.c ****                 I2C_EEPROM_Addr,
 1957              		.loc 1 596 3 discriminator 1 view .LVU475
 596:/home/hkh/git/eapidk-code-r76-trunk/apps/EeePProg/linux/../CfgPHelper.c ****                 I2C_EEPROM_Addr,
 1958              		.loc 1 596 3 discriminator 1 view .LVU476
 1959 09e4 7CC09FE5 		ldr	ip, .L161+20
 1960 09e8 014CE0E3 		mvn	r4, #256
 1961              	.LVL195:
 596:/home/hkh/git/eapidk-code-r76-trunk/apps/EeePProg/linux/../CfgPHelper.c ****                 I2C_EEPROM_Addr,
 1962              		.loc 1 596 3 is_stmt 0 discriminator 1 view .LVU477
 1963 09ec 78009FE5 		ldr	r0, .L161+24
 1964              	.LVL196:
ARM GAS  /tmp/cc2djyQn.s 			page 53


 596:/home/hkh/git/eapidk-code-r76-trunk/apps/EeePProg/linux/../CfgPHelper.c ****                 I2C_EEPROM_Addr,
 1965              		.loc 1 596 3 discriminator 1 view .LVU478
 1966 09f0 953FA0E3 		mov	r3, #596
 1967 09f4 74209FE5 		ldr	r2, .L161+28
 1968 09f8 74109FE5 		ldr	r1, .L161+32
 1969              	.LPIC72:
 1970 09fc 0CC08FE0 		add	ip, pc, ip
 1971              	.LPIC73:
 1972 0a00 00008FE0 		add	r0, pc, r0
 1973              	.LPIC70:
 1974 0a04 02208FE0 		add	r2, pc, r2
 1975              	.LPIC71:
 1976 0a08 01108FE0 		add	r1, pc, r1
 1977              	.L157:
 1978 0a0c 01108DE9 		stmib	sp, {r0, ip}
 1979 0a10 4500A0E3 		mov	r0, #69
 1980 0a14 00408DE5 		str	r4, [sp]
 1981 0a18 FEFFFFEB 		bl	siFormattedMessage_SC(PLT)
 1982              	.LVL197:
 596:/home/hkh/git/eapidk-code-r76-trunk/apps/EeePProg/linux/../CfgPHelper.c ****                 I2C_EEPROM_Addr,
 1983              		.loc 1 596 3 is_stmt 1 discriminator 1 view .LVU479
 596:/home/hkh/git/eapidk-code-r76-trunk/apps/EeePProg/linux/../CfgPHelper.c ****                 I2C_EEPROM_Addr,
 1984              		.loc 1 596 3 discriminator 1 view .LVU480
 596:/home/hkh/git/eapidk-code-r76-trunk/apps/EeePProg/linux/../CfgPHelper.c ****                 I2C_EEPROM_Addr,
 1985              		.loc 1 596 3 discriminator 1 view .LVU481
 1986              		.loc 1 618 1 is_stmt 0 discriminator 1 view .LVU482
 1987 0a1c 0400A0E1 		mov	r0, r4
 1988 0a20 10D08DE2 		add	sp, sp, #16
 1989              		.cfi_remember_state
 1990              		.cfi_def_cfa_offset 16
 1991              		@ sp needed
 1992 0a24 7080BDE8 		pop	{r4, r5, r6, pc}
 1993              	.LVL198:
 1994              	.L158:
 1995              		.cfi_restore_state
 591:/home/hkh/git/eapidk-code-r76-trunk/apps/EeePProg/linux/../CfgPHelper.c ****                 I2C_EEPROM_Addr,
 1996              		.loc 1 591 3 is_stmt 1 discriminator 1 view .LVU483
 591:/home/hkh/git/eapidk-code-r76-trunk/apps/EeePProg/linux/../CfgPHelper.c ****                 I2C_EEPROM_Addr,
 1997              		.loc 1 591 3 discriminator 1 view .LVU484
 1998 0a28 48C09FE5 		ldr	ip, .L161+36
 1999 0a2c 014CE0E3 		mvn	r4, #256
 2000              	.LVL199:
 591:/home/hkh/git/eapidk-code-r76-trunk/apps/EeePProg/linux/../CfgPHelper.c ****                 I2C_EEPROM_Addr,
 2001              		.loc 1 591 3 is_stmt 0 discriminator 1 view .LVU485
 2002 0a30 44009FE5 		ldr	r0, .L161+40
 2003              	.LVL200:
 591:/home/hkh/git/eapidk-code-r76-trunk/apps/EeePProg/linux/../CfgPHelper.c ****                 I2C_EEPROM_Addr,
 2004              		.loc 1 591 3 discriminator 1 view .LVU486
 2005 0a34 4F3200E3 		movw	r3, #591
 2006 0a38 40209FE5 		ldr	r2, .L161+44
 2007 0a3c 40109FE5 		ldr	r1, .L161+48
 2008              	.LPIC68:
 2009 0a40 0CC08FE0 		add	ip, pc, ip
 2010              	.LPIC69:
 2011 0a44 00008FE0 		add	r0, pc, r0
 2012              	.LPIC66:
 2013 0a48 02208FE0 		add	r2, pc, r2
ARM GAS  /tmp/cc2djyQn.s 			page 54


 2014              	.LPIC67:
 2015 0a4c 01108FE0 		add	r1, pc, r1
 2016 0a50 EDFFFFEA 		b	.L157
 2017              	.L162:
 2018              		.align	2
 2019              	.L161:
 2020 0a54 D4000000 		.word	.LC35-(.LPIC78+8)
 2021 0a58 90000000 		.word	.LC34-(.LPIC76+8)
 2022 0a5c 90000000 		.word	.LC3-(.LPIC77+8)
 2023 0a60 88000000 		.word	.LC26-(.LPIC74+8)
 2024 0a64 88000000 		.word	.LC20-(.LPIC75+8)
 2025 0a68 64000000 		.word	.LC33-(.LPIC72+8)
 2026 0a6c 64000000 		.word	.LC3-(.LPIC73+8)
 2027 0a70 64000000 		.word	.LC31-(.LPIC70+8)
 2028 0a74 64000000 		.word	.LC20-(.LPIC71+8)
 2029 0a78 30000000 		.word	.LC32-(.LPIC68+8)
 2030 0a7c 30000000 		.word	.LC3-(.LPIC69+8)
 2031 0a80 30000000 		.word	.LC31-(.LPIC66+8)
 2032 0a84 30000000 		.word	.LC20-(.LPIC67+8)
 2033              		.cfi_endproc
 2034              	.LFE20:
 2036              		.section	.rodata.str1.4
 2037              		.align	2
 2038              	.LC36:
 2039 0658 53706563 		.ascii	"SpecRev_Element\000"
 2039      5265765F 
 2039      456C656D 
 2039      656E7400 
 2040              		.align	2
 2041              	.LC37:
 2042 0668 282A737A 		.ascii	"(*szEnd!='.')\000"
 2042      456E6421 
 2042      3D272E27 
 2042      2900
 2043 0676 0000     		.align	2
 2044              	.LC38:
 2045 0678 41737369 		.ascii	"AssignValue_VAB( uiValue, pCurElement, (signed int)"
 2045      676E5661 
 2045      6C75655F 
 2045      56414228 
 2045      20756956 
 2046 06ab 70456C65 		.ascii	"pElementDesc->stBitOffset , (signed int)pElementDes"
 2046      6D656E74 
 2046      44657363 
 2046      2D3E7374 
 2046      4269744F 
 2047 06de 632D3E73 		.ascii	"c->stBitLength , (signed int)pElementDesc->Instance"
 2047      74426974 
 2047      4C656E67 
 2047      7468202C 
 2047      20287369 
 2048 0711 732E7374 		.ascii	"s.stElementSize )\000"
 2048      456C656D 
 2048      656E7453 
 2048      697A6520 
 2048      2900
 2049              		.text
ARM GAS  /tmp/cc2djyQn.s 			page 55


 2050              		.align	2
 2051              		.global	SpecRev_Element
 2052              		.syntax unified
 2053              		.arm
 2054              		.fpu vfpv3
 2056              	SpecRev_Element:
 2057              	.LVL201:
 2058              	.LFB23:
 619:/home/hkh/git/eapidk-code-r76-trunk/apps/EeePProg/linux/../CfgPHelper.c **** 
 620:/home/hkh/git/eapidk-code-r76-trunk/apps/EeePProg/linux/../CfgPHelper.c **** EApiStatus_t
 621:/home/hkh/git/eapidk-code-r76-trunk/apps/EeePProg/linux/../CfgPHelper.c **** Token_Element(
 622:/home/hkh/git/eapidk-code-r76-trunk/apps/EeePProg/linux/../CfgPHelper.c ****     struct  CfgElementDesc_s *pElementDesc, 
 623:/home/hkh/git/eapidk-code-r76-trunk/apps/EeePProg/linux/../CfgPHelper.c ****     void *pCurElement,
 624:/home/hkh/git/eapidk-code-r76-trunk/apps/EeePProg/linux/../CfgPHelper.c ****     char   *szValue
 625:/home/hkh/git/eapidk-code-r76-trunk/apps/EeePProg/linux/../CfgPHelper.c ****   )
 626:/home/hkh/git/eapidk-code-r76-trunk/apps/EeePProg/linux/../CfgPHelper.c **** { 
 627:/home/hkh/git/eapidk-code-r76-trunk/apps/EeePProg/linux/../CfgPHelper.c ****   EApiStatus_t StatusCode=EAPI_STATUS_SUCCESS;
 628:/home/hkh/git/eapidk-code-r76-trunk/apps/EeePProg/linux/../CfgPHelper.c ****   unsigned long    ulValue;
 629:/home/hkh/git/eapidk-code-r76-trunk/apps/EeePProg/linux/../CfgPHelper.c **** 
 630:/home/hkh/git/eapidk-code-r76-trunk/apps/EeePProg/linux/../CfgPHelper.c **** 
 631:/home/hkh/git/eapidk-code-r76-trunk/apps/EeePProg/linux/../CfgPHelper.c ****   szValue=skipWhiteSpaces(szValue);
 632:/home/hkh/git/eapidk-code-r76-trunk/apps/EeePProg/linux/../CfgPHelper.c ****   stripWhiteSpaces(szValue);
 633:/home/hkh/git/eapidk-code-r76-trunk/apps/EeePProg/linux/../CfgPHelper.c ****   StatusCode=GetTokenValue(
 634:/home/hkh/git/eapidk-code-r76-trunk/apps/EeePProg/linux/../CfgPHelper.c ****       ((TokenListDesc_t*)pElementDesc->pExtraInfo), 
 635:/home/hkh/git/eapidk-code-r76-trunk/apps/EeePProg/linux/../CfgPHelper.c ****       szValue, 
 636:/home/hkh/git/eapidk-code-r76-trunk/apps/EeePProg/linux/../CfgPHelper.c ****       &ulValue
 637:/home/hkh/git/eapidk-code-r76-trunk/apps/EeePProg/linux/../CfgPHelper.c ****     );
 638:/home/hkh/git/eapidk-code-r76-trunk/apps/EeePProg/linux/../CfgPHelper.c **** 
 639:/home/hkh/git/eapidk-code-r76-trunk/apps/EeePProg/linux/../CfgPHelper.c ****   if(!EAPI_TEST_SUCCESS(StatusCode)){
 640:/home/hkh/git/eapidk-code-r76-trunk/apps/EeePProg/linux/../CfgPHelper.c ****     printf("\tToken_Element = Unknown Token, %s\n", szValue);
 641:/home/hkh/git/eapidk-code-r76-trunk/apps/EeePProg/linux/../CfgPHelper.c ****   }else{
 642:/home/hkh/git/eapidk-code-r76-trunk/apps/EeePProg/linux/../CfgPHelper.c **** /*     printf("\tToken_Element = 0x%04lX, %s\n", *(unsigned long*)pCurElement, szValue); */
 643:/home/hkh/git/eapidk-code-r76-trunk/apps/EeePProg/linux/../CfgPHelper.c ****   	DO(AssignValue_VAB(
 644:/home/hkh/git/eapidk-code-r76-trunk/apps/EeePProg/linux/../CfgPHelper.c ****             ulValue, 
 645:/home/hkh/git/eapidk-code-r76-trunk/apps/EeePProg/linux/../CfgPHelper.c ****             pCurElement, 
 646:/home/hkh/git/eapidk-code-r76-trunk/apps/EeePProg/linux/../CfgPHelper.c ****             (signed int)pElementDesc->stBitOffset  ,
 647:/home/hkh/git/eapidk-code-r76-trunk/apps/EeePProg/linux/../CfgPHelper.c ****             (signed int)pElementDesc->stBitLength     , 
 648:/home/hkh/git/eapidk-code-r76-trunk/apps/EeePProg/linux/../CfgPHelper.c ****             (signed int)pElementDesc->Instances.stElementSize
 649:/home/hkh/git/eapidk-code-r76-trunk/apps/EeePProg/linux/../CfgPHelper.c ****           ));
 650:/home/hkh/git/eapidk-code-r76-trunk/apps/EeePProg/linux/../CfgPHelper.c ****   }
 651:/home/hkh/git/eapidk-code-r76-trunk/apps/EeePProg/linux/../CfgPHelper.c **** EAPI_APP_ASSERT_EXIT
 652:/home/hkh/git/eapidk-code-r76-trunk/apps/EeePProg/linux/../CfgPHelper.c ****   return StatusCode;
 653:/home/hkh/git/eapidk-code-r76-trunk/apps/EeePProg/linux/../CfgPHelper.c **** }
 654:/home/hkh/git/eapidk-code-r76-trunk/apps/EeePProg/linux/../CfgPHelper.c **** EApiStatus_t
 655:/home/hkh/git/eapidk-code-r76-trunk/apps/EeePProg/linux/../CfgPHelper.c **** TokenNum_Element(
 656:/home/hkh/git/eapidk-code-r76-trunk/apps/EeePProg/linux/../CfgPHelper.c ****     struct  CfgElementDesc_s *pElementDesc, 
 657:/home/hkh/git/eapidk-code-r76-trunk/apps/EeePProg/linux/../CfgPHelper.c ****     void *pCurElement,
 658:/home/hkh/git/eapidk-code-r76-trunk/apps/EeePProg/linux/../CfgPHelper.c ****     char   *szValue
 659:/home/hkh/git/eapidk-code-r76-trunk/apps/EeePProg/linux/../CfgPHelper.c ****   )
 660:/home/hkh/git/eapidk-code-r76-trunk/apps/EeePProg/linux/../CfgPHelper.c **** { 
 661:/home/hkh/git/eapidk-code-r76-trunk/apps/EeePProg/linux/../CfgPHelper.c ****   EApiStatus_t StatusCode=EAPI_STATUS_SUCCESS;
 662:/home/hkh/git/eapidk-code-r76-trunk/apps/EeePProg/linux/../CfgPHelper.c ****   unsigned long ulValue;
 663:/home/hkh/git/eapidk-code-r76-trunk/apps/EeePProg/linux/../CfgPHelper.c **** 
 664:/home/hkh/git/eapidk-code-r76-trunk/apps/EeePProg/linux/../CfgPHelper.c ****   szValue=skipWhiteSpaces(szValue);
 665:/home/hkh/git/eapidk-code-r76-trunk/apps/EeePProg/linux/../CfgPHelper.c ****   stripWhiteSpaces(szValue);
 666:/home/hkh/git/eapidk-code-r76-trunk/apps/EeePProg/linux/../CfgPHelper.c **** 
 667:/home/hkh/git/eapidk-code-r76-trunk/apps/EeePProg/linux/../CfgPHelper.c ****   StatusCode=GetTokenValue(
ARM GAS  /tmp/cc2djyQn.s 			page 56


 668:/home/hkh/git/eapidk-code-r76-trunk/apps/EeePProg/linux/../CfgPHelper.c ****       ((TokenNumDesc_t*)pElementDesc->pExtraInfo)->pTokens, 
 669:/home/hkh/git/eapidk-code-r76-trunk/apps/EeePProg/linux/../CfgPHelper.c ****       szValue, 
 670:/home/hkh/git/eapidk-code-r76-trunk/apps/EeePProg/linux/../CfgPHelper.c ****       &ulValue
 671:/home/hkh/git/eapidk-code-r76-trunk/apps/EeePProg/linux/../CfgPHelper.c ****     );
 672:/home/hkh/git/eapidk-code-r76-trunk/apps/EeePProg/linux/../CfgPHelper.c ****   if(EAPI_TEST_SUCCESS(StatusCode)){
 673:/home/hkh/git/eapidk-code-r76-trunk/apps/EeePProg/linux/../CfgPHelper.c ****     DO(AssignValue_VA(
 674:/home/hkh/git/eapidk-code-r76-trunk/apps/EeePProg/linux/../CfgPHelper.c ****         ulValue, 
 675:/home/hkh/git/eapidk-code-r76-trunk/apps/EeePProg/linux/../CfgPHelper.c ****         pCurElement, 
 676:/home/hkh/git/eapidk-code-r76-trunk/apps/EeePProg/linux/../CfgPHelper.c ****         (signed int)pElementDesc->Instances.stElementSize
 677:/home/hkh/git/eapidk-code-r76-trunk/apps/EeePProg/linux/../CfgPHelper.c ****     ));
 678:/home/hkh/git/eapidk-code-r76-trunk/apps/EeePProg/linux/../CfgPHelper.c ****   }else{
 679:/home/hkh/git/eapidk-code-r76-trunk/apps/EeePProg/linux/../CfgPHelper.c ****     struct  CfgElementDesc_s LclElementDesc=*pElementDesc;
 680:/home/hkh/git/eapidk-code-r76-trunk/apps/EeePProg/linux/../CfgPHelper.c **** 
 681:/home/hkh/git/eapidk-code-r76-trunk/apps/EeePProg/linux/../CfgPHelper.c ****     LclElementDesc.pExtraInfo=((TokenNumDesc_t*)pElementDesc->pExtraInfo)->pRange;
 682:/home/hkh/git/eapidk-code-r76-trunk/apps/EeePProg/linux/../CfgPHelper.c ****     DO(Number_Element(&LclElementDesc, pCurElement, szValue));
 683:/home/hkh/git/eapidk-code-r76-trunk/apps/EeePProg/linux/../CfgPHelper.c ****   }
 684:/home/hkh/git/eapidk-code-r76-trunk/apps/EeePProg/linux/../CfgPHelper.c **** 
 685:/home/hkh/git/eapidk-code-r76-trunk/apps/EeePProg/linux/../CfgPHelper.c **** 
 686:/home/hkh/git/eapidk-code-r76-trunk/apps/EeePProg/linux/../CfgPHelper.c **** EAPI_APP_ASSERT_EXIT
 687:/home/hkh/git/eapidk-code-r76-trunk/apps/EeePProg/linux/../CfgPHelper.c ****   return StatusCode;
 688:/home/hkh/git/eapidk-code-r76-trunk/apps/EeePProg/linux/../CfgPHelper.c **** }
 689:/home/hkh/git/eapidk-code-r76-trunk/apps/EeePProg/linux/../CfgPHelper.c **** 
 690:/home/hkh/git/eapidk-code-r76-trunk/apps/EeePProg/linux/../CfgPHelper.c **** EApiStatus_t
 691:/home/hkh/git/eapidk-code-r76-trunk/apps/EeePProg/linux/../CfgPHelper.c **** SpecRev_Element(
 692:/home/hkh/git/eapidk-code-r76-trunk/apps/EeePProg/linux/../CfgPHelper.c ****     struct  CfgElementDesc_s *pElementDesc, 
 693:/home/hkh/git/eapidk-code-r76-trunk/apps/EeePProg/linux/../CfgPHelper.c ****     void     *pCurElement,
 694:/home/hkh/git/eapidk-code-r76-trunk/apps/EeePProg/linux/../CfgPHelper.c ****     char   *szValue
 695:/home/hkh/git/eapidk-code-r76-trunk/apps/EeePProg/linux/../CfgPHelper.c ****   )
 696:/home/hkh/git/eapidk-code-r76-trunk/apps/EeePProg/linux/../CfgPHelper.c **** { 
 2059              		.loc 1 696 1 is_stmt 1 view -0
 2060              		.cfi_startproc
 2061              		@ args = 0, pretend = 0, frame = 8
 2062              		@ frame_needed = 0, uses_anonymous_args = 0
 2063              		.loc 1 696 1 is_stmt 0 view .LVU488
 2064 0a88 F0402DE9 		push	{r4, r5, r6, r7, lr}
 2065              		.cfi_def_cfa_offset 20
 2066              		.cfi_offset 4, -20
 2067              		.cfi_offset 5, -16
 2068              		.cfi_offset 6, -12
 2069              		.cfi_offset 7, -8
 2070              		.cfi_offset 14, -4
 2071 0a8c 0050A0E1 		mov	r5, r0
 697:/home/hkh/git/eapidk-code-r76-trunk/apps/EeePProg/linux/../CfgPHelper.c ****   EApiStatus_t StatusCode=EAPI_STATUS_SUCCESS;
 698:/home/hkh/git/eapidk-code-r76-trunk/apps/EeePProg/linux/../CfgPHelper.c ****   unsigned int uiValue;
 699:/home/hkh/git/eapidk-code-r76-trunk/apps/EeePProg/linux/../CfgPHelper.c ****   char *szEnd;
 700:/home/hkh/git/eapidk-code-r76-trunk/apps/EeePProg/linux/../CfgPHelper.c ****   pElementDesc=pElementDesc;
 701:/home/hkh/git/eapidk-code-r76-trunk/apps/EeePProg/linux/../CfgPHelper.c ****   uiValue=(ulConvertStr2NumEx(szValue, &szEnd)&0xF)<<4;
 2072              		.loc 1 701 12 view .LVU489
 2073 0a90 0200A0E1 		mov	r0, r2
 2074              	.LVL202:
 696:/home/hkh/git/eapidk-code-r76-trunk/apps/EeePProg/linux/../CfgPHelper.c ****   EApiStatus_t StatusCode=EAPI_STATUS_SUCCESS;
 2075              		.loc 1 696 1 view .LVU490
 2076 0a94 28219FE5 		ldr	r2, .L174
 2077              	.LVL203:
 696:/home/hkh/git/eapidk-code-r76-trunk/apps/EeePProg/linux/../CfgPHelper.c ****   EApiStatus_t StatusCode=EAPI_STATUS_SUCCESS;
 2078              		.loc 1 696 1 view .LVU491
 2079 0a98 1CD04DE2 		sub	sp, sp, #28
ARM GAS  /tmp/cc2djyQn.s 			page 57


 2080              		.cfi_def_cfa_offset 48
 696:/home/hkh/git/eapidk-code-r76-trunk/apps/EeePProg/linux/../CfgPHelper.c ****   EApiStatus_t StatusCode=EAPI_STATUS_SUCCESS;
 2081              		.loc 1 696 1 view .LVU492
 2082 0a9c 0160A0E1 		mov	r6, r1
 2083 0aa0 20319FE5 		ldr	r3, .L174+4
 2084              		.loc 1 701 12 view .LVU493
 2085 0aa4 10708DE2 		add	r7, sp, #16
 696:/home/hkh/git/eapidk-code-r76-trunk/apps/EeePProg/linux/../CfgPHelper.c ****   EApiStatus_t StatusCode=EAPI_STATUS_SUCCESS;
 2086              		.loc 1 696 1 view .LVU494
 2087              	.LPIC88:
 2088 0aa8 02208FE0 		add	r2, pc, r2
 2089              		.loc 1 701 12 view .LVU495
 2090 0aac 0710A0E1 		mov	r1, r7
 696:/home/hkh/git/eapidk-code-r76-trunk/apps/EeePProg/linux/../CfgPHelper.c ****   EApiStatus_t StatusCode=EAPI_STATUS_SUCCESS;
 2091              		.loc 1 696 1 view .LVU496
 2092 0ab0 033092E7 		ldr	r3, [r2, r3]
 2093 0ab4 003093E5 		ldr	r3, [r3]
 2094 0ab8 14308DE5 		str	r3, [sp, #20]
 2095 0abc 0030A0E3 		mov	r3, #0
 697:/home/hkh/git/eapidk-code-r76-trunk/apps/EeePProg/linux/../CfgPHelper.c ****   EApiStatus_t StatusCode=EAPI_STATUS_SUCCESS;
 2096              		.loc 1 697 3 is_stmt 1 view .LVU497
 2097              	.LVL204:
 698:/home/hkh/git/eapidk-code-r76-trunk/apps/EeePProg/linux/../CfgPHelper.c ****   char *szEnd;
 2098              		.loc 1 698 3 view .LVU498
 699:/home/hkh/git/eapidk-code-r76-trunk/apps/EeePProg/linux/../CfgPHelper.c ****   pElementDesc=pElementDesc;
 2099              		.loc 1 699 3 view .LVU499
 700:/home/hkh/git/eapidk-code-r76-trunk/apps/EeePProg/linux/../CfgPHelper.c ****   uiValue=(ulConvertStr2NumEx(szValue, &szEnd)&0xF)<<4;
 2100              		.loc 1 700 3 view .LVU500
 2101              		.loc 1 701 3 view .LVU501
 2102              		.loc 1 701 12 is_stmt 0 view .LVU502
 2103 0ac0 FEFFFFEB 		bl	ulConvertStr2NumEx(PLT)
 2104              	.LVL205:
 702:/home/hkh/git/eapidk-code-r76-trunk/apps/EeePProg/linux/../CfgPHelper.c ****   EAPI_APP_RETURN_ERROR_IF_S(
 2105              		.loc 1 702 3 view .LVU503
 2106 0ac4 10309DE5 		ldr	r3, [sp, #16]
 2107              	.LVL206:
 2108              		.loc 1 702 3 is_stmt 1 view .LVU504
 2109 0ac8 0020D3E5 		ldrb	r2, [r3]	@ zero_extendqisi2
 2110 0acc 2E0052E3 		cmp	r2, #46
 2111 0ad0 1D00001A 		bne	.L171
 2112              		.loc 1 702 3 discriminator 2 view .LVU505
 703:/home/hkh/git/eapidk-code-r76-trunk/apps/EeePProg/linux/../CfgPHelper.c ****       SpecRev_Element,
 704:/home/hkh/git/eapidk-code-r76-trunk/apps/EeePProg/linux/../CfgPHelper.c ****       (*szEnd!='.'),
 705:/home/hkh/git/eapidk-code-r76-trunk/apps/EeePProg/linux/../CfgPHelper.c ****       EAPI_STATUS_ERROR
 706:/home/hkh/git/eapidk-code-r76-trunk/apps/EeePProg/linux/../CfgPHelper.c ****       );
 2113              		.loc 1 706 8 discriminator 2 view .LVU506
 707:/home/hkh/git/eapidk-code-r76-trunk/apps/EeePProg/linux/../CfgPHelper.c ****   uiValue|=ulConvertStr2NumEx(szEnd+1, &szEnd)&0xF;
 2114              		.loc 1 707 3 discriminator 2 view .LVU507
 2115 0ad4 0040A0E1 		mov	r4, r0
 2116              		.loc 1 707 12 is_stmt 0 discriminator 2 view .LVU508
 2117 0ad8 0710A0E1 		mov	r1, r7
 2118 0adc 010083E2 		add	r0, r3, #1
 2119              	.LVL207:
 701:/home/hkh/git/eapidk-code-r76-trunk/apps/EeePProg/linux/../CfgPHelper.c ****   EAPI_APP_RETURN_ERROR_IF_S(
 2120              		.loc 1 701 52 discriminator 2 view .LVU509
 2121 0ae0 0442A0E1 		lsl	r4, r4, #4
 2122              	.LVL208:
ARM GAS  /tmp/cc2djyQn.s 			page 58


 2123              		.loc 1 707 12 discriminator 2 view .LVU510
 2124 0ae4 FEFFFFEB 		bl	ulConvertStr2NumEx(PLT)
 2125              	.LVL209:
 708:/home/hkh/git/eapidk-code-r76-trunk/apps/EeePProg/linux/../CfgPHelper.c **** /*   printf("\tSpecRev_Element = 0x%04lX, %s\n", *(unsigned long*)pCurElement, szValue); */
 709:/home/hkh/git/eapidk-code-r76-trunk/apps/EeePProg/linux/../CfgPHelper.c ****   DO(AssignValue_VAB(
 2126              		.loc 1 709 3 discriminator 2 view .LVU511
 2127 0ae8 143095E5 		ldr	r3, [r5, #20]
 701:/home/hkh/git/eapidk-code-r76-trunk/apps/EeePProg/linux/../CfgPHelper.c ****   EAPI_APP_RETURN_ERROR_IF_S(
 2128              		.loc 1 701 10 discriminator 2 view .LVU512
 2129 0aec 7440EFE6 		uxtb	r4, r4
 2130              	.LVL210:
 2131              		.loc 1 709 3 is_stmt 1 discriminator 2 view .LVU513
 2132              		.loc 1 709 3 discriminator 2 view .LVU514
 707:/home/hkh/git/eapidk-code-r76-trunk/apps/EeePProg/linux/../CfgPHelper.c **** /*   printf("\tSpecRev_Element = 0x%04lX, %s\n", *(unsigned long*)pCurElement, szValue); */
 2133              		.loc 1 707 47 is_stmt 0 discriminator 2 view .LVU515
 2134 0af0 0F0000E2 		and	r0, r0, #15
 2135              	.LVL211:
 2136              		.loc 1 709 3 discriminator 2 view .LVU516
 2137 0af4 040080E1 		orr	r0, r0, r4
 2138 0af8 0620A0E1 		mov	r2, r6
 2139 0afc 04308DE5 		str	r3, [sp, #4]
 2140 0b00 0010A0E3 		mov	r1, #0
 2141 0b04 2CC095E5 		ldr	ip, [r5, #44]
 2142 0b08 283095E5 		ldr	r3, [r5, #40]
 2143 0b0c 00C08DE5 		str	ip, [sp]
 2144 0b10 FEFFFFEB 		bl	AssignValue_VAB(PLT)
 2145              	.LVL212:
 2146              		.loc 1 709 3 is_stmt 1 discriminator 2 view .LVU517
 2147 0b14 004050E2 		subs	r4, r0, #0
 2148 0b18 1A00001A 		bne	.L172
 2149              	.LVL213:
 2150              	.L163:
 696:/home/hkh/git/eapidk-code-r76-trunk/apps/EeePProg/linux/../CfgPHelper.c ****   EApiStatus_t StatusCode=EAPI_STATUS_SUCCESS;
 2151              		.loc 1 696 1 is_stmt 0 view .LVU518
 2152 0b1c A8209FE5 		ldr	r2, .L174+8
 710:/home/hkh/git/eapidk-code-r76-trunk/apps/EeePProg/linux/../CfgPHelper.c ****             uiValue, 
 711:/home/hkh/git/eapidk-code-r76-trunk/apps/EeePProg/linux/../CfgPHelper.c ****             pCurElement, 
 712:/home/hkh/git/eapidk-code-r76-trunk/apps/EeePProg/linux/../CfgPHelper.c ****             (signed int)pElementDesc->stBitOffset  ,
 713:/home/hkh/git/eapidk-code-r76-trunk/apps/EeePProg/linux/../CfgPHelper.c ****             (signed int)pElementDesc->stBitLength     , 
 714:/home/hkh/git/eapidk-code-r76-trunk/apps/EeePProg/linux/../CfgPHelper.c ****             (signed int)pElementDesc->Instances.stElementSize
 715:/home/hkh/git/eapidk-code-r76-trunk/apps/EeePProg/linux/../CfgPHelper.c ****           ));
 716:/home/hkh/git/eapidk-code-r76-trunk/apps/EeePProg/linux/../CfgPHelper.c **** EAPI_APP_ASSERT_EXIT
 717:/home/hkh/git/eapidk-code-r76-trunk/apps/EeePProg/linux/../CfgPHelper.c ****   return StatusCode;
 718:/home/hkh/git/eapidk-code-r76-trunk/apps/EeePProg/linux/../CfgPHelper.c **** }
 2153              		.loc 1 718 1 view .LVU519
 2154 0b20 A0309FE5 		ldr	r3, .L174+4
 696:/home/hkh/git/eapidk-code-r76-trunk/apps/EeePProg/linux/../CfgPHelper.c ****   EApiStatus_t StatusCode=EAPI_STATUS_SUCCESS;
 2155              		.loc 1 696 1 view .LVU520
 2156              	.LPIC87:
 2157 0b24 02208FE0 		add	r2, pc, r2
 2158              		.loc 1 718 1 view .LVU521
 2159 0b28 033092E7 		ldr	r3, [r2, r3]
 2160 0b2c 002093E5 		ldr	r2, [r3]
 2161 0b30 14309DE5 		ldr	r3, [sp, #20]
 2162 0b34 022033E0 		eors	r2, r3, r2
 2163 0b38 0030A0E3 		mov	r3, #0
 2164 0b3c 1F00001A 		bne	.L173
ARM GAS  /tmp/cc2djyQn.s 			page 59


 2165 0b40 0400A0E1 		mov	r0, r4
 2166 0b44 1CD08DE2 		add	sp, sp, #28
 2167              		.cfi_remember_state
 2168              		.cfi_def_cfa_offset 20
 2169              		@ sp needed
 2170 0b48 F080BDE8 		pop	{r4, r5, r6, r7, pc}
 2171              	.LVL214:
 2172              	.L171:
 2173              		.cfi_restore_state
 702:/home/hkh/git/eapidk-code-r76-trunk/apps/EeePProg/linux/../CfgPHelper.c ****       SpecRev_Element,
 2174              		.loc 1 702 3 is_stmt 1 discriminator 1 view .LVU522
 702:/home/hkh/git/eapidk-code-r76-trunk/apps/EeePProg/linux/../CfgPHelper.c ****       SpecRev_Element,
 2175              		.loc 1 702 3 discriminator 1 view .LVU523
 2176 0b4c 7CC09FE5 		ldr	ip, .L174+12
 2177 0b50 0F4CE0E3 		mvn	r4, #3840
 2178 0b54 78009FE5 		ldr	r0, .L174+16
 2179              	.LVL215:
 702:/home/hkh/git/eapidk-code-r76-trunk/apps/EeePProg/linux/../CfgPHelper.c ****       SpecRev_Element,
 2180              		.loc 1 702 3 is_stmt 0 discriminator 1 view .LVU524
 2181 0b58 BE3200E3 		movw	r3, #702
 2182 0b5c 74209FE5 		ldr	r2, .L174+20
 2183 0b60 74109FE5 		ldr	r1, .L174+24
 2184              	.LPIC81:
 2185 0b64 0CC08FE0 		add	ip, pc, ip
 2186              	.LPIC82:
 2187 0b68 00008FE0 		add	r0, pc, r0
 2188 0b6c 00408DE5 		str	r4, [sp]
 2189 0b70 01108DE9 		stmib	sp, {r0, ip}
 2190              	.LPIC79:
 2191 0b74 02208FE0 		add	r2, pc, r2
 2192              	.LPIC80:
 2193 0b78 01108FE0 		add	r1, pc, r1
 2194 0b7c 4500A0E3 		mov	r0, #69
 2195 0b80 FEFFFFEB 		bl	siFormattedMessage_SC(PLT)
 2196              	.LVL216:
 702:/home/hkh/git/eapidk-code-r76-trunk/apps/EeePProg/linux/../CfgPHelper.c ****       SpecRev_Element,
 2197              		.loc 1 702 3 is_stmt 1 discriminator 1 view .LVU525
 702:/home/hkh/git/eapidk-code-r76-trunk/apps/EeePProg/linux/../CfgPHelper.c ****       SpecRev_Element,
 2198              		.loc 1 702 3 discriminator 1 view .LVU526
 702:/home/hkh/git/eapidk-code-r76-trunk/apps/EeePProg/linux/../CfgPHelper.c ****       SpecRev_Element,
 2199              		.loc 1 702 3 discriminator 1 view .LVU527
 2200 0b84 E4FFFFEA 		b	.L163
 2201              	.LVL217:
 2202              	.L172:
 2203              	.L165:
 709:/home/hkh/git/eapidk-code-r76-trunk/apps/EeePProg/linux/../CfgPHelper.c ****             uiValue, 
 2204              		.loc 1 709 3 discriminator 1 view .LVU528
 2205 0b88 50C09FE5 		ldr	ip, .L174+28
 2206 0b8c C53200E3 		movw	r3, #709
 2207 0b90 4C009FE5 		ldr	r0, .L174+32
 2208              	.LVL218:
 709:/home/hkh/git/eapidk-code-r76-trunk/apps/EeePProg/linux/../CfgPHelper.c ****             uiValue, 
 2209              		.loc 1 709 3 is_stmt 0 discriminator 1 view .LVU529
 2210 0b94 4C209FE5 		ldr	r2, .L174+36
 2211 0b98 4C109FE5 		ldr	r1, .L174+40
 2212              	.LPIC85:
 2213 0b9c 0CC08FE0 		add	ip, pc, ip
ARM GAS  /tmp/cc2djyQn.s 			page 60


 2214              	.LPIC86:
 2215 0ba0 00008FE0 		add	r0, pc, r0
 2216 0ba4 00408DE5 		str	r4, [sp]
 2217 0ba8 01108DE9 		stmib	sp, {r0, ip}
 2218              	.LPIC83:
 2219 0bac 02208FE0 		add	r2, pc, r2
 2220              	.LPIC84:
 2221 0bb0 01108FE0 		add	r1, pc, r1
 2222 0bb4 4500A0E3 		mov	r0, #69
 2223 0bb8 FEFFFFEB 		bl	siFormattedMessage_SC(PLT)
 2224              	.LVL219:
 709:/home/hkh/git/eapidk-code-r76-trunk/apps/EeePProg/linux/../CfgPHelper.c ****             uiValue, 
 2225              		.loc 1 709 3 is_stmt 1 discriminator 1 view .LVU530
 709:/home/hkh/git/eapidk-code-r76-trunk/apps/EeePProg/linux/../CfgPHelper.c ****             uiValue, 
 2226              		.loc 1 709 3 discriminator 1 view .LVU531
 717:/home/hkh/git/eapidk-code-r76-trunk/apps/EeePProg/linux/../CfgPHelper.c **** }
 2227              		.loc 1 717 3 discriminator 1 view .LVU532
 717:/home/hkh/git/eapidk-code-r76-trunk/apps/EeePProg/linux/../CfgPHelper.c **** }
 2228              		.loc 1 717 10 is_stmt 0 discriminator 1 view .LVU533
 2229 0bbc D6FFFFEA 		b	.L163
 2230              	.LVL220:
 2231              	.L173:
 2232              		.loc 1 718 1 view .LVU534
 2233 0bc0 FEFFFFEB 		bl	__stack_chk_fail(PLT)
 2234              	.LVL221:
 2235              	.L175:
 2236              		.align	2
 2237              	.L174:
 2238 0bc4 14010000 		.word	_GLOBAL_OFFSET_TABLE_-(.LPIC88+8)
 2239 0bc8 00000000 		.word	__stack_chk_guard(GOT)
 2240 0bcc A0000000 		.word	_GLOBAL_OFFSET_TABLE_-(.LPIC87+8)
 2241 0bd0 64000000 		.word	.LC37-(.LPIC81+8)
 2242 0bd4 64000000 		.word	.LC3-(.LPIC82+8)
 2243 0bd8 5C000000 		.word	.LC36-(.LPIC79+8)
 2244 0bdc 5C000000 		.word	.LC20-(.LPIC80+8)
 2245 0be0 3C000000 		.word	.LC38-(.LPIC85+8)
 2246 0be4 3C000000 		.word	.LC3-(.LPIC86+8)
 2247 0be8 34000000 		.word	.LC26-(.LPIC83+8)
 2248 0bec 34000000 		.word	.LC20-(.LPIC84+8)
 2249              		.cfi_endproc
 2250              	.LFE23:
 2252              		.section	.rodata.str1.4
 2253 0723 00       		.align	2
 2254              	.LC39:
 2255 0724 09546F6B 		.ascii	"\011Token_Element = Unknown Token, %s\012\000"
 2255      656E5F45 
 2255      6C656D65 
 2255      6E74203D 
 2255      20556E6B 
 2256              		.align	2
 2257              	.LC40:
 2258 0748 41737369 		.ascii	"AssignValue_VAB( ulValue, pCurElement, (signed int)"
 2258      676E5661 
 2258      6C75655F 
 2258      56414228 
 2258      20756C56 
 2259 077b 70456C65 		.ascii	"pElementDesc->stBitOffset , (signed int)pElementDes"
ARM GAS  /tmp/cc2djyQn.s 			page 61


 2259      6D656E74 
 2259      44657363 
 2259      2D3E7374 
 2259      4269744F 
 2260 07ae 632D3E73 		.ascii	"c->stBitLength , (signed int)pElementDesc->Instance"
 2260      74426974 
 2260      4C656E67 
 2260      7468202C 
 2260      20287369 
 2261 07e1 732E7374 		.ascii	"s.stElementSize )\000"
 2261      456C656D 
 2261      656E7453 
 2261      697A6520 
 2261      2900
 2262              		.text
 2263              		.align	2
 2264              		.global	Token_Element
 2265              		.syntax unified
 2266              		.arm
 2267              		.fpu vfpv3
 2269              	Token_Element:
 2270              	.LVL222:
 2271              	.LFB21:
 626:/home/hkh/git/eapidk-code-r76-trunk/apps/EeePProg/linux/../CfgPHelper.c ****   EApiStatus_t StatusCode=EAPI_STATUS_SUCCESS;
 2272              		.loc 1 626 1 is_stmt 1 view -0
 2273              		.cfi_startproc
 2274              		@ args = 0, pretend = 0, frame = 8
 2275              		@ frame_needed = 0, uses_anonymous_args = 0
 626:/home/hkh/git/eapidk-code-r76-trunk/apps/EeePProg/linux/../CfgPHelper.c ****   EApiStatus_t StatusCode=EAPI_STATUS_SUCCESS;
 2276              		.loc 1 626 1 is_stmt 0 view .LVU536
 2277 0bf0 F0402DE9 		push	{r4, r5, r6, r7, lr}
 2278              		.cfi_def_cfa_offset 20
 2279              		.cfi_offset 4, -20
 2280              		.cfi_offset 5, -16
 2281              		.cfi_offset 6, -12
 2282              		.cfi_offset 7, -8
 2283              		.cfi_offset 14, -4
 2284 0bf4 0060A0E1 		mov	r6, r0
 631:/home/hkh/git/eapidk-code-r76-trunk/apps/EeePProg/linux/../CfgPHelper.c ****   stripWhiteSpaces(szValue);
 2285              		.loc 1 631 11 view .LVU537
 2286 0bf8 0200A0E1 		mov	r0, r2
 2287              	.LVL223:
 626:/home/hkh/git/eapidk-code-r76-trunk/apps/EeePProg/linux/../CfgPHelper.c ****   EApiStatus_t StatusCode=EAPI_STATUS_SUCCESS;
 2288              		.loc 1 626 1 view .LVU538
 2289 0bfc E4209FE5 		ldr	r2, .L185
 2290              	.LVL224:
 626:/home/hkh/git/eapidk-code-r76-trunk/apps/EeePProg/linux/../CfgPHelper.c ****   EApiStatus_t StatusCode=EAPI_STATUS_SUCCESS;
 2291              		.loc 1 626 1 view .LVU539
 2292 0c00 1CD04DE2 		sub	sp, sp, #28
 2293              		.cfi_def_cfa_offset 48
 626:/home/hkh/git/eapidk-code-r76-trunk/apps/EeePProg/linux/../CfgPHelper.c ****   EApiStatus_t StatusCode=EAPI_STATUS_SUCCESS;
 2294              		.loc 1 626 1 view .LVU540
 2295 0c04 0170A0E1 		mov	r7, r1
 2296 0c08 DC309FE5 		ldr	r3, .L185+4
 2297              	.LPIC95:
 2298 0c0c 02208FE0 		add	r2, pc, r2
 2299 0c10 033092E7 		ldr	r3, [r2, r3]
ARM GAS  /tmp/cc2djyQn.s 			page 62


 2300 0c14 003093E5 		ldr	r3, [r3]
 2301 0c18 14308DE5 		str	r3, [sp, #20]
 2302 0c1c 0030A0E3 		mov	r3, #0
 627:/home/hkh/git/eapidk-code-r76-trunk/apps/EeePProg/linux/../CfgPHelper.c ****   unsigned long    ulValue;
 2303              		.loc 1 627 3 is_stmt 1 view .LVU541
 2304              	.LVL225:
 628:/home/hkh/git/eapidk-code-r76-trunk/apps/EeePProg/linux/../CfgPHelper.c **** 
 2305              		.loc 1 628 3 view .LVU542
 631:/home/hkh/git/eapidk-code-r76-trunk/apps/EeePProg/linux/../CfgPHelper.c ****   stripWhiteSpaces(szValue);
 2306              		.loc 1 631 3 view .LVU543
 631:/home/hkh/git/eapidk-code-r76-trunk/apps/EeePProg/linux/../CfgPHelper.c ****   stripWhiteSpaces(szValue);
 2307              		.loc 1 631 11 is_stmt 0 view .LVU544
 2308 0c20 FEFFFFEB 		bl	skipWhiteSpaces(PLT)
 2309              	.LVL226:
 631:/home/hkh/git/eapidk-code-r76-trunk/apps/EeePProg/linux/../CfgPHelper.c ****   stripWhiteSpaces(szValue);
 2310              		.loc 1 631 11 view .LVU545
 2311 0c24 0050A0E1 		mov	r5, r0
 2312              	.LVL227:
 632:/home/hkh/git/eapidk-code-r76-trunk/apps/EeePProg/linux/../CfgPHelper.c ****   StatusCode=GetTokenValue(
 2313              		.loc 1 632 3 is_stmt 1 view .LVU546
 2314 0c28 FEFFFFEB 		bl	stripWhiteSpaces(PLT)
 2315              	.LVL228:
 633:/home/hkh/git/eapidk-code-r76-trunk/apps/EeePProg/linux/../CfgPHelper.c ****       ((TokenListDesc_t*)pElementDesc->pExtraInfo), 
 2316              		.loc 1 633 3 view .LVU547
 633:/home/hkh/git/eapidk-code-r76-trunk/apps/EeePProg/linux/../CfgPHelper.c ****       ((TokenListDesc_t*)pElementDesc->pExtraInfo), 
 2317              		.loc 1 633 14 is_stmt 0 view .LVU548
 2318 0c2c 340096E5 		ldr	r0, [r6, #52]
 2319 0c30 10208DE2 		add	r2, sp, #16
 2320 0c34 0510A0E1 		mov	r1, r5
 2321 0c38 FEFFFFEB 		bl	GetTokenValue(PLT)
 2322              	.LVL229:
 639:/home/hkh/git/eapidk-code-r76-trunk/apps/EeePProg/linux/../CfgPHelper.c ****     printf("\tToken_Element = Unknown Token, %s\n", szValue);
 2323              		.loc 1 639 3 is_stmt 1 view .LVU549
 639:/home/hkh/git/eapidk-code-r76-trunk/apps/EeePProg/linux/../CfgPHelper.c ****     printf("\tToken_Element = Unknown Token, %s\n", szValue);
 2324              		.loc 1 639 5 is_stmt 0 view .LVU550
 2325 0c3c 004050E2 		subs	r4, r0, #0
 2326 0c40 0F00000A 		beq	.L177
 640:/home/hkh/git/eapidk-code-r76-trunk/apps/EeePProg/linux/../CfgPHelper.c ****   }else{
 2327              		.loc 1 640 5 is_stmt 1 view .LVU551
 2328 0c44 A4009FE5 		ldr	r0, .L185+8
 2329              	.LVL230:
 640:/home/hkh/git/eapidk-code-r76-trunk/apps/EeePProg/linux/../CfgPHelper.c ****   }else{
 2330              		.loc 1 640 5 is_stmt 0 view .LVU552
 2331 0c48 0510A0E1 		mov	r1, r5
 2332              	.LPIC89:
 2333 0c4c 00008FE0 		add	r0, pc, r0
 2334 0c50 FEFFFFEB 		bl	printf(PLT)
 2335              	.LVL231:
 2336              	.L176:
 626:/home/hkh/git/eapidk-code-r76-trunk/apps/EeePProg/linux/../CfgPHelper.c ****   EApiStatus_t StatusCode=EAPI_STATUS_SUCCESS;
 2337              		.loc 1 626 1 view .LVU553
 2338 0c54 98209FE5 		ldr	r2, .L185+12
 653:/home/hkh/git/eapidk-code-r76-trunk/apps/EeePProg/linux/../CfgPHelper.c **** EApiStatus_t
 2339              		.loc 1 653 1 view .LVU554
 2340 0c58 8C309FE5 		ldr	r3, .L185+4
 626:/home/hkh/git/eapidk-code-r76-trunk/apps/EeePProg/linux/../CfgPHelper.c ****   EApiStatus_t StatusCode=EAPI_STATUS_SUCCESS;
 2341              		.loc 1 626 1 view .LVU555
ARM GAS  /tmp/cc2djyQn.s 			page 63


 2342              	.LPIC94:
 2343 0c5c 02208FE0 		add	r2, pc, r2
 653:/home/hkh/git/eapidk-code-r76-trunk/apps/EeePProg/linux/../CfgPHelper.c **** EApiStatus_t
 2344              		.loc 1 653 1 view .LVU556
 2345 0c60 033092E7 		ldr	r3, [r2, r3]
 2346 0c64 002093E5 		ldr	r2, [r3]
 2347 0c68 14309DE5 		ldr	r3, [sp, #20]
 2348 0c6c 022033E0 		eors	r2, r3, r2
 2349 0c70 0030A0E3 		mov	r3, #0
 2350 0c74 1A00001A 		bne	.L184
 2351 0c78 0400A0E1 		mov	r0, r4
 2352 0c7c 1CD08DE2 		add	sp, sp, #28
 2353              		.cfi_remember_state
 2354              		.cfi_def_cfa_offset 20
 2355              		@ sp needed
 2356 0c80 F080BDE8 		pop	{r4, r5, r6, r7, pc}
 2357              	.LVL232:
 2358              	.L177:
 2359              		.cfi_restore_state
 643:/home/hkh/git/eapidk-code-r76-trunk/apps/EeePProg/linux/../CfgPHelper.c ****             ulValue, 
 2360              		.loc 1 643 4 is_stmt 1 view .LVU557
 643:/home/hkh/git/eapidk-code-r76-trunk/apps/EeePProg/linux/../CfgPHelper.c ****             ulValue, 
 2361              		.loc 1 643 4 view .LVU558
 2362 0c84 2C0096E5 		ldr	r0, [r6, #44]
 2363              	.LVL233:
 643:/home/hkh/git/eapidk-code-r76-trunk/apps/EeePProg/linux/../CfgPHelper.c ****             ulValue, 
 2364              		.loc 1 643 4 is_stmt 0 view .LVU559
 2365 0c88 0410A0E1 		mov	r1, r4
 2366 0c8c 14C096E5 		ldr	ip, [r6, #20]
 2367 0c90 0720A0E1 		mov	r2, r7
 2368 0c94 283096E5 		ldr	r3, [r6, #40]
 2369 0c98 01108DE8 		stm	sp, {r0, ip}
 2370 0c9c 10009DE5 		ldr	r0, [sp, #16]
 2371 0ca0 FEFFFFEB 		bl	AssignValue_VAB(PLT)
 2372              	.LVL234:
 643:/home/hkh/git/eapidk-code-r76-trunk/apps/EeePProg/linux/../CfgPHelper.c ****             ulValue, 
 2373              		.loc 1 643 4 is_stmt 1 view .LVU560
 2374 0ca4 004050E2 		subs	r4, r0, #0
 2375 0ca8 E9FFFF0A 		beq	.L176
 2376              	.L178:
 643:/home/hkh/git/eapidk-code-r76-trunk/apps/EeePProg/linux/../CfgPHelper.c ****             ulValue, 
 2377              		.loc 1 643 4 discriminator 1 view .LVU561
 2378 0cac 44C09FE5 		ldr	ip, .L185+16
 2379 0cb0 833200E3 		movw	r3, #643
 2380 0cb4 40009FE5 		ldr	r0, .L185+20
 2381              	.LVL235:
 643:/home/hkh/git/eapidk-code-r76-trunk/apps/EeePProg/linux/../CfgPHelper.c ****             ulValue, 
 2382              		.loc 1 643 4 is_stmt 0 discriminator 1 view .LVU562
 2383 0cb8 40209FE5 		ldr	r2, .L185+24
 2384 0cbc 40109FE5 		ldr	r1, .L185+28
 2385              	.LPIC92:
 2386 0cc0 0CC08FE0 		add	ip, pc, ip
 2387              	.LPIC93:
 2388 0cc4 00008FE0 		add	r0, pc, r0
 2389 0cc8 00408DE5 		str	r4, [sp]
 2390 0ccc 01108DE9 		stmib	sp, {r0, ip}
 2391              	.LPIC90:
ARM GAS  /tmp/cc2djyQn.s 			page 64


 2392 0cd0 02208FE0 		add	r2, pc, r2
 2393              	.LPIC91:
 2394 0cd4 01108FE0 		add	r1, pc, r1
 2395 0cd8 4500A0E3 		mov	r0, #69
 2396 0cdc FEFFFFEB 		bl	siFormattedMessage_SC(PLT)
 2397              	.LVL236:
 643:/home/hkh/git/eapidk-code-r76-trunk/apps/EeePProg/linux/../CfgPHelper.c ****             ulValue, 
 2398              		.loc 1 643 4 is_stmt 1 discriminator 1 view .LVU563
 643:/home/hkh/git/eapidk-code-r76-trunk/apps/EeePProg/linux/../CfgPHelper.c ****             ulValue, 
 2399              		.loc 1 643 4 discriminator 1 view .LVU564
 652:/home/hkh/git/eapidk-code-r76-trunk/apps/EeePProg/linux/../CfgPHelper.c **** }
 2400              		.loc 1 652 3 discriminator 1 view .LVU565
 652:/home/hkh/git/eapidk-code-r76-trunk/apps/EeePProg/linux/../CfgPHelper.c **** }
 2401              		.loc 1 652 10 is_stmt 0 discriminator 1 view .LVU566
 2402 0ce0 DBFFFFEA 		b	.L176
 2403              	.L184:
 653:/home/hkh/git/eapidk-code-r76-trunk/apps/EeePProg/linux/../CfgPHelper.c **** EApiStatus_t
 2404              		.loc 1 653 1 view .LVU567
 2405 0ce4 FEFFFFEB 		bl	__stack_chk_fail(PLT)
 2406              	.LVL237:
 2407              	.L186:
 2408              		.align	2
 2409              	.L185:
 2410 0ce8 D4000000 		.word	_GLOBAL_OFFSET_TABLE_-(.LPIC95+8)
 2411 0cec 00000000 		.word	__stack_chk_guard(GOT)
 2412 0cf0 9C000000 		.word	.LC39-(.LPIC89+8)
 2413 0cf4 90000000 		.word	_GLOBAL_OFFSET_TABLE_-(.LPIC94+8)
 2414 0cf8 30000000 		.word	.LC40-(.LPIC92+8)
 2415 0cfc 30000000 		.word	.LC3-(.LPIC93+8)
 2416 0d00 28000000 		.word	.LC26-(.LPIC90+8)
 2417 0d04 28000000 		.word	.LC20-(.LPIC91+8)
 2418              		.cfi_endproc
 2419              	.LFE21:
 2421              		.section	.rodata.str1.4
 2422 07f3 00       		.align	2
 2423              	.LC41:
 2424 07f4 41737369 		.ascii	"AssignValue_VA( ulValue, pCurElement, (signed int)p"
 2424      676E5661 
 2424      6C75655F 
 2424      56412820 
 2424      756C5661 
 2425 0827 456C656D 		.ascii	"ElementDesc->Instances.stElementSize )\000"
 2425      656E7444 
 2425      6573632D 
 2425      3E496E73 
 2425      74616E63 
 2426 084e 0000     		.align	2
 2427              	.LC42:
 2428 0850 4E756D62 		.ascii	"Number_Element(&LclElementDesc, pCurElement, szValu"
 2428      65725F45 
 2428      6C656D65 
 2428      6E742826 
 2428      4C636C45 
 2429 0883 652900   		.ascii	"e)\000"
 2430              		.text
 2431              		.align	2
 2432              		.global	TokenNum_Element
ARM GAS  /tmp/cc2djyQn.s 			page 65


 2433              		.syntax unified
 2434              		.arm
 2435              		.fpu vfpv3
 2437              	TokenNum_Element:
 2438              	.LVL238:
 2439              	.LFB22:
 660:/home/hkh/git/eapidk-code-r76-trunk/apps/EeePProg/linux/../CfgPHelper.c ****   EApiStatus_t StatusCode=EAPI_STATUS_SUCCESS;
 2440              		.loc 1 660 1 is_stmt 1 view -0
 2441              		.cfi_startproc
 2442              		@ args = 0, pretend = 0, frame = 64
 2443              		@ frame_needed = 0, uses_anonymous_args = 0
 660:/home/hkh/git/eapidk-code-r76-trunk/apps/EeePProg/linux/../CfgPHelper.c ****   EApiStatus_t StatusCode=EAPI_STATUS_SUCCESS;
 2444              		.loc 1 660 1 is_stmt 0 view .LVU569
 2445 0d08 70402DE9 		push	{r4, r5, r6, lr}
 2446              		.cfi_def_cfa_offset 16
 2447              		.cfi_offset 4, -16
 2448              		.cfi_offset 5, -12
 2449              		.cfi_offset 6, -8
 2450              		.cfi_offset 14, -4
 2451 0d0c 0040A0E1 		mov	r4, r0
 664:/home/hkh/git/eapidk-code-r76-trunk/apps/EeePProg/linux/../CfgPHelper.c ****   stripWhiteSpaces(szValue);
 2452              		.loc 1 664 11 view .LVU570
 2453 0d10 0200A0E1 		mov	r0, r2
 2454              	.LVL239:
 660:/home/hkh/git/eapidk-code-r76-trunk/apps/EeePProg/linux/../CfgPHelper.c ****   EApiStatus_t StatusCode=EAPI_STATUS_SUCCESS;
 2455              		.loc 1 660 1 view .LVU571
 2456 0d14 3C219FE5 		ldr	r2, .L202
 2457              	.LVL240:
 660:/home/hkh/git/eapidk-code-r76-trunk/apps/EeePProg/linux/../CfgPHelper.c ****   EApiStatus_t StatusCode=EAPI_STATUS_SUCCESS;
 2458              		.loc 1 660 1 view .LVU572
 2459 0d18 50D04DE2 		sub	sp, sp, #80
 2460              		.cfi_def_cfa_offset 96
 660:/home/hkh/git/eapidk-code-r76-trunk/apps/EeePProg/linux/../CfgPHelper.c ****   EApiStatus_t StatusCode=EAPI_STATUS_SUCCESS;
 2461              		.loc 1 660 1 view .LVU573
 2462 0d1c 0150A0E1 		mov	r5, r1
 2463 0d20 34319FE5 		ldr	r3, .L202+4
 2464              	.LPIC105:
 2465 0d24 02208FE0 		add	r2, pc, r2
 2466 0d28 033092E7 		ldr	r3, [r2, r3]
 2467 0d2c 003093E5 		ldr	r3, [r3]
 2468 0d30 4C308DE5 		str	r3, [sp, #76]
 2469 0d34 0030A0E3 		mov	r3, #0
 661:/home/hkh/git/eapidk-code-r76-trunk/apps/EeePProg/linux/../CfgPHelper.c ****   unsigned long ulValue;
 2470              		.loc 1 661 3 is_stmt 1 view .LVU574
 2471              	.LVL241:
 662:/home/hkh/git/eapidk-code-r76-trunk/apps/EeePProg/linux/../CfgPHelper.c **** 
 2472              		.loc 1 662 3 view .LVU575
 664:/home/hkh/git/eapidk-code-r76-trunk/apps/EeePProg/linux/../CfgPHelper.c ****   stripWhiteSpaces(szValue);
 2473              		.loc 1 664 3 view .LVU576
 664:/home/hkh/git/eapidk-code-r76-trunk/apps/EeePProg/linux/../CfgPHelper.c ****   stripWhiteSpaces(szValue);
 2474              		.loc 1 664 11 is_stmt 0 view .LVU577
 2475 0d38 FEFFFFEB 		bl	skipWhiteSpaces(PLT)
 2476              	.LVL242:
 664:/home/hkh/git/eapidk-code-r76-trunk/apps/EeePProg/linux/../CfgPHelper.c ****   stripWhiteSpaces(szValue);
 2477              		.loc 1 664 11 view .LVU578
 2478 0d3c 0060A0E1 		mov	r6, r0
 2479              	.LVL243:
ARM GAS  /tmp/cc2djyQn.s 			page 66


 665:/home/hkh/git/eapidk-code-r76-trunk/apps/EeePProg/linux/../CfgPHelper.c **** 
 2480              		.loc 1 665 3 is_stmt 1 view .LVU579
 2481 0d40 FEFFFFEB 		bl	stripWhiteSpaces(PLT)
 2482              	.LVL244:
 667:/home/hkh/git/eapidk-code-r76-trunk/apps/EeePProg/linux/../CfgPHelper.c ****       ((TokenNumDesc_t*)pElementDesc->pExtraInfo)->pTokens, 
 2483              		.loc 1 667 3 view .LVU580
 668:/home/hkh/git/eapidk-code-r76-trunk/apps/EeePProg/linux/../CfgPHelper.c ****       szValue, 
 2484              		.loc 1 668 50 is_stmt 0 view .LVU581
 2485 0d44 343094E5 		ldr	r3, [r4, #52]
 667:/home/hkh/git/eapidk-code-r76-trunk/apps/EeePProg/linux/../CfgPHelper.c ****       ((TokenNumDesc_t*)pElementDesc->pExtraInfo)->pTokens, 
 2486              		.loc 1 667 14 view .LVU582
 2487 0d48 0610A0E1 		mov	r1, r6
 2488 0d4c 10208DE2 		add	r2, sp, #16
 2489 0d50 000093E5 		ldr	r0, [r3]
 2490 0d54 FEFFFFEB 		bl	GetTokenValue(PLT)
 2491              	.LVL245:
 672:/home/hkh/git/eapidk-code-r76-trunk/apps/EeePProg/linux/../CfgPHelper.c ****     DO(AssignValue_VA(
 2492              		.loc 1 672 3 is_stmt 1 view .LVU583
 672:/home/hkh/git/eapidk-code-r76-trunk/apps/EeePProg/linux/../CfgPHelper.c ****     DO(AssignValue_VA(
 2493              		.loc 1 672 5 is_stmt 0 view .LVU584
 2494 0d58 001050E2 		subs	r1, r0, #0
 2495 0d5c 1100001A 		bne	.L188
 673:/home/hkh/git/eapidk-code-r76-trunk/apps/EeePProg/linux/../CfgPHelper.c ****         ulValue, 
 2496              		.loc 1 673 5 is_stmt 1 view .LVU585
 673:/home/hkh/git/eapidk-code-r76-trunk/apps/EeePProg/linux/../CfgPHelper.c ****         ulValue, 
 2497              		.loc 1 673 5 view .LVU586
 2498 0d60 143094E5 		ldr	r3, [r4, #20]
 2499 0d64 0520A0E1 		mov	r2, r5
 2500 0d68 10009DE5 		ldr	r0, [sp, #16]
 2501              	.LVL246:
 673:/home/hkh/git/eapidk-code-r76-trunk/apps/EeePProg/linux/../CfgPHelper.c ****         ulValue, 
 2502              		.loc 1 673 5 is_stmt 0 view .LVU587
 2503 0d6c FEFFFFEB 		bl	AssignValue_VA(PLT)
 2504              	.LVL247:
 673:/home/hkh/git/eapidk-code-r76-trunk/apps/EeePProg/linux/../CfgPHelper.c ****         ulValue, 
 2505              		.loc 1 673 5 is_stmt 1 view .LVU588
 2506 0d70 004050E2 		subs	r4, r0, #0
 2507              	.LVL248:
 673:/home/hkh/git/eapidk-code-r76-trunk/apps/EeePProg/linux/../CfgPHelper.c ****         ulValue, 
 2508              		.loc 1 673 5 is_stmt 0 view .LVU589
 2509 0d74 2C00001A 		bne	.L200
 2510              	.L189:
 2511              	.LVL249:
 2512              	.L187:
 660:/home/hkh/git/eapidk-code-r76-trunk/apps/EeePProg/linux/../CfgPHelper.c ****   EApiStatus_t StatusCode=EAPI_STATUS_SUCCESS;
 2513              		.loc 1 660 1 view .LVU590
 2514 0d78 E0209FE5 		ldr	r2, .L202+8
 688:/home/hkh/git/eapidk-code-r76-trunk/apps/EeePProg/linux/../CfgPHelper.c **** 
 2515              		.loc 1 688 1 view .LVU591
 2516 0d7c D8309FE5 		ldr	r3, .L202+4
 660:/home/hkh/git/eapidk-code-r76-trunk/apps/EeePProg/linux/../CfgPHelper.c ****   EApiStatus_t StatusCode=EAPI_STATUS_SUCCESS;
 2517              		.loc 1 660 1 view .LVU592
 2518              	.LPIC104:
 2519 0d80 02208FE0 		add	r2, pc, r2
 688:/home/hkh/git/eapidk-code-r76-trunk/apps/EeePProg/linux/../CfgPHelper.c **** 
 2520              		.loc 1 688 1 view .LVU593
 2521 0d84 033092E7 		ldr	r3, [r2, r3]
ARM GAS  /tmp/cc2djyQn.s 			page 67


 2522 0d88 002093E5 		ldr	r2, [r3]
 2523 0d8c 4C309DE5 		ldr	r3, [sp, #76]
 2524 0d90 022033E0 		eors	r2, r3, r2
 2525 0d94 0030A0E3 		mov	r3, #0
 2526 0d98 2D00001A 		bne	.L201
 2527 0d9c 0400A0E1 		mov	r0, r4
 2528 0da0 50D08DE2 		add	sp, sp, #80
 2529              		.cfi_remember_state
 2530              		.cfi_def_cfa_offset 16
 2531              		@ sp needed
 2532 0da4 7080BDE8 		pop	{r4, r5, r6, pc}
 2533              	.LVL250:
 2534              	.L188:
 2535              		.cfi_restore_state
 2536              	.LBB10:
 679:/home/hkh/git/eapidk-code-r76-trunk/apps/EeePProg/linux/../CfgPHelper.c **** 
 2537              		.loc 1 679 5 is_stmt 1 view .LVU594
 681:/home/hkh/git/eapidk-code-r76-trunk/apps/EeePProg/linux/../CfgPHelper.c ****     DO(Number_Element(&LclElementDesc, pCurElement, szValue));
 2538              		.loc 1 681 74 is_stmt 0 view .LVU595
 2539 0da8 343094E5 		ldr	r3, [r4, #52]
 679:/home/hkh/git/eapidk-code-r76-trunk/apps/EeePProg/linux/../CfgPHelper.c **** 
 2540              		.loc 1 679 30 view .LVU596
 2541 0dac 04C0A0E1 		mov	ip, r4
 2542 0db0 14E08DE2 		add	lr, sp, #20
 681:/home/hkh/git/eapidk-code-r76-trunk/apps/EeePProg/linux/../CfgPHelper.c ****     DO(Number_Element(&LclElementDesc, pCurElement, szValue));
 2543              		.loc 1 681 30 view .LVU597
 2544 0db4 044093E5 		ldr	r4, [r3, #4]
 2545              	.LVL251:
 679:/home/hkh/git/eapidk-code-r76-trunk/apps/EeePProg/linux/../CfgPHelper.c **** 
 2546              		.loc 1 679 30 view .LVU598
 2547 0db8 0F00BCE8 		ldmia	ip!, {r0, r1, r2, r3}
 2548              	.LVL252:
 679:/home/hkh/git/eapidk-code-r76-trunk/apps/EeePProg/linux/../CfgPHelper.c **** 
 2549              		.loc 1 679 30 view .LVU599
 2550 0dbc 0F00AEE8 		stmia	lr!, {r0, r1, r2, r3}
 2551 0dc0 0F00BCE8 		ldmia	ip!, {r0, r1, r2, r3}
 2552              	.LVL253:
 679:/home/hkh/git/eapidk-code-r76-trunk/apps/EeePProg/linux/../CfgPHelper.c **** 
 2553              		.loc 1 679 30 view .LVU600
 2554 0dc4 0F00AEE8 		stmia	lr!, {r0, r1, r2, r3}
 2555 0dc8 0F00BCE8 		ldmia	ip!, {r0, r1, r2, r3}
 2556              	.LVL254:
 679:/home/hkh/git/eapidk-code-r76-trunk/apps/EeePProg/linux/../CfgPHelper.c **** 
 2557              		.loc 1 679 30 view .LVU601
 2558 0dcc 0F00AEE8 		stmia	lr!, {r0, r1, r2, r3}
 682:/home/hkh/git/eapidk-code-r76-trunk/apps/EeePProg/linux/../CfgPHelper.c ****   }
 2559              		.loc 1 682 5 view .LVU602
 2560 0dd0 0620A0E1 		mov	r2, r6
 679:/home/hkh/git/eapidk-code-r76-trunk/apps/EeePProg/linux/../CfgPHelper.c **** 
 2561              		.loc 1 679 30 view .LVU603
 2562 0dd4 03009CE8 		ldm	ip, {r0, r1}
 2563 0dd8 03008EE8 		stm	lr, {r0, r1}
 681:/home/hkh/git/eapidk-code-r76-trunk/apps/EeePProg/linux/../CfgPHelper.c ****     DO(Number_Element(&LclElementDesc, pCurElement, szValue));
 2564              		.loc 1 681 5 is_stmt 1 view .LVU604
 682:/home/hkh/git/eapidk-code-r76-trunk/apps/EeePProg/linux/../CfgPHelper.c ****   }
 2565              		.loc 1 682 5 is_stmt 0 view .LVU605
 2566 0ddc 0510A0E1 		mov	r1, r5
ARM GAS  /tmp/cc2djyQn.s 			page 68


 2567 0de0 14008DE2 		add	r0, sp, #20
 681:/home/hkh/git/eapidk-code-r76-trunk/apps/EeePProg/linux/../CfgPHelper.c ****     DO(Number_Element(&LclElementDesc, pCurElement, szValue));
 2568              		.loc 1 681 30 view .LVU606
 2569 0de4 48408DE5 		str	r4, [sp, #72]
 682:/home/hkh/git/eapidk-code-r76-trunk/apps/EeePProg/linux/../CfgPHelper.c ****   }
 2570              		.loc 1 682 5 is_stmt 1 view .LVU607
 682:/home/hkh/git/eapidk-code-r76-trunk/apps/EeePProg/linux/../CfgPHelper.c ****   }
 2571              		.loc 1 682 5 view .LVU608
 2572 0de8 FEFFFFEB 		bl	Number_Element(PLT)
 2573              	.LVL255:
 682:/home/hkh/git/eapidk-code-r76-trunk/apps/EeePProg/linux/../CfgPHelper.c ****   }
 2574              		.loc 1 682 5 view .LVU609
 2575 0dec 004050E2 		subs	r4, r0, #0
 2576 0df0 E0FFFF0A 		beq	.L187
 682:/home/hkh/git/eapidk-code-r76-trunk/apps/EeePProg/linux/../CfgPHelper.c ****   }
 2577              		.loc 1 682 5 discriminator 1 view .LVU610
 2578 0df4 68C09FE5 		ldr	ip, .L202+12
 2579 0df8 AA3200E3 		movw	r3, #682
 2580 0dfc 64009FE5 		ldr	r0, .L202+16
 2581              	.LVL256:
 682:/home/hkh/git/eapidk-code-r76-trunk/apps/EeePProg/linux/../CfgPHelper.c ****   }
 2582              		.loc 1 682 5 is_stmt 0 discriminator 1 view .LVU611
 2583 0e00 64209FE5 		ldr	r2, .L202+20
 2584 0e04 64109FE5 		ldr	r1, .L202+24
 2585              	.LPIC102:
 2586 0e08 0CC08FE0 		add	ip, pc, ip
 2587              	.LPIC103:
 2588 0e0c 00008FE0 		add	r0, pc, r0
 2589              	.LPIC100:
 2590 0e10 02208FE0 		add	r2, pc, r2
 2591              	.LPIC101:
 2592 0e14 01108FE0 		add	r1, pc, r1
 2593              	.L199:
 682:/home/hkh/git/eapidk-code-r76-trunk/apps/EeePProg/linux/../CfgPHelper.c ****   }
 2594              		.loc 1 682 5 discriminator 1 view .LVU612
 2595 0e18 01108DE9 		stmib	sp, {r0, ip}
 2596 0e1c 4500A0E3 		mov	r0, #69
 2597 0e20 00408DE5 		str	r4, [sp]
 2598 0e24 FEFFFFEB 		bl	siFormattedMessage_SC(PLT)
 2599              	.LVL257:
 682:/home/hkh/git/eapidk-code-r76-trunk/apps/EeePProg/linux/../CfgPHelper.c ****   }
 2600              		.loc 1 682 5 is_stmt 1 discriminator 1 view .LVU613
 2601 0e28 D2FFFFEA 		b	.L187
 2602              	.LVL258:
 2603              	.L200:
 682:/home/hkh/git/eapidk-code-r76-trunk/apps/EeePProg/linux/../CfgPHelper.c ****   }
 2604              		.loc 1 682 5 is_stmt 0 discriminator 1 view .LVU614
 2605              	.LBE10:
 673:/home/hkh/git/eapidk-code-r76-trunk/apps/EeePProg/linux/../CfgPHelper.c ****         ulValue, 
 2606              		.loc 1 673 5 is_stmt 1 discriminator 1 view .LVU615
 2607 0e2c 40C09FE5 		ldr	ip, .L202+28
 2608 0e30 A13200E3 		movw	r3, #673
 2609 0e34 3C009FE5 		ldr	r0, .L202+32
 2610              	.LVL259:
 673:/home/hkh/git/eapidk-code-r76-trunk/apps/EeePProg/linux/../CfgPHelper.c ****         ulValue, 
 2611              		.loc 1 673 5 is_stmt 0 discriminator 1 view .LVU616
 2612 0e38 3C209FE5 		ldr	r2, .L202+36
ARM GAS  /tmp/cc2djyQn.s 			page 69


 2613 0e3c 3C109FE5 		ldr	r1, .L202+40
 2614              	.LPIC98:
 2615 0e40 0CC08FE0 		add	ip, pc, ip
 2616              	.LPIC99:
 2617 0e44 00008FE0 		add	r0, pc, r0
 2618              	.LPIC96:
 2619 0e48 02208FE0 		add	r2, pc, r2
 2620              	.LPIC97:
 2621 0e4c 01108FE0 		add	r1, pc, r1
 2622 0e50 F0FFFFEA 		b	.L199
 2623              	.L201:
 688:/home/hkh/git/eapidk-code-r76-trunk/apps/EeePProg/linux/../CfgPHelper.c **** 
 2624              		.loc 1 688 1 view .LVU617
 2625 0e54 FEFFFFEB 		bl	__stack_chk_fail(PLT)
 2626              	.LVL260:
 2627              	.L203:
 2628              		.align	2
 2629              	.L202:
 2630 0e58 2C010000 		.word	_GLOBAL_OFFSET_TABLE_-(.LPIC105+8)
 2631 0e5c 00000000 		.word	__stack_chk_guard(GOT)
 2632 0e60 D8000000 		.word	_GLOBAL_OFFSET_TABLE_-(.LPIC104+8)
 2633 0e64 54000000 		.word	.LC42-(.LPIC102+8)
 2634 0e68 54000000 		.word	.LC3-(.LPIC103+8)
 2635 0e6c 54000000 		.word	.LC26-(.LPIC100+8)
 2636 0e70 54000000 		.word	.LC20-(.LPIC101+8)
 2637 0e74 2C000000 		.word	.LC41-(.LPIC98+8)
 2638 0e78 2C000000 		.word	.LC3-(.LPIC99+8)
 2639 0e7c 2C000000 		.word	.LC26-(.LPIC96+8)
 2640 0e80 2C000000 		.word	.LC20-(.LPIC97+8)
 2641              		.cfi_endproc
 2642              	.LFE22:
 2644              		.section	.rodata.str1.4
 2645 0886 0000     		.align	2
 2646              	.LC43:
 2647 0888 504E5049 		.ascii	"PNPID_Element\000"
 2647      445F456C 
 2647      656D656E 
 2647      7400
 2648 0896 0000     		.align	2
 2649              	.LC44:
 2650 0898 28737472 		.ascii	"(strlen(szValue)!=3)\000"
 2650      6C656E28 
 2650      737A5661 
 2650      6C756529 
 2650      213D3329 
 2651 08ad 000000   		.align	2
 2652              	.LC45:
 2653 08b0 28756943 		.ascii	"(uiCurChar<'A'||uiCurChar>'Z')\000"
 2653      75724368 
 2653      61723C27 
 2653      41277C7C 
 2653      75694375 
 2654 08cf 00       		.align	2
 2655              	.LC46:
 2656 08d0 41737369 		.ascii	"AssignValue_VAB( uiPNPID, pCurElement, (signed int)"
 2656      676E5661 
 2656      6C75655F 
ARM GAS  /tmp/cc2djyQn.s 			page 70


 2656      56414228 
 2656      20756950 
 2657 0903 70456C65 		.ascii	"pElementDesc->stBitOffset , (signed int)pElementDes"
 2657      6D656E74 
 2657      44657363 
 2657      2D3E7374 
 2657      4269744F 
 2658 0936 632D3E73 		.ascii	"c->stBitLength , (signed int)pElementDesc->Instance"
 2658      74426974 
 2658      4C656E67 
 2658      7468202C 
 2658      20287369 
 2659 0969 732E7374 		.ascii	"s.stElementSize )\000"
 2659      456C656D 
 2659      656E7453 
 2659      697A6520 
 2659      2900
 2660              		.text
 2661              		.align	2
 2662              		.global	PNPID_Element
 2663              		.syntax unified
 2664              		.arm
 2665              		.fpu vfpv3
 2667              	PNPID_Element:
 2668              	.LVL261:
 2669              	.LFB24:
 719:/home/hkh/git/eapidk-code-r76-trunk/apps/EeePProg/linux/../CfgPHelper.c **** EApiStatus_t
 720:/home/hkh/git/eapidk-code-r76-trunk/apps/EeePProg/linux/../CfgPHelper.c **** PNPID_Element(
 721:/home/hkh/git/eapidk-code-r76-trunk/apps/EeePProg/linux/../CfgPHelper.c ****     struct  CfgElementDesc_s *pElementDesc, 
 722:/home/hkh/git/eapidk-code-r76-trunk/apps/EeePProg/linux/../CfgPHelper.c ****     void          *pCurElement,
 723:/home/hkh/git/eapidk-code-r76-trunk/apps/EeePProg/linux/../CfgPHelper.c ****     char          *szValue
 724:/home/hkh/git/eapidk-code-r76-trunk/apps/EeePProg/linux/../CfgPHelper.c ****   )
 725:/home/hkh/git/eapidk-code-r76-trunk/apps/EeePProg/linux/../CfgPHelper.c **** { 
 2670              		.loc 1 725 1 is_stmt 1 view -0
 2671              		.cfi_startproc
 2672              		@ args = 0, pretend = 0, frame = 0
 2673              		@ frame_needed = 0, uses_anonymous_args = 0
 726:/home/hkh/git/eapidk-code-r76-trunk/apps/EeePProg/linux/../CfgPHelper.c ****   EApiStatus_t StatusCode=EAPI_STATUS_SUCCESS;
 2674              		.loc 1 726 3 view .LVU619
 727:/home/hkh/git/eapidk-code-r76-trunk/apps/EeePProg/linux/../CfgPHelper.c ****   unsigned int i;
 2675              		.loc 1 727 3 view .LVU620
 728:/home/hkh/git/eapidk-code-r76-trunk/apps/EeePProg/linux/../CfgPHelper.c ****   unsigned int uiCurChar;
 2676              		.loc 1 728 3 view .LVU621
 729:/home/hkh/git/eapidk-code-r76-trunk/apps/EeePProg/linux/../CfgPHelper.c ****   unsigned int uiPNPID=0;
 2677              		.loc 1 729 3 view .LVU622
 730:/home/hkh/git/eapidk-code-r76-trunk/apps/EeePProg/linux/../CfgPHelper.c ****   stripWhiteSpaces(szValue);
 2678              		.loc 1 730 3 view .LVU623
 725:/home/hkh/git/eapidk-code-r76-trunk/apps/EeePProg/linux/../CfgPHelper.c ****   EApiStatus_t StatusCode=EAPI_STATUS_SUCCESS;
 2679              		.loc 1 725 1 is_stmt 0 view .LVU624
 2680 0e84 F0432DE9 		push	{r4, r5, r6, r7, r8, r9, lr}
 2681              		.cfi_def_cfa_offset 28
 2682              		.cfi_offset 4, -28
 2683              		.cfi_offset 5, -24
 2684              		.cfi_offset 6, -20
 2685              		.cfi_offset 7, -16
 2686              		.cfi_offset 8, -12
 2687              		.cfi_offset 9, -8
ARM GAS  /tmp/cc2djyQn.s 			page 71


 2688              		.cfi_offset 14, -4
 2689 0e88 0050A0E1 		mov	r5, r0
 2690 0e8c 14D04DE2 		sub	sp, sp, #20
 2691              		.cfi_def_cfa_offset 48
 2692              		.loc 1 730 3 view .LVU625
 2693 0e90 0200A0E1 		mov	r0, r2
 2694              	.LVL262:
 725:/home/hkh/git/eapidk-code-r76-trunk/apps/EeePProg/linux/../CfgPHelper.c ****   EApiStatus_t StatusCode=EAPI_STATUS_SUCCESS;
 2695              		.loc 1 725 1 view .LVU626
 2696 0e94 0240A0E1 		mov	r4, r2
 2697 0e98 0170A0E1 		mov	r7, r1
 2698              		.loc 1 730 3 view .LVU627
 2699 0e9c FEFFFFEB 		bl	stripWhiteSpaces(PLT)
 2700              	.LVL263:
 731:/home/hkh/git/eapidk-code-r76-trunk/apps/EeePProg/linux/../CfgPHelper.c **** 
 732:/home/hkh/git/eapidk-code-r76-trunk/apps/EeePProg/linux/../CfgPHelper.c ****   EAPI_APP_ASSERT_PARAMATER_CHECK_S(
 2701              		.loc 1 732 3 is_stmt 1 view .LVU628
 2702 0ea0 148095E5 		ldr	r8, [r5, #20]
 2703 0ea4 010058E3 		cmp	r8, #1
 2704 0ea8 5C00009A 		bls	.L216
 2705              		.loc 1 732 3 discriminator 2 view .LVU629
 733:/home/hkh/git/eapidk-code-r76-trunk/apps/EeePProg/linux/../CfgPHelper.c ****                 PNPID_Element,
 734:/home/hkh/git/eapidk-code-r76-trunk/apps/EeePProg/linux/../CfgPHelper.c ****                 EAPI_STATUS_INVALID_PARAMETER,
 735:/home/hkh/git/eapidk-code-r76-trunk/apps/EeePProg/linux/../CfgPHelper.c ****                 pElementDesc->Instances.stElementSize < sizeof(uint16_t)
 736:/home/hkh/git/eapidk-code-r76-trunk/apps/EeePProg/linux/../CfgPHelper.c ****         );
 2706              		.loc 1 736 10 discriminator 2 view .LVU630
 737:/home/hkh/git/eapidk-code-r76-trunk/apps/EeePProg/linux/../CfgPHelper.c ****   EAPI_APP_ASSERT_PARAMATER_CHECK_S(
 2707              		.loc 1 737 3 discriminator 2 view .LVU631
 2708 0eac 2C9095E5 		ldr	r9, [r5, #44]
 2709 0eb0 0F0059E3 		cmp	r9, #15
 2710 0eb4 4300009A 		bls	.L217
 2711              		.loc 1 737 3 discriminator 2 view .LVU632
 738:/home/hkh/git/eapidk-code-r76-trunk/apps/EeePProg/linux/../CfgPHelper.c ****                 PNPID_Element,
 739:/home/hkh/git/eapidk-code-r76-trunk/apps/EeePProg/linux/../CfgPHelper.c ****                 EAPI_STATUS_INVALID_PARAMETER,
 740:/home/hkh/git/eapidk-code-r76-trunk/apps/EeePProg/linux/../CfgPHelper.c ****                 pElementDesc->stBitLength < 8*sizeof(uint16_t)
 741:/home/hkh/git/eapidk-code-r76-trunk/apps/EeePProg/linux/../CfgPHelper.c ****         );
 2712              		.loc 1 741 10 discriminator 2 view .LVU633
 742:/home/hkh/git/eapidk-code-r76-trunk/apps/EeePProg/linux/../CfgPHelper.c **** 
 743:/home/hkh/git/eapidk-code-r76-trunk/apps/EeePProg/linux/../CfgPHelper.c ****   EAPI_APP_RETURN_ERROR_IF_S(
 2713              		.loc 1 743 3 discriminator 2 view .LVU634
 2714 0eb8 0400A0E1 		mov	r0, r4
 2715 0ebc FEFFFFEB 		bl	strlen(PLT)
 2716              	.LVL264:
 2717 0ec0 030050E3 		cmp	r0, #3
 2718 0ec4 2E00001A 		bne	.L218
 744:/home/hkh/git/eapidk-code-r76-trunk/apps/EeePProg/linux/../CfgPHelper.c ****       PNPID_Element,
 745:/home/hkh/git/eapidk-code-r76-trunk/apps/EeePProg/linux/../CfgPHelper.c ****       (strlen(szValue)!=3),
 746:/home/hkh/git/eapidk-code-r76-trunk/apps/EeePProg/linux/../CfgPHelper.c ****       EAPI_STATUS_ERROR
 747:/home/hkh/git/eapidk-code-r76-trunk/apps/EeePProg/linux/../CfgPHelper.c ****       );
 748:/home/hkh/git/eapidk-code-r76-trunk/apps/EeePProg/linux/../CfgPHelper.c **** 
 749:/home/hkh/git/eapidk-code-r76-trunk/apps/EeePProg/linux/../CfgPHelper.c ****   for(i=3;i--;){
 750:/home/hkh/git/eapidk-code-r76-trunk/apps/EeePProg/linux/../CfgPHelper.c ****     uiCurChar=toupper(*szValue++);
 2719              		.loc 1 750 5 view .LVU635
 2720              	.LVL265:
 2721              		.loc 1 750 15 is_stmt 0 view .LVU636
 2722 0ec8 0000D4E5 		ldrb	r0, [r4]	@ zero_extendqisi2
 2723 0ecc FEFFFFEB 		bl	toupper(PLT)
ARM GAS  /tmp/cc2djyQn.s 			page 72


 2724              	.LVL266:
 751:/home/hkh/git/eapidk-code-r76-trunk/apps/EeePProg/linux/../CfgPHelper.c ****     EAPI_APP_RETURN_ERROR_IF_S(
 2725              		.loc 1 751 5 is_stmt 1 view .LVU637
 2726 0ed0 413040E2 		sub	r3, r0, #65
 2727 0ed4 190053E3 		cmp	r3, #25
 2728 0ed8 4500008A 		bhi	.L209
 2729              		.loc 1 751 5 view .LVU638
 752:/home/hkh/git/eapidk-code-r76-trunk/apps/EeePProg/linux/../CfgPHelper.c ****         PNPID_Element,
 753:/home/hkh/git/eapidk-code-r76-trunk/apps/EeePProg/linux/../CfgPHelper.c ****         (uiCurChar<'A'||uiCurChar>'Z'),
 754:/home/hkh/git/eapidk-code-r76-trunk/apps/EeePProg/linux/../CfgPHelper.c ****         EAPI_STATUS_ERROR
 755:/home/hkh/git/eapidk-code-r76-trunk/apps/EeePProg/linux/../CfgPHelper.c ****       );
 2730              		.loc 1 755 8 view .LVU639
 756:/home/hkh/git/eapidk-code-r76-trunk/apps/EeePProg/linux/../CfgPHelper.c ****     uiPNPID<<=5;
 2731              		.loc 1 756 5 view .LVU640
 757:/home/hkh/git/eapidk-code-r76-trunk/apps/EeePProg/linux/../CfgPHelper.c ****     uiPNPID|=uiCurChar - 'A'+1;
 2732              		.loc 1 757 5 view .LVU641
 2733              		.loc 1 757 29 is_stmt 0 view .LVU642
 2734 0edc 406040E2 		sub	r6, r0, #64
 2735              	.LVL267:
 749:/home/hkh/git/eapidk-code-r76-trunk/apps/EeePProg/linux/../CfgPHelper.c ****     uiCurChar=toupper(*szValue++);
 2736              		.loc 1 749 11 is_stmt 1 view .LVU643
 750:/home/hkh/git/eapidk-code-r76-trunk/apps/EeePProg/linux/../CfgPHelper.c ****     EAPI_APP_RETURN_ERROR_IF_S(
 2737              		.loc 1 750 5 view .LVU644
 750:/home/hkh/git/eapidk-code-r76-trunk/apps/EeePProg/linux/../CfgPHelper.c ****     EAPI_APP_RETURN_ERROR_IF_S(
 2738              		.loc 1 750 15 is_stmt 0 view .LVU645
 2739 0ee0 0100D4E5 		ldrb	r0, [r4, #1]	@ zero_extendqisi2
 2740              	.LVL268:
 750:/home/hkh/git/eapidk-code-r76-trunk/apps/EeePProg/linux/../CfgPHelper.c ****     EAPI_APP_RETURN_ERROR_IF_S(
 2741              		.loc 1 750 15 view .LVU646
 2742 0ee4 FEFFFFEB 		bl	toupper(PLT)
 2743              	.LVL269:
 751:/home/hkh/git/eapidk-code-r76-trunk/apps/EeePProg/linux/../CfgPHelper.c ****         PNPID_Element,
 2744              		.loc 1 751 5 is_stmt 1 view .LVU647
 2745 0ee8 413040E2 		sub	r3, r0, #65
 2746 0eec 190053E3 		cmp	r3, #25
 2747 0ef0 3F00008A 		bhi	.L209
 751:/home/hkh/git/eapidk-code-r76-trunk/apps/EeePProg/linux/../CfgPHelper.c ****         PNPID_Element,
 2748              		.loc 1 751 5 view .LVU648
 755:/home/hkh/git/eapidk-code-r76-trunk/apps/EeePProg/linux/../CfgPHelper.c ****     uiPNPID<<=5;
 2749              		.loc 1 755 8 view .LVU649
 756:/home/hkh/git/eapidk-code-r76-trunk/apps/EeePProg/linux/../CfgPHelper.c ****     uiPNPID|=uiCurChar - 'A'+1;
 2750              		.loc 1 756 5 view .LVU650
 2751              	.LVL270:
 2752              		.loc 1 757 5 view .LVU651
 2753              		.loc 1 757 29 is_stmt 0 view .LVU652
 2754 0ef4 400040E2 		sub	r0, r0, #64
 2755              	.LVL271:
 2756              		.loc 1 757 12 view .LVU653
 2757 0ef8 866280E1 		orr	r6, r0, r6, lsl #5
 2758              	.LVL272:
 749:/home/hkh/git/eapidk-code-r76-trunk/apps/EeePProg/linux/../CfgPHelper.c ****     uiCurChar=toupper(*szValue++);
 2759              		.loc 1 749 11 is_stmt 1 view .LVU654
 750:/home/hkh/git/eapidk-code-r76-trunk/apps/EeePProg/linux/../CfgPHelper.c ****     EAPI_APP_RETURN_ERROR_IF_S(
 2760              		.loc 1 750 5 view .LVU655
 750:/home/hkh/git/eapidk-code-r76-trunk/apps/EeePProg/linux/../CfgPHelper.c ****     EAPI_APP_RETURN_ERROR_IF_S(
 2761              		.loc 1 750 15 is_stmt 0 view .LVU656
 2762 0efc 0200D4E5 		ldrb	r0, [r4, #2]	@ zero_extendqisi2
ARM GAS  /tmp/cc2djyQn.s 			page 73


 2763              	.LVL273:
 750:/home/hkh/git/eapidk-code-r76-trunk/apps/EeePProg/linux/../CfgPHelper.c ****     EAPI_APP_RETURN_ERROR_IF_S(
 2764              		.loc 1 750 15 view .LVU657
 2765 0f00 FEFFFFEB 		bl	toupper(PLT)
 2766              	.LVL274:
 751:/home/hkh/git/eapidk-code-r76-trunk/apps/EeePProg/linux/../CfgPHelper.c ****         PNPID_Element,
 2767              		.loc 1 751 5 is_stmt 1 view .LVU658
 2768 0f04 413040E2 		sub	r3, r0, #65
 2769 0f08 190053E3 		cmp	r3, #25
 2770 0f0c 3800008A 		bhi	.L209
 751:/home/hkh/git/eapidk-code-r76-trunk/apps/EeePProg/linux/../CfgPHelper.c ****         PNPID_Element,
 2771              		.loc 1 751 5 discriminator 2 view .LVU659
 755:/home/hkh/git/eapidk-code-r76-trunk/apps/EeePProg/linux/../CfgPHelper.c ****     uiPNPID<<=5;
 2772              		.loc 1 755 8 discriminator 2 view .LVU660
 756:/home/hkh/git/eapidk-code-r76-trunk/apps/EeePProg/linux/../CfgPHelper.c ****     uiPNPID|=uiCurChar - 'A'+1;
 2773              		.loc 1 756 5 discriminator 2 view .LVU661
 2774              	.LVL275:
 2775              		.loc 1 757 5 discriminator 2 view .LVU662
 749:/home/hkh/git/eapidk-code-r76-trunk/apps/EeePProg/linux/../CfgPHelper.c ****     uiCurChar=toupper(*szValue++);
 2776              		.loc 1 749 11 discriminator 2 view .LVU663
 758:/home/hkh/git/eapidk-code-r76-trunk/apps/EeePProg/linux/../CfgPHelper.c ****   }
 759:/home/hkh/git/eapidk-code-r76-trunk/apps/EeePProg/linux/../CfgPHelper.c ****   DO(AssignValue_VAB(
 2777              		.loc 1 759 3 discriminator 2 view .LVU664
 2778              		.loc 1 759 3 discriminator 2 view .LVU665
 757:/home/hkh/git/eapidk-code-r76-trunk/apps/EeePProg/linux/../CfgPHelper.c ****   }
 2779              		.loc 1 757 29 is_stmt 0 discriminator 2 view .LVU666
 2780 0f10 400040E2 		sub	r0, r0, #64
 2781              	.LVL276:
 2782              		.loc 1 759 3 discriminator 2 view .LVU667
 2783 0f14 04808DE5 		str	r8, [sp, #4]
 2784 0f18 860280E1 		orr	r0, r0, r6, lsl #5
 2785              	.LVL277:
 2786              		.loc 1 759 3 discriminator 2 view .LVU668
 2787 0f1c 283095E5 		ldr	r3, [r5, #40]
 2788              	.LVL278:
 2789              		.loc 1 759 3 discriminator 2 view .LVU669
 2790 0f20 0720A0E1 		mov	r2, r7
 2791 0f24 00908DE5 		str	r9, [sp]
 2792 0f28 0010A0E3 		mov	r1, #0
 2793 0f2c FEFFFFEB 		bl	AssignValue_VAB(PLT)
 2794              	.LVL279:
 2795              		.loc 1 759 3 is_stmt 1 discriminator 2 view .LVU670
 2796 0f30 004050E2 		subs	r4, r0, #0
 2797              	.LVL280:
 2798              		.loc 1 759 3 is_stmt 0 discriminator 2 view .LVU671
 2799 0f34 0200001A 		bne	.L219
 760:/home/hkh/git/eapidk-code-r76-trunk/apps/EeePProg/linux/../CfgPHelper.c ****             uiPNPID, 
 761:/home/hkh/git/eapidk-code-r76-trunk/apps/EeePProg/linux/../CfgPHelper.c ****             pCurElement, 
 762:/home/hkh/git/eapidk-code-r76-trunk/apps/EeePProg/linux/../CfgPHelper.c ****             (signed int)pElementDesc->stBitOffset  ,
 763:/home/hkh/git/eapidk-code-r76-trunk/apps/EeePProg/linux/../CfgPHelper.c ****             (signed int)pElementDesc->stBitLength  , 
 764:/home/hkh/git/eapidk-code-r76-trunk/apps/EeePProg/linux/../CfgPHelper.c ****             (signed int)pElementDesc->Instances.stElementSize
 765:/home/hkh/git/eapidk-code-r76-trunk/apps/EeePProg/linux/../CfgPHelper.c ****           ));
 766:/home/hkh/git/eapidk-code-r76-trunk/apps/EeePProg/linux/../CfgPHelper.c **** /*   printf("\tPNPID_Element = 0x%04lX, %s\n", *(unsigned long*)pCurElement, szValue); */
 767:/home/hkh/git/eapidk-code-r76-trunk/apps/EeePProg/linux/../CfgPHelper.c **** EAPI_APP_ASSERT_EXIT
 768:/home/hkh/git/eapidk-code-r76-trunk/apps/EeePProg/linux/../CfgPHelper.c ****   return StatusCode;
 769:/home/hkh/git/eapidk-code-r76-trunk/apps/EeePProg/linux/../CfgPHelper.c **** }
 2800              		.loc 1 769 1 view .LVU672
ARM GAS  /tmp/cc2djyQn.s 			page 74


 2801 0f38 0400A0E1 		mov	r0, r4
 2802              		.loc 1 769 1 view .LVU673
 2803 0f3c 14D08DE2 		add	sp, sp, #20
 2804              		.cfi_remember_state
 2805              		.cfi_def_cfa_offset 28
 2806              		@ sp needed
 2807 0f40 F083BDE8 		pop	{r4, r5, r6, r7, r8, r9, pc}
 2808              	.LVL281:
 2809              	.L219:
 2810              		.cfi_restore_state
 2811              	.L206:
 759:/home/hkh/git/eapidk-code-r76-trunk/apps/EeePProg/linux/../CfgPHelper.c ****             uiPNPID, 
