ARM GAS  /tmp/ccWSR0Wc.s 			page 1


   1              		.cpu cortex-a9
   2              		.eabi_attribute 28, 1
   3              		.eabi_attribute 20, 1
   4              		.eabi_attribute 21, 1
   5              		.eabi_attribute 23, 3
   6              		.eabi_attribute 24, 1
   7              		.eabi_attribute 25, 1
   8              		.eabi_attribute 26, 2
   9              		.eabi_attribute 30, 2
  10              		.eabi_attribute 34, 1
  11              		.eabi_attribute 18, 4
  12              		.file	"CfgParser.c"
  13              		.text
  14              	.Ltext0:
  15              		.cfi_sections	.debug_frame
  16              		.section	.rodata.str1.4,"aMS",%progbits,1
  17              		.align	2
  18              	.LC1:
  19 0000 00       		.ascii	"\000"
  20 0001 000000   		.align	2
  21              	.LC2:
  22 0004 232000   		.ascii	"# \000"
  23 0007 00       		.align	2
  24              	.LC3:
  25 0008 52657175 		.ascii	"Required Element\000"
  25      69726564 
  25      20456C65 
  25      6D656E74 
  25      00
  26 0019 000000   		.align	2
  27              	.LC4:
  28 001c 4F707469 		.ascii	"Optional Element\000"
  28      6F6E616C 
  28      20456C65 
  28      6D656E74 
  28      00
  29 002d 000000   		.align	2
  30              	.LC5:
  31 0030 5072696E 		.ascii	"PrintCfgFile_Sub\000"
  31      74436667 
  31      46696C65 
  31      5F537562 
  31      00
  32 0041 000000   		.align	2
  33              	.LC6:
  34 0044 2F686F6D 		.ascii	"/home/hkh/git/eapidk-code-r76-trunk/apps/EeePProg/l"
  34      652F686B 
  34      682F6769 
  34      742F6561 
  34      7069646B 
  35 0077 696E7578 		.ascii	"inux/../CfgParser.c\000"
  35      2F2E2E2F 
  35      43666750 
  35      61727365 
  35      722E6300 
  36 008b 00       		.align	2
  37              	.LC7:
ARM GAS  /tmp/ccWSR0Wc.s 			page 2


  38 008c 28704366 		.ascii	"(pCfgBDesc==NULL)\000"
  38      67424465 
  38      73633D3D 
  38      4E554C4C 
  38      2900
  39 009e 0000     		.align	2
  40              	.LC8:
  41 00a0 25730A00 		.ascii	"%s\012\000"
  42              		.align	2
  43              	.LC9:
  44 00a4 28737443 		.ascii	"(stCfgBDescElements==0)\000"
  44      66674244 
  44      65736345 
  44      6C656D65 
  44      6E74733D 
  45              		.align	2
  46              	.LC10:
  47 00bc 0A00     		.ascii	"\012\000"
  48 00be 0000     		.align	2
  49              	.LC11:
  50 00c0 54422000 		.ascii	"TB \000"
  51              		.align	2
  52              	.LC12:
  53 00c4 5072696E 		.ascii	"PrintStringBlockA(OutStream, szBuffer, 60, (cuiRequ"
  53      74537472 
  53      696E6742 
  53      6C6F636B 
  53      41284F75 
  54 00f7 69726564 		.ascii	"ired&&pCfgBDesc->Block.cuiRequired?\"\":\"# \"), Lc"
  54      26267043 
  54      66674244 
  54      6573632D 
  54      3E426C6F 
  55 0126 6C446570 		.ascii	"lDepth, \"\\n\")\000"
  55      74682C20 
  55      225C6E22 
  55      2900
  56              		.align	2
  57              	.LC13:
  58 0134 5072696E 		.ascii	"PrintCfgFile_Sub(pCfgBDesc->Block.Elements.pIndx, p"
  58      74436667 
  58      46696C65 
  58      5F537562 
  58      28704366 
  59 0167 43666742 		.ascii	"CfgBDesc->Block.Elements.stUsedCnt, OutStream, cuiR"
  59      44657363 
  59      2D3E426C 
  59      6F636B2E 
  59      456C656D 
  60 019a 65717569 		.ascii	"equired&&pCfgBDesc->Block.cuiRequired, Depth+1)\000"
  60      72656426 
  60      26704366 
  60      67424465 
  60      73632D3E 
  61 01ca 0000     		.align	2
  62              	.LC14:
  63 01cc 5072696E 		.ascii	"PrintStringBlockA(OutStream, szBuffer, 60, szCommen"
ARM GAS  /tmp/ccWSR0Wc.s 			page 3


  63      74537472 
  63      696E6742 
  63      6C6F636B 
  63      41284F75 
  64 01ff 742C204C 		.ascii	"t, LclDepth, \"\\n\")\000"
  64      636C4465 
  64      7074682C 
  64      20225C6E 
  64      222900
  65 0212 0000     		.align	2
  66              	.LC15:
  67 0214 252A7309 		.ascii	"%*s\011\011 %s\012\000"
  67      09202573 
  67      0A00
  68 021e 0000     		.align	2
  69              	.LC16:
  70 0220 252A7309 		.ascii	"%*s\011\011 Allowed Maximum of %lu times in block\012"
  70      0920416C 
  70      6C6F7765 
  70      64204D61 
  70      78696D75 
  71 024c 00       		.ascii	"\000"
  72 024d 000000   		.align	2
  73              	.LC17:
  74 0250 70436667 		.ascii	"pCfgBDesc->Element.pHandlers->Help( &pCfgBDesc->Ele"
  74      42446573 
  74      632D3E45 
  74      6C656D65 
  74      6E742E70 
  75 0283 6D656E74 		.ascii	"ment, szBuffer, ARRAY_SIZE(szBuffer) )\000"
  75      2C20737A 
  75      42756666 
  75      65722C20 
  75      41525241 
  76 02aa 0000     		.align	2
  77              	.LC18:
  78 02ac 5072696E 		.ascii	"PrintStringBlockA(OutStream, szBuffer, 60, szCommen"
  78      74537472 
  78      696E6742 
  78      6C6F636B 
  78      41284F75 
  79 02df 74322C20 		.ascii	"t2, LclDepth+2, \"\\n\" )\000"
  79      4C636C44 
  79      65707468 
  79      2B322C20 
  79      225C6E22 
  80 02f6 0000     		.align	2
  81              	.LC19:
  82 02f8 252A7325 		.ascii	"%*s%s=\000"
  82      733D00
  83 02ff 00       		.align	2
  84              	.LC20:
  85 0300 70436667 		.ascii	"pCfgBDesc->Element.pHandlers->Default( &pCfgBDesc->"
  85      42446573 
  85      632D3E45 
  85      6C656D65 
  85      6E742E70 
ARM GAS  /tmp/ccWSR0Wc.s 			page 4


  86 0333 456C656D 		.ascii	"Element, OutStream , i2 )\000"
  86      656E742C 
  86      204F7574 
  86      53747265 
  86      616D202C 
  87              		.text
  88              		.align	2
  89              		.global	PrintCfgFile_Sub
  90              		.arch armv7-a
  91              		.arch_extension mp
  92              		.arch_extension sec
  93              		.syntax unified
  94              		.arm
  95              		.fpu vfpv3
  97              	PrintCfgFile_Sub:
  98              	.LVL0:
  99              	.LFB1:
 100              		.file 1 "/home/hkh/git/eapidk-code-r76-trunk/apps/EeePProg/linux/../CfgParser.c"
   1:/home/hkh/git/eapidk-code-r76-trunk/apps/EeePProg/linux/../CfgParser.c **** /*
   2:/home/hkh/git/eapidk-code-r76-trunk/apps/EeePProg/linux/../CfgParser.c ****  *<KHeader>
   3:/home/hkh/git/eapidk-code-r76-trunk/apps/EeePProg/linux/../CfgParser.c ****  *+=========================================================================
   4:/home/hkh/git/eapidk-code-r76-trunk/apps/EeePProg/linux/../CfgParser.c ****  *I  Project Name: EApiDK Embedded Application Development Kit
   5:/home/hkh/git/eapidk-code-r76-trunk/apps/EeePProg/linux/../CfgParser.c ****  *+=========================================================================
   6:/home/hkh/git/eapidk-code-r76-trunk/apps/EeePProg/linux/../CfgParser.c ****  *I  $HeadURL: file:///svn/p/eapidk/code/trunk/apps/EeePProg/CfgParser.c $
   7:/home/hkh/git/eapidk-code-r76-trunk/apps/EeePProg/linux/../CfgParser.c ****  *+=========================================================================
   8:/home/hkh/git/eapidk-code-r76-trunk/apps/EeePProg/linux/../CfgParser.c ****  *I   Copyright: Copyright (c) 2002-2010, Kontron Embedded Modules GmbH
   9:/home/hkh/git/eapidk-code-r76-trunk/apps/EeePProg/linux/../CfgParser.c ****  *I      Author: John Kearney,                  John.Kearney@kontron.com
  10:/home/hkh/git/eapidk-code-r76-trunk/apps/EeePProg/linux/../CfgParser.c ****  *I
  11:/home/hkh/git/eapidk-code-r76-trunk/apps/EeePProg/linux/../CfgParser.c ****  *I     License: All rights reserved. This program and the accompanying 
  12:/home/hkh/git/eapidk-code-r76-trunk/apps/EeePProg/linux/../CfgParser.c ****  *I              materials are licensed and made available under the 
  13:/home/hkh/git/eapidk-code-r76-trunk/apps/EeePProg/linux/../CfgParser.c ****  *I              terms and conditions of the BSD License which 
  14:/home/hkh/git/eapidk-code-r76-trunk/apps/EeePProg/linux/../CfgParser.c ****  *I              accompanies this distribution. The full text of the 
  15:/home/hkh/git/eapidk-code-r76-trunk/apps/EeePProg/linux/../CfgParser.c ****  *I              license may be found at 
  16:/home/hkh/git/eapidk-code-r76-trunk/apps/EeePProg/linux/../CfgParser.c ****  *I              http://opensource.org/licenses/bsd-license.php
  17:/home/hkh/git/eapidk-code-r76-trunk/apps/EeePProg/linux/../CfgParser.c ****  *I              
  18:/home/hkh/git/eapidk-code-r76-trunk/apps/EeePProg/linux/../CfgParser.c ****  *I              THE PROGRAM IS DISTRIBUTED UNDER THE BSD LICENSE ON AN "
  19:/home/hkh/git/eapidk-code-r76-trunk/apps/EeePProg/linux/../CfgParser.c ****  *I              AS IS" BASIS, WITHOUT WARRANTIES OR REPRESENTATIONS OF 
  20:/home/hkh/git/eapidk-code-r76-trunk/apps/EeePProg/linux/../CfgParser.c ****  *I              ANY KIND, EITHER EXPRESS OR IMPLIED.
  21:/home/hkh/git/eapidk-code-r76-trunk/apps/EeePProg/linux/../CfgParser.c ****  *I
  22:/home/hkh/git/eapidk-code-r76-trunk/apps/EeePProg/linux/../CfgParser.c ****  *I Description: Auto Created for EApiValidateAPI.c
  23:/home/hkh/git/eapidk-code-r76-trunk/apps/EeePProg/linux/../CfgParser.c ****  *I
  24:/home/hkh/git/eapidk-code-r76-trunk/apps/EeePProg/linux/../CfgParser.c ****  *+-------------------------------------------------------------------------
  25:/home/hkh/git/eapidk-code-r76-trunk/apps/EeePProg/linux/../CfgParser.c ****  *I
  26:/home/hkh/git/eapidk-code-r76-trunk/apps/EeePProg/linux/../CfgParser.c ****  *I  File Name            : CfgParser.c
  27:/home/hkh/git/eapidk-code-r76-trunk/apps/EeePProg/linux/../CfgParser.c ****  *I  File Location        : apps\EeePProg
  28:/home/hkh/git/eapidk-code-r76-trunk/apps/EeePProg/linux/../CfgParser.c ****  *I  Last committed       : $Revision: 76 $
  29:/home/hkh/git/eapidk-code-r76-trunk/apps/EeePProg/linux/../CfgParser.c ****  *I  Last changed by      : $Author: dethrophes $
  30:/home/hkh/git/eapidk-code-r76-trunk/apps/EeePProg/linux/../CfgParser.c ****  *I  Last changed date    : $Date: 2010-07-08 12:47:42 +0000 (Thu, 08 Jul 2010) $
  31:/home/hkh/git/eapidk-code-r76-trunk/apps/EeePProg/linux/../CfgParser.c ****  *I  ID                   : $Id: CfgParser.c 76 2010-07-08 12:47:42Z dethrophes $
  32:/home/hkh/git/eapidk-code-r76-trunk/apps/EeePProg/linux/../CfgParser.c ****  *I
  33:/home/hkh/git/eapidk-code-r76-trunk/apps/EeePProg/linux/../CfgParser.c ****  *+=========================================================================
  34:/home/hkh/git/eapidk-code-r76-trunk/apps/EeePProg/linux/../CfgParser.c ****  *</KHeader>
  35:/home/hkh/git/eapidk-code-r76-trunk/apps/EeePProg/linux/../CfgParser.c ****  */
  36:/home/hkh/git/eapidk-code-r76-trunk/apps/EeePProg/linux/../CfgParser.c ****   #include <EeePApp.h>
  37:/home/hkh/git/eapidk-code-r76-trunk/apps/EeePProg/linux/../CfgParser.c **** 
  38:/home/hkh/git/eapidk-code-r76-trunk/apps/EeePProg/linux/../CfgParser.c **** /*  */
  39:/home/hkh/git/eapidk-code-r76-trunk/apps/EeePProg/linux/../CfgParser.c **** #define EAPI_STATUS_PARSE_ERROR EAPI_STATUS_ERROR
ARM GAS  /tmp/ccWSR0Wc.s 			page 5


  40:/home/hkh/git/eapidk-code-r76-trunk/apps/EeePProg/linux/../CfgParser.c **** 
  41:/home/hkh/git/eapidk-code-r76-trunk/apps/EeePProg/linux/../CfgParser.c **** #define TEST_EEPCFG 0
  42:/home/hkh/git/eapidk-code-r76-trunk/apps/EeePProg/linux/../CfgParser.c **** 
  43:/home/hkh/git/eapidk-code-r76-trunk/apps/EeePProg/linux/../CfgParser.c **** 
  44:/home/hkh/git/eapidk-code-r76-trunk/apps/EeePProg/linux/../CfgParser.c **** static char ElementHeader[]=
  45:/home/hkh/git/eapidk-code-r76-trunk/apps/EeePProg/linux/../CfgParser.c **** "#################################################\n"
  46:/home/hkh/git/eapidk-code-r76-trunk/apps/EeePProg/linux/../CfgParser.c **** "  %s\n"
  47:/home/hkh/git/eapidk-code-r76-trunk/apps/EeePProg/linux/../CfgParser.c **** "#################################################\n"
  48:/home/hkh/git/eapidk-code-r76-trunk/apps/EeePProg/linux/../CfgParser.c **** ;
  49:/home/hkh/git/eapidk-code-r76-trunk/apps/EeePProg/linux/../CfgParser.c **** 
  50:/home/hkh/git/eapidk-code-r76-trunk/apps/EeePProg/linux/../CfgParser.c **** static char BlockOpen[]=
  51:/home/hkh/git/eapidk-code-r76-trunk/apps/EeePProg/linux/../CfgParser.c **** "[%s]\n"
  52:/home/hkh/git/eapidk-code-r76-trunk/apps/EeePProg/linux/../CfgParser.c **** ;
  53:/home/hkh/git/eapidk-code-r76-trunk/apps/EeePProg/linux/../CfgParser.c **** static char BlockClose[]=
  54:/home/hkh/git/eapidk-code-r76-trunk/apps/EeePProg/linux/../CfgParser.c **** "[/%s]\n"
  55:/home/hkh/git/eapidk-code-r76-trunk/apps/EeePProg/linux/../CfgParser.c **** ;
  56:/home/hkh/git/eapidk-code-r76-trunk/apps/EeePProg/linux/../CfgParser.c **** 
  57:/home/hkh/git/eapidk-code-r76-trunk/apps/EeePProg/linux/../CfgParser.c **** #define STEP_SIZE 2
  58:/home/hkh/git/eapidk-code-r76-trunk/apps/EeePProg/linux/../CfgParser.c **** const char szComment[]="##";
  59:/home/hkh/git/eapidk-code-r76-trunk/apps/EeePProg/linux/../CfgParser.c **** const char szComment2[]="##  ";
  60:/home/hkh/git/eapidk-code-r76-trunk/apps/EeePProg/linux/../CfgParser.c **** EApiStatus_t
  61:/home/hkh/git/eapidk-code-r76-trunk/apps/EeePProg/linux/../CfgParser.c **** PrintCfgFile_Sub(
  62:/home/hkh/git/eapidk-code-r76-trunk/apps/EeePProg/linux/../CfgParser.c ****     __IN    CfgNodeGen_t  *pCfgBDesc         ,
  63:/home/hkh/git/eapidk-code-r76-trunk/apps/EeePProg/linux/../CfgParser.c ****     __IN    size_t         stCfgBDescElements ,
  64:/home/hkh/git/eapidk-code-r76-trunk/apps/EeePProg/linux/../CfgParser.c ****     __OUT   FILE *         OutStream          ,
  65:/home/hkh/git/eapidk-code-r76-trunk/apps/EeePProg/linux/../CfgParser.c ****     __IN    unsigned int   cuiRequired        ,
  66:/home/hkh/git/eapidk-code-r76-trunk/apps/EeePProg/linux/../CfgParser.c ****     __IN    unsigned int   Depth
  67:/home/hkh/git/eapidk-code-r76-trunk/apps/EeePProg/linux/../CfgParser.c ****     )
  68:/home/hkh/git/eapidk-code-r76-trunk/apps/EeePProg/linux/../CfgParser.c **** {
 101              		.loc 1 68 1 view -0
 102              		.cfi_startproc
 103              		@ args = 4, pretend = 0, frame = 2088
 104              		@ frame_needed = 0, uses_anonymous_args = 0
 105              		.loc 1 68 1 is_stmt 0 view .LVU1
 106 0000 F04F2DE9 		push	{r4, r5, r6, r7, r8, r9, r10, fp, lr}
 107              		.cfi_def_cfa_offset 36
 108              		.cfi_offset 4, -36
 109              		.cfi_offset 5, -32
 110              		.cfi_offset 6, -28
 111              		.cfi_offset 7, -24
 112              		.cfi_offset 8, -20
 113              		.cfi_offset 9, -16
 114              		.cfi_offset 10, -12
 115              		.cfi_offset 11, -8
 116              		.cfi_offset 14, -4
 117 0004 0270A0E1 		mov	r7, r2
 118 0008 04269FE5 		ldr	r2, .L64
 119              	.LVL1:
 120              		.loc 1 68 1 view .LVU2
 121 000c 03B0A0E1 		mov	fp, r3
 122 0010 83DE4DE2 		sub	sp, sp, #2096
 123              		.cfi_def_cfa_offset 2132
  69:/home/hkh/git/eapidk-code-r76-trunk/apps/EeePProg/linux/../CfgParser.c ****   EApiStatus_t StatusCode=EAPI_STATUS_SUCCESS;
  70:/home/hkh/git/eapidk-code-r76-trunk/apps/EeePProg/linux/../CfgParser.c ****   unsigned int i2;
  71:/home/hkh/git/eapidk-code-r76-trunk/apps/EeePProg/linux/../CfgParser.c ****   char szBuffer[2048];
  72:/home/hkh/git/eapidk-code-r76-trunk/apps/EeePProg/linux/../CfgParser.c ****   int LclDepth;
  73:/home/hkh/git/eapidk-code-r76-trunk/apps/EeePProg/linux/../CfgParser.c ****   EAPI_APP_ASSERT_PARAMATER_NULL(
ARM GAS  /tmp/ccWSR0Wc.s 			page 6


 124              		.loc 1 73 3 view .LVU3
 125 0014 000050E3 		cmp	r0, #0
  68:/home/hkh/git/eapidk-code-r76-trunk/apps/EeePProg/linux/../CfgParser.c ****   EApiStatus_t StatusCode=EAPI_STATUS_SUCCESS;
 126              		.loc 1 68 1 view .LVU4
 127 0018 F8359FE5 		ldr	r3, .L64+4
 128              	.LVL2:
  68:/home/hkh/git/eapidk-code-r76-trunk/apps/EeePProg/linux/../CfgParser.c ****   EApiStatus_t StatusCode=EAPI_STATUS_SUCCESS;
 129              		.loc 1 68 1 view .LVU5
 130 001c 0CD04DE2 		sub	sp, sp, #12
 131              		.cfi_def_cfa_offset 2144
  68:/home/hkh/git/eapidk-code-r76-trunk/apps/EeePProg/linux/../CfgParser.c ****   EApiStatus_t StatusCode=EAPI_STATUS_SUCCESS;
 132              		.loc 1 68 1 view .LVU6
 133              	.LPIC65:
 134 0020 02208FE0 		add	r2, pc, r2
 135 0024 033092E7 		ldr	r3, [r2, r3]
 136 0028 003093E5 		ldr	r3, [r3]
 137 002c 34388DE5 		str	r3, [sp, #2100]
 138 0030 0030A0E3 		mov	r3, #0
  69:/home/hkh/git/eapidk-code-r76-trunk/apps/EeePProg/linux/../CfgParser.c ****   EApiStatus_t StatusCode=EAPI_STATUS_SUCCESS;
 139              		.loc 1 69 3 is_stmt 1 view .LVU7
 140              	.LVL3:
  70:/home/hkh/git/eapidk-code-r76-trunk/apps/EeePProg/linux/../CfgParser.c ****   char szBuffer[2048];
 141              		.loc 1 70 3 view .LVU8
  71:/home/hkh/git/eapidk-code-r76-trunk/apps/EeePProg/linux/../CfgParser.c ****   int LclDepth;
 142              		.loc 1 71 3 view .LVU9
  72:/home/hkh/git/eapidk-code-r76-trunk/apps/EeePProg/linux/../CfgParser.c ****   EAPI_APP_ASSERT_PARAMATER_NULL(
 143              		.loc 1 72 3 view .LVU10
 144              		.loc 1 73 3 view .LVU11
 145 0034 2F01000A 		beq	.L55
 146              		.loc 1 73 3 discriminator 2 view .LVU12
  74:/home/hkh/git/eapidk-code-r76-trunk/apps/EeePProg/linux/../CfgParser.c ****       PrintCfgFile_Sub,
  75:/home/hkh/git/eapidk-code-r76-trunk/apps/EeePProg/linux/../CfgParser.c ****       EAPI_STATUS_INVALID_PARAMETER,
  76:/home/hkh/git/eapidk-code-r76-trunk/apps/EeePProg/linux/../CfgParser.c ****       pCfgBDesc
  77:/home/hkh/git/eapidk-code-r76-trunk/apps/EeePProg/linux/../CfgParser.c ****     );
 147              		.loc 1 77 6 discriminator 2 view .LVU13
  78:/home/hkh/git/eapidk-code-r76-trunk/apps/EeePProg/linux/../CfgParser.c ****   EAPI_APP_ASSERT_PARAMATER_ZERO(
 148              		.loc 1 78 3 discriminator 2 view .LVU14
 149 0038 000051E3 		cmp	r1, #0
 150 003c 0D01000A 		beq	.L56
 151              		.loc 1 78 3 discriminator 2 view .LVU15
  79:/home/hkh/git/eapidk-code-r76-trunk/apps/EeePProg/linux/../CfgParser.c ****       PrintCfgFile_Sub,
  80:/home/hkh/git/eapidk-code-r76-trunk/apps/EeePProg/linux/../CfgParser.c ****       EAPI_STATUS_INVALID_PARAMETER,
  81:/home/hkh/git/eapidk-code-r76-trunk/apps/EeePProg/linux/../CfgParser.c ****       stCfgBDescElements
  82:/home/hkh/git/eapidk-code-r76-trunk/apps/EeePProg/linux/../CfgParser.c ****     );
 152              		.loc 1 82 6 discriminator 2 view .LVU16
  83:/home/hkh/git/eapidk-code-r76-trunk/apps/EeePProg/linux/../CfgParser.c ****   LclDepth=(Depth*STEP_SIZE)+STRLEN(szComment);
 153              		.loc 1 83 3 discriminator 2 view .LVU17
 154              		.loc 1 83 29 is_stmt 0 discriminator 2 view .LVU18
 155 0040 60389DE5 		ldr	r3, [sp, #2144]
 156 0044 384080E2 		add	r4, r0, #56
 157 0048 012083E2 		add	r2, r3, #1
  84:/home/hkh/git/eapidk-code-r76-trunk/apps/EeePProg/linux/../CfgParser.c ****   while(stCfgBDescElements--){
 158              		.loc 1 84 27 discriminator 2 view .LVU19
 159 004c 013041E2 		sub	r3, r1, #1
 160 0050 10308DE5 		str	r3, [sp, #16]
  83:/home/hkh/git/eapidk-code-r76-trunk/apps/EeePProg/linux/../CfgParser.c ****   LclDepth=(Depth*STEP_SIZE)+STRLEN(szComment);
 161              		.loc 1 83 29 discriminator 2 view .LVU20
ARM GAS  /tmp/ccWSR0Wc.s 			page 7


 162 0054 82A0A0E1 		lsl	r10, r2, #1
  85:/home/hkh/git/eapidk-code-r76-trunk/apps/EeePProg/linux/../CfgParser.c ****     switch(pCfgBDesc->Gen.NodeType){
  86:/home/hkh/git/eapidk-code-r76-trunk/apps/EeePProg/linux/../CfgParser.c ****       case CfgBlockNode:
  87:/home/hkh/git/eapidk-code-r76-trunk/apps/EeePProg/linux/../CfgParser.c ****         if(pCfgBDesc->Block.Elements.stUsedCnt){
  88:/home/hkh/git/eapidk-code-r76-trunk/apps/EeePProg/linux/../CfgParser.c ****           EApiSprintfA(szBuffer, ARRAY_SIZE(szBuffer), BlockOpen, pCfgBDesc->Block.pszBlockName);
  89:/home/hkh/git/eapidk-code-r76-trunk/apps/EeePProg/linux/../CfgParser.c ****           DO(PrintStringBlockA(OutStream, szBuffer, 60, (cuiRequired&&pCfgBDesc->Block.cuiRequired?
  90:/home/hkh/git/eapidk-code-r76-trunk/apps/EeePProg/linux/../CfgParser.c ****           DO(PrintCfgFile_Sub(pCfgBDesc->Block.Elements.pIndx, pCfgBDesc->Block.Elements.stUsedCnt,
  91:/home/hkh/git/eapidk-code-r76-trunk/apps/EeePProg/linux/../CfgParser.c ****           EApiSprintfA(szBuffer, ARRAY_SIZE(szBuffer), BlockClose, pCfgBDesc->Block.pszBlockName);
 163              		.loc 1 91 11 discriminator 2 view .LVU21
 164 0058 BC359FE5 		ldr	r3, .L64+8
  88:/home/hkh/git/eapidk-code-r76-trunk/apps/EeePProg/linux/../CfgParser.c ****           DO(PrintStringBlockA(OutStream, szBuffer, 60, (cuiRequired&&pCfgBDesc->Block.cuiRequired?
 165              		.loc 1 88 11 discriminator 2 view .LVU22
 166 005c BC159FE5 		ldr	r1, .L64+12
 167              	.LVL4:
  83:/home/hkh/git/eapidk-code-r76-trunk/apps/EeePProg/linux/../CfgParser.c ****   while(stCfgBDescElements--){
 168              		.loc 1 83 29 discriminator 2 view .LVU23
 169 0060 20208DE5 		str	r2, [sp, #32]
 170              	.LVL5:
  84:/home/hkh/git/eapidk-code-r76-trunk/apps/EeePProg/linux/../CfgParser.c ****     switch(pCfgBDesc->Gen.NodeType){
 171              		.loc 1 84 3 is_stmt 1 discriminator 2 view .LVU24
  84:/home/hkh/git/eapidk-code-r76-trunk/apps/EeePProg/linux/../CfgParser.c ****     switch(pCfgBDesc->Gen.NodeType){
 172              		.loc 1 84 9 discriminator 2 view .LVU25
 173              		.loc 1 91 11 is_stmt 0 discriminator 2 view .LVU26
 174              	.LPIC58:
 175 0064 03308FE0 		add	r3, pc, r3
 176 0068 083083E2 		add	r3, r3, #8
  88:/home/hkh/git/eapidk-code-r76-trunk/apps/EeePProg/linux/../CfgParser.c ****           DO(PrintStringBlockA(OutStream, szBuffer, 60, (cuiRequired&&pCfgBDesc->Block.cuiRequired?
 177              		.loc 1 88 11 discriminator 2 view .LVU27
 178              	.LPIC15:
 179 006c 01108FE0 		add	r1, pc, r1
 180              		.loc 1 91 11 discriminator 2 view .LVU28
 181 0070 2C308DE5 		str	r3, [sp, #44]
  92:/home/hkh/git/eapidk-code-r76-trunk/apps/EeePProg/linux/../CfgParser.c ****           DO(PrintStringBlockA(OutStream, szBuffer, 60, (cuiRequired&&pCfgBDesc->Block.cuiRequired?
 182              		.loc 1 92 11 discriminator 2 view .LVU29
 183 0074 A8359FE5 		ldr	r3, .L64+16
  88:/home/hkh/git/eapidk-code-r76-trunk/apps/EeePProg/linux/../CfgParser.c ****           DO(PrintStringBlockA(OutStream, szBuffer, 60, (cuiRequired&&pCfgBDesc->Block.cuiRequired?
 184              		.loc 1 88 11 discriminator 2 view .LVU30
 185 0078 18108DE5 		str	r1, [sp, #24]
 186              		.loc 1 92 11 discriminator 2 view .LVU31
 187              	.LPIC27:
 188 007c 03308FE0 		add	r3, pc, r3
 189 0080 24308DE5 		str	r3, [sp, #36]
  89:/home/hkh/git/eapidk-code-r76-trunk/apps/EeePProg/linux/../CfgParser.c ****           DO(PrintCfgFile_Sub(pCfgBDesc->Block.Elements.pIndx, pCfgBDesc->Block.Elements.stUsedCnt,
 190              		.loc 1 89 11 discriminator 2 view .LVU32
 191 0084 9C359FE5 		ldr	r3, .L64+20
 192              	.LPIC16:
 193 0088 03308FE0 		add	r3, pc, r3
 194 008c 1C308DE5 		str	r3, [sp, #28]
  91:/home/hkh/git/eapidk-code-r76-trunk/apps/EeePProg/linux/../CfgParser.c ****           DO(PrintStringBlockA(OutStream, szBuffer, 60, (cuiRequired&&pCfgBDesc->Block.cuiRequired?
 195              		.loc 1 91 11 discriminator 2 view .LVU33
 196 0090 083081E2 		add	r3, r1, #8
 197 0094 28308DE5 		str	r3, [sp, #40]
 198              	.LVL6:
 199              	.L26:
  85:/home/hkh/git/eapidk-code-r76-trunk/apps/EeePProg/linux/../CfgParser.c ****       case CfgBlockNode:
 200              		.loc 1 85 5 is_stmt 1 view .LVU34
  85:/home/hkh/git/eapidk-code-r76-trunk/apps/EeePProg/linux/../CfgParser.c ****       case CfgBlockNode:
ARM GAS  /tmp/ccWSR0Wc.s 			page 8


 201              		.loc 1 85 26 is_stmt 0 view .LVU35
 202 0098 383014E5 		ldr	r3, [r4, #-56]
 203 009c 00F0D4F5 		pld	[r4]
  85:/home/hkh/git/eapidk-code-r76-trunk/apps/EeePProg/linux/../CfgParser.c ****       case CfgBlockNode:
 204              		.loc 1 85 5 view .LVU36
 205 00a0 010053E3 		cmp	r3, #1
 206 00a4 7E00000A 		beq	.L5
 207 00a8 020053E3 		cmp	r3, #2
 208 00ac 7F00001A 		bne	.L7
  93:/home/hkh/git/eapidk-code-r76-trunk/apps/EeePProg/linux/../CfgParser.c ****         }
  94:/home/hkh/git/eapidk-code-r76-trunk/apps/EeePProg/linux/../CfgParser.c ****         break;
  95:/home/hkh/git/eapidk-code-r76-trunk/apps/EeePProg/linux/../CfgParser.c ****       case CfgElementNode:
  96:/home/hkh/git/eapidk-code-r76-trunk/apps/EeePProg/linux/../CfgParser.c ****         EApiSprintfA(szBuffer, ARRAY_SIZE(szBuffer), ElementHeader, pCfgBDesc->Element.pcszElementN
 209              		.loc 1 96 9 is_stmt 1 view .LVU37
 210 00b0 74259FE5 		ldr	r2, .L64+24
 211 00b4 34508DE2 		add	r5, sp, #52
 212 00b8 343014E5 		ldr	r3, [r4, #-52]
 213 00bc 021BA0E3 		mov	r1, #2048
 214 00c0 0500A0E1 		mov	r0, r5
 215 00c4 04F0D4F5 		pld	[r4, #4]
 216              	.LPIC32:
 217 00c8 02208FE0 		add	r2, pc, r2
 218 00cc 102082E2 		add	r2, r2, #16
 219 00d0 FEFFFFEB 		bl	EApiSprintfA(PLT)
 220              	.LVL7:
  97:/home/hkh/git/eapidk-code-r76-trunk/apps/EeePProg/linux/../CfgParser.c ****         DO(PrintStringBlockA(OutStream, szBuffer, 60, szComment, LclDepth, "\n"));
 221              		.loc 1 97 9 view .LVU38
 222              		.loc 1 97 9 view .LVU39
 223 00d4 54359FE5 		ldr	r3, .L64+28
 224 00d8 3C20A0E3 		mov	r2, #60
 225 00dc 0510A0E1 		mov	r1, r5
 226 00e0 0700A0E1 		mov	r0, r7
 227 00e4 00A08DE5 		str	r10, [sp]
 228              	.LPIC34:
 229 00e8 03308FE0 		add	r3, pc, r3
 230 00ec 04308DE5 		str	r3, [sp, #4]
 231 00f0 3C359FE5 		ldr	r3, .L64+32
 232              	.LPIC33:
 233 00f4 03308FE0 		add	r3, pc, r3
 234 00f8 FEFFFFEB 		bl	PrintStringBlockA(PLT)
 235              	.LVL8:
 236              		.loc 1 97 9 view .LVU40
 237 00fc 000050E3 		cmp	r0, #0
 238              		.loc 1 97 9 is_stmt 0 view .LVU41
 239 0100 1201001A 		bne	.L57
 240              		.loc 1 97 9 is_stmt 1 discriminator 2 view .LVU42
  98:/home/hkh/git/eapidk-code-r76-trunk/apps/EeePProg/linux/../CfgParser.c ****         fprintf(OutStream, 
 241              		.loc 1 98 9 discriminator 2 view .LVU43
 242 0104 303014E5 		ldr	r3, [r4, #-48]
 243 0108 000053E3 		cmp	r3, #0
 244 010c 6F00001A 		bne	.L35
 245              		.loc 1 98 9 is_stmt 0 view .LVU44
 246 0110 20359FE5 		ldr	r3, .L64+36
 247              	.LPIC4:
 248 0114 03308FE0 		add	r3, pc, r3
 249              	.L20:
 250              		.loc 1 98 9 discriminator 4 view .LVU45
ARM GAS  /tmp/ccWSR0Wc.s 			page 9


 251 0118 1C659FE5 		ldr	r6, .L64+40
 252 011c 0A20A0E1 		mov	r2, r10
 253 0120 18159FE5 		ldr	r1, .L64+44
 254 0124 0700A0E1 		mov	r0, r7
 255              	.LVL9:
 256              		.loc 1 98 9 discriminator 4 view .LVU46
 257 0128 00308DE5 		str	r3, [sp]
 258 012c 388044E2 		sub	r8, r4, #56
 259              	.LPIC39:
 260 0130 06608FE0 		add	r6, pc, r6
 261 0134 10F0D4F5 		pld	[r4, #16]
 262              	.LPIC40:
 263 0138 01108FE0 		add	r1, pc, r1
 264 013c 0630A0E1 		mov	r3, r6
 265 0140 FEFFFFEB 		bl	fprintf(PLT)
 266              	.LVL10:
  99:/home/hkh/git/eapidk-code-r76-trunk/apps/EeePProg/linux/../CfgParser.c ****             "%*s\t\t %s\n", LclDepth, szComment,
 100:/home/hkh/git/eapidk-code-r76-trunk/apps/EeePProg/linux/../CfgParser.c ****             (pCfgBDesc->Element.cuiRequired?"Required Element":"Optional Element")
 101:/home/hkh/git/eapidk-code-r76-trunk/apps/EeePProg/linux/../CfgParser.c ****           );
 102:/home/hkh/git/eapidk-code-r76-trunk/apps/EeePProg/linux/../CfgParser.c ****         fprintf(OutStream, 
 267              		.loc 1 102 9 is_stmt 1 discriminator 4 view .LVU47
 268 0144 283014E5 		ldr	r3, [r4, #-40]
 269 0148 0A20A0E1 		mov	r2, r10
 270 014c F0149FE5 		ldr	r1, .L64+48
 271 0150 0700A0E1 		mov	r0, r7
 272 0154 00308DE5 		str	r3, [sp]
 273 0158 0630A0E1 		mov	r3, r6
 274              	.LPIC42:
 275 015c 01108FE0 		add	r1, pc, r1
 276 0160 FEFFFFEB 		bl	fprintf(PLT)
 277              	.LVL11:
 103:/home/hkh/git/eapidk-code-r76-trunk/apps/EeePProg/linux/../CfgParser.c ****             "%*s\t\t Allowed Maximum of %lu times in block\n", LclDepth, szComment,
 104:/home/hkh/git/eapidk-code-r76-trunk/apps/EeePProg/linux/../CfgParser.c ****             (unsigned long)pCfgBDesc->Element.Instances.stTotalCnt
 105:/home/hkh/git/eapidk-code-r76-trunk/apps/EeePProg/linux/../CfgParser.c ****           );
 106:/home/hkh/git/eapidk-code-r76-trunk/apps/EeePProg/linux/../CfgParser.c ****         DO(pCfgBDesc->Element.pHandlers->Help(
 278              		.loc 1 106 9 discriminator 4 view .LVU48
 279              		.loc 1 106 9 discriminator 4 view .LVU49
 280 0164 083014E5 		ldr	r3, [r4, #-8]
 281 0168 022BA0E3 		mov	r2, #2048
 282 016c 0510A0E1 		mov	r1, r5
 283 0170 0800A0E1 		mov	r0, r8
 284 0174 083093E5 		ldr	r3, [r3, #8]
 285 0178 33FF2FE1 		blx	r3
 286              	.LVL12:
 287              		.loc 1 106 9 discriminator 4 view .LVU50
 288 017c 000050E3 		cmp	r0, #0
 289              		.loc 1 106 9 is_stmt 0 discriminator 4 view .LVU51
 290 0180 FD00001A 		bne	.L58
 291              		.loc 1 106 9 is_stmt 1 discriminator 2 view .LVU52
 107:/home/hkh/git/eapidk-code-r76-trunk/apps/EeePProg/linux/../CfgParser.c ****               &pCfgBDesc->Element, 
 108:/home/hkh/git/eapidk-code-r76-trunk/apps/EeePProg/linux/../CfgParser.c ****               szBuffer,
 109:/home/hkh/git/eapidk-code-r76-trunk/apps/EeePProg/linux/../CfgParser.c ****               ARRAY_SIZE(szBuffer)
 110:/home/hkh/git/eapidk-code-r76-trunk/apps/EeePProg/linux/../CfgParser.c ****             ));
 111:/home/hkh/git/eapidk-code-r76-trunk/apps/EeePProg/linux/../CfgParser.c ****         DO(PrintStringBlockA(OutStream, 
 292              		.loc 1 111 9 discriminator 2 view .LVU53
 293              		.loc 1 111 9 discriminator 2 view .LVU54
 294 0184 BC249FE5 		ldr	r2, .L64+52
ARM GAS  /tmp/ccWSR0Wc.s 			page 10


 295 0188 043086E2 		add	r3, r6, #4
 296 018c 0510A0E1 		mov	r1, r5
 297 0190 0700A0E1 		mov	r0, r7
 298              	.LVL13:
 299              		.loc 1 111 9 is_stmt 0 discriminator 2 view .LVU55
 300              	.LPIC48:
 301 0194 02208FE0 		add	r2, pc, r2
 302 0198 04208DE5 		str	r2, [sp, #4]
 303 019c 02208AE2 		add	r2, r10, #2
 304 01a0 00208DE5 		str	r2, [sp]
 305 01a4 3C20A0E3 		mov	r2, #60
 306 01a8 FEFFFFEB 		bl	PrintStringBlockA(PLT)
 307              	.LVL14:
 308              		.loc 1 111 9 is_stmt 1 discriminator 2 view .LVU56
 309 01ac 006050E2 		subs	r6, r0, #0
 310 01b0 FC00001A 		bne	.L59
 112:/home/hkh/git/eapidk-code-r76-trunk/apps/EeePProg/linux/../CfgParser.c ****               szBuffer,
 113:/home/hkh/git/eapidk-code-r76-trunk/apps/EeePProg/linux/../CfgParser.c ****               60, szComment2, LclDepth+2, "\n"
 114:/home/hkh/git/eapidk-code-r76-trunk/apps/EeePProg/linux/../CfgParser.c ****             ));
 115:/home/hkh/git/eapidk-code-r76-trunk/apps/EeePProg/linux/../CfgParser.c ****         i2=0;
 116:/home/hkh/git/eapidk-code-r76-trunk/apps/EeePProg/linux/../CfgParser.c ****         do{
 117:/home/hkh/git/eapidk-code-r76-trunk/apps/EeePProg/linux/../CfgParser.c ****           fprintf(OutStream, "%*s%s=", LclDepth, 
 311              		.loc 1 117 11 is_stmt 0 view .LVU57
 312 01b4 90249FE5 		ldr	r2, .L64+56
 313 01b8 90549FE5 		ldr	r5, .L64+60
 314 01bc 90949FE5 		ldr	r9, .L64+64
 315              	.LPIC6:
 316 01c0 02208FE0 		add	r2, pc, r2
 118:/home/hkh/git/eapidk-code-r76-trunk/apps/EeePProg/linux/../CfgParser.c ****                 (cuiRequired&pCfgBDesc->Element.cuiRequired?"":"# "), 
 317              		.loc 1 118 48 view .LVU58
 318 01c4 303014E5 		ldr	r3, [r4, #-48]
 117:/home/hkh/git/eapidk-code-r76-trunk/apps/EeePProg/linux/../CfgParser.c ****                 (cuiRequired&pCfgBDesc->Element.cuiRequired?"":"# "), 
 319              		.loc 1 117 11 view .LVU59
 320              	.LPIC5:
 321 01c8 05508FE0 		add	r5, pc, r5
 322 01cc 14208DE5 		str	r2, [sp, #20]
 323              	.LPIC53:
 324 01d0 09908FE0 		add	r9, pc, r9
 325 01d4 060000EA 		b	.L25
 326              	.LVL15:
 327              	.L24:
 119:/home/hkh/git/eapidk-code-r76-trunk/apps/EeePProg/linux/../CfgParser.c ****                 pCfgBDesc->Element.pcszElementName
 120:/home/hkh/git/eapidk-code-r76-trunk/apps/EeePProg/linux/../CfgParser.c ****               );
 121:/home/hkh/git/eapidk-code-r76-trunk/apps/EeePProg/linux/../CfgParser.c ****           DO(pCfgBDesc->Element.pHandlers->Default(
 328              		.loc 1 121 11 is_stmt 1 discriminator 2 view .LVU60
 122:/home/hkh/git/eapidk-code-r76-trunk/apps/EeePProg/linux/../CfgParser.c ****                 &pCfgBDesc->Element, 
 123:/home/hkh/git/eapidk-code-r76-trunk/apps/EeePProg/linux/../CfgParser.c ****                 OutStream  ,
 124:/home/hkh/git/eapidk-code-r76-trunk/apps/EeePProg/linux/../CfgParser.c ****                 i2
 125:/home/hkh/git/eapidk-code-r76-trunk/apps/EeePProg/linux/../CfgParser.c ****               ));
 126:/home/hkh/git/eapidk-code-r76-trunk/apps/EeePProg/linux/../CfgParser.c ****           fprintf(OutStream, "\n");
 329              		.loc 1 126 11 discriminator 2 view .LVU61
 330 01d8 0710A0E1 		mov	r1, r7
 331 01dc 0A00A0E3 		mov	r0, #10
 332              	.LVL16:
 333              		.loc 1 126 11 is_stmt 0 discriminator 2 view .LVU62
 334 01e0 FEFFFFEB 		bl	fputc(PLT)
 335              	.LVL17:
ARM GAS  /tmp/ccWSR0Wc.s 			page 11


 127:/home/hkh/git/eapidk-code-r76-trunk/apps/EeePProg/linux/../CfgParser.c ****         }while(++i2<pCfgBDesc->Element.cuiRequired);
 336              		.loc 1 127 20 is_stmt 1 discriminator 2 view .LVU63
 337              		.loc 1 127 39 is_stmt 0 discriminator 2 view .LVU64
 338 01e4 303014E5 		ldr	r3, [r4, #-48]
 339              		.loc 1 127 20 discriminator 2 view .LVU65
 340 01e8 016086E2 		add	r6, r6, #1
 341              	.LVL18:
 342              		.loc 1 127 20 discriminator 2 view .LVU66
 343 01ec 060053E1 		cmp	r3, r6
 344 01f0 3900009A 		bls	.L60
 345              	.LVL19:
 346              	.L25:
 116:/home/hkh/git/eapidk-code-r76-trunk/apps/EeePProg/linux/../CfgParser.c ****           fprintf(OutStream, "%*s%s=", LclDepth, 
 347              		.loc 1 116 9 is_stmt 1 view .LVU67
 117:/home/hkh/git/eapidk-code-r76-trunk/apps/EeePProg/linux/../CfgParser.c ****                 (cuiRequired&pCfgBDesc->Element.cuiRequired?"":"# "), 
 348              		.loc 1 117 11 view .LVU68
 349 01f4 342014E5 		ldr	r2, [r4, #-52]
 350 01f8 0B0013E1 		tst	r3, fp
 351 01fc 14309D05 		ldreq	r3, [sp, #20]
 352 0200 0530A011 		movne	r3, r5
 353 0204 0910A0E1 		mov	r1, r9
 354 0208 0700A0E1 		mov	r0, r7
 355 020c 00208DE5 		str	r2, [sp]
 356 0210 0A20A0E1 		mov	r2, r10
 357 0214 FEFFFFEB 		bl	fprintf(PLT)
 358              	.LVL20:
 121:/home/hkh/git/eapidk-code-r76-trunk/apps/EeePProg/linux/../CfgParser.c ****                 &pCfgBDesc->Element, 
 359              		.loc 1 121 11 view .LVU69
 121:/home/hkh/git/eapidk-code-r76-trunk/apps/EeePProg/linux/../CfgParser.c ****                 &pCfgBDesc->Element, 
 360              		.loc 1 121 11 view .LVU70
 361 0218 083014E5 		ldr	r3, [r4, #-8]
 362 021c 0620A0E1 		mov	r2, r6
 363 0220 0710A0E1 		mov	r1, r7
 364 0224 0800A0E1 		mov	r0, r8
 365 0228 0C3093E5 		ldr	r3, [r3, #12]
 366 022c 33FF2FE1 		blx	r3
 367              	.LVL21:
 121:/home/hkh/git/eapidk-code-r76-trunk/apps/EeePProg/linux/../CfgParser.c ****                 &pCfgBDesc->Element, 
 368              		.loc 1 121 11 view .LVU71
 369 0230 000050E3 		cmp	r0, #0
 121:/home/hkh/git/eapidk-code-r76-trunk/apps/EeePProg/linux/../CfgParser.c ****                 &pCfgBDesc->Element, 
 370              		.loc 1 121 11 is_stmt 0 view .LVU72
 371 0234 E7FFFF0A 		beq	.L24
 121:/home/hkh/git/eapidk-code-r76-trunk/apps/EeePProg/linux/../CfgParser.c ****                 &pCfgBDesc->Element, 
 372              		.loc 1 121 11 is_stmt 1 discriminator 1 view .LVU73
 373 0238 18C49FE5 		ldr	ip, .L64+68
 374 023c 0050A0E1 		mov	r5, r0
 375 0240 14249FE5 		ldr	r2, .L64+72
 376 0244 7930A0E3 		mov	r3, #121
 377 0248 10049FE5 		ldr	r0, .L64+76
 378              	.LVL22:
 121:/home/hkh/git/eapidk-code-r76-trunk/apps/EeePProg/linux/../CfgParser.c ****                 &pCfgBDesc->Element, 
 379              		.loc 1 121 11 is_stmt 0 discriminator 1 view .LVU74
 380 024c 10149FE5 		ldr	r1, .L64+80
 381              	.LPIC56:
 382 0250 0CC08FE0 		add	ip, pc, ip
 383              	.LPIC54:
ARM GAS  /tmp/ccWSR0Wc.s 			page 12


 384 0254 02208FE0 		add	r2, pc, r2
 385              	.LPIC57:
 386 0258 00008FE0 		add	r0, pc, r0
 387              	.LPIC55:
 388 025c 01108FE0 		add	r1, pc, r1
 389              	.LVL23:
 390              	.L51:
 121:/home/hkh/git/eapidk-code-r76-trunk/apps/EeePProg/linux/../CfgParser.c ****                 &pCfgBDesc->Element, 
 391              		.loc 1 121 11 discriminator 1 view .LVU75
 392 0260 01108DE9 		stmib	sp, {r0, ip}
 393 0264 4500A0E3 		mov	r0, #69
 394 0268 00508DE5 		str	r5, [sp]
 395 026c FEFFFFEB 		bl	siFormattedMessage_SC(PLT)
 396              	.LVL24:
 121:/home/hkh/git/eapidk-code-r76-trunk/apps/EeePProg/linux/../CfgParser.c ****                 &pCfgBDesc->Element, 
 397              		.loc 1 121 11 is_stmt 1 discriminator 1 view .LVU76
 398              	.L1:
  68:/home/hkh/git/eapidk-code-r76-trunk/apps/EeePProg/linux/../CfgParser.c ****   EApiStatus_t StatusCode=EAPI_STATUS_SUCCESS;
 399              		.loc 1 68 1 is_stmt 0 view .LVU77
 400 0270 F0239FE5 		ldr	r2, .L64+84
 128:/home/hkh/git/eapidk-code-r76-trunk/apps/EeePProg/linux/../CfgParser.c ****         fprintf(OutStream, "\n");
 129:/home/hkh/git/eapidk-code-r76-trunk/apps/EeePProg/linux/../CfgParser.c ****         break;
 130:/home/hkh/git/eapidk-code-r76-trunk/apps/EeePProg/linux/../CfgParser.c ****       default:
 131:/home/hkh/git/eapidk-code-r76-trunk/apps/EeePProg/linux/../CfgParser.c ****         break;
 132:/home/hkh/git/eapidk-code-r76-trunk/apps/EeePProg/linux/../CfgParser.c ****     }
 133:/home/hkh/git/eapidk-code-r76-trunk/apps/EeePProg/linux/../CfgParser.c ****     pCfgBDesc++;
 134:/home/hkh/git/eapidk-code-r76-trunk/apps/EeePProg/linux/../CfgParser.c ****   }
 135:/home/hkh/git/eapidk-code-r76-trunk/apps/EeePProg/linux/../CfgParser.c **** EAPI_APP_ASSERT_EXIT
 136:/home/hkh/git/eapidk-code-r76-trunk/apps/EeePProg/linux/../CfgParser.c ****   return StatusCode;
 137:/home/hkh/git/eapidk-code-r76-trunk/apps/EeePProg/linux/../CfgParser.c **** }
 401              		.loc 1 137 1 view .LVU78
 402 0274 9C339FE5 		ldr	r3, .L64+4
  68:/home/hkh/git/eapidk-code-r76-trunk/apps/EeePProg/linux/../CfgParser.c ****   EApiStatus_t StatusCode=EAPI_STATUS_SUCCESS;
 403              		.loc 1 68 1 view .LVU79
 404              	.LPIC64:
 405 0278 02208FE0 		add	r2, pc, r2
 406              		.loc 1 137 1 view .LVU80
 407 027c 033092E7 		ldr	r3, [r2, r3]
 408 0280 002093E5 		ldr	r2, [r3]
 409 0284 34389DE5 		ldr	r3, [sp, #2100]
 410 0288 022033E0 		eors	r2, r3, r2
 411 028c 0030A0E3 		mov	r3, #0
 412 0290 DE00001A 		bne	.L61
 413 0294 0500A0E1 		mov	r0, r5
 414 0298 83DE8DE2 		add	sp, sp, #2096
 415 029c 0CD08DE2 		add	sp, sp, #12
 416              		.cfi_remember_state
 417              		.cfi_def_cfa_offset 36
 418              		@ sp needed
 419 02a0 F08FBDE8 		pop	{r4, r5, r6, r7, r8, r9, r10, fp, pc}
 420              	.LVL25:
 421              	.L5:
 422              		.cfi_restore_state
  87:/home/hkh/git/eapidk-code-r76-trunk/apps/EeePProg/linux/../CfgParser.c ****           EApiSprintfA(szBuffer, ARRAY_SIZE(szBuffer), BlockOpen, pCfgBDesc->Block.pszBlockName);
 423              		.loc 1 87 9 is_stmt 1 view .LVU81
  87:/home/hkh/git/eapidk-code-r76-trunk/apps/EeePProg/linux/../CfgParser.c ****           EApiSprintfA(szBuffer, ARRAY_SIZE(szBuffer), BlockOpen, pCfgBDesc->Block.pszBlockName);
 424              		.loc 1 87 11 is_stmt 0 view .LVU82
ARM GAS  /tmp/ccWSR0Wc.s 			page 13


 425 02a4 2C3014E5 		ldr	r3, [r4, #-44]
 426 02a8 000053E3 		cmp	r3, #0
 427 02ac 0E00001A 		bne	.L62
 428              	.LVL26:
 429              	.L7:
 133:/home/hkh/git/eapidk-code-r76-trunk/apps/EeePProg/linux/../CfgParser.c ****   }
 430              		.loc 1 133 5 is_stmt 1 view .LVU83
  84:/home/hkh/git/eapidk-code-r76-trunk/apps/EeePProg/linux/../CfgParser.c ****     switch(pCfgBDesc->Gen.NodeType){
 431              		.loc 1 84 9 view .LVU84
  84:/home/hkh/git/eapidk-code-r76-trunk/apps/EeePProg/linux/../CfgParser.c ****     switch(pCfgBDesc->Gen.NodeType){
 432              		.loc 1 84 27 is_stmt 0 view .LVU85
 433 02b0 10309DE5 		ldr	r3, [sp, #16]
  84:/home/hkh/git/eapidk-code-r76-trunk/apps/EeePProg/linux/../CfgParser.c ****     switch(pCfgBDesc->Gen.NodeType){
 434              		.loc 1 84 9 view .LVU86
 435 02b4 384084E2 		add	r4, r4, #56
 436              	.LVL27:
  84:/home/hkh/git/eapidk-code-r76-trunk/apps/EeePProg/linux/../CfgParser.c ****     switch(pCfgBDesc->Gen.NodeType){
 437              		.loc 1 84 27 view .LVU87
 438 02b8 013043E2 		sub	r3, r3, #1
  84:/home/hkh/git/eapidk-code-r76-trunk/apps/EeePProg/linux/../CfgParser.c ****     switch(pCfgBDesc->Gen.NodeType){
 439              		.loc 1 84 9 view .LVU88
 440 02bc 010073E3 		cmn	r3, #1
  84:/home/hkh/git/eapidk-code-r76-trunk/apps/EeePProg/linux/../CfgParser.c ****     switch(pCfgBDesc->Gen.NodeType){
 441              		.loc 1 84 27 view .LVU89
 442 02c0 10308DE5 		str	r3, [sp, #16]
 443              	.LVL28:
  84:/home/hkh/git/eapidk-code-r76-trunk/apps/EeePProg/linux/../CfgParser.c ****     switch(pCfgBDesc->Gen.NodeType){
 444              		.loc 1 84 9 view .LVU90
 445 02c4 73FFFF1A 		bne	.L26
 446              	.L3:
 136:/home/hkh/git/eapidk-code-r76-trunk/apps/EeePProg/linux/../CfgParser.c **** }
 447              		.loc 1 136 3 is_stmt 1 view .LVU91
 135:/home/hkh/git/eapidk-code-r76-trunk/apps/EeePProg/linux/../CfgParser.c ****   return StatusCode;
 448              		.loc 1 135 1 is_stmt 0 view .LVU92
 449 02c8 0050A0E3 		mov	r5, #0
 136:/home/hkh/git/eapidk-code-r76-trunk/apps/EeePProg/linux/../CfgParser.c **** }
 450              		.loc 1 136 10 view .LVU93
 451 02cc E7FFFFEA 		b	.L1
 452              	.LVL29:
 453              	.L35:
  98:/home/hkh/git/eapidk-code-r76-trunk/apps/EeePProg/linux/../CfgParser.c ****             "%*s\t\t %s\n", LclDepth, szComment,
 454              		.loc 1 98 9 view .LVU94
 455 02d0 94339FE5 		ldr	r3, .L64+88
 456              	.LPIC3:
 457 02d4 03308FE0 		add	r3, pc, r3
 458 02d8 8EFFFFEA 		b	.L20
 459              	.LVL30:
 460              	.L60:
 128:/home/hkh/git/eapidk-code-r76-trunk/apps/EeePProg/linux/../CfgParser.c ****         break;
 461              		.loc 1 128 9 is_stmt 1 view .LVU95
 462 02dc 0710A0E1 		mov	r1, r7
 463 02e0 0A00A0E3 		mov	r0, #10
 464 02e4 FEFFFFEB 		bl	fputc(PLT)
 465              	.LVL31:
 129:/home/hkh/git/eapidk-code-r76-trunk/apps/EeePProg/linux/../CfgParser.c ****       default:
 466              		.loc 1 129 9 view .LVU96
 467 02e8 F0FFFFEA 		b	.L7
ARM GAS  /tmp/ccWSR0Wc.s 			page 14


 468              	.LVL32:
 469              	.L62:
  88:/home/hkh/git/eapidk-code-r76-trunk/apps/EeePProg/linux/../CfgParser.c ****           DO(PrintStringBlockA(OutStream, szBuffer, 60, (cuiRequired&&pCfgBDesc->Block.cuiRequired?
 470              		.loc 1 88 11 view .LVU97
 471 02ec 34508DE2 		add	r5, sp, #52
 472 02f0 343014E5 		ldr	r3, [r4, #-52]
 473 02f4 18209DE5 		ldr	r2, [sp, #24]
 474 02f8 021BA0E3 		mov	r1, #2048
 475 02fc 0500A0E1 		mov	r0, r5
 476 0300 FEFFFFEB 		bl	EApiSprintfA(PLT)
 477              	.LVL33:
  89:/home/hkh/git/eapidk-code-r76-trunk/apps/EeePProg/linux/../CfgParser.c ****           DO(PrintCfgFile_Sub(pCfgBDesc->Block.Elements.pIndx, pCfgBDesc->Block.Elements.stUsedCnt,
 478              		.loc 1 89 11 view .LVU98
  89:/home/hkh/git/eapidk-code-r76-trunk/apps/EeePProg/linux/../CfgParser.c ****           DO(PrintCfgFile_Sub(pCfgBDesc->Block.Elements.pIndx, pCfgBDesc->Block.Elements.stUsedCnt,
 479              		.loc 1 89 11 view .LVU99
 480 0304 00005BE3 		cmp	fp, #0
 481 0308 2500000A 		beq	.L9
  89:/home/hkh/git/eapidk-code-r76-trunk/apps/EeePProg/linux/../CfgParser.c ****           DO(PrintCfgFile_Sub(pCfgBDesc->Block.Elements.pIndx, pCfgBDesc->Block.Elements.stUsedCnt,
 482              		.loc 1 89 11 is_stmt 0 discriminator 1 view .LVU100
 483 030c 303014E5 		ldr	r3, [r4, #-48]
 484 0310 000053E3 		cmp	r3, #0
 485 0314 5000001A 		bne	.L10
  89:/home/hkh/git/eapidk-code-r76-trunk/apps/EeePProg/linux/../CfgParser.c ****           DO(PrintCfgFile_Sub(pCfgBDesc->Block.Elements.pIndx, pCfgBDesc->Block.Elements.stUsedCnt,
 486              		.loc 1 89 11 view .LVU101
 487 0318 50339FE5 		ldr	r3, .L64+92
 488 031c 00A08DE5 		str	r10, [sp]
 489              	.LPIC63:
 490 0320 03308FE0 		add	r3, pc, r3
 491 0324 04308DE5 		str	r3, [sp, #4]
 492 0328 44339FE5 		ldr	r3, .L64+96
 493              	.LPIC62:
 494 032c 03308FE0 		add	r3, pc, r3
 495              	.L53:
  89:/home/hkh/git/eapidk-code-r76-trunk/apps/EeePProg/linux/../CfgParser.c ****           DO(PrintCfgFile_Sub(pCfgBDesc->Block.Elements.pIndx, pCfgBDesc->Block.Elements.stUsedCnt,
 496              		.loc 1 89 11 view .LVU102
 497 0330 3C20A0E3 		mov	r2, #60
 498 0334 0510A0E1 		mov	r1, r5
 499 0338 0700A0E1 		mov	r0, r7
 500 033c FEFFFFEB 		bl	PrintStringBlockA(PLT)
 501              	.LVL34:
  89:/home/hkh/git/eapidk-code-r76-trunk/apps/EeePProg/linux/../CfgParser.c ****           DO(PrintCfgFile_Sub(pCfgBDesc->Block.Elements.pIndx, pCfgBDesc->Block.Elements.stUsedCnt,
 502              		.loc 1 89 11 is_stmt 1 view .LVU103
 503 0340 000050E3 		cmp	r0, #0
  89:/home/hkh/git/eapidk-code-r76-trunk/apps/EeePProg/linux/../CfgParser.c ****           DO(PrintCfgFile_Sub(pCfgBDesc->Block.Elements.pIndx, pCfgBDesc->Block.Elements.stUsedCnt,
 504              		.loc 1 89 11 is_stmt 0 view .LVU104
 505 0344 A600001A 		bne	.L48
  89:/home/hkh/git/eapidk-code-r76-trunk/apps/EeePProg/linux/../CfgParser.c ****           DO(PrintCfgFile_Sub(pCfgBDesc->Block.Elements.pIndx, pCfgBDesc->Block.Elements.stUsedCnt,
 506              		.loc 1 89 11 is_stmt 1 view .LVU105
  90:/home/hkh/git/eapidk-code-r76-trunk/apps/EeePProg/linux/../CfgParser.c ****           EApiSprintfA(szBuffer, ARRAY_SIZE(szBuffer), BlockClose, pCfgBDesc->Block.pszBlockName);
 507              		.loc 1 90 11 view .LVU106
  90:/home/hkh/git/eapidk-code-r76-trunk/apps/EeePProg/linux/../CfgParser.c ****           EApiSprintfA(szBuffer, ARRAY_SIZE(szBuffer), BlockClose, pCfgBDesc->Block.pszBlockName);
 508              		.loc 1 90 11 view .LVU107
 509 0348 303014E5 		ldr	r3, [r4, #-48]
 510 034c 1C0014E5 		ldr	r0, [r4, #-28]
 511              	.LVL35:
  90:/home/hkh/git/eapidk-code-r76-trunk/apps/EeePProg/linux/../CfgParser.c ****           EApiSprintfA(szBuffer, ARRAY_SIZE(szBuffer), BlockClose, pCfgBDesc->Block.pszBlockName);
 512              		.loc 1 90 11 is_stmt 0 view .LVU108
ARM GAS  /tmp/ccWSR0Wc.s 			page 15


 513 0350 2C1014E5 		ldr	r1, [r4, #-44]
 514 0354 000053E3 		cmp	r3, #0
 515 0358 5500000A 		beq	.L63
 516 035c 20309DE5 		ldr	r3, [sp, #32]
 517 0360 0720A0E1 		mov	r2, r7
 518 0364 00308DE5 		str	r3, [sp]
 519 0368 0130A0E3 		mov	r3, #1
 520 036c FEFFFFEB 		bl	PrintCfgFile_Sub(PLT)
 521              	.LVL36:
  90:/home/hkh/git/eapidk-code-r76-trunk/apps/EeePProg/linux/../CfgParser.c ****           EApiSprintfA(szBuffer, ARRAY_SIZE(szBuffer), BlockClose, pCfgBDesc->Block.pszBlockName);
 522              		.loc 1 90 11 is_stmt 1 view .LVU109
 523 0370 000050E3 		cmp	r0, #0
  90:/home/hkh/git/eapidk-code-r76-trunk/apps/EeePProg/linux/../CfgParser.c ****           EApiSprintfA(szBuffer, ARRAY_SIZE(szBuffer), BlockClose, pCfgBDesc->Block.pszBlockName);
 524              		.loc 1 90 11 is_stmt 0 view .LVU110
 525 0374 6A00001A 		bne	.L49
  90:/home/hkh/git/eapidk-code-r76-trunk/apps/EeePProg/linux/../CfgParser.c ****           EApiSprintfA(szBuffer, ARRAY_SIZE(szBuffer), BlockClose, pCfgBDesc->Block.pszBlockName);
 526              		.loc 1 90 11 is_stmt 1 view .LVU111
  91:/home/hkh/git/eapidk-code-r76-trunk/apps/EeePProg/linux/../CfgParser.c ****           DO(PrintStringBlockA(OutStream, szBuffer, 60, (cuiRequired&&pCfgBDesc->Block.cuiRequired?
 527              		.loc 1 91 11 view .LVU112
 528 0378 343014E5 		ldr	r3, [r4, #-52]
 529 037c 021BA0E3 		mov	r1, #2048
 530 0380 2C209DE5 		ldr	r2, [sp, #44]
 531 0384 0500A0E1 		mov	r0, r5
 532              	.LVL37:
  91:/home/hkh/git/eapidk-code-r76-trunk/apps/EeePProg/linux/../CfgParser.c ****           DO(PrintStringBlockA(OutStream, szBuffer, 60, (cuiRequired&&pCfgBDesc->Block.cuiRequired?
 533              		.loc 1 91 11 is_stmt 0 view .LVU113
 534 0388 FEFFFFEB 		bl	EApiSprintfA(PLT)
 535              	.LVL38:
  92:/home/hkh/git/eapidk-code-r76-trunk/apps/EeePProg/linux/../CfgParser.c ****         }
 536              		.loc 1 92 11 is_stmt 1 view .LVU114
  92:/home/hkh/git/eapidk-code-r76-trunk/apps/EeePProg/linux/../CfgParser.c ****         }
 537              		.loc 1 92 11 view .LVU115
 538              	.L27:
  92:/home/hkh/git/eapidk-code-r76-trunk/apps/EeePProg/linux/../CfgParser.c ****         }
 539              		.loc 1 92 11 is_stmt 0 discriminator 1 view .LVU116
 540 038c 303014E5 		ldr	r3, [r4, #-48]
 541 0390 000053E3 		cmp	r3, #0
 542 0394 5400000A 		beq	.L34
  92:/home/hkh/git/eapidk-code-r76-trunk/apps/EeePProg/linux/../CfgParser.c ****         }
 543              		.loc 1 92 11 view .LVU117
 544 0398 D8329FE5 		ldr	r3, .L64+100
 545              	.LPIC0:
 546 039c 03308FE0 		add	r3, pc, r3
 547 03a0 190000EA 		b	.L17
 548              	.LVL39:
 549              	.L9:
  89:/home/hkh/git/eapidk-code-r76-trunk/apps/EeePProg/linux/../CfgParser.c ****           DO(PrintCfgFile_Sub(pCfgBDesc->Block.Elements.pIndx, pCfgBDesc->Block.Elements.stUsedCnt,
 550              		.loc 1 89 11 discriminator 6 view .LVU118
 551 03a4 D0329FE5 		ldr	r3, .L64+104
 552 03a8 3C20A0E3 		mov	r2, #60
 553 03ac 0510A0E1 		mov	r1, r5
 554 03b0 0700A0E1 		mov	r0, r7
 555 03b4 00A08DE5 		str	r10, [sp]
 556              	.LPIC17:
 557 03b8 03308FE0 		add	r3, pc, r3
 558 03bc 04308DE5 		str	r3, [sp, #4]
 559 03c0 1C309DE5 		ldr	r3, [sp, #28]
ARM GAS  /tmp/ccWSR0Wc.s 			page 16


 560 03c4 FEFFFFEB 		bl	PrintStringBlockA(PLT)
 561              	.LVL40:
  89:/home/hkh/git/eapidk-code-r76-trunk/apps/EeePProg/linux/../CfgParser.c ****           DO(PrintCfgFile_Sub(pCfgBDesc->Block.Elements.pIndx, pCfgBDesc->Block.Elements.stUsedCnt,
 562              		.loc 1 89 11 is_stmt 1 discriminator 6 view .LVU119
 563 03c8 000050E3 		cmp	r0, #0
  89:/home/hkh/git/eapidk-code-r76-trunk/apps/EeePProg/linux/../CfgParser.c ****           DO(PrintCfgFile_Sub(pCfgBDesc->Block.Elements.pIndx, pCfgBDesc->Block.Elements.stUsedCnt,
 564              		.loc 1 89 11 is_stmt 0 discriminator 6 view .LVU120
 565 03cc 8400001A 		bne	.L48
  89:/home/hkh/git/eapidk-code-r76-trunk/apps/EeePProg/linux/../CfgParser.c ****           DO(PrintCfgFile_Sub(pCfgBDesc->Block.Elements.pIndx, pCfgBDesc->Block.Elements.stUsedCnt,
 566              		.loc 1 89 11 is_stmt 1 discriminator 8 view .LVU121
  90:/home/hkh/git/eapidk-code-r76-trunk/apps/EeePProg/linux/../CfgParser.c ****           EApiSprintfA(szBuffer, ARRAY_SIZE(szBuffer), BlockClose, pCfgBDesc->Block.pszBlockName);
 567              		.loc 1 90 11 discriminator 8 view .LVU122
  90:/home/hkh/git/eapidk-code-r76-trunk/apps/EeePProg/linux/../CfgParser.c ****           EApiSprintfA(szBuffer, ARRAY_SIZE(szBuffer), BlockClose, pCfgBDesc->Block.pszBlockName);
 568              		.loc 1 90 11 discriminator 8 view .LVU123
 569 03d0 20309DE5 		ldr	r3, [sp, #32]
 570 03d4 0720A0E1 		mov	r2, r7
 571 03d8 2C1014E5 		ldr	r1, [r4, #-44]
 572 03dc 1C0014E5 		ldr	r0, [r4, #-28]
 573              	.LVL41:
  90:/home/hkh/git/eapidk-code-r76-trunk/apps/EeePProg/linux/../CfgParser.c ****           EApiSprintfA(szBuffer, ARRAY_SIZE(szBuffer), BlockClose, pCfgBDesc->Block.pszBlockName);
 574              		.loc 1 90 11 is_stmt 0 discriminator 8 view .LVU124
 575 03e0 00308DE5 		str	r3, [sp]
 576 03e4 0B30A0E1 		mov	r3, fp
 577 03e8 FEFFFFEB 		bl	PrintCfgFile_Sub(PLT)
 578              	.LVL42:
  90:/home/hkh/git/eapidk-code-r76-trunk/apps/EeePProg/linux/../CfgParser.c ****           EApiSprintfA(szBuffer, ARRAY_SIZE(szBuffer), BlockClose, pCfgBDesc->Block.pszBlockName);
 579              		.loc 1 90 11 is_stmt 1 discriminator 8 view .LVU125
 580 03ec 000050E3 		cmp	r0, #0
  90:/home/hkh/git/eapidk-code-r76-trunk/apps/EeePProg/linux/../CfgParser.c ****           EApiSprintfA(szBuffer, ARRAY_SIZE(szBuffer), BlockClose, pCfgBDesc->Block.pszBlockName);
 581              		.loc 1 90 11 is_stmt 0 discriminator 8 view .LVU126
 582 03f0 4B00001A 		bne	.L49
  90:/home/hkh/git/eapidk-code-r76-trunk/apps/EeePProg/linux/../CfgParser.c ****           EApiSprintfA(szBuffer, ARRAY_SIZE(szBuffer), BlockClose, pCfgBDesc->Block.pszBlockName);
 583              		.loc 1 90 11 is_stmt 1 view .LVU127
  91:/home/hkh/git/eapidk-code-r76-trunk/apps/EeePProg/linux/../CfgParser.c ****           DO(PrintStringBlockA(OutStream, szBuffer, 60, (cuiRequired&&pCfgBDesc->Block.cuiRequired?
 584              		.loc 1 91 11 view .LVU128
 585 03f4 343014E5 		ldr	r3, [r4, #-52]
 586 03f8 021BA0E3 		mov	r1, #2048
 587 03fc 28209DE5 		ldr	r2, [sp, #40]
 588 0400 0500A0E1 		mov	r0, r5
 589              	.LVL43:
  91:/home/hkh/git/eapidk-code-r76-trunk/apps/EeePProg/linux/../CfgParser.c ****           DO(PrintStringBlockA(OutStream, szBuffer, 60, (cuiRequired&&pCfgBDesc->Block.cuiRequired?
 590              		.loc 1 91 11 is_stmt 0 view .LVU129
 591 0404 FEFFFFEB 		bl	EApiSprintfA(PLT)
 592              	.LVL44:
  92:/home/hkh/git/eapidk-code-r76-trunk/apps/EeePProg/linux/../CfgParser.c ****         }
 593              		.loc 1 92 11 is_stmt 1 view .LVU130
  92:/home/hkh/git/eapidk-code-r76-trunk/apps/EeePProg/linux/../CfgParser.c ****         }
 594              		.loc 1 92 11 view .LVU131
 595 0408 1C309DE5 		ldr	r3, [sp, #28]
 596              	.L17:
  92:/home/hkh/git/eapidk-code-r76-trunk/apps/EeePProg/linux/../CfgParser.c ****         }
 597              		.loc 1 92 11 is_stmt 0 discriminator 6 view .LVU132
 598 040c 24209DE5 		ldr	r2, [sp, #36]
 599 0410 0510A0E1 		mov	r1, r5
 600 0414 0700A0E1 		mov	r0, r7
 601 0418 00A08DE5 		str	r10, [sp]
 602 041c 04208DE5 		str	r2, [sp, #4]
ARM GAS  /tmp/ccWSR0Wc.s 			page 17


 603 0420 3C20A0E3 		mov	r2, #60
 604 0424 FEFFFFEB 		bl	PrintStringBlockA(PLT)
 605              	.LVL45:
  92:/home/hkh/git/eapidk-code-r76-trunk/apps/EeePProg/linux/../CfgParser.c ****         }
 606              		.loc 1 92 11 is_stmt 1 discriminator 6 view .LVU133
 607 0428 000050E3 		cmp	r0, #0
  92:/home/hkh/git/eapidk-code-r76-trunk/apps/EeePProg/linux/../CfgParser.c ****         }
 608              		.loc 1 92 11 is_stmt 0 discriminator 6 view .LVU134
 609 042c 9FFFFF0A 		beq	.L7
  92:/home/hkh/git/eapidk-code-r76-trunk/apps/EeePProg/linux/../CfgParser.c ****         }
 610              		.loc 1 92 11 is_stmt 1 discriminator 7 view .LVU135
 611 0430 48C29FE5 		ldr	ip, .L64+108
 612 0434 0050A0E1 		mov	r5, r0
 613 0438 44229FE5 		ldr	r2, .L64+112
 614 043c 5C30A0E3 		mov	r3, #92
 615 0440 40029FE5 		ldr	r0, .L64+116
 616              	.LVL46:
  92:/home/hkh/git/eapidk-code-r76-trunk/apps/EeePProg/linux/../CfgParser.c ****         }
 617              		.loc 1 92 11 is_stmt 0 discriminator 7 view .LVU136
 618 0444 40129FE5 		ldr	r1, .L64+120
 619              	.LPIC30:
 620 0448 0CC08FE0 		add	ip, pc, ip
 621              	.LPIC28:
 622 044c 02208FE0 		add	r2, pc, r2
 623              	.LPIC31:
 624 0450 00008FE0 		add	r0, pc, r0
 625              	.LPIC29:
 626 0454 01108FE0 		add	r1, pc, r1
 627 0458 80FFFFEA 		b	.L51
 628              	.LVL47:
 629              	.L10:
  89:/home/hkh/git/eapidk-code-r76-trunk/apps/EeePProg/linux/../CfgParser.c ****           DO(PrintCfgFile_Sub(pCfgBDesc->Block.Elements.pIndx, pCfgBDesc->Block.Elements.stUsedCnt,
 630              		.loc 1 89 11 view .LVU137
 631 045c 2C329FE5 		ldr	r3, .L64+124
 632 0460 00A08DE5 		str	r10, [sp]
 633              	.LPIC60:
 634 0464 03308FE0 		add	r3, pc, r3
 635 0468 04308DE5 		str	r3, [sp, #4]
 636 046c 20329FE5 		ldr	r3, .L64+128
 637              	.LPIC59:
 638 0470 03308FE0 		add	r3, pc, r3
 639 0474 ADFFFFEA 		b	.L53
 640              	.LVL48:
 641              	.L56:
  78:/home/hkh/git/eapidk-code-r76-trunk/apps/EeePProg/linux/../CfgParser.c ****       PrintCfgFile_Sub,
 642              		.loc 1 78 3 is_stmt 1 discriminator 1 view .LVU138
  78:/home/hkh/git/eapidk-code-r76-trunk/apps/EeePProg/linux/../CfgParser.c ****       PrintCfgFile_Sub,
 643              		.loc 1 78 3 discriminator 1 view .LVU139
 644 0478 18C29FE5 		ldr	ip, .L64+132
 645 047c 015CE0E3 		mvn	r5, #256
 646 0480 14029FE5 		ldr	r0, .L64+136
 647              	.LVL49:
  78:/home/hkh/git/eapidk-code-r76-trunk/apps/EeePProg/linux/../CfgParser.c ****       PrintCfgFile_Sub,
 648              		.loc 1 78 3 is_stmt 0 discriminator 1 view .LVU140
 649 0484 4E30A0E3 		mov	r3, #78
 650 0488 10229FE5 		ldr	r2, .L64+140
 651 048c 10129FE5 		ldr	r1, .L64+144
ARM GAS  /tmp/ccWSR0Wc.s 			page 18


 652              	.LVL50:
  78:/home/hkh/git/eapidk-code-r76-trunk/apps/EeePProg/linux/../CfgParser.c ****       PrintCfgFile_Sub,
 653              		.loc 1 78 3 discriminator 1 view .LVU141
 654              	.LPIC13:
 655 0490 0CC08FE0 		add	ip, pc, ip
 656              	.LPIC14:
 657 0494 00008FE0 		add	r0, pc, r0
 658              	.LPIC11:
 659 0498 02208FE0 		add	r2, pc, r2
 660              	.LPIC12:
 661 049c 01108FE0 		add	r1, pc, r1
 662              	.L50:
 663 04a0 01108DE9 		stmib	sp, {r0, ip}
 664 04a4 4500A0E3 		mov	r0, #69
 665 04a8 00508DE5 		str	r5, [sp]
 666 04ac FEFFFFEB 		bl	siFormattedMessage_SC(PLT)
 667              	.LVL51:
  78:/home/hkh/git/eapidk-code-r76-trunk/apps/EeePProg/linux/../CfgParser.c ****       PrintCfgFile_Sub,
 668              		.loc 1 78 3 is_stmt 1 discriminator 1 view .LVU142
  78:/home/hkh/git/eapidk-code-r76-trunk/apps/EeePProg/linux/../CfgParser.c ****       PrintCfgFile_Sub,
 669              		.loc 1 78 3 discriminator 1 view .LVU143
  78:/home/hkh/git/eapidk-code-r76-trunk/apps/EeePProg/linux/../CfgParser.c ****       PrintCfgFile_Sub,
 670              		.loc 1 78 3 discriminator 1 view .LVU144
 671 04b0 6EFFFFEA 		b	.L1
 672              	.LVL52:
 673              	.L63:
  90:/home/hkh/git/eapidk-code-r76-trunk/apps/EeePProg/linux/../CfgParser.c ****           EApiSprintfA(szBuffer, ARRAY_SIZE(szBuffer), BlockClose, pCfgBDesc->Block.pszBlockName);
 674              		.loc 1 90 11 is_stmt 0 discriminator 4 view .LVU145
 675 04b4 20209DE5 		ldr	r2, [sp, #32]
 676 04b8 00208DE5 		str	r2, [sp]
 677 04bc 0720A0E1 		mov	r2, r7
 678 04c0 FEFFFFEB 		bl	PrintCfgFile_Sub(PLT)
 679              	.LVL53:
  90:/home/hkh/git/eapidk-code-r76-trunk/apps/EeePProg/linux/../CfgParser.c ****           EApiSprintfA(szBuffer, ARRAY_SIZE(szBuffer), BlockClose, pCfgBDesc->Block.pszBlockName);
 680              		.loc 1 90 11 is_stmt 1 discriminator 4 view .LVU146
 681 04c4 000050E3 		cmp	r0, #0
  90:/home/hkh/git/eapidk-code-r76-trunk/apps/EeePProg/linux/../CfgParser.c ****           EApiSprintfA(szBuffer, ARRAY_SIZE(szBuffer), BlockClose, pCfgBDesc->Block.pszBlockName);
 682              		.loc 1 90 11 is_stmt 0 discriminator 4 view .LVU147
 683 04c8 1500001A 		bne	.L49
  90:/home/hkh/git/eapidk-code-r76-trunk/apps/EeePProg/linux/../CfgParser.c ****           EApiSprintfA(szBuffer, ARRAY_SIZE(szBuffer), BlockClose, pCfgBDesc->Block.pszBlockName);
 684              		.loc 1 90 11 is_stmt 1 discriminator 8 view .LVU148
  91:/home/hkh/git/eapidk-code-r76-trunk/apps/EeePProg/linux/../CfgParser.c ****           DO(PrintStringBlockA(OutStream, szBuffer, 60, (cuiRequired&&pCfgBDesc->Block.cuiRequired?
 685              		.loc 1 91 11 discriminator 8 view .LVU149
 686 04cc D4219FE5 		ldr	r2, .L64+148
 687 04d0 021BA0E3 		mov	r1, #2048
 688 04d4 343014E5 		ldr	r3, [r4, #-52]
 689 04d8 0500A0E1 		mov	r0, r5
 690              	.LVL54:
  91:/home/hkh/git/eapidk-code-r76-trunk/apps/EeePProg/linux/../CfgParser.c ****           DO(PrintStringBlockA(OutStream, szBuffer, 60, (cuiRequired&&pCfgBDesc->Block.cuiRequired?
 691              		.loc 1 91 11 is_stmt 0 discriminator 8 view .LVU150
 692              	.LPIC26:
 693 04dc 02208FE0 		add	r2, pc, r2
 694 04e0 082082E2 		add	r2, r2, #8
 695 04e4 FEFFFFEB 		bl	EApiSprintfA(PLT)
 696              	.LVL55:
  92:/home/hkh/git/eapidk-code-r76-trunk/apps/EeePProg/linux/../CfgParser.c ****         }
 697              		.loc 1 92 11 is_stmt 1 discriminator 8 view .LVU151
ARM GAS  /tmp/ccWSR0Wc.s 			page 19


  92:/home/hkh/git/eapidk-code-r76-trunk/apps/EeePProg/linux/../CfgParser.c ****         }
 698              		.loc 1 92 11 discriminator 8 view .LVU152
 699 04e8 A7FFFFEA 		b	.L27
 700              	.L34:
  92:/home/hkh/git/eapidk-code-r76-trunk/apps/EeePProg/linux/../CfgParser.c ****         }
 701              		.loc 1 92 11 is_stmt 0 view .LVU153
 702 04ec B8319FE5 		ldr	r3, .L64+152
 703              	.LPIC2:
 704 04f0 03308FE0 		add	r3, pc, r3
 705 04f4 C4FFFFEA 		b	.L17
 706              	.LVL56:
 707              	.L55:
  73:/home/hkh/git/eapidk-code-r76-trunk/apps/EeePProg/linux/../CfgParser.c ****       PrintCfgFile_Sub,
 708              		.loc 1 73 3 is_stmt 1 discriminator 1 view .LVU154
  73:/home/hkh/git/eapidk-code-r76-trunk/apps/EeePProg/linux/../CfgParser.c ****       PrintCfgFile_Sub,
 709              		.loc 1 73 3 discriminator 1 view .LVU155
 710 04f8 B0C19FE5 		ldr	ip, .L64+156
 711 04fc 015CE0E3 		mvn	r5, #256
 712 0500 AC019FE5 		ldr	r0, .L64+160
 713              	.LVL57:
  73:/home/hkh/git/eapidk-code-r76-trunk/apps/EeePProg/linux/../CfgParser.c ****       PrintCfgFile_Sub,
 714              		.loc 1 73 3 is_stmt 0 discriminator 1 view .LVU156
 715 0504 4930A0E3 		mov	r3, #73
 716 0508 A8219FE5 		ldr	r2, .L64+164
 717 050c A8119FE5 		ldr	r1, .L64+168
 718              	.LVL58:
  73:/home/hkh/git/eapidk-code-r76-trunk/apps/EeePProg/linux/../CfgParser.c ****       PrintCfgFile_Sub,
 719              		.loc 1 73 3 discriminator 1 view .LVU157
 720              	.LPIC9:
 721 0510 0CC08FE0 		add	ip, pc, ip
 722              	.LPIC10:
 723 0514 00008FE0 		add	r0, pc, r0
 724              	.LPIC7:
 725 0518 02208FE0 		add	r2, pc, r2
 726              	.LPIC8:
 727 051c 01108FE0 		add	r1, pc, r1
 728 0520 DEFFFFEA 		b	.L50
 729              	.LVL59:
 730              	.L49:
  90:/home/hkh/git/eapidk-code-r76-trunk/apps/EeePProg/linux/../CfgParser.c ****           EApiSprintfA(szBuffer, ARRAY_SIZE(szBuffer), BlockClose, pCfgBDesc->Block.pszBlockName);
 731              		.loc 1 90 11 is_stmt 1 view .LVU158
 732 0524 94C19FE5 		ldr	ip, .L64+172
 733 0528 0050A0E1 		mov	r5, r0
 734 052c 90219FE5 		ldr	r2, .L64+176
 735 0530 5A30A0E3 		mov	r3, #90
 736 0534 8C019FE5 		ldr	r0, .L64+180
 737              	.LVL60:
  90:/home/hkh/git/eapidk-code-r76-trunk/apps/EeePProg/linux/../CfgParser.c ****           EApiSprintfA(szBuffer, ARRAY_SIZE(szBuffer), BlockClose, pCfgBDesc->Block.pszBlockName);
 738              		.loc 1 90 11 is_stmt 0 view .LVU159
 739 0538 8C119FE5 		ldr	r1, .L64+184
 740              	.LPIC24:
 741 053c 0CC08FE0 		add	ip, pc, ip
 742              	.LPIC22:
 743 0540 02208FE0 		add	r2, pc, r2
 744              	.LPIC25:
 745 0544 00008FE0 		add	r0, pc, r0
 746              	.LPIC23:
ARM GAS  /tmp/ccWSR0Wc.s 			page 20


 747 0548 01108FE0 		add	r1, pc, r1
 748 054c 43FFFFEA 		b	.L51
 749              	.LVL61:
 750              	.L57:
  97:/home/hkh/git/eapidk-code-r76-trunk/apps/EeePProg/linux/../CfgParser.c ****         fprintf(OutStream, 
 751              		.loc 1 97 9 is_stmt 1 discriminator 1 view .LVU160
 752 0550 78C19FE5 		ldr	ip, .L64+188
 753 0554 0050A0E1 		mov	r5, r0
 754 0558 74219FE5 		ldr	r2, .L64+192
 755 055c 6130A0E3 		mov	r3, #97
 756 0560 70019FE5 		ldr	r0, .L64+196
 757              	.LVL62:
  97:/home/hkh/git/eapidk-code-r76-trunk/apps/EeePProg/linux/../CfgParser.c ****         fprintf(OutStream, 
 758              		.loc 1 97 9 is_stmt 0 discriminator 1 view .LVU161
 759 0564 70119FE5 		ldr	r1, .L64+200
 760              	.LPIC37:
 761 0568 0CC08FE0 		add	ip, pc, ip
 762              	.LPIC35:
 763 056c 02208FE0 		add	r2, pc, r2
 764              	.LPIC38:
 765 0570 00008FE0 		add	r0, pc, r0
 766              	.LPIC36:
 767 0574 01108FE0 		add	r1, pc, r1
 768 0578 38FFFFEA 		b	.L51
 769              	.LVL63:
 770              	.L58:
 106:/home/hkh/git/eapidk-code-r76-trunk/apps/EeePProg/linux/../CfgParser.c ****               &pCfgBDesc->Element, 
 771              		.loc 1 106 9 is_stmt 1 discriminator 1 view .LVU162
 772 057c 5CC19FE5 		ldr	ip, .L64+204
 773 0580 0050A0E1 		mov	r5, r0
 774 0584 58219FE5 		ldr	r2, .L64+208
 775 0588 6A30A0E3 		mov	r3, #106
 776 058c 54019FE5 		ldr	r0, .L64+212
 777              	.LVL64:
 106:/home/hkh/git/eapidk-code-r76-trunk/apps/EeePProg/linux/../CfgParser.c ****               &pCfgBDesc->Element, 
 778              		.loc 1 106 9 is_stmt 0 discriminator 1 view .LVU163
 779 0590 54119FE5 		ldr	r1, .L64+216
 780              	.LPIC45:
 781 0594 0CC08FE0 		add	ip, pc, ip
 782              	.LPIC43:
 783 0598 02208FE0 		add	r2, pc, r2
 784              	.LPIC46:
 785 059c 00008FE0 		add	r0, pc, r0
 786              	.LPIC44:
 787 05a0 01108FE0 		add	r1, pc, r1
 788 05a4 2DFFFFEA 		b	.L51
 789              	.LVL65:
 790              	.L59:
 111:/home/hkh/git/eapidk-code-r76-trunk/apps/EeePProg/linux/../CfgParser.c ****               szBuffer,
 791              		.loc 1 111 9 is_stmt 1 discriminator 1 view .LVU164
 792 05a8 40C19FE5 		ldr	ip, .L64+220
 793 05ac 6F30A0E3 		mov	r3, #111
 794 05b0 3C019FE5 		ldr	r0, .L64+224
 795              	.LVL66:
 111:/home/hkh/git/eapidk-code-r76-trunk/apps/EeePProg/linux/../CfgParser.c ****               szBuffer,
 796              		.loc 1 111 9 is_stmt 0 discriminator 1 view .LVU165
 797 05b4 0650A0E1 		mov	r5, r6
ARM GAS  /tmp/ccWSR0Wc.s 			page 21


 798 05b8 38219FE5 		ldr	r2, .L64+228
 799 05bc 38119FE5 		ldr	r1, .L64+232
 800              	.LPIC51:
 801 05c0 0CC08FE0 		add	ip, pc, ip
 802              	.LPIC52:
 803 05c4 00008FE0 		add	r0, pc, r0
 804 05c8 00608DE5 		str	r6, [sp]
 805 05cc 01108DE9 		stmib	sp, {r0, ip}
 806              	.LPIC49:
 807 05d0 02208FE0 		add	r2, pc, r2
 808              	.LPIC50:
 809 05d4 01108FE0 		add	r1, pc, r1
 810 05d8 4500A0E3 		mov	r0, #69
 811 05dc FEFFFFEB 		bl	siFormattedMessage_SC(PLT)
 812              	.LVL67:
 111:/home/hkh/git/eapidk-code-r76-trunk/apps/EeePProg/linux/../CfgParser.c ****               szBuffer,
 813              		.loc 1 111 9 is_stmt 1 discriminator 1 view .LVU166
 814 05e0 22FFFFEA 		b	.L1
 815              	.LVL68:
 816              	.L48:
  89:/home/hkh/git/eapidk-code-r76-trunk/apps/EeePProg/linux/../CfgParser.c ****           DO(PrintCfgFile_Sub(pCfgBDesc->Block.Elements.pIndx, pCfgBDesc->Block.Elements.stUsedCnt,
 817              		.loc 1 89 11 view .LVU167
 818 05e4 14C19FE5 		ldr	ip, .L64+236
 819 05e8 0050A0E1 		mov	r5, r0
 820 05ec 10219FE5 		ldr	r2, .L64+240
 821 05f0 5930A0E3 		mov	r3, #89
 822 05f4 0C019FE5 		ldr	r0, .L64+244
 823              	.LVL69:
  89:/home/hkh/git/eapidk-code-r76-trunk/apps/EeePProg/linux/../CfgParser.c ****           DO(PrintCfgFile_Sub(pCfgBDesc->Block.Elements.pIndx, pCfgBDesc->Block.Elements.stUsedCnt,
 824              		.loc 1 89 11 is_stmt 0 view .LVU168
 825 05f8 0C119FE5 		ldr	r1, .L64+248
 826              	.LPIC20:
 827 05fc 0CC08FE0 		add	ip, pc, ip
 828              	.LPIC18:
 829 0600 02208FE0 		add	r2, pc, r2
 830              	.LPIC21:
 831 0604 00008FE0 		add	r0, pc, r0
 832              	.LPIC19:
 833 0608 01108FE0 		add	r1, pc, r1
 834 060c 13FFFFEA 		b	.L51
 835              	.LVL70:
 836              	.L61:
 837              		.loc 1 137 1 view .LVU169
 838 0610 FEFFFFEB 		bl	__stack_chk_fail(PLT)
 839              	.LVL71:
 840              	.L65:
 841              		.align	2
 842              	.L64:
 843 0614 EC050000 		.word	_GLOBAL_OFFSET_TABLE_-(.LPIC65+8)
 844 0618 00000000 		.word	__stack_chk_guard(GOT)
 845 061c B0050000 		.word	.LANCHOR0-(.LPIC58+8)
 846 0620 AC050000 		.word	.LANCHOR0-(.LPIC15+8)
 847 0624 A0050000 		.word	.LC10-(.LPIC27+8)
 848 0628 98050000 		.word	.LC2-(.LPIC16+8)
 849 062c 5C050000 		.word	.LANCHOR0-(.LPIC32+8)
 850 0630 40050000 		.word	.LC10-(.LPIC34+8)
 851 0634 38050000 		.word	.LANCHOR1-(.LPIC33+8)
ARM GAS  /tmp/ccWSR0Wc.s 			page 22


 852 0638 1C050000 		.word	.LC4-(.LPIC4+8)
 853 063c 04050000 		.word	.LANCHOR1-(.LPIC39+8)
 854 0640 00050000 		.word	.LC15-(.LPIC40+8)
 855 0644 E0040000 		.word	.LC16-(.LPIC42+8)
 856 0648 AC040000 		.word	.LC10-(.LPIC48+8)
 857 064c 84040000 		.word	.LC2-(.LPIC6+8)
 858 0650 80040000 		.word	.LC1-(.LPIC5+8)
 859 0654 7C040000 		.word	.LC19-(.LPIC53+8)
 860 0658 00040000 		.word	.LC20-(.LPIC56+8)
 861 065c 00040000 		.word	.LC11-(.LPIC54+8)
 862 0660 00040000 		.word	.LC8-(.LPIC57+8)
 863 0664 00040000 		.word	.LC6-(.LPIC55+8)
 864 0668 E8030000 		.word	_GLOBAL_OFFSET_TABLE_-(.LPIC64+8)
 865 066c 90030000 		.word	.LC3-(.LPIC3+8)
 866 0670 48030000 		.word	.LC10-(.LPIC63+8)
 867 0674 40030000 		.word	.LC2-(.LPIC62+8)
 868 0678 D4020000 		.word	.LC1-(.LPIC0+8)
 869 067c BC020000 		.word	.LC10-(.LPIC17+8)
 870 0680 30020000 		.word	.LC12-(.LPIC30+8)
 871 0684 30020000 		.word	.LC11-(.LPIC28+8)
 872 0688 30020000 		.word	.LC8-(.LPIC31+8)
 873 068c 30020000 		.word	.LC6-(.LPIC29+8)
 874 0690 24020000 		.word	.LC10-(.LPIC60+8)
 875 0694 1C020000 		.word	.LC1-(.LPIC59+8)
 876 0698 00020000 		.word	.LC9-(.LPIC13+8)
 877 069c 00020000 		.word	.LC8-(.LPIC14+8)
 878 06a0 00020000 		.word	.LC5-(.LPIC11+8)
 879 06a4 00020000 		.word	.LC6-(.LPIC12+8)
 880 06a8 C4010000 		.word	.LANCHOR0-(.LPIC26+8)
 881 06ac B4010000 		.word	.LC2-(.LPIC2+8)
 882 06b0 98010000 		.word	.LC7-(.LPIC9+8)
 883 06b4 98010000 		.word	.LC8-(.LPIC10+8)
 884 06b8 98010000 		.word	.LC5-(.LPIC7+8)
 885 06bc 98010000 		.word	.LC6-(.LPIC8+8)
 886 06c0 7C010000 		.word	.LC13-(.LPIC24+8)
 887 06c4 7C010000 		.word	.LC11-(.LPIC22+8)
 888 06c8 7C010000 		.word	.LC8-(.LPIC25+8)
 889 06cc 7C010000 		.word	.LC6-(.LPIC23+8)
 890 06d0 60010000 		.word	.LC14-(.LPIC37+8)
 891 06d4 60010000 		.word	.LC11-(.LPIC35+8)
 892 06d8 60010000 		.word	.LC8-(.LPIC38+8)
 893 06dc 60010000 		.word	.LC6-(.LPIC36+8)
 894 06e0 44010000 		.word	.LC17-(.LPIC45+8)
 895 06e4 44010000 		.word	.LC11-(.LPIC43+8)
 896 06e8 44010000 		.word	.LC8-(.LPIC46+8)
 897 06ec 44010000 		.word	.LC6-(.LPIC44+8)
 898 06f0 28010000 		.word	.LC18-(.LPIC51+8)
 899 06f4 28010000 		.word	.LC8-(.LPIC52+8)
 900 06f8 20010000 		.word	.LC11-(.LPIC49+8)
 901 06fc 20010000 		.word	.LC6-(.LPIC50+8)
 902 0700 FC000000 		.word	.LC12-(.LPIC20+8)
 903 0704 FC000000 		.word	.LC11-(.LPIC18+8)
 904 0708 FC000000 		.word	.LC8-(.LPIC21+8)
 905 070c FC000000 		.word	.LC6-(.LPIC19+8)
 906              		.cfi_endproc
 907              	.LFE1:
 909              		.section	.rodata.str1.4
ARM GAS  /tmp/ccWSR0Wc.s 			page 23


 910 034d 000000   		.align	2
 911              	.LC21:
 912 0350 5072696E 		.ascii	"PrintCfgFile\000"
 912      74436667 
 912      46696C65 
 912      00
 913 035d 000000   		.align	2
 914              	.LC22:
 915 0360 5072696E 		.ascii	"PrintCfgFile_Sub((CfgNodeGen_t*)pCfgBDesc, stCfgBDe"
 915      74436667 
 915      46696C65 
 915      5F537562 
 915      28284366 
 916 0393 7363456C 		.ascii	"scElements, OutStream, 1, 0)\000"
 916      656D656E 
 916      74732C20 
 916      4F757453 
 916      74726561 
 917              		.text
 918              		.align	2
 919              		.global	PrintCfgFile
 920              		.syntax unified
 921              		.arm
 922              		.fpu vfpv3
 924              	PrintCfgFile:
 925              	.LVL72:
 926              	.LFB2:
 138:/home/hkh/git/eapidk-code-r76-trunk/apps/EeePProg/linux/../CfgParser.c **** EApiStatus_t
 139:/home/hkh/git/eapidk-code-r76-trunk/apps/EeePProg/linux/../CfgParser.c **** PrintCfgFile(
 140:/home/hkh/git/eapidk-code-r76-trunk/apps/EeePProg/linux/../CfgParser.c ****     __IN    CfgBlockDesc_t *pCfgBDesc         ,
 141:/home/hkh/git/eapidk-code-r76-trunk/apps/EeePProg/linux/../CfgParser.c ****     __IN    size_t         stCfgBDescElements ,
 142:/home/hkh/git/eapidk-code-r76-trunk/apps/EeePProg/linux/../CfgParser.c ****     __OUT   FILE *         OutStream
 143:/home/hkh/git/eapidk-code-r76-trunk/apps/EeePProg/linux/../CfgParser.c ****     )
 144:/home/hkh/git/eapidk-code-r76-trunk/apps/EeePProg/linux/../CfgParser.c **** {
 927              		.loc 1 144 1 is_stmt 1 view -0
 928              		.cfi_startproc
 929              		@ args = 0, pretend = 0, frame = 0
 930              		@ frame_needed = 0, uses_anonymous_args = 0
 145:/home/hkh/git/eapidk-code-r76-trunk/apps/EeePProg/linux/../CfgParser.c ****   EApiStatus_t StatusCode=EAPI_STATUS_SUCCESS;
 931              		.loc 1 145 3 view .LVU171
 146:/home/hkh/git/eapidk-code-r76-trunk/apps/EeePProg/linux/../CfgParser.c ****   EAPI_APP_ASSERT_PARAMATER_NULL(
 932              		.loc 1 146 3 view .LVU172
 933 0710 000050E3 		cmp	r0, #0
 144:/home/hkh/git/eapidk-code-r76-trunk/apps/EeePProg/linux/../CfgParser.c ****   EApiStatus_t StatusCode=EAPI_STATUS_SUCCESS;
 934              		.loc 1 144 1 is_stmt 0 view .LVU173
 935 0714 10402DE9 		push	{r4, lr}
 936              		.cfi_def_cfa_offset 8
 937              		.cfi_offset 4, -8
 938              		.cfi_offset 14, -4
 939 0718 10D04DE2 		sub	sp, sp, #16
 940              		.cfi_def_cfa_offset 24
 941              		.loc 1 146 3 view .LVU174
 942 071c 2B00000A 		beq	.L75
 943              		.loc 1 146 3 is_stmt 1 discriminator 2 view .LVU175
 147:/home/hkh/git/eapidk-code-r76-trunk/apps/EeePProg/linux/../CfgParser.c ****       PrintCfgFile,
 148:/home/hkh/git/eapidk-code-r76-trunk/apps/EeePProg/linux/../CfgParser.c ****       EAPI_STATUS_INVALID_PARAMETER,
 149:/home/hkh/git/eapidk-code-r76-trunk/apps/EeePProg/linux/../CfgParser.c ****       pCfgBDesc
ARM GAS  /tmp/ccWSR0Wc.s 			page 24


 150:/home/hkh/git/eapidk-code-r76-trunk/apps/EeePProg/linux/../CfgParser.c ****     );
 944              		.loc 1 150 6 discriminator 2 view .LVU176
 151:/home/hkh/git/eapidk-code-r76-trunk/apps/EeePProg/linux/../CfgParser.c ****   EAPI_APP_ASSERT_PARAMATER_ZERO(
 945              		.loc 1 151 3 discriminator 2 view .LVU177
 946 0720 000051E3 		cmp	r1, #0
 947 0724 0800000A 		beq	.L76
 948              		.loc 1 151 3 discriminator 2 view .LVU178
 152:/home/hkh/git/eapidk-code-r76-trunk/apps/EeePProg/linux/../CfgParser.c ****       PrintCfgFile,
 153:/home/hkh/git/eapidk-code-r76-trunk/apps/EeePProg/linux/../CfgParser.c ****       EAPI_STATUS_INVALID_PARAMETER,
 154:/home/hkh/git/eapidk-code-r76-trunk/apps/EeePProg/linux/../CfgParser.c ****       stCfgBDescElements
 155:/home/hkh/git/eapidk-code-r76-trunk/apps/EeePProg/linux/../CfgParser.c ****     );
 949              		.loc 1 155 6 discriminator 2 view .LVU179
 156:/home/hkh/git/eapidk-code-r76-trunk/apps/EeePProg/linux/../CfgParser.c ****   DO(PrintCfgFile_Sub((CfgNodeGen_t*)pCfgBDesc, stCfgBDescElements, OutStream, 1, 0));
 950              		.loc 1 156 3 discriminator 2 view .LVU180
 951              		.loc 1 156 3 discriminator 2 view .LVU181
 952 0728 00C0A0E3 		mov	ip, #0
 953 072c 0130A0E3 		mov	r3, #1
 954 0730 00C08DE5 		str	ip, [sp]
 955 0734 FEFFFFEB 		bl	PrintCfgFile_Sub(PLT)
 956              	.LVL73:
 957              		.loc 1 156 3 discriminator 2 view .LVU182
 958 0738 004050E2 		subs	r4, r0, #0
 959 073c 1300001A 		bne	.L77
 157:/home/hkh/git/eapidk-code-r76-trunk/apps/EeePProg/linux/../CfgParser.c **** EAPI_APP_ASSERT_EXIT
 158:/home/hkh/git/eapidk-code-r76-trunk/apps/EeePProg/linux/../CfgParser.c ****   return StatusCode;
 159:/home/hkh/git/eapidk-code-r76-trunk/apps/EeePProg/linux/../CfgParser.c **** }
 960              		.loc 1 159 1 is_stmt 0 view .LVU183
 961 0740 0400A0E1 		mov	r0, r4
 962              		.loc 1 159 1 view .LVU184
 963 0744 10D08DE2 		add	sp, sp, #16
 964              		.cfi_remember_state
 965              		.cfi_def_cfa_offset 8
 966              		@ sp needed
 967 0748 1080BDE8 		pop	{r4, pc}
 968              	.LVL74:
 969              	.L76:
 970              		.cfi_restore_state
 151:/home/hkh/git/eapidk-code-r76-trunk/apps/EeePProg/linux/../CfgParser.c ****       PrintCfgFile,
 971              		.loc 1 151 3 is_stmt 1 discriminator 1 view .LVU185
 151:/home/hkh/git/eapidk-code-r76-trunk/apps/EeePProg/linux/../CfgParser.c ****       PrintCfgFile,
 972              		.loc 1 151 3 discriminator 1 view .LVU186
 973 074c A8C09FE5 		ldr	ip, .L78
 974 0750 014CE0E3 		mvn	r4, #256
 975 0754 A4009FE5 		ldr	r0, .L78+4
 976              	.LVL75:
 151:/home/hkh/git/eapidk-code-r76-trunk/apps/EeePProg/linux/../CfgParser.c ****       PrintCfgFile,
 977              		.loc 1 151 3 is_stmt 0 discriminator 1 view .LVU187
 978 0758 9730A0E3 		mov	r3, #151
 979 075c A0209FE5 		ldr	r2, .L78+8
 980              	.LVL76:
 151:/home/hkh/git/eapidk-code-r76-trunk/apps/EeePProg/linux/../CfgParser.c ****       PrintCfgFile,
 981              		.loc 1 151 3 discriminator 1 view .LVU188
 982 0760 A0109FE5 		ldr	r1, .L78+12
 983              	.LVL77:
 151:/home/hkh/git/eapidk-code-r76-trunk/apps/EeePProg/linux/../CfgParser.c ****       PrintCfgFile,
 984              		.loc 1 151 3 discriminator 1 view .LVU189
 985              	.LPIC72:
ARM GAS  /tmp/ccWSR0Wc.s 			page 25


 986 0764 0CC08FE0 		add	ip, pc, ip
 987              	.LPIC73:
 988 0768 00008FE0 		add	r0, pc, r0
 989              	.LPIC70:
 990 076c 02208FE0 		add	r2, pc, r2
 991              	.LPIC71:
 992 0770 01108FE0 		add	r1, pc, r1
 993              	.L74:
 994 0774 01108DE9 		stmib	sp, {r0, ip}
 995 0778 4500A0E3 		mov	r0, #69
 996 077c 00408DE5 		str	r4, [sp]
 997 0780 FEFFFFEB 		bl	siFormattedMessage_SC(PLT)
 998              	.LVL78:
 151:/home/hkh/git/eapidk-code-r76-trunk/apps/EeePProg/linux/../CfgParser.c ****       PrintCfgFile,
 999              		.loc 1 151 3 is_stmt 1 discriminator 1 view .LVU190
 151:/home/hkh/git/eapidk-code-r76-trunk/apps/EeePProg/linux/../CfgParser.c ****       PrintCfgFile,
 1000              		.loc 1 151 3 discriminator 1 view .LVU191
 151:/home/hkh/git/eapidk-code-r76-trunk/apps/EeePProg/linux/../CfgParser.c ****       PrintCfgFile,
 1001              		.loc 1 151 3 discriminator 1 view .LVU192
 1002              		.loc 1 159 1 is_stmt 0 discriminator 1 view .LVU193
 1003 0784 0400A0E1 		mov	r0, r4
 1004 0788 10D08DE2 		add	sp, sp, #16
 1005              		.cfi_remember_state
 1006              		.cfi_def_cfa_offset 8
 1007              		@ sp needed
 1008 078c 1080BDE8 		pop	{r4, pc}
 1009              	.LVL79:
 1010              	.L77:
 1011              		.cfi_restore_state
 1012              	.L68:
 156:/home/hkh/git/eapidk-code-r76-trunk/apps/EeePProg/linux/../CfgParser.c ****   DO(PrintCfgFile_Sub((CfgNodeGen_t*)pCfgBDesc, stCfgBDescElements, OutStream, 1, 0));
 1013              		.loc 1 156 3 is_stmt 1 discriminator 1 view .LVU194
 1014 0790 74C09FE5 		ldr	ip, .L78+16
 1015 0794 9C30A0E3 		mov	r3, #156
 1016 0798 70009FE5 		ldr	r0, .L78+20
 1017              	.LVL80:
 156:/home/hkh/git/eapidk-code-r76-trunk/apps/EeePProg/linux/../CfgParser.c ****   DO(PrintCfgFile_Sub((CfgNodeGen_t*)pCfgBDesc, stCfgBDescElements, OutStream, 1, 0));
 1018              		.loc 1 156 3 is_stmt 0 discriminator 1 view .LVU195
 1019 079c 70209FE5 		ldr	r2, .L78+24
 1020 07a0 70109FE5 		ldr	r1, .L78+28
 1021              	.LPIC76:
 1022 07a4 0CC08FE0 		add	ip, pc, ip
 1023              	.LPIC77:
 1024 07a8 00008FE0 		add	r0, pc, r0
 1025 07ac 00408DE5 		str	r4, [sp]
 1026 07b0 01108DE9 		stmib	sp, {r0, ip}
 1027              	.LPIC74:
 1028 07b4 02208FE0 		add	r2, pc, r2
 1029              	.LPIC75:
 1030 07b8 01108FE0 		add	r1, pc, r1
 1031 07bc 4500A0E3 		mov	r0, #69
 1032 07c0 FEFFFFEB 		bl	siFormattedMessage_SC(PLT)
 1033              	.LVL81:
 156:/home/hkh/git/eapidk-code-r76-trunk/apps/EeePProg/linux/../CfgParser.c ****   DO(PrintCfgFile_Sub((CfgNodeGen_t*)pCfgBDesc, stCfgBDescElements, OutStream, 1, 0));
 1034              		.loc 1 156 3 is_stmt 1 discriminator 1 view .LVU196
 156:/home/hkh/git/eapidk-code-r76-trunk/apps/EeePProg/linux/../CfgParser.c ****   DO(PrintCfgFile_Sub((CfgNodeGen_t*)pCfgBDesc, stCfgBDescElements, OutStream, 1, 0));
 1035              		.loc 1 156 3 discriminator 1 view .LVU197
ARM GAS  /tmp/ccWSR0Wc.s 			page 26


 158:/home/hkh/git/eapidk-code-r76-trunk/apps/EeePProg/linux/../CfgParser.c **** }
 1036              		.loc 1 158 3 discriminator 1 view .LVU198
 1037              		.loc 1 159 1 is_stmt 0 discriminator 1 view .LVU199
 1038 07c4 0400A0E1 		mov	r0, r4
 1039 07c8 10D08DE2 		add	sp, sp, #16
 1040              		.cfi_remember_state
 1041              		.cfi_def_cfa_offset 8
 1042              		@ sp needed
 1043 07cc 1080BDE8 		pop	{r4, pc}
 1044              	.LVL82:
 1045              	.L75:
 1046              		.cfi_restore_state
 146:/home/hkh/git/eapidk-code-r76-trunk/apps/EeePProg/linux/../CfgParser.c ****       PrintCfgFile,
 1047              		.loc 1 146 3 is_stmt 1 discriminator 1 view .LVU200
 146:/home/hkh/git/eapidk-code-r76-trunk/apps/EeePProg/linux/../CfgParser.c ****       PrintCfgFile,
 1048              		.loc 1 146 3 discriminator 1 view .LVU201
 1049 07d0 44C09FE5 		ldr	ip, .L78+32
 1050 07d4 014CE0E3 		mvn	r4, #256
 1051 07d8 40009FE5 		ldr	r0, .L78+36
 1052              	.LVL83:
 146:/home/hkh/git/eapidk-code-r76-trunk/apps/EeePProg/linux/../CfgParser.c ****       PrintCfgFile,
 1053              		.loc 1 146 3 is_stmt 0 discriminator 1 view .LVU202
 1054 07dc 9230A0E3 		mov	r3, #146
 1055 07e0 3C209FE5 		ldr	r2, .L78+40
 1056              	.LVL84:
 146:/home/hkh/git/eapidk-code-r76-trunk/apps/EeePProg/linux/../CfgParser.c ****       PrintCfgFile,
 1057              		.loc 1 146 3 discriminator 1 view .LVU203
 1058 07e4 3C109FE5 		ldr	r1, .L78+44
 1059              	.LVL85:
 146:/home/hkh/git/eapidk-code-r76-trunk/apps/EeePProg/linux/../CfgParser.c ****       PrintCfgFile,
 1060              		.loc 1 146 3 discriminator 1 view .LVU204
 1061              	.LPIC68:
 1062 07e8 0CC08FE0 		add	ip, pc, ip
 1063              	.LPIC69:
 1064 07ec 00008FE0 		add	r0, pc, r0
 1065              	.LPIC66:
 1066 07f0 02208FE0 		add	r2, pc, r2
 1067              	.LPIC67:
 1068 07f4 01108FE0 		add	r1, pc, r1
 1069 07f8 DDFFFFEA 		b	.L74
 1070              	.L79:
 1071              		.align	2
 1072              	.L78:
 1073 07fc 90000000 		.word	.LC9-(.LPIC72+8)
 1074 0800 90000000 		.word	.LC8-(.LPIC73+8)
 1075 0804 90000000 		.word	.LC21-(.LPIC70+8)
 1076 0808 90000000 		.word	.LC6-(.LPIC71+8)
 1077 080c 60000000 		.word	.LC22-(.LPIC76+8)
 1078 0810 60000000 		.word	.LC8-(.LPIC77+8)
 1079 0814 58000000 		.word	.LC11-(.LPIC74+8)
 1080 0818 58000000 		.word	.LC6-(.LPIC75+8)
 1081 081c 2C000000 		.word	.LC7-(.LPIC68+8)
 1082 0820 2C000000 		.word	.LC8-(.LPIC69+8)
 1083 0824 2C000000 		.word	.LC21-(.LPIC66+8)
 1084 0828 2C000000 		.word	.LC6-(.LPIC67+8)
 1085              		.cfi_endproc
 1086              	.LFE2:
ARM GAS  /tmp/ccWSR0Wc.s 			page 27


 1088              		.section	.rodata.str1.4
 1089              		.align	2
 1090              	.LC23:
 1091 03b0 436C6561 		.ascii	"CleanStruct_sub\000"
 1091      6E537472 
 1091      7563745F 
 1091      73756200 
 1092              		.align	2
 1093              	.LC24:
 1094 03c0 436C6561 		.ascii	"CleanStruct_sub(pCfgBDesc->Block.Elements.pIndx, pC"
 1094      6E537472 
 1094      7563745F 
 1094      73756228 
 1094      70436667 
 1095 03f3 66674244 		.ascii	"fgBDesc->Block.Elements.stUsedCnt, stDepth + 1)\000"
 1095      6573632D 
 1095      3E426C6F 
 1095      636B2E45 
 1095      6C656D65 
 1096 0423 00       		.align	2
 1097              	.LC25:
 1098 0424 70436667 		.ascii	"pCfgBDesc->Element.pHandlers->Clean( (CfgElementDes"
 1098      42446573 
 1098      632D3E45 
 1098      6C656D65 
 1098      6E742E70 
 1099 0457 635F742A 		.ascii	"c_t*)pCfgBDesc, EAPI_CREATE_PTR( pCfgBDesc->Element"
 1099      29704366 
 1099      67424465 
 1099      73632C20 
 1099      45415049 
 1100 048a 2E496E73 		.ascii	".Instances.pIndx, pCfgBDesc->Element.Instances.stEl"
 1100      74616E63 
 1100      65732E70 
 1100      496E6478 
 1100      2C207043 
 1101 04bd 656D656E 		.ascii	"ementSize*(pCfgBDesc->Element.Instances.stUsedCnt),"
 1101      7453697A 
 1101      652A2870 
 1101      43666742 
 1101      44657363 
 1102 04f0 20766F69 		.ascii	" void* ) )\000"
 1102      642A2029 
 1102      202900
 1103              		.text
 1104              		.align	2
 1105              		.global	CleanStruct_sub
 1106              		.syntax unified
 1107              		.arm
 1108              		.fpu vfpv3
 1110              	CleanStruct_sub:
 1111              	.LVL86:
 1112              	.LFB3:
 160:/home/hkh/git/eapidk-code-r76-trunk/apps/EeePProg/linux/../CfgParser.c **** 
 161:/home/hkh/git/eapidk-code-r76-trunk/apps/EeePProg/linux/../CfgParser.c **** EApiStatus_t
 162:/home/hkh/git/eapidk-code-r76-trunk/apps/EeePProg/linux/../CfgParser.c **** CleanStruct_sub(
 163:/home/hkh/git/eapidk-code-r76-trunk/apps/EeePProg/linux/../CfgParser.c ****     __IN    CfgNodeGen_t  *pCfgBDesc         ,
ARM GAS  /tmp/ccWSR0Wc.s 			page 28


 164:/home/hkh/git/eapidk-code-r76-trunk/apps/EeePProg/linux/../CfgParser.c ****     __IN    size_t         stCfgBDescElements ,
 165:/home/hkh/git/eapidk-code-r76-trunk/apps/EeePProg/linux/../CfgParser.c ****     __IN    size_t         stDepth
 166:/home/hkh/git/eapidk-code-r76-trunk/apps/EeePProg/linux/../CfgParser.c ****     )
 167:/home/hkh/git/eapidk-code-r76-trunk/apps/EeePProg/linux/../CfgParser.c **** {
 1113              		.loc 1 167 1 is_stmt 1 view -0
 1114              		.cfi_startproc
 1115              		@ args = 0, pretend = 0, frame = 0
 1116              		@ frame_needed = 0, uses_anonymous_args = 0
 168:/home/hkh/git/eapidk-code-r76-trunk/apps/EeePProg/linux/../CfgParser.c ****   EApiStatus_t StatusCode=EAPI_STATUS_SUCCESS;
 1117              		.loc 1 168 3 view .LVU206
 169:/home/hkh/git/eapidk-code-r76-trunk/apps/EeePProg/linux/../CfgParser.c ****   EAPI_APP_ASSERT_PARAMATER_NULL(
 1118              		.loc 1 169 3 view .LVU207
 1119 082c 000050E3 		cmp	r0, #0
 167:/home/hkh/git/eapidk-code-r76-trunk/apps/EeePProg/linux/../CfgParser.c ****   EApiStatus_t StatusCode=EAPI_STATUS_SUCCESS;
 1120              		.loc 1 167 1 is_stmt 0 view .LVU208
 1121 0830 F0432DE9 		push	{r4, r5, r6, r7, r8, r9, lr}
 1122              		.cfi_def_cfa_offset 28
 1123              		.cfi_offset 4, -28
 1124              		.cfi_offset 5, -24
 1125              		.cfi_offset 6, -20
 1126              		.cfi_offset 7, -16
 1127              		.cfi_offset 8, -12
 1128              		.cfi_offset 9, -8
 1129              		.cfi_offset 14, -4
 1130 0834 14D04DE2 		sub	sp, sp, #20
 1131              		.cfi_def_cfa_offset 48
 1132              		.loc 1 169 3 view .LVU209
 1133 0838 5700000A 		beq	.L104
 1134              		.loc 1 169 3 is_stmt 1 discriminator 2 view .LVU210
 170:/home/hkh/git/eapidk-code-r76-trunk/apps/EeePProg/linux/../CfgParser.c ****       CleanStruct_sub,
 171:/home/hkh/git/eapidk-code-r76-trunk/apps/EeePProg/linux/../CfgParser.c ****       EAPI_STATUS_INVALID_PARAMETER,
 172:/home/hkh/git/eapidk-code-r76-trunk/apps/EeePProg/linux/../CfgParser.c ****       pCfgBDesc
 173:/home/hkh/git/eapidk-code-r76-trunk/apps/EeePProg/linux/../CfgParser.c ****     );
 1135              		.loc 1 173 6 discriminator 2 view .LVU211
 174:/home/hkh/git/eapidk-code-r76-trunk/apps/EeePProg/linux/../CfgParser.c ****   EAPI_APP_ASSERT_PARAMATER_ZERO(
 1136              		.loc 1 174 3 discriminator 2 view .LVU212
 1137 083c 000051E3 		cmp	r1, #0
 1138 0840 4400000A 		beq	.L83
 1139              	.LVL87:
 1140              	.LBB4:
 1141              	.LBB5:
 175:/home/hkh/git/eapidk-code-r76-trunk/apps/EeePProg/linux/../CfgParser.c ****       CleanStruct_sub,
 176:/home/hkh/git/eapidk-code-r76-trunk/apps/EeePProg/linux/../CfgParser.c ****       EAPI_STATUS_INVALID_PARAMETER,
 177:/home/hkh/git/eapidk-code-r76-trunk/apps/EeePProg/linux/../CfgParser.c ****       stCfgBDescElements
 178:/home/hkh/git/eapidk-code-r76-trunk/apps/EeePProg/linux/../CfgParser.c ****     );
 179:/home/hkh/git/eapidk-code-r76-trunk/apps/EeePProg/linux/../CfgParser.c ****   while(stCfgBDescElements --){
 1142              		.loc 1 179 9 view .LVU213
 1143              		.loc 1 179 28 is_stmt 0 view .LVU214
 1144 0844 016041E2 		sub	r6, r1, #1
 1145              	.LVL88:
 1146              		.loc 1 179 28 view .LVU215
 1147 0848 E04080E2 		add	r4, r0, #224
 180:/home/hkh/git/eapidk-code-r76-trunk/apps/EeePProg/linux/../CfgParser.c ****     switch(pCfgBDesc->Gen.NodeType){
 181:/home/hkh/git/eapidk-code-r76-trunk/apps/EeePProg/linux/../CfgParser.c ****       case CfgBlockNode:
 182:/home/hkh/git/eapidk-code-r76-trunk/apps/EeePProg/linux/../CfgParser.c ****         if(pCfgBDesc->Block.Elements.stUsedCnt){
 183:/home/hkh/git/eapidk-code-r76-trunk/apps/EeePProg/linux/../CfgParser.c ****           DO(CleanStruct_sub(pCfgBDesc->Block.Elements.pIndx, pCfgBDesc->Block.Elements.stUsedCnt, 
 184:/home/hkh/git/eapidk-code-r76-trunk/apps/EeePProg/linux/../CfgParser.c ****         }
ARM GAS  /tmp/ccWSR0Wc.s 			page 29


 185:/home/hkh/git/eapidk-code-r76-trunk/apps/EeePProg/linux/../CfgParser.c ****         pCfgBDesc->Block.stFound=0;
 1148              		.loc 1 185 33 view .LVU216
 1149 084c 0080A0E3 		mov	r8, #0
 183:/home/hkh/git/eapidk-code-r76-trunk/apps/EeePProg/linux/../CfgParser.c ****         }
 1150              		.loc 1 183 11 view .LVU217
 1151 0850 017082E2 		add	r7, r2, #1
 1152              	.LVL89:
 1153              	.L84:
 180:/home/hkh/git/eapidk-code-r76-trunk/apps/EeePProg/linux/../CfgParser.c ****     switch(pCfgBDesc->Gen.NodeType){
 1154              		.loc 1 180 26 view .LVU218
 1155 0854 E03014E5 		ldr	r3, [r4, #-224]
 1156 0858 E09044E2 		sub	r9, r4, #224
 1157              	.LVL90:
 180:/home/hkh/git/eapidk-code-r76-trunk/apps/EeePProg/linux/../CfgParser.c ****     switch(pCfgBDesc->Gen.NodeType){
 1158              		.loc 1 180 5 is_stmt 1 view .LVU219
 1159 085c 00F0D4F5 		pld	[r4]
 1160 0860 010053E3 		cmp	r3, #1
 1161 0864 2700000A 		beq	.L85
 180:/home/hkh/git/eapidk-code-r76-trunk/apps/EeePProg/linux/../CfgParser.c ****     switch(pCfgBDesc->Gen.NodeType){
 1162              		.loc 1 180 5 is_stmt 0 view .LVU220
 1163 0868 020053E3 		cmp	r3, #2
 1164 086c 0700000A 		beq	.L86
 1165              	.L87:
 186:/home/hkh/git/eapidk-code-r76-trunk/apps/EeePProg/linux/../CfgParser.c ****         break;
 187:/home/hkh/git/eapidk-code-r76-trunk/apps/EeePProg/linux/../CfgParser.c ****       case CfgElementNode:
 188:/home/hkh/git/eapidk-code-r76-trunk/apps/EeePProg/linux/../CfgParser.c ****         while(pCfgBDesc->Element.Instances.stUsedCnt --){
 189:/home/hkh/git/eapidk-code-r76-trunk/apps/EeePProg/linux/../CfgParser.c ****           DO(pCfgBDesc->Element.pHandlers->Clean(
 190:/home/hkh/git/eapidk-code-r76-trunk/apps/EeePProg/linux/../CfgParser.c ****                 (CfgElementDesc_t*)pCfgBDesc,
 191:/home/hkh/git/eapidk-code-r76-trunk/apps/EeePProg/linux/../CfgParser.c ****                 EAPI_CREATE_PTR(
 192:/home/hkh/git/eapidk-code-r76-trunk/apps/EeePProg/linux/../CfgParser.c ****                     pCfgBDesc->Element.Instances.pIndx, 
 193:/home/hkh/git/eapidk-code-r76-trunk/apps/EeePProg/linux/../CfgParser.c ****                     pCfgBDesc->Element.Instances.stElementSize*(pCfgBDesc->Element.Instances.stUsed
 194:/home/hkh/git/eapidk-code-r76-trunk/apps/EeePProg/linux/../CfgParser.c ****                     void*
 195:/home/hkh/git/eapidk-code-r76-trunk/apps/EeePProg/linux/../CfgParser.c ****                   )
 196:/home/hkh/git/eapidk-code-r76-trunk/apps/EeePProg/linux/../CfgParser.c ****               ));
 197:/home/hkh/git/eapidk-code-r76-trunk/apps/EeePProg/linux/../CfgParser.c ****         }
 198:/home/hkh/git/eapidk-code-r76-trunk/apps/EeePProg/linux/../CfgParser.c ****         break;
 199:/home/hkh/git/eapidk-code-r76-trunk/apps/EeePProg/linux/../CfgParser.c ****       default:
 200:/home/hkh/git/eapidk-code-r76-trunk/apps/EeePProg/linux/../CfgParser.c ****         break;
 201:/home/hkh/git/eapidk-code-r76-trunk/apps/EeePProg/linux/../CfgParser.c ****     }
 202:/home/hkh/git/eapidk-code-r76-trunk/apps/EeePProg/linux/../CfgParser.c ****     pCfgBDesc++;
 1166              		.loc 1 202 5 is_stmt 1 view .LVU221
 1167              	.LVL91:
 179:/home/hkh/git/eapidk-code-r76-trunk/apps/EeePProg/linux/../CfgParser.c ****     switch(pCfgBDesc->Gen.NodeType){
 1168              		.loc 1 179 9 view .LVU222
 179:/home/hkh/git/eapidk-code-r76-trunk/apps/EeePProg/linux/../CfgParser.c ****     switch(pCfgBDesc->Gen.NodeType){
 1169              		.loc 1 179 28 is_stmt 0 view .LVU223
 1170 0870 016046E2 		sub	r6, r6, #1
 1171              	.LVL92:
 179:/home/hkh/git/eapidk-code-r76-trunk/apps/EeePProg/linux/../CfgParser.c ****     switch(pCfgBDesc->Gen.NodeType){
 1172              		.loc 1 179 9 view .LVU224
 1173 0874 384084E2 		add	r4, r4, #56
 1174              	.LVL93:
 179:/home/hkh/git/eapidk-code-r76-trunk/apps/EeePProg/linux/../CfgParser.c ****     switch(pCfgBDesc->Gen.NodeType){
 1175              		.loc 1 179 9 view .LVU225
 1176 0878 010076E3 		cmn	r6, #1
 1177 087c F4FFFF1A 		bne	.L84
 1178              	.L82:
ARM GAS  /tmp/ccWSR0Wc.s 			page 30


 203:/home/hkh/git/eapidk-code-r76-trunk/apps/EeePProg/linux/../CfgParser.c ****   }
 204:/home/hkh/git/eapidk-code-r76-trunk/apps/EeePProg/linux/../CfgParser.c **** EAPI_APP_ASSERT_EXIT
 1179              		.loc 1 204 1 view .LVU226
 1180 0880 0050A0E3 		mov	r5, #0
 1181              	.LVL94:
 1182              		.loc 1 204 1 view .LVU227
 1183              	.LBE5:
 1184              	.LBE4:
 205:/home/hkh/git/eapidk-code-r76-trunk/apps/EeePProg/linux/../CfgParser.c ****   return StatusCode;
 1185              		.loc 1 205 3 is_stmt 1 view .LVU228
 206:/home/hkh/git/eapidk-code-r76-trunk/apps/EeePProg/linux/../CfgParser.c **** }
 1186              		.loc 1 206 1 is_stmt 0 view .LVU229
 1187 0884 0500A0E1 		mov	r0, r5
 1188 0888 14D08DE2 		add	sp, sp, #20
 1189              		.cfi_remember_state
 1190              		.cfi_def_cfa_offset 28
 1191              		@ sp needed
 1192 088c F083BDE8 		pop	{r4, r5, r6, r7, r8, r9, pc}
 1193              	.LVL95:
 1194              	.L86:
 1195              		.cfi_restore_state
 1196              	.LBB8:
 1197              	.LBB6:
 189:/home/hkh/git/eapidk-code-r76-trunk/apps/EeePProg/linux/../CfgParser.c ****                 (CfgElementDesc_t*)pCfgBDesc,
 1198              		.loc 1 189 11 is_stmt 1 view .LVU230
 189:/home/hkh/git/eapidk-code-r76-trunk/apps/EeePProg/linux/../CfgParser.c ****                 (CfgElementDesc_t*)pCfgBDesc,
 1199              		.loc 1 189 11 view .LVU231
 189:/home/hkh/git/eapidk-code-r76-trunk/apps/EeePProg/linux/../CfgParser.c ****                 (CfgElementDesc_t*)pCfgBDesc,
 1200              		.loc 1 189 11 view .LVU232
 188:/home/hkh/git/eapidk-code-r76-trunk/apps/EeePProg/linux/../CfgParser.c ****           DO(pCfgBDesc->Element.pHandlers->Clean(
 1201              		.loc 1 188 15 view .LVU233
 188:/home/hkh/git/eapidk-code-r76-trunk/apps/EeePProg/linux/../CfgParser.c ****           DO(pCfgBDesc->Element.pHandlers->Clean(
 1202              		.loc 1 188 43 is_stmt 0 view .LVU234
 1203 0890 D41014E5 		ldr	r1, [r4, #-212]
 189:/home/hkh/git/eapidk-code-r76-trunk/apps/EeePProg/linux/../CfgParser.c ****                 (CfgElementDesc_t*)pCfgBDesc,
 1204              		.loc 1 189 11 view .LVU235
 1205 0894 0900A0E1 		mov	r0, r9
 188:/home/hkh/git/eapidk-code-r76-trunk/apps/EeePProg/linux/../CfgParser.c ****           DO(pCfgBDesc->Element.pHandlers->Clean(
 1206              		.loc 1 188 15 view .LVU236
 1207 0898 000051E3 		cmp	r1, #0
 188:/home/hkh/git/eapidk-code-r76-trunk/apps/EeePProg/linux/../CfgParser.c ****           DO(pCfgBDesc->Element.pHandlers->Clean(
 1208              		.loc 1 188 54 view .LVU237
 1209 089c 011041E2 		sub	r1, r1, #1
 1210 08a0 D41004E5 		str	r1, [r4, #-212]
 188:/home/hkh/git/eapidk-code-r76-trunk/apps/EeePProg/linux/../CfgParser.c ****           DO(pCfgBDesc->Element.pHandlers->Clean(
 1211              		.loc 1 188 15 view .LVU238
 1212 08a4 F1FFFF0A 		beq	.L87
 1213              	.LVL96:
 189:/home/hkh/git/eapidk-code-r76-trunk/apps/EeePProg/linux/../CfgParser.c ****                 (CfgElementDesc_t*)pCfgBDesc,
 1214              		.loc 1 189 11 view .LVU239
 1215 08a8 CCC014E5 		ldr	ip, [r4, #-204]
 1216 08ac C42014E5 		ldr	r2, [r4, #-196]
 1217 08b0 B03014E5 		ldr	r3, [r4, #-176]
 1218 08b4 9C2121E0 		mla	r1, ip, r1, r2
 1219 08b8 043093E5 		ldr	r3, [r3, #4]
 1220 08bc 33FF2FE1 		blx	r3
 1221              	.LVL97:
ARM GAS  /tmp/ccWSR0Wc.s 			page 31


 189:/home/hkh/git/eapidk-code-r76-trunk/apps/EeePProg/linux/../CfgParser.c ****                 (CfgElementDesc_t*)pCfgBDesc,
 1222              		.loc 1 189 11 is_stmt 1 view .LVU240
 1223 08c0 005050E2 		subs	r5, r0, #0
 1224 08c4 F1FFFF0A 		beq	.L86
 189:/home/hkh/git/eapidk-code-r76-trunk/apps/EeePProg/linux/../CfgParser.c ****                 (CfgElementDesc_t*)pCfgBDesc,
 1225              		.loc 1 189 11 view .LVU241
 1226 08c8 F8C09FE5 		ldr	ip, .L106
 1227 08cc BD30A0E3 		mov	r3, #189
 1228 08d0 F4009FE5 		ldr	r0, .L106+4
 1229              	.LVL98:
 189:/home/hkh/git/eapidk-code-r76-trunk/apps/EeePProg/linux/../CfgParser.c ****                 (CfgElementDesc_t*)pCfgBDesc,
 1230              		.loc 1 189 11 is_stmt 0 view .LVU242
 1231 08d4 F4209FE5 		ldr	r2, .L106+8
 1232 08d8 F4109FE5 		ldr	r1, .L106+12
 1233              	.LPIC92:
 1234 08dc 0CC08FE0 		add	ip, pc, ip
 1235              	.LPIC93:
 1236 08e0 00008FE0 		add	r0, pc, r0
 1237              	.LPIC90:
 1238 08e4 02208FE0 		add	r2, pc, r2
 1239              	.LPIC91:
 1240 08e8 01108FE0 		add	r1, pc, r1
 1241              	.L102:
 189:/home/hkh/git/eapidk-code-r76-trunk/apps/EeePProg/linux/../CfgParser.c ****                 (CfgElementDesc_t*)pCfgBDesc,
 1242              		.loc 1 189 11 view .LVU243
 1243 08ec 01108DE9 		stmib	sp, {r0, ip}
 1244 08f0 4500A0E3 		mov	r0, #69
 1245 08f4 00508DE5 		str	r5, [sp]
 1246 08f8 FEFFFFEB 		bl	siFormattedMessage_SC(PLT)
 1247              	.LVL99:
 189:/home/hkh/git/eapidk-code-r76-trunk/apps/EeePProg/linux/../CfgParser.c ****                 (CfgElementDesc_t*)pCfgBDesc,
 1248              		.loc 1 189 11 is_stmt 1 view .LVU244
 1249              	.LBE6:
 1250              	.LBE8:
 1251              		.loc 1 206 1 is_stmt 0 view .LVU245
 1252 08fc 0500A0E1 		mov	r0, r5
 1253 0900 14D08DE2 		add	sp, sp, #20
 1254              		.cfi_remember_state
 1255              		.cfi_def_cfa_offset 28
 1256              		@ sp needed
 1257 0904 F083BDE8 		pop	{r4, r5, r6, r7, r8, r9, pc}
 1258              	.LVL100:
 1259              	.L85:
 1260              		.cfi_restore_state
 1261              	.LBB9:
 1262              	.LBB7:
 182:/home/hkh/git/eapidk-code-r76-trunk/apps/EeePProg/linux/../CfgParser.c ****           DO(CleanStruct_sub(pCfgBDesc->Block.Elements.pIndx, pCfgBDesc->Block.Elements.stUsedCnt, 
 1263              		.loc 1 182 9 is_stmt 1 view .LVU246
 182:/home/hkh/git/eapidk-code-r76-trunk/apps/EeePProg/linux/../CfgParser.c ****           DO(CleanStruct_sub(pCfgBDesc->Block.Elements.pIndx, pCfgBDesc->Block.Elements.stUsedCnt, 
 1264              		.loc 1 182 37 is_stmt 0 view .LVU247
 1265 0908 D41014E5 		ldr	r1, [r4, #-212]
 182:/home/hkh/git/eapidk-code-r76-trunk/apps/EeePProg/linux/../CfgParser.c ****           DO(CleanStruct_sub(pCfgBDesc->Block.Elements.pIndx, pCfgBDesc->Block.Elements.stUsedCnt, 
 1266              		.loc 1 182 11 view .LVU248
 1267 090c 000051E3 		cmp	r1, #0
 1268 0910 0100001A 		bne	.L105
 1269              	.LVL101:
 1270              	.L88:
ARM GAS  /tmp/ccWSR0Wc.s 			page 32


 183:/home/hkh/git/eapidk-code-r76-trunk/apps/EeePProg/linux/../CfgParser.c ****         }
 1271              		.loc 1 183 11 is_stmt 1 view .LVU249
 185:/home/hkh/git/eapidk-code-r76-trunk/apps/EeePProg/linux/../CfgParser.c ****         break;
 1272              		.loc 1 185 9 view .LVU250
 185:/home/hkh/git/eapidk-code-r76-trunk/apps/EeePProg/linux/../CfgParser.c ****         break;
 1273              		.loc 1 185 33 is_stmt 0 view .LVU251
 1274 0914 B88004E5 		str	r8, [r4, #-184]
 186:/home/hkh/git/eapidk-code-r76-trunk/apps/EeePProg/linux/../CfgParser.c ****       case CfgElementNode:
 1275              		.loc 1 186 9 is_stmt 1 view .LVU252
 1276 0918 D4FFFFEA 		b	.L87
 1277              	.L105:
 183:/home/hkh/git/eapidk-code-r76-trunk/apps/EeePProg/linux/../CfgParser.c ****         }
 1278              		.loc 1 183 11 view .LVU253
 183:/home/hkh/git/eapidk-code-r76-trunk/apps/EeePProg/linux/../CfgParser.c ****         }
 1279              		.loc 1 183 11 view .LVU254
 1280 091c C40014E5 		ldr	r0, [r4, #-196]
 1281 0920 0720A0E1 		mov	r2, r7
 1282 0924 FEFFFFEB 		bl	CleanStruct_sub(PLT)
 1283              	.LVL102:
 183:/home/hkh/git/eapidk-code-r76-trunk/apps/EeePProg/linux/../CfgParser.c ****         }
 1284              		.loc 1 183 11 view .LVU255
 1285 0928 005050E2 		subs	r5, r0, #0
 1286 092c F8FFFF0A 		beq	.L88
 183:/home/hkh/git/eapidk-code-r76-trunk/apps/EeePProg/linux/../CfgParser.c ****         }
 1287              		.loc 1 183 11 view .LVU256
 1288 0930 A0C09FE5 		ldr	ip, .L106+16
 1289 0934 B730A0E3 		mov	r3, #183
 1290 0938 9C009FE5 		ldr	r0, .L106+20
 1291              	.LVL103:
 183:/home/hkh/git/eapidk-code-r76-trunk/apps/EeePProg/linux/../CfgParser.c ****         }
 1292              		.loc 1 183 11 is_stmt 0 view .LVU257
 1293 093c 9C209FE5 		ldr	r2, .L106+24
 1294 0940 9C109FE5 		ldr	r1, .L106+28
 1295              	.LPIC88:
 1296 0944 0CC08FE0 		add	ip, pc, ip
 1297              	.LPIC89:
 1298 0948 00008FE0 		add	r0, pc, r0
 1299              	.LPIC86:
 1300 094c 02208FE0 		add	r2, pc, r2
 1301              	.LPIC87:
 1302 0950 01108FE0 		add	r1, pc, r1
 1303 0954 E4FFFFEA 		b	.L102
 1304              	.LVL104:
 1305              	.L83:
 183:/home/hkh/git/eapidk-code-r76-trunk/apps/EeePProg/linux/../CfgParser.c ****         }
 1306              		.loc 1 183 11 view .LVU258
 1307              	.LBE7:
 1308              	.LBE9:
 174:/home/hkh/git/eapidk-code-r76-trunk/apps/EeePProg/linux/../CfgParser.c ****       CleanStruct_sub,
 1309              		.loc 1 174 3 is_stmt 1 discriminator 1 view .LVU259
 174:/home/hkh/git/eapidk-code-r76-trunk/apps/EeePProg/linux/../CfgParser.c ****       CleanStruct_sub,
 1310              		.loc 1 174 3 discriminator 1 view .LVU260
 1311 0958 88C09FE5 		ldr	ip, .L106+32
 1312 095c 015CE0E3 		mvn	r5, #256
 1313 0960 84009FE5 		ldr	r0, .L106+36
 1314              	.LVL105:
 174:/home/hkh/git/eapidk-code-r76-trunk/apps/EeePProg/linux/../CfgParser.c ****       CleanStruct_sub,
ARM GAS  /tmp/ccWSR0Wc.s 			page 33


 1315              		.loc 1 174 3 is_stmt 0 discriminator 1 view .LVU261
 1316 0964 AE30A0E3 		mov	r3, #174
 1317 0968 80209FE5 		ldr	r2, .L106+40
 1318              	.LVL106:
 174:/home/hkh/git/eapidk-code-r76-trunk/apps/EeePProg/linux/../CfgParser.c ****       CleanStruct_sub,
 1319              		.loc 1 174 3 discriminator 1 view .LVU262
 1320 096c 80109FE5 		ldr	r1, .L106+44
 1321              	.LVL107:
 174:/home/hkh/git/eapidk-code-r76-trunk/apps/EeePProg/linux/../CfgParser.c ****       CleanStruct_sub,
 1322              		.loc 1 174 3 discriminator 1 view .LVU263
 1323              	.LPIC84:
 1324 0970 0CC08FE0 		add	ip, pc, ip
 1325              	.LPIC85:
 1326 0974 00008FE0 		add	r0, pc, r0
 1327              	.LPIC82:
 1328 0978 02208FE0 		add	r2, pc, r2
 1329              	.LPIC83:
 1330 097c 01108FE0 		add	r1, pc, r1
 1331              	.L103:
 1332 0980 01108DE9 		stmib	sp, {r0, ip}
 1333 0984 4500A0E3 		mov	r0, #69
 1334 0988 00508DE5 		str	r5, [sp]
 1335 098c FEFFFFEB 		bl	siFormattedMessage_SC(PLT)
 1336              	.LVL108:
 174:/home/hkh/git/eapidk-code-r76-trunk/apps/EeePProg/linux/../CfgParser.c ****       CleanStruct_sub,
 1337              		.loc 1 174 3 is_stmt 1 discriminator 1 view .LVU264
 174:/home/hkh/git/eapidk-code-r76-trunk/apps/EeePProg/linux/../CfgParser.c ****       CleanStruct_sub,
 1338              		.loc 1 174 3 discriminator 1 view .LVU265
 174:/home/hkh/git/eapidk-code-r76-trunk/apps/EeePProg/linux/../CfgParser.c ****       CleanStruct_sub,
 1339              		.loc 1 174 3 discriminator 1 view .LVU266
 1340              		.loc 1 206 1 is_stmt 0 discriminator 1 view .LVU267
 1341 0990 0500A0E1 		mov	r0, r5
 1342 0994 14D08DE2 		add	sp, sp, #20
 1343              		.cfi_remember_state
 1344              		.cfi_def_cfa_offset 28
 1345              		@ sp needed
 1346 0998 F083BDE8 		pop	{r4, r5, r6, r7, r8, r9, pc}
 1347              	.LVL109:
 1348              	.L104:
 1349              		.cfi_restore_state
 169:/home/hkh/git/eapidk-code-r76-trunk/apps/EeePProg/linux/../CfgParser.c ****       CleanStruct_sub,
 1350              		.loc 1 169 3 is_stmt 1 discriminator 1 view .LVU268
 169:/home/hkh/git/eapidk-code-r76-trunk/apps/EeePProg/linux/../CfgParser.c ****       CleanStruct_sub,
 1351              		.loc 1 169 3 discriminator 1 view .LVU269
 1352 099c 54C09FE5 		ldr	ip, .L106+48
 1353 09a0 015CE0E3 		mvn	r5, #256
 1354 09a4 50009FE5 		ldr	r0, .L106+52
 1355              	.LVL110:
 169:/home/hkh/git/eapidk-code-r76-trunk/apps/EeePProg/linux/../CfgParser.c ****       CleanStruct_sub,
 1356              		.loc 1 169 3 is_stmt 0 discriminator 1 view .LVU270
 1357 09a8 A930A0E3 		mov	r3, #169
 1358 09ac 4C209FE5 		ldr	r2, .L106+56
 1359              	.LVL111:
 169:/home/hkh/git/eapidk-code-r76-trunk/apps/EeePProg/linux/../CfgParser.c ****       CleanStruct_sub,
 1360              		.loc 1 169 3 discriminator 1 view .LVU271
 1361 09b0 4C109FE5 		ldr	r1, .L106+60
 1362              	.LVL112:
ARM GAS  /tmp/ccWSR0Wc.s 			page 34


 169:/home/hkh/git/eapidk-code-r76-trunk/apps/EeePProg/linux/../CfgParser.c ****       CleanStruct_sub,
 1363              		.loc 1 169 3 discriminator 1 view .LVU272
 1364              	.LPIC80:
 1365 09b4 0CC08FE0 		add	ip, pc, ip
 1366              	.LPIC81:
 1367 09b8 00008FE0 		add	r0, pc, r0
 1368              	.LPIC78:
 1369 09bc 02208FE0 		add	r2, pc, r2
 1370              	.LPIC79:
 1371 09c0 01108FE0 		add	r1, pc, r1
 1372 09c4 EDFFFFEA 		b	.L103
 1373              	.L107:
 1374              		.align	2
 1375              	.L106:
 1376 09c8 E4000000 		.word	.LC25-(.LPIC92+8)
 1377 09cc E4000000 		.word	.LC8-(.LPIC93+8)
 1378 09d0 E4000000 		.word	.LC11-(.LPIC90+8)
 1379 09d4 E4000000 		.word	.LC6-(.LPIC91+8)
 1380 09d8 8C000000 		.word	.LC24-(.LPIC88+8)
 1381 09dc 8C000000 		.word	.LC8-(.LPIC89+8)
 1382 09e0 8C000000 		.word	.LC11-(.LPIC86+8)
 1383 09e4 8C000000 		.word	.LC6-(.LPIC87+8)
 1384 09e8 70000000 		.word	.LC9-(.LPIC84+8)
 1385 09ec 70000000 		.word	.LC8-(.LPIC85+8)
 1386 09f0 70000000 		.word	.LC23-(.LPIC82+8)
 1387 09f4 70000000 		.word	.LC6-(.LPIC83+8)
 1388 09f8 3C000000 		.word	.LC7-(.LPIC80+8)
 1389 09fc 3C000000 		.word	.LC8-(.LPIC81+8)
 1390 0a00 3C000000 		.word	.LC23-(.LPIC78+8)
 1391 0a04 3C000000 		.word	.LC6-(.LPIC79+8)
 1392              		.cfi_endproc
 1393              	.LFE3:
 1395              		.section	.rodata.str1.4
 1396 04fb 00       		.align	2
 1397              	.LC26:
 1398 04fc 436C6561 		.ascii	"CleanStruct\000"
 1398      6E537472 
 1398      75637400 
 1399              		.align	2
 1400              	.LC27:
 1401 0508 436C6561 		.ascii	"CleanStruct_sub((CfgNodeGen_t*)pCfgBDesc, stCfgBDes"
 1401      6E537472 
 1401      7563745F 
 1401      73756228 
 1401      28436667 
 1402 053b 63456C65 		.ascii	"cElements, 0)\000"
 1402      6D656E74 
 1402      732C2030 
 1402      2900
 1403              		.text
 1404              		.align	2
 1405              		.global	CleanStruct
 1406              		.syntax unified
 1407              		.arm
 1408              		.fpu vfpv3
 1410              	CleanStruct:
 1411              	.LVL113:
ARM GAS  /tmp/ccWSR0Wc.s 			page 35


 1412              	.LFB4:
 207:/home/hkh/git/eapidk-code-r76-trunk/apps/EeePProg/linux/../CfgParser.c **** EApiStatus_t
 208:/home/hkh/git/eapidk-code-r76-trunk/apps/EeePProg/linux/../CfgParser.c **** CleanStruct(
 209:/home/hkh/git/eapidk-code-r76-trunk/apps/EeePProg/linux/../CfgParser.c ****     __IN    CfgBlockDesc_t *pCfgBDesc         ,
 210:/home/hkh/git/eapidk-code-r76-trunk/apps/EeePProg/linux/../CfgParser.c ****     __IN    size_t         stCfgBDescElements
 211:/home/hkh/git/eapidk-code-r76-trunk/apps/EeePProg/linux/../CfgParser.c ****     )
 212:/home/hkh/git/eapidk-code-r76-trunk/apps/EeePProg/linux/../CfgParser.c **** {
 1413              		.loc 1 212 1 is_stmt 1 view -0
 1414              		.cfi_startproc
 1415              		@ args = 0, pretend = 0, frame = 0
 1416              		@ frame_needed = 0, uses_anonymous_args = 0
 213:/home/hkh/git/eapidk-code-r76-trunk/apps/EeePProg/linux/../CfgParser.c ****   EApiStatus_t StatusCode=EAPI_STATUS_SUCCESS;
 1417              		.loc 1 213 3 view .LVU274
 214:/home/hkh/git/eapidk-code-r76-trunk/apps/EeePProg/linux/../CfgParser.c ****   EAPI_APP_ASSERT_PARAMATER_NULL(
 1418              		.loc 1 214 3 view .LVU275
 1419 0a08 000050E3 		cmp	r0, #0
 212:/home/hkh/git/eapidk-code-r76-trunk/apps/EeePProg/linux/../CfgParser.c ****   EApiStatus_t StatusCode=EAPI_STATUS_SUCCESS;
 1420              		.loc 1 212 1 is_stmt 0 view .LVU276
 1421 0a0c 10402DE9 		push	{r4, lr}
 1422              		.cfi_def_cfa_offset 8
 1423              		.cfi_offset 4, -8
 1424              		.cfi_offset 14, -4
 1425 0a10 10D04DE2 		sub	sp, sp, #16
 1426              		.cfi_def_cfa_offset 24
 1427              		.loc 1 214 3 view .LVU277
 1428 0a14 2900000A 		beq	.L117
 1429              		.loc 1 214 3 is_stmt 1 discriminator 2 view .LVU278
 215:/home/hkh/git/eapidk-code-r76-trunk/apps/EeePProg/linux/../CfgParser.c ****       CleanStruct,
 216:/home/hkh/git/eapidk-code-r76-trunk/apps/EeePProg/linux/../CfgParser.c ****       EAPI_STATUS_INVALID_PARAMETER,
 217:/home/hkh/git/eapidk-code-r76-trunk/apps/EeePProg/linux/../CfgParser.c ****       pCfgBDesc
 218:/home/hkh/git/eapidk-code-r76-trunk/apps/EeePProg/linux/../CfgParser.c ****     );
 1430              		.loc 1 218 6 discriminator 2 view .LVU279
 219:/home/hkh/git/eapidk-code-r76-trunk/apps/EeePProg/linux/../CfgParser.c ****   EAPI_APP_ASSERT_PARAMATER_ZERO(
 1431              		.loc 1 219 3 discriminator 2 view .LVU280
 1432 0a18 000051E3 		cmp	r1, #0
 1433 0a1c 0600000A 		beq	.L118
 1434              		.loc 1 219 3 discriminator 2 view .LVU281
 220:/home/hkh/git/eapidk-code-r76-trunk/apps/EeePProg/linux/../CfgParser.c ****       CleanStruct,
 221:/home/hkh/git/eapidk-code-r76-trunk/apps/EeePProg/linux/../CfgParser.c ****       EAPI_STATUS_INVALID_PARAMETER,
 222:/home/hkh/git/eapidk-code-r76-trunk/apps/EeePProg/linux/../CfgParser.c ****       stCfgBDescElements
 223:/home/hkh/git/eapidk-code-r76-trunk/apps/EeePProg/linux/../CfgParser.c ****     );
 1435              		.loc 1 223 6 discriminator 2 view .LVU282
 224:/home/hkh/git/eapidk-code-r76-trunk/apps/EeePProg/linux/../CfgParser.c ****   DO(CleanStruct_sub((CfgNodeGen_t*)pCfgBDesc, stCfgBDescElements, 0));
 1436              		.loc 1 224 3 discriminator 2 view .LVU283
 1437              		.loc 1 224 3 discriminator 2 view .LVU284
 1438 0a20 0020A0E3 		mov	r2, #0
 1439 0a24 FEFFFFEB 		bl	CleanStruct_sub(PLT)
 1440              	.LVL114:
 1441              		.loc 1 224 3 discriminator 2 view .LVU285
 1442 0a28 004050E2 		subs	r4, r0, #0
 1443 0a2c 1300001A 		bne	.L119
 225:/home/hkh/git/eapidk-code-r76-trunk/apps/EeePProg/linux/../CfgParser.c **** EAPI_APP_ASSERT_EXIT
 226:/home/hkh/git/eapidk-code-r76-trunk/apps/EeePProg/linux/../CfgParser.c ****   return StatusCode;
 227:/home/hkh/git/eapidk-code-r76-trunk/apps/EeePProg/linux/../CfgParser.c **** }
 1444              		.loc 1 227 1 is_stmt 0 view .LVU286
 1445 0a30 0400A0E1 		mov	r0, r4
 1446              		.loc 1 227 1 view .LVU287
ARM GAS  /tmp/ccWSR0Wc.s 			page 36


 1447 0a34 10D08DE2 		add	sp, sp, #16
 1448              		.cfi_remember_state
 1449              		.cfi_def_cfa_offset 8
 1450              		@ sp needed
 1451 0a38 1080BDE8 		pop	{r4, pc}
 1452              	.LVL115:
 1453              	.L118:
 1454              		.cfi_restore_state
 219:/home/hkh/git/eapidk-code-r76-trunk/apps/EeePProg/linux/../CfgParser.c ****       CleanStruct,
 1455              		.loc 1 219 3 is_stmt 1 discriminator 1 view .LVU288
 219:/home/hkh/git/eapidk-code-r76-trunk/apps/EeePProg/linux/../CfgParser.c ****       CleanStruct,
 1456              		.loc 1 219 3 discriminator 1 view .LVU289
 1457 0a3c A8C09FE5 		ldr	ip, .L120
 1458 0a40 014CE0E3 		mvn	r4, #256
 1459 0a44 A4009FE5 		ldr	r0, .L120+4
 1460              	.LVL116:
 219:/home/hkh/git/eapidk-code-r76-trunk/apps/EeePProg/linux/../CfgParser.c ****       CleanStruct,
 1461              		.loc 1 219 3 is_stmt 0 discriminator 1 view .LVU290
 1462 0a48 DB30A0E3 		mov	r3, #219
 1463 0a4c A0209FE5 		ldr	r2, .L120+8
 1464 0a50 A0109FE5 		ldr	r1, .L120+12
 1465              	.LVL117:
 219:/home/hkh/git/eapidk-code-r76-trunk/apps/EeePProg/linux/../CfgParser.c ****       CleanStruct,
 1466              		.loc 1 219 3 discriminator 1 view .LVU291
 1467              	.LPIC100:
 1468 0a54 0CC08FE0 		add	ip, pc, ip
 1469              	.LPIC101:
 1470 0a58 00008FE0 		add	r0, pc, r0
 1471              	.LPIC98:
 1472 0a5c 02208FE0 		add	r2, pc, r2
 1473              	.LPIC99:
 1474 0a60 01108FE0 		add	r1, pc, r1
 1475              	.L116:
 1476 0a64 01108DE9 		stmib	sp, {r0, ip}
 1477 0a68 4500A0E3 		mov	r0, #69
 1478 0a6c 00408DE5 		str	r4, [sp]
 1479 0a70 FEFFFFEB 		bl	siFormattedMessage_SC(PLT)
 1480              	.LVL118:
 219:/home/hkh/git/eapidk-code-r76-trunk/apps/EeePProg/linux/../CfgParser.c ****       CleanStruct,
 1481              		.loc 1 219 3 is_stmt 1 discriminator 1 view .LVU292
 219:/home/hkh/git/eapidk-code-r76-trunk/apps/EeePProg/linux/../CfgParser.c ****       CleanStruct,
 1482              		.loc 1 219 3 discriminator 1 view .LVU293
 219:/home/hkh/git/eapidk-code-r76-trunk/apps/EeePProg/linux/../CfgParser.c ****       CleanStruct,
 1483              		.loc 1 219 3 discriminator 1 view .LVU294
 1484              		.loc 1 227 1 is_stmt 0 discriminator 1 view .LVU295
 1485 0a74 0400A0E1 		mov	r0, r4
 1486 0a78 10D08DE2 		add	sp, sp, #16
 1487              		.cfi_remember_state
 1488              		.cfi_def_cfa_offset 8
 1489              		@ sp needed
 1490 0a7c 1080BDE8 		pop	{r4, pc}
 1491              	.LVL119:
 1492              	.L119:
 1493              		.cfi_restore_state
 1494              	.L110:
 224:/home/hkh/git/eapidk-code-r76-trunk/apps/EeePProg/linux/../CfgParser.c ****   DO(CleanStruct_sub((CfgNodeGen_t*)pCfgBDesc, stCfgBDescElements, 0));
 1495              		.loc 1 224 3 is_stmt 1 discriminator 1 view .LVU296
ARM GAS  /tmp/ccWSR0Wc.s 			page 37


 1496 0a80 74C09FE5 		ldr	ip, .L120+16
 1497 0a84 E030A0E3 		mov	r3, #224
 1498 0a88 70009FE5 		ldr	r0, .L120+20
 1499              	.LVL120:
 224:/home/hkh/git/eapidk-code-r76-trunk/apps/EeePProg/linux/../CfgParser.c ****   DO(CleanStruct_sub((CfgNodeGen_t*)pCfgBDesc, stCfgBDescElements, 0));
 1500              		.loc 1 224 3 is_stmt 0 discriminator 1 view .LVU297
 1501 0a8c 70209FE5 		ldr	r2, .L120+24
 1502 0a90 70109FE5 		ldr	r1, .L120+28
 1503              	.LPIC104:
 1504 0a94 0CC08FE0 		add	ip, pc, ip
 1505              	.LPIC105:
 1506 0a98 00008FE0 		add	r0, pc, r0
 1507 0a9c 00408DE5 		str	r4, [sp]
 1508 0aa0 01108DE9 		stmib	sp, {r0, ip}
 1509              	.LPIC102:
 1510 0aa4 02208FE0 		add	r2, pc, r2
 1511              	.LPIC103:
 1512 0aa8 01108FE0 		add	r1, pc, r1
 1513 0aac 4500A0E3 		mov	r0, #69
 1514 0ab0 FEFFFFEB 		bl	siFormattedMessage_SC(PLT)
 1515              	.LVL121:
 224:/home/hkh/git/eapidk-code-r76-trunk/apps/EeePProg/linux/../CfgParser.c ****   DO(CleanStruct_sub((CfgNodeGen_t*)pCfgBDesc, stCfgBDescElements, 0));
 1516              		.loc 1 224 3 is_stmt 1 discriminator 1 view .LVU298
 224:/home/hkh/git/eapidk-code-r76-trunk/apps/EeePProg/linux/../CfgParser.c ****   DO(CleanStruct_sub((CfgNodeGen_t*)pCfgBDesc, stCfgBDescElements, 0));
 1517              		.loc 1 224 3 discriminator 1 view .LVU299
 226:/home/hkh/git/eapidk-code-r76-trunk/apps/EeePProg/linux/../CfgParser.c **** }
 1518              		.loc 1 226 3 discriminator 1 view .LVU300
 1519              		.loc 1 227 1 is_stmt 0 discriminator 1 view .LVU301
 1520 0ab4 0400A0E1 		mov	r0, r4
 1521 0ab8 10D08DE2 		add	sp, sp, #16
 1522              		.cfi_remember_state
 1523              		.cfi_def_cfa_offset 8
 1524              		@ sp needed
 1525 0abc 1080BDE8 		pop	{r4, pc}
 1526              	.LVL122:
 1527              	.L117:
 1528              		.cfi_restore_state
 214:/home/hkh/git/eapidk-code-r76-trunk/apps/EeePProg/linux/../CfgParser.c ****       CleanStruct,
 1529              		.loc 1 214 3 is_stmt 1 discriminator 1 view .LVU302
 214:/home/hkh/git/eapidk-code-r76-trunk/apps/EeePProg/linux/../CfgParser.c ****       CleanStruct,
 1530              		.loc 1 214 3 discriminator 1 view .LVU303
 1531 0ac0 44C09FE5 		ldr	ip, .L120+32
 1532 0ac4 014CE0E3 		mvn	r4, #256
 1533 0ac8 40009FE5 		ldr	r0, .L120+36
 1534              	.LVL123:
 214:/home/hkh/git/eapidk-code-r76-trunk/apps/EeePProg/linux/../CfgParser.c ****       CleanStruct,
 1535              		.loc 1 214 3 is_stmt 0 discriminator 1 view .LVU304
 1536 0acc D630A0E3 		mov	r3, #214
 1537 0ad0 3C209FE5 		ldr	r2, .L120+40
 1538 0ad4 3C109FE5 		ldr	r1, .L120+44
 1539              	.LVL124:
 214:/home/hkh/git/eapidk-code-r76-trunk/apps/EeePProg/linux/../CfgParser.c ****       CleanStruct,
 1540              		.loc 1 214 3 discriminator 1 view .LVU305
 1541              	.LPIC96:
 1542 0ad8 0CC08FE0 		add	ip, pc, ip
 1543              	.LPIC97:
 1544 0adc 00008FE0 		add	r0, pc, r0
ARM GAS  /tmp/ccWSR0Wc.s 			page 38


 1545              	.LPIC94:
 1546 0ae0 02208FE0 		add	r2, pc, r2
 1547              	.LPIC95:
 1548 0ae4 01108FE0 		add	r1, pc, r1
 1549 0ae8 DDFFFFEA 		b	.L116
 1550              	.L121:
 1551              		.align	2
 1552              	.L120:
 1553 0aec 90000000 		.word	.LC9-(.LPIC100+8)
 1554 0af0 90000000 		.word	.LC8-(.LPIC101+8)
 1555 0af4 90000000 		.word	.LC26-(.LPIC98+8)
 1556 0af8 90000000 		.word	.LC6-(.LPIC99+8)
 1557 0afc 60000000 		.word	.LC27-(.LPIC104+8)
 1558 0b00 60000000 		.word	.LC8-(.LPIC105+8)
 1559 0b04 58000000 		.word	.LC11-(.LPIC102+8)
 1560 0b08 58000000 		.word	.LC6-(.LPIC103+8)
 1561 0b0c 2C000000 		.word	.LC7-(.LPIC96+8)
 1562 0b10 2C000000 		.word	.LC8-(.LPIC97+8)
 1563 0b14 2C000000 		.word	.LC26-(.LPIC94+8)
 1564 0b18 2C000000 		.word	.LC6-(.LPIC95+8)
 1565              		.cfi_endproc
 1566              	.LFE4:
 1568              		.section	.rodata.str1.4
 1569 0549 000000   		.align	2
 1570              	.LC28:
 1571 054c 47657445 		.ascii	"GetElementDesc\000"
 1571      6C656D65 
 1571      6E744465 
 1571      736300
 1572 055b 00       		.align	2
 1573              	.LC29:
 1574 055c 28704465 		.ascii	"(pDesc==NULL)\000"
 1574      73633D3D 
 1574      4E554C4C 
 1574      2900
 1575 056a 0000     		.align	2
 1576              	.LC30:
 1577 056c 2870704E 		.ascii	"(ppNodeDesc==NULL)\000"
 1577      6F646544 
 1577      6573633D 
 1577      3D4E554C 
 1577      4C2900
 1578 057f 00       		.align	2
 1579              	.LC31:
 1580 0580 2863737A 		.ascii	"(cszElementName==NULL)\000"
 1580      456C656D 
 1580      656E744E 
 1580      616D653D 
 1580      3D4E554C 
 1581              		.text
 1582              		.align	2
 1583              		.global	GetElementDesc
 1584              		.syntax unified
 1585              		.arm
 1586              		.fpu vfpv3
 1588              	GetElementDesc:
 1589              	.LVL125:
ARM GAS  /tmp/ccWSR0Wc.s 			page 39


 1590              	.LFB5:
 228:/home/hkh/git/eapidk-code-r76-trunk/apps/EeePProg/linux/../CfgParser.c **** EApiStatus_t
 229:/home/hkh/git/eapidk-code-r76-trunk/apps/EeePProg/linux/../CfgParser.c **** GetElementDesc(
 230:/home/hkh/git/eapidk-code-r76-trunk/apps/EeePProg/linux/../CfgParser.c ****     __IN  CfgNodeGen_t   *pDesc         ,
 231:/home/hkh/git/eapidk-code-r76-trunk/apps/EeePProg/linux/../CfgParser.c ****     __OUT CfgNodeGen_t  **ppNodeDesc    ,
 232:/home/hkh/git/eapidk-code-r76-trunk/apps/EeePProg/linux/../CfgParser.c ****     __IN  const char     *cszElementName,
 233:/home/hkh/git/eapidk-code-r76-trunk/apps/EeePProg/linux/../CfgParser.c ****     __IN  NodeTypes_t     NodeType
 234:/home/hkh/git/eapidk-code-r76-trunk/apps/EeePProg/linux/../CfgParser.c ****   )
 235:/home/hkh/git/eapidk-code-r76-trunk/apps/EeePProg/linux/../CfgParser.c **** {
 1591              		.loc 1 235 1 is_stmt 1 view -0
 1592              		.cfi_startproc
 1593              		@ args = 0, pretend = 0, frame = 0
 1594              		@ frame_needed = 0, uses_anonymous_args = 0
 236:/home/hkh/git/eapidk-code-r76-trunk/apps/EeePProg/linux/../CfgParser.c ****   EApiStatus_t StatusCode=EAPI_STATUS_NOT_FOUND;
 1595              		.loc 1 236 3 view .LVU307
 237:/home/hkh/git/eapidk-code-r76-trunk/apps/EeePProg/linux/../CfgParser.c ****   CfgNodeGen_t     *pNodeDesc;
 1596              		.loc 1 237 3 view .LVU308
 238:/home/hkh/git/eapidk-code-r76-trunk/apps/EeePProg/linux/../CfgParser.c ****   int   i;
 1597              		.loc 1 238 3 view .LVU309
 239:/home/hkh/git/eapidk-code-r76-trunk/apps/EeePProg/linux/../CfgParser.c **** 
 240:/home/hkh/git/eapidk-code-r76-trunk/apps/EeePProg/linux/../CfgParser.c ****   EAPI_APP_ASSERT_PARAMATER_NULL(
 1598              		.loc 1 240 3 view .LVU310
 1599 0b1c 000050E3 		cmp	r0, #0
 235:/home/hkh/git/eapidk-code-r76-trunk/apps/EeePProg/linux/../CfgParser.c ****   EApiStatus_t StatusCode=EAPI_STATUS_NOT_FOUND;
 1600              		.loc 1 235 1 is_stmt 0 view .LVU311
 1601 0b20 F0412DE9 		push	{r4, r5, r6, r7, r8, lr}
 1602              		.cfi_def_cfa_offset 24
 1603              		.cfi_offset 4, -24
 1604              		.cfi_offset 5, -20
 1605              		.cfi_offset 6, -16
 1606              		.cfi_offset 7, -12
 1607              		.cfi_offset 8, -8
 1608              		.cfi_offset 14, -4
 1609 0b24 10D04DE2 		sub	sp, sp, #16
 1610              		.cfi_def_cfa_offset 40
 1611              		.loc 1 240 3 view .LVU312
 1612 0b28 1E00000A 		beq	.L133
 241:/home/hkh/git/eapidk-code-r76-trunk/apps/EeePProg/linux/../CfgParser.c ****         GetElementDesc,
 242:/home/hkh/git/eapidk-code-r76-trunk/apps/EeePProg/linux/../CfgParser.c ****         EAPI_STATUS_INVALID_PARAMETER,
 243:/home/hkh/git/eapidk-code-r76-trunk/apps/EeePProg/linux/../CfgParser.c ****         pDesc
 244:/home/hkh/git/eapidk-code-r76-trunk/apps/EeePProg/linux/../CfgParser.c ****       );
 245:/home/hkh/git/eapidk-code-r76-trunk/apps/EeePProg/linux/../CfgParser.c ****   EAPI_APP_ASSERT_PARAMATER_NULL(
 1613              		.loc 1 245 3 discriminator 2 view .LVU313
 1614 0b2c 000051E3 		cmp	r1, #0
 1615 0b30 0170A0E1 		mov	r7, r1
 240:/home/hkh/git/eapidk-code-r76-trunk/apps/EeePProg/linux/../CfgParser.c ****         GetElementDesc,
 1616              		.loc 1 240 3 is_stmt 1 discriminator 2 view .LVU314
 244:/home/hkh/git/eapidk-code-r76-trunk/apps/EeePProg/linux/../CfgParser.c ****   EAPI_APP_ASSERT_PARAMATER_NULL(
 1617              		.loc 1 244 8 discriminator 2 view .LVU315
 1618              		.loc 1 245 3 discriminator 2 view .LVU316
 1619 0b34 2C00000A 		beq	.L134
 246:/home/hkh/git/eapidk-code-r76-trunk/apps/EeePProg/linux/../CfgParser.c ****         GetElementDesc,
 247:/home/hkh/git/eapidk-code-r76-trunk/apps/EeePProg/linux/../CfgParser.c ****         EAPI_STATUS_INVALID_PARAMETER,
 248:/home/hkh/git/eapidk-code-r76-trunk/apps/EeePProg/linux/../CfgParser.c ****         ppNodeDesc
 249:/home/hkh/git/eapidk-code-r76-trunk/apps/EeePProg/linux/../CfgParser.c ****       );
 250:/home/hkh/git/eapidk-code-r76-trunk/apps/EeePProg/linux/../CfgParser.c ****   EAPI_APP_ASSERT_PARAMATER_NULL(
 1620              		.loc 1 250 3 is_stmt 0 discriminator 2 view .LVU317
ARM GAS  /tmp/ccWSR0Wc.s 			page 40


 1621 0b38 000052E3 		cmp	r2, #0
 1622 0b3c 0280A0E1 		mov	r8, r2
 245:/home/hkh/git/eapidk-code-r76-trunk/apps/EeePProg/linux/../CfgParser.c ****         GetElementDesc,
 1623              		.loc 1 245 3 is_stmt 1 discriminator 2 view .LVU318
 249:/home/hkh/git/eapidk-code-r76-trunk/apps/EeePProg/linux/../CfgParser.c ****   EAPI_APP_ASSERT_PARAMATER_NULL(
 1624              		.loc 1 249 8 discriminator 2 view .LVU319
 1625              		.loc 1 250 3 discriminator 2 view .LVU320
 1626 0b40 3400000A 		beq	.L135
 1627 0b44 0360A0E1 		mov	r6, r3
 1628              		.loc 1 250 3 discriminator 2 view .LVU321
 251:/home/hkh/git/eapidk-code-r76-trunk/apps/EeePProg/linux/../CfgParser.c ****         GetElementDesc,
 252:/home/hkh/git/eapidk-code-r76-trunk/apps/EeePProg/linux/../CfgParser.c ****         EAPI_STATUS_INVALID_PARAMETER,
 253:/home/hkh/git/eapidk-code-r76-trunk/apps/EeePProg/linux/../CfgParser.c ****         cszElementName
 254:/home/hkh/git/eapidk-code-r76-trunk/apps/EeePProg/linux/../CfgParser.c ****       );
 1629              		.loc 1 254 8 discriminator 2 view .LVU322
 255:/home/hkh/git/eapidk-code-r76-trunk/apps/EeePProg/linux/../CfgParser.c ****   *ppNodeDesc=NULL;
 1630              		.loc 1 255 3 discriminator 2 view .LVU323
 1631              		.loc 1 255 14 is_stmt 0 discriminator 2 view .LVU324
 1632 0b48 0030A0E3 		mov	r3, #0
 1633              	.LVL126:
 1634              		.loc 1 255 14 discriminator 2 view .LVU325
 1635 0b4c 003081E5 		str	r3, [r1]
 256:/home/hkh/git/eapidk-code-r76-trunk/apps/EeePProg/linux/../CfgParser.c ****   for(
 1636              		.loc 1 256 3 is_stmt 1 discriminator 2 view .LVU326
 257:/home/hkh/git/eapidk-code-r76-trunk/apps/EeePProg/linux/../CfgParser.c ****       i=(int)pDesc->Block.Elements.stUsedCnt,
 1637              		.loc 1 257 35 is_stmt 0 discriminator 2 view .LVU327
 1638 0b50 0C5090E5 		ldr	r5, [r0, #12]
 1639              	.LVL127:
 258:/home/hkh/git/eapidk-code-r76-trunk/apps/EeePProg/linux/../CfgParser.c ****       pNodeDesc=pDesc->Block.Elements.pIndx;
 1640              		.loc 1 258 16 discriminator 2 view .LVU328
 1641 0b54 1C4090E5 		ldr	r4, [r0, #28]
 1642              	.LVL128:
 259:/home/hkh/git/eapidk-code-r76-trunk/apps/EeePProg/linux/../CfgParser.c ****       i--;
 1643              		.loc 1 259 7 is_stmt 1 discriminator 2 view .LVU329
 1644              		.loc 1 259 7 is_stmt 0 discriminator 2 view .LVU330
 1645 0b58 030055E1 		cmp	r5, r3
 1646 0b5c 0300001A 		bne	.L128
 1647 0b60 0D0000EA 		b	.L129
 1648              	.LVL129:
 1649              	.L127:
 260:/home/hkh/git/eapidk-code-r76-trunk/apps/EeePProg/linux/../CfgParser.c ****       pNodeDesc++
 1650              		.loc 1 260 16 is_stmt 1 view .LVU331
 259:/home/hkh/git/eapidk-code-r76-trunk/apps/EeePProg/linux/../CfgParser.c ****       i--;
 1651              		.loc 1 259 7 is_stmt 0 view .LVU332
 1652 0b64 015055E2 		subs	r5, r5, #1
 1653              	.LVL130:
 1654              		.loc 1 260 16 view .LVU333
 1655 0b68 384084E2 		add	r4, r4, #56
 1656              	.LVL131:
 259:/home/hkh/git/eapidk-code-r76-trunk/apps/EeePProg/linux/../CfgParser.c ****       i--;
 1657              		.loc 1 259 7 is_stmt 1 view .LVU334
 259:/home/hkh/git/eapidk-code-r76-trunk/apps/EeePProg/linux/../CfgParser.c ****       i--;
 1658              		.loc 1 259 7 is_stmt 0 view .LVU335
 1659 0b6c 0A00000A 		beq	.L129
 1660              	.L128:
 1661              	.LVL132:
 261:/home/hkh/git/eapidk-code-r76-trunk/apps/EeePProg/linux/../CfgParser.c ****       )
ARM GAS  /tmp/ccWSR0Wc.s 			page 41


 262:/home/hkh/git/eapidk-code-r76-trunk/apps/EeePProg/linux/../CfgParser.c ****   {
 263:/home/hkh/git/eapidk-code-r76-trunk/apps/EeePProg/linux/../CfgParser.c **** 
 264:/home/hkh/git/eapidk-code-r76-trunk/apps/EeePProg/linux/../CfgParser.c ****     if(pNodeDesc->Element.NodeType==NodeType){
 1662              		.loc 1 264 5 is_stmt 1 view .LVU336
 1663              		.loc 1 264 7 is_stmt 0 view .LVU337
 1664 0b70 00C094E5 		ldr	ip, [r4]
 1665 0b74 06005CE1 		cmp	ip, r6
 1666 0b78 F9FFFF1A 		bne	.L127
 265:/home/hkh/git/eapidk-code-r76-trunk/apps/EeePProg/linux/../CfgParser.c ****       if(!strcmp(cszElementName, pNodeDesc->Element.pcszElementName))
 1667              		.loc 1 265 7 is_stmt 1 view .LVU338
 1668              		.loc 1 265 11 is_stmt 0 view .LVU339
 1669 0b7c 041094E5 		ldr	r1, [r4, #4]
 1670 0b80 0800A0E1 		mov	r0, r8
 1671 0b84 FEFFFFEB 		bl	strcmp(PLT)
 1672              	.LVL133:
 1673              		.loc 1 265 9 view .LVU340
 1674 0b88 000050E3 		cmp	r0, #0
 1675 0b8c F4FFFF1A 		bne	.L127
 266:/home/hkh/git/eapidk-code-r76-trunk/apps/EeePProg/linux/../CfgParser.c ****       {
 267:/home/hkh/git/eapidk-code-r76-trunk/apps/EeePProg/linux/../CfgParser.c ****         *ppNodeDesc=pNodeDesc;
 1676              		.loc 1 267 9 is_stmt 1 view .LVU341
 1677              		.loc 1 267 20 is_stmt 0 view .LVU342
 1678 0b90 004087E5 		str	r4, [r7]
 268:/home/hkh/git/eapidk-code-r76-trunk/apps/EeePProg/linux/../CfgParser.c ****         StatusCode=EAPI_STATUS_SUCCESS;
 1679              		.loc 1 268 9 is_stmt 1 view .LVU343
 1680              	.LVL134:
 269:/home/hkh/git/eapidk-code-r76-trunk/apps/EeePProg/linux/../CfgParser.c ****         break;
 1681              		.loc 1 269 9 view .LVU344
 270:/home/hkh/git/eapidk-code-r76-trunk/apps/EeePProg/linux/../CfgParser.c ****       }
 271:/home/hkh/git/eapidk-code-r76-trunk/apps/EeePProg/linux/../CfgParser.c ****     }
 272:/home/hkh/git/eapidk-code-r76-trunk/apps/EeePProg/linux/../CfgParser.c ****   }
 273:/home/hkh/git/eapidk-code-r76-trunk/apps/EeePProg/linux/../CfgParser.c **** 
 274:/home/hkh/git/eapidk-code-r76-trunk/apps/EeePProg/linux/../CfgParser.c **** EAPI_APP_ASSERT_EXIT
 275:/home/hkh/git/eapidk-code-r76-trunk/apps/EeePProg/linux/../CfgParser.c ****   return StatusCode;
 276:/home/hkh/git/eapidk-code-r76-trunk/apps/EeePProg/linux/../CfgParser.c **** }
 1682              		.loc 1 276 1 is_stmt 0 view .LVU345
 1683 0b94 10D08DE2 		add	sp, sp, #16
 1684              		.cfi_remember_state
 1685              		.cfi_def_cfa_offset 24
 1686              		@ sp needed
 1687 0b98 F081BDE8 		pop	{r4, r5, r6, r7, r8, pc}
 1688              	.LVL135:
 1689              	.L129:
 1690              		.cfi_restore_state
 1691              	.L124:
 236:/home/hkh/git/eapidk-code-r76-trunk/apps/EeePProg/linux/../CfgParser.c ****   CfgNodeGen_t     *pNodeDesc;
 1692              		.loc 1 236 16 view .LVU346
 1693 0b9c 010BE0E3 		mvn	r0, #1024
 275:/home/hkh/git/eapidk-code-r76-trunk/apps/EeePProg/linux/../CfgParser.c **** }
 1694              		.loc 1 275 3 is_stmt 1 view .LVU347
 1695              		.loc 1 276 1 is_stmt 0 view .LVU348
 1696 0ba0 10D08DE2 		add	sp, sp, #16
 1697              		.cfi_remember_state
 1698              		.cfi_def_cfa_offset 24
 1699              		@ sp needed
 1700 0ba4 F081BDE8 		pop	{r4, r5, r6, r7, r8, pc}
 1701              	.LVL136:
ARM GAS  /tmp/ccWSR0Wc.s 			page 42


 1702              	.L133:
 1703              		.cfi_restore_state
 240:/home/hkh/git/eapidk-code-r76-trunk/apps/EeePProg/linux/../CfgParser.c ****         GetElementDesc,
 1704              		.loc 1 240 3 is_stmt 1 discriminator 1 view .LVU349
 240:/home/hkh/git/eapidk-code-r76-trunk/apps/EeePProg/linux/../CfgParser.c ****         GetElementDesc,
 1705              		.loc 1 240 3 discriminator 1 view .LVU350
 1706 0ba8 94C09FE5 		ldr	ip, .L136
 1707 0bac 014CE0E3 		mvn	r4, #256
 1708 0bb0 90009FE5 		ldr	r0, .L136+4
 1709              	.LVL137:
 240:/home/hkh/git/eapidk-code-r76-trunk/apps/EeePProg/linux/../CfgParser.c ****         GetElementDesc,
 1710              		.loc 1 240 3 is_stmt 0 discriminator 1 view .LVU351
 1711 0bb4 F030A0E3 		mov	r3, #240
 1712              	.LVL138:
 240:/home/hkh/git/eapidk-code-r76-trunk/apps/EeePProg/linux/../CfgParser.c ****         GetElementDesc,
 1713              		.loc 1 240 3 discriminator 1 view .LVU352
 1714 0bb8 8C209FE5 		ldr	r2, .L136+8
 1715              	.LVL139:
 240:/home/hkh/git/eapidk-code-r76-trunk/apps/EeePProg/linux/../CfgParser.c ****         GetElementDesc,
 1716              		.loc 1 240 3 discriminator 1 view .LVU353
 1717 0bbc 8C109FE5 		ldr	r1, .L136+12
 1718              	.LVL140:
 240:/home/hkh/git/eapidk-code-r76-trunk/apps/EeePProg/linux/../CfgParser.c ****         GetElementDesc,
 1719              		.loc 1 240 3 discriminator 1 view .LVU354
 1720              	.LPIC108:
 1721 0bc0 0CC08FE0 		add	ip, pc, ip
 1722              	.LPIC109:
 1723 0bc4 00008FE0 		add	r0, pc, r0
 1724              	.LPIC106:
 1725 0bc8 02208FE0 		add	r2, pc, r2
 1726              	.LPIC107:
 1727 0bcc 01108FE0 		add	r1, pc, r1
 1728              	.L132:
 245:/home/hkh/git/eapidk-code-r76-trunk/apps/EeePProg/linux/../CfgParser.c ****         GetElementDesc,
 1729              		.loc 1 245 3 discriminator 1 view .LVU355
 1730 0bd0 01108DE9 		stmib	sp, {r0, ip}
 1731 0bd4 4500A0E3 		mov	r0, #69
 1732 0bd8 00408DE5 		str	r4, [sp]
 1733 0bdc FEFFFFEB 		bl	siFormattedMessage_SC(PLT)
 1734              	.LVL141:
 245:/home/hkh/git/eapidk-code-r76-trunk/apps/EeePProg/linux/../CfgParser.c ****         GetElementDesc,
 1735              		.loc 1 245 3 is_stmt 1 discriminator 1 view .LVU356
 245:/home/hkh/git/eapidk-code-r76-trunk/apps/EeePProg/linux/../CfgParser.c ****         GetElementDesc,
 1736              		.loc 1 245 3 discriminator 1 view .LVU357
 245:/home/hkh/git/eapidk-code-r76-trunk/apps/EeePProg/linux/../CfgParser.c ****         GetElementDesc,
 1737              		.loc 1 245 3 discriminator 1 view .LVU358
 1738 0be0 0400A0E1 		mov	r0, r4
 1739              		.loc 1 276 1 is_stmt 0 discriminator 1 view .LVU359
 1740 0be4 10D08DE2 		add	sp, sp, #16
 1741              		.cfi_remember_state
 1742              		.cfi_def_cfa_offset 24
 1743              		@ sp needed
 1744 0be8 F081BDE8 		pop	{r4, r5, r6, r7, r8, pc}
 1745              	.LVL142:
 1746              	.L134:
 1747              		.cfi_restore_state
 245:/home/hkh/git/eapidk-code-r76-trunk/apps/EeePProg/linux/../CfgParser.c ****         GetElementDesc,
ARM GAS  /tmp/ccWSR0Wc.s 			page 43


 1748              		.loc 1 245 3 is_stmt 1 discriminator 1 view .LVU360
 245:/home/hkh/git/eapidk-code-r76-trunk/apps/EeePProg/linux/../CfgParser.c ****         GetElementDesc,
 1749              		.loc 1 245 3 discriminator 1 view .LVU361
 1750 0bec 60C09FE5 		ldr	ip, .L136+16
 1751 0bf0 014CE0E3 		mvn	r4, #256
 1752 0bf4 5C009FE5 		ldr	r0, .L136+20
 1753              	.LVL143:
 245:/home/hkh/git/eapidk-code-r76-trunk/apps/EeePProg/linux/../CfgParser.c ****         GetElementDesc,
 1754              		.loc 1 245 3 is_stmt 0 discriminator 1 view .LVU362
 1755 0bf8 F530A0E3 		mov	r3, #245
 1756              	.LVL144:
 245:/home/hkh/git/eapidk-code-r76-trunk/apps/EeePProg/linux/../CfgParser.c ****         GetElementDesc,
 1757              		.loc 1 245 3 discriminator 1 view .LVU363
 1758 0bfc 58209FE5 		ldr	r2, .L136+24
 1759              	.LVL145:
 245:/home/hkh/git/eapidk-code-r76-trunk/apps/EeePProg/linux/../CfgParser.c ****         GetElementDesc,
 1760              		.loc 1 245 3 discriminator 1 view .LVU364
 1761 0c00 58109FE5 		ldr	r1, .L136+28
 1762              	.LVL146:
 245:/home/hkh/git/eapidk-code-r76-trunk/apps/EeePProg/linux/../CfgParser.c ****         GetElementDesc,
 1763              		.loc 1 245 3 discriminator 1 view .LVU365
 1764              	.LPIC112:
 1765 0c04 0CC08FE0 		add	ip, pc, ip
 1766              	.LPIC113:
 1767 0c08 00008FE0 		add	r0, pc, r0
 1768              	.LPIC110:
 1769 0c0c 02208FE0 		add	r2, pc, r2
 1770              	.LPIC111:
 1771 0c10 01108FE0 		add	r1, pc, r1
 1772 0c14 EDFFFFEA 		b	.L132
 1773              	.LVL147:
 1774              	.L135:
 250:/home/hkh/git/eapidk-code-r76-trunk/apps/EeePProg/linux/../CfgParser.c ****         GetElementDesc,
 1775              		.loc 1 250 3 is_stmt 1 discriminator 1 view .LVU366
 250:/home/hkh/git/eapidk-code-r76-trunk/apps/EeePProg/linux/../CfgParser.c ****         GetElementDesc,
 1776              		.loc 1 250 3 discriminator 1 view .LVU367
 1777 0c18 44C09FE5 		ldr	ip, .L136+32
 1778 0c1c 014CE0E3 		mvn	r4, #256
 1779 0c20 40009FE5 		ldr	r0, .L136+36
 1780              	.LVL148:
 250:/home/hkh/git/eapidk-code-r76-trunk/apps/EeePProg/linux/../CfgParser.c ****         GetElementDesc,
 1781              		.loc 1 250 3 is_stmt 0 discriminator 1 view .LVU368
 1782 0c24 FA30A0E3 		mov	r3, #250
 1783              	.LVL149:
 250:/home/hkh/git/eapidk-code-r76-trunk/apps/EeePProg/linux/../CfgParser.c ****         GetElementDesc,
 1784              		.loc 1 250 3 discriminator 1 view .LVU369
 1785 0c28 3C209FE5 		ldr	r2, .L136+40
 1786              	.LVL150:
 250:/home/hkh/git/eapidk-code-r76-trunk/apps/EeePProg/linux/../CfgParser.c ****         GetElementDesc,
 1787              		.loc 1 250 3 discriminator 1 view .LVU370
 1788 0c2c 3C109FE5 		ldr	r1, .L136+44
 1789              	.LVL151:
 250:/home/hkh/git/eapidk-code-r76-trunk/apps/EeePProg/linux/../CfgParser.c ****         GetElementDesc,
 1790              		.loc 1 250 3 discriminator 1 view .LVU371
 1791              	.LPIC116:
 1792 0c30 0CC08FE0 		add	ip, pc, ip
 1793              	.LPIC117:
ARM GAS  /tmp/ccWSR0Wc.s 			page 44


 1794 0c34 00008FE0 		add	r0, pc, r0
 1795              	.LPIC114:
 1796 0c38 02208FE0 		add	r2, pc, r2
 1797              	.LPIC115:
 1798 0c3c 01108FE0 		add	r1, pc, r1
 1799 0c40 E2FFFFEA 		b	.L132
 1800              	.L137:
 1801              		.align	2
 1802              	.L136:
 1803 0c44 7C000000 		.word	.LC29-(.LPIC108+8)
 1804 0c48 7C000000 		.word	.LC8-(.LPIC109+8)
 1805 0c4c 7C000000 		.word	.LC28-(.LPIC106+8)
 1806 0c50 7C000000 		.word	.LC6-(.LPIC107+8)
 1807 0c54 48000000 		.word	.LC30-(.LPIC112+8)
 1808 0c58 48000000 		.word	.LC8-(.LPIC113+8)
 1809 0c5c 48000000 		.word	.LC28-(.LPIC110+8)
 1810 0c60 48000000 		.word	.LC6-(.LPIC111+8)
 1811 0c64 2C000000 		.word	.LC31-(.LPIC116+8)
 1812 0c68 2C000000 		.word	.LC8-(.LPIC117+8)
 1813 0c6c 2C000000 		.word	.LC28-(.LPIC114+8)
 1814 0c70 2C000000 		.word	.LC6-(.LPIC115+8)
 1815              		.cfi_endproc
 1816              	.LFE5:
 1818              		.section	.rodata.str1.4
 1819 0597 00       		.align	2
 1820              	.LC32:
 1821 0598 50617273 		.ascii	"ParseCfgFile_sub\000"
 1821      65436667 
 1821      46696C65 
 1821      5F737562 
 1821      00
 1822 05a9 000000   		.align	2
 1823              	.LC33:
 1824 05ac 3B230A0D 		.ascii	";#\012\015\000"
 1824      00
 1825 05b1 000000   		.align	2
 1826              	.LC34:
 1827 05b4 5D00     		.ascii	"]\000"
 1828 05b6 0000     		.align	2
 1829              	.LC35:
 1830 05b8 28253034 		.ascii	"(%04lu)%s\012\000"
 1830      6C752925 
 1830      730A00
 1831 05c3 00       		.align	2
 1832              	.LC36:
 1833 05c4 45787065 		.ascii	"Expected '[/%s]' Got (%lu)'[/%s]'\012\000"
 1833      63746564 
 1833      20275B2F 
 1833      25735D27 
 1833      20476F74 
 1834 05e7 00       		.align	2
 1835              	.LC37:
 1836 05e8 4D697373 		.ascii	"Missing Required Block '%s' in Block (%lu)'%s'\012\000"
 1836      696E6720 
 1836      52657175 
 1836      69726564 
 1836      20426C6F 
ARM GAS  /tmp/ccWSR0Wc.s 			page 45


 1837              		.align	2
 1838              	.LC38:
 1839 0618 4D697373 		.ascii	"Missing Required Element '%s' in Block (%lu)'%s'\012"
 1839      696E6720 
 1839      52657175 
 1839      69726564 
 1839      20456C65 
 1840 0649 00       		.ascii	"\000"
 1841 064a 0000     		.align	2
 1842              	.LC39:
 1843 064c 50617273 		.ascii	"ParseCfgFile_sub(pCtxt, pCurBlockDesc, stRequired&&"
 1843      65436667 
 1843      46696C65 
 1843      5F737562 
 1843      28704374 
 1844 067f 70437572 		.ascii	"pCurBlockDesc->Block.cuiRequired)\000"
 1844      426C6F63 
 1844      6B446573 
 1844      632D3E42 
 1844      6C6F636B 
 1845 06a1 000000   		.align	2
 1846              	.LC40:
 1847 06a4 556E6B6E 		.ascii	"Unknown Block on line %li, '%s'\012\000"
 1847      6F776E20 
 1847      426C6F63 
 1847      6B206F6E 
 1847      206C696E 
 1848 06c5 000000   		.align	2
 1849              	.LC41:
 1850 06c8 28253034 		.ascii	"(%04lu) : %s\012\000"
 1850      6C752920 
 1850      3A202573 
 1850      0A00
 1851 06d6 0000     		.align	2
 1852              	.LC42:
 1853 06d8 496E7661 		.ascii	"Invalid Line\000"
 1853      6C696420 
 1853      4C696E65 
 1853      00
 1854 06e5 000000   		.align	2
 1855              	.LC43:
 1856 06e8 4552524F 		.ascii	"ERROR Too Many Instances of %s at line %li\012\000"
 1856      5220546F 
 1856      6F204D61 
 1856      6E792049 
 1856      6E737461 
 1857              		.align	2
 1858              	.LC44:
 1859 0714 4552524F 		.ascii	"ERROR Parsing Line %li, %s\012\000"
 1859      52205061 
 1859      7273696E 
 1859      67204C69 
 1859      6E652025 
 1860              		.align	2
 1861              	.LC45:
 1862 0730 556E6B6E 		.ascii	"Unknown Block Element on line %li, '%s'\012\000"
 1862      6F776E20 
ARM GAS  /tmp/ccWSR0Wc.s 			page 46


 1862      426C6F63 
 1862      6B20456C 
 1862      656D656E 
 1863              		.text
 1864              		.align	2
 1865              		.global	ParseCfgFile_sub
 1866              		.syntax unified
 1867              		.arm
 1868              		.fpu vfpv3
 1870              	ParseCfgFile_sub:
 1871              	.LVL152:
 1872              	.LFB6:
 277:/home/hkh/git/eapidk-code-r76-trunk/apps/EeePProg/linux/../CfgParser.c **** 
 278:/home/hkh/git/eapidk-code-r76-trunk/apps/EeePProg/linux/../CfgParser.c **** #define MAX_LINE_LEN 2048
 279:/home/hkh/git/eapidk-code-r76-trunk/apps/EeePProg/linux/../CfgParser.c **** typedef struct ParseCfgContext_s{
 280:/home/hkh/git/eapidk-code-r76-trunk/apps/EeePProg/linux/../CfgParser.c ****   const char *pcszCfgFileName;
 281:/home/hkh/git/eapidk-code-r76-trunk/apps/EeePProg/linux/../CfgParser.c ****   FILE *pCfgFile;
 282:/home/hkh/git/eapidk-code-r76-trunk/apps/EeePProg/linux/../CfgParser.c ****   unsigned long ulLineNum;
 283:/home/hkh/git/eapidk-code-r76-trunk/apps/EeePProg/linux/../CfgParser.c ****   unsigned long ulDepth;
 284:/home/hkh/git/eapidk-code-r76-trunk/apps/EeePProg/linux/../CfgParser.c ****   char LineBuffer[MAX_LINE_LEN];
 285:/home/hkh/git/eapidk-code-r76-trunk/apps/EeePProg/linux/../CfgParser.c **** }ParseCfgContext_t;
 286:/home/hkh/git/eapidk-code-r76-trunk/apps/EeePProg/linux/../CfgParser.c **** 
 287:/home/hkh/git/eapidk-code-r76-trunk/apps/EeePProg/linux/../CfgParser.c **** EApiStatus_t
 288:/home/hkh/git/eapidk-code-r76-trunk/apps/EeePProg/linux/../CfgParser.c **** ParseCfgFile_sub(
 289:/home/hkh/git/eapidk-code-r76-trunk/apps/EeePProg/linux/../CfgParser.c ****     __IN    ParseCfgContext_t *pCtxt              ,
 290:/home/hkh/git/eapidk-code-r76-trunk/apps/EeePProg/linux/../CfgParser.c ****     __INOUT CfgNodeGen_t      *pCfgBDesc          ,
 291:/home/hkh/git/eapidk-code-r76-trunk/apps/EeePProg/linux/../CfgParser.c ****     __IN    size_t             stRequired
 292:/home/hkh/git/eapidk-code-r76-trunk/apps/EeePProg/linux/../CfgParser.c ****     )
 293:/home/hkh/git/eapidk-code-r76-trunk/apps/EeePProg/linux/../CfgParser.c **** {
 1873              		.loc 1 293 1 is_stmt 1 view -0
 1874              		.cfi_startproc
 1875              		@ args = 0, pretend = 0, frame = 32
 1876              		@ frame_needed = 0, uses_anonymous_args = 0
 294:/home/hkh/git/eapidk-code-r76-trunk/apps/EeePProg/linux/../CfgParser.c ****   EApiStatus_t StatusCode=EAPI_STATUS_SUCCESS;
 295:/home/hkh/git/eapidk-code-r76-trunk/apps/EeePProg/linux/../CfgParser.c ****   char *szName;
 296:/home/hkh/git/eapidk-code-r76-trunk/apps/EeePProg/linux/../CfgParser.c ****   char *szValue;
 297:/home/hkh/git/eapidk-code-r76-trunk/apps/EeePProg/linux/../CfgParser.c ****   size_t i;
 298:/home/hkh/git/eapidk-code-r76-trunk/apps/EeePProg/linux/../CfgParser.c ****   unsigned long ulBlockStartLine=pCtxt->ulLineNum;
 1877              		.loc 1 298 17 is_stmt 0 view .LVU373
 1878 0c74 083090E5 		ldr	r3, [r0, #8]
 293:/home/hkh/git/eapidk-code-r76-trunk/apps/EeePProg/linux/../CfgParser.c ****   EApiStatus_t StatusCode=EAPI_STATUS_SUCCESS;
 1879              		.loc 1 293 1 view .LVU374
 1880 0c78 F04F2DE9 		push	{r4, r5, r6, r7, r8, r9, r10, fp, lr}
 1881              		.cfi_def_cfa_offset 36
 1882              		.cfi_offset 4, -36
 1883              		.cfi_offset 5, -32
 1884              		.cfi_offset 6, -28
 1885              		.cfi_offset 7, -24
 1886              		.cfi_offset 8, -20
 1887              		.cfi_offset 9, -16
 1888              		.cfi_offset 10, -12
 1889              		.cfi_offset 11, -8
 1890              		.cfi_offset 14, -4
 1891 0c7c 3CD04DE2 		sub	sp, sp, #60
 1892              		.cfi_def_cfa_offset 96
 293:/home/hkh/git/eapidk-code-r76-trunk/apps/EeePProg/linux/../CfgParser.c ****   EApiStatus_t StatusCode=EAPI_STATUS_SUCCESS;
 1893              		.loc 1 293 1 view .LVU375
ARM GAS  /tmp/ccWSR0Wc.s 			page 47


 1894 0c80 1C208DE5 		str	r2, [sp, #28]
 299:/home/hkh/git/eapidk-code-r76-trunk/apps/EeePProg/linux/../CfgParser.c ****   CfgNodeGen_t *pCurElement;
 300:/home/hkh/git/eapidk-code-r76-trunk/apps/EeePProg/linux/../CfgParser.c **** 
 301:/home/hkh/git/eapidk-code-r76-trunk/apps/EeePProg/linux/../CfgParser.c ****   EAPI_APP_ASSERT_PARAMATER_NULL(
 302:/home/hkh/git/eapidk-code-r76-trunk/apps/EeePProg/linux/../CfgParser.c ****         ParseCfgFile_sub,
 303:/home/hkh/git/eapidk-code-r76-trunk/apps/EeePProg/linux/../CfgParser.c ****         EAPI_STATUS_INVALID_PARAMETER,
 304:/home/hkh/git/eapidk-code-r76-trunk/apps/EeePProg/linux/../CfgParser.c ****         pCtxt
 305:/home/hkh/git/eapidk-code-r76-trunk/apps/EeePProg/linux/../CfgParser.c ****       );
 306:/home/hkh/git/eapidk-code-r76-trunk/apps/EeePProg/linux/../CfgParser.c ****   EAPI_APP_ASSERT_PARAMATER_NULL(
 1895              		.loc 1 306 3 view .LVU376
 1896 0c84 008051E2 		subs	r8, r1, #0
 293:/home/hkh/git/eapidk-code-r76-trunk/apps/EeePProg/linux/../CfgParser.c ****   EApiStatus_t StatusCode=EAPI_STATUS_SUCCESS;
 1897              		.loc 1 293 1 view .LVU377
 1898 0c88 0040A0E1 		mov	r4, r0
 1899 0c8c 90259FE5 		ldr	r2, .L195
 1900              	.LVL153:
 298:/home/hkh/git/eapidk-code-r76-trunk/apps/EeePProg/linux/../CfgParser.c ****   CfgNodeGen_t *pCurElement;
 1901              		.loc 1 298 17 view .LVU378
 1902 0c90 24308DE5 		str	r3, [sp, #36]
 293:/home/hkh/git/eapidk-code-r76-trunk/apps/EeePProg/linux/../CfgParser.c ****   EApiStatus_t StatusCode=EAPI_STATUS_SUCCESS;
 1903              		.loc 1 293 1 view .LVU379
 1904 0c94 8C359FE5 		ldr	r3, .L195+4
 1905              	.LPIC157:
 1906 0c98 02208FE0 		add	r2, pc, r2
 1907 0c9c 033092E7 		ldr	r3, [r2, r3]
 1908 0ca0 003093E5 		ldr	r3, [r3]
 1909 0ca4 34308DE5 		str	r3, [sp, #52]
 1910 0ca8 0030A0E3 		mov	r3, #0
 294:/home/hkh/git/eapidk-code-r76-trunk/apps/EeePProg/linux/../CfgParser.c ****   char *szName;
 1911              		.loc 1 294 3 is_stmt 1 view .LVU380
 1912              	.LVL154:
 295:/home/hkh/git/eapidk-code-r76-trunk/apps/EeePProg/linux/../CfgParser.c ****   char *szValue;
 1913              		.loc 1 295 3 view .LVU381
 296:/home/hkh/git/eapidk-code-r76-trunk/apps/EeePProg/linux/../CfgParser.c ****   size_t i;
 1914              		.loc 1 296 3 view .LVU382
 297:/home/hkh/git/eapidk-code-r76-trunk/apps/EeePProg/linux/../CfgParser.c ****   unsigned long ulBlockStartLine=pCtxt->ulLineNum;
 1915              		.loc 1 297 3 view .LVU383
 298:/home/hkh/git/eapidk-code-r76-trunk/apps/EeePProg/linux/../CfgParser.c ****   CfgNodeGen_t *pCurElement;
 1916              		.loc 1 298 3 view .LVU384
 299:/home/hkh/git/eapidk-code-r76-trunk/apps/EeePProg/linux/../CfgParser.c **** 
 1917              		.loc 1 299 3 view .LVU385
 301:/home/hkh/git/eapidk-code-r76-trunk/apps/EeePProg/linux/../CfgParser.c ****         ParseCfgFile_sub,
 1918              		.loc 1 301 3 view .LVU386
 301:/home/hkh/git/eapidk-code-r76-trunk/apps/EeePProg/linux/../CfgParser.c ****         ParseCfgFile_sub,
 1919              		.loc 1 301 3 view .LVU387
 305:/home/hkh/git/eapidk-code-r76-trunk/apps/EeePProg/linux/../CfgParser.c ****   EAPI_APP_ASSERT_PARAMATER_NULL(
 1920              		.loc 1 305 8 view .LVU388
 1921              		.loc 1 306 3 view .LVU389
 1922 0cac D400000A 		beq	.L183
 1923              		.loc 1 306 3 discriminator 2 view .LVU390
 307:/home/hkh/git/eapidk-code-r76-trunk/apps/EeePProg/linux/../CfgParser.c ****         ParseCfgFile_sub,
 308:/home/hkh/git/eapidk-code-r76-trunk/apps/EeePProg/linux/../CfgParser.c ****         EAPI_STATUS_INVALID_PARAMETER,
 309:/home/hkh/git/eapidk-code-r76-trunk/apps/EeePProg/linux/../CfgParser.c ****         pCfgBDesc
 310:/home/hkh/git/eapidk-code-r76-trunk/apps/EeePProg/linux/../CfgParser.c ****       );
 1924              		.loc 1 310 8 discriminator 2 view .LVU391
 311:/home/hkh/git/eapidk-code-r76-trunk/apps/EeePProg/linux/../CfgParser.c **** 
 312:/home/hkh/git/eapidk-code-r76-trunk/apps/EeePProg/linux/../CfgParser.c ****   ++ pCtxt->ulDepth;
ARM GAS  /tmp/ccWSR0Wc.s 			page 48


 1925              		.loc 1 312 3 discriminator 2 view .LVU392
 1926 0cb0 0C3090E5 		ldr	r3, [r0, #12]
 294:/home/hkh/git/eapidk-code-r76-trunk/apps/EeePProg/linux/../CfgParser.c ****   char *szName;
 1927              		.loc 1 294 16 is_stmt 0 discriminator 2 view .LVU393
 1928 0cb4 0060A0E3 		mov	r6, #0
 313:/home/hkh/git/eapidk-code-r76-trunk/apps/EeePProg/linux/../CfgParser.c **** /*   siFormattedMessage_M2('L', __FILE__, "ParseCfgFile_sub", __LINE__, pCfgBDesc->Block.pszBlockNa
 314:/home/hkh/git/eapidk-code-r76-trunk/apps/EeePProg/linux/../CfgParser.c **** 
 315:/home/hkh/git/eapidk-code-r76-trunk/apps/EeePProg/linux/../CfgParser.c **** 
 316:/home/hkh/git/eapidk-code-r76-trunk/apps/EeePProg/linux/../CfgParser.c ****   while(!feof(pCtxt->pCfgFile)){
 317:/home/hkh/git/eapidk-code-r76-trunk/apps/EeePProg/linux/../CfgParser.c ****     szName=fgets(pCtxt->LineBuffer, ARRAY_SIZE(pCtxt->LineBuffer), pCtxt->pCfgFile);
 318:/home/hkh/git/eapidk-code-r76-trunk/apps/EeePProg/linux/../CfgParser.c ****     pCtxt->ulLineNum++;
 319:/home/hkh/git/eapidk-code-r76-trunk/apps/EeePProg/linux/../CfgParser.c **** #if TEST_EEPCFG
 320:/home/hkh/git/eapidk-code-r76-trunk/apps/EeePProg/linux/../CfgParser.c **** 		siFormattedMessage_M2('L', __FILE__, "ParseCfgFile_sub", __LINE__, pCfgBDesc->Block.pszBlockName,
 321:/home/hkh/git/eapidk-code-r76-trunk/apps/EeePProg/linux/../CfgParser.c ****         "(%04lu)[%02lu]%s\n", pCtxt->ulLineNum, pCtxt->ulDepth, pCtxt->LineBuffer);
 322:/home/hkh/git/eapidk-code-r76-trunk/apps/EeePProg/linux/../CfgParser.c **** #endif
 323:/home/hkh/git/eapidk-code-r76-trunk/apps/EeePProg/linux/../CfgParser.c ****     /*
 324:/home/hkh/git/eapidk-code-r76-trunk/apps/EeePProg/linux/../CfgParser.c ****      * Remove Comments And New Lines etc..
 325:/home/hkh/git/eapidk-code-r76-trunk/apps/EeePProg/linux/../CfgParser.c ****      */
 326:/home/hkh/git/eapidk-code-r76-trunk/apps/EeePProg/linux/../CfgParser.c ****     szName=strpbrk(pCtxt->LineBuffer, ";#\n\r");
 1929              		.loc 1 326 12 discriminator 2 view .LVU394
 1930 0cb8 6CB59FE5 		ldr	fp, .L195+8
 312:/home/hkh/git/eapidk-code-r76-trunk/apps/EeePProg/linux/../CfgParser.c **** /*   siFormattedMessage_M2('L', __FILE__, "ParseCfgFile_sub", __LINE__, pCfgBDesc->Block.pszBlockNa
 1931              		.loc 1 312 3 discriminator 2 view .LVU395
 1932 0cbc 013083E2 		add	r3, r3, #1
 1933 0cc0 0C3080E5 		str	r3, [r0, #12]
 316:/home/hkh/git/eapidk-code-r76-trunk/apps/EeePProg/linux/../CfgParser.c ****     szName=fgets(pCtxt->LineBuffer, ARRAY_SIZE(pCtxt->LineBuffer), pCtxt->pCfgFile);
 1934              		.loc 1 316 3 is_stmt 1 discriminator 2 view .LVU396
 1935              		.loc 1 326 12 is_stmt 0 discriminator 2 view .LVU397
 1936              	.LPIC122:
 1937 0cc4 0BB08FE0 		add	fp, pc, fp
 1938              	.LBB10:
 327:/home/hkh/git/eapidk-code-r76-trunk/apps/EeePProg/linux/../CfgParser.c ****     if(szName!=NULL) *szName='\0';
 328:/home/hkh/git/eapidk-code-r76-trunk/apps/EeePProg/linux/../CfgParser.c ****     szName=skipWhiteSpaces(pCtxt->LineBuffer);
 329:/home/hkh/git/eapidk-code-r76-trunk/apps/EeePProg/linux/../CfgParser.c ****     if(!strlen(szName)){ /*Skip Empty Blank Lines */ continue; }
 330:/home/hkh/git/eapidk-code-r76-trunk/apps/EeePProg/linux/../CfgParser.c **** 
 331:/home/hkh/git/eapidk-code-r76-trunk/apps/EeePProg/linux/../CfgParser.c **** #if  TEST_EEPCFG
 332:/home/hkh/git/eapidk-code-r76-trunk/apps/EeePProg/linux/../CfgParser.c **** 		siFormattedMessage_M2('L', __FILE__, "ParseCfgFile_sub", __LINE__, pCfgBDesc->Block.pszBlockName,
 333:/home/hkh/git/eapidk-code-r76-trunk/apps/EeePProg/linux/../CfgParser.c ****         "(%04lu)[%02lu]%s\n", pCtxt->ulLineNum, pCtxt->ulDepth, pCtxt->LineBuffer);
 334:/home/hkh/git/eapidk-code-r76-trunk/apps/EeePProg/linux/../CfgParser.c **** #endif
 335:/home/hkh/git/eapidk-code-r76-trunk/apps/EeePProg/linux/../CfgParser.c ****     if(szName[0]=='['){
 336:/home/hkh/git/eapidk-code-r76-trunk/apps/EeePProg/linux/../CfgParser.c ****       CfgNodeGen_t *pCurBlockDesc=NULL;
 337:/home/hkh/git/eapidk-code-r76-trunk/apps/EeePProg/linux/../CfgParser.c ****       size_t stTokenLen=strcspn(++szName, "]");
 338:/home/hkh/git/eapidk-code-r76-trunk/apps/EeePProg/linux/../CfgParser.c ****       if(!stTokenLen){
 339:/home/hkh/git/eapidk-code-r76-trunk/apps/EeePProg/linux/../CfgParser.c ****         siFormattedMessage_SC('L', __FILE__, "ParseCfgFile_sub", __LINE__, StatusCode,
 340:/home/hkh/git/eapidk-code-r76-trunk/apps/EeePProg/linux/../CfgParser.c ****           "(%04lu)%s\n", pCtxt->ulLineNum, pCtxt->LineBuffer);
 341:/home/hkh/git/eapidk-code-r76-trunk/apps/EeePProg/linux/../CfgParser.c ****       }
 342:/home/hkh/git/eapidk-code-r76-trunk/apps/EeePProg/linux/../CfgParser.c **** #if TEST_EEPCFG
 343:/home/hkh/git/eapidk-code-r76-trunk/apps/EeePProg/linux/../CfgParser.c ****       siFormattedMessage_M2('L', __FILE__, "ParseCfgFile_sub", __LINE__, "Block",
 344:/home/hkh/git/eapidk-code-r76-trunk/apps/EeePProg/linux/../CfgParser.c ****         "(%04lu)%s\n", pCtxt->ulLineNum, pCtxt->LineBuffer);
 345:/home/hkh/git/eapidk-code-r76-trunk/apps/EeePProg/linux/../CfgParser.c **** #endif
 346:/home/hkh/git/eapidk-code-r76-trunk/apps/EeePProg/linux/../CfgParser.c ****       if(szName[0]=='/'){
 347:/home/hkh/git/eapidk-code-r76-trunk/apps/EeePProg/linux/../CfgParser.c ****         szName[stTokenLen]='\0';
 348:/home/hkh/git/eapidk-code-r76-trunk/apps/EeePProg/linux/../CfgParser.c ****         ++szName;
 349:/home/hkh/git/eapidk-code-r76-trunk/apps/EeePProg/linux/../CfgParser.c ****         /*
 350:/home/hkh/git/eapidk-code-r76-trunk/apps/EeePProg/linux/../CfgParser.c ****          * End Of Block Marker
 351:/home/hkh/git/eapidk-code-r76-trunk/apps/EeePProg/linux/../CfgParser.c ****          *
 352:/home/hkh/git/eapidk-code-r76-trunk/apps/EeePProg/linux/../CfgParser.c ****          */
ARM GAS  /tmp/ccWSR0Wc.s 			page 49


 353:/home/hkh/git/eapidk-code-r76-trunk/apps/EeePProg/linux/../CfgParser.c ****         if(strcmp(szName, pCfgBDesc->Block.pszBlockName))
 354:/home/hkh/git/eapidk-code-r76-trunk/apps/EeePProg/linux/../CfgParser.c ****         {
 355:/home/hkh/git/eapidk-code-r76-trunk/apps/EeePProg/linux/../CfgParser.c ****           StatusCode=EAPI_STATUS_PARSE_ERROR;
 356:/home/hkh/git/eapidk-code-r76-trunk/apps/EeePProg/linux/../CfgParser.c ****           siFormattedMessage_SC('W', __FILE__, "ParseCfgFile_sub", __LINE__, StatusCode,
 357:/home/hkh/git/eapidk-code-r76-trunk/apps/EeePProg/linux/../CfgParser.c ****                       "Expected '[/%s]' Got (%lu)'[/%s]'\n", 
 358:/home/hkh/git/eapidk-code-r76-trunk/apps/EeePProg/linux/../CfgParser.c ****                       pCfgBDesc->Block.pszBlockName, 
 359:/home/hkh/git/eapidk-code-r76-trunk/apps/EeePProg/linux/../CfgParser.c ****                       ulBlockStartLine,
 360:/home/hkh/git/eapidk-code-r76-trunk/apps/EeePProg/linux/../CfgParser.c ****                       szName
 361:/home/hkh/git/eapidk-code-r76-trunk/apps/EeePProg/linux/../CfgParser.c ****                     );
 362:/home/hkh/git/eapidk-code-r76-trunk/apps/EeePProg/linux/../CfgParser.c ****         }else{
 363:/home/hkh/git/eapidk-code-r76-trunk/apps/EeePProg/linux/../CfgParser.c ****           /*
 364:/home/hkh/git/eapidk-code-r76-trunk/apps/EeePProg/linux/../CfgParser.c ****            * Check Last Block Required
 365:/home/hkh/git/eapidk-code-r76-trunk/apps/EeePProg/linux/../CfgParser.c ****            */
 366:/home/hkh/git/eapidk-code-r76-trunk/apps/EeePProg/linux/../CfgParser.c ****             for(
 367:/home/hkh/git/eapidk-code-r76-trunk/apps/EeePProg/linux/../CfgParser.c ****                   i=pCfgBDesc->Block.Elements.stUsedCnt,
 368:/home/hkh/git/eapidk-code-r76-trunk/apps/EeePProg/linux/../CfgParser.c ****                   pCurElement=pCfgBDesc->Block.Elements.pIndx; 
 369:/home/hkh/git/eapidk-code-r76-trunk/apps/EeePProg/linux/../CfgParser.c ****                   i--; 
 370:/home/hkh/git/eapidk-code-r76-trunk/apps/EeePProg/linux/../CfgParser.c ****                   pCurElement++
 371:/home/hkh/git/eapidk-code-r76-trunk/apps/EeePProg/linux/../CfgParser.c ****                 )
 372:/home/hkh/git/eapidk-code-r76-trunk/apps/EeePProg/linux/../CfgParser.c ****               {
 373:/home/hkh/git/eapidk-code-r76-trunk/apps/EeePProg/linux/../CfgParser.c ****                 if(pCurElement->Block.Elements.stTotalCnt){
 374:/home/hkh/git/eapidk-code-r76-trunk/apps/EeePProg/linux/../CfgParser.c ****                   switch(pCurElement->Gen.NodeType){
 375:/home/hkh/git/eapidk-code-r76-trunk/apps/EeePProg/linux/../CfgParser.c ****                     case CfgBlockNode:
 376:/home/hkh/git/eapidk-code-r76-trunk/apps/EeePProg/linux/../CfgParser.c ****                       if(pCurElement->Block.cuiRequired>pCurElement->Block.stFound)
 377:/home/hkh/git/eapidk-code-r76-trunk/apps/EeePProg/linux/../CfgParser.c ****                       {
 378:/home/hkh/git/eapidk-code-r76-trunk/apps/EeePProg/linux/../CfgParser.c ****                         StatusCode=EAPI_STATUS_ERROR;
 379:/home/hkh/git/eapidk-code-r76-trunk/apps/EeePProg/linux/../CfgParser.c ****                         siFormattedMessage_SC('W', __FILE__, "ParseCfgFile_sub", __LINE__, StatusCo
 380:/home/hkh/git/eapidk-code-r76-trunk/apps/EeePProg/linux/../CfgParser.c ****                             "Missing Required Block '%s' in Block (%lu)'%s'\n", 
 381:/home/hkh/git/eapidk-code-r76-trunk/apps/EeePProg/linux/../CfgParser.c ****                             pCurElement->Block.pszBlockName, 
 382:/home/hkh/git/eapidk-code-r76-trunk/apps/EeePProg/linux/../CfgParser.c ****                             ulBlockStartLine,
 383:/home/hkh/git/eapidk-code-r76-trunk/apps/EeePProg/linux/../CfgParser.c ****                             pCfgBDesc->Block.pszBlockName
 384:/home/hkh/git/eapidk-code-r76-trunk/apps/EeePProg/linux/../CfgParser.c ****                           );
 385:/home/hkh/git/eapidk-code-r76-trunk/apps/EeePProg/linux/../CfgParser.c ****                           EAPI_APP_EXIT;
 386:/home/hkh/git/eapidk-code-r76-trunk/apps/EeePProg/linux/../CfgParser.c ****                       }
 387:/home/hkh/git/eapidk-code-r76-trunk/apps/EeePProg/linux/../CfgParser.c ****                       break;
 388:/home/hkh/git/eapidk-code-r76-trunk/apps/EeePProg/linux/../CfgParser.c ****                     case CfgElementNode:
 389:/home/hkh/git/eapidk-code-r76-trunk/apps/EeePProg/linux/../CfgParser.c ****                       if(pCurElement->Element.cuiRequired>pCurElement->Element.Instances.stUsedCnt)
 390:/home/hkh/git/eapidk-code-r76-trunk/apps/EeePProg/linux/../CfgParser.c ****                       {
 391:/home/hkh/git/eapidk-code-r76-trunk/apps/EeePProg/linux/../CfgParser.c ****                         StatusCode=EAPI_STATUS_ERROR;
 392:/home/hkh/git/eapidk-code-r76-trunk/apps/EeePProg/linux/../CfgParser.c ****                         siFormattedMessage_SC('W', __FILE__, "ParseCfgFile_sub", __LINE__, StatusCo
 393:/home/hkh/git/eapidk-code-r76-trunk/apps/EeePProg/linux/../CfgParser.c ****                             "Missing Required Element '%s' in Block (%lu)'%s'\n", 
 394:/home/hkh/git/eapidk-code-r76-trunk/apps/EeePProg/linux/../CfgParser.c ****                             pCurElement->Block.pszBlockName, 
 395:/home/hkh/git/eapidk-code-r76-trunk/apps/EeePProg/linux/../CfgParser.c ****                             ulBlockStartLine,
 396:/home/hkh/git/eapidk-code-r76-trunk/apps/EeePProg/linux/../CfgParser.c ****                             pCfgBDesc->Block.pszBlockName
 397:/home/hkh/git/eapidk-code-r76-trunk/apps/EeePProg/linux/../CfgParser.c ****                           );
 398:/home/hkh/git/eapidk-code-r76-trunk/apps/EeePProg/linux/../CfgParser.c ****                           EAPI_APP_EXIT;
 399:/home/hkh/git/eapidk-code-r76-trunk/apps/EeePProg/linux/../CfgParser.c ****                       }
 400:/home/hkh/git/eapidk-code-r76-trunk/apps/EeePProg/linux/../CfgParser.c ****                       break;
 401:/home/hkh/git/eapidk-code-r76-trunk/apps/EeePProg/linux/../CfgParser.c ****                     default:
 402:/home/hkh/git/eapidk-code-r76-trunk/apps/EeePProg/linux/../CfgParser.c ****                       break;
 403:/home/hkh/git/eapidk-code-r76-trunk/apps/EeePProg/linux/../CfgParser.c ****                   }
 404:/home/hkh/git/eapidk-code-r76-trunk/apps/EeePProg/linux/../CfgParser.c ****                 }
 405:/home/hkh/git/eapidk-code-r76-trunk/apps/EeePProg/linux/../CfgParser.c ****               }
 406:/home/hkh/git/eapidk-code-r76-trunk/apps/EeePProg/linux/../CfgParser.c **** 
 407:/home/hkh/git/eapidk-code-r76-trunk/apps/EeePProg/linux/../CfgParser.c ****         }
 408:/home/hkh/git/eapidk-code-r76-trunk/apps/EeePProg/linux/../CfgParser.c ****         pCtxt->LineBuffer[0]='\0';
 409:/home/hkh/git/eapidk-code-r76-trunk/apps/EeePProg/linux/../CfgParser.c ****         EAPI_APP_EXIT;
ARM GAS  /tmp/ccWSR0Wc.s 			page 50


 410:/home/hkh/git/eapidk-code-r76-trunk/apps/EeePProg/linux/../CfgParser.c ****       }else{
 411:/home/hkh/git/eapidk-code-r76-trunk/apps/EeePProg/linux/../CfgParser.c ****         szName[stTokenLen]='\0';
 412:/home/hkh/git/eapidk-code-r76-trunk/apps/EeePProg/linux/../CfgParser.c ****         StatusCode=GetElementDesc(pCfgBDesc, &pCurBlockDesc, szName, CfgBlockNode);
 413:/home/hkh/git/eapidk-code-r76-trunk/apps/EeePProg/linux/../CfgParser.c ****         szName[stTokenLen]=']';
 414:/home/hkh/git/eapidk-code-r76-trunk/apps/EeePProg/linux/../CfgParser.c ****         switch(StatusCode){
 415:/home/hkh/git/eapidk-code-r76-trunk/apps/EeePProg/linux/../CfgParser.c ****           case EAPI_STATUS_SUCCESS:
 416:/home/hkh/git/eapidk-code-r76-trunk/apps/EeePProg/linux/../CfgParser.c ****             pCurBlockDesc->Block.stFound=BLOCK_FOUND;
 417:/home/hkh/git/eapidk-code-r76-trunk/apps/EeePProg/linux/../CfgParser.c ****             DO(ParseCfgFile_sub(pCtxt, pCurBlockDesc, stRequired&&pCurBlockDesc->Block.cuiRequired)
 418:/home/hkh/git/eapidk-code-r76-trunk/apps/EeePProg/linux/../CfgParser.c ****             break;
 419:/home/hkh/git/eapidk-code-r76-trunk/apps/EeePProg/linux/../CfgParser.c ****           case EAPI_STATUS_NOT_FOUND:
 420:/home/hkh/git/eapidk-code-r76-trunk/apps/EeePProg/linux/../CfgParser.c ****             siFormattedMessage_SC(
 421:/home/hkh/git/eapidk-code-r76-trunk/apps/EeePProg/linux/../CfgParser.c ****                   'E', __FILE__, "ParseCfgFile_sub", __LINE__, StatusCode,
 422:/home/hkh/git/eapidk-code-r76-trunk/apps/EeePProg/linux/../CfgParser.c ****                   "Unknown Block on line %li, '%s'\n", pCtxt->ulLineNum, szName
 423:/home/hkh/git/eapidk-code-r76-trunk/apps/EeePProg/linux/../CfgParser.c ****             );
 424:/home/hkh/git/eapidk-code-r76-trunk/apps/EeePProg/linux/../CfgParser.c ****             break;
 425:/home/hkh/git/eapidk-code-r76-trunk/apps/EeePProg/linux/../CfgParser.c ****           default:
 426:/home/hkh/git/eapidk-code-r76-trunk/apps/EeePProg/linux/../CfgParser.c ****             EAPI_APP_EXIT;
 427:/home/hkh/git/eapidk-code-r76-trunk/apps/EeePProg/linux/../CfgParser.c ****             break;
 428:/home/hkh/git/eapidk-code-r76-trunk/apps/EeePProg/linux/../CfgParser.c ****         }
 429:/home/hkh/git/eapidk-code-r76-trunk/apps/EeePProg/linux/../CfgParser.c ****       }
 430:/home/hkh/git/eapidk-code-r76-trunk/apps/EeePProg/linux/../CfgParser.c **** 
 431:/home/hkh/git/eapidk-code-r76-trunk/apps/EeePProg/linux/../CfgParser.c ****     }else{
 432:/home/hkh/git/eapidk-code-r76-trunk/apps/EeePProg/linux/../CfgParser.c ****       unsigned int FoundElement=0;
 433:/home/hkh/git/eapidk-code-r76-trunk/apps/EeePProg/linux/../CfgParser.c ****       if(pCfgBDesc==NULL){
 434:/home/hkh/git/eapidk-code-r76-trunk/apps/EeePProg/linux/../CfgParser.c **** 					siFormattedMessage_M2('W', __FILE__, "ParseCfgFile_sub", __LINE__, "Invalid Block",
 435:/home/hkh/git/eapidk-code-r76-trunk/apps/EeePProg/linux/../CfgParser.c ****             "(%04lu) : %s\n", 
 436:/home/hkh/git/eapidk-code-r76-trunk/apps/EeePProg/linux/../CfgParser.c ****             pCtxt->ulLineNum, 
 437:/home/hkh/git/eapidk-code-r76-trunk/apps/EeePProg/linux/../CfgParser.c ****             pCtxt->LineBuffer
 438:/home/hkh/git/eapidk-code-r76-trunk/apps/EeePProg/linux/../CfgParser.c **** 							);
 439:/home/hkh/git/eapidk-code-r76-trunk/apps/EeePProg/linux/../CfgParser.c ****         continue;
 440:/home/hkh/git/eapidk-code-r76-trunk/apps/EeePProg/linux/../CfgParser.c ****       }
 441:/home/hkh/git/eapidk-code-r76-trunk/apps/EeePProg/linux/../CfgParser.c ****       szValue=strchr(szName, '=');
 442:/home/hkh/git/eapidk-code-r76-trunk/apps/EeePProg/linux/../CfgParser.c ****       if(szValue==NULL){
 443:/home/hkh/git/eapidk-code-r76-trunk/apps/EeePProg/linux/../CfgParser.c **** 					siFormattedMessage_M2('W', __FILE__, "ParseCfgFile_sub", __LINE__, "Invalid Line",
 444:/home/hkh/git/eapidk-code-r76-trunk/apps/EeePProg/linux/../CfgParser.c ****             "(%04lu) : %s\n", 
 445:/home/hkh/git/eapidk-code-r76-trunk/apps/EeePProg/linux/../CfgParser.c ****             pCtxt->ulLineNum, 
 446:/home/hkh/git/eapidk-code-r76-trunk/apps/EeePProg/linux/../CfgParser.c ****             pCtxt->LineBuffer
 447:/home/hkh/git/eapidk-code-r76-trunk/apps/EeePProg/linux/../CfgParser.c **** 							);
 448:/home/hkh/git/eapidk-code-r76-trunk/apps/EeePProg/linux/../CfgParser.c ****         continue;
 449:/home/hkh/git/eapidk-code-r76-trunk/apps/EeePProg/linux/../CfgParser.c ****       }
 450:/home/hkh/git/eapidk-code-r76-trunk/apps/EeePProg/linux/../CfgParser.c ****       *szValue++='\0';
 451:/home/hkh/git/eapidk-code-r76-trunk/apps/EeePProg/linux/../CfgParser.c ****       stripWhiteSpaces(szName);
 452:/home/hkh/git/eapidk-code-r76-trunk/apps/EeePProg/linux/../CfgParser.c ****       szValue=skipWhiteSpaces(szValue);
 453:/home/hkh/git/eapidk-code-r76-trunk/apps/EeePProg/linux/../CfgParser.c **** #if TEST_EEPCFG
 454:/home/hkh/git/eapidk-code-r76-trunk/apps/EeePProg/linux/../CfgParser.c **** 		siFormattedMessage_M2('L', __FILE__, "ParseCfgFile_sub", __LINE__, pCfgBDesc->Block.pszBlockName,
 455:/home/hkh/git/eapidk-code-r76-trunk/apps/EeePProg/linux/../CfgParser.c ****         "(%04lu)%-20s = %s", pCtxt->ulLineNum, szName, szValue);
 456:/home/hkh/git/eapidk-code-r76-trunk/apps/EeePProg/linux/../CfgParser.c **** #endif
 457:/home/hkh/git/eapidk-code-r76-trunk/apps/EeePProg/linux/../CfgParser.c ****       StatusCode=GetElementDesc(pCfgBDesc, (CfgNodeGen_t**)&pCurElement, szName, CfgElementNode);
 458:/home/hkh/git/eapidk-code-r76-trunk/apps/EeePProg/linux/../CfgParser.c **** 
 459:/home/hkh/git/eapidk-code-r76-trunk/apps/EeePProg/linux/../CfgParser.c ****       switch(StatusCode){
 460:/home/hkh/git/eapidk-code-r76-trunk/apps/EeePProg/linux/../CfgParser.c ****         case EAPI_STATUS_SUCCESS:
 461:/home/hkh/git/eapidk-code-r76-trunk/apps/EeePProg/linux/../CfgParser.c ****           if(pCurElement->Element.Instances.stUsedCnt+1>pCurElement->Element.Instances.stTotalCnt){
 462:/home/hkh/git/eapidk-code-r76-trunk/apps/EeePProg/linux/../CfgParser.c ****             siFormattedMessage_SC(
 463:/home/hkh/git/eapidk-code-r76-trunk/apps/EeePProg/linux/../CfgParser.c ****                 'E', __FILE__, "ParseCfgFile_sub", __LINE__, StatusCode,
 464:/home/hkh/git/eapidk-code-r76-trunk/apps/EeePProg/linux/../CfgParser.c ****                 "ERROR Too Many Instances of %s at line %li\n", szValue, pCtxt->ulLineNum
 465:/home/hkh/git/eapidk-code-r76-trunk/apps/EeePProg/linux/../CfgParser.c ****             );
 466:/home/hkh/git/eapidk-code-r76-trunk/apps/EeePProg/linux/../CfgParser.c ****             EAPI_APP_EXIT;
ARM GAS  /tmp/ccWSR0Wc.s 			page 51


 467:/home/hkh/git/eapidk-code-r76-trunk/apps/EeePProg/linux/../CfgParser.c ****           }
 468:/home/hkh/git/eapidk-code-r76-trunk/apps/EeePProg/linux/../CfgParser.c ****           StatusCode=pCurElement->Element.pHandlers->Handler(
 469:/home/hkh/git/eapidk-code-r76-trunk/apps/EeePProg/linux/../CfgParser.c ****                 (CfgElementDesc_t*)pCurElement, 
 470:/home/hkh/git/eapidk-code-r76-trunk/apps/EeePProg/linux/../CfgParser.c ****                 EAPI_CREATE_PTR(
 471:/home/hkh/git/eapidk-code-r76-trunk/apps/EeePProg/linux/../CfgParser.c ****                     pCurElement->Element.Instances.pIndx,
 472:/home/hkh/git/eapidk-code-r76-trunk/apps/EeePProg/linux/../CfgParser.c ****                     pCurElement->Element.Instances.stElementSize*pCurElement->Element.Instances.stU
 473:/home/hkh/git/eapidk-code-r76-trunk/apps/EeePProg/linux/../CfgParser.c ****                     void*
 474:/home/hkh/git/eapidk-code-r76-trunk/apps/EeePProg/linux/../CfgParser.c ****                   ),
 475:/home/hkh/git/eapidk-code-r76-trunk/apps/EeePProg/linux/../CfgParser.c ****                 szValue
 476:/home/hkh/git/eapidk-code-r76-trunk/apps/EeePProg/linux/../CfgParser.c ****               );
 477:/home/hkh/git/eapidk-code-r76-trunk/apps/EeePProg/linux/../CfgParser.c ****           if(!EAPI_TEST_SUCCESS(StatusCode)){
 478:/home/hkh/git/eapidk-code-r76-trunk/apps/EeePProg/linux/../CfgParser.c ****             siFormattedMessage_SC(
 479:/home/hkh/git/eapidk-code-r76-trunk/apps/EeePProg/linux/../CfgParser.c ****                 'E', __FILE__, "ParseCfgFile_sub", __LINE__, StatusCode,
 480:/home/hkh/git/eapidk-code-r76-trunk/apps/EeePProg/linux/../CfgParser.c ****                 "ERROR Parsing Line %li, %s\n", pCtxt->ulLineNum, szValue
 481:/home/hkh/git/eapidk-code-r76-trunk/apps/EeePProg/linux/../CfgParser.c ****             );
 482:/home/hkh/git/eapidk-code-r76-trunk/apps/EeePProg/linux/../CfgParser.c ****             EAPI_APP_EXIT;
 483:/home/hkh/git/eapidk-code-r76-trunk/apps/EeePProg/linux/../CfgParser.c ****           }
 484:/home/hkh/git/eapidk-code-r76-trunk/apps/EeePProg/linux/../CfgParser.c ****           pCurElement->Element.Instances.stUsedCnt++;
 485:/home/hkh/git/eapidk-code-r76-trunk/apps/EeePProg/linux/../CfgParser.c ****           FoundElement++;
 486:/home/hkh/git/eapidk-code-r76-trunk/apps/EeePProg/linux/../CfgParser.c ****           break;
 487:/home/hkh/git/eapidk-code-r76-trunk/apps/EeePProg/linux/../CfgParser.c ****         case EAPI_STATUS_NOT_FOUND:
 488:/home/hkh/git/eapidk-code-r76-trunk/apps/EeePProg/linux/../CfgParser.c ****           siFormattedMessage_SC(
 1939              		.loc 1 488 11 discriminator 2 view .LVU398
 1940 0cc8 60359FE5 		ldr	r3, .L195+12
 1941              	.LPIC153:
 1942 0ccc 03308FE0 		add	r3, pc, r3
 1943 0cd0 20308DE5 		str	r3, [sp, #32]
 1944              	.LVL155:
 1945              	.L141:
 1946              		.loc 1 488 11 discriminator 2 view .LVU399
 1947              	.LBE10:
 317:/home/hkh/git/eapidk-code-r76-trunk/apps/EeePProg/linux/../CfgParser.c ****     pCtxt->ulLineNum++;
 1948              		.loc 1 317 23 view .LVU400
 1949 0cd4 107084E2 		add	r7, r4, #16
 1950              	.L145:
 1951              	.LBB11:
 489:/home/hkh/git/eapidk-code-r76-trunk/apps/EeePProg/linux/../CfgParser.c ****                 'E', __FILE__, "ParseCfgFile_sub", __LINE__, StatusCode,
 490:/home/hkh/git/eapidk-code-r76-trunk/apps/EeePProg/linux/../CfgParser.c ****                 "Unknown Block Element on line %li, '%s'\n", pCtxt->ulLineNum, szName
 491:/home/hkh/git/eapidk-code-r76-trunk/apps/EeePProg/linux/../CfgParser.c ****           );
 492:/home/hkh/git/eapidk-code-r76-trunk/apps/EeePProg/linux/../CfgParser.c ****           break;
 493:/home/hkh/git/eapidk-code-r76-trunk/apps/EeePProg/linux/../CfgParser.c ****         default:
 494:/home/hkh/git/eapidk-code-r76-trunk/apps/EeePProg/linux/../CfgParser.c ****           EAPI_APP_EXIT;
 495:/home/hkh/git/eapidk-code-r76-trunk/apps/EeePProg/linux/../CfgParser.c ****           break;
 1952              		.loc 1 495 11 is_stmt 1 view .LVU401
 1953              	.LBE11:
 316:/home/hkh/git/eapidk-code-r76-trunk/apps/EeePProg/linux/../CfgParser.c ****     szName=fgets(pCtxt->LineBuffer, ARRAY_SIZE(pCtxt->LineBuffer), pCtxt->pCfgFile);
 1954              		.loc 1 316 9 view .LVU402
 316:/home/hkh/git/eapidk-code-r76-trunk/apps/EeePProg/linux/../CfgParser.c ****     szName=fgets(pCtxt->LineBuffer, ARRAY_SIZE(pCtxt->LineBuffer), pCtxt->pCfgFile);
 1955              		.loc 1 316 10 is_stmt 0 view .LVU403
 1956 0cd8 040094E5 		ldr	r0, [r4, #4]
 1957 0cdc FEFFFFEB 		bl	feof(PLT)
 1958              	.LVL156:
 316:/home/hkh/git/eapidk-code-r76-trunk/apps/EeePProg/linux/../CfgParser.c ****     szName=fgets(pCtxt->LineBuffer, ARRAY_SIZE(pCtxt->LineBuffer), pCtxt->pCfgFile);
 1959              		.loc 1 316 9 view .LVU404
 1960 0ce0 005050E2 		subs	r5, r0, #0
 1961 0ce4 3B00001A 		bne	.L140
 1962              	.L166:
ARM GAS  /tmp/ccWSR0Wc.s 			page 52


 317:/home/hkh/git/eapidk-code-r76-trunk/apps/EeePProg/linux/../CfgParser.c ****     pCtxt->ulLineNum++;
 1963              		.loc 1 317 5 is_stmt 1 view .LVU405
 317:/home/hkh/git/eapidk-code-r76-trunk/apps/EeePProg/linux/../CfgParser.c ****     pCtxt->ulLineNum++;
 1964              		.loc 1 317 12 is_stmt 0 view .LVU406
 1965 0ce8 042094E5 		ldr	r2, [r4, #4]
 1966 0cec 021BA0E3 		mov	r1, #2048
 1967 0cf0 0700A0E1 		mov	r0, r7
 1968 0cf4 FEFFFFEB 		bl	fgets(PLT)
 1969              	.LVL157:
 318:/home/hkh/git/eapidk-code-r76-trunk/apps/EeePProg/linux/../CfgParser.c **** #if TEST_EEPCFG
 1970              		.loc 1 318 5 is_stmt 1 view .LVU407
 318:/home/hkh/git/eapidk-code-r76-trunk/apps/EeePProg/linux/../CfgParser.c **** #if TEST_EEPCFG
 1971              		.loc 1 318 21 is_stmt 0 view .LVU408
 1972 0cf8 083094E5 		ldr	r3, [r4, #8]
 326:/home/hkh/git/eapidk-code-r76-trunk/apps/EeePProg/linux/../CfgParser.c ****     if(szName!=NULL) *szName='\0';
 1973              		.loc 1 326 12 view .LVU409
 1974 0cfc 0B10A0E1 		mov	r1, fp
 1975 0d00 0700A0E1 		mov	r0, r7
 318:/home/hkh/git/eapidk-code-r76-trunk/apps/EeePProg/linux/../CfgParser.c **** #if TEST_EEPCFG
 1976              		.loc 1 318 21 view .LVU410
 1977 0d04 013083E2 		add	r3, r3, #1
 1978 0d08 083084E5 		str	r3, [r4, #8]
 326:/home/hkh/git/eapidk-code-r76-trunk/apps/EeePProg/linux/../CfgParser.c ****     if(szName!=NULL) *szName='\0';
 1979              		.loc 1 326 5 is_stmt 1 view .LVU411
 326:/home/hkh/git/eapidk-code-r76-trunk/apps/EeePProg/linux/../CfgParser.c ****     if(szName!=NULL) *szName='\0';
 1980              		.loc 1 326 12 is_stmt 0 view .LVU412
 1981 0d0c FEFFFFEB 		bl	strpbrk(PLT)
 1982              	.LVL158:
 327:/home/hkh/git/eapidk-code-r76-trunk/apps/EeePProg/linux/../CfgParser.c ****     szName=skipWhiteSpaces(pCtxt->LineBuffer);
 1983              		.loc 1 327 5 is_stmt 1 view .LVU413
 327:/home/hkh/git/eapidk-code-r76-trunk/apps/EeePProg/linux/../CfgParser.c ****     szName=skipWhiteSpaces(pCtxt->LineBuffer);
 1984              		.loc 1 327 7 is_stmt 0 view .LVU414
 1985 0d10 003050E2 		subs	r3, r0, #0
 328:/home/hkh/git/eapidk-code-r76-trunk/apps/EeePProg/linux/../CfgParser.c ****     if(!strlen(szName)){ /*Skip Empty Blank Lines */ continue; }
 1986              		.loc 1 328 12 view .LVU415
 1987 0d14 0700A0E1 		mov	r0, r7
 1988              	.LVL159:
 327:/home/hkh/git/eapidk-code-r76-trunk/apps/EeePProg/linux/../CfgParser.c ****     szName=skipWhiteSpaces(pCtxt->LineBuffer);
 1989              		.loc 1 327 22 is_stmt 1 view .LVU416
 327:/home/hkh/git/eapidk-code-r76-trunk/apps/EeePProg/linux/../CfgParser.c ****     szName=skipWhiteSpaces(pCtxt->LineBuffer);
 1990              		.loc 1 327 29 is_stmt 0 view .LVU417
 1991 0d18 0050C315 		strbne	r5, [r3]
 328:/home/hkh/git/eapidk-code-r76-trunk/apps/EeePProg/linux/../CfgParser.c ****     if(!strlen(szName)){ /*Skip Empty Blank Lines */ continue; }
 1992              		.loc 1 328 5 is_stmt 1 view .LVU418
 328:/home/hkh/git/eapidk-code-r76-trunk/apps/EeePProg/linux/../CfgParser.c ****     if(!strlen(szName)){ /*Skip Empty Blank Lines */ continue; }
 1993              		.loc 1 328 5 view .LVU419
 328:/home/hkh/git/eapidk-code-r76-trunk/apps/EeePProg/linux/../CfgParser.c ****     if(!strlen(szName)){ /*Skip Empty Blank Lines */ continue; }
 1994              		.loc 1 328 12 is_stmt 0 view .LVU420
 1995 0d1c FEFFFFEB 		bl	skipWhiteSpaces(PLT)
 1996              	.LVL160:
 329:/home/hkh/git/eapidk-code-r76-trunk/apps/EeePProg/linux/../CfgParser.c **** 
 1997              		.loc 1 329 8 view .LVU421
 1998 0d20 0030D0E5 		ldrb	r3, [r0]	@ zero_extendqisi2
 328:/home/hkh/git/eapidk-code-r76-trunk/apps/EeePProg/linux/../CfgParser.c ****     if(!strlen(szName)){ /*Skip Empty Blank Lines */ continue; }
 1999              		.loc 1 328 12 view .LVU422
 2000 0d24 0050A0E1 		mov	r5, r0
 2001              	.LVL161:
ARM GAS  /tmp/ccWSR0Wc.s 			page 53


 329:/home/hkh/git/eapidk-code-r76-trunk/apps/EeePProg/linux/../CfgParser.c **** 
 2002              		.loc 1 329 5 is_stmt 1 view .LVU423
 329:/home/hkh/git/eapidk-code-r76-trunk/apps/EeePProg/linux/../CfgParser.c **** 
 2003              		.loc 1 329 7 is_stmt 0 view .LVU424
 2004 0d28 000053E3 		cmp	r3, #0
 2005 0d2c E9FFFF0A 		beq	.L145
 335:/home/hkh/git/eapidk-code-r76-trunk/apps/EeePProg/linux/../CfgParser.c ****       CfgNodeGen_t *pCurBlockDesc=NULL;
 2006              		.loc 1 335 5 is_stmt 1 view .LVU425
 335:/home/hkh/git/eapidk-code-r76-trunk/apps/EeePProg/linux/../CfgParser.c ****       CfgNodeGen_t *pCurBlockDesc=NULL;
 2007              		.loc 1 335 7 is_stmt 0 view .LVU426
 2008 0d30 5B0053E3 		cmp	r3, #91
 2009 0d34 3600000A 		beq	.L184
 2010              	.LBB12:
 432:/home/hkh/git/eapidk-code-r76-trunk/apps/EeePProg/linux/../CfgParser.c ****       if(pCfgBDesc==NULL){
 2011              		.loc 1 432 7 is_stmt 1 view .LVU427
 2012              	.LVL162:
 433:/home/hkh/git/eapidk-code-r76-trunk/apps/EeePProg/linux/../CfgParser.c **** 					siFormattedMessage_M2('W', __FILE__, "ParseCfgFile_sub", __LINE__, "Invalid Block",
 2013              		.loc 1 433 7 view .LVU428
 441:/home/hkh/git/eapidk-code-r76-trunk/apps/EeePProg/linux/../CfgParser.c ****       if(szValue==NULL){
 2014              		.loc 1 441 7 view .LVU429
 441:/home/hkh/git/eapidk-code-r76-trunk/apps/EeePProg/linux/../CfgParser.c ****       if(szValue==NULL){
 2015              		.loc 1 441 15 is_stmt 0 view .LVU430
 2016 0d38 3D10A0E3 		mov	r1, #61
 2017 0d3c FEFFFFEB 		bl	strchr(PLT)
 2018              	.LVL163:
 442:/home/hkh/git/eapidk-code-r76-trunk/apps/EeePProg/linux/../CfgParser.c **** 					siFormattedMessage_M2('W', __FILE__, "ParseCfgFile_sub", __LINE__, "Invalid Line",
 2019              		.loc 1 442 7 is_stmt 1 view .LVU431
 442:/home/hkh/git/eapidk-code-r76-trunk/apps/EeePProg/linux/../CfgParser.c **** 					siFormattedMessage_M2('W', __FILE__, "ParseCfgFile_sub", __LINE__, "Invalid Line",
 2020              		.loc 1 442 9 is_stmt 0 view .LVU432
 2021 0d40 000050E3 		cmp	r0, #0
 442:/home/hkh/git/eapidk-code-r76-trunk/apps/EeePProg/linux/../CfgParser.c **** 					siFormattedMessage_M2('W', __FILE__, "ParseCfgFile_sub", __LINE__, "Invalid Line",
 2022              		.loc 1 442 9 view .LVU433
 2023 0d44 7000000A 		beq	.L185
 450:/home/hkh/git/eapidk-code-r76-trunk/apps/EeePProg/linux/../CfgParser.c ****       stripWhiteSpaces(szName);
 2024              		.loc 1 450 7 is_stmt 1 view .LVU434
 450:/home/hkh/git/eapidk-code-r76-trunk/apps/EeePProg/linux/../CfgParser.c ****       stripWhiteSpaces(szName);
 2025              		.loc 1 450 15 is_stmt 0 view .LVU435
 2026 0d48 0060A0E1 		mov	r6, r0
 2027              	.LVL164:
 450:/home/hkh/git/eapidk-code-r76-trunk/apps/EeePProg/linux/../CfgParser.c ****       stripWhiteSpaces(szName);
 2028              		.loc 1 450 17 view .LVU436
 2029 0d4c 0030A0E3 		mov	r3, #0
 2030 0d50 0130C6E4 		strb	r3, [r6], #1
 2031              	.LVL165:
 451:/home/hkh/git/eapidk-code-r76-trunk/apps/EeePProg/linux/../CfgParser.c ****       szValue=skipWhiteSpaces(szValue);
 2032              		.loc 1 451 7 is_stmt 1 view .LVU437
 2033 0d54 0500A0E1 		mov	r0, r5
 2034 0d58 FEFFFFEB 		bl	stripWhiteSpaces(PLT)
 2035              	.LVL166:
 452:/home/hkh/git/eapidk-code-r76-trunk/apps/EeePProg/linux/../CfgParser.c **** #if TEST_EEPCFG
 2036              		.loc 1 452 7 view .LVU438
 452:/home/hkh/git/eapidk-code-r76-trunk/apps/EeePProg/linux/../CfgParser.c **** #if TEST_EEPCFG
 2037              		.loc 1 452 15 is_stmt 0 view .LVU439
 2038 0d5c 0600A0E1 		mov	r0, r6
 2039 0d60 FEFFFFEB 		bl	skipWhiteSpaces(PLT)
 2040              	.LVL167:
 457:/home/hkh/git/eapidk-code-r76-trunk/apps/EeePProg/linux/../CfgParser.c **** 
ARM GAS  /tmp/ccWSR0Wc.s 			page 54


 2041              		.loc 1 457 18 view .LVU440
 2042 0d64 0230A0E3 		mov	r3, #2
 452:/home/hkh/git/eapidk-code-r76-trunk/apps/EeePProg/linux/../CfgParser.c **** #if TEST_EEPCFG
 2043              		.loc 1 452 15 view .LVU441
 2044 0d68 0070A0E1 		mov	r7, r0
 2045              	.LVL168:
 457:/home/hkh/git/eapidk-code-r76-trunk/apps/EeePProg/linux/../CfgParser.c **** 
 2046              		.loc 1 457 7 is_stmt 1 view .LVU442
 457:/home/hkh/git/eapidk-code-r76-trunk/apps/EeePProg/linux/../CfgParser.c **** 
 2047              		.loc 1 457 18 is_stmt 0 view .LVU443
 2048 0d6c 0520A0E1 		mov	r2, r5
 2049 0d70 2C108DE2 		add	r1, sp, #44
 2050 0d74 0800A0E1 		mov	r0, r8
 2051              	.LVL169:
 457:/home/hkh/git/eapidk-code-r76-trunk/apps/EeePProg/linux/../CfgParser.c **** 
 2052              		.loc 1 457 18 view .LVU444
 2053 0d78 FEFFFFEB 		bl	GetElementDesc(PLT)
 2054              	.LVL170:
 459:/home/hkh/git/eapidk-code-r76-trunk/apps/EeePProg/linux/../CfgParser.c ****         case EAPI_STATUS_SUCCESS:
 2055              		.loc 1 459 7 is_stmt 1 view .LVU445
 2056 0d7c 006050E2 		subs	r6, r0, #0
 2057 0d80 4D00000A 		beq	.L162
 2058 0d84 013BE0E3 		mvn	r3, #1024
 2059 0d88 030056E1 		cmp	r6, r3
 2060 0d8c 1100001A 		bne	.L140
 488:/home/hkh/git/eapidk-code-r76-trunk/apps/EeePProg/linux/../CfgParser.c ****                 'E', __FILE__, "ParseCfgFile_sub", __LINE__, StatusCode,
 2061              		.loc 1 488 11 view .LVU446
 2062 0d90 0C508DE5 		str	r5, [sp, #12]
 2063 0d94 4500A0E3 		mov	r0, #69
 2064              	.LVL171:
 488:/home/hkh/git/eapidk-code-r76-trunk/apps/EeePProg/linux/../CfgParser.c ****                 'E', __FILE__, "ParseCfgFile_sub", __LINE__, StatusCode,
 2065              		.loc 1 488 11 is_stmt 0 view .LVU447
 2066 0d98 00608DE5 		str	r6, [sp]
 2067              	.LBE12:
 317:/home/hkh/git/eapidk-code-r76-trunk/apps/EeePProg/linux/../CfgParser.c ****     pCtxt->ulLineNum++;
 2068              		.loc 1 317 23 view .LVU448
 2069 0d9c 107084E2 		add	r7, r4, #16
 2070              	.LVL172:
 2071              	.LBB13:
 488:/home/hkh/git/eapidk-code-r76-trunk/apps/EeePProg/linux/../CfgParser.c ****                 'E', __FILE__, "ParseCfgFile_sub", __LINE__, StatusCode,
 2072              		.loc 1 488 11 view .LVU449
 2073 0da0 083094E5 		ldr	r3, [r4, #8]
 2074 0da4 88149FE5 		ldr	r1, .L195+16
 2075 0da8 20209DE5 		ldr	r2, [sp, #32]
 2076 0dac 08308DE5 		str	r3, [sp, #8]
 2077 0db0 80349FE5 		ldr	r3, .L195+20
 2078              	.LPIC154:
 2079 0db4 01108FE0 		add	r1, pc, r1
 2080              	.LPIC155:
 2081 0db8 03308FE0 		add	r3, pc, r3
 2082 0dbc 04308DE5 		str	r3, [sp, #4]
 2083 0dc0 E93100E3 		movw	r3, #489
 2084 0dc4 FEFFFFEB 		bl	siFormattedMessage_SC(PLT)
 2085              	.LVL173:
 492:/home/hkh/git/eapidk-code-r76-trunk/apps/EeePProg/linux/../CfgParser.c ****         default:
 2086              		.loc 1 492 11 is_stmt 1 view .LVU450
 2087              		.loc 1 495 11 view .LVU451
ARM GAS  /tmp/ccWSR0Wc.s 			page 55


 2088              	.LBE13:
 316:/home/hkh/git/eapidk-code-r76-trunk/apps/EeePProg/linux/../CfgParser.c ****     szName=fgets(pCtxt->LineBuffer, ARRAY_SIZE(pCtxt->LineBuffer), pCtxt->pCfgFile);
 2089              		.loc 1 316 9 view .LVU452
 316:/home/hkh/git/eapidk-code-r76-trunk/apps/EeePProg/linux/../CfgParser.c ****     szName=fgets(pCtxt->LineBuffer, ARRAY_SIZE(pCtxt->LineBuffer), pCtxt->pCfgFile);
 2090              		.loc 1 316 10 is_stmt 0 view .LVU453
 2091 0dc8 040094E5 		ldr	r0, [r4, #4]
 2092 0dcc FEFFFFEB 		bl	feof(PLT)
 2093              	.LVL174:
 316:/home/hkh/git/eapidk-code-r76-trunk/apps/EeePProg/linux/../CfgParser.c ****     szName=fgets(pCtxt->LineBuffer, ARRAY_SIZE(pCtxt->LineBuffer), pCtxt->pCfgFile);
 2094              		.loc 1 316 9 view .LVU454
 2095 0dd0 005050E2 		subs	r5, r0, #0
 2096              	.LVL175:
 316:/home/hkh/git/eapidk-code-r76-trunk/apps/EeePProg/linux/../CfgParser.c ****     szName=fgets(pCtxt->LineBuffer, ARRAY_SIZE(pCtxt->LineBuffer), pCtxt->pCfgFile);
 2097              		.loc 1 316 9 view .LVU455
 2098 0dd4 C3FFFF0A 		beq	.L166
 2099              	.LVL176:
 2100              	.L140:
 496:/home/hkh/git/eapidk-code-r76-trunk/apps/EeePProg/linux/../CfgParser.c ****       }
 497:/home/hkh/git/eapidk-code-r76-trunk/apps/EeePProg/linux/../CfgParser.c ****     }
 498:/home/hkh/git/eapidk-code-r76-trunk/apps/EeePProg/linux/../CfgParser.c ****   }
 499:/home/hkh/git/eapidk-code-r76-trunk/apps/EeePProg/linux/../CfgParser.c **** 
 500:/home/hkh/git/eapidk-code-r76-trunk/apps/EeePProg/linux/../CfgParser.c ****   
 501:/home/hkh/git/eapidk-code-r76-trunk/apps/EeePProg/linux/../CfgParser.c **** 
 502:/home/hkh/git/eapidk-code-r76-trunk/apps/EeePProg/linux/../CfgParser.c **** EAPI_APP_ASSERT_EXIT 
 503:/home/hkh/git/eapidk-code-r76-trunk/apps/EeePProg/linux/../CfgParser.c **** /*   siFormattedMessage_SC('L', __FILE__, "ParseCfgFile_sub", __LINE__, StatusCode, "Exiting %s\n",
 504:/home/hkh/git/eapidk-code-r76-trunk/apps/EeePProg/linux/../CfgParser.c ****   -- pCtxt->ulDepth;
 2101              		.loc 1 504 3 is_stmt 1 view .LVU456
 2102 0dd8 0C3094E5 		ldr	r3, [r4, #12]
 293:/home/hkh/git/eapidk-code-r76-trunk/apps/EeePProg/linux/../CfgParser.c ****   EApiStatus_t StatusCode=EAPI_STATUS_SUCCESS;
 2103              		.loc 1 293 1 is_stmt 0 view .LVU457
 2104 0ddc 58249FE5 		ldr	r2, .L195+24
 2105              		.loc 1 504 3 view .LVU458
 2106 0de0 013043E2 		sub	r3, r3, #1
 2107 0de4 0C3084E5 		str	r3, [r4, #12]
 505:/home/hkh/git/eapidk-code-r76-trunk/apps/EeePProg/linux/../CfgParser.c **** 
 506:/home/hkh/git/eapidk-code-r76-trunk/apps/EeePProg/linux/../CfgParser.c ****   return StatusCode;
 2108              		.loc 1 506 3 is_stmt 1 view .LVU459
 293:/home/hkh/git/eapidk-code-r76-trunk/apps/EeePProg/linux/../CfgParser.c ****   EApiStatus_t StatusCode=EAPI_STATUS_SUCCESS;
 2109              		.loc 1 293 1 is_stmt 0 view .LVU460
 2110              	.LPIC156:
 2111 0de8 02208FE0 		add	r2, pc, r2
 507:/home/hkh/git/eapidk-code-r76-trunk/apps/EeePProg/linux/../CfgParser.c **** }
 2112              		.loc 1 507 1 view .LVU461
 2113 0dec 34349FE5 		ldr	r3, .L195+4
 2114 0df0 033092E7 		ldr	r3, [r2, r3]
 2115 0df4 002093E5 		ldr	r2, [r3]
 2116 0df8 34309DE5 		ldr	r3, [sp, #52]
 2117 0dfc 022033E0 		eors	r2, r3, r2
 2118 0e00 0030A0E3 		mov	r3, #0
 2119 0e04 0501001A 		bne	.L186
 2120 0e08 0600A0E1 		mov	r0, r6
 2121 0e0c 3CD08DE2 		add	sp, sp, #60
 2122              		.cfi_remember_state
 2123              		.cfi_def_cfa_offset 36
 2124              		@ sp needed
 2125 0e10 F08FBDE8 		pop	{r4, r5, r6, r7, r8, r9, r10, fp, pc}
 2126              	.LVL177:
ARM GAS  /tmp/ccWSR0Wc.s 			page 56


 2127              	.L184:
 2128              		.cfi_restore_state
 2129              	.LBB14:
 336:/home/hkh/git/eapidk-code-r76-trunk/apps/EeePProg/linux/../CfgParser.c ****       size_t stTokenLen=strcspn(++szName, "]");
 2130              		.loc 1 336 7 is_stmt 1 view .LVU462
 337:/home/hkh/git/eapidk-code-r76-trunk/apps/EeePProg/linux/../CfgParser.c ****       if(!stTokenLen){
 2131              		.loc 1 337 25 is_stmt 0 view .LVU463
 2132 0e14 24149FE5 		ldr	r1, .L195+28
 337:/home/hkh/git/eapidk-code-r76-trunk/apps/EeePProg/linux/../CfgParser.c ****       if(!stTokenLen){
 2133              		.loc 1 337 14 view .LVU464
 2134 0e18 01A080E2 		add	r10, r0, #1
 336:/home/hkh/git/eapidk-code-r76-trunk/apps/EeePProg/linux/../CfgParser.c ****       size_t stTokenLen=strcspn(++szName, "]");
 2135              		.loc 1 336 21 view .LVU465
 2136 0e1c 0030A0E3 		mov	r3, #0
 337:/home/hkh/git/eapidk-code-r76-trunk/apps/EeePProg/linux/../CfgParser.c ****       if(!stTokenLen){
 2137              		.loc 1 337 25 view .LVU466
 2138 0e20 0A00A0E1 		mov	r0, r10
 2139              	.LVL178:
 336:/home/hkh/git/eapidk-code-r76-trunk/apps/EeePProg/linux/../CfgParser.c ****       size_t stTokenLen=strcspn(++szName, "]");
 2140              		.loc 1 336 21 view .LVU467
 2141 0e24 30308DE5 		str	r3, [sp, #48]
 337:/home/hkh/git/eapidk-code-r76-trunk/apps/EeePProg/linux/../CfgParser.c ****       if(!stTokenLen){
 2142              		.loc 1 337 7 is_stmt 1 view .LVU468
 2143              	.LVL179:
 337:/home/hkh/git/eapidk-code-r76-trunk/apps/EeePProg/linux/../CfgParser.c ****       if(!stTokenLen){
 2144              		.loc 1 337 25 is_stmt 0 view .LVU469
 2145              	.LPIC123:
 2146 0e28 01108FE0 		add	r1, pc, r1
 2147 0e2c FEFFFFEB 		bl	strcspn(PLT)
 2148              	.LVL180:
 338:/home/hkh/git/eapidk-code-r76-trunk/apps/EeePProg/linux/../CfgParser.c ****         siFormattedMessage_SC('L', __FILE__, "ParseCfgFile_sub", __LINE__, StatusCode,
 2149              		.loc 1 338 7 is_stmt 1 view .LVU470
 338:/home/hkh/git/eapidk-code-r76-trunk/apps/EeePProg/linux/../CfgParser.c ****         siFormattedMessage_SC('L', __FILE__, "ParseCfgFile_sub", __LINE__, StatusCode,
 2150              		.loc 1 338 9 is_stmt 0 view .LVU471
 2151 0e30 009050E2 		subs	r9, r0, #0
 2152 0e34 4500000A 		beq	.L187
 2153              	.LVL181:
 2154              	.L147:
 346:/home/hkh/git/eapidk-code-r76-trunk/apps/EeePProg/linux/../CfgParser.c ****         szName[stTokenLen]='\0';
 2155              		.loc 1 346 7 is_stmt 1 view .LVU472
 346:/home/hkh/git/eapidk-code-r76-trunk/apps/EeePProg/linux/../CfgParser.c ****         szName[stTokenLen]='\0';
 2156              		.loc 1 346 9 is_stmt 0 view .LVU473
 2157 0e38 0130D5E5 		ldrb	r3, [r5, #1]	@ zero_extendqisi2
 2158 0e3c 2F0053E3 		cmp	r3, #47
 411:/home/hkh/git/eapidk-code-r76-trunk/apps/EeePProg/linux/../CfgParser.c ****         StatusCode=GetElementDesc(pCfgBDesc, &pCurBlockDesc, szName, CfgBlockNode);
 2159              		.loc 1 411 15 view .LVU474
 2160 0e40 09308AE0 		add	r3, r10, r9
 346:/home/hkh/git/eapidk-code-r76-trunk/apps/EeePProg/linux/../CfgParser.c ****         szName[stTokenLen]='\0';
 2161              		.loc 1 346 9 view .LVU475
 2162 0e44 7E00000A 		beq	.L188
 411:/home/hkh/git/eapidk-code-r76-trunk/apps/EeePProg/linux/../CfgParser.c ****         StatusCode=GetElementDesc(pCfgBDesc, &pCurBlockDesc, szName, CfgBlockNode);
 2163              		.loc 1 411 9 is_stmt 1 view .LVU476
 411:/home/hkh/git/eapidk-code-r76-trunk/apps/EeePProg/linux/../CfgParser.c ****         StatusCode=GetElementDesc(pCfgBDesc, &pCurBlockDesc, szName, CfgBlockNode);
 2164              		.loc 1 411 27 is_stmt 0 view .LVU477
 2165 0e48 0030A0E3 		mov	r3, #0
 412:/home/hkh/git/eapidk-code-r76-trunk/apps/EeePProg/linux/../CfgParser.c ****         szName[stTokenLen]=']';
 2166              		.loc 1 412 20 view .LVU478
ARM GAS  /tmp/ccWSR0Wc.s 			page 57


 2167 0e4c 0A20A0E1 		mov	r2, r10
 411:/home/hkh/git/eapidk-code-r76-trunk/apps/EeePProg/linux/../CfgParser.c ****         StatusCode=GetElementDesc(pCfgBDesc, &pCurBlockDesc, szName, CfgBlockNode);
 2168              		.loc 1 411 27 view .LVU479
 2169 0e50 0930CAE7 		strb	r3, [r10, r9]
 412:/home/hkh/git/eapidk-code-r76-trunk/apps/EeePProg/linux/../CfgParser.c ****         szName[stTokenLen]=']';
 2170              		.loc 1 412 9 is_stmt 1 view .LVU480
 412:/home/hkh/git/eapidk-code-r76-trunk/apps/EeePProg/linux/../CfgParser.c ****         szName[stTokenLen]=']';
 2171              		.loc 1 412 20 is_stmt 0 view .LVU481
 2172 0e54 30108DE2 		add	r1, sp, #48
 2173 0e58 0130A0E3 		mov	r3, #1
 2174 0e5c 0800A0E1 		mov	r0, r8
 2175 0e60 FEFFFFEB 		bl	GetElementDesc(PLT)
 2176              	.LVL182:
 413:/home/hkh/git/eapidk-code-r76-trunk/apps/EeePProg/linux/../CfgParser.c ****         switch(StatusCode){
 2177              		.loc 1 413 9 is_stmt 1 view .LVU482
 414:/home/hkh/git/eapidk-code-r76-trunk/apps/EeePProg/linux/../CfgParser.c ****           case EAPI_STATUS_SUCCESS:
 2178              		.loc 1 414 9 is_stmt 0 view .LVU483
 2179 0e64 006050E2 		subs	r6, r0, #0
 413:/home/hkh/git/eapidk-code-r76-trunk/apps/EeePProg/linux/../CfgParser.c ****         switch(StatusCode){
 2180              		.loc 1 413 27 view .LVU484
 2181 0e68 5D30A0E3 		mov	r3, #93
 2182 0e6c 0930CAE7 		strb	r3, [r10, r9]
 414:/home/hkh/git/eapidk-code-r76-trunk/apps/EeePProg/linux/../CfgParser.c ****           case EAPI_STATUS_SUCCESS:
 2183              		.loc 1 414 9 is_stmt 1 view .LVU485
 2184 0e70 4500000A 		beq	.L156
 2185 0e74 013BE0E3 		mvn	r3, #1024
 2186 0e78 030056E1 		cmp	r6, r3
 2187 0e7c D5FFFF1A 		bne	.L140
 420:/home/hkh/git/eapidk-code-r76-trunk/apps/EeePProg/linux/../CfgParser.c ****                   'E', __FILE__, "ParseCfgFile_sub", __LINE__, StatusCode,
 2188              		.loc 1 420 13 view .LVU486
 2189 0e80 0CA08DE5 		str	r10, [sp, #12]
 2190 0e84 4500A0E3 		mov	r0, #69
 2191              	.LVL183:
 420:/home/hkh/git/eapidk-code-r76-trunk/apps/EeePProg/linux/../CfgParser.c ****                   'E', __FILE__, "ParseCfgFile_sub", __LINE__, StatusCode,
 2192              		.loc 1 420 13 is_stmt 0 view .LVU487
 2193 0e88 00608DE5 		str	r6, [sp]
 2194 0e8c 083094E5 		ldr	r3, [r4, #8]
 2195 0e90 AC239FE5 		ldr	r2, .L195+32
 2196 0e94 AC139FE5 		ldr	r1, .L195+36
 2197 0e98 08308DE5 		str	r3, [sp, #8]
 2198 0e9c A8339FE5 		ldr	r3, .L195+40
 2199              	.LPIC140:
 2200 0ea0 02208FE0 		add	r2, pc, r2
 2201              	.LPIC141:
 2202 0ea4 01108FE0 		add	r1, pc, r1
 2203              	.LPIC142:
 2204 0ea8 03308FE0 		add	r3, pc, r3
 2205 0eac 04308DE5 		str	r3, [sp, #4]
 2206 0eb0 A53100E3 		movw	r3, #421
 2207 0eb4 FEFFFFEB 		bl	siFormattedMessage_SC(PLT)
 2208              	.LVL184:
 424:/home/hkh/git/eapidk-code-r76-trunk/apps/EeePProg/linux/../CfgParser.c ****           default:
 2209              		.loc 1 424 13 is_stmt 1 view .LVU488
 427:/home/hkh/git/eapidk-code-r76-trunk/apps/EeePProg/linux/../CfgParser.c ****         }
 2210              		.loc 1 427 13 view .LVU489
 424:/home/hkh/git/eapidk-code-r76-trunk/apps/EeePProg/linux/../CfgParser.c ****           default:
 2211              		.loc 1 424 13 is_stmt 0 view .LVU490
ARM GAS  /tmp/ccWSR0Wc.s 			page 58


 2212 0eb8 85FFFFEA 		b	.L141
 2213              	.LVL185:
 2214              	.L162:
 424:/home/hkh/git/eapidk-code-r76-trunk/apps/EeePProg/linux/../CfgParser.c ****           default:
 2215              		.loc 1 424 13 view .LVU491
 2216              	.LBE14:
 2217              	.LBB15:
 461:/home/hkh/git/eapidk-code-r76-trunk/apps/EeePProg/linux/../CfgParser.c ****             siFormattedMessage_SC(
 2218              		.loc 1 461 11 is_stmt 1 view .LVU492
 461:/home/hkh/git/eapidk-code-r76-trunk/apps/EeePProg/linux/../CfgParser.c ****             siFormattedMessage_SC(
 2219              		.loc 1 461 25 is_stmt 0 view .LVU493
 2220 0ebc 2C509DE5 		ldr	r5, [sp, #44]
 2221              	.LVL186:
 461:/home/hkh/git/eapidk-code-r76-trunk/apps/EeePProg/linux/../CfgParser.c ****             siFormattedMessage_SC(
 2222              		.loc 1 461 44 view .LVU494
 2223 0ec0 0C3095E5 		ldr	r3, [r5, #12]
 461:/home/hkh/git/eapidk-code-r76-trunk/apps/EeePProg/linux/../CfgParser.c ****             siFormattedMessage_SC(
 2224              		.loc 1 461 13 view .LVU495
 2225 0ec4 102095E5 		ldr	r2, [r5, #16]
 461:/home/hkh/git/eapidk-code-r76-trunk/apps/EeePProg/linux/../CfgParser.c ****             siFormattedMessage_SC(
 2226              		.loc 1 461 54 view .LVU496
 2227 0ec8 011083E2 		add	r1, r3, #1
 461:/home/hkh/git/eapidk-code-r76-trunk/apps/EeePProg/linux/../CfgParser.c ****             siFormattedMessage_SC(
 2228              		.loc 1 461 13 view .LVU497
 2229 0ecc 020051E1 		cmp	r1, r2
 2230 0ed0 A200008A 		bhi	.L189
 468:/home/hkh/git/eapidk-code-r76-trunk/apps/EeePProg/linux/../CfgParser.c ****                 (CfgElementDesc_t*)pCurElement, 
 2231              		.loc 1 468 11 is_stmt 1 view .LVU498
 468:/home/hkh/git/eapidk-code-r76-trunk/apps/EeePProg/linux/../CfgParser.c ****                 (CfgElementDesc_t*)pCurElement, 
 2232              		.loc 1 468 22 is_stmt 0 view .LVU499
 2233 0ed4 1C2095E5 		ldr	r2, [r5, #28]
 2234 0ed8 0500A0E1 		mov	r0, r5
 2235              	.LVL187:
 470:/home/hkh/git/eapidk-code-r76-trunk/apps/EeePProg/linux/../CfgParser.c ****                     pCurElement->Element.Instances.pIndx,
 2236              		.loc 1 470 17 view .LVU500
 2237 0edc 141095E5 		ldr	r1, [r5, #20]
 468:/home/hkh/git/eapidk-code-r76-trunk/apps/EeePProg/linux/../CfgParser.c ****                 (CfgElementDesc_t*)pCurElement, 
 2238              		.loc 1 468 22 view .LVU501
 2239 0ee0 912321E0 		mla	r1, r1, r3, r2
 468:/home/hkh/git/eapidk-code-r76-trunk/apps/EeePProg/linux/../CfgParser.c ****                 (CfgElementDesc_t*)pCurElement, 
 2240              		.loc 1 468 52 view .LVU502
 2241 0ee4 303095E5 		ldr	r3, [r5, #48]
 468:/home/hkh/git/eapidk-code-r76-trunk/apps/EeePProg/linux/../CfgParser.c ****                 (CfgElementDesc_t*)pCurElement, 
 2242              		.loc 1 468 22 view .LVU503
 2243 0ee8 0720A0E1 		mov	r2, r7
 2244 0eec 003093E5 		ldr	r3, [r3]
 2245 0ef0 33FF2FE1 		blx	r3
 2246              	.LVL188:
 477:/home/hkh/git/eapidk-code-r76-trunk/apps/EeePProg/linux/../CfgParser.c ****             siFormattedMessage_SC(
 2247              		.loc 1 477 11 is_stmt 1 view .LVU504
 477:/home/hkh/git/eapidk-code-r76-trunk/apps/EeePProg/linux/../CfgParser.c ****             siFormattedMessage_SC(
 2248              		.loc 1 477 13 is_stmt 0 view .LVU505
 2249 0ef4 006050E2 		subs	r6, r0, #0
 2250 0ef8 A700001A 		bne	.L190
 484:/home/hkh/git/eapidk-code-r76-trunk/apps/EeePProg/linux/../CfgParser.c ****           FoundElement++;
 2251              		.loc 1 484 11 is_stmt 1 view .LVU506
 484:/home/hkh/git/eapidk-code-r76-trunk/apps/EeePProg/linux/../CfgParser.c ****           FoundElement++;
ARM GAS  /tmp/ccWSR0Wc.s 			page 59


 2252              		.loc 1 484 51 is_stmt 0 view .LVU507
 2253 0efc 0C3095E5 		ldr	r3, [r5, #12]
 2254 0f00 013083E2 		add	r3, r3, #1
 2255 0f04 0C3085E5 		str	r3, [r5, #12]
 485:/home/hkh/git/eapidk-code-r76-trunk/apps/EeePProg/linux/../CfgParser.c ****           break;
 2256              		.loc 1 485 11 is_stmt 1 view .LVU508
 2257              	.LVL189:
 486:/home/hkh/git/eapidk-code-r76-trunk/apps/EeePProg/linux/../CfgParser.c ****         case EAPI_STATUS_NOT_FOUND:
 2258              		.loc 1 486 11 view .LVU509
 2259 0f08 71FFFFEA 		b	.L141
 2260              	.LVL190:
 2261              	.L185:
 443:/home/hkh/git/eapidk-code-r76-trunk/apps/EeePProg/linux/../CfgParser.c ****             "(%04lu) : %s\n", 
 2262              		.loc 1 443 6 discriminator 1 view .LVU510
 2263 0f0c 0C708DE5 		str	r7, [sp, #12]
 2264 0f10 5700A0E3 		mov	r0, #87
 2265              	.LVL191:
 443:/home/hkh/git/eapidk-code-r76-trunk/apps/EeePProg/linux/../CfgParser.c ****             "(%04lu) : %s\n", 
 2266              		.loc 1 443 6 is_stmt 0 discriminator 1 view .LVU511
 2267 0f14 083094E5 		ldr	r3, [r4, #8]
 2268 0f18 30239FE5 		ldr	r2, .L195+44
 2269 0f1c 30139FE5 		ldr	r1, .L195+48
 2270 0f20 08308DE5 		str	r3, [sp, #8]
 2271 0f24 2C339FE5 		ldr	r3, .L195+52
 2272              	.LPIC143:
 2273 0f28 02208FE0 		add	r2, pc, r2
 2274              	.LPIC144:
 2275 0f2c 01108FE0 		add	r1, pc, r1
 2276              	.LPIC145:
 2277 0f30 03308FE0 		add	r3, pc, r3
 2278 0f34 04308DE5 		str	r3, [sp, #4]
 2279 0f38 1C339FE5 		ldr	r3, .L195+56
 2280              	.LPIC146:
 2281 0f3c 03308FE0 		add	r3, pc, r3
 2282 0f40 00308DE5 		str	r3, [sp]
 2283 0f44 BB3100E3 		movw	r3, #443
 2284 0f48 FEFFFFEB 		bl	siFormattedMessage_M2(PLT)
 2285              	.LVL192:
 448:/home/hkh/git/eapidk-code-r76-trunk/apps/EeePProg/linux/../CfgParser.c ****       }
 2286              		.loc 1 448 9 is_stmt 1 discriminator 1 view .LVU512
 2287 0f4c 60FFFFEA 		b	.L141
 2288              	.LVL193:
 2289              	.L187:
 448:/home/hkh/git/eapidk-code-r76-trunk/apps/EeePProg/linux/../CfgParser.c ****       }
 2290              		.loc 1 448 9 is_stmt 0 discriminator 1 view .LVU513
 2291              	.LBE15:
 2292              	.LBB16:
 339:/home/hkh/git/eapidk-code-r76-trunk/apps/EeePProg/linux/../CfgParser.c ****           "(%04lu)%s\n", pCtxt->ulLineNum, pCtxt->LineBuffer);
 2293              		.loc 1 339 9 is_stmt 1 view .LVU514
 2294 0f50 0C708DE5 		str	r7, [sp, #12]
 2295 0f54 4C00A0E3 		mov	r0, #76
 2296              	.LVL194:
 339:/home/hkh/git/eapidk-code-r76-trunk/apps/EeePProg/linux/../CfgParser.c ****           "(%04lu)%s\n", pCtxt->ulLineNum, pCtxt->LineBuffer);
 2297              		.loc 1 339 9 is_stmt 0 view .LVU515
 2298 0f58 00608DE5 		str	r6, [sp]
 2299 0f5c 083094E5 		ldr	r3, [r4, #8]
 2300 0f60 F8229FE5 		ldr	r2, .L195+60
ARM GAS  /tmp/ccWSR0Wc.s 			page 60


 2301 0f64 F8129FE5 		ldr	r1, .L195+64
 2302 0f68 08308DE5 		str	r3, [sp, #8]
 2303 0f6c F4329FE5 		ldr	r3, .L195+68
 2304              	.LPIC124:
 2305 0f70 02208FE0 		add	r2, pc, r2
 2306              	.LPIC125:
 2307 0f74 01108FE0 		add	r1, pc, r1
 2308              	.LPIC126:
 2309 0f78 03308FE0 		add	r3, pc, r3
 2310 0f7c 04308DE5 		str	r3, [sp, #4]
 2311 0f80 533100E3 		movw	r3, #339
 2312 0f84 FEFFFFEB 		bl	siFormattedMessage_SC(PLT)
 2313              	.LVL195:
 2314 0f88 AAFFFFEA 		b	.L147
 2315              	.LVL196:
 2316              	.L156:
 416:/home/hkh/git/eapidk-code-r76-trunk/apps/EeePProg/linux/../CfgParser.c ****             DO(ParseCfgFile_sub(pCtxt, pCurBlockDesc, stRequired&&pCurBlockDesc->Block.cuiRequired)
 2317              		.loc 1 416 13 is_stmt 1 view .LVU516
 417:/home/hkh/git/eapidk-code-r76-trunk/apps/EeePProg/linux/../CfgParser.c ****             break;
 2318              		.loc 1 417 13 is_stmt 0 view .LVU517
 2319 0f8c 1C309DE5 		ldr	r3, [sp, #28]
 416:/home/hkh/git/eapidk-code-r76-trunk/apps/EeePProg/linux/../CfgParser.c ****             DO(ParseCfgFile_sub(pCtxt, pCurBlockDesc, stRequired&&pCurBlockDesc->Block.cuiRequired)
 2320              		.loc 1 416 26 view .LVU518
 2321 0f90 30109DE5 		ldr	r1, [sp, #48]
 417:/home/hkh/git/eapidk-code-r76-trunk/apps/EeePProg/linux/../CfgParser.c ****             break;
 2322              		.loc 1 417 13 view .LVU519
 2323 0f94 000053E3 		cmp	r3, #0
 416:/home/hkh/git/eapidk-code-r76-trunk/apps/EeePProg/linux/../CfgParser.c ****             DO(ParseCfgFile_sub(pCtxt, pCurBlockDesc, stRequired&&pCurBlockDesc->Block.cuiRequired)
 2324              		.loc 1 416 41 view .LVU520
 2325 0f98 0030E0E3 		mvn	r3, #0
 2326 0f9c 283081E5 		str	r3, [r1, #40]
 417:/home/hkh/git/eapidk-code-r76-trunk/apps/EeePProg/linux/../CfgParser.c ****             break;
 2327              		.loc 1 417 13 is_stmt 1 view .LVU521
 417:/home/hkh/git/eapidk-code-r76-trunk/apps/EeePProg/linux/../CfgParser.c ****             break;
 2328              		.loc 1 417 13 view .LVU522
 2329 0fa0 1300001A 		bne	.L191
 2330 0fa4 1C209DE5 		ldr	r2, [sp, #28]
 2331              	.L158:
 417:/home/hkh/git/eapidk-code-r76-trunk/apps/EeePProg/linux/../CfgParser.c ****             break;
 2332              		.loc 1 417 13 is_stmt 0 discriminator 6 view .LVU523
 2333 0fa8 0400A0E1 		mov	r0, r4
 2334              	.LVL197:
 417:/home/hkh/git/eapidk-code-r76-trunk/apps/EeePProg/linux/../CfgParser.c ****             break;
 2335              		.loc 1 417 13 discriminator 6 view .LVU524
 2336 0fac FEFFFFEB 		bl	ParseCfgFile_sub(PLT)
 2337              	.LVL198:
 417:/home/hkh/git/eapidk-code-r76-trunk/apps/EeePProg/linux/../CfgParser.c ****             break;
 2338              		.loc 1 417 13 is_stmt 1 discriminator 6 view .LVU525
 2339 0fb0 006050E2 		subs	r6, r0, #0
 2340 0fb4 46FFFF0A 		beq	.L141
 417:/home/hkh/git/eapidk-code-r76-trunk/apps/EeePProg/linux/../CfgParser.c ****             break;
 2341              		.loc 1 417 13 discriminator 7 view .LVU526
 2342 0fb8 AC129FE5 		ldr	r1, .L195+72
 2343 0fbc A13100E3 		movw	r3, #417
 2344 0fc0 A8029FE5 		ldr	r0, .L195+76
 2345              	.LVL199:
 417:/home/hkh/git/eapidk-code-r76-trunk/apps/EeePProg/linux/../CfgParser.c ****             break;
ARM GAS  /tmp/ccWSR0Wc.s 			page 61


 2346              		.loc 1 417 13 is_stmt 0 discriminator 7 view .LVU527
 2347 0fc4 A8229FE5 		ldr	r2, .L195+80
 2348              	.LPIC139:
 2349 0fc8 01108FE0 		add	r1, pc, r1
 2350 0fcc 00608DE5 		str	r6, [sp]
 2351 0fd0 04108DE5 		str	r1, [sp, #4]
 2352              	.LPIC138:
 2353 0fd4 00008FE0 		add	r0, pc, r0
 2354 0fd8 98129FE5 		ldr	r1, .L195+84
 2355              	.LPIC136:
 2356 0fdc 02208FE0 		add	r2, pc, r2
 2357 0fe0 08008DE5 		str	r0, [sp, #8]
 2358 0fe4 4500A0E3 		mov	r0, #69
 2359              	.LPIC137:
 2360 0fe8 01108FE0 		add	r1, pc, r1
 2361 0fec FEFFFFEB 		bl	siFormattedMessage_SC(PLT)
 2362              	.LVL200:
 417:/home/hkh/git/eapidk-code-r76-trunk/apps/EeePProg/linux/../CfgParser.c ****             break;
 2363              		.loc 1 417 13 is_stmt 1 discriminator 7 view .LVU528
 2364 0ff0 78FFFFEA 		b	.L140
 2365              	.LVL201:
 2366              	.L191:
 417:/home/hkh/git/eapidk-code-r76-trunk/apps/EeePProg/linux/../CfgParser.c ****             break;
 2367              		.loc 1 417 13 is_stmt 0 discriminator 1 view .LVU529
 2368 0ff4 082091E5 		ldr	r2, [r1, #8]
 2369 0ff8 002052E2 		subs	r2, r2, #0
 2370 0ffc 0120A013 		movne	r2, #1
 2371 1000 E8FFFFEA 		b	.L158
 2372              	.LVL202:
 2373              	.L183:
 417:/home/hkh/git/eapidk-code-r76-trunk/apps/EeePProg/linux/../CfgParser.c ****             break;
 2374              		.loc 1 417 13 discriminator 1 view .LVU530
 2375              	.LBE16:
 306:/home/hkh/git/eapidk-code-r76-trunk/apps/EeePProg/linux/../CfgParser.c ****         ParseCfgFile_sub,
 2376              		.loc 1 306 3 is_stmt 1 discriminator 1 view .LVU531
 306:/home/hkh/git/eapidk-code-r76-trunk/apps/EeePProg/linux/../CfgParser.c ****         ParseCfgFile_sub,
 2377              		.loc 1 306 3 discriminator 1 view .LVU532
 2378 1004 70129FE5 		ldr	r1, .L195+88
 2379              	.LVL203:
 306:/home/hkh/git/eapidk-code-r76-trunk/apps/EeePProg/linux/../CfgParser.c ****         ParseCfgFile_sub,
 2380              		.loc 1 306 3 is_stmt 0 discriminator 1 view .LVU533
 2381 1008 016CE0E3 		mvn	r6, #256
 2382 100c 6C229FE5 		ldr	r2, .L195+92
 2383 1010 323100E3 		movw	r3, #306
 2384 1014 00608DE5 		str	r6, [sp]
 2385              	.LVL204:
 306:/home/hkh/git/eapidk-code-r76-trunk/apps/EeePProg/linux/../CfgParser.c ****         ParseCfgFile_sub,
 2386              		.loc 1 306 3 discriminator 1 view .LVU534
 2387 1018 4500A0E3 		mov	r0, #69
 2388              	.LVL205:
 306:/home/hkh/git/eapidk-code-r76-trunk/apps/EeePProg/linux/../CfgParser.c ****         ParseCfgFile_sub,
 2389              		.loc 1 306 3 discriminator 1 view .LVU535
 2390              	.LPIC120:
 2391 101c 01108FE0 		add	r1, pc, r1
 2392              	.LPIC121:
 2393 1020 02208FE0 		add	r2, pc, r2
 2394 1024 08108DE5 		str	r1, [sp, #8]
ARM GAS  /tmp/ccWSR0Wc.s 			page 62


 2395 1028 04208DE5 		str	r2, [sp, #4]
 2396 102c 50129FE5 		ldr	r1, .L195+96
 2397 1030 50229FE5 		ldr	r2, .L195+100
 2398              	.LPIC119:
 2399 1034 01108FE0 		add	r1, pc, r1
 2400              	.LPIC118:
 2401 1038 02208FE0 		add	r2, pc, r2
 2402 103c FEFFFFEB 		bl	siFormattedMessage_SC(PLT)
 2403              	.LVL206:
 306:/home/hkh/git/eapidk-code-r76-trunk/apps/EeePProg/linux/../CfgParser.c ****         ParseCfgFile_sub,
 2404              		.loc 1 306 3 is_stmt 1 discriminator 1 view .LVU536
 306:/home/hkh/git/eapidk-code-r76-trunk/apps/EeePProg/linux/../CfgParser.c ****         ParseCfgFile_sub,
 2405              		.loc 1 306 3 discriminator 1 view .LVU537
 306:/home/hkh/git/eapidk-code-r76-trunk/apps/EeePProg/linux/../CfgParser.c ****         ParseCfgFile_sub,
 2406              		.loc 1 306 3 discriminator 1 view .LVU538
 2407 1040 64FFFFEA 		b	.L140
 2408              	.LVL207:
 2409              	.L188:
 2410              	.LBB17:
 347:/home/hkh/git/eapidk-code-r76-trunk/apps/EeePProg/linux/../CfgParser.c ****         ++szName;
 2411              		.loc 1 347 9 view .LVU539
 347:/home/hkh/git/eapidk-code-r76-trunk/apps/EeePProg/linux/../CfgParser.c ****         ++szName;
 2412              		.loc 1 347 27 is_stmt 0 view .LVU540
 2413 1044 0020A0E3 		mov	r2, #0
 348:/home/hkh/git/eapidk-code-r76-trunk/apps/EeePProg/linux/../CfgParser.c ****         /*
 2414              		.loc 1 348 9 view .LVU541
 2415 1048 025085E2 		add	r5, r5, #2
 347:/home/hkh/git/eapidk-code-r76-trunk/apps/EeePProg/linux/../CfgParser.c ****         ++szName;
 2416              		.loc 1 347 27 view .LVU542
 2417 104c 0020C3E5 		strb	r2, [r3]
 348:/home/hkh/git/eapidk-code-r76-trunk/apps/EeePProg/linux/../CfgParser.c ****         /*
 2418              		.loc 1 348 9 is_stmt 1 view .LVU543
 2419              	.LVL208:
 353:/home/hkh/git/eapidk-code-r76-trunk/apps/EeePProg/linux/../CfgParser.c ****         {
 2420              		.loc 1 353 9 view .LVU544
 353:/home/hkh/git/eapidk-code-r76-trunk/apps/EeePProg/linux/../CfgParser.c ****         {
 2421              		.loc 1 353 12 is_stmt 0 view .LVU545
 2422 1050 0500A0E1 		mov	r0, r5
 2423 1054 047098E5 		ldr	r7, [r8, #4]
 2424 1058 0710A0E1 		mov	r1, r7
 2425 105c FEFFFFEB 		bl	strcmp(PLT)
 2426              	.LVL209:
 353:/home/hkh/git/eapidk-code-r76-trunk/apps/EeePProg/linux/../CfgParser.c ****         {
 2427              		.loc 1 353 11 view .LVU546
 2428 1060 000050E3 		cmp	r0, #0
 2429 1064 2B00001A 		bne	.L192
 366:/home/hkh/git/eapidk-code-r76-trunk/apps/EeePProg/linux/../CfgParser.c ****                   i=pCfgBDesc->Block.Elements.stUsedCnt,
 2430              		.loc 1 366 13 is_stmt 1 view .LVU547
 367:/home/hkh/git/eapidk-code-r76-trunk/apps/EeePProg/linux/../CfgParser.c ****                   pCurElement=pCfgBDesc->Block.Elements.pIndx; 
 2431              		.loc 1 367 20 is_stmt 0 view .LVU548
 2432 1068 0C2098E5 		ldr	r2, [r8, #12]
 2433              	.LVL210:
 368:/home/hkh/git/eapidk-code-r76-trunk/apps/EeePProg/linux/../CfgParser.c ****                   i--; 
 2434              		.loc 1 368 56 view .LVU549
 2435 106c 1C3098E5 		ldr	r3, [r8, #28]
 369:/home/hkh/git/eapidk-code-r76-trunk/apps/EeePProg/linux/../CfgParser.c ****                   pCurElement++
 2436              		.loc 1 369 19 view .LVU550
ARM GAS  /tmp/ccWSR0Wc.s 			page 63


 2437 1070 000052E3 		cmp	r2, #0
 369:/home/hkh/git/eapidk-code-r76-trunk/apps/EeePProg/linux/../CfgParser.c ****                   pCurElement++
 2438              		.loc 1 369 20 view .LVU551
 2439 1074 012042E2 		sub	r2, r2, #1
 2440              	.LVL211:
 368:/home/hkh/git/eapidk-code-r76-trunk/apps/EeePProg/linux/../CfgParser.c ****                   i--; 
 2441              		.loc 1 368 30 view .LVU552
 2442 1078 2C308DE5 		str	r3, [sp, #44]
 369:/home/hkh/git/eapidk-code-r76-trunk/apps/EeePProg/linux/../CfgParser.c ****                   pCurElement++
 2443              		.loc 1 369 19 is_stmt 1 view .LVU553
 2444              	.LVL212:
 369:/home/hkh/git/eapidk-code-r76-trunk/apps/EeePProg/linux/../CfgParser.c ****                   pCurElement++
 2445              		.loc 1 369 19 is_stmt 0 view .LVU554
 2446 107c 0900001A 		bne	.L155
 2447 1080 330000EA 		b	.L150
 2448              	.L194:
 374:/home/hkh/git/eapidk-code-r76-trunk/apps/EeePProg/linux/../CfgParser.c ****                     case CfgBlockNode:
 2449              		.loc 1 374 19 view .LVU555
 2450 1084 020051E3 		cmp	r1, #2
 2451 1088 0200001A 		bne	.L151
 389:/home/hkh/git/eapidk-code-r76-trunk/apps/EeePProg/linux/../CfgParser.c ****                       {
 2452              		.loc 1 389 23 is_stmt 1 view .LVU556
 389:/home/hkh/git/eapidk-code-r76-trunk/apps/EeePProg/linux/../CfgParser.c ****                       {
 2453              		.loc 1 389 25 is_stmt 0 view .LVU557
 2454 108c D800C3E1 		ldrd	r0, [r3, #8]
 2455 1090 010050E1 		cmp	r0, r1
 2456 1094 4F00008A 		bhi	.L193
 2457              	.L151:
 370:/home/hkh/git/eapidk-code-r76-trunk/apps/EeePProg/linux/../CfgParser.c ****                 )
 2458              		.loc 1 370 30 is_stmt 1 view .LVU558
 369:/home/hkh/git/eapidk-code-r76-trunk/apps/EeePProg/linux/../CfgParser.c ****                   pCurElement++
 2459              		.loc 1 369 20 is_stmt 0 view .LVU559
 2460 1098 012042E2 		sub	r2, r2, #1
 2461              	.LVL213:
 370:/home/hkh/git/eapidk-code-r76-trunk/apps/EeePProg/linux/../CfgParser.c ****                 )
 2462              		.loc 1 370 30 view .LVU560
 2463 109c 383083E2 		add	r3, r3, #56
 2464              	.LVL214:
 369:/home/hkh/git/eapidk-code-r76-trunk/apps/EeePProg/linux/../CfgParser.c ****                   pCurElement++
 2465              		.loc 1 369 19 is_stmt 1 view .LVU561
 369:/home/hkh/git/eapidk-code-r76-trunk/apps/EeePProg/linux/../CfgParser.c ****                   pCurElement++
 2466              		.loc 1 369 19 is_stmt 0 view .LVU562
 2467 10a0 010072E3 		cmn	r2, #1
 2468 10a4 2A00000A 		beq	.L150
 2469              	.L155:
 373:/home/hkh/git/eapidk-code-r76-trunk/apps/EeePProg/linux/../CfgParser.c ****                   switch(pCurElement->Gen.NodeType){
 2470              		.loc 1 373 17 is_stmt 1 view .LVU563
 373:/home/hkh/git/eapidk-code-r76-trunk/apps/EeePProg/linux/../CfgParser.c ****                   switch(pCurElement->Gen.NodeType){
 2471              		.loc 1 373 19 is_stmt 0 view .LVU564
 2472 10a8 101093E5 		ldr	r1, [r3, #16]
 2473 10ac 000051E3 		cmp	r1, #0
 2474 10b0 F8FFFF0A 		beq	.L151
 374:/home/hkh/git/eapidk-code-r76-trunk/apps/EeePProg/linux/../CfgParser.c ****                     case CfgBlockNode:
 2475              		.loc 1 374 19 is_stmt 1 view .LVU565
 374:/home/hkh/git/eapidk-code-r76-trunk/apps/EeePProg/linux/../CfgParser.c ****                     case CfgBlockNode:
 2476              		.loc 1 374 42 is_stmt 0 view .LVU566
 2477 10b4 001093E5 		ldr	r1, [r3]
ARM GAS  /tmp/ccWSR0Wc.s 			page 64


 374:/home/hkh/git/eapidk-code-r76-trunk/apps/EeePProg/linux/../CfgParser.c ****                     case CfgBlockNode:
 2478              		.loc 1 374 19 view .LVU567
 2479 10b8 010051E3 		cmp	r1, #1
 2480 10bc F0FFFF1A 		bne	.L194
 376:/home/hkh/git/eapidk-code-r76-trunk/apps/EeePProg/linux/../CfgParser.c ****                       {
 2481              		.loc 1 376 23 is_stmt 1 view .LVU568
 376:/home/hkh/git/eapidk-code-r76-trunk/apps/EeePProg/linux/../CfgParser.c ****                       {
 2482              		.loc 1 376 25 is_stmt 0 view .LVU569
 2483 10c0 080093E5 		ldr	r0, [r3, #8]
 2484 10c4 281093E5 		ldr	r1, [r3, #40]
 2485 10c8 010050E1 		cmp	r0, r1
 2486 10cc F1FFFF9A 		bls	.L151
 378:/home/hkh/git/eapidk-code-r76-trunk/apps/EeePProg/linux/../CfgParser.c ****                         siFormattedMessage_SC('W', __FILE__, "ParseCfgFile_sub", __LINE__, StatusCo
 2487              		.loc 1 378 25 is_stmt 1 view .LVU570
 2488              	.LVL215:
 379:/home/hkh/git/eapidk-code-r76-trunk/apps/EeePProg/linux/../CfgParser.c ****                             "Missing Required Block '%s' in Block (%lu)'%s'\n", 
 2489              		.loc 1 379 25 view .LVU571
 2490 10d0 24209DE5 		ldr	r2, [sp, #36]
 2491              	.LVL216:
 379:/home/hkh/git/eapidk-code-r76-trunk/apps/EeePProg/linux/../CfgParser.c ****                             "Missing Required Block '%s' in Block (%lu)'%s'\n", 
 2492              		.loc 1 379 25 is_stmt 0 view .LVU572
 2493 10d4 0F6CE0E3 		mvn	r6, #3840
 2494 10d8 10708DE5 		str	r7, [sp, #16]
 2495 10dc 5700A0E3 		mov	r0, #87
 2496 10e0 0C208DE5 		str	r2, [sp, #12]
 2497 10e4 A0219FE5 		ldr	r2, .L195+104
 2498 10e8 041093E5 		ldr	r1, [r3, #4]
 2499 10ec 7B3100E3 		movw	r3, #379
 2500 10f0 00608DE5 		str	r6, [sp]
 2501              	.LPIC132:
 2502 10f4 02208FE0 		add	r2, pc, r2
 2503 10f8 08108DE5 		str	r1, [sp, #8]
 2504 10fc 04208DE5 		str	r2, [sp, #4]
 2505 1100 88119FE5 		ldr	r1, .L195+108
 2506 1104 88219FE5 		ldr	r2, .L195+112
 2507              	.LPIC131:
 2508 1108 01108FE0 		add	r1, pc, r1
 2509              	.LPIC130:
 2510 110c 02208FE0 		add	r2, pc, r2
 2511 1110 FEFFFFEB 		bl	siFormattedMessage_SC(PLT)
 2512              	.LVL217:
 385:/home/hkh/git/eapidk-code-r76-trunk/apps/EeePProg/linux/../CfgParser.c ****                       }
 2513              		.loc 1 385 27 is_stmt 1 view .LVU573
 2514 1114 2FFFFFEA 		b	.L140
 2515              	.LVL218:
 2516              	.L192:
 355:/home/hkh/git/eapidk-code-r76-trunk/apps/EeePProg/linux/../CfgParser.c ****           siFormattedMessage_SC('W', __FILE__, "ParseCfgFile_sub", __LINE__, StatusCode,
 2517              		.loc 1 355 11 view .LVU574
 356:/home/hkh/git/eapidk-code-r76-trunk/apps/EeePProg/linux/../CfgParser.c ****                       "Expected '[/%s]' Got (%lu)'[/%s]'\n", 
 2518              		.loc 1 356 11 view .LVU575
 2519 1118 78219FE5 		ldr	r2, .L195+116
 2520 111c 0F6CE0E3 		mvn	r6, #3840
 2521 1120 24309DE5 		ldr	r3, [sp, #36]
 2522 1124 5700A0E3 		mov	r0, #87
 2523 1128 6C119FE5 		ldr	r1, .L195+120
 2524              	.LPIC129:
 2525 112c 02208FE0 		add	r2, pc, r2
ARM GAS  /tmp/ccWSR0Wc.s 			page 65


 2526 1130 10508DE5 		str	r5, [sp, #16]
 2527 1134 84008DE9 		stmib	sp, {r2, r7}
 2528 1138 60219FE5 		ldr	r2, .L195+124
 2529              	.LPIC128:
 2530 113c 01108FE0 		add	r1, pc, r1
 2531 1140 0C308DE5 		str	r3, [sp, #12]
 2532 1144 593FA0E3 		mov	r3, #356
 2533 1148 00608DE5 		str	r6, [sp]
 2534              	.LPIC127:
 2535 114c 02208FE0 		add	r2, pc, r2
 2536 1150 FEFFFFEB 		bl	siFormattedMessage_SC(PLT)
 2537              	.LVL219:
 2538              	.L150:
 408:/home/hkh/git/eapidk-code-r76-trunk/apps/EeePProg/linux/../CfgParser.c ****         EAPI_APP_EXIT;
 2539              		.loc 1 408 9 view .LVU576
 408:/home/hkh/git/eapidk-code-r76-trunk/apps/EeePProg/linux/../CfgParser.c ****         EAPI_APP_EXIT;
 2540              		.loc 1 408 29 is_stmt 0 view .LVU577
 2541 1154 0030A0E3 		mov	r3, #0
 2542 1158 1030C4E5 		strb	r3, [r4, #16]
 409:/home/hkh/git/eapidk-code-r76-trunk/apps/EeePProg/linux/../CfgParser.c ****       }else{
 2543              		.loc 1 409 9 is_stmt 1 view .LVU578
 2544 115c 1DFFFFEA 		b	.L140
 2545              	.LVL220:
 2546              	.L189:
 409:/home/hkh/git/eapidk-code-r76-trunk/apps/EeePProg/linux/../CfgParser.c ****       }else{
 2547              		.loc 1 409 9 is_stmt 0 view .LVU579
 2548              	.LBE17:
 2549              	.LBB18:
 462:/home/hkh/git/eapidk-code-r76-trunk/apps/EeePProg/linux/../CfgParser.c ****                 'E', __FILE__, "ParseCfgFile_sub", __LINE__, StatusCode,
 2550              		.loc 1 462 13 is_stmt 1 view .LVU580
 2551 1160 3C019FE5 		ldr	r0, .L195+128
 2552              	.LVL221:
 462:/home/hkh/git/eapidk-code-r76-trunk/apps/EeePProg/linux/../CfgParser.c ****                 'E', __FILE__, "ParseCfgFile_sub", __LINE__, StatusCode,
 2553              		.loc 1 462 13 is_stmt 0 view .LVU581
 2554 1164 083094E5 		ldr	r3, [r4, #8]
 2555 1168 38219FE5 		ldr	r2, .L195+132
 2556 116c 38119FE5 		ldr	r1, .L195+136
 2557              	.LPIC149:
 2558 1170 00008FE0 		add	r0, pc, r0
 2559 1174 0C308DE5 		str	r3, [sp, #12]
 2560 1178 CF3100E3 		movw	r3, #463
 2561 117c 04008DE5 		str	r0, [sp, #4]
 2562              	.LPIC147:
 2563 1180 02208FE0 		add	r2, pc, r2
 2564              	.LPIC148:
 2565 1184 01108FE0 		add	r1, pc, r1
 2566 1188 08708DE5 		str	r7, [sp, #8]
 2567 118c 00608DE5 		str	r6, [sp]
 2568 1190 4500A0E3 		mov	r0, #69
 2569 1194 FEFFFFEB 		bl	siFormattedMessage_SC(PLT)
 2570              	.LVL222:
 466:/home/hkh/git/eapidk-code-r76-trunk/apps/EeePProg/linux/../CfgParser.c ****           }
 2571              		.loc 1 466 13 is_stmt 1 view .LVU582
 2572 1198 0EFFFFEA 		b	.L140
 2573              	.LVL223:
 2574              	.L190:
 478:/home/hkh/git/eapidk-code-r76-trunk/apps/EeePProg/linux/../CfgParser.c ****                 'E', __FILE__, "ParseCfgFile_sub", __LINE__, StatusCode,
ARM GAS  /tmp/ccWSR0Wc.s 			page 66


 2575              		.loc 1 478 13 view .LVU583
 2576 119c 0C019FE5 		ldr	r0, .L195+140
 2577              	.LVL224:
 478:/home/hkh/git/eapidk-code-r76-trunk/apps/EeePProg/linux/../CfgParser.c ****                 'E', __FILE__, "ParseCfgFile_sub", __LINE__, StatusCode,
 2578              		.loc 1 478 13 is_stmt 0 view .LVU584
 2579 11a0 083094E5 		ldr	r3, [r4, #8]
 2580 11a4 08219FE5 		ldr	r2, .L195+144
 2581 11a8 08119FE5 		ldr	r1, .L195+148
 2582              	.LPIC152:
 2583 11ac 00008FE0 		add	r0, pc, r0
 2584 11b0 08308DE5 		str	r3, [sp, #8]
 2585 11b4 DF3100E3 		movw	r3, #479
 2586 11b8 04008DE5 		str	r0, [sp, #4]
 2587              	.LPIC150:
 2588 11bc 02208FE0 		add	r2, pc, r2
 2589              	.LPIC151:
 2590 11c0 01108FE0 		add	r1, pc, r1
 2591 11c4 0C708DE5 		str	r7, [sp, #12]
 2592 11c8 00608DE5 		str	r6, [sp]
 2593 11cc 4500A0E3 		mov	r0, #69
 2594 11d0 FEFFFFEB 		bl	siFormattedMessage_SC(PLT)
 2595              	.LVL225:
 482:/home/hkh/git/eapidk-code-r76-trunk/apps/EeePProg/linux/../CfgParser.c ****           }
 2596              		.loc 1 482 13 is_stmt 1 view .LVU585
 2597 11d4 FFFEFFEA 		b	.L140
 2598              	.LVL226:
 2599              	.L193:
 482:/home/hkh/git/eapidk-code-r76-trunk/apps/EeePProg/linux/../CfgParser.c ****           }
 2600              		.loc 1 482 13 is_stmt 0 view .LVU586
 2601              	.LBE18:
 2602              	.LBB19:
 391:/home/hkh/git/eapidk-code-r76-trunk/apps/EeePProg/linux/../CfgParser.c ****                         siFormattedMessage_SC('W', __FILE__, "ParseCfgFile_sub", __LINE__, StatusCo
 2603              		.loc 1 391 25 is_stmt 1 view .LVU587
 392:/home/hkh/git/eapidk-code-r76-trunk/apps/EeePProg/linux/../CfgParser.c ****                             "Missing Required Element '%s' in Block (%lu)'%s'\n", 
 2604              		.loc 1 392 25 view .LVU588
 2605 11d8 24209DE5 		ldr	r2, [sp, #36]
 2606              	.LVL227:
 392:/home/hkh/git/eapidk-code-r76-trunk/apps/EeePProg/linux/../CfgParser.c ****                             "Missing Required Element '%s' in Block (%lu)'%s'\n", 
 2607              		.loc 1 392 25 is_stmt 0 view .LVU589
 2608 11dc 0F6CE0E3 		mvn	r6, #3840
 2609 11e0 10708DE5 		str	r7, [sp, #16]
 2610 11e4 5700A0E3 		mov	r0, #87
 2611 11e8 0C208DE5 		str	r2, [sp, #12]
 2612 11ec C8209FE5 		ldr	r2, .L195+152
 2613 11f0 041093E5 		ldr	r1, [r3, #4]
 2614 11f4 623FA0E3 		mov	r3, #392
 2615 11f8 00608DE5 		str	r6, [sp]
 2616              	.LPIC135:
 2617 11fc 02208FE0 		add	r2, pc, r2
 2618 1200 08108DE5 		str	r1, [sp, #8]
 2619 1204 04208DE5 		str	r2, [sp, #4]
 2620 1208 B0109FE5 		ldr	r1, .L195+156
 2621 120c B0209FE5 		ldr	r2, .L195+160
 2622              	.LPIC134:
 2623 1210 01108FE0 		add	r1, pc, r1
 2624              	.LPIC133:
 2625 1214 02208FE0 		add	r2, pc, r2
ARM GAS  /tmp/ccWSR0Wc.s 			page 67


 2626 1218 FEFFFFEB 		bl	siFormattedMessage_SC(PLT)
 2627              	.LVL228:
 398:/home/hkh/git/eapidk-code-r76-trunk/apps/EeePProg/linux/../CfgParser.c ****                       }
 2628              		.loc 1 398 27 is_stmt 1 view .LVU590
 2629 121c EDFEFFEA 		b	.L140
 2630              	.LVL229:
 2631              	.L186:
 398:/home/hkh/git/eapidk-code-r76-trunk/apps/EeePProg/linux/../CfgParser.c ****                       }
 2632              		.loc 1 398 27 is_stmt 0 view .LVU591
 2633              	.LBE19:
 2634              		.loc 1 507 1 view .LVU592
 2635 1220 FEFFFFEB 		bl	__stack_chk_fail(PLT)
 2636              	.LVL230:
 2637              	.L196:
 2638              		.align	2
 2639              	.L195:
 2640 1224 84050000 		.word	_GLOBAL_OFFSET_TABLE_-(.LPIC157+8)
 2641 1228 00000000 		.word	__stack_chk_guard(GOT)
 2642 122c 60050000 		.word	.LC33-(.LPIC122+8)
 2643 1230 5C050000 		.word	.LC32-(.LPIC153+8)
 2644 1234 78040000 		.word	.LC6-(.LPIC154+8)
 2645 1238 78040000 		.word	.LC45-(.LPIC155+8)
 2646 123c 4C040000 		.word	_GLOBAL_OFFSET_TABLE_-(.LPIC156+8)
 2647 1240 10040000 		.word	.LC34-(.LPIC123+8)
 2648 1244 9C030000 		.word	.LC32-(.LPIC140+8)
 2649 1248 9C030000 		.word	.LC6-(.LPIC141+8)
 2650 124c 9C030000 		.word	.LC40-(.LPIC142+8)
 2651 1250 20030000 		.word	.LC32-(.LPIC143+8)
 2652 1254 20030000 		.word	.LC6-(.LPIC144+8)
 2653 1258 20030000 		.word	.LC41-(.LPIC145+8)
 2654 125c 18030000 		.word	.LC42-(.LPIC146+8)
 2655 1260 E8020000 		.word	.LC32-(.LPIC124+8)
 2656 1264 E8020000 		.word	.LC6-(.LPIC125+8)
 2657 1268 E8020000 		.word	.LC35-(.LPIC126+8)
 2658 126c 9C020000 		.word	.LC8-(.LPIC139+8)
 2659 1270 94020000 		.word	.LC39-(.LPIC138+8)
 2660 1274 90020000 		.word	.LC11-(.LPIC136+8)
 2661 1278 88020000 		.word	.LC6-(.LPIC137+8)
 2662 127c 58020000 		.word	.LC7-(.LPIC120+8)
 2663 1280 58020000 		.word	.LC8-(.LPIC121+8)
 2664 1284 48020000 		.word	.LC6-(.LPIC119+8)
 2665 1288 48020000 		.word	.LC32-(.LPIC118+8)
 2666 128c 90010000 		.word	.LC37-(.LPIC132+8)
 2667 1290 80010000 		.word	.LC6-(.LPIC131+8)
 2668 1294 80010000 		.word	.LC32-(.LPIC130+8)
 2669 1298 64010000 		.word	.LC36-(.LPIC129+8)
 2670 129c 58010000 		.word	.LC6-(.LPIC128+8)
 2671 12a0 4C010000 		.word	.LC32-(.LPIC127+8)
 2672 12a4 2C010000 		.word	.LC43-(.LPIC149+8)
 2673 12a8 20010000 		.word	.LC32-(.LPIC147+8)
 2674 12ac 20010000 		.word	.LC6-(.LPIC148+8)
 2675 12b0 FC000000 		.word	.LC44-(.LPIC152+8)
 2676 12b4 F0000000 		.word	.LC32-(.LPIC150+8)
 2677 12b8 F0000000 		.word	.LC6-(.LPIC151+8)
 2678 12bc B8000000 		.word	.LC38-(.LPIC135+8)
 2679 12c0 A8000000 		.word	.LC6-(.LPIC134+8)
 2680 12c4 A8000000 		.word	.LC32-(.LPIC133+8)
ARM GAS  /tmp/ccWSR0Wc.s 			page 68


 2681              		.cfi_endproc
 2682              	.LFE6:
 2684              		.section	.rodata.str1.4
 2685 0759 000000   		.align	2
 2686              	.LC46:
 2687 075c 5F506172 		.ascii	"_ParseCfgFile\000"
 2687      73654366 
 2687      6746696C 
 2687      6500
 2688 076a 0000     		.align	2
 2689              	.LC47:
 2690 076c 28706373 		.ascii	"(pcszCfgFileName==NULL)\000"
 2690      7A436667 
 2690      46696C65 
 2690      4E616D65 
 2690      3D3D4E55 
 2691              		.align	2
 2692              	.LC48:
 2693 0784 7200     		.ascii	"r\000"
 2694 0786 0000     		.align	2
 2695              	.LC49:
 2696 0788 28434374 		.ascii	"(CCtxt.pCfgFile==NULL)\000"
 2696      78742E70 
 2696      43666746 
 2696      696C653D 
 2696      3D4E554C 
 2697 079f 00       		.align	2
 2698              	.LC50:
 2699 07a0 44756D6D 		.ascii	"DummyMasterNode\000"
 2699      794D6173 
 2699      7465724E 
 2699      6F646500 
 2700              		.align	2
 2701              	.LC51:
 2702 07b0 50617273 		.ascii	"ParseCfgFile_sub(&CCtxt, &DummyBDesc, BLOCK_REQUIRE"
 2702      65436667 
 2702      46696C65 
 2702      5F737562 
 2702      28264343 
 2703 07e3 442900   		.ascii	"D)\000"
 2704              		.text
 2705              		.align	2
 2706              		.global	ParseCfgFile
 2707              		.syntax unified
 2708              		.arm
 2709              		.fpu vfpv3
 2711              	ParseCfgFile:
 2712              	.LVL231:
 2713              	.LFB7:
 508:/home/hkh/git/eapidk-code-r76-trunk/apps/EeePProg/linux/../CfgParser.c **** 
 509:/home/hkh/git/eapidk-code-r76-trunk/apps/EeePProg/linux/../CfgParser.c **** EApiStatus_t
 510:/home/hkh/git/eapidk-code-r76-trunk/apps/EeePProg/linux/../CfgParser.c **** ParseCfgFile(
 511:/home/hkh/git/eapidk-code-r76-trunk/apps/EeePProg/linux/../CfgParser.c ****     __IN    const char *pcszCfgFileName       ,
 512:/home/hkh/git/eapidk-code-r76-trunk/apps/EeePProg/linux/../CfgParser.c ****     __INOUT CfgBlockDesc_t *pCfgBDesc         ,
 513:/home/hkh/git/eapidk-code-r76-trunk/apps/EeePProg/linux/../CfgParser.c ****     __IN    size_t         stCfgBDescElements
 514:/home/hkh/git/eapidk-code-r76-trunk/apps/EeePProg/linux/../CfgParser.c ****     )
 515:/home/hkh/git/eapidk-code-r76-trunk/apps/EeePProg/linux/../CfgParser.c **** {
ARM GAS  /tmp/ccWSR0Wc.s 			page 69


 2714              		.loc 1 515 1 is_stmt 1 view -0
 2715              		.cfi_startproc
 2716              		@ args = 0, pretend = 0, frame = 2128
 2717              		@ frame_needed = 0, uses_anonymous_args = 0
 2718              		.loc 1 515 1 is_stmt 0 view .LVU594
 2719 12c8 F0472DE9 		push	{r4, r5, r6, r7, r8, r9, r10, lr}
 2720              		.cfi_def_cfa_offset 32
 2721              		.cfi_offset 4, -32
 2722              		.cfi_offset 5, -28
 2723              		.cfi_offset 6, -24
 2724              		.cfi_offset 7, -20
 2725              		.cfi_offset 8, -16
 2726              		.cfi_offset 9, -12
 2727              		.cfi_offset 10, -8
 2728              		.cfi_offset 14, -4
 2729 12cc 0250A0E1 		mov	r5, r2
 2730 12d0 14229FE5 		ldr	r2, .L219
 2731              	.LVL232:
 2732              		.loc 1 515 1 view .LVU595
 2733 12d4 86DE4DE2 		sub	sp, sp, #2144
 2734              		.cfi_def_cfa_offset 2176
 516:/home/hkh/git/eapidk-code-r76-trunk/apps/EeePProg/linux/../CfgParser.c ****   EApiStatus_t StatusCode=EAPI_STATUS_SUCCESS;
 517:/home/hkh/git/eapidk-code-r76-trunk/apps/EeePProg/linux/../CfgParser.c ****   CfgNodeGen_t DummyBDesc={{0, NULL, 0, {0, 0, 0, 0, NULL, NULL, NULL}, 0, 0, NULL, NULL}};
 2735              		.loc 1 517 16 view .LVU596
 2736 12d8 10A08DE2 		add	r10, sp, #16
 2737 12dc 3880A0E3 		mov	r8, #56
 515:/home/hkh/git/eapidk-code-r76-trunk/apps/EeePProg/linux/../CfgParser.c ****   EApiStatus_t StatusCode=EAPI_STATUS_SUCCESS;
 2738              		.loc 1 515 1 view .LVU597
 2739 12e0 08329FE5 		ldr	r3, .L219+4
 2740 12e4 0040A0E1 		mov	r4, r0
 2741              	.LPIC182:
 2742 12e8 02208FE0 		add	r2, pc, r2
 2743 12ec 0160A0E1 		mov	r6, r1
 2744              		.loc 1 517 16 view .LVU598
 2745 12f0 0A00A0E1 		mov	r0, r10
 2746 12f4 0010A0E3 		mov	r1, #0
 2747              	.LVL233:
 515:/home/hkh/git/eapidk-code-r76-trunk/apps/EeePProg/linux/../CfgParser.c ****   EApiStatus_t StatusCode=EAPI_STATUS_SUCCESS;
 2748              		.loc 1 515 1 view .LVU599
 2749 12f8 033092E7 		ldr	r3, [r2, r3]
 2750              		.loc 1 517 16 view .LVU600
 2751 12fc 0820A0E1 		mov	r2, r8
 518:/home/hkh/git/eapidk-code-r76-trunk/apps/EeePProg/linux/../CfgParser.c ****   ParseCfgContext_t  CCtxt={NULL, NULL, 0, 0, {0}};
 2752              		.loc 1 518 22 view .LVU601
 2753 1300 50708DE2 		add	r7, sp, #80
 2754 1304 089047E2 		sub	r9, r7, #8
 515:/home/hkh/git/eapidk-code-r76-trunk/apps/EeePProg/linux/../CfgParser.c ****   EApiStatus_t StatusCode=EAPI_STATUS_SUCCESS;
 2755              		.loc 1 515 1 view .LVU602
 2756 1308 003093E5 		ldr	r3, [r3]
 2757 130c 5C388DE5 		str	r3, [sp, #2140]
 2758 1310 0030A0E3 		mov	r3, #0
 516:/home/hkh/git/eapidk-code-r76-trunk/apps/EeePProg/linux/../CfgParser.c ****   EApiStatus_t StatusCode=EAPI_STATUS_SUCCESS;
 2759              		.loc 1 516 3 is_stmt 1 view .LVU603
 2760              	.LVL234:
 517:/home/hkh/git/eapidk-code-r76-trunk/apps/EeePProg/linux/../CfgParser.c ****   ParseCfgContext_t  CCtxt={NULL, NULL, 0, 0, {0}};
 2761              		.loc 1 517 3 view .LVU604
 517:/home/hkh/git/eapidk-code-r76-trunk/apps/EeePProg/linux/../CfgParser.c ****   ParseCfgContext_t  CCtxt={NULL, NULL, 0, 0, {0}};
ARM GAS  /tmp/ccWSR0Wc.s 			page 70


 2762              		.loc 1 517 16 is_stmt 0 view .LVU605
 2763 1314 FEFFFFEB 		bl	memset(PLT)
 2764              	.LVL235:
 2765              		.loc 1 518 3 is_stmt 1 view .LVU606
 2766              		.loc 1 518 22 is_stmt 0 view .LVU607
 2767 1318 D4119FE5 		ldr	r1, .L219+8
 2768 131c 812EA0E3 		mov	r2, #2064
 2769 1320 0900A0E1 		mov	r0, r9
 2770              	.LPIC158:
 2771 1324 01108FE0 		add	r1, pc, r1
 2772 1328 0C1081E2 		add	r1, r1, #12
 2773 132c FEFFFFEB 		bl	memcpy(PLT)
 2774              	.LVL236:
 519:/home/hkh/git/eapidk-code-r76-trunk/apps/EeePProg/linux/../CfgParser.c ****   EAPI_APP_ASSERT_PARAMATER_NULL(
 2775              		.loc 1 519 3 is_stmt 1 view .LVU608
 2776 1330 000054E3 		cmp	r4, #0
 2777 1334 5500000A 		beq	.L213
 2778              		.loc 1 519 3 discriminator 2 view .LVU609
 520:/home/hkh/git/eapidk-code-r76-trunk/apps/EeePProg/linux/../CfgParser.c ****       _ParseCfgFile,
 521:/home/hkh/git/eapidk-code-r76-trunk/apps/EeePProg/linux/../CfgParser.c ****       EAPI_STATUS_INVALID_PARAMETER,
 522:/home/hkh/git/eapidk-code-r76-trunk/apps/EeePProg/linux/../CfgParser.c ****       pcszCfgFileName
 523:/home/hkh/git/eapidk-code-r76-trunk/apps/EeePProg/linux/../CfgParser.c ****     );
 2779              		.loc 1 523 6 discriminator 2 view .LVU610
 524:/home/hkh/git/eapidk-code-r76-trunk/apps/EeePProg/linux/../CfgParser.c ****   EAPI_APP_ASSERT_PARAMATER_NULL(
 2780              		.loc 1 524 3 discriminator 2 view .LVU611
 2781 1338 000056E3 		cmp	r6, #0
 2782 133c 5E00000A 		beq	.L214
 2783              		.loc 1 524 3 discriminator 2 view .LVU612
 525:/home/hkh/git/eapidk-code-r76-trunk/apps/EeePProg/linux/../CfgParser.c ****       _ParseCfgFile,
 526:/home/hkh/git/eapidk-code-r76-trunk/apps/EeePProg/linux/../CfgParser.c ****       EAPI_STATUS_INVALID_PARAMETER,
 527:/home/hkh/git/eapidk-code-r76-trunk/apps/EeePProg/linux/../CfgParser.c ****       pCfgBDesc
 528:/home/hkh/git/eapidk-code-r76-trunk/apps/EeePProg/linux/../CfgParser.c ****     );
 2784              		.loc 1 528 6 discriminator 2 view .LVU613
 529:/home/hkh/git/eapidk-code-r76-trunk/apps/EeePProg/linux/../CfgParser.c ****   EAPI_APP_ASSERT_PARAMATER_ZERO(
 2785              		.loc 1 529 3 discriminator 2 view .LVU614
 2786 1340 000055E3 		cmp	r5, #0
 2787 1344 3700000A 		beq	.L215
 2788              		.loc 1 529 3 discriminator 2 view .LVU615
 530:/home/hkh/git/eapidk-code-r76-trunk/apps/EeePProg/linux/../CfgParser.c ****       _ParseCfgFile,
 531:/home/hkh/git/eapidk-code-r76-trunk/apps/EeePProg/linux/../CfgParser.c ****       EAPI_STATUS_INVALID_PARAMETER,
 532:/home/hkh/git/eapidk-code-r76-trunk/apps/EeePProg/linux/../CfgParser.c ****       stCfgBDescElements
 533:/home/hkh/git/eapidk-code-r76-trunk/apps/EeePProg/linux/../CfgParser.c ****     );
 2789              		.loc 1 533 6 discriminator 2 view .LVU616
 534:/home/hkh/git/eapidk-code-r76-trunk/apps/EeePProg/linux/../CfgParser.c ****   CCtxt.pcszCfgFileName=pcszCfgFileName;
 2790              		.loc 1 534 3 discriminator 2 view .LVU617
 535:/home/hkh/git/eapidk-code-r76-trunk/apps/EeePProg/linux/../CfgParser.c ****   CCtxt.pCfgFile=fopen(CCtxt.pcszCfgFileName, "r");
 2791              		.loc 1 535 18 is_stmt 0 discriminator 2 view .LVU618
 2792 1348 A8119FE5 		ldr	r1, .L219+12
 2793 134c 0400A0E1 		mov	r0, r4
 534:/home/hkh/git/eapidk-code-r76-trunk/apps/EeePProg/linux/../CfgParser.c ****   CCtxt.pcszCfgFileName=pcszCfgFileName;
 2794              		.loc 1 534 24 discriminator 2 view .LVU619
 2795 1350 48408DE5 		str	r4, [sp, #72]
 2796              		.loc 1 535 3 is_stmt 1 discriminator 2 view .LVU620
 2797              		.loc 1 535 18 is_stmt 0 discriminator 2 view .LVU621
 2798              	.LPIC171:
 2799 1354 01108FE0 		add	r1, pc, r1
 2800 1358 FEFFFFEB 		bl	fopen(PLT)
ARM GAS  /tmp/ccWSR0Wc.s 			page 71


 2801              	.LVL237:
 536:/home/hkh/git/eapidk-code-r76-trunk/apps/EeePProg/linux/../CfgParser.c ****   
 537:/home/hkh/git/eapidk-code-r76-trunk/apps/EeePProg/linux/../CfgParser.c ****   EAPI_APP_RETURN_ERROR_IF_S(
 2802              		.loc 1 537 3 discriminator 2 view .LVU622
 2803 135c 000050E3 		cmp	r0, #0
 535:/home/hkh/git/eapidk-code-r76-trunk/apps/EeePProg/linux/../CfgParser.c ****   CCtxt.pCfgFile=fopen(CCtxt.pcszCfgFileName, "r");
 2804              		.loc 1 535 17 discriminator 2 view .LVU623
 2805 1360 4C008DE5 		str	r0, [sp, #76]
 2806              		.loc 1 537 3 is_stmt 1 discriminator 2 view .LVU624
 2807 1364 3E00000A 		beq	.L216
 2808              		.loc 1 537 3 discriminator 2 view .LVU625
 538:/home/hkh/git/eapidk-code-r76-trunk/apps/EeePProg/linux/../CfgParser.c ****       _ParseCfgFile,
 539:/home/hkh/git/eapidk-code-r76-trunk/apps/EeePProg/linux/../CfgParser.c ****       (CCtxt.pCfgFile==NULL),
 540:/home/hkh/git/eapidk-code-r76-trunk/apps/EeePProg/linux/../CfgParser.c ****       EAPI_STATUS_READ_ERROR
 541:/home/hkh/git/eapidk-code-r76-trunk/apps/EeePProg/linux/../CfgParser.c ****     );
 2809              		.loc 1 541 6 discriminator 2 view .LVU626
 542:/home/hkh/git/eapidk-code-r76-trunk/apps/EeePProg/linux/../CfgParser.c ****   CCtxt.ulLineNum=0;
 2810              		.loc 1 542 3 discriminator 2 view .LVU627
 543:/home/hkh/git/eapidk-code-r76-trunk/apps/EeePProg/linux/../CfgParser.c ****   CCtxt.ulDepth=0;
 2811              		.loc 1 543 3 discriminator 2 view .LVU628
 544:/home/hkh/git/eapidk-code-r76-trunk/apps/EeePProg/linux/../CfgParser.c ****   DummyBDesc.Block.NodeType=CfgBlockNode;
 545:/home/hkh/git/eapidk-code-r76-trunk/apps/EeePProg/linux/../CfgParser.c ****   DummyBDesc.Block.pszBlockName="DummyMasterNode";
 2812              		.loc 1 545 32 is_stmt 0 discriminator 2 view .LVU629
 2813 1368 8C319FE5 		ldr	r3, .L219+16
 542:/home/hkh/git/eapidk-code-r76-trunk/apps/EeePProg/linux/../CfgParser.c ****   CCtxt.ulDepth=0;
 2814              		.loc 1 542 18 discriminator 2 view .LVU630
 2815 136c 0040A0E3 		mov	r4, #0
 2816              	.LVL238:
 546:/home/hkh/git/eapidk-code-r76-trunk/apps/EeePProg/linux/../CfgParser.c ****   DummyBDesc.Block.Elements.pIndx=pCfgBDesc;
 547:/home/hkh/git/eapidk-code-r76-trunk/apps/EeePProg/linux/../CfgParser.c ****   DummyBDesc.Block.Elements.stUsedCnt=stCfgBDescElements;
 2817              		.loc 1 547 38 discriminator 2 view .LVU631
 2818 1370 1C508DE5 		str	r5, [sp, #28]
 548:/home/hkh/git/eapidk-code-r76-trunk/apps/EeePProg/linux/../CfgParser.c ****   DummyBDesc.Block.Elements.stTotalCnt=stCfgBDescElements;
 549:/home/hkh/git/eapidk-code-r76-trunk/apps/EeePProg/linux/../CfgParser.c ****   DummyBDesc.Block.Elements.stElementSize=sizeof(DummyBDesc);
 550:/home/hkh/git/eapidk-code-r76-trunk/apps/EeePProg/linux/../CfgParser.c **** 
 551:/home/hkh/git/eapidk-code-r76-trunk/apps/EeePProg/linux/../CfgParser.c ****   DO(ParseCfgFile_sub(&CCtxt, &DummyBDesc, BLOCK_REQUIRED));
 2819              		.loc 1 551 3 discriminator 2 view .LVU632
 2820 1374 0A10A0E1 		mov	r1, r10
 548:/home/hkh/git/eapidk-code-r76-trunk/apps/EeePProg/linux/../CfgParser.c ****   DummyBDesc.Block.Elements.stTotalCnt=stCfgBDescElements;
 2821              		.loc 1 548 39 discriminator 2 view .LVU633
 2822 1378 20508DE5 		str	r5, [sp, #32]
 2823              		.loc 1 551 3 discriminator 2 view .LVU634
 2824 137c 0900A0E1 		mov	r0, r9
 545:/home/hkh/git/eapidk-code-r76-trunk/apps/EeePProg/linux/../CfgParser.c ****   DummyBDesc.Block.Elements.pIndx=pCfgBDesc;
 2825              		.loc 1 545 32 discriminator 2 view .LVU635
 2826              	.LPIC176:
 2827 1380 03308FE0 		add	r3, pc, r3
 2828              		.loc 1 551 3 discriminator 2 view .LVU636
 2829 1384 0020E0E3 		mvn	r2, #0
 545:/home/hkh/git/eapidk-code-r76-trunk/apps/EeePProg/linux/../CfgParser.c ****   DummyBDesc.Block.Elements.pIndx=pCfgBDesc;
 2830              		.loc 1 545 32 discriminator 2 view .LVU637
 2831 1388 14308DE5 		str	r3, [sp, #20]
 542:/home/hkh/git/eapidk-code-r76-trunk/apps/EeePProg/linux/../CfgParser.c ****   CCtxt.ulDepth=0;
 2832              		.loc 1 542 18 discriminator 2 view .LVU638
 2833 138c 0050A0E3 		mov	r5, #0
 2834              	.LVL239:
 544:/home/hkh/git/eapidk-code-r76-trunk/apps/EeePProg/linux/../CfgParser.c ****   DummyBDesc.Block.pszBlockName="DummyMasterNode";
ARM GAS  /tmp/ccWSR0Wc.s 			page 72


 2835              		.loc 1 544 28 discriminator 2 view .LVU639
 2836 1390 0130A0E3 		mov	r3, #1
 542:/home/hkh/git/eapidk-code-r76-trunk/apps/EeePProg/linux/../CfgParser.c ****   CCtxt.ulDepth=0;
 2837              		.loc 1 542 18 discriminator 2 view .LVU640
 2838 1394 F040C7E1 		strd	r4, [r7]
 544:/home/hkh/git/eapidk-code-r76-trunk/apps/EeePProg/linux/../CfgParser.c ****   DummyBDesc.Block.pszBlockName="DummyMasterNode";
 2839              		.loc 1 544 3 is_stmt 1 discriminator 2 view .LVU641
 545:/home/hkh/git/eapidk-code-r76-trunk/apps/EeePProg/linux/../CfgParser.c ****   DummyBDesc.Block.Elements.pIndx=pCfgBDesc;
 2840              		.loc 1 545 3 discriminator 2 view .LVU642
 546:/home/hkh/git/eapidk-code-r76-trunk/apps/EeePProg/linux/../CfgParser.c ****   DummyBDesc.Block.Elements.stUsedCnt=stCfgBDescElements;
 2841              		.loc 1 546 3 discriminator 2 view .LVU643
 547:/home/hkh/git/eapidk-code-r76-trunk/apps/EeePProg/linux/../CfgParser.c ****   DummyBDesc.Block.Elements.stTotalCnt=stCfgBDescElements;
 2842              		.loc 1 547 3 discriminator 2 view .LVU644
 548:/home/hkh/git/eapidk-code-r76-trunk/apps/EeePProg/linux/../CfgParser.c ****   DummyBDesc.Block.Elements.stElementSize=sizeof(DummyBDesc);
 2843              		.loc 1 548 3 discriminator 2 view .LVU645
 549:/home/hkh/git/eapidk-code-r76-trunk/apps/EeePProg/linux/../CfgParser.c **** 
 2844              		.loc 1 549 3 discriminator 2 view .LVU646
 2845              		.loc 1 551 3 discriminator 2 view .LVU647
 2846              		.loc 1 551 3 discriminator 2 view .LVU648
 546:/home/hkh/git/eapidk-code-r76-trunk/apps/EeePProg/linux/../CfgParser.c ****   DummyBDesc.Block.Elements.stUsedCnt=stCfgBDescElements;
 2847              		.loc 1 546 34 is_stmt 0 discriminator 2 view .LVU649
 2848 1398 2C608DE5 		str	r6, [sp, #44]
 549:/home/hkh/git/eapidk-code-r76-trunk/apps/EeePProg/linux/../CfgParser.c **** 
 2849              		.loc 1 549 42 discriminator 2 view .LVU650
 2850 139c 24808DE5 		str	r8, [sp, #36]
 544:/home/hkh/git/eapidk-code-r76-trunk/apps/EeePProg/linux/../CfgParser.c ****   DummyBDesc.Block.pszBlockName="DummyMasterNode";
 2851              		.loc 1 544 28 discriminator 2 view .LVU651
 2852 13a0 10308DE5 		str	r3, [sp, #16]
 2853              		.loc 1 551 3 discriminator 2 view .LVU652
 2854 13a4 FEFFFFEB 		bl	ParseCfgFile_sub(PLT)
 2855              	.LVL240:
 2856              		.loc 1 551 3 is_stmt 1 discriminator 2 view .LVU653
 2857 13a8 004050E2 		subs	r4, r0, #0
 2858 13ac 0F00001A 		bne	.L217
 2859              	.LVL241:
 2860              	.L199:
 2861              		.loc 1 551 3 discriminator 3 view .LVU654
 552:/home/hkh/git/eapidk-code-r76-trunk/apps/EeePProg/linux/../CfgParser.c **** 
 553:/home/hkh/git/eapidk-code-r76-trunk/apps/EeePProg/linux/../CfgParser.c **** EAPI_APP_ASSERT_EXIT 
 554:/home/hkh/git/eapidk-code-r76-trunk/apps/EeePProg/linux/../CfgParser.c ****   if(CCtxt.pCfgFile) fclose(CCtxt.pCfgFile);
 2862              		.loc 1 554 3 discriminator 3 view .LVU655
 2863              		.loc 1 554 11 is_stmt 0 discriminator 3 view .LVU656
 2864 13b0 4C009DE5 		ldr	r0, [sp, #76]
 2865              		.loc 1 554 5 discriminator 3 view .LVU657
 2866 13b4 000050E3 		cmp	r0, #0
 2867 13b8 0000000A 		beq	.L197
 2868              		.loc 1 554 22 is_stmt 1 discriminator 1 view .LVU658
 2869 13bc FEFFFFEB 		bl	fclose(PLT)
 2870              	.LVL242:
 555:/home/hkh/git/eapidk-code-r76-trunk/apps/EeePProg/linux/../CfgParser.c **** 
 556:/home/hkh/git/eapidk-code-r76-trunk/apps/EeePProg/linux/../CfgParser.c ****   return StatusCode;
 2871              		.loc 1 556 3 discriminator 1 view .LVU659
 2872              	.L197:
 515:/home/hkh/git/eapidk-code-r76-trunk/apps/EeePProg/linux/../CfgParser.c ****   EApiStatus_t StatusCode=EAPI_STATUS_SUCCESS;
 2873              		.loc 1 515 1 is_stmt 0 view .LVU660
 2874 13c0 38219FE5 		ldr	r2, .L219+20
 557:/home/hkh/git/eapidk-code-r76-trunk/apps/EeePProg/linux/../CfgParser.c **** }
ARM GAS  /tmp/ccWSR0Wc.s 			page 73


 2875              		.loc 1 557 1 view .LVU661
 2876 13c4 24319FE5 		ldr	r3, .L219+4
 515:/home/hkh/git/eapidk-code-r76-trunk/apps/EeePProg/linux/../CfgParser.c ****   EApiStatus_t StatusCode=EAPI_STATUS_SUCCESS;
 2877              		.loc 1 515 1 view .LVU662
 2878              	.LPIC181:
 2879 13c8 02208FE0 		add	r2, pc, r2
 2880              		.loc 1 557 1 view .LVU663
 2881 13cc 033092E7 		ldr	r3, [r2, r3]
 2882 13d0 002093E5 		ldr	r2, [r3]
 2883 13d4 5C389DE5 		ldr	r3, [sp, #2140]
 2884 13d8 022033E0 		eors	r2, r3, r2
 2885 13dc 0030A0E3 		mov	r3, #0
 2886 13e0 4000001A 		bne	.L218
 2887 13e4 0400A0E1 		mov	r0, r4
 2888 13e8 86DE8DE2 		add	sp, sp, #2144
 2889              		.cfi_remember_state
 2890              		.cfi_def_cfa_offset 32
 2891              		@ sp needed
 2892 13ec F087BDE8 		pop	{r4, r5, r6, r7, r8, r9, r10, pc}
 2893              	.LVL243:
 2894              	.L217:
 2895              		.cfi_restore_state
 551:/home/hkh/git/eapidk-code-r76-trunk/apps/EeePProg/linux/../CfgParser.c **** 
 2896              		.loc 1 551 3 is_stmt 1 discriminator 1 view .LVU664
 2897 13f0 0CC19FE5 		ldr	ip, .L219+24
 2898 13f4 273200E3 		movw	r3, #551
 2899 13f8 08019FE5 		ldr	r0, .L219+28
 2900              	.LVL244:
 551:/home/hkh/git/eapidk-code-r76-trunk/apps/EeePProg/linux/../CfgParser.c **** 
 2901              		.loc 1 551 3 is_stmt 0 discriminator 1 view .LVU665
 2902 13fc 08219FE5 		ldr	r2, .L219+32
 2903 1400 08119FE5 		ldr	r1, .L219+36
 2904              	.LPIC179:
 2905 1404 0CC08FE0 		add	ip, pc, ip
 2906              	.LPIC180:
 2907 1408 00008FE0 		add	r0, pc, r0
 2908 140c 00408DE5 		str	r4, [sp]
 2909 1410 01108DE9 		stmib	sp, {r0, ip}
 2910              	.LPIC177:
 2911 1414 02208FE0 		add	r2, pc, r2
 2912              	.LPIC178:
 2913 1418 01108FE0 		add	r1, pc, r1
 2914 141c 4500A0E3 		mov	r0, #69
 2915 1420 FEFFFFEB 		bl	siFormattedMessage_SC(PLT)
 2916              	.LVL245:
 551:/home/hkh/git/eapidk-code-r76-trunk/apps/EeePProg/linux/../CfgParser.c **** 
 2917              		.loc 1 551 3 is_stmt 1 discriminator 1 view .LVU666
 2918 1424 E1FFFFEA 		b	.L199
 2919              	.LVL246:
 2920              	.L215:
 529:/home/hkh/git/eapidk-code-r76-trunk/apps/EeePProg/linux/../CfgParser.c ****       _ParseCfgFile,
 2921              		.loc 1 529 3 discriminator 1 view .LVU667
 529:/home/hkh/git/eapidk-code-r76-trunk/apps/EeePProg/linux/../CfgParser.c ****       _ParseCfgFile,
 2922              		.loc 1 529 3 discriminator 1 view .LVU668
 2923 1428 E4C09FE5 		ldr	ip, .L219+40
 2924 142c 014CE0E3 		mvn	r4, #256
 2925              	.LVL247:
ARM GAS  /tmp/ccWSR0Wc.s 			page 74


 529:/home/hkh/git/eapidk-code-r76-trunk/apps/EeePProg/linux/../CfgParser.c ****       _ParseCfgFile,
 2926              		.loc 1 529 3 is_stmt 0 discriminator 1 view .LVU669
 2927 1430 E0009FE5 		ldr	r0, .L219+44
 2928 1434 113200E3 		movw	r3, #529
 2929 1438 DC209FE5 		ldr	r2, .L219+48
 2930 143c DC109FE5 		ldr	r1, .L219+52
 2931              	.LPIC169:
 2932 1440 0CC08FE0 		add	ip, pc, ip
 2933              	.LPIC170:
 2934 1444 00008FE0 		add	r0, pc, r0
 2935              	.LPIC167:
 2936 1448 02208FE0 		add	r2, pc, r2
 2937              	.LPIC168:
 2938 144c 01108FE0 		add	r1, pc, r1
 2939              	.L212:
 524:/home/hkh/git/eapidk-code-r76-trunk/apps/EeePProg/linux/../CfgParser.c ****       _ParseCfgFile,
 2940              		.loc 1 524 3 discriminator 1 view .LVU670
 2941 1450 01108DE9 		stmib	sp, {r0, ip}
 2942 1454 4500A0E3 		mov	r0, #69
 2943 1458 00408DE5 		str	r4, [sp]
 2944 145c FEFFFFEB 		bl	siFormattedMessage_SC(PLT)
 2945              	.LVL248:
 524:/home/hkh/git/eapidk-code-r76-trunk/apps/EeePProg/linux/../CfgParser.c ****       _ParseCfgFile,
 2946              		.loc 1 524 3 is_stmt 1 discriminator 1 view .LVU671
 524:/home/hkh/git/eapidk-code-r76-trunk/apps/EeePProg/linux/../CfgParser.c ****       _ParseCfgFile,
 2947              		.loc 1 524 3 discriminator 1 view .LVU672
 524:/home/hkh/git/eapidk-code-r76-trunk/apps/EeePProg/linux/../CfgParser.c ****       _ParseCfgFile,
 2948              		.loc 1 524 3 discriminator 1 view .LVU673
 2949 1460 D2FFFFEA 		b	.L199
 2950              	.LVL249:
 2951              	.L216:
 537:/home/hkh/git/eapidk-code-r76-trunk/apps/EeePProg/linux/../CfgParser.c ****       _ParseCfgFile,
 2952              		.loc 1 537 3 discriminator 1 view .LVU674
 537:/home/hkh/git/eapidk-code-r76-trunk/apps/EeePProg/linux/../CfgParser.c ****       _ParseCfgFile,
 2953              		.loc 1 537 3 discriminator 1 view .LVU675
 2954 1464 B8C09FE5 		ldr	ip, .L219+56
 2955 1468 054CE0E3 		mvn	r4, #1280
 2956              	.LVL250:
 537:/home/hkh/git/eapidk-code-r76-trunk/apps/EeePProg/linux/../CfgParser.c ****       _ParseCfgFile,
 2957              		.loc 1 537 3 is_stmt 0 discriminator 1 view .LVU676
