ARM GAS  /tmp/ccQkFBoM.s 			page 1


   1              		.cpu cortex-a9
   2              		.eabi_attribute 28, 1
   3              		.eabi_attribute 20, 1
   4              		.eabi_attribute 21, 1
   5              		.eabi_attribute 23, 3
   6              		.eabi_attribute 24, 1
   7              		.eabi_attribute 25, 1
   8              		.eabi_attribute 26, 2
   9              		.eabi_attribute 30, 2
  10              		.eabi_attribute 34, 1
  11              		.eabi_attribute 18, 4
  12              		.file	"EApiAHStr.c"
  13              		.text
  14              	.Ltext0:
  15              		.cfi_sections	.debug_frame
  16              		.section	.rodata.str1.4,"aMS",%progbits,1
  17              		.align	2
  18              	.LC0:
  19 0000 45417069 		.ascii	"EApiAHCreatePNPIDString\000"
  19      41484372 
  19      65617465 
  19      504E5049 
  19      44537472 
  20              		.align	2
  21              	.LC1:
  22 0018 2F686F6D 		.ascii	"/home/hkh/git/eapidk-code-r76-trunk/apps/EeePProg/l"
  22      652F686B 
  22      682F6769 
  22      742F6561 
  22      7069646B 
  23 004b 696E7578 		.ascii	"inux/../../common/EApiAHStr.c\000"
  23      2F2E2E2F 
  23      2E2E2F63 
  23      6F6D6D6F 
  23      6E2F4541 
  24 0069 000000   		.align	2
  25              	.LC2:
  26 006c 28705374 		.ascii	"(pString==NULL)\000"
  26      72696E67 
  26      3D3D4E55 
  26      4C4C2900 
  27              		.align	2
  28              	.LC3:
  29 007c 25730A00 		.ascii	"%s\012\000"
  30              		.align	2
  31              	.LC4:
  32 0080 70427566 		.ascii	"pBuffer Too Short\000"
  32      66657220 
  32      546F6F20 
  32      53686F72 
  32      7400
  33              		.text
  34              		.align	2
  35              		.global	EApiAHCreatePNPIDString
  36              		.arch armv7-a
  37              		.arch_extension mp
  38              		.arch_extension sec
ARM GAS  /tmp/ccQkFBoM.s 			page 2


  39              		.syntax unified
  40              		.arm
  41              		.fpu vfpv3
  43              	EApiAHCreatePNPIDString:
  44              	.LVL0:
  45              	.LFB13:
  46              		.file 1 "/home/hkh/git/eapidk-code-r76-trunk/apps/EeePProg/linux/../../common/EApiAHStr.c"
   1:/home/hkh/git/eapidk-code-r76-trunk/apps/EeePProg/linux/../../common/EApiAHStr.c **** /*
   2:/home/hkh/git/eapidk-code-r76-trunk/apps/EeePProg/linux/../../common/EApiAHStr.c ****  *<KHeader>
   3:/home/hkh/git/eapidk-code-r76-trunk/apps/EeePProg/linux/../../common/EApiAHStr.c ****  *+=========================================================================
   4:/home/hkh/git/eapidk-code-r76-trunk/apps/EeePProg/linux/../../common/EApiAHStr.c ****  *I  Project Name: EApiDK Embedded Application Development Kit
   5:/home/hkh/git/eapidk-code-r76-trunk/apps/EeePProg/linux/../../common/EApiAHStr.c ****  *+=========================================================================
   6:/home/hkh/git/eapidk-code-r76-trunk/apps/EeePProg/linux/../../common/EApiAHStr.c ****  *I  $HeadURL: file:///svn/p/eapidk/code/trunk/apps/common/EApiAHStr.c $
   7:/home/hkh/git/eapidk-code-r76-trunk/apps/EeePProg/linux/../../common/EApiAHStr.c ****  *+=========================================================================
   8:/home/hkh/git/eapidk-code-r76-trunk/apps/EeePProg/linux/../../common/EApiAHStr.c ****  *I   Copyright: Copyright (c) 2002-2009, Kontron Embedded Modules GmbH
   9:/home/hkh/git/eapidk-code-r76-trunk/apps/EeePProg/linux/../../common/EApiAHStr.c ****  *I      Author: John Kearney,                  John.Kearney@kontron.com
  10:/home/hkh/git/eapidk-code-r76-trunk/apps/EeePProg/linux/../../common/EApiAHStr.c ****  *I
  11:/home/hkh/git/eapidk-code-r76-trunk/apps/EeePProg/linux/../../common/EApiAHStr.c ****  *I     License: All rights reserved. This program and the accompanying 
  12:/home/hkh/git/eapidk-code-r76-trunk/apps/EeePProg/linux/../../common/EApiAHStr.c ****  *I              materials are licensed and made available under the 
  13:/home/hkh/git/eapidk-code-r76-trunk/apps/EeePProg/linux/../../common/EApiAHStr.c ****  *I              terms and conditions of the BSD License which 
  14:/home/hkh/git/eapidk-code-r76-trunk/apps/EeePProg/linux/../../common/EApiAHStr.c ****  *I              accompanies this distribution. The full text of the 
  15:/home/hkh/git/eapidk-code-r76-trunk/apps/EeePProg/linux/../../common/EApiAHStr.c ****  *I              license may be found at 
  16:/home/hkh/git/eapidk-code-r76-trunk/apps/EeePProg/linux/../../common/EApiAHStr.c ****  *I              http://opensource.org/licenses/bsd-license.php
  17:/home/hkh/git/eapidk-code-r76-trunk/apps/EeePProg/linux/../../common/EApiAHStr.c ****  *I              
  18:/home/hkh/git/eapidk-code-r76-trunk/apps/EeePProg/linux/../../common/EApiAHStr.c ****  *I              THE PROGRAM IS DISTRIBUTED UNDER THE BSD LICENSE ON AN "
  19:/home/hkh/git/eapidk-code-r76-trunk/apps/EeePProg/linux/../../common/EApiAHStr.c ****  *I              AS IS" BASIS, WITHOUT WARRANTIES OR REPRESENTATIONS OF 
  20:/home/hkh/git/eapidk-code-r76-trunk/apps/EeePProg/linux/../../common/EApiAHStr.c ****  *I              ANY KIND, EITHER EXPRESS OR IMPLIED.
  21:/home/hkh/git/eapidk-code-r76-trunk/apps/EeePProg/linux/../../common/EApiAHStr.c ****  *I
  22:/home/hkh/git/eapidk-code-r76-trunk/apps/EeePProg/linux/../../common/EApiAHStr.c ****  *I Description: Auto Created for EApiAHStr.c
  23:/home/hkh/git/eapidk-code-r76-trunk/apps/EeePProg/linux/../../common/EApiAHStr.c ****  *I
  24:/home/hkh/git/eapidk-code-r76-trunk/apps/EeePProg/linux/../../common/EApiAHStr.c ****  *+-------------------------------------------------------------------------
  25:/home/hkh/git/eapidk-code-r76-trunk/apps/EeePProg/linux/../../common/EApiAHStr.c ****  *I
  26:/home/hkh/git/eapidk-code-r76-trunk/apps/EeePProg/linux/../../common/EApiAHStr.c ****  *I  File Name            : EApiAHStr.c
  27:/home/hkh/git/eapidk-code-r76-trunk/apps/EeePProg/linux/../../common/EApiAHStr.c ****  *I  File Location        : apps\common
  28:/home/hkh/git/eapidk-code-r76-trunk/apps/EeePProg/linux/../../common/EApiAHStr.c ****  *I  Last committed       : $Revision: 74 $
  29:/home/hkh/git/eapidk-code-r76-trunk/apps/EeePProg/linux/../../common/EApiAHStr.c ****  *I  Last changed by      : $Author: dethrophes $
  30:/home/hkh/git/eapidk-code-r76-trunk/apps/EeePProg/linux/../../common/EApiAHStr.c ****  *I  Last changed date    : $Date: 2010-06-23 19:26:50 +0000 (Wed, 23 Jun 2010) $
  31:/home/hkh/git/eapidk-code-r76-trunk/apps/EeePProg/linux/../../common/EApiAHStr.c ****  *I  ID                   : $Id: EApiAHStr.c 74 2010-06-23 19:26:50Z dethrophes $
  32:/home/hkh/git/eapidk-code-r76-trunk/apps/EeePProg/linux/../../common/EApiAHStr.c ****  *I
  33:/home/hkh/git/eapidk-code-r76-trunk/apps/EeePProg/linux/../../common/EApiAHStr.c ****  *+=========================================================================
  34:/home/hkh/git/eapidk-code-r76-trunk/apps/EeePProg/linux/../../common/EApiAHStr.c ****  *</KHeader>
  35:/home/hkh/git/eapidk-code-r76-trunk/apps/EeePProg/linux/../../common/EApiAHStr.c ****  */
  36:/home/hkh/git/eapidk-code-r76-trunk/apps/EeePProg/linux/../../common/EApiAHStr.c ****   #include <EApiApp.h>
  37:/home/hkh/git/eapidk-code-r76-trunk/apps/EeePProg/linux/../../common/EApiAHStr.c **** typedef struct ErrorLookupTbl_S{
  38:/home/hkh/git/eapidk-code-r76-trunk/apps/EeePProg/linux/../../common/EApiAHStr.c ****   const EApiStatus_t StatusCode;
  39:/home/hkh/git/eapidk-code-r76-trunk/apps/EeePProg/linux/../../common/EApiAHStr.c ****   const TCHAR *const  ErrorString;
  40:/home/hkh/git/eapidk-code-r76-trunk/apps/EeePProg/linux/../../common/EApiAHStr.c **** }ErrorLookupTbl_t;
  41:/home/hkh/git/eapidk-code-r76-trunk/apps/EeePProg/linux/../../common/EApiAHStr.c **** 
  42:/home/hkh/git/eapidk-code-r76-trunk/apps/EeePProg/linux/../../common/EApiAHStr.c **** #define EAPI_INVALID_STRLEN ((size_t )-1)
  43:/home/hkh/git/eapidk-code-r76-trunk/apps/EeePProg/linux/../../common/EApiAHStr.c **** 
  44:/home/hkh/git/eapidk-code-r76-trunk/apps/EeePProg/linux/../../common/EApiAHStr.c **** const ErrorLookupTbl_t ErrorLookup[]={
  45:/home/hkh/git/eapidk-code-r76-trunk/apps/EeePProg/linux/../../common/EApiAHStr.c ****   {EAPI_STATUS_NOT_INITIALIZED        , TEXT("EAPI_STATUS_NOT_INITIALIZED"          )},
  46:/home/hkh/git/eapidk-code-r76-trunk/apps/EeePProg/linux/../../common/EApiAHStr.c ****   {EAPI_STATUS_INITIALIZED            , TEXT("EAPI_STATUS_INITIALIZED"              )},
  47:/home/hkh/git/eapidk-code-r76-trunk/apps/EeePProg/linux/../../common/EApiAHStr.c ****   {EAPI_STATUS_ALLOC_ERROR            , TEXT("EAPI_STATUS_ALLOC_ERROR"              )},
  48:/home/hkh/git/eapidk-code-r76-trunk/apps/EeePProg/linux/../../common/EApiAHStr.c ****   {EAPI_STATUS_DRIVER_TIMEOUT         , TEXT("EAPI_STATUS_DRIVER_TIMEOUT"           )},
  49:/home/hkh/git/eapidk-code-r76-trunk/apps/EeePProg/linux/../../common/EApiAHStr.c ****   {EAPI_STATUS_INVALID_PARAMETER      , TEXT("EAPI_STATUS_INVALID_PARAMETER"        )},
  50:/home/hkh/git/eapidk-code-r76-trunk/apps/EeePProg/linux/../../common/EApiAHStr.c ****   {EAPI_STATUS_INVALID_BLOCK_ALIGNMENT, TEXT("EAPI_STATUS_INVALID_BLOCK_ALIGNMENT"  )},
ARM GAS  /tmp/ccQkFBoM.s 			page 3


  51:/home/hkh/git/eapidk-code-r76-trunk/apps/EeePProg/linux/../../common/EApiAHStr.c ****   {EAPI_STATUS_INVALID_BLOCK_LENGTH   , TEXT("EAPI_STATUS_INVALID_BLOCK_LENGTH"     )},
  52:/home/hkh/git/eapidk-code-r76-trunk/apps/EeePProg/linux/../../common/EApiAHStr.c ****   {EAPI_STATUS_INVALID_DIRECTION      , TEXT("EAPI_STATUS_INVALID_DIRECTION"        )},
  53:/home/hkh/git/eapidk-code-r76-trunk/apps/EeePProg/linux/../../common/EApiAHStr.c ****   {EAPI_STATUS_INVALID_BITMASK        , TEXT("EAPI_STATUS_INVALID_BITMASK"          )},
  54:/home/hkh/git/eapidk-code-r76-trunk/apps/EeePProg/linux/../../common/EApiAHStr.c ****   {EAPI_STATUS_RUNNING                , TEXT("EAPI_STATUS_RUNNING"                  )},
  55:/home/hkh/git/eapidk-code-r76-trunk/apps/EeePProg/linux/../../common/EApiAHStr.c ****   {EAPI_STATUS_UNSUPPORTED            , TEXT("EAPI_STATUS_UNSUPPORTED"              )},
  56:/home/hkh/git/eapidk-code-r76-trunk/apps/EeePProg/linux/../../common/EApiAHStr.c ****   {EAPI_STATUS_NOT_FOUND              , TEXT("EAPI_STATUS_NOT_FOUND"                )},
  57:/home/hkh/git/eapidk-code-r76-trunk/apps/EeePProg/linux/../../common/EApiAHStr.c ****   {EAPI_STATUS_TIMEOUT                , TEXT("EAPI_STATUS_TIMEOUT"                  )},
  58:/home/hkh/git/eapidk-code-r76-trunk/apps/EeePProg/linux/../../common/EApiAHStr.c ****   {EAPI_STATUS_BUSY_COLLISION         , TEXT("EAPI_STATUS_BUSY_COLLISION"           )},
  59:/home/hkh/git/eapidk-code-r76-trunk/apps/EeePProg/linux/../../common/EApiAHStr.c ****   {EAPI_STATUS_READ_ERROR             , TEXT("EAPI_STATUS_READ_ERROR"               )},
  60:/home/hkh/git/eapidk-code-r76-trunk/apps/EeePProg/linux/../../common/EApiAHStr.c ****   {EAPI_STATUS_WRITE_ERROR            , TEXT("EAPI_STATUS_WRITE_ERROR"              )},
  61:/home/hkh/git/eapidk-code-r76-trunk/apps/EeePProg/linux/../../common/EApiAHStr.c ****   {EAPI_STATUS_MORE_DATA              , TEXT("EAPI_STATUS_MORE_DATA"                )},
  62:/home/hkh/git/eapidk-code-r76-trunk/apps/EeePProg/linux/../../common/EApiAHStr.c ****   {EAPI_STATUS_ERROR                  , TEXT("EAPI_STATUS_ERROR"                    )},
  63:/home/hkh/git/eapidk-code-r76-trunk/apps/EeePProg/linux/../../common/EApiAHStr.c ****   {EAPI_STATUS_SUCCESS                , TEXT("EAPI_STATUS_SUCCESS"                  )},
  64:/home/hkh/git/eapidk-code-r76-trunk/apps/EeePProg/linux/../../common/EApiAHStr.c **** };
  65:/home/hkh/git/eapidk-code-r76-trunk/apps/EeePProg/linux/../../common/EApiAHStr.c **** #define UNKNOWN_ERR_LEN sizeof("UNKNOWN ERROR(0x00000000)")
  66:/home/hkh/git/eapidk-code-r76-trunk/apps/EeePProg/linux/../../common/EApiAHStr.c **** size_t EApiAHCreateErrorString(
  67:/home/hkh/git/eapidk-code-r76-trunk/apps/EeePProg/linux/../../common/EApiAHStr.c ****     __IN EApiStatus_t DispStatusCode  ,
  68:/home/hkh/git/eapidk-code-r76-trunk/apps/EeePProg/linux/../../common/EApiAHStr.c ****     __OUT TCHAR *const    pString     , 
  69:/home/hkh/git/eapidk-code-r76-trunk/apps/EeePProg/linux/../../common/EApiAHStr.c ****     __IN const size_t     StrBufLen 
  70:/home/hkh/git/eapidk-code-r76-trunk/apps/EeePProg/linux/../../common/EApiAHStr.c ****     )
  71:/home/hkh/git/eapidk-code-r76-trunk/apps/EeePProg/linux/../../common/EApiAHStr.c **** {
  72:/home/hkh/git/eapidk-code-r76-trunk/apps/EeePProg/linux/../../common/EApiAHStr.c ****   size_t StatusCode=EAPI_INVALID_STRLEN;
  73:/home/hkh/git/eapidk-code-r76-trunk/apps/EeePProg/linux/../../common/EApiAHStr.c ****   unsigned i;
  74:/home/hkh/git/eapidk-code-r76-trunk/apps/EeePProg/linux/../../common/EApiAHStr.c **** 
  75:/home/hkh/git/eapidk-code-r76-trunk/apps/EeePProg/linux/../../common/EApiAHStr.c ****   EAPI_APP_ASSERT_PARAMATER_NULL(
  76:/home/hkh/git/eapidk-code-r76-trunk/apps/EeePProg/linux/../../common/EApiAHStr.c ****       EApiAHCreateErrorString, 
  77:/home/hkh/git/eapidk-code-r76-trunk/apps/EeePProg/linux/../../common/EApiAHStr.c ****       EAPI_INVALID_STRLEN, 
  78:/home/hkh/git/eapidk-code-r76-trunk/apps/EeePProg/linux/../../common/EApiAHStr.c ****       pString
  79:/home/hkh/git/eapidk-code-r76-trunk/apps/EeePProg/linux/../../common/EApiAHStr.c ****     );
  80:/home/hkh/git/eapidk-code-r76-trunk/apps/EeePProg/linux/../../common/EApiAHStr.c ****   EAPI_APP_ASSERT_PARAMATER_ZERO(
  81:/home/hkh/git/eapidk-code-r76-trunk/apps/EeePProg/linux/../../common/EApiAHStr.c ****       EApiAHCreateErrorString, 
  82:/home/hkh/git/eapidk-code-r76-trunk/apps/EeePProg/linux/../../common/EApiAHStr.c ****       EAPI_INVALID_STRLEN, 
  83:/home/hkh/git/eapidk-code-r76-trunk/apps/EeePProg/linux/../../common/EApiAHStr.c ****       StrBufLen
  84:/home/hkh/git/eapidk-code-r76-trunk/apps/EeePProg/linux/../../common/EApiAHStr.c ****     );
  85:/home/hkh/git/eapidk-code-r76-trunk/apps/EeePProg/linux/../../common/EApiAHStr.c **** 
  86:/home/hkh/git/eapidk-code-r76-trunk/apps/EeePProg/linux/../../common/EApiAHStr.c ****   for(i=0; i<ARRAY_SIZE(ErrorLookup);i++)
  87:/home/hkh/git/eapidk-code-r76-trunk/apps/EeePProg/linux/../../common/EApiAHStr.c ****   {
  88:/home/hkh/git/eapidk-code-r76-trunk/apps/EeePProg/linux/../../common/EApiAHStr.c ****     if(ErrorLookup[i].StatusCode==DispStatusCode){
  89:/home/hkh/git/eapidk-code-r76-trunk/apps/EeePProg/linux/../../common/EApiAHStr.c **** 
  90:/home/hkh/git/eapidk-code-r76-trunk/apps/EeePProg/linux/../../common/EApiAHStr.c ****       if(pString!=NULL){
  91:/home/hkh/git/eapidk-code-r76-trunk/apps/EeePProg/linux/../../common/EApiAHStr.c ****         EApiStrCpy(pString, StrBufLen, ErrorLookup[i].ErrorString);
  92:/home/hkh/git/eapidk-code-r76-trunk/apps/EeePProg/linux/../../common/EApiAHStr.c ****         StatusCode= EAPI_strlen (pString);
  93:/home/hkh/git/eapidk-code-r76-trunk/apps/EeePProg/linux/../../common/EApiAHStr.c ****         goto ExitSuccess;
  94:/home/hkh/git/eapidk-code-r76-trunk/apps/EeePProg/linux/../../common/EApiAHStr.c ****       }
  95:/home/hkh/git/eapidk-code-r76-trunk/apps/EeePProg/linux/../../common/EApiAHStr.c ****       StatusCode= EAPI_INVALID_STRLEN;
  96:/home/hkh/git/eapidk-code-r76-trunk/apps/EeePProg/linux/../../common/EApiAHStr.c ****       goto ExitSuccess;
  97:/home/hkh/git/eapidk-code-r76-trunk/apps/EeePProg/linux/../../common/EApiAHStr.c ****     }
  98:/home/hkh/git/eapidk-code-r76-trunk/apps/EeePProg/linux/../../common/EApiAHStr.c ****   }
  99:/home/hkh/git/eapidk-code-r76-trunk/apps/EeePProg/linux/../../common/EApiAHStr.c ****   if(pString!=NULL){
 100:/home/hkh/git/eapidk-code-r76-trunk/apps/EeePProg/linux/../../common/EApiAHStr.c ****     EApiSprintf(pString, StrBufLen, 
 101:/home/hkh/git/eapidk-code-r76-trunk/apps/EeePProg/linux/../../common/EApiAHStr.c ****       TEXT("UNKNOWN ERROR(0x%08")TEXT(PRIX32)TEXT(")"), 
 102:/home/hkh/git/eapidk-code-r76-trunk/apps/EeePProg/linux/../../common/EApiAHStr.c ****       DispStatusCode
 103:/home/hkh/git/eapidk-code-r76-trunk/apps/EeePProg/linux/../../common/EApiAHStr.c ****       );
 104:/home/hkh/git/eapidk-code-r76-trunk/apps/EeePProg/linux/../../common/EApiAHStr.c ****     StatusCode=EAPI_strlen (pString);
 105:/home/hkh/git/eapidk-code-r76-trunk/apps/EeePProg/linux/../../common/EApiAHStr.c ****     goto ExitSuccess;
 106:/home/hkh/git/eapidk-code-r76-trunk/apps/EeePProg/linux/../../common/EApiAHStr.c ****   }
 107:/home/hkh/git/eapidk-code-r76-trunk/apps/EeePProg/linux/../../common/EApiAHStr.c ****   StatusCode=EAPI_INVALID_STRLEN;
ARM GAS  /tmp/ccQkFBoM.s 			page 4


 108:/home/hkh/git/eapidk-code-r76-trunk/apps/EeePProg/linux/../../common/EApiAHStr.c **** EAPI_APP_ASSERT_EXIT
 109:/home/hkh/git/eapidk-code-r76-trunk/apps/EeePProg/linux/../../common/EApiAHStr.c **** ExitSuccess:
 110:/home/hkh/git/eapidk-code-r76-trunk/apps/EeePProg/linux/../../common/EApiAHStr.c ****   return StatusCode;
 111:/home/hkh/git/eapidk-code-r76-trunk/apps/EeePProg/linux/../../common/EApiAHStr.c **** }
 112:/home/hkh/git/eapidk-code-r76-trunk/apps/EeePProg/linux/../../common/EApiAHStr.c **** EApiStatus_t
 113:/home/hkh/git/eapidk-code-r76-trunk/apps/EeePProg/linux/../../common/EApiAHStr.c **** EApiAHCreateErrorStringAlloc(
 114:/home/hkh/git/eapidk-code-r76-trunk/apps/EeePProg/linux/../../common/EApiAHStr.c ****   __IN uint32_t         DispStatusCode  ,
 115:/home/hkh/git/eapidk-code-r76-trunk/apps/EeePProg/linux/../../common/EApiAHStr.c ****   __OUT TCHAR * *const  pString 
 116:/home/hkh/git/eapidk-code-r76-trunk/apps/EeePProg/linux/../../common/EApiAHStr.c ****   )
 117:/home/hkh/git/eapidk-code-r76-trunk/apps/EeePProg/linux/../../common/EApiAHStr.c **** {
 118:/home/hkh/git/eapidk-code-r76-trunk/apps/EeePProg/linux/../../common/EApiAHStr.c ****   EApiStatus_t StatusCode=EAPI_STATUS_SUCCESS;
 119:/home/hkh/git/eapidk-code-r76-trunk/apps/EeePProg/linux/../../common/EApiAHStr.c ****   unsigned i;
 120:/home/hkh/git/eapidk-code-r76-trunk/apps/EeePProg/linux/../../common/EApiAHStr.c ****   size_t StrLen;
 121:/home/hkh/git/eapidk-code-r76-trunk/apps/EeePProg/linux/../../common/EApiAHStr.c **** 
 122:/home/hkh/git/eapidk-code-r76-trunk/apps/EeePProg/linux/../../common/EApiAHStr.c ****   EAPI_APP_ASSERT_PARAMATER_NULL(EApiAHCreateErrorStringAlloc, EAPI_STATUS_INVALID_PARAMETER, pStri
 123:/home/hkh/git/eapidk-code-r76-trunk/apps/EeePProg/linux/../../common/EApiAHStr.c **** 
 124:/home/hkh/git/eapidk-code-r76-trunk/apps/EeePProg/linux/../../common/EApiAHStr.c ****   for(i=0; i<ARRAY_SIZE(ErrorLookup);i++)
 125:/home/hkh/git/eapidk-code-r76-trunk/apps/EeePProg/linux/../../common/EApiAHStr.c ****   {
 126:/home/hkh/git/eapidk-code-r76-trunk/apps/EeePProg/linux/../../common/EApiAHStr.c ****     if(ErrorLookup[i].StatusCode==DispStatusCode){
 127:/home/hkh/git/eapidk-code-r76-trunk/apps/EeePProg/linux/../../common/EApiAHStr.c ****       StrLen=EAPI_strlen(ErrorLookup[i].ErrorString)+1;
 128:/home/hkh/git/eapidk-code-r76-trunk/apps/EeePProg/linux/../../common/EApiAHStr.c ****       *pString=malloc(StrLen*sizeof(TCHAR));
 129:/home/hkh/git/eapidk-code-r76-trunk/apps/EeePProg/linux/../../common/EApiAHStr.c ****       if(*pString!=NULL)
 130:/home/hkh/git/eapidk-code-r76-trunk/apps/EeePProg/linux/../../common/EApiAHStr.c ****         EApiStrCpy(*pString, StrLen, ErrorLookup[i].ErrorString);
 131:/home/hkh/git/eapidk-code-r76-trunk/apps/EeePProg/linux/../../common/EApiAHStr.c ****       StatusCode=EAPI_STATUS_SUCCESS;
 132:/home/hkh/git/eapidk-code-r76-trunk/apps/EeePProg/linux/../../common/EApiAHStr.c ****       goto SuccessExit;
 133:/home/hkh/git/eapidk-code-r76-trunk/apps/EeePProg/linux/../../common/EApiAHStr.c ****     }
 134:/home/hkh/git/eapidk-code-r76-trunk/apps/EeePProg/linux/../../common/EApiAHStr.c ****   }
 135:/home/hkh/git/eapidk-code-r76-trunk/apps/EeePProg/linux/../../common/EApiAHStr.c ****   *pString=malloc(UNKNOWN_ERR_LEN*sizeof(TCHAR));
 136:/home/hkh/git/eapidk-code-r76-trunk/apps/EeePProg/linux/../../common/EApiAHStr.c ****   if(*pString!=NULL)
 137:/home/hkh/git/eapidk-code-r76-trunk/apps/EeePProg/linux/../../common/EApiAHStr.c ****     EApiSprintf(*pString, 
 138:/home/hkh/git/eapidk-code-r76-trunk/apps/EeePProg/linux/../../common/EApiAHStr.c ****       UNKNOWN_ERR_LEN, 
 139:/home/hkh/git/eapidk-code-r76-trunk/apps/EeePProg/linux/../../common/EApiAHStr.c ****       TEXT("UNKNOWN ERROR(0x%08")TEXT(PRIX32)TEXT(")"), 
 140:/home/hkh/git/eapidk-code-r76-trunk/apps/EeePProg/linux/../../common/EApiAHStr.c ****       DispStatusCode
 141:/home/hkh/git/eapidk-code-r76-trunk/apps/EeePProg/linux/../../common/EApiAHStr.c ****       );
 142:/home/hkh/git/eapidk-code-r76-trunk/apps/EeePProg/linux/../../common/EApiAHStr.c **** EAPI_APP_ASSERT_EXIT
 143:/home/hkh/git/eapidk-code-r76-trunk/apps/EeePProg/linux/../../common/EApiAHStr.c **** SuccessExit:
 144:/home/hkh/git/eapidk-code-r76-trunk/apps/EeePProg/linux/../../common/EApiAHStr.c ****   return StatusCode;
 145:/home/hkh/git/eapidk-code-r76-trunk/apps/EeePProg/linux/../../common/EApiAHStr.c **** }
 146:/home/hkh/git/eapidk-code-r76-trunk/apps/EeePProg/linux/../../common/EApiAHStr.c **** 
 147:/home/hkh/git/eapidk-code-r76-trunk/apps/EeePProg/linux/../../common/EApiAHStr.c **** size_t 
 148:/home/hkh/git/eapidk-code-r76-trunk/apps/EeePProg/linux/../../common/EApiAHStr.c **** EApiAHGetString(
 149:/home/hkh/git/eapidk-code-r76-trunk/apps/EeePProg/linux/../../common/EApiAHStr.c ****     __IN  uint32_t        StringID  , /* EApi String ID */
 150:/home/hkh/git/eapidk-code-r76-trunk/apps/EeePProg/linux/../../common/EApiAHStr.c ****     __OUT TCHAR *         pString   , /* Pointer To String pBuffer */
 151:/home/hkh/git/eapidk-code-r76-trunk/apps/EeePProg/linux/../../common/EApiAHStr.c ****     __IN  size_t          StrBufLen   /* String pBuffer Length */
 152:/home/hkh/git/eapidk-code-r76-trunk/apps/EeePProg/linux/../../common/EApiAHStr.c ****     )
 153:/home/hkh/git/eapidk-code-r76-trunk/apps/EeePProg/linux/../../common/EApiAHStr.c **** {
 154:/home/hkh/git/eapidk-code-r76-trunk/apps/EeePProg/linux/../../common/EApiAHStr.c ****   size_t StatusCode=EAPI_INVALID_STRLEN;
 155:/home/hkh/git/eapidk-code-r76-trunk/apps/EeePProg/linux/../../common/EApiAHStr.c ****   uint32_t StringLenLcl=(uint32_t)StrBufLen;
 156:/home/hkh/git/eapidk-code-r76-trunk/apps/EeePProg/linux/../../common/EApiAHStr.c ****   size_t StringBufferLenBck=StrBufLen;
 157:/home/hkh/git/eapidk-code-r76-trunk/apps/EeePProg/linux/../../common/EApiAHStr.c ****   EAPI_APP_ASSERT_PARAMATER_NULL(EApiAHGetString, EAPI_INVALID_STRLEN, pString);
 158:/home/hkh/git/eapidk-code-r76-trunk/apps/EeePProg/linux/../../common/EApiAHStr.c ****   EAPI_APP_ASSERT_PARAMATER_ZERO(EApiAHGetString, EAPI_INVALID_STRLEN, StrBufLen);
 159:/home/hkh/git/eapidk-code-r76-trunk/apps/EeePProg/linux/../../common/EApiAHStr.c **** 
 160:/home/hkh/git/eapidk-code-r76-trunk/apps/EeePProg/linux/../../common/EApiAHStr.c ****   StatusCode=EApiBoardGetString(StringID, pString, &StringLenLcl);
 161:/home/hkh/git/eapidk-code-r76-trunk/apps/EeePProg/linux/../../common/EApiAHStr.c ****   if(!EAPI_TEST_SUCCESS(StatusCode))
 162:/home/hkh/git/eapidk-code-r76-trunk/apps/EeePProg/linux/../../common/EApiAHStr.c ****       StringLenLcl=(uint32_t)EApiAHCreateErrorString((uint32_t)StatusCode, pString, StringBufferLen
 163:/home/hkh/git/eapidk-code-r76-trunk/apps/EeePProg/linux/../../common/EApiAHStr.c **** #if (STRICT_VALIDATION>0)
 164:/home/hkh/git/eapidk-code-r76-trunk/apps/EeePProg/linux/../../common/EApiAHStr.c ****   EAPI_APP_RETURN_ERROR_IF(
ARM GAS  /tmp/ccQkFBoM.s 			page 5


 165:/home/hkh/git/eapidk-code-r76-trunk/apps/EeePProg/linux/../../common/EApiAHStr.c ****       EApiAHGetStringAlloc, 
 166:/home/hkh/git/eapidk-code-r76-trunk/apps/EeePProg/linux/../../common/EApiAHStr.c ****       (StringLenLcl>StringBufferLenBck), 
 167:/home/hkh/git/eapidk-code-r76-trunk/apps/EeePProg/linux/../../common/EApiAHStr.c ****       EAPI_INVALID_STRLEN, 
 168:/home/hkh/git/eapidk-code-r76-trunk/apps/EeePProg/linux/../../common/EApiAHStr.c ****       "Interface Returning Different String Lengths"
 169:/home/hkh/git/eapidk-code-r76-trunk/apps/EeePProg/linux/../../common/EApiAHStr.c ****       );
 170:/home/hkh/git/eapidk-code-r76-trunk/apps/EeePProg/linux/../../common/EApiAHStr.c ****   if(EApiStrLen(pString, StringBufferLenBck)==StringBufferLenBck)
 171:/home/hkh/git/eapidk-code-r76-trunk/apps/EeePProg/linux/../../common/EApiAHStr.c ****   {
 172:/home/hkh/git/eapidk-code-r76-trunk/apps/EeePProg/linux/../../common/EApiAHStr.c ****      EAPI_FORMATED_MES('E', 
 173:/home/hkh/git/eapidk-code-r76-trunk/apps/EeePProg/linux/../../common/EApiAHStr.c ****          EApiAHGetString, 
 174:/home/hkh/git/eapidk-code-r76-trunk/apps/EeePProg/linux/../../common/EApiAHStr.c ****          EAPI_INVALID_STRLEN, 
 175:/home/hkh/git/eapidk-code-r76-trunk/apps/EeePProg/linux/../../common/EApiAHStr.c ****          "Returned String Missing Terminating \\0 Character." 
 176:/home/hkh/git/eapidk-code-r76-trunk/apps/EeePProg/linux/../../common/EApiAHStr.c ****          );
 177:/home/hkh/git/eapidk-code-r76-trunk/apps/EeePProg/linux/../../common/EApiAHStr.c ****     pString[StringBufferLenBck-1]=TEXT('\0');
 178:/home/hkh/git/eapidk-code-r76-trunk/apps/EeePProg/linux/../../common/EApiAHStr.c ****   }
 179:/home/hkh/git/eapidk-code-r76-trunk/apps/EeePProg/linux/../../common/EApiAHStr.c **** #endif
 180:/home/hkh/git/eapidk-code-r76-trunk/apps/EeePProg/linux/../../common/EApiAHStr.c ****   StatusCode=StringLenLcl;
 181:/home/hkh/git/eapidk-code-r76-trunk/apps/EeePProg/linux/../../common/EApiAHStr.c **** EAPI_APP_ASSERT_EXIT
 182:/home/hkh/git/eapidk-code-r76-trunk/apps/EeePProg/linux/../../common/EApiAHStr.c **** /* SuccessExit: */
 183:/home/hkh/git/eapidk-code-r76-trunk/apps/EeePProg/linux/../../common/EApiAHStr.c ****   return StatusCode;
 184:/home/hkh/git/eapidk-code-r76-trunk/apps/EeePProg/linux/../../common/EApiAHStr.c **** }
 185:/home/hkh/git/eapidk-code-r76-trunk/apps/EeePProg/linux/../../common/EApiAHStr.c **** 
 186:/home/hkh/git/eapidk-code-r76-trunk/apps/EeePProg/linux/../../common/EApiAHStr.c **** EApiStatus_t 
 187:/home/hkh/git/eapidk-code-r76-trunk/apps/EeePProg/linux/../../common/EApiAHStr.c **** EApiAHGetStringAlloc(
 188:/home/hkh/git/eapidk-code-r76-trunk/apps/EeePProg/linux/../../common/EApiAHStr.c ****     __IN  uint32_t        StringID, /* EApi String ID */
 189:/home/hkh/git/eapidk-code-r76-trunk/apps/EeePProg/linux/../../common/EApiAHStr.c ****     __OUT TCHAR * *const  pString   /* Pointer to where string 
 190:/home/hkh/git/eapidk-code-r76-trunk/apps/EeePProg/linux/../../common/EApiAHStr.c ****                                      * pointer should be stored 
 191:/home/hkh/git/eapidk-code-r76-trunk/apps/EeePProg/linux/../../common/EApiAHStr.c ****                                      */
 192:/home/hkh/git/eapidk-code-r76-trunk/apps/EeePProg/linux/../../common/EApiAHStr.c ****     )
 193:/home/hkh/git/eapidk-code-r76-trunk/apps/EeePProg/linux/../../common/EApiAHStr.c **** {
 194:/home/hkh/git/eapidk-code-r76-trunk/apps/EeePProg/linux/../../common/EApiAHStr.c ****   EApiStatus_t StatusCode=EAPI_STATUS_SUCCESS;
 195:/home/hkh/git/eapidk-code-r76-trunk/apps/EeePProg/linux/../../common/EApiAHStr.c ****   uint32_t StringLen=0;
 196:/home/hkh/git/eapidk-code-r76-trunk/apps/EeePProg/linux/../../common/EApiAHStr.c ****   uint32_t StringBufferLenBck=0;
 197:/home/hkh/git/eapidk-code-r76-trunk/apps/EeePProg/linux/../../common/EApiAHStr.c ****   EAPI_APP_ASSERT_PARAMATER_NULL(EApiAHGetString, EAPI_STATUS_INVALID_PARAMETER, pString);
 198:/home/hkh/git/eapidk-code-r76-trunk/apps/EeePProg/linux/../../common/EApiAHStr.c ****   *pString=NULL;
 199:/home/hkh/git/eapidk-code-r76-trunk/apps/EeePProg/linux/../../common/EApiAHStr.c ****   StatusCode=EApiBoardGetString(StringID, *pString, &StringLen);
 200:/home/hkh/git/eapidk-code-r76-trunk/apps/EeePProg/linux/../../common/EApiAHStr.c ****   switch(StatusCode){
 201:/home/hkh/git/eapidk-code-r76-trunk/apps/EeePProg/linux/../../common/EApiAHStr.c ****     case EAPI_STATUS_MORE_DATA:
 202:/home/hkh/git/eapidk-code-r76-trunk/apps/EeePProg/linux/../../common/EApiAHStr.c ****       StringBufferLenBck=StringLen;
 203:/home/hkh/git/eapidk-code-r76-trunk/apps/EeePProg/linux/../../common/EApiAHStr.c ****       *pString=malloc(StringLen*sizeof(TCHAR));
 204:/home/hkh/git/eapidk-code-r76-trunk/apps/EeePProg/linux/../../common/EApiAHStr.c **** 
 205:/home/hkh/git/eapidk-code-r76-trunk/apps/EeePProg/linux/../../common/EApiAHStr.c ****       EAPI_APP_RETURN_ERROR_IF(
 206:/home/hkh/git/eapidk-code-r76-trunk/apps/EeePProg/linux/../../common/EApiAHStr.c ****           EApiAHGetStringAlloc, 
 207:/home/hkh/git/eapidk-code-r76-trunk/apps/EeePProg/linux/../../common/EApiAHStr.c ****           (*pString==NULL), 
 208:/home/hkh/git/eapidk-code-r76-trunk/apps/EeePProg/linux/../../common/EApiAHStr.c ****           EAPI_STATUS_ALLOC_ERROR, 
 209:/home/hkh/git/eapidk-code-r76-trunk/apps/EeePProg/linux/../../common/EApiAHStr.c ****           "Memory Allocation Error"
 210:/home/hkh/git/eapidk-code-r76-trunk/apps/EeePProg/linux/../../common/EApiAHStr.c ****           );
 211:/home/hkh/git/eapidk-code-r76-trunk/apps/EeePProg/linux/../../common/EApiAHStr.c **** 
 212:/home/hkh/git/eapidk-code-r76-trunk/apps/EeePProg/linux/../../common/EApiAHStr.c ****       StatusCode=EApiBoardGetString(StringID, *pString, &StringLen);
 213:/home/hkh/git/eapidk-code-r76-trunk/apps/EeePProg/linux/../../common/EApiAHStr.c **** #if (STRICT_VALIDATION>0)
 214:/home/hkh/git/eapidk-code-r76-trunk/apps/EeePProg/linux/../../common/EApiAHStr.c ****       EAPI_APP_RETURN_ERROR_IF(
 215:/home/hkh/git/eapidk-code-r76-trunk/apps/EeePProg/linux/../../common/EApiAHStr.c ****           EApiAHGetStringAlloc, 
 216:/home/hkh/git/eapidk-code-r76-trunk/apps/EeePProg/linux/../../common/EApiAHStr.c ****           (StringLen>StringBufferLenBck), 
 217:/home/hkh/git/eapidk-code-r76-trunk/apps/EeePProg/linux/../../common/EApiAHStr.c ****           EAPI_STATUS_ERROR, 
 218:/home/hkh/git/eapidk-code-r76-trunk/apps/EeePProg/linux/../../common/EApiAHStr.c ****           "Interface Returning Different String Lengths"
 219:/home/hkh/git/eapidk-code-r76-trunk/apps/EeePProg/linux/../../common/EApiAHStr.c ****           );
 220:/home/hkh/git/eapidk-code-r76-trunk/apps/EeePProg/linux/../../common/EApiAHStr.c ****       if(EApiStrLen(*pString, StringBufferLenBck)==StringBufferLenBck)
 221:/home/hkh/git/eapidk-code-r76-trunk/apps/EeePProg/linux/../../common/EApiAHStr.c ****       {
ARM GAS  /tmp/ccQkFBoM.s 			page 6


 222:/home/hkh/git/eapidk-code-r76-trunk/apps/EeePProg/linux/../../common/EApiAHStr.c ****         EAPI_FORMATED_MES('E', 
 223:/home/hkh/git/eapidk-code-r76-trunk/apps/EeePProg/linux/../../common/EApiAHStr.c ****             EApiAHGetStringAlloc, 
 224:/home/hkh/git/eapidk-code-r76-trunk/apps/EeePProg/linux/../../common/EApiAHStr.c ****             EAPI_STATUS_ERROR, 
 225:/home/hkh/git/eapidk-code-r76-trunk/apps/EeePProg/linux/../../common/EApiAHStr.c ****             "Returned String Missing Terminating \\0 Character." 
 226:/home/hkh/git/eapidk-code-r76-trunk/apps/EeePProg/linux/../../common/EApiAHStr.c ****             );
 227:/home/hkh/git/eapidk-code-r76-trunk/apps/EeePProg/linux/../../common/EApiAHStr.c ****         (*pString)[StringBufferLenBck-1]=TEXT('\0');
 228:/home/hkh/git/eapidk-code-r76-trunk/apps/EeePProg/linux/../../common/EApiAHStr.c ****       }
 229:/home/hkh/git/eapidk-code-r76-trunk/apps/EeePProg/linux/../../common/EApiAHStr.c **** #endif
 230:/home/hkh/git/eapidk-code-r76-trunk/apps/EeePProg/linux/../../common/EApiAHStr.c ****       break;
 231:/home/hkh/git/eapidk-code-r76-trunk/apps/EeePProg/linux/../../common/EApiAHStr.c ****     default:
 232:/home/hkh/git/eapidk-code-r76-trunk/apps/EeePProg/linux/../../common/EApiAHStr.c ****       EApiAHCreateErrorStringAlloc(StatusCode, pString);
 233:/home/hkh/git/eapidk-code-r76-trunk/apps/EeePProg/linux/../../common/EApiAHStr.c ****       break;
 234:/home/hkh/git/eapidk-code-r76-trunk/apps/EeePProg/linux/../../common/EApiAHStr.c ****   }
 235:/home/hkh/git/eapidk-code-r76-trunk/apps/EeePProg/linux/../../common/EApiAHStr.c **** EAPI_APP_ASSERT_EXIT
 236:/home/hkh/git/eapidk-code-r76-trunk/apps/EeePProg/linux/../../common/EApiAHStr.c **** /* SuccessExit: */
 237:/home/hkh/git/eapidk-code-r76-trunk/apps/EeePProg/linux/../../common/EApiAHStr.c ****   return StatusCode;
 238:/home/hkh/git/eapidk-code-r76-trunk/apps/EeePProg/linux/../../common/EApiAHStr.c **** }
 239:/home/hkh/git/eapidk-code-r76-trunk/apps/EeePProg/linux/../../common/EApiAHStr.c **** int
 240:/home/hkh/git/eapidk-code-r76-trunk/apps/EeePProg/linux/../../common/EApiAHStr.c **** EApiAHCreateDecimalString(
 241:/home/hkh/git/eapidk-code-r76-trunk/apps/EeePProg/linux/../../common/EApiAHStr.c ****     __IN  uint32_t        Value     , /* Input Value to be interpreted */ 
 242:/home/hkh/git/eapidk-code-r76-trunk/apps/EeePProg/linux/../../common/EApiAHStr.c ****     __OUT TCHAR * const   pString   , /* Pointer To String pBuffer */
 243:/home/hkh/git/eapidk-code-r76-trunk/apps/EeePProg/linux/../../common/EApiAHStr.c ****     __IN  const uint32_t  StrBufLen   /* String pBuffer Length */
 244:/home/hkh/git/eapidk-code-r76-trunk/apps/EeePProg/linux/../../common/EApiAHStr.c ****     )
 245:/home/hkh/git/eapidk-code-r76-trunk/apps/EeePProg/linux/../../common/EApiAHStr.c **** {
 246:/home/hkh/git/eapidk-code-r76-trunk/apps/EeePProg/linux/../../common/EApiAHStr.c ****    int StatusCode=0;
 247:/home/hkh/git/eapidk-code-r76-trunk/apps/EeePProg/linux/../../common/EApiAHStr.c ****     EAPI_APP_ASSERT_PARAMATER_NULL(EApiAHCreateDecimalString, -1, pString);
 248:/home/hkh/git/eapidk-code-r76-trunk/apps/EeePProg/linux/../../common/EApiAHStr.c ****     EAPI_APP_ASSERT_PARAMATER_ZERO(EApiAHCreateDecimalString, -1, StrBufLen);
 249:/home/hkh/git/eapidk-code-r76-trunk/apps/EeePProg/linux/../../common/EApiAHStr.c ****     StatusCode=EApiSprintf(pString, StrBufLen, TEXT("%")TEXT(PRIu32), Value);
 250:/home/hkh/git/eapidk-code-r76-trunk/apps/EeePProg/linux/../../common/EApiAHStr.c **** EAPI_APP_ASSERT_EXIT
 251:/home/hkh/git/eapidk-code-r76-trunk/apps/EeePProg/linux/../../common/EApiAHStr.c **** /* SuccessExit: */
 252:/home/hkh/git/eapidk-code-r76-trunk/apps/EeePProg/linux/../../common/EApiAHStr.c ****     return StatusCode;
 253:/home/hkh/git/eapidk-code-r76-trunk/apps/EeePProg/linux/../../common/EApiAHStr.c **** }
 254:/home/hkh/git/eapidk-code-r76-trunk/apps/EeePProg/linux/../../common/EApiAHStr.c **** int
 255:/home/hkh/git/eapidk-code-r76-trunk/apps/EeePProg/linux/../../common/EApiAHStr.c **** EApiAHCreateHexString(
 256:/home/hkh/git/eapidk-code-r76-trunk/apps/EeePProg/linux/../../common/EApiAHStr.c ****     __IN  uint32_t        Value     , /* Input Value to be interpreted */ 
 257:/home/hkh/git/eapidk-code-r76-trunk/apps/EeePProg/linux/../../common/EApiAHStr.c ****     __OUT TCHAR * const   pString   , /* Pointer To String pBuffer */
 258:/home/hkh/git/eapidk-code-r76-trunk/apps/EeePProg/linux/../../common/EApiAHStr.c ****     __IN  const uint32_t  StrBufLen   /* String pBuffer Length */
 259:/home/hkh/git/eapidk-code-r76-trunk/apps/EeePProg/linux/../../common/EApiAHStr.c ****     )
 260:/home/hkh/git/eapidk-code-r76-trunk/apps/EeePProg/linux/../../common/EApiAHStr.c **** {
 261:/home/hkh/git/eapidk-code-r76-trunk/apps/EeePProg/linux/../../common/EApiAHStr.c ****    int StatusCode=0;
 262:/home/hkh/git/eapidk-code-r76-trunk/apps/EeePProg/linux/../../common/EApiAHStr.c ****     EAPI_APP_ASSERT_PARAMATER_NULL(EApiAHCreateDecimalString, -1, pString);
 263:/home/hkh/git/eapidk-code-r76-trunk/apps/EeePProg/linux/../../common/EApiAHStr.c ****     EAPI_APP_ASSERT_PARAMATER_ZERO(EApiAHCreateDecimalString, -1, StrBufLen);
 264:/home/hkh/git/eapidk-code-r76-trunk/apps/EeePProg/linux/../../common/EApiAHStr.c ****     StatusCode=EApiSprintf(pString, StrBufLen, TEXT("0x%08")TEXT(PRIX32), Value);
 265:/home/hkh/git/eapidk-code-r76-trunk/apps/EeePProg/linux/../../common/EApiAHStr.c **** EAPI_APP_ASSERT_EXIT
 266:/home/hkh/git/eapidk-code-r76-trunk/apps/EeePProg/linux/../../common/EApiAHStr.c **** /* SuccessExit: */
 267:/home/hkh/git/eapidk-code-r76-trunk/apps/EeePProg/linux/../../common/EApiAHStr.c ****     return StatusCode;
 268:/home/hkh/git/eapidk-code-r76-trunk/apps/EeePProg/linux/../../common/EApiAHStr.c **** }
 269:/home/hkh/git/eapidk-code-r76-trunk/apps/EeePProg/linux/../../common/EApiAHStr.c **** int
 270:/home/hkh/git/eapidk-code-r76-trunk/apps/EeePProg/linux/../../common/EApiAHStr.c **** EApiAHCreateVoltageString(
 271:/home/hkh/git/eapidk-code-r76-trunk/apps/EeePProg/linux/../../common/EApiAHStr.c ****     __IN  uint32_t        Value     , /* Input Value to be interpreted */ 
 272:/home/hkh/git/eapidk-code-r76-trunk/apps/EeePProg/linux/../../common/EApiAHStr.c ****     __OUT TCHAR * const   pString   , /* Pointer To String pBuffer */
 273:/home/hkh/git/eapidk-code-r76-trunk/apps/EeePProg/linux/../../common/EApiAHStr.c ****     __IN  const uint32_t  StrBufLen   /* String pBuffer Length */
 274:/home/hkh/git/eapidk-code-r76-trunk/apps/EeePProg/linux/../../common/EApiAHStr.c ****     )
 275:/home/hkh/git/eapidk-code-r76-trunk/apps/EeePProg/linux/../../common/EApiAHStr.c **** {
 276:/home/hkh/git/eapidk-code-r76-trunk/apps/EeePProg/linux/../../common/EApiAHStr.c ****    int StatusCode=0;
 277:/home/hkh/git/eapidk-code-r76-trunk/apps/EeePProg/linux/../../common/EApiAHStr.c ****     EAPI_APP_ASSERT_PARAMATER_NULL(EApiAHCreateDecimalString, -1, pString);
 278:/home/hkh/git/eapidk-code-r76-trunk/apps/EeePProg/linux/../../common/EApiAHStr.c ****     EAPI_APP_ASSERT_PARAMATER_ZERO(EApiAHCreateDecimalString, -1, StrBufLen);
ARM GAS  /tmp/ccQkFBoM.s 			page 7


 279:/home/hkh/git/eapidk-code-r76-trunk/apps/EeePProg/linux/../../common/EApiAHStr.c ****     Value/=10;
 280:/home/hkh/git/eapidk-code-r76-trunk/apps/EeePProg/linux/../../common/EApiAHStr.c ****     StatusCode=EApiSprintf(pString, StrBufLen, TEXT("%")TEXT(PRIu32)TEXT(".%02")TEXT(PRIu32)TEXT(" 
 281:/home/hkh/git/eapidk-code-r76-trunk/apps/EeePProg/linux/../../common/EApiAHStr.c **** 
 282:/home/hkh/git/eapidk-code-r76-trunk/apps/EeePProg/linux/../../common/EApiAHStr.c **** EAPI_APP_ASSERT_EXIT
 283:/home/hkh/git/eapidk-code-r76-trunk/apps/EeePProg/linux/../../common/EApiAHStr.c **** /* SuccessExit: */
 284:/home/hkh/git/eapidk-code-r76-trunk/apps/EeePProg/linux/../../common/EApiAHStr.c ****     return StatusCode;
 285:/home/hkh/git/eapidk-code-r76-trunk/apps/EeePProg/linux/../../common/EApiAHStr.c **** }
 286:/home/hkh/git/eapidk-code-r76-trunk/apps/EeePProg/linux/../../common/EApiAHStr.c **** int
 287:/home/hkh/git/eapidk-code-r76-trunk/apps/EeePProg/linux/../../common/EApiAHStr.c **** EApiAHCreateRotationsString(
 288:/home/hkh/git/eapidk-code-r76-trunk/apps/EeePProg/linux/../../common/EApiAHStr.c ****     __IN  uint32_t        Value     , /* Input Value to be interpreted */ 
 289:/home/hkh/git/eapidk-code-r76-trunk/apps/EeePProg/linux/../../common/EApiAHStr.c ****     __OUT TCHAR * const   pString   , /* Pointer To String pBuffer */
 290:/home/hkh/git/eapidk-code-r76-trunk/apps/EeePProg/linux/../../common/EApiAHStr.c ****     __IN  const uint32_t  StrBufLen   /* String pBuffer Length */
 291:/home/hkh/git/eapidk-code-r76-trunk/apps/EeePProg/linux/../../common/EApiAHStr.c ****     )
 292:/home/hkh/git/eapidk-code-r76-trunk/apps/EeePProg/linux/../../common/EApiAHStr.c **** {
 293:/home/hkh/git/eapidk-code-r76-trunk/apps/EeePProg/linux/../../common/EApiAHStr.c ****     int StatusCode;
 294:/home/hkh/git/eapidk-code-r76-trunk/apps/EeePProg/linux/../../common/EApiAHStr.c ****     EAPI_APP_ASSERT_PARAMATER_NULL(EApiAHCreateDecimalString, -1, pString);
 295:/home/hkh/git/eapidk-code-r76-trunk/apps/EeePProg/linux/../../common/EApiAHStr.c ****     EAPI_APP_ASSERT_PARAMATER_ZERO(EApiAHCreateDecimalString, -1, StrBufLen);
 296:/home/hkh/git/eapidk-code-r76-trunk/apps/EeePProg/linux/../../common/EApiAHStr.c ****     StatusCode=EApiSprintf(pString, StrBufLen, TEXT("%")TEXT(PRIu32)TEXT(" RPM"), Value);
 297:/home/hkh/git/eapidk-code-r76-trunk/apps/EeePProg/linux/../../common/EApiAHStr.c **** 
 298:/home/hkh/git/eapidk-code-r76-trunk/apps/EeePProg/linux/../../common/EApiAHStr.c **** EAPI_APP_ASSERT_EXIT
 299:/home/hkh/git/eapidk-code-r76-trunk/apps/EeePProg/linux/../../common/EApiAHStr.c **** /* SuccessExit: */
 300:/home/hkh/git/eapidk-code-r76-trunk/apps/EeePProg/linux/../../common/EApiAHStr.c ****     return StatusCode;
 301:/home/hkh/git/eapidk-code-r76-trunk/apps/EeePProg/linux/../../common/EApiAHStr.c **** }
 302:/home/hkh/git/eapidk-code-r76-trunk/apps/EeePProg/linux/../../common/EApiAHStr.c **** int
 303:/home/hkh/git/eapidk-code-r76-trunk/apps/EeePProg/linux/../../common/EApiAHStr.c **** EApiAHCreateTempString(
 304:/home/hkh/git/eapidk-code-r76-trunk/apps/EeePProg/linux/../../common/EApiAHStr.c ****     __IN  uint32_t        Value     , /* Input Value to be interpreted */ 
 305:/home/hkh/git/eapidk-code-r76-trunk/apps/EeePProg/linux/../../common/EApiAHStr.c ****     __OUT TCHAR * const   pString   , /* Pointer To String pBuffer */
 306:/home/hkh/git/eapidk-code-r76-trunk/apps/EeePProg/linux/../../common/EApiAHStr.c ****     __IN  const uint32_t  StrBufLen   /* String pBuffer Length */
 307:/home/hkh/git/eapidk-code-r76-trunk/apps/EeePProg/linux/../../common/EApiAHStr.c ****     )
 308:/home/hkh/git/eapidk-code-r76-trunk/apps/EeePProg/linux/../../common/EApiAHStr.c **** {
 309:/home/hkh/git/eapidk-code-r76-trunk/apps/EeePProg/linux/../../common/EApiAHStr.c ****     int StatusCode;
 310:/home/hkh/git/eapidk-code-r76-trunk/apps/EeePProg/linux/../../common/EApiAHStr.c ****     EAPI_APP_ASSERT_PARAMATER_NULL(EApiAHCreateDecimalString, -1, pString);
 311:/home/hkh/git/eapidk-code-r76-trunk/apps/EeePProg/linux/../../common/EApiAHStr.c ****     EAPI_APP_ASSERT_PARAMATER_ZERO(EApiAHCreateDecimalString, -1, StrBufLen);
 312:/home/hkh/git/eapidk-code-r76-trunk/apps/EeePProg/linux/../../common/EApiAHStr.c ****     Value-=EAPI_KELVINS_OFFSET;
 313:/home/hkh/git/eapidk-code-r76-trunk/apps/EeePProg/linux/../../common/EApiAHStr.c ****     StatusCode=EApiSprintf(pString, StrBufLen, TEXT("% ")TEXT(PRIi32)TEXT(".%")TEXT(PRIi32)TEXT(" C
 314:/home/hkh/git/eapidk-code-r76-trunk/apps/EeePProg/linux/../../common/EApiAHStr.c **** 
 315:/home/hkh/git/eapidk-code-r76-trunk/apps/EeePProg/linux/../../common/EApiAHStr.c **** EAPI_APP_ASSERT_EXIT
 316:/home/hkh/git/eapidk-code-r76-trunk/apps/EeePProg/linux/../../common/EApiAHStr.c **** /* SuccessExit: */
 317:/home/hkh/git/eapidk-code-r76-trunk/apps/EeePProg/linux/../../common/EApiAHStr.c ****     return StatusCode;
 318:/home/hkh/git/eapidk-code-r76-trunk/apps/EeePProg/linux/../../common/EApiAHStr.c **** }
 319:/home/hkh/git/eapidk-code-r76-trunk/apps/EeePProg/linux/../../common/EApiAHStr.c **** int
 320:/home/hkh/git/eapidk-code-r76-trunk/apps/EeePProg/linux/../../common/EApiAHStr.c **** EApiAHCreateTimeString(
 321:/home/hkh/git/eapidk-code-r76-trunk/apps/EeePProg/linux/../../common/EApiAHStr.c ****     __IN  uint32_t        Value     , /* Input Value to be interpreted */ 
 322:/home/hkh/git/eapidk-code-r76-trunk/apps/EeePProg/linux/../../common/EApiAHStr.c ****     __OUT TCHAR * const   pString   , /* Pointer To String pBuffer */
 323:/home/hkh/git/eapidk-code-r76-trunk/apps/EeePProg/linux/../../common/EApiAHStr.c ****     __IN  const uint32_t  StrBufLen   /* String pBuffer Length */
 324:/home/hkh/git/eapidk-code-r76-trunk/apps/EeePProg/linux/../../common/EApiAHStr.c ****     )
 325:/home/hkh/git/eapidk-code-r76-trunk/apps/EeePProg/linux/../../common/EApiAHStr.c **** {
 326:/home/hkh/git/eapidk-code-r76-trunk/apps/EeePProg/linux/../../common/EApiAHStr.c ****     int StatusCode;
 327:/home/hkh/git/eapidk-code-r76-trunk/apps/EeePProg/linux/../../common/EApiAHStr.c ****     int StrLength=0;
 328:/home/hkh/git/eapidk-code-r76-trunk/apps/EeePProg/linux/../../common/EApiAHStr.c ****     EAPI_APP_ASSERT_PARAMATER_NULL(EApiAHCreateTimeString, -1, pString);
 329:/home/hkh/git/eapidk-code-r76-trunk/apps/EeePProg/linux/../../common/EApiAHStr.c ****     EAPI_APP_ASSERT_PARAMATER_ZERO(EApiAHCreateTimeString, -1, StrBufLen);
 330:/home/hkh/git/eapidk-code-r76-trunk/apps/EeePProg/linux/../../common/EApiAHStr.c ****     if(Value/365/24/60)
 331:/home/hkh/git/eapidk-code-r76-trunk/apps/EeePProg/linux/../../common/EApiAHStr.c ****       StrLength+=EApiSprintf(&pString[StrLength], StrBufLen-StrLength, TEXT("%")TEXT(PRIu32)TEXT(" 
 332:/home/hkh/git/eapidk-code-r76-trunk/apps/EeePProg/linux/../../common/EApiAHStr.c ****     if(StrLength||((Value/24/60)%365))
 333:/home/hkh/git/eapidk-code-r76-trunk/apps/EeePProg/linux/../../common/EApiAHStr.c ****       StrLength+=EApiSprintf(&pString[StrLength], StrBufLen-StrLength, TEXT("%")TEXT(PRIu32)TEXT(" 
 334:/home/hkh/git/eapidk-code-r76-trunk/apps/EeePProg/linux/../../common/EApiAHStr.c ****     if(StrLength||((Value/60)%24)){
 335:/home/hkh/git/eapidk-code-r76-trunk/apps/EeePProg/linux/../../common/EApiAHStr.c **** 
ARM GAS  /tmp/ccQkFBoM.s 			page 8


 336:/home/hkh/git/eapidk-code-r76-trunk/apps/EeePProg/linux/../../common/EApiAHStr.c ****       StrLength+=EApiSprintf(&pString[StrLength], StrBufLen-StrLength, TEXT("%")TEXT(PRIu32)TEXT(" 
 337:/home/hkh/git/eapidk-code-r76-trunk/apps/EeePProg/linux/../../common/EApiAHStr.c ****       StrLength+=EApiSprintf(&pString[StrLength], StrBufLen-StrLength, TEXT("%")TEXT(PRIu32)TEXT(" 
 338:/home/hkh/git/eapidk-code-r76-trunk/apps/EeePProg/linux/../../common/EApiAHStr.c ****     }
 339:/home/hkh/git/eapidk-code-r76-trunk/apps/EeePProg/linux/../../common/EApiAHStr.c ****     StatusCode=StrLength;
 340:/home/hkh/git/eapidk-code-r76-trunk/apps/EeePProg/linux/../../common/EApiAHStr.c **** 
 341:/home/hkh/git/eapidk-code-r76-trunk/apps/EeePProg/linux/../../common/EApiAHStr.c **** EAPI_APP_ASSERT_EXIT
 342:/home/hkh/git/eapidk-code-r76-trunk/apps/EeePProg/linux/../../common/EApiAHStr.c **** /* SuccessExit: */
 343:/home/hkh/git/eapidk-code-r76-trunk/apps/EeePProg/linux/../../common/EApiAHStr.c ****     return StatusCode;
 344:/home/hkh/git/eapidk-code-r76-trunk/apps/EeePProg/linux/../../common/EApiAHStr.c **** }
 345:/home/hkh/git/eapidk-code-r76-trunk/apps/EeePProg/linux/../../common/EApiAHStr.c **** 
 346:/home/hkh/git/eapidk-code-r76-trunk/apps/EeePProg/linux/../../common/EApiAHStr.c **** 
 347:/home/hkh/git/eapidk-code-r76-trunk/apps/EeePProg/linux/../../common/EApiAHStr.c **** int
 348:/home/hkh/git/eapidk-code-r76-trunk/apps/EeePProg/linux/../../common/EApiAHStr.c **** EApiAHCreateSVersionString(
 349:/home/hkh/git/eapidk-code-r76-trunk/apps/EeePProg/linux/../../common/EApiAHStr.c ****     __IN  uint32_t        Value     , /* Input Value to be interpreted */ 
 350:/home/hkh/git/eapidk-code-r76-trunk/apps/EeePProg/linux/../../common/EApiAHStr.c ****     __OUT TCHAR * const   pString   , /* Pointer To String pBuffer */
 351:/home/hkh/git/eapidk-code-r76-trunk/apps/EeePProg/linux/../../common/EApiAHStr.c ****     __IN  const uint32_t  StrBufLen   /* String pBuffer Length */
 352:/home/hkh/git/eapidk-code-r76-trunk/apps/EeePProg/linux/../../common/EApiAHStr.c ****     )
 353:/home/hkh/git/eapidk-code-r76-trunk/apps/EeePProg/linux/../../common/EApiAHStr.c **** {
 354:/home/hkh/git/eapidk-code-r76-trunk/apps/EeePProg/linux/../../common/EApiAHStr.c ****     int StatusCode;
 355:/home/hkh/git/eapidk-code-r76-trunk/apps/EeePProg/linux/../../common/EApiAHStr.c ****     /* 255.255 */
 356:/home/hkh/git/eapidk-code-r76-trunk/apps/EeePProg/linux/../../common/EApiAHStr.c ****     EAPI_APP_ASSERT_PARAMATER_NULL(EApiAHCreateSVersionString, -1, pString);
 357:/home/hkh/git/eapidk-code-r76-trunk/apps/EeePProg/linux/../../common/EApiAHStr.c ****     EAPI_APP_ASSERT_PARAMATER_ZERO(EApiAHCreateSVersionString, -1, StrBufLen);
 358:/home/hkh/git/eapidk-code-r76-trunk/apps/EeePProg/linux/../../common/EApiAHStr.c ****     StatusCode=EApiSprintf(pString, StrBufLen, TEXT("%u.%u"), EAPI_VER_GET_VER(Value), EAPI_VER_GET
 359:/home/hkh/git/eapidk-code-r76-trunk/apps/EeePProg/linux/../../common/EApiAHStr.c **** 
 360:/home/hkh/git/eapidk-code-r76-trunk/apps/EeePProg/linux/../../common/EApiAHStr.c **** EAPI_APP_ASSERT_EXIT
 361:/home/hkh/git/eapidk-code-r76-trunk/apps/EeePProg/linux/../../common/EApiAHStr.c **** /* SuccessExit: */
 362:/home/hkh/git/eapidk-code-r76-trunk/apps/EeePProg/linux/../../common/EApiAHStr.c ****     return StatusCode;
 363:/home/hkh/git/eapidk-code-r76-trunk/apps/EeePProg/linux/../../common/EApiAHStr.c **** }
 364:/home/hkh/git/eapidk-code-r76-trunk/apps/EeePProg/linux/../../common/EApiAHStr.c **** int 
 365:/home/hkh/git/eapidk-code-r76-trunk/apps/EeePProg/linux/../../common/EApiAHStr.c **** EApiAHCreateVersionString(
 366:/home/hkh/git/eapidk-code-r76-trunk/apps/EeePProg/linux/../../common/EApiAHStr.c ****     __IN  uint32_t        Value     , /* Input Value to be interpreted */ 
 367:/home/hkh/git/eapidk-code-r76-trunk/apps/EeePProg/linux/../../common/EApiAHStr.c ****     __OUT TCHAR * const   pString   , /* Pointer To String pBuffer */
 368:/home/hkh/git/eapidk-code-r76-trunk/apps/EeePProg/linux/../../common/EApiAHStr.c ****     __IN  const uint32_t  StrBufLen   /* String pBuffer Length */
 369:/home/hkh/git/eapidk-code-r76-trunk/apps/EeePProg/linux/../../common/EApiAHStr.c ****     )
 370:/home/hkh/git/eapidk-code-r76-trunk/apps/EeePProg/linux/../../common/EApiAHStr.c **** {
 371:/home/hkh/git/eapidk-code-r76-trunk/apps/EeePProg/linux/../../common/EApiAHStr.c ****   int StatusCode;
 372:/home/hkh/git/eapidk-code-r76-trunk/apps/EeePProg/linux/../../common/EApiAHStr.c ****   /* 255.255.65535 */
 373:/home/hkh/git/eapidk-code-r76-trunk/apps/EeePProg/linux/../../common/EApiAHStr.c ****   EAPI_APP_ASSERT_PARAMATER_NULL(EApiAHCreateVersionString, -1, pString);
 374:/home/hkh/git/eapidk-code-r76-trunk/apps/EeePProg/linux/../../common/EApiAHStr.c ****   EAPI_APP_ASSERT_PARAMATER_ZERO(EApiAHCreateVersionString, -1, StrBufLen);
 375:/home/hkh/git/eapidk-code-r76-trunk/apps/EeePProg/linux/../../common/EApiAHStr.c ****   StatusCode=EApiSprintf(pString, StrBufLen, TEXT("%u.%u.%u"), EAPI_VER_GET_VER(Value), EAPI_VER_GE
 376:/home/hkh/git/eapidk-code-r76-trunk/apps/EeePProg/linux/../../common/EApiAHStr.c **** 
 377:/home/hkh/git/eapidk-code-r76-trunk/apps/EeePProg/linux/../../common/EApiAHStr.c **** EAPI_APP_ASSERT_EXIT
 378:/home/hkh/git/eapidk-code-r76-trunk/apps/EeePProg/linux/../../common/EApiAHStr.c **** /* SuccessExit: */
 379:/home/hkh/git/eapidk-code-r76-trunk/apps/EeePProg/linux/../../common/EApiAHStr.c ****     return StatusCode;
 380:/home/hkh/git/eapidk-code-r76-trunk/apps/EeePProg/linux/../../common/EApiAHStr.c **** }
 381:/home/hkh/git/eapidk-code-r76-trunk/apps/EeePProg/linux/../../common/EApiAHStr.c **** 
 382:/home/hkh/git/eapidk-code-r76-trunk/apps/EeePProg/linux/../../common/EApiAHStr.c **** 
 383:/home/hkh/git/eapidk-code-r76-trunk/apps/EeePProg/linux/../../common/EApiAHStr.c **** TCHAR CompressedAsciiLookup[]={
 384:/home/hkh/git/eapidk-code-r76-trunk/apps/EeePProg/linux/../../common/EApiAHStr.c ****   TEXT(' '), TEXT('A'), TEXT('B'), TEXT('C'),
 385:/home/hkh/git/eapidk-code-r76-trunk/apps/EeePProg/linux/../../common/EApiAHStr.c ****   TEXT('D'), TEXT('E'), TEXT('F'), TEXT('G'),
 386:/home/hkh/git/eapidk-code-r76-trunk/apps/EeePProg/linux/../../common/EApiAHStr.c ****   TEXT('H'), TEXT('I'), TEXT('J'), TEXT('K'),
 387:/home/hkh/git/eapidk-code-r76-trunk/apps/EeePProg/linux/../../common/EApiAHStr.c ****   TEXT('L'), TEXT('M'), TEXT('N'), TEXT('O'),
 388:/home/hkh/git/eapidk-code-r76-trunk/apps/EeePProg/linux/../../common/EApiAHStr.c ****   TEXT('P'), TEXT('Q'), TEXT('R'), TEXT('S'),
 389:/home/hkh/git/eapidk-code-r76-trunk/apps/EeePProg/linux/../../common/EApiAHStr.c ****   TEXT('T'), TEXT('U'), TEXT('V'), TEXT('W'),
 390:/home/hkh/git/eapidk-code-r76-trunk/apps/EeePProg/linux/../../common/EApiAHStr.c ****   TEXT('X'), TEXT('Y'), TEXT('Z'),
 391:/home/hkh/git/eapidk-code-r76-trunk/apps/EeePProg/linux/../../common/EApiAHStr.c ****   /* Invalid Values */
 392:/home/hkh/git/eapidk-code-r76-trunk/apps/EeePProg/linux/../../common/EApiAHStr.c **** #ifdef DEGUG
ARM GAS  /tmp/ccQkFBoM.s 			page 9


 393:/home/hkh/git/eapidk-code-r76-trunk/apps/EeePProg/linux/../../common/EApiAHStr.c ****   TEXT('0'), TEXT('1'), TEXT('2'), TEXT('3'), TEXT('4')
 394:/home/hkh/git/eapidk-code-r76-trunk/apps/EeePProg/linux/../../common/EApiAHStr.c **** #else
 395:/home/hkh/git/eapidk-code-r76-trunk/apps/EeePProg/linux/../../common/EApiAHStr.c ****   TEXT('*'), TEXT('*'), TEXT('*'), TEXT('*'), TEXT('*')
 396:/home/hkh/git/eapidk-code-r76-trunk/apps/EeePProg/linux/../../common/EApiAHStr.c **** #endif
 397:/home/hkh/git/eapidk-code-r76-trunk/apps/EeePProg/linux/../../common/EApiAHStr.c **** };
 398:/home/hkh/git/eapidk-code-r76-trunk/apps/EeePProg/linux/../../common/EApiAHStr.c **** 
 399:/home/hkh/git/eapidk-code-r76-trunk/apps/EeePProg/linux/../../common/EApiAHStr.c **** int 
 400:/home/hkh/git/eapidk-code-r76-trunk/apps/EeePProg/linux/../../common/EApiAHStr.c **** EApiAHCreatePNPIDString(
 401:/home/hkh/git/eapidk-code-r76-trunk/apps/EeePProg/linux/../../common/EApiAHStr.c ****     __IN  uint32_t        Value     , /* Input Value to be interpreted */ 
 402:/home/hkh/git/eapidk-code-r76-trunk/apps/EeePProg/linux/../../common/EApiAHStr.c ****     __OUT TCHAR * const   pString   , /* Pointer To String pBuffer */
 403:/home/hkh/git/eapidk-code-r76-trunk/apps/EeePProg/linux/../../common/EApiAHStr.c ****     __IN  const uint32_t  StrBufLen   /* String pBuffer Length */
 404:/home/hkh/git/eapidk-code-r76-trunk/apps/EeePProg/linux/../../common/EApiAHStr.c ****     )
 405:/home/hkh/git/eapidk-code-r76-trunk/apps/EeePProg/linux/../../common/EApiAHStr.c **** {
  47              		.loc 1 405 1 view -0
  48              		.cfi_startproc
  49              		@ args = 0, pretend = 0, frame = 0
  50              		@ frame_needed = 0, uses_anonymous_args = 0
 406:/home/hkh/git/eapidk-code-r76-trunk/apps/EeePProg/linux/../../common/EApiAHStr.c ****   int StatusCode;
  51              		.loc 1 406 3 view .LVU1
 407:/home/hkh/git/eapidk-code-r76-trunk/apps/EeePProg/linux/../../common/EApiAHStr.c ****   int cnt;
  52              		.loc 1 407 3 view .LVU2
 408:/home/hkh/git/eapidk-code-r76-trunk/apps/EeePProg/linux/../../common/EApiAHStr.c ****   unsigned short PNPID=(unsigned short)EAPI_BYTE_SWAP_W(Value);
  53              		.loc 1 408 3 view .LVU3
 409:/home/hkh/git/eapidk-code-r76-trunk/apps/EeePProg/linux/../../common/EApiAHStr.c ****   EAPI_APP_ASSERT_PARAMATER_NULL(EApiAHCreatePNPIDString, -1, pString);
  54              		.loc 1 409 3 is_stmt 0 view .LVU4
  55 0000 000051E3 		cmp	r1, #0
  56              	.LVL1:
  57              		.loc 1 409 3 is_stmt 1 view .LVU5
 405:/home/hkh/git/eapidk-code-r76-trunk/apps/EeePProg/linux/../../common/EApiAHStr.c ****   int StatusCode;
  58              		.loc 1 405 1 is_stmt 0 view .LVU6
  59 0004 10402DE9 		push	{r4, lr}
  60              		.cfi_def_cfa_offset 8
  61              		.cfi_offset 4, -8
  62              		.cfi_offset 14, -4
  63 0008 10D04DE2 		sub	sp, sp, #16
  64              		.cfi_def_cfa_offset 24
  65              		.loc 1 409 3 view .LVU7
  66 000c 2600000A 		beq	.L10
  67              		.loc 1 409 3 is_stmt 1 discriminator 2 view .LVU8
  68              		.loc 1 409 71 discriminator 2 view .LVU9
 410:/home/hkh/git/eapidk-code-r76-trunk/apps/EeePProg/linux/../../common/EApiAHStr.c ****   if(StrBufLen<4){
  69              		.loc 1 410 3 discriminator 2 view .LVU10
  70              		.loc 1 410 5 is_stmt 0 discriminator 2 view .LVU11
  71 0010 030052E3 		cmp	r2, #3
  72 0014 1400009A 		bls	.L11
 411:/home/hkh/git/eapidk-code-r76-trunk/apps/EeePProg/linux/../../common/EApiAHStr.c ****     EAPI_APP_RETURN_ERROR(EApiAHCreatePNPIDString, -1, "pBuffer Too Short");
  73              		.loc 1 411 5 is_stmt 1 view .LVU12
 412:/home/hkh/git/eapidk-code-r76-trunk/apps/EeePProg/linux/../../common/EApiAHStr.c ****   }
 413:/home/hkh/git/eapidk-code-r76-trunk/apps/EeePProg/linux/../../common/EApiAHStr.c ****   if(PNPID&(1<<15)){
  74              		.loc 1 413 3 view .LVU13
  75 0018 B00FBFE6 		rev16	r0, r0
  76              	.LVL2:
  77              		.loc 1 413 5 is_stmt 0 view .LVU14
  78 001c 020910E3 		tst	r0, #32768
  79 0020 0F00001A 		bne	.L6
  80              	.LVL3:
 414:/home/hkh/git/eapidk-code-r76-trunk/apps/EeePProg/linux/../../common/EApiAHStr.c ****     StatusCode = -1;
ARM GAS  /tmp/ccQkFBoM.s 			page 10


 415:/home/hkh/git/eapidk-code-r76-trunk/apps/EeePProg/linux/../../common/EApiAHStr.c ****     goto ErrorExit;
 416:/home/hkh/git/eapidk-code-r76-trunk/apps/EeePProg/linux/../../common/EApiAHStr.c ****   }
 417:/home/hkh/git/eapidk-code-r76-trunk/apps/EeePProg/linux/../../common/EApiAHStr.c ****   for(cnt=0; cnt < 3; cnt++){
  81              		.loc 1 417 18 is_stmt 1 view .LVU15
 418:/home/hkh/git/eapidk-code-r76-trunk/apps/EeePProg/linux/../../common/EApiAHStr.c ****     pString[2 - cnt]=CompressedAsciiLookup[(PNPID>>(cnt*5))&0x1F];
  82              		.loc 1 418 5 view .LVU16
  83              		.loc 1 418 43 is_stmt 0 view .LVU17
  84 0024 AC309FE5 		ldr	r3, .L12
  85 0028 70C0FFE6 		uxth	ip, r0
  86              		.loc 1 418 60 view .LVU18
  87 002c 1F000CE2 		and	r0, ip, #31
  88 0030 DC22E4E7 		ubfx	r2, ip, #5, #5
  89              	.LVL4:
  90              		.loc 1 418 43 view .LVU19
  91              	.LPIC8:
  92 0034 03308FE0 		add	r3, pc, r3
  93 0038 0000D3E7 		ldrb	r0, [r3, r0]	@ zero_extendqisi2
  94              		.loc 1 418 21 view .LVU20
  95 003c 0200C1E5 		strb	r0, [r1, #2]
 417:/home/hkh/git/eapidk-code-r76-trunk/apps/EeePProg/linux/../../common/EApiAHStr.c ****     pString[2 - cnt]=CompressedAsciiLookup[(PNPID>>(cnt*5))&0x1F];
  96              		.loc 1 417 26 is_stmt 1 view .LVU21
  97              	.LVL5:
 417:/home/hkh/git/eapidk-code-r76-trunk/apps/EeePProg/linux/../../common/EApiAHStr.c ****     pString[2 - cnt]=CompressedAsciiLookup[(PNPID>>(cnt*5))&0x1F];
  98              		.loc 1 417 18 view .LVU22
  99              		.loc 1 418 5 view .LVU23
 419:/home/hkh/git/eapidk-code-r76-trunk/apps/EeePProg/linux/../../common/EApiAHStr.c ****   }
 420:/home/hkh/git/eapidk-code-r76-trunk/apps/EeePProg/linux/../../common/EApiAHStr.c ****   pString[cnt]=0;
 421:/home/hkh/git/eapidk-code-r76-trunk/apps/EeePProg/linux/../../common/EApiAHStr.c ****   StatusCode=3;
 100              		.loc 1 421 13 is_stmt 0 view .LVU24
 101 0040 0300A0E3 		mov	r0, #3
 418:/home/hkh/git/eapidk-code-r76-trunk/apps/EeePProg/linux/../../common/EApiAHStr.c ****   }
 102              		.loc 1 418 43 view .LVU25
 103 0044 0220D3E7 		ldrb	r2, [r3, r2]	@ zero_extendqisi2
 418:/home/hkh/git/eapidk-code-r76-trunk/apps/EeePProg/linux/../../common/EApiAHStr.c ****   }
 104              		.loc 1 418 21 view .LVU26
 105 0048 0120C1E5 		strb	r2, [r1, #1]
 417:/home/hkh/git/eapidk-code-r76-trunk/apps/EeePProg/linux/../../common/EApiAHStr.c ****     pString[2 - cnt]=CompressedAsciiLookup[(PNPID>>(cnt*5))&0x1F];
 106              		.loc 1 417 26 is_stmt 1 view .LVU27
 107              	.LVL6:
 417:/home/hkh/git/eapidk-code-r76-trunk/apps/EeePProg/linux/../../common/EApiAHStr.c ****     pString[2 - cnt]=CompressedAsciiLookup[(PNPID>>(cnt*5))&0x1F];
 108              		.loc 1 417 18 view .LVU28
 418:/home/hkh/git/eapidk-code-r76-trunk/apps/EeePProg/linux/../../common/EApiAHStr.c ****   }
 109              		.loc 1 418 5 view .LVU29
 420:/home/hkh/git/eapidk-code-r76-trunk/apps/EeePProg/linux/../../common/EApiAHStr.c ****   StatusCode=3;
 110              		.loc 1 420 15 is_stmt 0 view .LVU30
 111 004c 0020A0E3 		mov	r2, #0
 418:/home/hkh/git/eapidk-code-r76-trunk/apps/EeePProg/linux/../../common/EApiAHStr.c ****   }
 112              		.loc 1 418 43 view .LVU31
 113 0050 4C35D3E7 		ldrb	r3, [r3, ip, asr #10]	@ zero_extendqisi2
 420:/home/hkh/git/eapidk-code-r76-trunk/apps/EeePProg/linux/../../common/EApiAHStr.c ****   StatusCode=3;
 114              		.loc 1 420 15 view .LVU32
 115 0054 0320C1E5 		strb	r2, [r1, #3]
 418:/home/hkh/git/eapidk-code-r76-trunk/apps/EeePProg/linux/../../common/EApiAHStr.c ****   }
 116              		.loc 1 418 21 view .LVU33
 117 0058 0030C1E5 		strb	r3, [r1]
 417:/home/hkh/git/eapidk-code-r76-trunk/apps/EeePProg/linux/../../common/EApiAHStr.c ****     pString[2 - cnt]=CompressedAsciiLookup[(PNPID>>(cnt*5))&0x1F];
 118              		.loc 1 417 26 is_stmt 1 view .LVU34
ARM GAS  /tmp/ccQkFBoM.s 			page 11


 119              	.LVL7:
 417:/home/hkh/git/eapidk-code-r76-trunk/apps/EeePProg/linux/../../common/EApiAHStr.c ****     pString[2 - cnt]=CompressedAsciiLookup[(PNPID>>(cnt*5))&0x1F];
 120              		.loc 1 417 18 view .LVU35
 420:/home/hkh/git/eapidk-code-r76-trunk/apps/EeePProg/linux/../../common/EApiAHStr.c ****   StatusCode=3;
 121              		.loc 1 420 3 view .LVU36
 122              		.loc 1 421 3 view .LVU37
 123              	.L1:
 422:/home/hkh/git/eapidk-code-r76-trunk/apps/EeePProg/linux/../../common/EApiAHStr.c **** 
 423:/home/hkh/git/eapidk-code-r76-trunk/apps/EeePProg/linux/../../common/EApiAHStr.c **** ErrorExit:
 424:/home/hkh/git/eapidk-code-r76-trunk/apps/EeePProg/linux/../../common/EApiAHStr.c **** EAPI_APP_ASSERT_EXIT
 425:/home/hkh/git/eapidk-code-r76-trunk/apps/EeePProg/linux/../../common/EApiAHStr.c **** /* SuccessExit: */
 426:/home/hkh/git/eapidk-code-r76-trunk/apps/EeePProg/linux/../../common/EApiAHStr.c ****     return StatusCode;
 427:/home/hkh/git/eapidk-code-r76-trunk/apps/EeePProg/linux/../../common/EApiAHStr.c **** }
 124              		.loc 1 427 1 is_stmt 0 view .LVU38
 125 005c 10D08DE2 		add	sp, sp, #16
 126              		.cfi_remember_state
 127              		.cfi_def_cfa_offset 8
 128              		@ sp needed
 129 0060 1080BDE8 		pop	{r4, pc}
 130              	.LVL8:
 131              	.L6:
 132              		.cfi_restore_state
 133              	.L3:
 134              	.L5:
 414:/home/hkh/git/eapidk-code-r76-trunk/apps/EeePProg/linux/../../common/EApiAHStr.c ****     goto ErrorExit;
 135              		.loc 1 414 16 view .LVU39
 136 0064 0000E0E3 		mvn	r0, #0
 137              	.LVL9:
 426:/home/hkh/git/eapidk-code-r76-trunk/apps/EeePProg/linux/../../common/EApiAHStr.c **** }
 138              		.loc 1 426 5 is_stmt 1 view .LVU40
 426:/home/hkh/git/eapidk-code-r76-trunk/apps/EeePProg/linux/../../common/EApiAHStr.c **** }
 139              		.loc 1 426 12 is_stmt 0 view .LVU41
 140 0068 FBFFFFEA 		b	.L1
 141              	.LVL10:
 142              	.L11:
 411:/home/hkh/git/eapidk-code-r76-trunk/apps/EeePProg/linux/../../common/EApiAHStr.c ****   }
 143              		.loc 1 411 5 is_stmt 1 view .LVU42
 411:/home/hkh/git/eapidk-code-r76-trunk/apps/EeePProg/linux/../../common/EApiAHStr.c ****   }
 144              		.loc 1 411 5 view .LVU43
 145 006c 68C09FE5 		ldr	ip, .L12+4
 146 0070 0040E0E3 		mvn	r4, #0
 147 0074 64009FE5 		ldr	r0, .L12+8
 148              	.LVL11:
 411:/home/hkh/git/eapidk-code-r76-trunk/apps/EeePProg/linux/../../common/EApiAHStr.c ****   }
 149              		.loc 1 411 5 is_stmt 0 view .LVU44
 150 0078 9B3100E3 		movw	r3, #411
 151 007c 60209FE5 		ldr	r2, .L12+12
 152              	.LVL12:
 411:/home/hkh/git/eapidk-code-r76-trunk/apps/EeePProg/linux/../../common/EApiAHStr.c ****   }
 153              		.loc 1 411 5 view .LVU45
 154 0080 60109FE5 		ldr	r1, .L12+16
 155              	.LVL13:
 411:/home/hkh/git/eapidk-code-r76-trunk/apps/EeePProg/linux/../../common/EApiAHStr.c ****   }
 156              		.loc 1 411 5 view .LVU46
 157              	.LPIC6:
 158 0084 0CC08FE0 		add	ip, pc, ip
 159              	.LPIC7:
ARM GAS  /tmp/ccQkFBoM.s 			page 12


 160 0088 00008FE0 		add	r0, pc, r0
 161              	.LPIC4:
 162 008c 02208FE0 		add	r2, pc, r2
 163              	.LPIC5:
 164 0090 01108FE0 		add	r1, pc, r1
 165              	.L8:
 166 0094 01108DE9 		stmib	sp, {r0, ip}
 167 0098 4500A0E3 		mov	r0, #69
 168 009c 00408DE5 		str	r4, [sp]
 169 00a0 FEFFFFEB 		bl	siFormattedMessage_SC(PLT)
 170              	.LVL14:
 411:/home/hkh/git/eapidk-code-r76-trunk/apps/EeePProg/linux/../../common/EApiAHStr.c ****   }
 171              		.loc 1 411 5 is_stmt 1 view .LVU47
 411:/home/hkh/git/eapidk-code-r76-trunk/apps/EeePProg/linux/../../common/EApiAHStr.c ****   }
 172              		.loc 1 411 5 view .LVU48
 411:/home/hkh/git/eapidk-code-r76-trunk/apps/EeePProg/linux/../../common/EApiAHStr.c ****   }
 173              		.loc 1 411 5 view .LVU49
 174 00a4 0400A0E1 		mov	r0, r4
 175 00a8 EBFFFFEA 		b	.L1
 176              	.LVL15:
 177              	.L10:
 409:/home/hkh/git/eapidk-code-r76-trunk/apps/EeePProg/linux/../../common/EApiAHStr.c ****   if(StrBufLen<4){
 178              		.loc 1 409 3 discriminator 1 view .LVU50
 409:/home/hkh/git/eapidk-code-r76-trunk/apps/EeePProg/linux/../../common/EApiAHStr.c ****   if(StrBufLen<4){
 179              		.loc 1 409 3 discriminator 1 view .LVU51
 180 00ac 38C09FE5 		ldr	ip, .L12+20
 181 00b0 0040E0E3 		mvn	r4, #0
 182 00b4 34009FE5 		ldr	r0, .L12+24
 183              	.LVL16:
 409:/home/hkh/git/eapidk-code-r76-trunk/apps/EeePProg/linux/../../common/EApiAHStr.c ****   if(StrBufLen<4){
 184              		.loc 1 409 3 is_stmt 0 discriminator 1 view .LVU52
 185 00b8 993100E3 		movw	r3, #409
 186 00bc 30209FE5 		ldr	r2, .L12+28
 187              	.LVL17:
 409:/home/hkh/git/eapidk-code-r76-trunk/apps/EeePProg/linux/../../common/EApiAHStr.c ****   if(StrBufLen<4){
 188              		.loc 1 409 3 discriminator 1 view .LVU53
 189 00c0 30109FE5 		ldr	r1, .L12+32
 190              	.LVL18:
 409:/home/hkh/git/eapidk-code-r76-trunk/apps/EeePProg/linux/../../common/EApiAHStr.c ****   if(StrBufLen<4){
 191              		.loc 1 409 3 discriminator 1 view .LVU54
 192              	.LPIC2:
 193 00c4 0CC08FE0 		add	ip, pc, ip
 194              	.LPIC3:
 195 00c8 00008FE0 		add	r0, pc, r0
 196              	.LPIC0:
 197 00cc 02208FE0 		add	r2, pc, r2
 198              	.LPIC1:
 199 00d0 01108FE0 		add	r1, pc, r1
 200 00d4 EEFFFFEA 		b	.L8
 201              	.L13:
 202              		.align	2
 203              	.L12:
 204 00d8 9C000000 		.word	.LANCHOR0-(.LPIC8+8)
 205 00dc 50000000 		.word	.LC4-(.LPIC6+8)
 206 00e0 50000000 		.word	.LC3-(.LPIC7+8)
 207 00e4 50000000 		.word	.LC0-(.LPIC4+8)
 208 00e8 50000000 		.word	.LC1-(.LPIC5+8)
ARM GAS  /tmp/ccQkFBoM.s 			page 13


 209 00ec 20000000 		.word	.LC2-(.LPIC2+8)
 210 00f0 20000000 		.word	.LC3-(.LPIC3+8)
 211 00f4 20000000 		.word	.LC0-(.LPIC0+8)
 212 00f8 20000000 		.word	.LC1-(.LPIC1+8)
 213              		.cfi_endproc
 214              	.LFE13:
 216              		.align	2
 217              		.global	EApiStrLenA
 218              		.syntax unified
 219              		.arm
 220              		.fpu vfpv3
 222              	EApiStrLenA:
 223              	.LVL19:
 224              	.LFB14:
 428:/home/hkh/git/eapidk-code-r76-trunk/apps/EeePProg/linux/../../common/EApiAHStr.c **** 
 429:/home/hkh/git/eapidk-code-r76-trunk/apps/EeePProg/linux/../../common/EApiAHStr.c **** #ifdef UNICODE
 430:/home/hkh/git/eapidk-code-r76-trunk/apps/EeePProg/linux/../../common/EApiAHStr.c **** EApiStatus_t
 431:/home/hkh/git/eapidk-code-r76-trunk/apps/EeePProg/linux/../../common/EApiAHStr.c **** EApiAHBoardGetStringW(
 432:/home/hkh/git/eapidk-code-r76-trunk/apps/EeePProg/linux/../../common/EApiAHStr.c ****     __IN      EApiId_t  Id      , /* Name Id */
 433:/home/hkh/git/eapidk-code-r76-trunk/apps/EeePProg/linux/../../common/EApiAHStr.c ****     __OUT     wchar_t  *pBuffer , /* Destination pBuffer */
 434:/home/hkh/git/eapidk-code-r76-trunk/apps/EeePProg/linux/../../common/EApiAHStr.c ****     __INOUT   uint32_t *pBufLen   /* pBuffer Length */
 435:/home/hkh/git/eapidk-code-r76-trunk/apps/EeePProg/linux/../../common/EApiAHStr.c ****     )
 436:/home/hkh/git/eapidk-code-r76-trunk/apps/EeePProg/linux/../../common/EApiAHStr.c **** {
 437:/home/hkh/git/eapidk-code-r76-trunk/apps/EeePProg/linux/../../common/EApiAHStr.c ****   char *pBufferPtr=NULL;
 438:/home/hkh/git/eapidk-code-r76-trunk/apps/EeePProg/linux/../../common/EApiAHStr.c ****   EApiStatus_t StatusCode;
 439:/home/hkh/git/eapidk-code-r76-trunk/apps/EeePProg/linux/../../common/EApiAHStr.c ****   if(pBuffer!=NULL && pBufLen!=NULL && *pBufLen)
 440:/home/hkh/git/eapidk-code-r76-trunk/apps/EeePProg/linux/../../common/EApiAHStr.c ****   {
 441:/home/hkh/git/eapidk-code-r76-trunk/apps/EeePProg/linux/../../common/EApiAHStr.c ****     pBufferPtr=(char *)malloc(*pBufLen*sizeof(char));
 442:/home/hkh/git/eapidk-code-r76-trunk/apps/EeePProg/linux/../../common/EApiAHStr.c ****     EAPI_APP_RETURN_ERROR_IF(
 443:/home/hkh/git/eapidk-code-r76-trunk/apps/EeePProg/linux/../../common/EApiAHStr.c ****       EApiAHBoardGetStringW, 
 444:/home/hkh/git/eapidk-code-r76-trunk/apps/EeePProg/linux/../../common/EApiAHStr.c ****       pBufferPtr==NULL,
 445:/home/hkh/git/eapidk-code-r76-trunk/apps/EeePProg/linux/../../common/EApiAHStr.c ****       EAPI_STATUS_ALLOC_ERROR, 
 446:/home/hkh/git/eapidk-code-r76-trunk/apps/EeePProg/linux/../../common/EApiAHStr.c ****       "Allocating ASCII Buffer"
 447:/home/hkh/git/eapidk-code-r76-trunk/apps/EeePProg/linux/../../common/EApiAHStr.c ****       );
 448:/home/hkh/git/eapidk-code-r76-trunk/apps/EeePProg/linux/../../common/EApiAHStr.c ****   }
 449:/home/hkh/git/eapidk-code-r76-trunk/apps/EeePProg/linux/../../common/EApiAHStr.c **** 
 450:/home/hkh/git/eapidk-code-r76-trunk/apps/EeePProg/linux/../../common/EApiAHStr.c ****   StatusCode=EApiBoardGetStringA(Id, pBufferPtr, pBufLen);
 451:/home/hkh/git/eapidk-code-r76-trunk/apps/EeePProg/linux/../../common/EApiAHStr.c **** 
 452:/home/hkh/git/eapidk-code-r76-trunk/apps/EeePProg/linux/../../common/EApiAHStr.c ****   if(pBufferPtr!=NULL)
 453:/home/hkh/git/eapidk-code-r76-trunk/apps/EeePProg/linux/../../common/EApiAHStr.c ****   {
 454:/home/hkh/git/eapidk-code-r76-trunk/apps/EeePProg/linux/../../common/EApiAHStr.c ****     mbstowcs(pBuffer, pBufferPtr, *pBufLen);
 455:/home/hkh/git/eapidk-code-r76-trunk/apps/EeePProg/linux/../../common/EApiAHStr.c ****     free(pBufferPtr);
 456:/home/hkh/git/eapidk-code-r76-trunk/apps/EeePProg/linux/../../common/EApiAHStr.c ****   }
 457:/home/hkh/git/eapidk-code-r76-trunk/apps/EeePProg/linux/../../common/EApiAHStr.c **** 
 458:/home/hkh/git/eapidk-code-r76-trunk/apps/EeePProg/linux/../../common/EApiAHStr.c **** 
 459:/home/hkh/git/eapidk-code-r76-trunk/apps/EeePProg/linux/../../common/EApiAHStr.c **** EAPI_APP_ASSERT_EXIT
 460:/home/hkh/git/eapidk-code-r76-trunk/apps/EeePProg/linux/../../common/EApiAHStr.c **** /* SuccessExit: */
 461:/home/hkh/git/eapidk-code-r76-trunk/apps/EeePProg/linux/../../common/EApiAHStr.c ****     return StatusCode;
 462:/home/hkh/git/eapidk-code-r76-trunk/apps/EeePProg/linux/../../common/EApiAHStr.c **** }
 463:/home/hkh/git/eapidk-code-r76-trunk/apps/EeePProg/linux/../../common/EApiAHStr.c **** #endif
 464:/home/hkh/git/eapidk-code-r76-trunk/apps/EeePProg/linux/../../common/EApiAHStr.c **** /****************************************************************************
 465:/home/hkh/git/eapidk-code-r76-trunk/apps/EeePProg/linux/../../common/EApiAHStr.c ****  * Standard C String Wrappers
 466:/home/hkh/git/eapidk-code-r76-trunk/apps/EeePProg/linux/../../common/EApiAHStr.c ****  *  Basically to improve Security, Ensures that No pBuffer overruns happen
 467:/home/hkh/git/eapidk-code-r76-trunk/apps/EeePProg/linux/../../common/EApiAHStr.c ****  *  
 468:/home/hkh/git/eapidk-code-r76-trunk/apps/EeePProg/linux/../../common/EApiAHStr.c ****  *  EApiStrLen  is equivalent to strnlen  , wcsnlen (Not present in older libraries)
 469:/home/hkh/git/eapidk-code-r76-trunk/apps/EeePProg/linux/../../common/EApiAHStr.c ****  *  EApiStrCpy  is equivalent to strcpy_s , Terminates String if pBuffer too short
 470:/home/hkh/git/eapidk-code-r76-trunk/apps/EeePProg/linux/../../common/EApiAHStr.c ****  *  EApiSprintf is equivalent to sprintf_s, Terminates String if pBuffer too short
ARM GAS  /tmp/ccQkFBoM.s 			page 14


 471:/home/hkh/git/eapidk-code-r76-trunk/apps/EeePProg/linux/../../common/EApiAHStr.c ****  *
 472:/home/hkh/git/eapidk-code-r76-trunk/apps/EeePProg/linux/../../common/EApiAHStr.c ****  ****************************************************************************/
 473:/home/hkh/git/eapidk-code-r76-trunk/apps/EeePProg/linux/../../common/EApiAHStr.c **** size_t 
 474:/home/hkh/git/eapidk-code-r76-trunk/apps/EeePProg/linux/../../common/EApiAHStr.c **** EApiStrLenA  ( 
 475:/home/hkh/git/eapidk-code-r76-trunk/apps/EeePProg/linux/../../common/EApiAHStr.c ****     __IN const char  *pBuffer    ,
 476:/home/hkh/git/eapidk-code-r76-trunk/apps/EeePProg/linux/../../common/EApiAHStr.c ****     __IN size_t       BufferLen
 477:/home/hkh/git/eapidk-code-r76-trunk/apps/EeePProg/linux/../../common/EApiAHStr.c ****     )
 478:/home/hkh/git/eapidk-code-r76-trunk/apps/EeePProg/linux/../../common/EApiAHStr.c **** {
 225              		.loc 1 478 1 is_stmt 1 view -0
 226              		.cfi_startproc
 227              		@ args = 0, pretend = 0, frame = 0
 228              		@ frame_needed = 0, uses_anonymous_args = 0
 229              		@ link register save eliminated.
 479:/home/hkh/git/eapidk-code-r76-trunk/apps/EeePProg/linux/../../common/EApiAHStr.c ****   const char *pszCurChar;
 230              		.loc 1 479 3 view .LVU56
 480:/home/hkh/git/eapidk-code-r76-trunk/apps/EeePProg/linux/../../common/EApiAHStr.c ****   if(pBuffer   ==NULL) return 0;
 231              		.loc 1 480 3 view .LVU57
 481:/home/hkh/git/eapidk-code-r76-trunk/apps/EeePProg/linux/../../common/EApiAHStr.c ****   if(BufferLen==0   ) return 0;
 232              		.loc 1 481 3 view .LVU58
 233              		.loc 1 481 5 is_stmt 0 view .LVU59
 234 00fc 000050E3 		cmp	r0, #0
 235 0100 00005113 		cmpne	r1, #0
 236 0104 0C00000A 		beq	.L18
 237              	.LVL20:
 482:/home/hkh/git/eapidk-code-r76-trunk/apps/EeePProg/linux/../../common/EApiAHStr.c **** 
 483:/home/hkh/git/eapidk-code-r76-trunk/apps/EeePProg/linux/../../common/EApiAHStr.c ****   for(pszCurChar=pBuffer; BufferLen--; pszCurChar++)
 238              		.loc 1 483 27 is_stmt 1 view .LVU60
 481:/home/hkh/git/eapidk-code-r76-trunk/apps/EeePProg/linux/../../common/EApiAHStr.c ****   if(BufferLen==0   ) return 0;
 239              		.loc 1 481 5 is_stmt 0 view .LVU61
 240 0108 0030A0E1 		mov	r3, r0
 241              		.loc 1 483 27 view .LVU62
 242 010c 011080E0 		add	r1, r0, r1
 243              	.LVL21:
 244              		.loc 1 483 27 view .LVU63
 245 0110 020000EA 		b	.L17
 246              	.LVL22:
 247              	.L23:
 248              		.loc 1 483 27 discriminator 2 view .LVU64
 249 0114 010053E1 		cmp	r3, r1
 250              		.loc 1 483 50 discriminator 2 view .LVU65
 251 0118 0320A0E1 		mov	r2, r3
 252              	.LVL23:
 253              		.loc 1 483 27 is_stmt 1 discriminator 2 view .LVU66
 254              		.loc 1 483 27 is_stmt 0 discriminator 2 view .LVU67
 255 011c 0400000A 		beq	.L16
 256              	.LVL24:
 257              	.L17:
 258              		.loc 1 483 50 is_stmt 1 view .LVU68
 259 0120 0320A0E1 		mov	r2, r3
 260              	.LVL25:
 484:/home/hkh/git/eapidk-code-r76-trunk/apps/EeePProg/linux/../../common/EApiAHStr.c ****     if(*pszCurChar=='\0')
 261              		.loc 1 484 5 view .LVU69
 262 0124 013083E2 		add	r3, r3, #1
 263              		.loc 1 484 7 is_stmt 0 view .LVU70
 264 0128 00C0D2E5 		ldrb	ip, [r2]	@ zero_extendqisi2
 265 012c 00005CE3 		cmp	ip, #0
 266 0130 F7FFFF1A 		bne	.L23
ARM GAS  /tmp/ccQkFBoM.s 			page 15


 267              	.L16:
 485:/home/hkh/git/eapidk-code-r76-trunk/apps/EeePProg/linux/../../common/EApiAHStr.c ****       break;
 486:/home/hkh/git/eapidk-code-r76-trunk/apps/EeePProg/linux/../../common/EApiAHStr.c ****   return pszCurChar - pBuffer;
 268              		.loc 1 486 3 is_stmt 1 view .LVU71
 269              		.loc 1 486 21 is_stmt 0 view .LVU72
 270 0134 000042E0 		sub	r0, r2, r0
 271              	.LVL26:
 272              		.loc 1 486 21 view .LVU73
 273 0138 1EFF2FE1 		bx	lr
 274              	.LVL27:
 275              	.L18:
 481:/home/hkh/git/eapidk-code-r76-trunk/apps/EeePProg/linux/../../common/EApiAHStr.c **** 
 276              		.loc 1 481 30 view .LVU74
 277 013c 0000A0E3 		mov	r0, #0
 278              	.LVL28:
 487:/home/hkh/git/eapidk-code-r76-trunk/apps/EeePProg/linux/../../common/EApiAHStr.c **** }
 279              		.loc 1 487 1 view .LVU75
 280 0140 1EFF2FE1 		bx	lr
 281              		.cfi_endproc
 282              	.LFE14:
 284              		.align	2
 285              		.global	EApiStrCpyA
 286              		.syntax unified
 287              		.arm
 288              		.fpu vfpv3
 290              	EApiStrCpyA:
 291              	.LVL29:
 292              	.LFB15:
 488:/home/hkh/git/eapidk-code-r76-trunk/apps/EeePProg/linux/../../common/EApiAHStr.c **** char * 
 489:/home/hkh/git/eapidk-code-r76-trunk/apps/EeePProg/linux/../../common/EApiAHStr.c **** EApiStrCpyA(
 490:/home/hkh/git/eapidk-code-r76-trunk/apps/EeePProg/linux/../../common/EApiAHStr.c ****     __OUT char *const      StringDest   ,
 491:/home/hkh/git/eapidk-code-r76-trunk/apps/EeePProg/linux/../../common/EApiAHStr.c ****     __IN size_t             StrBufLen    , 
 492:/home/hkh/git/eapidk-code-r76-trunk/apps/EeePProg/linux/../../common/EApiAHStr.c ****     __IN const char *const StringSource
 493:/home/hkh/git/eapidk-code-r76-trunk/apps/EeePProg/linux/../../common/EApiAHStr.c ****     )
 494:/home/hkh/git/eapidk-code-r76-trunk/apps/EeePProg/linux/../../common/EApiAHStr.c **** {
 293              		.loc 1 494 1 is_stmt 1 view -0
 294              		.cfi_startproc
 295              		@ args = 0, pretend = 0, frame = 0
 296              		@ frame_needed = 0, uses_anonymous_args = 0
 495:/home/hkh/git/eapidk-code-r76-trunk/apps/EeePProg/linux/../../common/EApiAHStr.c ****   if(StringDest  ==NULL) return StringDest;
 297              		.loc 1 495 3 view .LVU77
 496:/home/hkh/git/eapidk-code-r76-trunk/apps/EeePProg/linux/../../common/EApiAHStr.c ****   if(StringSource==NULL) return StringDest;
 298              		.loc 1 496 3 view .LVU78
 497:/home/hkh/git/eapidk-code-r76-trunk/apps/EeePProg/linux/../../common/EApiAHStr.c ****   if(StrBufLen==0   ) return StringDest;
 299              		.loc 1 497 3 view .LVU79
 300              		.loc 1 497 5 is_stmt 0 view .LVU80
 301 0144 000052E3 		cmp	r2, #0
 302 0148 00005113 		cmpne	r1, #0
 494:/home/hkh/git/eapidk-code-r76-trunk/apps/EeePProg/linux/../../common/EApiAHStr.c ****   if(StringDest  ==NULL) return StringDest;
 303              		.loc 1 494 1 view .LVU81
 304 014c 70402DE9 		push	{r4, r5, r6, lr}
 305              		.cfi_def_cfa_offset 16
 306              		.cfi_offset 4, -16
 307              		.cfi_offset 5, -12
 308              		.cfi_offset 6, -8
 309              		.cfi_offset 14, -4
 310              		.loc 1 497 5 view .LVU82
ARM GAS  /tmp/ccQkFBoM.s 			page 16


 311 0150 0160A003 		moveq	r6, #1
 312 0154 0060A013 		movne	r6, #0
 313 0158 000050E3 		cmp	r0, #0
 314 015c 01608603 		orreq	r6, r6, #1
 494:/home/hkh/git/eapidk-code-r76-trunk/apps/EeePProg/linux/../../common/EApiAHStr.c ****   if(StringDest  ==NULL) return StringDest;
 315              		.loc 1 494 1 view .LVU83
 316 0160 0040A0E1 		mov	r4, r0
 317              		.loc 1 497 5 view .LVU84
 318 0164 000056E3 		cmp	r6, #0
 319 0168 0100000A 		beq	.L27
 498:/home/hkh/git/eapidk-code-r76-trunk/apps/EeePProg/linux/../../common/EApiAHStr.c **** 
 499:/home/hkh/git/eapidk-code-r76-trunk/apps/EeePProg/linux/../../common/EApiAHStr.c ****   EAPI_strncpyA(StringDest, StringSource, StrBufLen);
 500:/home/hkh/git/eapidk-code-r76-trunk/apps/EeePProg/linux/../../common/EApiAHStr.c ****   StringDest[StrBufLen-1]=TEXT('\0');
 501:/home/hkh/git/eapidk-code-r76-trunk/apps/EeePProg/linux/../../common/EApiAHStr.c ****   return StringDest;
 502:/home/hkh/git/eapidk-code-r76-trunk/apps/EeePProg/linux/../../common/EApiAHStr.c **** }
 320              		.loc 1 502 1 view .LVU85
 321 016c 0400A0E1 		mov	r0, r4
 322              		.loc 1 502 1 view .LVU86
 323 0170 7080BDE8 		pop	{r4, r5, r6, pc}
 324              	.L27:
 325 0174 0150A0E1 		mov	r5, r1
 499:/home/hkh/git/eapidk-code-r76-trunk/apps/EeePProg/linux/../../common/EApiAHStr.c ****   StringDest[StrBufLen-1]=TEXT('\0');
 326              		.loc 1 499 3 is_stmt 1 view .LVU87
 327 0178 0210A0E1 		mov	r1, r2
 328              	.LVL30:
 499:/home/hkh/git/eapidk-code-r76-trunk/apps/EeePProg/linux/../../common/EApiAHStr.c ****   StringDest[StrBufLen-1]=TEXT('\0');
 329              		.loc 1 499 3 is_stmt 0 view .LVU88
 330 017c 0520A0E1 		mov	r2, r5
 331              	.LVL31:
 500:/home/hkh/git/eapidk-code-r76-trunk/apps/EeePProg/linux/../../common/EApiAHStr.c ****   return StringDest;
 332              		.loc 1 500 26 view .LVU89
 333 0180 055084E0 		add	r5, r4, r5
 334              	.LVL32:
 499:/home/hkh/git/eapidk-code-r76-trunk/apps/EeePProg/linux/../../common/EApiAHStr.c ****   StringDest[StrBufLen-1]=TEXT('\0');
 335              		.loc 1 499 3 view .LVU90
 336 0184 FEFFFFEB 		bl	strncpy(PLT)
 337              	.LVL33:
 500:/home/hkh/git/eapidk-code-r76-trunk/apps/EeePProg/linux/../../common/EApiAHStr.c ****   return StringDest;
 338              		.loc 1 500 3 is_stmt 1 view .LVU91
 339              		.loc 1 502 1 is_stmt 0 view .LVU92
 340 0188 0400A0E1 		mov	r0, r4
 500:/home/hkh/git/eapidk-code-r76-trunk/apps/EeePProg/linux/../../common/EApiAHStr.c ****   return StringDest;
 341              		.loc 1 500 26 view .LVU93
 342 018c 016045E5 		strb	r6, [r5, #-1]
 501:/home/hkh/git/eapidk-code-r76-trunk/apps/EeePProg/linux/../../common/EApiAHStr.c **** }
 343              		.loc 1 501 3 is_stmt 1 view .LVU94
 344              		.loc 1 502 1 is_stmt 0 view .LVU95
 345 0190 7080BDE8 		pop	{r4, r5, r6, pc}
 346              		.cfi_endproc
 347              	.LFE15:
 349              		.align	2
 350              		.global	EApiSprintfA
 351              		.syntax unified
 352              		.arm
 353              		.fpu vfpv3
 355              	EApiSprintfA:
 356              	.LVL34:
ARM GAS  /tmp/ccQkFBoM.s 			page 17


 357              	.LFB16:
 503:/home/hkh/git/eapidk-code-r76-trunk/apps/EeePProg/linux/../../common/EApiAHStr.c **** int 
 504:/home/hkh/git/eapidk-code-r76-trunk/apps/EeePProg/linux/../../common/EApiAHStr.c **** __cdecl 
 505:/home/hkh/git/eapidk-code-r76-trunk/apps/EeePProg/linux/../../common/EApiAHStr.c **** EApiSprintfA ( 
 506:/home/hkh/git/eapidk-code-r76-trunk/apps/EeePProg/linux/../../common/EApiAHStr.c ****     __IN char *const       pBuffer   ,
 507:/home/hkh/git/eapidk-code-r76-trunk/apps/EeePProg/linux/../../common/EApiAHStr.c ****     __IN const size_t       BufferLen ,
 508:/home/hkh/git/eapidk-code-r76-trunk/apps/EeePProg/linux/../../common/EApiAHStr.c ****     __IN const char *const fmt       ,
 509:/home/hkh/git/eapidk-code-r76-trunk/apps/EeePProg/linux/../../common/EApiAHStr.c ****     ...
 510:/home/hkh/git/eapidk-code-r76-trunk/apps/EeePProg/linux/../../common/EApiAHStr.c ****     )
 511:/home/hkh/git/eapidk-code-r76-trunk/apps/EeePProg/linux/../../common/EApiAHStr.c **** {
 358              		.loc 1 511 1 is_stmt 1 view -0
 359              		.cfi_startproc
 360              		@ args = 4, pretend = 8, frame = 8
 361              		@ frame_needed = 0, uses_anonymous_args = 1
 362              		.loc 1 511 1 is_stmt 0 view .LVU97
 363 0194 0C002DE9 		push	{r2, r3}
 364              		.cfi_def_cfa_offset 8
 365              		.cfi_offset 2, -8
 366              		.cfi_offset 3, -4
 367 0198 70402DE9 		push	{r4, r5, r6, lr}
 368              		.cfi_def_cfa_offset 24
 369              		.cfi_offset 4, -24
 370              		.cfi_offset 5, -20
 371              		.cfi_offset 6, -16
 372              		.cfi_offset 14, -12
 373 019c 08D04DE2 		sub	sp, sp, #8
 374              		.cfi_def_cfa_offset 32
 375              		.loc 1 511 1 view .LVU98
 376 01a0 18209DE5 		ldr	r2, [sp, #24]
 377 01a4 90E09FE5 		ldr	lr, .L34
 378 01a8 90C09FE5 		ldr	ip, .L34+4
 512:/home/hkh/git/eapidk-code-r76-trunk/apps/EeePProg/linux/../../common/EApiAHStr.c ****   int ReturnValue;
 513:/home/hkh/git/eapidk-code-r76-trunk/apps/EeePProg/linux/../../common/EApiAHStr.c ****   va_list arg;
 514:/home/hkh/git/eapidk-code-r76-trunk/apps/EeePProg/linux/../../common/EApiAHStr.c ****   if(pBuffer  ==NULL) return -1;
 515:/home/hkh/git/eapidk-code-r76-trunk/apps/EeePProg/linux/../../common/EApiAHStr.c ****   if(fmt      ==NULL) return -1;
 516:/home/hkh/git/eapidk-code-r76-trunk/apps/EeePProg/linux/../../common/EApiAHStr.c ****   if(BufferLen==0   ) return -1;
 379              		.loc 1 516 5 view .LVU99
 380 01ac 000051E3 		cmp	r1, #0
 381 01b0 00005213 		cmpne	r2, #0
 511:/home/hkh/git/eapidk-code-r76-trunk/apps/EeePProg/linux/../../common/EApiAHStr.c ****   int ReturnValue;
 382              		.loc 1 511 1 view .LVU100
 383              	.LPIC12:
 384 01b4 0EE08FE0 		add	lr, pc, lr
 385              		.loc 1 516 5 view .LVU101
 386 01b8 0150A003 		moveq	r5, #1
 387 01bc 0050A013 		movne	r5, #0
 511:/home/hkh/git/eapidk-code-r76-trunk/apps/EeePProg/linux/../../common/EApiAHStr.c ****   int ReturnValue;
 388              		.loc 1 511 1 view .LVU102
 389 01c0 0CC09EE7 		ldr	ip, [lr, ip]
 390              		.loc 1 516 5 view .LVU103
 391 01c4 000050E3 		cmp	r0, #0
 392 01c8 01508503 		orreq	r5, r5, #1
 393 01cc 000055E3 		cmp	r5, #0
 511:/home/hkh/git/eapidk-code-r76-trunk/apps/EeePProg/linux/../../common/EApiAHStr.c ****   int ReturnValue;
 394              		.loc 1 511 1 view .LVU104
 395 01d0 00C09CE5 		ldr	ip, [ip]
 396 01d4 04C08DE5 		str	ip, [sp, #4]
ARM GAS  /tmp/ccQkFBoM.s 			page 18


 397 01d8 00C0A0E3 		mov	ip, #0
 512:/home/hkh/git/eapidk-code-r76-trunk/apps/EeePProg/linux/../../common/EApiAHStr.c ****   int ReturnValue;
 398              		.loc 1 512 3 is_stmt 1 view .LVU105
 513:/home/hkh/git/eapidk-code-r76-trunk/apps/EeePProg/linux/../../common/EApiAHStr.c ****   if(pBuffer  ==NULL) return -1;
 399              		.loc 1 513 3 view .LVU106
 514:/home/hkh/git/eapidk-code-r76-trunk/apps/EeePProg/linux/../../common/EApiAHStr.c ****   if(fmt      ==NULL) return -1;
 400              		.loc 1 514 3 view .LVU107
 515:/home/hkh/git/eapidk-code-r76-trunk/apps/EeePProg/linux/../../common/EApiAHStr.c ****   if(BufferLen==0   ) return -1;
 401              		.loc 1 515 3 view .LVU108
 402              		.loc 1 516 3 view .LVU109
 403              		.loc 1 516 5 is_stmt 0 view .LVU110
 404 01dc 1300001A 		bne	.L31
 517:/home/hkh/git/eapidk-code-r76-trunk/apps/EeePProg/linux/../../common/EApiAHStr.c **** 
 518:/home/hkh/git/eapidk-code-r76-trunk/apps/EeePProg/linux/../../common/EApiAHStr.c ****   va_start(arg, fmt);
 405              		.loc 1 518 3 view .LVU111
 406 01e0 1C308DE2 		add	r3, sp, #28
 407 01e4 0040A0E1 		mov	r4, r0
 408 01e8 0160A0E1 		mov	r6, r1
 409              		.loc 1 518 3 is_stmt 1 view .LVU112
 410 01ec 00308DE5 		str	r3, [sp]
 519:/home/hkh/git/eapidk-code-r76-trunk/apps/EeePProg/linux/../../common/EApiAHStr.c ****   ReturnValue=EAPI_vsnprintfA(pBuffer, BufferLen, fmt, arg);
 411              		.loc 1 519 3 view .LVU113
 412              		.loc 1 519 15 is_stmt 0 view .LVU114
 413 01f0 FEFFFFEB 		bl	vsnprintf(PLT)
 414              	.LVL35:
 520:/home/hkh/git/eapidk-code-r76-trunk/apps/EeePProg/linux/../../common/EApiAHStr.c ****   pBuffer[BufferLen-1]='\0';
 415              		.loc 1 520 23 view .LVU115
 416 01f4 063084E0 		add	r3, r4, r6
 417              	.LVL36:
 418              		.loc 1 520 3 is_stmt 1 view .LVU116
 419              		.loc 1 520 23 is_stmt 0 view .LVU117
 420 01f8 015043E5 		strb	r5, [r3, #-1]
 521:/home/hkh/git/eapidk-code-r76-trunk/apps/EeePProg/linux/../../common/EApiAHStr.c ****   va_end(arg);
 421              		.loc 1 521 3 is_stmt 1 view .LVU118
 522:/home/hkh/git/eapidk-code-r76-trunk/apps/EeePProg/linux/../../common/EApiAHStr.c ****   return ReturnValue;
 422              		.loc 1 522 3 view .LVU119
 423              	.LVL37:
 424              	.L28:
 511:/home/hkh/git/eapidk-code-r76-trunk/apps/EeePProg/linux/../../common/EApiAHStr.c ****   int ReturnValue;
 425              		.loc 1 511 1 is_stmt 0 view .LVU120
 426 01fc 40209FE5 		ldr	r2, .L34+8
 523:/home/hkh/git/eapidk-code-r76-trunk/apps/EeePProg/linux/../../common/EApiAHStr.c **** }
 427              		.loc 1 523 1 view .LVU121
 428 0200 38309FE5 		ldr	r3, .L34+4
 511:/home/hkh/git/eapidk-code-r76-trunk/apps/EeePProg/linux/../../common/EApiAHStr.c ****   int ReturnValue;
 429              		.loc 1 511 1 view .LVU122
 430              	.LPIC11:
 431 0204 02208FE0 		add	r2, pc, r2
 432              		.loc 1 523 1 view .LVU123
 433 0208 033092E7 		ldr	r3, [r2, r3]
 434 020c 002093E5 		ldr	r2, [r3]
 435 0210 04309DE5 		ldr	r3, [sp, #4]
 436 0214 022033E0 		eors	r2, r3, r2
 437 0218 0030A0E3 		mov	r3, #0
 438 021c 0500001A 		bne	.L33
 439 0220 08D08DE2 		add	sp, sp, #8
 440              		.cfi_remember_state
ARM GAS  /tmp/ccQkFBoM.s 			page 19


 441              		.cfi_def_cfa_offset 24
 442              		@ sp needed
 443 0224 7040BDE8 		pop	{r4, r5, r6, lr}
 444              		.cfi_restore 14
 445              		.cfi_restore 6
 446              		.cfi_restore 5
 447              		.cfi_restore 4
 448              		.cfi_def_cfa_offset 8
 449 0228 08D08DE2 		add	sp, sp, #8
 450              		.cfi_restore 3
 451              		.cfi_restore 2
 452              		.cfi_def_cfa_offset 0
 453 022c 1EFF2FE1 		bx	lr
 454              	.LVL38:
 455              	.L31:
 456              		.cfi_restore_state
 516:/home/hkh/git/eapidk-code-r76-trunk/apps/EeePProg/linux/../../common/EApiAHStr.c **** 
 457              		.loc 1 516 30 view .LVU124
 458 0230 0000E0E3 		mvn	r0, #0
 459              	.LVL39:
 516:/home/hkh/git/eapidk-code-r76-trunk/apps/EeePProg/linux/../../common/EApiAHStr.c **** 
 460              		.loc 1 516 30 view .LVU125
 461 0234 F0FFFFEA 		b	.L28
 462              	.LVL40:
 463              	.L33:
 464              		.loc 1 523 1 view .LVU126
 465 0238 FEFFFFEB 		bl	__stack_chk_fail(PLT)
 466              	.LVL41:
 467              	.L35:
 468              		.align	2
 469              	.L34:
 470 023c 80000000 		.word	_GLOBAL_OFFSET_TABLE_-(.LPIC12+8)
 471 0240 00000000 		.word	__stack_chk_guard(GOT)
 472 0244 38000000 		.word	_GLOBAL_OFFSET_TABLE_-(.LPIC11+8)
 473              		.cfi_endproc
 474              	.LFE16:
 476              		.align	2
 477              		.global	EApiStrLen
 478              		.syntax unified
 479              		.arm
 480              		.fpu vfpv3
 482              	EApiStrLen:
 483              	.LVL42:
 484              	.LFB17:
 524:/home/hkh/git/eapidk-code-r76-trunk/apps/EeePProg/linux/../../common/EApiAHStr.c **** size_t 
 525:/home/hkh/git/eapidk-code-r76-trunk/apps/EeePProg/linux/../../common/EApiAHStr.c **** EApiStrLen  ( 
 526:/home/hkh/git/eapidk-code-r76-trunk/apps/EeePProg/linux/../../common/EApiAHStr.c ****     __IN const TCHAR *pBuffer    ,
 527:/home/hkh/git/eapidk-code-r76-trunk/apps/EeePProg/linux/../../common/EApiAHStr.c ****     __IN size_t       BufferLen
 528:/home/hkh/git/eapidk-code-r76-trunk/apps/EeePProg/linux/../../common/EApiAHStr.c ****     )
 529:/home/hkh/git/eapidk-code-r76-trunk/apps/EeePProg/linux/../../common/EApiAHStr.c **** {
 485              		.loc 1 529 1 is_stmt 1 view -0
 486              		.cfi_startproc
 487              		@ args = 0, pretend = 0, frame = 0
 488              		@ frame_needed = 0, uses_anonymous_args = 0
 489              		@ link register save eliminated.
 530:/home/hkh/git/eapidk-code-r76-trunk/apps/EeePProg/linux/../../common/EApiAHStr.c ****   const TCHAR *pszCurChar;
 490              		.loc 1 530 3 view .LVU128
ARM GAS  /tmp/ccQkFBoM.s 			page 20


 531:/home/hkh/git/eapidk-code-r76-trunk/apps/EeePProg/linux/../../common/EApiAHStr.c ****   if(pBuffer   ==NULL) return 0;
 491              		.loc 1 531 3 view .LVU129
 532:/home/hkh/git/eapidk-code-r76-trunk/apps/EeePProg/linux/../../common/EApiAHStr.c ****   if(BufferLen==0   ) return 0;
 492              		.loc 1 532 3 view .LVU130
 493              		.loc 1 532 5 is_stmt 0 view .LVU131
 494 0248 000051E3 		cmp	r1, #0
 495 024c 00005013 		cmpne	r0, #0
 496 0250 0C00000A 		beq	.L40
 497              	.LVL43:
 498              	.LBB16:
 499              	.LBB17:
 533:/home/hkh/git/eapidk-code-r76-trunk/apps/EeePProg/linux/../../common/EApiAHStr.c **** 
 534:/home/hkh/git/eapidk-code-r76-trunk/apps/EeePProg/linux/../../common/EApiAHStr.c ****   for(pszCurChar=pBuffer; BufferLen--; pszCurChar++)
 500              		.loc 1 534 27 is_stmt 1 view .LVU132
 501              		.loc 1 534 27 is_stmt 0 view .LVU133
 502              	.LBE17:
 503              	.LBE16:
 532:/home/hkh/git/eapidk-code-r76-trunk/apps/EeePProg/linux/../../common/EApiAHStr.c ****   if(BufferLen==0   ) return 0;
 504              		.loc 1 532 5 view .LVU134
 505 0254 0030A0E1 		mov	r3, r0
 506              	.LBB19:
 507              	.LBB18:
 508              		.loc 1 534 27 view .LVU135
 509 0258 011080E0 		add	r1, r0, r1
 510              	.LVL44:
 511              		.loc 1 534 27 view .LVU136
 512 025c 020000EA 		b	.L39
 513              	.LVL45:
 514              	.L45:
 515              		.loc 1 534 27 view .LVU137
 516 0260 010053E1 		cmp	r3, r1
 517              		.loc 1 534 50 view .LVU138
 518 0264 0320A0E1 		mov	r2, r3
 519              	.LVL46:
 520              		.loc 1 534 27 is_stmt 1 view .LVU139
 521              		.loc 1 534 27 is_stmt 0 view .LVU140
 522 0268 0400000A 		beq	.L38
 523              	.LVL47:
 524              	.L39:
 525              		.loc 1 534 50 is_stmt 1 view .LVU141
 526 026c 0320A0E1 		mov	r2, r3
 527              	.LVL48:
 535:/home/hkh/git/eapidk-code-r76-trunk/apps/EeePProg/linux/../../common/EApiAHStr.c ****     if(*pszCurChar=='\0')
 528              		.loc 1 535 5 view .LVU142
 529 0270 013083E2 		add	r3, r3, #1
 530              		.loc 1 535 7 is_stmt 0 view .LVU143
 531 0274 00C0D2E5 		ldrb	ip, [r2]	@ zero_extendqisi2
 532 0278 00005CE3 		cmp	ip, #0
 533 027c F7FFFF1A 		bne	.L45
 534              	.L38:
 536:/home/hkh/git/eapidk-code-r76-trunk/apps/EeePProg/linux/../../common/EApiAHStr.c ****       break;
 537:/home/hkh/git/eapidk-code-r76-trunk/apps/EeePProg/linux/../../common/EApiAHStr.c ****   return pszCurChar - pBuffer;
 535              		.loc 1 537 3 is_stmt 1 view .LVU144
 536              		.loc 1 537 21 is_stmt 0 view .LVU145
 537 0280 000042E0 		sub	r0, r2, r0
 538              	.LVL49:
 539              		.loc 1 537 21 view .LVU146
ARM GAS  /tmp/ccQkFBoM.s 			page 21


 540 0284 1EFF2FE1 		bx	lr
 541              	.LVL50:
 542              	.L40:
 543              		.loc 1 537 21 view .LVU147
 544              	.LBE18:
 545              	.LBE19:
 532:/home/hkh/git/eapidk-code-r76-trunk/apps/EeePProg/linux/../../common/EApiAHStr.c **** 
 546              		.loc 1 532 30 view .LVU148
 547 0288 0000A0E3 		mov	r0, #0
 548              	.LVL51:
 538:/home/hkh/git/eapidk-code-r76-trunk/apps/EeePProg/linux/../../common/EApiAHStr.c **** }
 549              		.loc 1 538 1 view .LVU149
 550 028c 1EFF2FE1 		bx	lr
 551              		.cfi_endproc
 552              	.LFE17:
 554              		.align	2
 555              		.global	EApiStrCpy
 556              		.syntax unified
 557              		.arm
 558              		.fpu vfpv3
 560              	EApiStrCpy:
 561              	.LVL52:
 562              	.LFB18:
 539:/home/hkh/git/eapidk-code-r76-trunk/apps/EeePProg/linux/../../common/EApiAHStr.c **** 
 540:/home/hkh/git/eapidk-code-r76-trunk/apps/EeePProg/linux/../../common/EApiAHStr.c **** TCHAR * 
 541:/home/hkh/git/eapidk-code-r76-trunk/apps/EeePProg/linux/../../common/EApiAHStr.c **** EApiStrCpy(
 542:/home/hkh/git/eapidk-code-r76-trunk/apps/EeePProg/linux/../../common/EApiAHStr.c ****     __OUT TCHAR *const      StringDest   ,
 543:/home/hkh/git/eapidk-code-r76-trunk/apps/EeePProg/linux/../../common/EApiAHStr.c ****     __IN size_t             StrBufLen    , 
 544:/home/hkh/git/eapidk-code-r76-trunk/apps/EeePProg/linux/../../common/EApiAHStr.c ****     __IN const TCHAR *const StringSource
 545:/home/hkh/git/eapidk-code-r76-trunk/apps/EeePProg/linux/../../common/EApiAHStr.c ****     )
 546:/home/hkh/git/eapidk-code-r76-trunk/apps/EeePProg/linux/../../common/EApiAHStr.c **** {
 563              		.loc 1 546 1 is_stmt 1 view -0
 564              		.cfi_startproc
 565              		@ args = 0, pretend = 0, frame = 0
 566              		@ frame_needed = 0, uses_anonymous_args = 0
 547:/home/hkh/git/eapidk-code-r76-trunk/apps/EeePProg/linux/../../common/EApiAHStr.c ****   if(StringDest  ==NULL) return StringDest;
 567              		.loc 1 547 3 view .LVU151
 548:/home/hkh/git/eapidk-code-r76-trunk/apps/EeePProg/linux/../../common/EApiAHStr.c ****   if(StringSource==NULL) return StringDest;
 568              		.loc 1 548 3 view .LVU152
 549:/home/hkh/git/eapidk-code-r76-trunk/apps/EeePProg/linux/../../common/EApiAHStr.c ****   if(StrBufLen==0   ) return StringDest;
 569              		.loc 1 549 3 view .LVU153
 570              		.loc 1 549 5 is_stmt 0 view .LVU154
 571 0290 000052E3 		cmp	r2, #0
 572 0294 00005113 		cmpne	r1, #0
 546:/home/hkh/git/eapidk-code-r76-trunk/apps/EeePProg/linux/../../common/EApiAHStr.c ****   if(StringDest  ==NULL) return StringDest;
 573              		.loc 1 546 1 view .LVU155
 574 0298 70402DE9 		push	{r4, r5, r6, lr}
 575              		.cfi_def_cfa_offset 16
 576              		.cfi_offset 4, -16
 577              		.cfi_offset 5, -12
 578              		.cfi_offset 6, -8
 579              		.cfi_offset 14, -4
 580              		.loc 1 549 5 view .LVU156
 581 029c 0160A003 		moveq	r6, #1
 582 02a0 0060A013 		movne	r6, #0
 583 02a4 000050E3 		cmp	r0, #0
 584 02a8 01608603 		orreq	r6, r6, #1
ARM GAS  /tmp/ccQkFBoM.s 			page 22


 546:/home/hkh/git/eapidk-code-r76-trunk/apps/EeePProg/linux/../../common/EApiAHStr.c ****   if(StringDest  ==NULL) return StringDest;
 585              		.loc 1 546 1 view .LVU157
 586 02ac 0040A0E1 		mov	r4, r0
 587              		.loc 1 549 5 view .LVU158
 588 02b0 000056E3 		cmp	r6, #0
 589 02b4 0100000A 		beq	.L49
 550:/home/hkh/git/eapidk-code-r76-trunk/apps/EeePProg/linux/../../common/EApiAHStr.c **** 
 551:/home/hkh/git/eapidk-code-r76-trunk/apps/EeePProg/linux/../../common/EApiAHStr.c ****   EAPI_strncpy(StringDest, StringSource, StrBufLen);
 552:/home/hkh/git/eapidk-code-r76-trunk/apps/EeePProg/linux/../../common/EApiAHStr.c ****   StringDest[StrBufLen-1]=TEXT('\0');
 553:/home/hkh/git/eapidk-code-r76-trunk/apps/EeePProg/linux/../../common/EApiAHStr.c ****   return StringDest;
 554:/home/hkh/git/eapidk-code-r76-trunk/apps/EeePProg/linux/../../common/EApiAHStr.c **** }
 590              		.loc 1 554 1 view .LVU159
 591 02b8 0400A0E1 		mov	r0, r4
 592              		.loc 1 554 1 view .LVU160
 593 02bc 7080BDE8 		pop	{r4, r5, r6, pc}
 594              	.L49:
 595 02c0 0150A0E1 		mov	r5, r1
 596              	.LVL53:
 597              	.LBB22:
 598              	.LBI22:
 541:/home/hkh/git/eapidk-code-r76-trunk/apps/EeePProg/linux/../../common/EApiAHStr.c ****     __OUT TCHAR *const      StringDest   ,
 599              		.loc 1 541 1 is_stmt 1 view .LVU161
 600              	.LBB23:
 551:/home/hkh/git/eapidk-code-r76-trunk/apps/EeePProg/linux/../../common/EApiAHStr.c ****   StringDest[StrBufLen-1]=TEXT('\0');
 601              		.loc 1 551 3 view .LVU162
 602 02c4 0210A0E1 		mov	r1, r2
 603              	.LVL54:
 551:/home/hkh/git/eapidk-code-r76-trunk/apps/EeePProg/linux/../../common/EApiAHStr.c ****   StringDest[StrBufLen-1]=TEXT('\0');
 604              		.loc 1 551 3 is_stmt 0 view .LVU163
 605 02c8 0520A0E1 		mov	r2, r5
 606              	.LVL55:
 552:/home/hkh/git/eapidk-code-r76-trunk/apps/EeePProg/linux/../../common/EApiAHStr.c ****   return StringDest;
 607              		.loc 1 552 26 view .LVU164
 608 02cc 055084E0 		add	r5, r4, r5
 609              	.LVL56:
 551:/home/hkh/git/eapidk-code-r76-trunk/apps/EeePProg/linux/../../common/EApiAHStr.c ****   StringDest[StrBufLen-1]=TEXT('\0');
 610              		.loc 1 551 3 view .LVU165
 611 02d0 FEFFFFEB 		bl	strncpy(PLT)
 612              	.LVL57:
 552:/home/hkh/git/eapidk-code-r76-trunk/apps/EeePProg/linux/../../common/EApiAHStr.c ****   return StringDest;
 613              		.loc 1 552 3 is_stmt 1 view .LVU166
 614              	.LBE23:
 615              	.LBE22:
 616              		.loc 1 554 1 is_stmt 0 view .LVU167
 617 02d4 0400A0E1 		mov	r0, r4
 618              	.LBB25:
 619              	.LBB24:
 552:/home/hkh/git/eapidk-code-r76-trunk/apps/EeePProg/linux/../../common/EApiAHStr.c ****   return StringDest;
 620              		.loc 1 552 26 view .LVU168
 621 02d8 016045E5 		strb	r6, [r5, #-1]
 553:/home/hkh/git/eapidk-code-r76-trunk/apps/EeePProg/linux/../../common/EApiAHStr.c **** }
 622              		.loc 1 553 3 is_stmt 1 view .LVU169
 623              	.LVL58:
 553:/home/hkh/git/eapidk-code-r76-trunk/apps/EeePProg/linux/../../common/EApiAHStr.c **** }
 624              		.loc 1 553 3 is_stmt 0 view .LVU170
 625              	.LBE24:
 626              	.LBE25:
ARM GAS  /tmp/ccQkFBoM.s 			page 23


 627              		.loc 1 554 1 view .LVU171
 628 02dc 7080BDE8 		pop	{r4, r5, r6, pc}
 629              		.cfi_endproc
 630              	.LFE18:
 632              		.align	2
 633              		.global	EApiSprintf
 634              		.syntax unified
 635              		.arm
 636              		.fpu vfpv3
 638              	EApiSprintf:
 639              	.LVL59:
 640              	.LFB19:
 555:/home/hkh/git/eapidk-code-r76-trunk/apps/EeePProg/linux/../../common/EApiAHStr.c **** int 
 556:/home/hkh/git/eapidk-code-r76-trunk/apps/EeePProg/linux/../../common/EApiAHStr.c **** __cdecl 
 557:/home/hkh/git/eapidk-code-r76-trunk/apps/EeePProg/linux/../../common/EApiAHStr.c **** EApiSprintf ( 
 558:/home/hkh/git/eapidk-code-r76-trunk/apps/EeePProg/linux/../../common/EApiAHStr.c ****     __IN TCHAR *const       pBuffer   ,
 559:/home/hkh/git/eapidk-code-r76-trunk/apps/EeePProg/linux/../../common/EApiAHStr.c ****     __IN const size_t       BufferLen ,
 560:/home/hkh/git/eapidk-code-r76-trunk/apps/EeePProg/linux/../../common/EApiAHStr.c ****     __IN const TCHAR *const fmt       ,
 561:/home/hkh/git/eapidk-code-r76-trunk/apps/EeePProg/linux/../../common/EApiAHStr.c ****     ...
 562:/home/hkh/git/eapidk-code-r76-trunk/apps/EeePProg/linux/../../common/EApiAHStr.c ****     )
 563:/home/hkh/git/eapidk-code-r76-trunk/apps/EeePProg/linux/../../common/EApiAHStr.c **** {
 641              		.loc 1 563 1 is_stmt 1 view -0
 642              		.cfi_startproc
 643              		@ args = 4, pretend = 8, frame = 8
 644              		@ frame_needed = 0, uses_anonymous_args = 1
 645              		.loc 1 563 1 is_stmt 0 view .LVU173
 646 02e0 0C002DE9 		push	{r2, r3}
 647              		.cfi_def_cfa_offset 8
 648              		.cfi_offset 2, -8
 649              		.cfi_offset 3, -4
 650 02e4 70402DE9 		push	{r4, r5, r6, lr}
 651              		.cfi_def_cfa_offset 24
 652              		.cfi_offset 4, -24
 653              		.cfi_offset 5, -20
 654              		.cfi_offset 6, -16
 655              		.cfi_offset 14, -12
 656 02e8 08D04DE2 		sub	sp, sp, #8
 657              		.cfi_def_cfa_offset 32
 658              		.loc 1 563 1 view .LVU174
 659 02ec 18209DE5 		ldr	r2, [sp, #24]
 660 02f0 90E09FE5 		ldr	lr, .L56
 661 02f4 90C09FE5 		ldr	ip, .L56+4
 564:/home/hkh/git/eapidk-code-r76-trunk/apps/EeePProg/linux/../../common/EApiAHStr.c ****   int ReturnValue;
 565:/home/hkh/git/eapidk-code-r76-trunk/apps/EeePProg/linux/../../common/EApiAHStr.c ****   va_list arg;
 566:/home/hkh/git/eapidk-code-r76-trunk/apps/EeePProg/linux/../../common/EApiAHStr.c ****   if(pBuffer  ==NULL) return -1;
 567:/home/hkh/git/eapidk-code-r76-trunk/apps/EeePProg/linux/../../common/EApiAHStr.c ****   if(fmt      ==NULL) return -1;
 568:/home/hkh/git/eapidk-code-r76-trunk/apps/EeePProg/linux/../../common/EApiAHStr.c ****   if(BufferLen==0   ) return -1;
 662              		.loc 1 568 5 view .LVU175
 663 02f8 000051E3 		cmp	r1, #0
 664 02fc 00005213 		cmpne	r2, #0
 563:/home/hkh/git/eapidk-code-r76-trunk/apps/EeePProg/linux/../../common/EApiAHStr.c ****   int ReturnValue;
 665              		.loc 1 563 1 view .LVU176
 666              	.LPIC14:
 667 0300 0EE08FE0 		add	lr, pc, lr
 668              		.loc 1 568 5 view .LVU177
 669 0304 0150A003 		moveq	r5, #1
 670 0308 0050A013 		movne	r5, #0
ARM GAS  /tmp/ccQkFBoM.s 			page 24


 563:/home/hkh/git/eapidk-code-r76-trunk/apps/EeePProg/linux/../../common/EApiAHStr.c ****   int ReturnValue;
 671              		.loc 1 563 1 view .LVU178
 672 030c 0CC09EE7 		ldr	ip, [lr, ip]
 673              		.loc 1 568 5 view .LVU179
 674 0310 000050E3 		cmp	r0, #0
 675 0314 01508503 		orreq	r5, r5, #1
 676 0318 000055E3 		cmp	r5, #0
 563:/home/hkh/git/eapidk-code-r76-trunk/apps/EeePProg/linux/../../common/EApiAHStr.c ****   int ReturnValue;
 677              		.loc 1 563 1 view .LVU180
 678 031c 00C09CE5 		ldr	ip, [ip]
 679 0320 04C08DE5 		str	ip, [sp, #4]
 680 0324 00C0A0E3 		mov	ip, #0
 564:/home/hkh/git/eapidk-code-r76-trunk/apps/EeePProg/linux/../../common/EApiAHStr.c ****   int ReturnValue;
 681              		.loc 1 564 3 is_stmt 1 view .LVU181
 565:/home/hkh/git/eapidk-code-r76-trunk/apps/EeePProg/linux/../../common/EApiAHStr.c ****   if(pBuffer  ==NULL) return -1;
 682              		.loc 1 565 3 view .LVU182
 566:/home/hkh/git/eapidk-code-r76-trunk/apps/EeePProg/linux/../../common/EApiAHStr.c ****   if(fmt      ==NULL) return -1;
 683              		.loc 1 566 3 view .LVU183
 567:/home/hkh/git/eapidk-code-r76-trunk/apps/EeePProg/linux/../../common/EApiAHStr.c ****   if(BufferLen==0   ) return -1;
 684              		.loc 1 567 3 view .LVU184
 685              		.loc 1 568 3 view .LVU185
 686              		.loc 1 568 5 is_stmt 0 view .LVU186
 687 0328 1300001A 		bne	.L53
 569:/home/hkh/git/eapidk-code-r76-trunk/apps/EeePProg/linux/../../common/EApiAHStr.c **** 
 570:/home/hkh/git/eapidk-code-r76-trunk/apps/EeePProg/linux/../../common/EApiAHStr.c ****   va_start(arg, fmt);
 688              		.loc 1 570 3 view .LVU187
 689 032c 1C308DE2 		add	r3, sp, #28
 690 0330 0040A0E1 		mov	r4, r0
 691 0334 0160A0E1 		mov	r6, r1
 692              		.loc 1 570 3 is_stmt 1 view .LVU188
 693 0338 00308DE5 		str	r3, [sp]
 571:/home/hkh/git/eapidk-code-r76-trunk/apps/EeePProg/linux/../../common/EApiAHStr.c ****   ReturnValue=EAPI_vsnprintf(pBuffer, BufferLen, fmt, arg);
 694              		.loc 1 571 3 view .LVU189
 695              		.loc 1 571 15 is_stmt 0 view .LVU190
 696 033c FEFFFFEB 		bl	vsnprintf(PLT)
 697              	.LVL60:
 572:/home/hkh/git/eapidk-code-r76-trunk/apps/EeePProg/linux/../../common/EApiAHStr.c ****   pBuffer[BufferLen-1]=TEXT('\0');
 698              		.loc 1 572 23 view .LVU191
 699 0340 063084E0 		add	r3, r4, r6
 700              	.LVL61:
 701              		.loc 1 572 3 is_stmt 1 view .LVU192
 702              		.loc 1 572 23 is_stmt 0 view .LVU193
 703 0344 015043E5 		strb	r5, [r3, #-1]
 573:/home/hkh/git/eapidk-code-r76-trunk/apps/EeePProg/linux/../../common/EApiAHStr.c ****   va_end(arg);
 704              		.loc 1 573 3 is_stmt 1 view .LVU194
 574:/home/hkh/git/eapidk-code-r76-trunk/apps/EeePProg/linux/../../common/EApiAHStr.c ****   return ReturnValue;
 705              		.loc 1 574 3 view .LVU195
 706              	.LVL62:
 707              	.L50:
 563:/home/hkh/git/eapidk-code-r76-trunk/apps/EeePProg/linux/../../common/EApiAHStr.c ****   int ReturnValue;
 708              		.loc 1 563 1 is_stmt 0 view .LVU196
 709 0348 40209FE5 		ldr	r2, .L56+8
 575:/home/hkh/git/eapidk-code-r76-trunk/apps/EeePProg/linux/../../common/EApiAHStr.c **** }
 710              		.loc 1 575 1 view .LVU197
 711 034c 38309FE5 		ldr	r3, .L56+4
 563:/home/hkh/git/eapidk-code-r76-trunk/apps/EeePProg/linux/../../common/EApiAHStr.c ****   int ReturnValue;
 712              		.loc 1 563 1 view .LVU198
ARM GAS  /tmp/ccQkFBoM.s 			page 25


 713              	.LPIC13:
 714 0350 02208FE0 		add	r2, pc, r2
 715              		.loc 1 575 1 view .LVU199
 716 0354 033092E7 		ldr	r3, [r2, r3]
 717 0358 002093E5 		ldr	r2, [r3]
 718 035c 04309DE5 		ldr	r3, [sp, #4]
 719 0360 022033E0 		eors	r2, r3, r2
 720 0364 0030A0E3 		mov	r3, #0
 721 0368 0500001A 		bne	.L55
 722 036c 08D08DE2 		add	sp, sp, #8
 723              		.cfi_remember_state
 724              		.cfi_def_cfa_offset 24
 725              		@ sp needed
 726 0370 7040BDE8 		pop	{r4, r5, r6, lr}
 727              		.cfi_restore 14
 728              		.cfi_restore 6
 729              		.cfi_restore 5
 730              		.cfi_restore 4
 731              		.cfi_def_cfa_offset 8
 732 0374 08D08DE2 		add	sp, sp, #8
 733              		.cfi_restore 3
 734              		.cfi_restore 2
 735              		.cfi_def_cfa_offset 0
 736 0378 1EFF2FE1 		bx	lr
 737              	.LVL63:
 738              	.L53:
 739              		.cfi_restore_state
 568:/home/hkh/git/eapidk-code-r76-trunk/apps/EeePProg/linux/../../common/EApiAHStr.c **** 
 740              		.loc 1 568 30 view .LVU200
 741 037c 0000E0E3 		mvn	r0, #0
 742              	.LVL64:
 568:/home/hkh/git/eapidk-code-r76-trunk/apps/EeePProg/linux/../../common/EApiAHStr.c **** 
 743              		.loc 1 568 30 view .LVU201
 744 0380 F0FFFFEA 		b	.L50
 745              	.LVL65:
 746              	.L55:
 747              		.loc 1 575 1 view .LVU202
 748 0384 FEFFFFEB 		bl	__stack_chk_fail(PLT)
 749              	.LVL66:
 750              	.L57:
 751              		.align	2
 752              	.L56:
 753 0388 80000000 		.word	_GLOBAL_OFFSET_TABLE_-(.LPIC14+8)
 754 038c 00000000 		.word	__stack_chk_guard(GOT)
 755 0390 38000000 		.word	_GLOBAL_OFFSET_TABLE_-(.LPIC13+8)
 756              		.cfi_endproc
 757              	.LFE19:
 759              		.section	.rodata.str1.4
 760 0092 0000     		.align	2
 761              	.LC5:
 762 0094 45417069 		.ascii	"EApiAHCreateErrorString\000"
 762      41484372 
 762      65617465 
 762      4572726F 
 762      72537472 
 763              		.align	2
 764              	.LC6:
ARM GAS  /tmp/ccQkFBoM.s 			page 26


 765 00ac 28537472 		.ascii	"(StrBufLen==0)\000"
 765      4275664C 
 765      656E3D3D 
 765      302900
 766 00bb 00       		.align	2
 767              	.LC7:
 768 00bc 554E4B4E 		.ascii	"UNKNOWN ERROR(0x%08X)\000"
 768      4F574E20 
 768      4552524F 
 768      52283078 
 768      25303858 
 769              		.text
 770              		.align	2
 771              		.global	EApiAHCreateErrorString
 772              		.syntax unified
 773              		.arm
 774              		.fpu vfpv3
 776              	EApiAHCreateErrorString:
 777              	.LVL67:
 778              	.LFB1:
  71:/home/hkh/git/eapidk-code-r76-trunk/apps/EeePProg/linux/../../common/EApiAHStr.c ****   size_t StatusCode=EAPI_INVALID_STRLEN;
 779              		.loc 1 71 1 is_stmt 1 view -0
 780              		.cfi_startproc
 781              		@ args = 0, pretend = 0, frame = 0
 782              		@ frame_needed = 0, uses_anonymous_args = 0
  72:/home/hkh/git/eapidk-code-r76-trunk/apps/EeePProg/linux/../../common/EApiAHStr.c ****   unsigned i;
 783              		.loc 1 72 3 view .LVU204
  73:/home/hkh/git/eapidk-code-r76-trunk/apps/EeePProg/linux/../../common/EApiAHStr.c **** 
 784              		.loc 1 73 3 view .LVU205
  75:/home/hkh/git/eapidk-code-r76-trunk/apps/EeePProg/linux/../../common/EApiAHStr.c ****       EApiAHCreateErrorString, 
 785              		.loc 1 75 3 view .LVU206
  71:/home/hkh/git/eapidk-code-r76-trunk/apps/EeePProg/linux/../../common/EApiAHStr.c ****   size_t StatusCode=EAPI_INVALID_STRLEN;
 786              		.loc 1 71 1 is_stmt 0 view .LVU207
 787 0394 30402DE9 		push	{r4, r5, lr}
 788              		.cfi_def_cfa_offset 12
 789              		.cfi_offset 4, -12
 790              		.cfi_offset 5, -8
 791              		.cfi_offset 14, -4
  75:/home/hkh/git/eapidk-code-r76-trunk/apps/EeePProg/linux/../../common/EApiAHStr.c ****       EApiAHCreateErrorString, 
 792              		.loc 1 75 3 view .LVU208
 793 0398 004051E2 		subs	r4, r1, #0
  71:/home/hkh/git/eapidk-code-r76-trunk/apps/EeePProg/linux/../../common/EApiAHStr.c ****   size_t StatusCode=EAPI_INVALID_STRLEN;
 794              		.loc 1 71 1 view .LVU209
 795 039c 14D04DE2 		sub	sp, sp, #20
 796              		.cfi_def_cfa_offset 32
  75:/home/hkh/git/eapidk-code-r76-trunk/apps/EeePProg/linux/../../common/EApiAHStr.c ****       EApiAHCreateErrorString, 
 797              		.loc 1 75 3 view .LVU210
 798 03a0 3500000A 		beq	.L73
  80:/home/hkh/git/eapidk-code-r76-trunk/apps/EeePProg/linux/../../common/EApiAHStr.c ****       EApiAHCreateErrorString, 
 799              		.loc 1 80 3 discriminator 2 view .LVU211
 800 03a4 000052E3 		cmp	r2, #0
 801 03a8 0250A0E1 		mov	r5, r2
  75:/home/hkh/git/eapidk-code-r76-trunk/apps/EeePProg/linux/../../common/EApiAHStr.c ****       EApiAHCreateErrorString, 
 802              		.loc 1 75 3 is_stmt 1 discriminator 2 view .LVU212
  79:/home/hkh/git/eapidk-code-r76-trunk/apps/EeePProg/linux/../../common/EApiAHStr.c ****   EAPI_APP_ASSERT_PARAMATER_ZERO(
 803              		.loc 1 79 6 discriminator 2 view .LVU213
  80:/home/hkh/git/eapidk-code-r76-trunk/apps/EeePProg/linux/../../common/EApiAHStr.c ****       EApiAHCreateErrorString, 
ARM GAS  /tmp/ccQkFBoM.s 			page 27


 804              		.loc 1 80 3 discriminator 2 view .LVU214
 805 03ac 2100000A 		beq	.L74
 806 03b0 0030A0E1 		mov	r3, r0
  88:/home/hkh/git/eapidk-code-r76-trunk/apps/EeePProg/linux/../../common/EApiAHStr.c **** 
 807              		.loc 1 88 22 is_stmt 0 view .LVU215
 808 03b4 EC009FE5 		ldr	r0, .L76
 809              	.LVL68:
  86:/home/hkh/git/eapidk-code-r76-trunk/apps/EeePProg/linux/../../common/EApiAHStr.c ****   {
 810              		.loc 1 86 8 view .LVU216
 811 03b8 00C0A0E3 		mov	ip, #0
  88:/home/hkh/git/eapidk-code-r76-trunk/apps/EeePProg/linux/../../common/EApiAHStr.c **** 
 812              		.loc 1 88 22 view .LVU217
 813              	.LPIC23:
 814 03bc 00008FE0 		add	r0, pc, r0
 815 03c0 020000EA 		b	.L61
 816              	.LVL69:
 817              	.L62:
  86:/home/hkh/git/eapidk-code-r76-trunk/apps/EeePProg/linux/../../common/EApiAHStr.c ****   {
 818              		.loc 1 86 39 discriminator 2 view .LVU218
 819 03c4 01C08CE2 		add	ip, ip, #1
 820              	.LVL70:
  86:/home/hkh/git/eapidk-code-r76-trunk/apps/EeePProg/linux/../../common/EApiAHStr.c ****   {
 821              		.loc 1 86 13 is_stmt 1 discriminator 2 view .LVU219
 822 03c8 13005CE3 		cmp	ip, #19
 823 03cc 1000000A 		beq	.L75
 824              	.LVL71:
 825              	.L61:
  88:/home/hkh/git/eapidk-code-r76-trunk/apps/EeePProg/linux/../../common/EApiAHStr.c **** 
 826              		.loc 1 88 5 view .LVU220
  86:/home/hkh/git/eapidk-code-r76-trunk/apps/EeePProg/linux/../../common/EApiAHStr.c ****   {
 827              		.loc 1 86 39 view .LVU221
  88:/home/hkh/git/eapidk-code-r76-trunk/apps/EeePProg/linux/../../common/EApiAHStr.c **** 
 828              		.loc 1 88 7 is_stmt 0 view .LVU222
 829 03d0 8CE190E7 		ldr	lr, [r0, ip, lsl #3]
 830 03d4 03005EE1 		cmp	lr, r3
 831 03d8 F9FFFF1A 		bne	.L62
  90:/home/hkh/git/eapidk-code-r76-trunk/apps/EeePProg/linux/../../common/EApiAHStr.c ****         EApiStrCpy(pString, StrBufLen, ErrorLookup[i].ErrorString);
 832              		.loc 1 90 7 is_stmt 1 view .LVU223
  91:/home/hkh/git/eapidk-code-r76-trunk/apps/EeePProg/linux/../../common/EApiAHStr.c ****         StatusCode= EAPI_strlen (pString);
 833              		.loc 1 91 9 view .LVU224
  91:/home/hkh/git/eapidk-code-r76-trunk/apps/EeePProg/linux/../../common/EApiAHStr.c ****         StatusCode= EAPI_strlen (pString);
 834              		.loc 1 91 54 is_stmt 0 view .LVU225
 835 03dc 8C0180E0 		add	r0, r0, ip, lsl #3
 836 03e0 041090E5 		ldr	r1, [r0, #4]
 837              	.LVL72:
 838              	.LBB34:
 839              	.LBI34:
 541:/home/hkh/git/eapidk-code-r76-trunk/apps/EeePProg/linux/../../common/EApiAHStr.c ****     __OUT TCHAR *const      StringDest   ,
 840              		.loc 1 541 1 is_stmt 1 view .LVU226
 841              	.LBB35:
 547:/home/hkh/git/eapidk-code-r76-trunk/apps/EeePProg/linux/../../common/EApiAHStr.c ****   if(StringSource==NULL) return StringDest;
 842              		.loc 1 547 3 view .LVU227
 548:/home/hkh/git/eapidk-code-r76-trunk/apps/EeePProg/linux/../../common/EApiAHStr.c ****   if(StrBufLen==0   ) return StringDest;
 843              		.loc 1 548 3 view .LVU228
 548:/home/hkh/git/eapidk-code-r76-trunk/apps/EeePProg/linux/../../common/EApiAHStr.c ****   if(StrBufLen==0   ) return StringDest;
 844              		.loc 1 548 5 is_stmt 0 view .LVU229
 845 03e4 000051E3 		cmp	r1, #0
ARM GAS  /tmp/ccQkFBoM.s 			page 28


 846 03e8 0500000A 		beq	.L72
 549:/home/hkh/git/eapidk-code-r76-trunk/apps/EeePProg/linux/../../common/EApiAHStr.c **** 
 847              		.loc 1 549 3 is_stmt 1 view .LVU230
 848              	.LVL73:
 849              	.LBB36:
 850              	.LBI36:
 541:/home/hkh/git/eapidk-code-r76-trunk/apps/EeePProg/linux/../../common/EApiAHStr.c ****     __OUT TCHAR *const      StringDest   ,
 851              		.loc 1 541 1 view .LVU231
 852              	.LBB37:
 551:/home/hkh/git/eapidk-code-r76-trunk/apps/EeePProg/linux/../../common/EApiAHStr.c ****   StringDest[StrBufLen-1]=TEXT('\0');
 853              		.loc 1 551 3 view .LVU232
 854 03ec 0520A0E1 		mov	r2, r5
 855              	.LVL74:
 551:/home/hkh/git/eapidk-code-r76-trunk/apps/EeePProg/linux/../../common/EApiAHStr.c ****   StringDest[StrBufLen-1]=TEXT('\0');
 856              		.loc 1 551 3 is_stmt 0 view .LVU233
 857 03f0 0400A0E1 		mov	r0, r4
 858 03f4 FEFFFFEB 		bl	strncpy(PLT)
 859              	.LVL75:
 552:/home/hkh/git/eapidk-code-r76-trunk/apps/EeePProg/linux/../../common/EApiAHStr.c ****   return StringDest;
 860              		.loc 1 552 3 is_stmt 1 view .LVU234
 552:/home/hkh/git/eapidk-code-r76-trunk/apps/EeePProg/linux/../../common/EApiAHStr.c ****   return StringDest;
 861              		.loc 1 552 26 is_stmt 0 view .LVU235
 862 03f8 055084E0 		add	r5, r4, r5
 863              	.LVL76:
 552:/home/hkh/git/eapidk-code-r76-trunk/apps/EeePProg/linux/../../common/EApiAHStr.c ****   return StringDest;
 864              		.loc 1 552 26 view .LVU236
 865 03fc 0030A0E3 		mov	r3, #0
 866 0400 013045E5 		strb	r3, [r5, #-1]
 553:/home/hkh/git/eapidk-code-r76-trunk/apps/EeePProg/linux/../../common/EApiAHStr.c **** }
 867              		.loc 1 553 3 is_stmt 1 view .LVU237
 868              	.LVL77:
 553:/home/hkh/git/eapidk-code-r76-trunk/apps/EeePProg/linux/../../common/EApiAHStr.c **** }
 869              		.loc 1 553 3 is_stmt 0 view .LVU238
 870              	.LBE37:
 871              	.LBE36:
 872              	.LBE35:
 873              	.LBE34:
  92:/home/hkh/git/eapidk-code-r76-trunk/apps/EeePProg/linux/../../common/EApiAHStr.c ****         goto ExitSuccess;
 874              		.loc 1 92 9 is_stmt 1 view .LVU239
 875              	.L72:
 104:/home/hkh/git/eapidk-code-r76-trunk/apps/EeePProg/linux/../../common/EApiAHStr.c ****     goto ExitSuccess;
 876              		.loc 1 104 5 view .LVU240
 104:/home/hkh/git/eapidk-code-r76-trunk/apps/EeePProg/linux/../../common/EApiAHStr.c ****     goto ExitSuccess;
 877              		.loc 1 104 16 is_stmt 0 view .LVU241
 878 0404 0400A0E1 		mov	r0, r4
 111:/home/hkh/git/eapidk-code-r76-trunk/apps/EeePProg/linux/../../common/EApiAHStr.c **** EApiStatus_t
 879              		.loc 1 111 1 view .LVU242
 880 0408 14D08DE2 		add	sp, sp, #20
 881              		.cfi_remember_state
 882              		.cfi_def_cfa_offset 12
 883              		@ sp needed
 884 040c 3040BDE8 		pop	{r4, r5, lr}
 885              		.cfi_restore 14
 886              		.cfi_restore 5
 887              		.cfi_restore 4
 888              		.cfi_def_cfa_offset 0
 889              	.LVL78:
ARM GAS  /tmp/ccQkFBoM.s 			page 29


 104:/home/hkh/git/eapidk-code-r76-trunk/apps/EeePProg/linux/../../common/EApiAHStr.c ****     goto ExitSuccess;
 890              		.loc 1 104 16 view .LVU243
 891 0410 FEFFFFEA 		b	strlen(PLT)
 892              	.LVL79:
 893              	.L75:
 894              		.cfi_restore_state
  99:/home/hkh/git/eapidk-code-r76-trunk/apps/EeePProg/linux/../../common/EApiAHStr.c ****     EApiSprintf(pString, StrBufLen, 
 895              		.loc 1 99 3 is_stmt 1 view .LVU244
 100:/home/hkh/git/eapidk-code-r76-trunk/apps/EeePProg/linux/../../common/EApiAHStr.c ****       TEXT("UNKNOWN ERROR(0x%08")TEXT(PRIX32)TEXT(")"), 
 896              		.loc 1 100 5 view .LVU245
 897 0414 90209FE5 		ldr	r2, .L76+4
 898              	.LVL80:
 100:/home/hkh/git/eapidk-code-r76-trunk/apps/EeePProg/linux/../../common/EApiAHStr.c ****       TEXT("UNKNOWN ERROR(0x%08")TEXT(PRIX32)TEXT(")"), 
 899              		.loc 1 100 5 is_stmt 0 view .LVU246
 900 0418 0510A0E1 		mov	r1, r5
 901              	.LVL81:
 100:/home/hkh/git/eapidk-code-r76-trunk/apps/EeePProg/linux/../../common/EApiAHStr.c ****       TEXT("UNKNOWN ERROR(0x%08")TEXT(PRIX32)TEXT(")"), 
 902              		.loc 1 100 5 view .LVU247
 903 041c 0400A0E1 		mov	r0, r4
 904              	.LPIC25:
 905 0420 02208FE0 		add	r2, pc, r2
 906 0424 FEFFFFEB 		bl	EApiSprintf(PLT)
 907              	.LVL82:
 104:/home/hkh/git/eapidk-code-r76-trunk/apps/EeePProg/linux/../../common/EApiAHStr.c ****     goto ExitSuccess;
 908              		.loc 1 104 5 is_stmt 1 view .LVU248
 104:/home/hkh/git/eapidk-code-r76-trunk/apps/EeePProg/linux/../../common/EApiAHStr.c ****     goto ExitSuccess;
 909              		.loc 1 104 16 is_stmt 0 view .LVU249
 910 0428 0400A0E1 		mov	r0, r4
 111:/home/hkh/git/eapidk-code-r76-trunk/apps/EeePProg/linux/../../common/EApiAHStr.c **** EApiStatus_t
 911              		.loc 1 111 1 view .LVU250
 912 042c 14D08DE2 		add	sp, sp, #20
 913              		.cfi_remember_state
 914              		.cfi_def_cfa_offset 12
 915              		@ sp needed
 916 0430 3040BDE8 		pop	{r4, r5, lr}
 917              		.cfi_restore 14
 918              		.cfi_restore 5
 919              		.cfi_restore 4
 920              		.cfi_def_cfa_offset 0
 921              	.LVL83:
 104:/home/hkh/git/eapidk-code-r76-trunk/apps/EeePProg/linux/../../common/EApiAHStr.c ****     goto ExitSuccess;
 922              		.loc 1 104 16 view .LVU251
 923 0434 FEFFFFEA 		b	strlen(PLT)
 924              	.LVL84:
 925              	.L74:
 926              		.cfi_restore_state
  80:/home/hkh/git/eapidk-code-r76-trunk/apps/EeePProg/linux/../../common/EApiAHStr.c ****       EApiAHCreateErrorString, 
 927              		.loc 1 80 3 is_stmt 1 discriminator 1 view .LVU252
  80:/home/hkh/git/eapidk-code-r76-trunk/apps/EeePProg/linux/../../common/EApiAHStr.c ****       EApiAHCreateErrorString, 
 928              		.loc 1 80 3 discriminator 1 view .LVU253
 929 0438 70C09FE5 		ldr	ip, .L76+8
 930 043c 00E0E0E3 		mvn	lr, #0
 931 0440 6C009FE5 		ldr	r0, .L76+12
 932              	.LVL85:
  80:/home/hkh/git/eapidk-code-r76-trunk/apps/EeePProg/linux/../../common/EApiAHStr.c ****       EApiAHCreateErrorString, 
 933              		.loc 1 80 3 is_stmt 0 discriminator 1 view .LVU254
 934 0444 5030A0E3 		mov	r3, #80
ARM GAS  /tmp/ccQkFBoM.s 			page 30


 935 0448 68209FE5 		ldr	r2, .L76+16
 936              	.LVL86:
  80:/home/hkh/git/eapidk-code-r76-trunk/apps/EeePProg/linux/../../common/EApiAHStr.c ****       EApiAHCreateErrorString, 
 937              		.loc 1 80 3 discriminator 1 view .LVU255
 938 044c 68109FE5 		ldr	r1, .L76+20
 939              	.LVL87:
  80:/home/hkh/git/eapidk-code-r76-trunk/apps/EeePProg/linux/../../common/EApiAHStr.c ****       EApiAHCreateErrorString, 
 940              		.loc 1 80 3 discriminator 1 view .LVU256
 941              	.LPIC21:
 942 0450 0CC08FE0 		add	ip, pc, ip
 943              	.LPIC22:
 944 0454 00008FE0 		add	r0, pc, r0
 945              	.LPIC19:
 946 0458 02208FE0 		add	r2, pc, r2
 947              	.LPIC20:
 948 045c 01108FE0 		add	r1, pc, r1
 949              	.LVL88:
 950              	.L71:
  80:/home/hkh/git/eapidk-code-r76-trunk/apps/EeePProg/linux/../../common/EApiAHStr.c ****       EApiAHCreateErrorString, 
 951              		.loc 1 80 3 discriminator 1 view .LVU257
 952 0460 01108DE9 		stmib	sp, {r0, ip}
 953 0464 4500A0E3 		mov	r0, #69
 954 0468 00E08DE5 		str	lr, [sp]
 955 046c FEFFFFEB 		bl	siFormattedMessage_SC(PLT)
 956              	.LVL89:
  80:/home/hkh/git/eapidk-code-r76-trunk/apps/EeePProg/linux/../../common/EApiAHStr.c ****       EApiAHCreateErrorString, 
 957              		.loc 1 80 3 is_stmt 1 discriminator 1 view .LVU258
  80:/home/hkh/git/eapidk-code-r76-trunk/apps/EeePProg/linux/../../common/EApiAHStr.c ****       EApiAHCreateErrorString, 
 958              		.loc 1 80 3 discriminator 1 view .LVU259
  80:/home/hkh/git/eapidk-code-r76-trunk/apps/EeePProg/linux/../../common/EApiAHStr.c ****       EApiAHCreateErrorString, 
 959              		.loc 1 80 3 discriminator 1 view .LVU260
 111:/home/hkh/git/eapidk-code-r76-trunk/apps/EeePProg/linux/../../common/EApiAHStr.c **** EApiStatus_t
 960              		.loc 1 111 1 is_stmt 0 discriminator 1 view .LVU261
 961 0470 0000E0E3 		mvn	r0, #0
 962 0474 14D08DE2 		add	sp, sp, #20
 963              		.cfi_remember_state
 964              		.cfi_def_cfa_offset 12
 965              		@ sp needed
 966 0478 3080BDE8 		pop	{r4, r5, pc}
 967              	.LVL90:
 968              	.L60:
 969              	.L64:
 970              	.L73:
 971              		.cfi_restore_state
 972              	.LBB38:
 973              	.LBI38:
  66:/home/hkh/git/eapidk-code-r76-trunk/apps/EeePProg/linux/../../common/EApiAHStr.c ****     __IN EApiStatus_t DispStatusCode  ,
 974              		.loc 1 66 8 is_stmt 1 view .LVU262
 975              	.LBB39:
  75:/home/hkh/git/eapidk-code-r76-trunk/apps/EeePProg/linux/../../common/EApiAHStr.c ****       EApiAHCreateErrorString, 
 976              		.loc 1 75 3 view .LVU263
  75:/home/hkh/git/eapidk-code-r76-trunk/apps/EeePProg/linux/../../common/EApiAHStr.c ****       EApiAHCreateErrorString, 
 977              		.loc 1 75 3 view .LVU264
 978 047c 3CC09FE5 		ldr	ip, .L76+24
 979 0480 00E0E0E3 		mvn	lr, #0
 980 0484 38009FE5 		ldr	r0, .L76+28
 981              	.LVL91:
ARM GAS  /tmp/ccQkFBoM.s 			page 31


  75:/home/hkh/git/eapidk-code-r76-trunk/apps/EeePProg/linux/../../common/EApiAHStr.c ****       EApiAHCreateErrorString, 
 982              		.loc 1 75 3 is_stmt 0 view .LVU265
 983 0488 4B30A0E3 		mov	r3, #75
 984 048c 34209FE5 		ldr	r2, .L76+32
 985              	.LVL92:
  75:/home/hkh/git/eapidk-code-r76-trunk/apps/EeePProg/linux/../../common/EApiAHStr.c ****       EApiAHCreateErrorString, 
 986              		.loc 1 75 3 view .LVU266
 987 0490 34109FE5 		ldr	r1, .L76+36
 988              	.LVL93:
  75:/home/hkh/git/eapidk-code-r76-trunk/apps/EeePProg/linux/../../common/EApiAHStr.c ****       EApiAHCreateErrorString, 
 989              		.loc 1 75 3 view .LVU267
 990              	.LPIC17:
 991 0494 0CC08FE0 		add	ip, pc, ip
 992              	.LPIC18:
 993 0498 00008FE0 		add	r0, pc, r0
 994              	.LPIC15:
 995 049c 02208FE0 		add	r2, pc, r2
 996              	.LPIC16:
 997 04a0 01108FE0 		add	r1, pc, r1
 998 04a4 EDFFFFEA 		b	.L71
 999              	.L77:
 1000              		.align	2
 1001              	.L76:
 1002 04a8 E4000000 		.word	.LANCHOR1-(.LPIC23+8)
 1003 04ac 84000000 		.word	.LC7-(.LPIC25+8)
 1004 04b0 58000000 		.word	.LC6-(.LPIC21+8)
 1005 04b4 58000000 		.word	.LC3-(.LPIC22+8)
 1006 04b8 58000000 		.word	.LC5-(.LPIC19+8)
 1007 04bc 58000000 		.word	.LC1-(.LPIC20+8)
 1008 04c0 24000000 		.word	.LC2-(.LPIC17+8)
 1009 04c4 24000000 		.word	.LC3-(.LPIC18+8)
 1010 04c8 24000000 		.word	.LC5-(.LPIC15+8)
 1011 04cc 24000000 		.word	.LC1-(.LPIC16+8)
 1012              	.LBE39:
 1013              	.LBE38:
 1014              		.cfi_endproc
 1015              	.LFE1:
 1017              		.section	.rodata.str1.4
 1018 00d2 0000     		.align	2
 1019              	.LC8:
 1020 00d4 45417069 		.ascii	"EApiAHGetString\000"
 1020      41484765 
 1020      74537472 
 1020      696E6700 
 1021              		.align	2
 1022              	.LC9:
 1023 00e4 45417069 		.ascii	"EApiAHGetStringAlloc\000"
 1023      41484765 
 1023      74537472 
 1023      696E6741 
 1023      6C6C6F63 
 1024 00f9 000000   		.align	2
 1025              	.LC10:
 1026 00fc 496E7465 		.ascii	"Interface Returning Different String Lengths\000"
 1026      72666163 
 1026      65205265 
 1026      7475726E 
ARM GAS  /tmp/ccQkFBoM.s 			page 32


 1026      696E6720 
 1027 0129 000000   		.align	2
 1028              	.LC11:
 1029 012c 52657475 		.ascii	"Returned String Missing Terminating \\0 Character.\000"
 1029      726E6564 
 1029      20537472 
 1029      696E6720 
 1029      4D697373 
 1030              		.text
 1031              		.align	2
 1032              		.global	EApiAHGetString
 1033              		.syntax unified
 1034              		.arm
 1035              		.fpu vfpv3
 1037              	EApiAHGetString:
 1038              	.LVL94:
 1039              	.LFB3:
 153:/home/hkh/git/eapidk-code-r76-trunk/apps/EeePProg/linux/../../common/EApiAHStr.c ****   size_t StatusCode=EAPI_INVALID_STRLEN;
 1040              		.loc 1 153 1 is_stmt 1 view -0
 1041              		.cfi_startproc
 1042              		@ args = 0, pretend = 0, frame = 8
 1043              		@ frame_needed = 0, uses_anonymous_args = 0
 153:/home/hkh/git/eapidk-code-r76-trunk/apps/EeePProg/linux/../../common/EApiAHStr.c ****   size_t StatusCode=EAPI_INVALID_STRLEN;
 1044              		.loc 1 153 1 is_stmt 0 view .LVU269
 1045 04d0 70402DE9 		push	{r4, r5, r6, lr}
 1046              		.cfi_def_cfa_offset 16
 1047              		.cfi_offset 4, -16
 1048              		.cfi_offset 5, -12
 1049              		.cfi_offset 6, -8
 1050              		.cfi_offset 14, -4
 1051 04d4 0240A0E1 		mov	r4, r2
 1052 04d8 AC219FE5 		ldr	r2, .L100
 1053              	.LVL95:
 157:/home/hkh/git/eapidk-code-r76-trunk/apps/EeePProg/linux/../../common/EApiAHStr.c ****   EAPI_APP_ASSERT_PARAMATER_ZERO(EApiAHGetString, EAPI_INVALID_STRLEN, StrBufLen);
 1054              		.loc 1 157 3 view .LVU270
 1055 04dc 005051E2 		subs	r5, r1, #0
 153:/home/hkh/git/eapidk-code-r76-trunk/apps/EeePProg/linux/../../common/EApiAHStr.c ****   size_t StatusCode=EAPI_INVALID_STRLEN;
 1056              		.loc 1 153 1 view .LVU271
 1057 04e0 18D04DE2 		sub	sp, sp, #24
 1058              		.cfi_def_cfa_offset 40
 153:/home/hkh/git/eapidk-code-r76-trunk/apps/EeePProg/linux/../../common/EApiAHStr.c ****   size_t StatusCode=EAPI_INVALID_STRLEN;
 1059              		.loc 1 153 1 view .LVU272
 1060 04e4 A4319FE5 		ldr	r3, .L100+4
 1061              	.LPIC43:
 1062 04e8 02208FE0 		add	r2, pc, r2
 1063 04ec 033092E7 		ldr	r3, [r2, r3]
 1064 04f0 003093E5 		ldr	r3, [r3]
 1065 04f4 14308DE5 		str	r3, [sp, #20]
 1066 04f8 0030A0E3 		mov	r3, #0
 154:/home/hkh/git/eapidk-code-r76-trunk/apps/EeePProg/linux/../../common/EApiAHStr.c ****   uint32_t StringLenLcl=(uint32_t)StrBufLen;
 1067              		.loc 1 154 3 is_stmt 1 view .LVU273
 1068              	.LVL96:
 155:/home/hkh/git/eapidk-code-r76-trunk/apps/EeePProg/linux/../../common/EApiAHStr.c ****   size_t StringBufferLenBck=StrBufLen;
 1069              		.loc 1 155 3 view .LVU274
 155:/home/hkh/git/eapidk-code-r76-trunk/apps/EeePProg/linux/../../common/EApiAHStr.c ****   size_t StringBufferLenBck=StrBufLen;
 1070              		.loc 1 155 12 is_stmt 0 view .LVU275
 1071 04fc 10408DE5 		str	r4, [sp, #16]
ARM GAS  /tmp/ccQkFBoM.s 			page 33


 156:/home/hkh/git/eapidk-code-r76-trunk/apps/EeePProg/linux/../../common/EApiAHStr.c ****   EAPI_APP_ASSERT_PARAMATER_NULL(EApiAHGetString, EAPI_INVALID_STRLEN, pString);
 1072              		.loc 1 156 3 is_stmt 1 view .LVU276
 1073              	.LVL97:
 157:/home/hkh/git/eapidk-code-r76-trunk/apps/EeePProg/linux/../../common/EApiAHStr.c ****   EAPI_APP_ASSERT_PARAMATER_ZERO(EApiAHGetString, EAPI_INVALID_STRLEN, StrBufLen);
 1074              		.loc 1 157 3 view .LVU277
 1075 0500 5500000A 		beq	.L95
 157:/home/hkh/git/eapidk-code-r76-trunk/apps/EeePProg/linux/../../common/EApiAHStr.c ****   EAPI_APP_ASSERT_PARAMATER_ZERO(EApiAHGetString, EAPI_INVALID_STRLEN, StrBufLen);
 1076              		.loc 1 157 3 discriminator 2 view .LVU278
 157:/home/hkh/git/eapidk-code-r76-trunk/apps/EeePProg/linux/../../common/EApiAHStr.c ****   EAPI_APP_ASSERT_PARAMATER_ZERO(EApiAHGetString, EAPI_INVALID_STRLEN, StrBufLen);
 1077              		.loc 1 157 80 discriminator 2 view .LVU279
 158:/home/hkh/git/eapidk-code-r76-trunk/apps/EeePProg/linux/../../common/EApiAHStr.c **** 
 1078              		.loc 1 158 3 discriminator 2 view .LVU280
 1079 0504 000054E3 		cmp	r4, #0
 1080 0508 2500000A 		beq	.L96
 158:/home/hkh/git/eapidk-code-r76-trunk/apps/EeePProg/linux/../../common/EApiAHStr.c **** 
 1081              		.loc 1 158 3 discriminator 2 view .LVU281
 158:/home/hkh/git/eapidk-code-r76-trunk/apps/EeePProg/linux/../../common/EApiAHStr.c **** 
 1082              		.loc 1 158 82 discriminator 2 view .LVU282
 160:/home/hkh/git/eapidk-code-r76-trunk/apps/EeePProg/linux/../../common/EApiAHStr.c ****   if(!EAPI_TEST_SUCCESS(StatusCode))
 1083              		.loc 1 160 3 discriminator 2 view .LVU283
 160:/home/hkh/git/eapidk-code-r76-trunk/apps/EeePProg/linux/../../common/EApiAHStr.c ****   if(!EAPI_TEST_SUCCESS(StatusCode))
 1084              		.loc 1 160 14 is_stmt 0 discriminator 2 view .LVU284
 1085 050c 10208DE2 		add	r2, sp, #16
 1086 0510 FEFFFFEB 		bl	EApiBoardGetStringA(PLT)
 1087              	.LVL98:
 161:/home/hkh/git/eapidk-code-r76-trunk/apps/EeePProg/linux/../../common/EApiAHStr.c ****       StringLenLcl=(uint32_t)EApiAHCreateErrorString((uint32_t)StatusCode, pString, StringBufferLen
 1088              		.loc 1 161 3 is_stmt 1 discriminator 2 view .LVU285
 161:/home/hkh/git/eapidk-code-r76-trunk/apps/EeePProg/linux/../../common/EApiAHStr.c ****       StringLenLcl=(uint32_t)EApiAHCreateErrorString((uint32_t)StatusCode, pString, StringBufferLen
 1089              		.loc 1 161 5 is_stmt 0 discriminator 2 view .LVU286
 1090 0514 000050E3 		cmp	r0, #0
 1091 0518 1C00001A 		bne	.L82
 164:/home/hkh/git/eapidk-code-r76-trunk/apps/EeePProg/linux/../../common/EApiAHStr.c ****       EApiAHGetStringAlloc, 
 1092              		.loc 1 164 3 view .LVU287
 1093 051c 10009DE5 		ldr	r0, [sp, #16]
 1094              	.LVL99:
 1095              	.L83:
 164:/home/hkh/git/eapidk-code-r76-trunk/apps/EeePProg/linux/../../common/EApiAHStr.c ****       EApiAHGetStringAlloc, 
 1096              		.loc 1 164 3 is_stmt 1 view .LVU288
 1097 0520 000054E1 		cmp	r4, r0
 1098 0524 4100003A 		bcc	.L84
 1099              	.LVL100:
 1100              	.LBB44:
 1101              	.LBB45:
 1102              	.LBB46:
 1103              	.LBB47:
 534:/home/hkh/git/eapidk-code-r76-trunk/apps/EeePProg/linux/../../common/EApiAHStr.c ****     if(*pszCurChar=='\0')
 1104              		.loc 1 534 27 view .LVU289
 534:/home/hkh/git/eapidk-code-r76-trunk/apps/EeePProg/linux/../../common/EApiAHStr.c ****     if(*pszCurChar=='\0')
 1105              		.loc 1 534 36 is_stmt 0 view .LVU290
 1106 0528 016044E2 		sub	r6, r4, #1
 1107              	.LVL101:
 534:/home/hkh/git/eapidk-code-r76-trunk/apps/EeePProg/linux/../../common/EApiAHStr.c ****     if(*pszCurChar=='\0')
 1108              		.loc 1 534 36 view .LVU291
 1109 052c 0530A0E1 		mov	r3, r5
 1110 0530 052084E0 		add	r2, r4, r5
 1111 0534 020000EA 		b	.L85
 1112              	.LVL102:
ARM GAS  /tmp/ccQkFBoM.s 			page 34


 1113              	.L97:
 534:/home/hkh/git/eapidk-code-r76-trunk/apps/EeePProg/linux/../../common/EApiAHStr.c ****     if(*pszCurChar=='\0')
 1114              		.loc 1 534 50 is_stmt 1 view .LVU292
 534:/home/hkh/git/eapidk-code-r76-trunk/apps/EeePProg/linux/../../common/EApiAHStr.c ****     if(*pszCurChar=='\0')
 1115              		.loc 1 534 27 is_stmt 0 view .LVU293
 1116 0538 020053E1 		cmp	r3, r2
 534:/home/hkh/git/eapidk-code-r76-trunk/apps/EeePProg/linux/../../common/EApiAHStr.c ****     if(*pszCurChar=='\0')
 1117              		.loc 1 534 50 view .LVU294
 1118 053c 03C0A0E1 		mov	ip, r3
 1119              	.LVL103:
 534:/home/hkh/git/eapidk-code-r76-trunk/apps/EeePProg/linux/../../common/EApiAHStr.c ****     if(*pszCurChar=='\0')
 1120              		.loc 1 534 27 is_stmt 1 view .LVU295
 534:/home/hkh/git/eapidk-code-r76-trunk/apps/EeePProg/linux/../../common/EApiAHStr.c ****     if(*pszCurChar=='\0')
 1121              		.loc 1 534 27 is_stmt 0 view .LVU296
 1122 0540 0400000A 		beq	.L86
 1123              	.LVL104:
 1124              	.L85:
 534:/home/hkh/git/eapidk-code-r76-trunk/apps/EeePProg/linux/../../common/EApiAHStr.c ****     if(*pszCurChar=='\0')
 1125              		.loc 1 534 27 view .LVU297
 1126 0544 03C0A0E1 		mov	ip, r3
 1127              	.LVL105:
 535:/home/hkh/git/eapidk-code-r76-trunk/apps/EeePProg/linux/../../common/EApiAHStr.c ****       break;
 1128              		.loc 1 535 5 is_stmt 1 view .LVU298
 1129 0548 013083E2 		add	r3, r3, #1
 535:/home/hkh/git/eapidk-code-r76-trunk/apps/EeePProg/linux/../../common/EApiAHStr.c ****       break;
 1130              		.loc 1 535 7 is_stmt 0 view .LVU299
 1131 054c 00E0DCE5 		ldrb	lr, [ip]	@ zero_extendqisi2
 1132 0550 00005EE3 		cmp	lr, #0
 1133 0554 F7FFFF1A 		bne	.L97
 1134              	.L86:
 537:/home/hkh/git/eapidk-code-r76-trunk/apps/EeePProg/linux/../../common/EApiAHStr.c **** }
 1135              		.loc 1 537 3 is_stmt 1 view .LVU300
 1136              	.LVL106:
 537:/home/hkh/git/eapidk-code-r76-trunk/apps/EeePProg/linux/../../common/EApiAHStr.c **** }
 1137              		.loc 1 537 21 is_stmt 0 view .LVU301
 1138 0558 05C04CE0 		sub	ip, ip, r5
 1139              	.LBE47:
 1140              	.LBE46:
 1141              	.LBE45:
 1142              	.LBE44:
 170:/home/hkh/git/eapidk-code-r76-trunk/apps/EeePProg/linux/../../common/EApiAHStr.c ****   {
 1143              		.loc 1 170 5 view .LVU302
 1144 055c 0C0054E1 		cmp	r4, ip
 1145 0560 1F00000A 		beq	.L98
 1146              	.LVL107:
 1147              	.L78:
 153:/home/hkh/git/eapidk-code-r76-trunk/apps/EeePProg/linux/../../common/EApiAHStr.c ****   size_t StatusCode=EAPI_INVALID_STRLEN;
 1148              		.loc 1 153 1 view .LVU303
 1149 0564 28219FE5 		ldr	r2, .L100+8
 184:/home/hkh/git/eapidk-code-r76-trunk/apps/EeePProg/linux/../../common/EApiAHStr.c **** 
 1150              		.loc 1 184 1 view .LVU304
 1151 0568 20319FE5 		ldr	r3, .L100+4
 153:/home/hkh/git/eapidk-code-r76-trunk/apps/EeePProg/linux/../../common/EApiAHStr.c ****   size_t StatusCode=EAPI_INVALID_STRLEN;
 1152              		.loc 1 153 1 view .LVU305
 1153              	.LPIC42:
 1154 056c 02208FE0 		add	r2, pc, r2
 184:/home/hkh/git/eapidk-code-r76-trunk/apps/EeePProg/linux/../../common/EApiAHStr.c **** 
ARM GAS  /tmp/ccQkFBoM.s 			page 35


 1155              		.loc 1 184 1 view .LVU306
 1156 0570 033092E7 		ldr	r3, [r2, r3]
 1157 0574 002093E5 		ldr	r2, [r3]
 1158 0578 14309DE5 		ldr	r3, [sp, #20]
 1159 057c 022033E0 		eors	r2, r3, r2
 1160 0580 0030A0E3 		mov	r3, #0
 1161 0584 3F00001A 		bne	.L99
 1162 0588 18D08DE2 		add	sp, sp, #24
 1163              		.cfi_remember_state
 1164              		.cfi_def_cfa_offset 16
 1165              		@ sp needed
 1166 058c 7080BDE8 		pop	{r4, r5, r6, pc}
 1167              	.LVL108:
 1168              	.L82:
 1169              		.cfi_restore_state
 162:/home/hkh/git/eapidk-code-r76-trunk/apps/EeePProg/linux/../../common/EApiAHStr.c **** #if (STRICT_VALIDATION>0)
 1170              		.loc 1 162 7 is_stmt 1 view .LVU307
 162:/home/hkh/git/eapidk-code-r76-trunk/apps/EeePProg/linux/../../common/EApiAHStr.c **** #if (STRICT_VALIDATION>0)
 1171              		.loc 1 162 30 is_stmt 0 view .LVU308
 1172 0590 0420A0E1 		mov	r2, r4
 1173 0594 0510A0E1 		mov	r1, r5
 1174 0598 FEFFFFEB 		bl	EApiAHCreateErrorString(PLT)
 1175              	.LVL109:
 162:/home/hkh/git/eapidk-code-r76-trunk/apps/EeePProg/linux/../../common/EApiAHStr.c **** #if (STRICT_VALIDATION>0)
 1176              		.loc 1 162 19 view .LVU309
 1177 059c 10008DE5 		str	r0, [sp, #16]
 1178 05a0 DEFFFFEA 		b	.L83
 1179              	.LVL110:
 1180              	.L96:
 158:/home/hkh/git/eapidk-code-r76-trunk/apps/EeePProg/linux/../../common/EApiAHStr.c **** 
 1181              		.loc 1 158 3 is_stmt 1 discriminator 1 view .LVU310
 158:/home/hkh/git/eapidk-code-r76-trunk/apps/EeePProg/linux/../../common/EApiAHStr.c **** 
 1182              		.loc 1 158 3 discriminator 1 view .LVU311
 1183 05a4 ECC09FE5 		ldr	ip, .L100+12
 1184 05a8 0040E0E3 		mvn	r4, #0
 1185              	.LVL111:
 158:/home/hkh/git/eapidk-code-r76-trunk/apps/EeePProg/linux/../../common/EApiAHStr.c **** 
 1186              		.loc 1 158 3 is_stmt 0 discriminator 1 view .LVU312
 1187 05ac E8009FE5 		ldr	r0, .L100+16
 1188              	.LVL112:
 158:/home/hkh/git/eapidk-code-r76-trunk/apps/EeePProg/linux/../../common/EApiAHStr.c **** 
 1189              		.loc 1 158 3 discriminator 1 view .LVU313
 1190 05b0 9E30A0E3 		mov	r3, #158
 1191 05b4 E4209FE5 		ldr	r2, .L100+20
 1192 05b8 E4109FE5 		ldr	r1, .L100+24
 1193              	.LVL113:
 158:/home/hkh/git/eapidk-code-r76-trunk/apps/EeePProg/linux/../../common/EApiAHStr.c **** 
 1194              		.loc 1 158 3 discriminator 1 view .LVU314
 1195              	.LPIC32:
 1196 05bc 0CC08FE0 		add	ip, pc, ip
 1197              	.LPIC33:
 1198 05c0 00008FE0 		add	r0, pc, r0
 1199              	.LPIC30:
 1200 05c4 02208FE0 		add	r2, pc, r2
 1201              	.LPIC31:
 1202 05c8 01108FE0 		add	r1, pc, r1
 1203              	.LVL114:
ARM GAS  /tmp/ccQkFBoM.s 			page 36


 1204              	.L94:
 158:/home/hkh/git/eapidk-code-r76-trunk/apps/EeePProg/linux/../../common/EApiAHStr.c **** 
 1205              		.loc 1 158 3 discriminator 1 view .LVU315
 1206 05cc 01108DE9 		stmib	sp, {r0, ip}
 1207 05d0 4500A0E3 		mov	r0, #69
 1208 05d4 00408DE5 		str	r4, [sp]
 1209 05d8 FEFFFFEB 		bl	siFormattedMessage_SC(PLT)
 1210              	.LVL115:
 158:/home/hkh/git/eapidk-code-r76-trunk/apps/EeePProg/linux/../../common/EApiAHStr.c **** 
 1211              		.loc 1 158 3 is_stmt 1 discriminator 1 view .LVU316
 158:/home/hkh/git/eapidk-code-r76-trunk/apps/EeePProg/linux/../../common/EApiAHStr.c **** 
 1212              		.loc 1 158 3 discriminator 1 view .LVU317
 158:/home/hkh/git/eapidk-code-r76-trunk/apps/EeePProg/linux/../../common/EApiAHStr.c **** 
 1213              		.loc 1 158 3 discriminator 1 view .LVU318
 1214 05dc 0400A0E1 		mov	r0, r4
 1215 05e0 DFFFFFEA 		b	.L78
 1216              	.LVL116:
 1217              	.L98:
 1218              	.L80:
 172:/home/hkh/git/eapidk-code-r76-trunk/apps/EeePProg/linux/../../common/EApiAHStr.c ****          EApiAHGetString, 
 1219              		.loc 1 172 6 view .LVU319
 1220 05e4 BC109FE5 		ldr	r1, .L100+28
 1221 05e8 0030E0E3 		mvn	r3, #0
 1222 05ec B8209FE5 		ldr	r2, .L100+32
 1223 05f0 4500A0E3 		mov	r0, #69
 1224 05f4 00308DE5 		str	r3, [sp]
 1225 05f8 AC30A0E3 		mov	r3, #172
 1226              	.LPIC40:
 1227 05fc 01108FE0 		add	r1, pc, r1
 1228              	.LPIC41:
 1229 0600 02208FE0 		add	r2, pc, r2
 1230 0604 08108DE5 		str	r1, [sp, #8]
 1231 0608 04208DE5 		str	r2, [sp, #4]
 1232 060c 9C109FE5 		ldr	r1, .L100+36
 1233 0610 9C209FE5 		ldr	r2, .L100+40
 1234              	.LPIC39:
 1235 0614 01108FE0 		add	r1, pc, r1
 1236              	.LPIC38:
 1237 0618 02208FE0 		add	r2, pc, r2
 1238 061c FEFFFFEB 		bl	siFormattedMessage_SC(PLT)
 1239              	.LVL117:
 176:/home/hkh/git/eapidk-code-r76-trunk/apps/EeePProg/linux/../../common/EApiAHStr.c ****     pString[StringBufferLenBck-1]=TEXT('\0');
 1240              		.loc 1 176 11 view .LVU320
 177:/home/hkh/git/eapidk-code-r76-trunk/apps/EeePProg/linux/../../common/EApiAHStr.c ****   }
 1241              		.loc 1 177 5 view .LVU321
 177:/home/hkh/git/eapidk-code-r76-trunk/apps/EeePProg/linux/../../common/EApiAHStr.c ****   }
 1242              		.loc 1 177 34 is_stmt 0 view .LVU322
 1243 0620 0030A0E3 		mov	r3, #0
 180:/home/hkh/git/eapidk-code-r76-trunk/apps/EeePProg/linux/../../common/EApiAHStr.c **** EAPI_APP_ASSERT_EXIT
 1244              		.loc 1 180 13 view .LVU323
 1245 0624 10009DE5 		ldr	r0, [sp, #16]
 180:/home/hkh/git/eapidk-code-r76-trunk/apps/EeePProg/linux/../../common/EApiAHStr.c **** EAPI_APP_ASSERT_EXIT
 1246              		.loc 1 180 3 is_stmt 1 view .LVU324
 1247              	.LVL118:
 183:/home/hkh/git/eapidk-code-r76-trunk/apps/EeePProg/linux/../../common/EApiAHStr.c **** }
 1248              		.loc 1 183 3 view .LVU325
 177:/home/hkh/git/eapidk-code-r76-trunk/apps/EeePProg/linux/../../common/EApiAHStr.c ****   }
ARM GAS  /tmp/ccQkFBoM.s 			page 37


 1249              		.loc 1 177 34 is_stmt 0 view .LVU326
 1250 0628 0630C5E7 		strb	r3, [r5, r6]
 183:/home/hkh/git/eapidk-code-r76-trunk/apps/EeePProg/linux/../../common/EApiAHStr.c **** }
 1251              		.loc 1 183 10 view .LVU327
 1252 062c CCFFFFEA 		b	.L78
 1253              	.LVL119:
 1254              	.L84:
 164:/home/hkh/git/eapidk-code-r76-trunk/apps/EeePProg/linux/../../common/EApiAHStr.c ****       EApiAHGetStringAlloc, 
 1255              		.loc 1 164 3 is_stmt 1 discriminator 1 view .LVU328
 164:/home/hkh/git/eapidk-code-r76-trunk/apps/EeePProg/linux/../../common/EApiAHStr.c ****       EApiAHGetStringAlloc, 
 1256              		.loc 1 164 3 discriminator 1 view .LVU329
 1257 0630 80C09FE5 		ldr	ip, .L100+44
 1258 0634 0040E0E3 		mvn	r4, #0
 1259              	.LVL120:
 164:/home/hkh/git/eapidk-code-r76-trunk/apps/EeePProg/linux/../../common/EApiAHStr.c ****       EApiAHGetStringAlloc, 
 1260              		.loc 1 164 3 is_stmt 0 discriminator 1 view .LVU330
 1261 0638 7C009FE5 		ldr	r0, .L100+48
 1262 063c A430A0E3 		mov	r3, #164
 1263 0640 78209FE5 		ldr	r2, .L100+52
 1264 0644 78109FE5 		ldr	r1, .L100+56
 1265              	.LPIC36:
 1266 0648 0CC08FE0 		add	ip, pc, ip
 1267              	.LPIC37:
 1268 064c 00008FE0 		add	r0, pc, r0
 1269              	.LPIC34:
 1270 0650 02208FE0 		add	r2, pc, r2
 1271              	.LPIC35:
 1272 0654 01108FE0 		add	r1, pc, r1
 1273 0658 DBFFFFEA 		b	.L94
 1274              	.LVL121:
 1275              	.L95:
 157:/home/hkh/git/eapidk-code-r76-trunk/apps/EeePProg/linux/../../common/EApiAHStr.c ****   EAPI_APP_ASSERT_PARAMATER_ZERO(EApiAHGetString, EAPI_INVALID_STRLEN, StrBufLen);
 1276              		.loc 1 157 3 is_stmt 1 discriminator 1 view .LVU331
 157:/home/hkh/git/eapidk-code-r76-trunk/apps/EeePProg/linux/../../common/EApiAHStr.c ****   EAPI_APP_ASSERT_PARAMATER_ZERO(EApiAHGetString, EAPI_INVALID_STRLEN, StrBufLen);
 1277              		.loc 1 157 3 discriminator 1 view .LVU332
 1278 065c 64C09FE5 		ldr	ip, .L100+60
 1279 0660 0040E0E3 		mvn	r4, #0
 1280              	.LVL122:
 157:/home/hkh/git/eapidk-code-r76-trunk/apps/EeePProg/linux/../../common/EApiAHStr.c ****   EAPI_APP_ASSERT_PARAMATER_ZERO(EApiAHGetString, EAPI_INVALID_STRLEN, StrBufLen);
 1281              		.loc 1 157 3 is_stmt 0 discriminator 1 view .LVU333
 1282 0664 60009FE5 		ldr	r0, .L100+64
 1283              	.LVL123:
 157:/home/hkh/git/eapidk-code-r76-trunk/apps/EeePProg/linux/../../common/EApiAHStr.c ****   EAPI_APP_ASSERT_PARAMATER_ZERO(EApiAHGetString, EAPI_INVALID_STRLEN, StrBufLen);
 1284              		.loc 1 157 3 discriminator 1 view .LVU334
 1285 0668 9D30A0E3 		mov	r3, #157
 1286 066c 5C209FE5 		ldr	r2, .L100+68
 1287 0670 5C109FE5 		ldr	r1, .L100+72
 1288              	.LVL124:
 157:/home/hkh/git/eapidk-code-r76-trunk/apps/EeePProg/linux/../../common/EApiAHStr.c ****   EAPI_APP_ASSERT_PARAMATER_ZERO(EApiAHGetString, EAPI_INVALID_STRLEN, StrBufLen);
 1289              		.loc 1 157 3 discriminator 1 view .LVU335
 1290              	.LPIC28:
 1291 0674 0CC08FE0 		add	ip, pc, ip
 1292              	.LPIC29:
 1293 0678 00008FE0 		add	r0, pc, r0
 1294              	.LPIC26:
 1295 067c 02208FE0 		add	r2, pc, r2
 1296              	.LPIC27:
ARM GAS  /tmp/ccQkFBoM.s 			page 38


 1297 0680 01108FE0 		add	r1, pc, r1
 1298 0684 D0FFFFEA 		b	.L94
 1299              	.LVL125:
 1300              	.L99:
 184:/home/hkh/git/eapidk-code-r76-trunk/apps/EeePProg/linux/../../common/EApiAHStr.c **** 
 1301              		.loc 1 184 1 view .LVU336
 1302 0688 FEFFFFEB 		bl	__stack_chk_fail(PLT)
 1303              	.LVL126:
 1304              	.L101:
 1305              		.align	2
 1306              	.L100:
 1307 068c 9C010000 		.word	_GLOBAL_OFFSET_TABLE_-(.LPIC43+8)
 1308 0690 00000000 		.word	__stack_chk_guard(GOT)
 1309 0694 20010000 		.word	_GLOBAL_OFFSET_TABLE_-(.LPIC42+8)
 1310 0698 D4000000 		.word	.LC6-(.LPIC32+8)
 1311 069c D4000000 		.word	.LC3-(.LPIC33+8)
 1312 06a0 D4000000 		.word	.LC8-(.LPIC30+8)
 1313 06a4 D4000000 		.word	.LC1-(.LPIC31+8)
 1314 06a8 A4000000 		.word	.LC11-(.LPIC40+8)
 1315 06ac A4000000 		.word	.LC3-(.LPIC41+8)
 1316 06b0 94000000 		.word	.LC1-(.LPIC39+8)
 1317 06b4 94000000 		.word	.LC8-(.LPIC38+8)
 1318 06b8 68000000 		.word	.LC10-(.LPIC36+8)
 1319 06bc 68000000 		.word	.LC3-(.LPIC37+8)
 1320 06c0 68000000 		.word	.LC9-(.LPIC34+8)
 1321 06c4 68000000 		.word	.LC1-(.LPIC35+8)
 1322 06c8 4C000000 		.word	.LC2-(.LPIC28+8)
 1323 06cc 4C000000 		.word	.LC3-(.LPIC29+8)
 1324 06d0 4C000000 		.word	.LC8-(.LPIC26+8)
 1325 06d4 4C000000 		.word	.LC1-(.LPIC27+8)
 1326              		.cfi_endproc
 1327              	.LFE3:
 1329              		.section	.rodata.str1.4
 1330 015e 0000     		.align	2
 1331              	.LC12:
 1332 0160 45417069 		.ascii	"EApiAHCreateErrorStringAlloc\000"
 1332      41484372 
 1332      65617465 
 1332      4572726F 
 1332      72537472 
 1333              		.text
 1334              		.align	2
 1335              		.global	EApiAHCreateErrorStringAlloc
 1336              		.syntax unified
 1337              		.arm
 1338              		.fpu vfpv3
 1340              	EApiAHCreateErrorStringAlloc:
 1341              	.LVL127:
 1342              	.LFB2:
 117:/home/hkh/git/eapidk-code-r76-trunk/apps/EeePProg/linux/../../common/EApiAHStr.c ****   EApiStatus_t StatusCode=EAPI_STATUS_SUCCESS;
 1343              		.loc 1 117 1 is_stmt 1 view -0
 1344              		.cfi_startproc
 1345              		@ args = 0, pretend = 0, frame = 0
 1346              		@ frame_needed = 0, uses_anonymous_args = 0
 118:/home/hkh/git/eapidk-code-r76-trunk/apps/EeePProg/linux/../../common/EApiAHStr.c ****   unsigned i;
 1347              		.loc 1 118 3 view .LVU338
 119:/home/hkh/git/eapidk-code-r76-trunk/apps/EeePProg/linux/../../common/EApiAHStr.c ****   size_t StrLen;
ARM GAS  /tmp/ccQkFBoM.s 			page 39


 1348              		.loc 1 119 3 view .LVU339
 120:/home/hkh/git/eapidk-code-r76-trunk/apps/EeePProg/linux/../../common/EApiAHStr.c **** 
 1349              		.loc 1 120 3 view .LVU340
 122:/home/hkh/git/eapidk-code-r76-trunk/apps/EeePProg/linux/../../common/EApiAHStr.c **** 
 1350              		.loc 1 122 3 view .LVU341
 117:/home/hkh/git/eapidk-code-r76-trunk/apps/EeePProg/linux/../../common/EApiAHStr.c ****   EApiStatus_t StatusCode=EAPI_STATUS_SUCCESS;
 1351              		.loc 1 117 1 is_stmt 0 view .LVU342
 1352 06d8 F0412DE9 		push	{r4, r5, r6, r7, r8, lr}
 1353              		.cfi_def_cfa_offset 24
 1354              		.cfi_offset 4, -24
 1355              		.cfi_offset 5, -20
 1356              		.cfi_offset 6, -16
 1357              		.cfi_offset 7, -12
 1358              		.cfi_offset 8, -8
 1359              		.cfi_offset 14, -4
 122:/home/hkh/git/eapidk-code-r76-trunk/apps/EeePProg/linux/../../common/EApiAHStr.c **** 
 1360              		.loc 1 122 3 view .LVU343
 1361 06dc 005051E2 		subs	r5, r1, #0
 117:/home/hkh/git/eapidk-code-r76-trunk/apps/EeePProg/linux/../../common/EApiAHStr.c ****   EApiStatus_t StatusCode=EAPI_STATUS_SUCCESS;
 1362              		.loc 1 117 1 view .LVU344
 1363 06e0 10D04DE2 		sub	sp, sp, #16
 1364              		.cfi_def_cfa_offset 40
 122:/home/hkh/git/eapidk-code-r76-trunk/apps/EeePProg/linux/../../common/EApiAHStr.c **** 
 1365              		.loc 1 122 3 view .LVU345
 1366 06e4 2B00000A 		beq	.L116
 126:/home/hkh/git/eapidk-code-r76-trunk/apps/EeePProg/linux/../../common/EApiAHStr.c ****       StrLen=EAPI_strlen(ErrorLookup[i].ErrorString)+1;
 1367              		.loc 1 126 22 view .LVU346
 1368 06e8 E8309FE5 		ldr	r3, .L118
 1369 06ec 0040A0E1 		mov	r4, r0
 124:/home/hkh/git/eapidk-code-r76-trunk/apps/EeePProg/linux/../../common/EApiAHStr.c ****   {
 1370              		.loc 1 124 8 view .LVU347
 1371 06f0 0020A0E3 		mov	r2, #0
 126:/home/hkh/git/eapidk-code-r76-trunk/apps/EeePProg/linux/../../common/EApiAHStr.c ****       StrLen=EAPI_strlen(ErrorLookup[i].ErrorString)+1;
 1372              		.loc 1 126 22 view .LVU348
 1373              	.LPIC48:
 1374 06f4 03308FE0 		add	r3, pc, r3
 1375 06f8 020000EA 		b	.L103
 1376              	.LVL128:
 1377              	.L105:
 124:/home/hkh/git/eapidk-code-r76-trunk/apps/EeePProg/linux/../../common/EApiAHStr.c ****   {
 1378              		.loc 1 124 39 discriminator 2 view .LVU349
 1379 06fc 012082E2 		add	r2, r2, #1
 1380              	.LVL129:
 124:/home/hkh/git/eapidk-code-r76-trunk/apps/EeePProg/linux/../../common/EApiAHStr.c ****   {
 1381              		.loc 1 124 13 is_stmt 1 discriminator 2 view .LVU350
 1382 0700 130052E3 		cmp	r2, #19
 1383 0704 1600000A 		beq	.L117
 1384              	.LVL130:
 1385              	.L103:
 126:/home/hkh/git/eapidk-code-r76-trunk/apps/EeePProg/linux/../../common/EApiAHStr.c ****       StrLen=EAPI_strlen(ErrorLookup[i].ErrorString)+1;
 1386              		.loc 1 126 5 view .LVU351
 124:/home/hkh/git/eapidk-code-r76-trunk/apps/EeePProg/linux/../../common/EApiAHStr.c ****   {
 1387              		.loc 1 124 39 view .LVU352
 126:/home/hkh/git/eapidk-code-r76-trunk/apps/EeePProg/linux/../../common/EApiAHStr.c ****       StrLen=EAPI_strlen(ErrorLookup[i].ErrorString)+1;
 1388              		.loc 1 126 7 is_stmt 0 view .LVU353
 1389 0708 82C193E7 		ldr	ip, [r3, r2, lsl #3]
 1390 070c 04005CE1 		cmp	ip, r4
ARM GAS  /tmp/ccQkFBoM.s 			page 40


 1391 0710 F9FFFF1A 		bne	.L105
 127:/home/hkh/git/eapidk-code-r76-trunk/apps/EeePProg/linux/../../common/EApiAHStr.c ****       *pString=malloc(StrLen*sizeof(TCHAR));
 1392              		.loc 1 127 7 is_stmt 1 view .LVU354
 127:/home/hkh/git/eapidk-code-r76-trunk/apps/EeePProg/linux/../../common/EApiAHStr.c ****       *pString=malloc(StrLen*sizeof(TCHAR));
 1393              		.loc 1 127 40 is_stmt 0 view .LVU355
 1394 0714 823183E0 		add	r3, r3, r2, lsl #3
 1395 0718 047093E5 		ldr	r7, [r3, #4]
 127:/home/hkh/git/eapidk-code-r76-trunk/apps/EeePProg/linux/../../common/EApiAHStr.c ****       *pString=malloc(StrLen*sizeof(TCHAR));
 1396              		.loc 1 127 14 view .LVU356
 1397 071c 0700A0E1 		mov	r0, r7
 1398              	.LVL131:
 127:/home/hkh/git/eapidk-code-r76-trunk/apps/EeePProg/linux/../../common/EApiAHStr.c ****       *pString=malloc(StrLen*sizeof(TCHAR));
 1399              		.loc 1 127 14 view .LVU357
 1400 0720 FEFFFFEB 		bl	strlen(PLT)
 1401              	.LVL132:
 127:/home/hkh/git/eapidk-code-r76-trunk/apps/EeePProg/linux/../../common/EApiAHStr.c ****       *pString=malloc(StrLen*sizeof(TCHAR));
 1402              		.loc 1 127 13 view .LVU358
 1403 0724 018080E2 		add	r8, r0, #1
 1404              	.LVL133:
 128:/home/hkh/git/eapidk-code-r76-trunk/apps/EeePProg/linux/../../common/EApiAHStr.c ****       if(*pString!=NULL)
 1405              		.loc 1 128 7 is_stmt 1 view .LVU359
 127:/home/hkh/git/eapidk-code-r76-trunk/apps/EeePProg/linux/../../common/EApiAHStr.c ****       *pString=malloc(StrLen*sizeof(TCHAR));
 1406              		.loc 1 127 14 is_stmt 0 view .LVU360
 1407 0728 0060A0E1 		mov	r6, r0
 128:/home/hkh/git/eapidk-code-r76-trunk/apps/EeePProg/linux/../../common/EApiAHStr.c ****       if(*pString!=NULL)
 1408              		.loc 1 128 16 view .LVU361
 1409 072c 0800A0E1 		mov	r0, r8
 1410 0730 FEFFFFEB 		bl	malloc(PLT)
 1411              	.LVL134:
 129:/home/hkh/git/eapidk-code-r76-trunk/apps/EeePProg/linux/../../common/EApiAHStr.c ****         EApiStrCpy(*pString, StrLen, ErrorLookup[i].ErrorString);
 1412              		.loc 1 129 9 view .LVU362
 1413 0734 000050E3 		cmp	r0, #0
 128:/home/hkh/git/eapidk-code-r76-trunk/apps/EeePProg/linux/../../common/EApiAHStr.c ****       if(*pString!=NULL)
 1414              		.loc 1 128 16 view .LVU363
 1415 0738 0040A0E1 		mov	r4, r0
 1416              	.LVL135:
 128:/home/hkh/git/eapidk-code-r76-trunk/apps/EeePProg/linux/../../common/EApiAHStr.c ****       if(*pString!=NULL)
 1417              		.loc 1 128 15 view .LVU364
 1418 073c 000085E5 		str	r0, [r5]
 129:/home/hkh/git/eapidk-code-r76-trunk/apps/EeePProg/linux/../../common/EApiAHStr.c ****         EApiStrCpy(*pString, StrLen, ErrorLookup[i].ErrorString);
 1419              		.loc 1 129 7 is_stmt 1 view .LVU365
 129:/home/hkh/git/eapidk-code-r76-trunk/apps/EeePProg/linux/../../common/EApiAHStr.c ****         EApiStrCpy(*pString, StrLen, ErrorLookup[i].ErrorString);
 1420              		.loc 1 129 9 is_stmt 0 view .LVU366
 1421 0740 1100000A 		beq	.L115
 130:/home/hkh/git/eapidk-code-r76-trunk/apps/EeePProg/linux/../../common/EApiAHStr.c ****       StatusCode=EAPI_STATUS_SUCCESS;
 1422              		.loc 1 130 9 is_stmt 1 view .LVU367
 1423              	.LVL136:
 1424              	.LBB56:
 1425              	.LBI56:
 541:/home/hkh/git/eapidk-code-r76-trunk/apps/EeePProg/linux/../../common/EApiAHStr.c ****     __OUT TCHAR *const      StringDest   ,
 1426              		.loc 1 541 1 view .LVU368
 547:/home/hkh/git/eapidk-code-r76-trunk/apps/EeePProg/linux/../../common/EApiAHStr.c ****   if(StringSource==NULL) return StringDest;
 1427              		.loc 1 547 3 view .LVU369
 548:/home/hkh/git/eapidk-code-r76-trunk/apps/EeePProg/linux/../../common/EApiAHStr.c ****   if(StrBufLen==0   ) return StringDest;
 1428              		.loc 1 548 3 view .LVU370
 549:/home/hkh/git/eapidk-code-r76-trunk/apps/EeePProg/linux/../../common/EApiAHStr.c **** 
 1429              		.loc 1 549 3 view .LVU371
ARM GAS  /tmp/ccQkFBoM.s 			page 41


 1430              	.LBB57:
 1431              	.LBI57:
 541:/home/hkh/git/eapidk-code-r76-trunk/apps/EeePProg/linux/../../common/EApiAHStr.c ****     __OUT TCHAR *const      StringDest   ,
 1432              		.loc 1 541 1 view .LVU372
 1433              	.LBB58:
 551:/home/hkh/git/eapidk-code-r76-trunk/apps/EeePProg/linux/../../common/EApiAHStr.c ****   StringDest[StrBufLen-1]=TEXT('\0');
 1434              		.loc 1 551 3 view .LVU373
 1435 0744 0820A0E1 		mov	r2, r8
 1436 0748 0710A0E1 		mov	r1, r7
 1437 074c FEFFFFEB 		bl	strncpy(PLT)
 1438              	.LVL137:
 552:/home/hkh/git/eapidk-code-r76-trunk/apps/EeePProg/linux/../../common/EApiAHStr.c ****   return StringDest;
 1439              		.loc 1 552 3 view .LVU374
 552:/home/hkh/git/eapidk-code-r76-trunk/apps/EeePProg/linux/../../common/EApiAHStr.c ****   return StringDest;
 1440              		.loc 1 552 26 is_stmt 0 view .LVU375
 1441 0750 0030A0E3 		mov	r3, #0
 1442              	.LBE58:
 1443              	.LBE57:
 1444              	.LBE56:
 131:/home/hkh/git/eapidk-code-r76-trunk/apps/EeePProg/linux/../../common/EApiAHStr.c ****       goto SuccessExit;
 1445              		.loc 1 131 17 view .LVU376
 1446 0754 0300A0E1 		mov	r0, r3
 1447              	.LBB61:
 1448              	.LBB60:
 1449              	.LBB59:
 552:/home/hkh/git/eapidk-code-r76-trunk/apps/EeePProg/linux/../../common/EApiAHStr.c ****   return StringDest;
 1450              		.loc 1 552 26 view .LVU377
 1451 0758 0630C4E7 		strb	r3, [r4, r6]
 553:/home/hkh/git/eapidk-code-r76-trunk/apps/EeePProg/linux/../../common/EApiAHStr.c **** }
 1452              		.loc 1 553 3 is_stmt 1 view .LVU378
 1453              	.LVL138:
 1454              	.L102:
 553:/home/hkh/git/eapidk-code-r76-trunk/apps/EeePProg/linux/../../common/EApiAHStr.c **** }
 1455              		.loc 1 553 3 is_stmt 0 view .LVU379
 1456              	.LBE59:
 1457              	.LBE60:
 1458              	.LBE61:
 145:/home/hkh/git/eapidk-code-r76-trunk/apps/EeePProg/linux/../../common/EApiAHStr.c **** 
 1459              		.loc 1 145 1 view .LVU380
 1460 075c 10D08DE2 		add	sp, sp, #16
 1461              		.cfi_remember_state
 1462              		.cfi_def_cfa_offset 24
 1463              		@ sp needed
 1464 0760 F081BDE8 		pop	{r4, r5, r6, r7, r8, pc}
 1465              	.LVL139:
 1466              	.L117:
 1467              		.cfi_restore_state
 135:/home/hkh/git/eapidk-code-r76-trunk/apps/EeePProg/linux/../../common/EApiAHStr.c ****   if(*pString!=NULL)
 1468              		.loc 1 135 3 is_stmt 1 view .LVU381
 135:/home/hkh/git/eapidk-code-r76-trunk/apps/EeePProg/linux/../../common/EApiAHStr.c ****   if(*pString!=NULL)
 1469              		.loc 1 135 12 is_stmt 0 view .LVU382
 1470 0764 1A00A0E3 		mov	r0, #26
 1471              	.LVL140:
 135:/home/hkh/git/eapidk-code-r76-trunk/apps/EeePProg/linux/../../common/EApiAHStr.c ****   if(*pString!=NULL)
 1472              		.loc 1 135 12 view .LVU383
 1473 0768 FEFFFFEB 		bl	malloc(PLT)
 1474              	.LVL141:
ARM GAS  /tmp/ccQkFBoM.s 			page 42


 136:/home/hkh/git/eapidk-code-r76-trunk/apps/EeePProg/linux/../../common/EApiAHStr.c ****     EApiSprintf(*pString, 
 1475              		.loc 1 136 5 view .LVU384
 1476 076c 000050E3 		cmp	r0, #0
 135:/home/hkh/git/eapidk-code-r76-trunk/apps/EeePProg/linux/../../common/EApiAHStr.c ****   if(*pString!=NULL)
 1477              		.loc 1 135 11 view .LVU385
 1478 0770 000085E5 		str	r0, [r5]
 136:/home/hkh/git/eapidk-code-r76-trunk/apps/EeePProg/linux/../../common/EApiAHStr.c ****     EApiSprintf(*pString, 
 1479              		.loc 1 136 3 is_stmt 1 view .LVU386
 136:/home/hkh/git/eapidk-code-r76-trunk/apps/EeePProg/linux/../../common/EApiAHStr.c ****     EApiSprintf(*pString, 
 1480              		.loc 1 136 5 is_stmt 0 view .LVU387
 1481 0774 0400000A 		beq	.L115
 137:/home/hkh/git/eapidk-code-r76-trunk/apps/EeePProg/linux/../../common/EApiAHStr.c ****       UNKNOWN_ERR_LEN, 
 1482              		.loc 1 137 5 is_stmt 1 view .LVU388
 1483 0778 5C209FE5 		ldr	r2, .L118+4
 1484 077c 0430A0E1 		mov	r3, r4
 1485 0780 1A10A0E3 		mov	r1, #26
 1486              	.LPIC50:
 1487 0784 02208FE0 		add	r2, pc, r2
 1488 0788 FEFFFFEB 		bl	EApiSprintf(PLT)
 1489              	.LVL142:
 1490              	.L115:
 1491              	.L104:
 1492              	.L108:
 118:/home/hkh/git/eapidk-code-r76-trunk/apps/EeePProg/linux/../../common/EApiAHStr.c ****   unsigned i;
 1493              		.loc 1 118 16 is_stmt 0 view .LVU389
 1494 078c 0000A0E3 		mov	r0, #0
 144:/home/hkh/git/eapidk-code-r76-trunk/apps/EeePProg/linux/../../common/EApiAHStr.c **** }
 1495              		.loc 1 144 3 is_stmt 1 view .LVU390
 145:/home/hkh/git/eapidk-code-r76-trunk/apps/EeePProg/linux/../../common/EApiAHStr.c **** 
 1496              		.loc 1 145 1 is_stmt 0 view .LVU391
 1497 0790 10D08DE2 		add	sp, sp, #16
 1498              		.cfi_remember_state
 1499              		.cfi_def_cfa_offset 24
 1500              		@ sp needed
 1501 0794 F081BDE8 		pop	{r4, r5, r6, r7, r8, pc}
 1502              	.LVL143:
 1503              	.L116:
 1504              		.cfi_restore_state
 1505              	.LBB62:
 1506              	.LBI62:
 113:/home/hkh/git/eapidk-code-r76-trunk/apps/EeePProg/linux/../../common/EApiAHStr.c ****   __IN uint32_t         DispStatusCode  ,
 1507              		.loc 1 113 1 is_stmt 1 view .LVU392
 1508              	.LBB63:
 122:/home/hkh/git/eapidk-code-r76-trunk/apps/EeePProg/linux/../../common/EApiAHStr.c **** 
 1509              		.loc 1 122 3 view .LVU393
 122:/home/hkh/git/eapidk-code-r76-trunk/apps/EeePProg/linux/../../common/EApiAHStr.c **** 
 1510              		.loc 1 122 3 view .LVU394
 1511 0798 40C09FE5 		ldr	ip, .L118+8
 1512 079c 014CE0E3 		mvn	r4, #256
 1513 07a0 3C009FE5 		ldr	r0, .L118+12
 1514              	.LVL144:
 122:/home/hkh/git/eapidk-code-r76-trunk/apps/EeePProg/linux/../../common/EApiAHStr.c **** 
 1515              		.loc 1 122 3 is_stmt 0 view .LVU395
 1516 07a4 7A30A0E3 		mov	r3, #122
 1517 07a8 38209FE5 		ldr	r2, .L118+16
 1518 07ac 38109FE5 		ldr	r1, .L118+20
 1519              	.LVL145:
ARM GAS  /tmp/ccQkFBoM.s 			page 43


 122:/home/hkh/git/eapidk-code-r76-trunk/apps/EeePProg/linux/../../common/EApiAHStr.c **** 
 1520              		.loc 1 122 3 view .LVU396
 1521              	.LPIC46:
 1522 07b0 0CC08FE0 		add	ip, pc, ip
 1523              	.LPIC47:
 1524 07b4 00008FE0 		add	r0, pc, r0
 1525 07b8 00408DE5 		str	r4, [sp]
 1526 07bc 01108DE9 		stmib	sp, {r0, ip}
 1527              	.LPIC44:
 1528 07c0 02208FE0 		add	r2, pc, r2
 1529              	.LPIC45:
 1530 07c4 01108FE0 		add	r1, pc, r1
 1531 07c8 4500A0E3 		mov	r0, #69
 1532 07cc FEFFFFEB 		bl	siFormattedMessage_SC(PLT)
 1533              	.LVL146:
 122:/home/hkh/git/eapidk-code-r76-trunk/apps/EeePProg/linux/../../common/EApiAHStr.c **** 
 1534              		.loc 1 122 3 is_stmt 1 view .LVU397
 122:/home/hkh/git/eapidk-code-r76-trunk/apps/EeePProg/linux/../../common/EApiAHStr.c **** 
 1535              		.loc 1 122 3 view .LVU398
 122:/home/hkh/git/eapidk-code-r76-trunk/apps/EeePProg/linux/../../common/EApiAHStr.c **** 
 1536              		.loc 1 122 3 view .LVU399
 1537              	.LDL1:
 1538              	.LDL2:
 144:/home/hkh/git/eapidk-code-r76-trunk/apps/EeePProg/linux/../../common/EApiAHStr.c **** }
 1539              		.loc 1 144 3 view .LVU400
 122:/home/hkh/git/eapidk-code-r76-trunk/apps/EeePProg/linux/../../common/EApiAHStr.c **** 
 1540              		.loc 1 122 3 is_stmt 0 view .LVU401
 1541 07d0 0400A0E1 		mov	r0, r4
 1542 07d4 E0FFFFEA 		b	.L102
 1543              	.L119:
 1544              		.align	2
 1545              	.L118:
 1546 07d8 DC000000 		.word	.LANCHOR1-(.LPIC48+8)
 1547 07dc 50000000 		.word	.LC7-(.LPIC50+8)
 1548 07e0 28000000 		.word	.LC2-(.LPIC46+8)
 1549 07e4 28000000 		.word	.LC3-(.LPIC47+8)
 1550 07e8 20000000 		.word	.LC12-(.LPIC44+8)
 1551 07ec 20000000 		.word	.LC1-(.LPIC45+8)
 1552              	.LBE63:
 1553              	.LBE62:
 1554              		.cfi_endproc
 1555              	.LFE2:
 1557              		.section	.rodata.str1.4
 1558 017d 000000   		.align	2
 1559              	.LC13:
 1560 0180 4D656D6F 		.ascii	"Memory Allocation Error\000"
 1560      72792041 
 1560      6C6C6F63 
 1560      6174696F 
 1560      6E204572 
 1561              		.text
 1562              		.align	2
 1563              		.global	EApiAHGetStringAlloc
 1564              		.syntax unified
 1565              		.arm
 1566              		.fpu vfpv3
 1568              	EApiAHGetStringAlloc:
ARM GAS  /tmp/ccQkFBoM.s 			page 44


 1569              	.LVL147:
 1570              	.LFB4:
 193:/home/hkh/git/eapidk-code-r76-trunk/apps/EeePProg/linux/../../common/EApiAHStr.c ****   EApiStatus_t StatusCode=EAPI_STATUS_SUCCESS;
 1571              		.loc 1 193 1 is_stmt 1 view -0
 1572              		.cfi_startproc
 1573              		@ args = 0, pretend = 0, frame = 8
 1574              		@ frame_needed = 0, uses_anonymous_args = 0
 193:/home/hkh/git/eapidk-code-r76-trunk/apps/EeePProg/linux/../../common/EApiAHStr.c ****   EApiStatus_t StatusCode=EAPI_STATUS_SUCCESS;
 1575              		.loc 1 193 1 is_stmt 0 view .LVU403
 1576 07f0 F4219FE5 		ldr	r2, .L143
 1577 07f4 F4319FE5 		ldr	r3, .L143+4
 1578 07f8 F0432DE9 		push	{r4, r5, r6, r7, r8, r9, lr}
 1579              		.cfi_def_cfa_offset 28
 1580              		.cfi_offset 4, -28
 1581              		.cfi_offset 5, -24
 1582              		.cfi_offset 6, -20
 1583              		.cfi_offset 7, -16
 1584              		.cfi_offset 8, -12
 1585              		.cfi_offset 9, -8
 1586              		.cfi_offset 14, -4
 197:/home/hkh/git/eapidk-code-r76-trunk/apps/EeePProg/linux/../../common/EApiAHStr.c ****   *pString=NULL;
 1587              		.loc 1 197 3 view .LVU404
 1588 07fc 005051E2 		subs	r5, r1, #0
 193:/home/hkh/git/eapidk-code-r76-trunk/apps/EeePProg/linux/../../common/EApiAHStr.c ****   EApiStatus_t StatusCode=EAPI_STATUS_SUCCESS;
 1589              		.loc 1 193 1 view .LVU405
 1590              	.LPIC68:
 1591 0800 02208FE0 		add	r2, pc, r2
 1592 0804 1CD04DE2 		sub	sp, sp, #28
 1593              		.cfi_def_cfa_offset 56
 195:/home/hkh/git/eapidk-code-r76-trunk/apps/EeePProg/linux/../../common/EApiAHStr.c ****   uint32_t StringBufferLenBck=0;
 1594              		.loc 1 195 12 view .LVU406
 1595 0808 0040A0E3 		mov	r4, #0
 193:/home/hkh/git/eapidk-code-r76-trunk/apps/EeePProg/linux/../../common/EApiAHStr.c ****   EApiStatus_t StatusCode=EAPI_STATUS_SUCCESS;
 1596              		.loc 1 193 1 view .LVU407
 1597 080c 033092E7 		ldr	r3, [r2, r3]
 1598 0810 003093E5 		ldr	r3, [r3]
 1599 0814 14308DE5 		str	r3, [sp, #20]
 1600 0818 0030A0E3 		mov	r3, #0
 194:/home/hkh/git/eapidk-code-r76-trunk/apps/EeePProg/linux/../../common/EApiAHStr.c ****   uint32_t StringLen=0;
 1601              		.loc 1 194 3 is_stmt 1 view .LVU408
 1602              	.LVL148:
 195:/home/hkh/git/eapidk-code-r76-trunk/apps/EeePProg/linux/../../common/EApiAHStr.c ****   uint32_t StringBufferLenBck=0;
 1603              		.loc 1 195 3 view .LVU409
 195:/home/hkh/git/eapidk-code-r76-trunk/apps/EeePProg/linux/../../common/EApiAHStr.c ****   uint32_t StringBufferLenBck=0;
 1604              		.loc 1 195 12 is_stmt 0 view .LVU410
 1605 081c 10408DE5 		str	r4, [sp, #16]
 196:/home/hkh/git/eapidk-code-r76-trunk/apps/EeePProg/linux/../../common/EApiAHStr.c ****   EAPI_APP_ASSERT_PARAMATER_NULL(EApiAHGetString, EAPI_STATUS_INVALID_PARAMETER, pString);
 1606              		.loc 1 196 3 is_stmt 1 view .LVU411
 1607              	.LVL149:
 197:/home/hkh/git/eapidk-code-r76-trunk/apps/EeePProg/linux/../../common/EApiAHStr.c ****   *pString=NULL;
 1608              		.loc 1 197 3 view .LVU412
 1609 0820 4B00000A 		beq	.L137
 199:/home/hkh/git/eapidk-code-r76-trunk/apps/EeePProg/linux/../../common/EApiAHStr.c ****   switch(StatusCode){
 1610              		.loc 1 199 14 is_stmt 0 discriminator 2 view .LVU413
 1611 0824 10808DE2 		add	r8, sp, #16
 1612 0828 0410A0E1 		mov	r1, r4
 1613              	.LVL150:
ARM GAS  /tmp/ccQkFBoM.s 			page 45


 199:/home/hkh/git/eapidk-code-r76-trunk/apps/EeePProg/linux/../../common/EApiAHStr.c ****   switch(StatusCode){
 1614              		.loc 1 199 14 discriminator 2 view .LVU414
 1615 082c 0820A0E1 		mov	r2, r8
 198:/home/hkh/git/eapidk-code-r76-trunk/apps/EeePProg/linux/../../common/EApiAHStr.c ****   StatusCode=EApiBoardGetString(StringID, *pString, &StringLen);
 1616              		.loc 1 198 11 discriminator 2 view .LVU415
 1617 0830 004085E5 		str	r4, [r5]
 1618 0834 0090A0E1 		mov	r9, r0
 197:/home/hkh/git/eapidk-code-r76-trunk/apps/EeePProg/linux/../../common/EApiAHStr.c ****   *pString=NULL;
 1619              		.loc 1 197 3 is_stmt 1 discriminator 2 view .LVU416
 197:/home/hkh/git/eapidk-code-r76-trunk/apps/EeePProg/linux/../../common/EApiAHStr.c ****   *pString=NULL;
 1620              		.loc 1 197 90 discriminator 2 view .LVU417
 198:/home/hkh/git/eapidk-code-r76-trunk/apps/EeePProg/linux/../../common/EApiAHStr.c ****   StatusCode=EApiBoardGetString(StringID, *pString, &StringLen);
 1621              		.loc 1 198 3 discriminator 2 view .LVU418
 199:/home/hkh/git/eapidk-code-r76-trunk/apps/EeePProg/linux/../../common/EApiAHStr.c ****   switch(StatusCode){
 1622              		.loc 1 199 3 discriminator 2 view .LVU419
 199:/home/hkh/git/eapidk-code-r76-trunk/apps/EeePProg/linux/../../common/EApiAHStr.c ****   switch(StatusCode){
 1623              		.loc 1 199 14 is_stmt 0 discriminator 2 view .LVU420
 1624 0838 FEFFFFEB 		bl	EApiBoardGetStringA(PLT)
 1625              	.LVL151:
 200:/home/hkh/git/eapidk-code-r76-trunk/apps/EeePProg/linux/../../common/EApiAHStr.c ****     case EAPI_STATUS_MORE_DATA:
 1626              		.loc 1 200 3 discriminator 2 view .LVU421
 1627 083c 063CE0E3 		mvn	r3, #1536
 199:/home/hkh/git/eapidk-code-r76-trunk/apps/EeePProg/linux/../../common/EApiAHStr.c ****   switch(StatusCode){
 1628              		.loc 1 199 14 discriminator 2 view .LVU422
 1629 0840 0060A0E1 		mov	r6, r0
 1630              	.LVL152:
 200:/home/hkh/git/eapidk-code-r76-trunk/apps/EeePProg/linux/../../common/EApiAHStr.c ****     case EAPI_STATUS_MORE_DATA:
 1631              		.loc 1 200 3 is_stmt 1 discriminator 2 view .LVU423
 1632 0844 030050E1 		cmp	r0, r3
 1633 0848 0D00000A 		beq	.L138
 232:/home/hkh/git/eapidk-code-r76-trunk/apps/EeePProg/linux/../../common/EApiAHStr.c ****       break;
 1634              		.loc 1 232 7 view .LVU424
 1635 084c 0510A0E1 		mov	r1, r5
 1636 0850 FEFFFFEB 		bl	EApiAHCreateErrorStringAlloc(PLT)
 1637              	.LVL153:
 233:/home/hkh/git/eapidk-code-r76-trunk/apps/EeePProg/linux/../../common/EApiAHStr.c ****   }
 1638              		.loc 1 233 7 view .LVU425
 237:/home/hkh/git/eapidk-code-r76-trunk/apps/EeePProg/linux/../../common/EApiAHStr.c **** }
 1639              		.loc 1 237 3 view .LVU426
 1640              	.L122:
 1641              	.L120:
 193:/home/hkh/git/eapidk-code-r76-trunk/apps/EeePProg/linux/../../common/EApiAHStr.c ****   EApiStatus_t StatusCode=EAPI_STATUS_SUCCESS;
 1642              		.loc 1 193 1 is_stmt 0 view .LVU427
 1643 0854 98219FE5 		ldr	r2, .L143+8
 238:/home/hkh/git/eapidk-code-r76-trunk/apps/EeePProg/linux/../../common/EApiAHStr.c **** int
 1644              		.loc 1 238 1 view .LVU428
 1645 0858 90319FE5 		ldr	r3, .L143+4
 193:/home/hkh/git/eapidk-code-r76-trunk/apps/EeePProg/linux/../../common/EApiAHStr.c ****   EApiStatus_t StatusCode=EAPI_STATUS_SUCCESS;
 1646              		.loc 1 193 1 view .LVU429
 1647              	.LPIC67:
 1648 085c 02208FE0 		add	r2, pc, r2
 238:/home/hkh/git/eapidk-code-r76-trunk/apps/EeePProg/linux/../../common/EApiAHStr.c **** int
 1649              		.loc 1 238 1 view .LVU430
 1650 0860 033092E7 		ldr	r3, [r2, r3]
 1651 0864 002093E5 		ldr	r2, [r3]
 1652 0868 14309DE5 		ldr	r3, [sp, #20]
 1653 086c 022033E0 		eors	r2, r3, r2
ARM GAS  /tmp/ccQkFBoM.s 			page 46


 1654 0870 0030A0E3 		mov	r3, #0
 1655 0874 5000001A 		bne	.L139
 1656 0878 0600A0E1 		mov	r0, r6
 1657 087c 1CD08DE2 		add	sp, sp, #28
 1658              		.cfi_remember_state
 1659              		.cfi_def_cfa_offset 28
 1660              		@ sp needed
 1661 0880 F083BDE8 		pop	{r4, r5, r6, r7, r8, r9, pc}
 1662              	.LVL154:
 1663              	.L138:
 1664              		.cfi_restore_state
 202:/home/hkh/git/eapidk-code-r76-trunk/apps/EeePProg/linux/../../common/EApiAHStr.c ****       *pString=malloc(StringLen*sizeof(TCHAR));
 1665              		.loc 1 202 7 is_stmt 1 view .LVU431
 202:/home/hkh/git/eapidk-code-r76-trunk/apps/EeePProg/linux/../../common/EApiAHStr.c ****       *pString=malloc(StringLen*sizeof(TCHAR));
 1666              		.loc 1 202 25 is_stmt 0 view .LVU432
 1667 0884 10709DE5 		ldr	r7, [sp, #16]
 1668              	.LVL155:
 203:/home/hkh/git/eapidk-code-r76-trunk/apps/EeePProg/linux/../../common/EApiAHStr.c **** 
 1669              		.loc 1 203 7 is_stmt 1 view .LVU433
 203:/home/hkh/git/eapidk-code-r76-trunk/apps/EeePProg/linux/../../common/EApiAHStr.c **** 
 1670              		.loc 1 203 16 is_stmt 0 view .LVU434
 1671 0888 0700A0E1 		mov	r0, r7
 1672              	.LVL156:
 203:/home/hkh/git/eapidk-code-r76-trunk/apps/EeePProg/linux/../../common/EApiAHStr.c **** 
 1673              		.loc 1 203 16 view .LVU435
 1674 088c FEFFFFEB 		bl	malloc(PLT)
 1675              	.LVL157:
 205:/home/hkh/git/eapidk-code-r76-trunk/apps/EeePProg/linux/../../common/EApiAHStr.c ****           EApiAHGetStringAlloc, 
 1676              		.loc 1 205 7 view .LVU436
 1677 0890 000050E3 		cmp	r0, #0
 203:/home/hkh/git/eapidk-code-r76-trunk/apps/EeePProg/linux/../../common/EApiAHStr.c **** 
 1678              		.loc 1 203 16 view .LVU437
 1679 0894 0010A0E1 		mov	r1, r0
 203:/home/hkh/git/eapidk-code-r76-trunk/apps/EeePProg/linux/../../common/EApiAHStr.c **** 
 1680              		.loc 1 203 15 view .LVU438
 1681 0898 000085E5 		str	r0, [r5]
 205:/home/hkh/git/eapidk-code-r76-trunk/apps/EeePProg/linux/../../common/EApiAHStr.c ****           EApiAHGetStringAlloc, 
 1682              		.loc 1 205 7 is_stmt 1 view .LVU439
 1683 089c 4700000A 		beq	.L140
 205:/home/hkh/git/eapidk-code-r76-trunk/apps/EeePProg/linux/../../common/EApiAHStr.c ****           EApiAHGetStringAlloc, 
 1684              		.loc 1 205 7 discriminator 2 view .LVU440
 210:/home/hkh/git/eapidk-code-r76-trunk/apps/EeePProg/linux/../../common/EApiAHStr.c **** 
 1685              		.loc 1 210 12 discriminator 2 view .LVU441
 212:/home/hkh/git/eapidk-code-r76-trunk/apps/EeePProg/linux/../../common/EApiAHStr.c **** #if (STRICT_VALIDATION>0)
 1686              		.loc 1 212 7 discriminator 2 view .LVU442
 212:/home/hkh/git/eapidk-code-r76-trunk/apps/EeePProg/linux/../../common/EApiAHStr.c **** #if (STRICT_VALIDATION>0)
 1687              		.loc 1 212 18 is_stmt 0 discriminator 2 view .LVU443
 1688 08a0 0820A0E1 		mov	r2, r8
 1689 08a4 0900A0E1 		mov	r0, r9
 1690 08a8 FEFFFFEB 		bl	EApiBoardGetStringA(PLT)
 1691              	.LVL158:
 214:/home/hkh/git/eapidk-code-r76-trunk/apps/EeePProg/linux/../../common/EApiAHStr.c ****           EApiAHGetStringAlloc, 
 1692              		.loc 1 214 7 discriminator 2 view .LVU444
 1693 08ac 10309DE5 		ldr	r3, [sp, #16]
 212:/home/hkh/git/eapidk-code-r76-trunk/apps/EeePProg/linux/../../common/EApiAHStr.c **** #if (STRICT_VALIDATION>0)
 1694              		.loc 1 212 18 discriminator 2 view .LVU445
 1695 08b0 0060A0E1 		mov	r6, r0
ARM GAS  /tmp/ccQkFBoM.s 			page 47


 1696              	.LVL159:
 214:/home/hkh/git/eapidk-code-r76-trunk/apps/EeePProg/linux/../../common/EApiAHStr.c ****           EApiAHGetStringAlloc, 
 1697              		.loc 1 214 7 is_stmt 1 discriminator 2 view .LVU446
 1698 08b4 070053E1 		cmp	r3, r7
 1699 08b8 3400008A 		bhi	.L141
 214:/home/hkh/git/eapidk-code-r76-trunk/apps/EeePProg/linux/../../common/EApiAHStr.c ****           EApiAHGetStringAlloc, 
 1700              		.loc 1 214 7 discriminator 2 view .LVU447
 219:/home/hkh/git/eapidk-code-r76-trunk/apps/EeePProg/linux/../../common/EApiAHStr.c ****       if(EApiStrLen(*pString, StringBufferLenBck)==StringBufferLenBck)
 1701              		.loc 1 219 12 discriminator 2 view .LVU448
 220:/home/hkh/git/eapidk-code-r76-trunk/apps/EeePProg/linux/../../common/EApiAHStr.c ****       {
 1702              		.loc 1 220 7 discriminator 2 view .LVU449
 220:/home/hkh/git/eapidk-code-r76-trunk/apps/EeePProg/linux/../../common/EApiAHStr.c ****       {
 1703              		.loc 1 220 10 is_stmt 0 discriminator 2 view .LVU450
 1704 08bc 000095E5 		ldr	r0, [r5]
 1705              	.LVL160:
 1706              	.LBB68:
 1707              	.LBI68:
 525:/home/hkh/git/eapidk-code-r76-trunk/apps/EeePProg/linux/../../common/EApiAHStr.c ****     __IN const TCHAR *pBuffer    ,
 1708              		.loc 1 525 1 is_stmt 1 discriminator 2 view .LVU451
 1709              	.LBB69:
 530:/home/hkh/git/eapidk-code-r76-trunk/apps/EeePProg/linux/../../common/EApiAHStr.c ****   if(pBuffer   ==NULL) return 0;
 1710              		.loc 1 530 3 discriminator 2 view .LVU452
 531:/home/hkh/git/eapidk-code-r76-trunk/apps/EeePProg/linux/../../common/EApiAHStr.c ****   if(BufferLen==0   ) return 0;
 1711              		.loc 1 531 3 discriminator 2 view .LVU453
 532:/home/hkh/git/eapidk-code-r76-trunk/apps/EeePProg/linux/../../common/EApiAHStr.c **** 
 1712              		.loc 1 532 3 discriminator 2 view .LVU454
 532:/home/hkh/git/eapidk-code-r76-trunk/apps/EeePProg/linux/../../common/EApiAHStr.c **** 
 1713              		.loc 1 532 5 is_stmt 0 discriminator 2 view .LVU455
 1714 08c0 000050E3 		cmp	r0, #0
 1715 08c4 00005713 		cmpne	r7, #0
 1716 08c8 0B00000A 		beq	.L126
 1717              	.LVL161:
 1718              	.LBB70:
 1719              	.LBB71:
 534:/home/hkh/git/eapidk-code-r76-trunk/apps/EeePProg/linux/../../common/EApiAHStr.c ****     if(*pszCurChar=='\0')
 1720              		.loc 1 534 27 is_stmt 1 view .LVU456
 534:/home/hkh/git/eapidk-code-r76-trunk/apps/EeePProg/linux/../../common/EApiAHStr.c ****     if(*pszCurChar=='\0')
 1721              		.loc 1 534 27 is_stmt 0 view .LVU457
 1722              	.LBE71:
 1723              	.LBE70:
 532:/home/hkh/git/eapidk-code-r76-trunk/apps/EeePProg/linux/../../common/EApiAHStr.c **** 
 1724              		.loc 1 532 5 view .LVU458
 1725 08cc 0030A0E1 		mov	r3, r0
 1726              	.LBB73:
 1727              	.LBB72:
 534:/home/hkh/git/eapidk-code-r76-trunk/apps/EeePProg/linux/../../common/EApiAHStr.c ****     if(*pszCurChar=='\0')
 1728              		.loc 1 534 27 view .LVU459
 1729 08d0 071080E0 		add	r1, r0, r7
 1730 08d4 020000EA 		b	.L128
 1731              	.LVL162:
 1732              	.L142:
 534:/home/hkh/git/eapidk-code-r76-trunk/apps/EeePProg/linux/../../common/EApiAHStr.c ****     if(*pszCurChar=='\0')
 1733              		.loc 1 534 50 is_stmt 1 view .LVU460
 534:/home/hkh/git/eapidk-code-r76-trunk/apps/EeePProg/linux/../../common/EApiAHStr.c ****     if(*pszCurChar=='\0')
 1734              		.loc 1 534 27 is_stmt 0 view .LVU461
 1735 08d8 010053E1 		cmp	r3, r1
 534:/home/hkh/git/eapidk-code-r76-trunk/apps/EeePProg/linux/../../common/EApiAHStr.c ****     if(*pszCurChar=='\0')
ARM GAS  /tmp/ccQkFBoM.s 			page 48


 1736              		.loc 1 534 50 view .LVU462
 1737 08dc 0340A0E1 		mov	r4, r3
 1738              	.LVL163:
 534:/home/hkh/git/eapidk-code-r76-trunk/apps/EeePProg/linux/../../common/EApiAHStr.c ****     if(*pszCurChar=='\0')
 1739              		.loc 1 534 27 is_stmt 1 view .LVU463
 534:/home/hkh/git/eapidk-code-r76-trunk/apps/EeePProg/linux/../../common/EApiAHStr.c ****     if(*pszCurChar=='\0')
 1740              		.loc 1 534 27 is_stmt 0 view .LVU464
 1741 08e0 0400000A 		beq	.L127
 1742              	.LVL164:
 1743              	.L128:
 534:/home/hkh/git/eapidk-code-r76-trunk/apps/EeePProg/linux/../../common/EApiAHStr.c ****     if(*pszCurChar=='\0')
 1744              		.loc 1 534 27 view .LVU465
 1745 08e4 0340A0E1 		mov	r4, r3
 1746              	.LVL165:
 535:/home/hkh/git/eapidk-code-r76-trunk/apps/EeePProg/linux/../../common/EApiAHStr.c ****       break;
 1747              		.loc 1 535 5 is_stmt 1 view .LVU466
 1748 08e8 013083E2 		add	r3, r3, #1
 535:/home/hkh/git/eapidk-code-r76-trunk/apps/EeePProg/linux/../../common/EApiAHStr.c ****       break;
 1749              		.loc 1 535 7 is_stmt 0 view .LVU467
 1750 08ec 0020D4E5 		ldrb	r2, [r4]	@ zero_extendqisi2
 1751 08f0 000052E3 		cmp	r2, #0
 1752 08f4 F7FFFF1A 		bne	.L142
 1753              	.L127:
 537:/home/hkh/git/eapidk-code-r76-trunk/apps/EeePProg/linux/../../common/EApiAHStr.c **** }
 1754              		.loc 1 537 3 is_stmt 1 view .LVU468
 537:/home/hkh/git/eapidk-code-r76-trunk/apps/EeePProg/linux/../../common/EApiAHStr.c **** }
 1755              		.loc 1 537 21 is_stmt 0 view .LVU469
 1756 08f8 004044E0 		sub	r4, r4, r0
 1757              	.LVL166:
 1758              	.L126:
 537:/home/hkh/git/eapidk-code-r76-trunk/apps/EeePProg/linux/../../common/EApiAHStr.c **** }
 1759              		.loc 1 537 21 view .LVU470
 1760              	.LBE72:
 1761              	.LBE73:
 1762              	.LBE69:
 1763              	.LBE68:
 220:/home/hkh/git/eapidk-code-r76-trunk/apps/EeePProg/linux/../../common/EApiAHStr.c ****       {
 1764              		.loc 1 220 9 view .LVU471
 1765 08fc 040057E1 		cmp	r7, r4
 1766 0900 D3FFFF1A 		bne	.L120
 222:/home/hkh/git/eapidk-code-r76-trunk/apps/EeePProg/linux/../../common/EApiAHStr.c ****             EApiAHGetStringAlloc, 
 1767              		.loc 1 222 9 is_stmt 1 view .LVU472
 1768 0904 EC209FE5 		ldr	r2, .L143+12
 1769 0908 0F1CE0E3 		mvn	r1, #3840
 1770 090c E8309FE5 		ldr	r3, .L143+16
 1771 0910 4500A0E3 		mov	r0, #69
 1772 0914 00108DE5 		str	r1, [sp]
 1773              	.LPIC65:
 1774 0918 02208FE0 		add	r2, pc, r2
 1775 091c DC109FE5 		ldr	r1, .L143+20
 1776 0920 08208DE5 		str	r2, [sp, #8]
 1777              	.LPIC66:
 1778 0924 03308FE0 		add	r3, pc, r3
 1779 0928 D4209FE5 		ldr	r2, .L143+24
 1780 092c 04308DE5 		str	r3, [sp, #4]
 1781              	.LPIC64:
 1782 0930 01108FE0 		add	r1, pc, r1
ARM GAS  /tmp/ccQkFBoM.s 			page 49


 1783 0934 DE30A0E3 		mov	r3, #222
 1784              	.LPIC63:
 1785 0938 02208FE0 		add	r2, pc, r2
 1786 093c FEFFFFEB 		bl	siFormattedMessage_SC(PLT)
 1787              	.LVL167:
 226:/home/hkh/git/eapidk-code-r76-trunk/apps/EeePProg/linux/../../common/EApiAHStr.c ****         (*pString)[StringBufferLenBck-1]=TEXT('\0');
 1788              		.loc 1 226 14 view .LVU473
 227:/home/hkh/git/eapidk-code-r76-trunk/apps/EeePProg/linux/../../common/EApiAHStr.c ****       }
 1789              		.loc 1 227 9 view .LVU474
 227:/home/hkh/git/eapidk-code-r76-trunk/apps/EeePProg/linux/../../common/EApiAHStr.c ****       }
 1790              		.loc 1 227 41 is_stmt 0 view .LVU475
 1791 0940 003095E5 		ldr	r3, [r5]
 1792 0944 0020A0E3 		mov	r2, #0
 1793 0948 073083E0 		add	r3, r3, r7
 1794 094c 012043E5 		strb	r2, [r3, #-1]
 1795 0950 BFFFFFEA 		b	.L120
 1796              	.LVL168:
 1797              	.L137:
 197:/home/hkh/git/eapidk-code-r76-trunk/apps/EeePProg/linux/../../common/EApiAHStr.c ****   *pString=NULL;
 1798              		.loc 1 197 3 is_stmt 1 discriminator 1 view .LVU476
 197:/home/hkh/git/eapidk-code-r76-trunk/apps/EeePProg/linux/../../common/EApiAHStr.c ****   *pString=NULL;
 1799              		.loc 1 197 3 discriminator 1 view .LVU477
 1800 0954 ACC09FE5 		ldr	ip, .L143+28
 1801 0958 016CE0E3 		mvn	r6, #256
 1802 095c A8009FE5 		ldr	r0, .L143+32
 1803              	.LVL169:
 197:/home/hkh/git/eapidk-code-r76-trunk/apps/EeePProg/linux/../../common/EApiAHStr.c ****   *pString=NULL;
 1804              		.loc 1 197 3 is_stmt 0 discriminator 1 view .LVU478
 1805 0960 C530A0E3 		mov	r3, #197
 1806 0964 A4209FE5 		ldr	r2, .L143+36
 1807 0968 A4109FE5 		ldr	r1, .L143+40
 1808              	.LVL170:
 197:/home/hkh/git/eapidk-code-r76-trunk/apps/EeePProg/linux/../../common/EApiAHStr.c ****   *pString=NULL;
 1809              		.loc 1 197 3 discriminator 1 view .LVU479
 1810              	.LPIC53:
 1811 096c 0CC08FE0 		add	ip, pc, ip
 1812              	.LPIC54:
 1813 0970 00008FE0 		add	r0, pc, r0
 1814              	.LPIC51:
 1815 0974 02208FE0 		add	r2, pc, r2
 1816              	.LPIC52:
 1817 0978 01108FE0 		add	r1, pc, r1
 1818              	.LVL171:
 1819              	.L136:
 214:/home/hkh/git/eapidk-code-r76-trunk/apps/EeePProg/linux/../../common/EApiAHStr.c ****           EApiAHGetStringAlloc, 
 1820              		.loc 1 214 7 discriminator 1 view .LVU480
 1821 097c 01108DE9 		stmib	sp, {r0, ip}
 1822 0980 4500A0E3 		mov	r0, #69
 1823 0984 00608DE5 		str	r6, [sp]
 1824 0988 FEFFFFEB 		bl	siFormattedMessage_SC(PLT)
 1825              	.LVL172:
 214:/home/hkh/git/eapidk-code-r76-trunk/apps/EeePProg/linux/../../common/EApiAHStr.c ****           EApiAHGetStringAlloc, 
 1826              		.loc 1 214 7 is_stmt 1 discriminator 1 view .LVU481
 214:/home/hkh/git/eapidk-code-r76-trunk/apps/EeePProg/linux/../../common/EApiAHStr.c ****           EApiAHGetStringAlloc, 
 1827              		.loc 1 214 7 discriminator 1 view .LVU482
 214:/home/hkh/git/eapidk-code-r76-trunk/apps/EeePProg/linux/../../common/EApiAHStr.c ****           EApiAHGetStringAlloc, 
 1828              		.loc 1 214 7 discriminator 1 view .LVU483
ARM GAS  /tmp/ccQkFBoM.s 			page 50


 1829 098c B0FFFFEA 		b	.L120
 1830              	.LVL173:
 1831              	.L141:
 214:/home/hkh/git/eapidk-code-r76-trunk/apps/EeePProg/linux/../../common/EApiAHStr.c ****           EApiAHGetStringAlloc, 
 1832              		.loc 1 214 7 discriminator 1 view .LVU484
 214:/home/hkh/git/eapidk-code-r76-trunk/apps/EeePProg/linux/../../common/EApiAHStr.c ****           EApiAHGetStringAlloc, 
 1833              		.loc 1 214 7 discriminator 1 view .LVU485
 1834 0990 80C09FE5 		ldr	ip, .L143+44
 1835 0994 0F6CE0E3 		mvn	r6, #3840
 1836 0998 7C009FE5 		ldr	r0, .L143+48
 1837              	.LVL174:
 214:/home/hkh/git/eapidk-code-r76-trunk/apps/EeePProg/linux/../../common/EApiAHStr.c ****           EApiAHGetStringAlloc, 
 1838              		.loc 1 214 7 is_stmt 0 discriminator 1 view .LVU486
 1839 099c D630A0E3 		mov	r3, #214
 1840 09a0 78209FE5 		ldr	r2, .L143+52
 1841 09a4 78109FE5 		ldr	r1, .L143+56
 1842              	.LPIC61:
 1843 09a8 0CC08FE0 		add	ip, pc, ip
 1844              	.LPIC62:
 1845 09ac 00008FE0 		add	r0, pc, r0
 1846              	.LPIC59:
 1847 09b0 02208FE0 		add	r2, pc, r2
 1848              	.LPIC60:
 1849 09b4 01108FE0 		add	r1, pc, r1
 1850 09b8 EFFFFFEA 		b	.L136
 1851              	.LVL175:
 1852              	.L139:
 238:/home/hkh/git/eapidk-code-r76-trunk/apps/EeePProg/linux/../../common/EApiAHStr.c **** int
 1853              		.loc 1 238 1 view .LVU487
 1854 09bc FEFFFFEB 		bl	__stack_chk_fail(PLT)
 1855              	.LVL176:
 1856              	.L140:
 205:/home/hkh/git/eapidk-code-r76-trunk/apps/EeePProg/linux/../../common/EApiAHStr.c ****           EApiAHGetStringAlloc, 
 1857              		.loc 1 205 7 is_stmt 1 discriminator 1 view .LVU488
 205:/home/hkh/git/eapidk-code-r76-trunk/apps/EeePProg/linux/../../common/EApiAHStr.c ****           EApiAHGetStringAlloc, 
 1858              		.loc 1 205 7 discriminator 1 view .LVU489
 1859 09c0 60C09FE5 		ldr	ip, .L143+60
 1860 09c4 0260E0E3 		mvn	r6, #2
 1861              	.LVL177:
 205:/home/hkh/git/eapidk-code-r76-trunk/apps/EeePProg/linux/../../common/EApiAHStr.c ****           EApiAHGetStringAlloc, 
 1862              		.loc 1 205 7 is_stmt 0 discriminator 1 view .LVU490
 1863 09c8 5C009FE5 		ldr	r0, .L143+64
 1864 09cc CD30A0E3 		mov	r3, #205
 1865 09d0 58209FE5 		ldr	r2, .L143+68
 1866 09d4 58109FE5 		ldr	r1, .L143+72
 1867              	.LPIC57:
 1868 09d8 0CC08FE0 		add	ip, pc, ip
 1869              	.LPIC58:
 1870 09dc 00008FE0 		add	r0, pc, r0
 1871              	.LPIC55:
 1872 09e0 02208FE0 		add	r2, pc, r2
 1873              	.LPIC56:
 1874 09e4 01108FE0 		add	r1, pc, r1
 1875 09e8 E3FFFFEA 		b	.L136
 1876              	.L144:
 1877              		.align	2
 1878              	.L143:
ARM GAS  /tmp/ccQkFBoM.s 			page 51


 1879 09ec E4010000 		.word	_GLOBAL_OFFSET_TABLE_-(.LPIC68+8)
 1880 09f0 00000000 		.word	__stack_chk_guard(GOT)
 1881 09f4 90010000 		.word	_GLOBAL_OFFSET_TABLE_-(.LPIC67+8)
 1882 09f8 D8000000 		.word	.LC11-(.LPIC65+8)
 1883 09fc D0000000 		.word	.LC3-(.LPIC66+8)
 1884 0a00 C8000000 		.word	.LC1-(.LPIC64+8)
 1885 0a04 C4000000 		.word	.LC9-(.LPIC63+8)
 1886 0a08 94000000 		.word	.LC2-(.LPIC53+8)
 1887 0a0c 94000000 		.word	.LC3-(.LPIC54+8)
 1888 0a10 94000000 		.word	.LC8-(.LPIC51+8)
 1889 0a14 94000000 		.word	.LC1-(.LPIC52+8)
 1890 0a18 68000000 		.word	.LC10-(.LPIC61+8)
 1891 0a1c 68000000 		.word	.LC3-(.LPIC62+8)
 1892 0a20 68000000 		.word	.LC9-(.LPIC59+8)
 1893 0a24 68000000 		.word	.LC1-(.LPIC60+8)
 1894 0a28 48000000 		.word	.LC13-(.LPIC57+8)
 1895 0a2c 48000000 		.word	.LC3-(.LPIC58+8)
 1896 0a30 48000000 		.word	.LC9-(.LPIC55+8)
 1897 0a34 48000000 		.word	.LC1-(.LPIC56+8)
 1898              		.cfi_endproc
 1899              	.LFE4:
 1901              		.section	.rodata.str1.4
 1902              		.align	2
 1903              	.LC14:
 1904 0198 45417069 		.ascii	"EApiAHCreateDecimalString\000"
 1904      41484372 
 1904      65617465 
 1904      44656369 
 1904      6D616C53 
 1905 01b2 0000     		.align	2
 1906              	.LC15:
 1907 01b4 257500   		.ascii	"%u\000"
 1908              		.text
 1909              		.align	2
 1910              		.global	EApiAHCreateDecimalString
 1911              		.syntax unified
 1912              		.arm
 1913              		.fpu vfpv3
 1915              	EApiAHCreateDecimalString:
 1916              	.LVL178:
 1917              	.LFB5:
 245:/home/hkh/git/eapidk-code-r76-trunk/apps/EeePProg/linux/../../common/EApiAHStr.c ****    int StatusCode=0;
 1918              		.loc 1 245 1 is_stmt 1 view -0
 1919              		.cfi_startproc
 1920              		@ args = 0, pretend = 0, frame = 0
 1921              		@ frame_needed = 0, uses_anonymous_args = 0
 246:/home/hkh/git/eapidk-code-r76-trunk/apps/EeePProg/linux/../../common/EApiAHStr.c ****     EAPI_APP_ASSERT_PARAMATER_NULL(EApiAHCreateDecimalString, -1, pString);
 1922              		.loc 1 246 4 view .LVU492
 247:/home/hkh/git/eapidk-code-r76-trunk/apps/EeePProg/linux/../../common/EApiAHStr.c ****     EAPI_APP_ASSERT_PARAMATER_ZERO(EApiAHCreateDecimalString, -1, StrBufLen);
 1923              		.loc 1 247 5 view .LVU493
 1924 0a38 00C051E2 		subs	ip, r1, #0
 245:/home/hkh/git/eapidk-code-r76-trunk/apps/EeePProg/linux/../../common/EApiAHStr.c ****    int StatusCode=0;
 1925              		.loc 1 245 1 is_stmt 0 view .LVU494
 1926 0a3c 04E02DE5 		str	lr, [sp, #-4]!
 1927              		.cfi_def_cfa_offset 4
 1928              		.cfi_offset 14, -4
 1929 0a40 14D04DE2 		sub	sp, sp, #20
ARM GAS  /tmp/ccQkFBoM.s 			page 52


 1930              		.cfi_def_cfa_offset 24
 247:/home/hkh/git/eapidk-code-r76-trunk/apps/EeePProg/linux/../../common/EApiAHStr.c ****     EAPI_APP_ASSERT_PARAMATER_ZERO(EApiAHCreateDecimalString, -1, StrBufLen);
 1931              		.loc 1 247 5 view .LVU495
 1932 0a44 1A00000A 		beq	.L151
 248:/home/hkh/git/eapidk-code-r76-trunk/apps/EeePProg/linux/../../common/EApiAHStr.c ****     StatusCode=EApiSprintf(pString, StrBufLen, TEXT("%")TEXT(PRIu32), Value);
 1933              		.loc 1 248 5 discriminator 2 view .LVU496
 1934 0a48 000052E3 		cmp	r2, #0
 1935 0a4c 0210A0E1 		mov	r1, r2
 1936              	.LVL179:
 247:/home/hkh/git/eapidk-code-r76-trunk/apps/EeePProg/linux/../../common/EApiAHStr.c ****     EAPI_APP_ASSERT_PARAMATER_ZERO(EApiAHCreateDecimalString, -1, StrBufLen);
 1937              		.loc 1 247 5 is_stmt 1 discriminator 2 view .LVU497
 247:/home/hkh/git/eapidk-code-r76-trunk/apps/EeePProg/linux/../../common/EApiAHStr.c ****     EAPI_APP_ASSERT_PARAMATER_ZERO(EApiAHCreateDecimalString, -1, StrBufLen);
 1938              		.loc 1 247 75 discriminator 2 view .LVU498
 248:/home/hkh/git/eapidk-code-r76-trunk/apps/EeePProg/linux/../../common/EApiAHStr.c ****     StatusCode=EApiSprintf(pString, StrBufLen, TEXT("%")TEXT(PRIu32), Value);
 1939              		.loc 1 248 5 discriminator 2 view .LVU499
 1940 0a50 0600000A 		beq	.L152
 248:/home/hkh/git/eapidk-code-r76-trunk/apps/EeePProg/linux/../../common/EApiAHStr.c ****     StatusCode=EApiSprintf(pString, StrBufLen, TEXT("%")TEXT(PRIu32), Value);
 1941              		.loc 1 248 5 discriminator 2 view .LVU500
 248:/home/hkh/git/eapidk-code-r76-trunk/apps/EeePProg/linux/../../common/EApiAHStr.c ****     StatusCode=EApiSprintf(pString, StrBufLen, TEXT("%")TEXT(PRIu32), Value);
 1942              		.loc 1 248 77 discriminator 2 view .LVU501
 249:/home/hkh/git/eapidk-code-r76-trunk/apps/EeePProg/linux/../../common/EApiAHStr.c **** EAPI_APP_ASSERT_EXIT
 1943              		.loc 1 249 5 discriminator 2 view .LVU502
 249:/home/hkh/git/eapidk-code-r76-trunk/apps/EeePProg/linux/../../common/EApiAHStr.c **** EAPI_APP_ASSERT_EXIT
 1944              		.loc 1 249 16 is_stmt 0 discriminator 2 view .LVU503
 1945 0a54 84209FE5 		ldr	r2, .L153
 1946              	.LVL180:
 249:/home/hkh/git/eapidk-code-r76-trunk/apps/EeePProg/linux/../../common/EApiAHStr.c **** EAPI_APP_ASSERT_EXIT
 1947              		.loc 1 249 16 discriminator 2 view .LVU504
 1948 0a58 0030A0E1 		mov	r3, r0
 1949 0a5c 0C00A0E1 		mov	r0, ip
 1950              	.LVL181:
 249:/home/hkh/git/eapidk-code-r76-trunk/apps/EeePProg/linux/../../common/EApiAHStr.c **** EAPI_APP_ASSERT_EXIT
 1951              		.loc 1 249 16 discriminator 2 view .LVU505
 1952              	.LPIC77:
 1953 0a60 02208FE0 		add	r2, pc, r2
 253:/home/hkh/git/eapidk-code-r76-trunk/apps/EeePProg/linux/../../common/EApiAHStr.c **** int
 1954              		.loc 1 253 1 discriminator 2 view .LVU506
 1955 0a64 14D08DE2 		add	sp, sp, #20
 1956              		.cfi_remember_state
 1957              		.cfi_def_cfa_offset 4
 1958              		@ sp needed
 1959 0a68 04E09DE4 		ldr	lr, [sp], #4
 1960              		.cfi_restore 14
 1961              		.cfi_def_cfa_offset 0
 249:/home/hkh/git/eapidk-code-r76-trunk/apps/EeePProg/linux/../../common/EApiAHStr.c **** EAPI_APP_ASSERT_EXIT
 1962              		.loc 1 249 16 discriminator 2 view .LVU507
 1963 0a6c FEFFFFEA 		b	EApiSprintf(PLT)
 1964              	.LVL182:
 1965              	.L152:
 1966              		.cfi_restore_state
 248:/home/hkh/git/eapidk-code-r76-trunk/apps/EeePProg/linux/../../common/EApiAHStr.c ****     StatusCode=EApiSprintf(pString, StrBufLen, TEXT("%")TEXT(PRIu32), Value);
 1967              		.loc 1 248 5 is_stmt 1 discriminator 1 view .LVU508
 248:/home/hkh/git/eapidk-code-r76-trunk/apps/EeePProg/linux/../../common/EApiAHStr.c ****     StatusCode=EApiSprintf(pString, StrBufLen, TEXT("%")TEXT(PRIu32), Value);
 1968              		.loc 1 248 5 discriminator 1 view .LVU509
 1969 0a70 6CC09FE5 		ldr	ip, .L153+4
 1970              	.LVL183:
 248:/home/hkh/git/eapidk-code-r76-trunk/apps/EeePProg/linux/../../common/EApiAHStr.c ****     StatusCode=EApiSprintf(pString, StrBufLen, TEXT("%")TEXT(PRIu32), Value);
ARM GAS  /tmp/ccQkFBoM.s 			page 53


 1971              		.loc 1 248 5 is_stmt 0 discriminator 1 view .LVU510
 1972 0a74 00E0E0E3 		mvn	lr, #0
 1973 0a78 68009FE5 		ldr	r0, .L153+8
 1974              	.LVL184:
 248:/home/hkh/git/eapidk-code-r76-trunk/apps/EeePProg/linux/../../common/EApiAHStr.c ****     StatusCode=EApiSprintf(pString, StrBufLen, TEXT("%")TEXT(PRIu32), Value);
 1975              		.loc 1 248 5 discriminator 1 view .LVU511
 1976 0a7c F830A0E3 		mov	r3, #248
 1977 0a80 64209FE5 		ldr	r2, .L153+12
 1978 0a84 64109FE5 		ldr	r1, .L153+16
 1979              	.LVL185:
 248:/home/hkh/git/eapidk-code-r76-trunk/apps/EeePProg/linux/../../common/EApiAHStr.c ****     StatusCode=EApiSprintf(pString, StrBufLen, TEXT("%")TEXT(PRIu32), Value);
 1980              		.loc 1 248 5 discriminator 1 view .LVU512
 1981              	.LPIC75:
 1982 0a88 0CC08FE0 		add	ip, pc, ip
 1983              	.LPIC76:
 1984 0a8c 00008FE0 		add	r0, pc, r0
 1985              	.LPIC73:
 1986 0a90 02208FE0 		add	r2, pc, r2
 1987              	.LPIC74:
 1988 0a94 01108FE0 		add	r1, pc, r1
 1989              	.L150:
 1990 0a98 01108DE9 		stmib	sp, {r0, ip}
 1991 0a9c 4500A0E3 		mov	r0, #69
 1992 0aa0 00E08DE5 		str	lr, [sp]
 1993 0aa4 FEFFFFEB 		bl	siFormattedMessage_SC(PLT)
 1994              	.LVL186:
 248:/home/hkh/git/eapidk-code-r76-trunk/apps/EeePProg/linux/../../common/EApiAHStr.c ****     StatusCode=EApiSprintf(pString, StrBufLen, TEXT("%")TEXT(PRIu32), Value);
 1995              		.loc 1 248 5 is_stmt 1 discriminator 1 view .LVU513
 248:/home/hkh/git/eapidk-code-r76-trunk/apps/EeePProg/linux/../../common/EApiAHStr.c ****     StatusCode=EApiSprintf(pString, StrBufLen, TEXT("%")TEXT(PRIu32), Value);
 1996              		.loc 1 248 5 discriminator 1 view .LVU514
 248:/home/hkh/git/eapidk-code-r76-trunk/apps/EeePProg/linux/../../common/EApiAHStr.c ****     StatusCode=EApiSprintf(pString, StrBufLen, TEXT("%")TEXT(PRIu32), Value);
 1997              		.loc 1 248 5 discriminator 1 view .LVU515
 253:/home/hkh/git/eapidk-code-r76-trunk/apps/EeePProg/linux/../../common/EApiAHStr.c **** int
 1998              		.loc 1 253 1 is_stmt 0 discriminator 1 view .LVU516
 1999 0aa8 0000E0E3 		mvn	r0, #0
 2000 0aac 14D08DE2 		add	sp, sp, #20
 2001              		.cfi_remember_state
 2002              		.cfi_def_cfa_offset 4
 2003              		@ sp needed
 2004 0ab0 04F09DE4 		ldr	pc, [sp], #4
 2005              	.L147:
 2006              	.LVL187:
 2007              	.L151:
 2008              		.cfi_restore_state
 247:/home/hkh/git/eapidk-code-r76-trunk/apps/EeePProg/linux/../../common/EApiAHStr.c ****     EAPI_APP_ASSERT_PARAMATER_ZERO(EApiAHCreateDecimalString, -1, StrBufLen);
 2009              		.loc 1 247 5 is_stmt 1 discriminator 1 view .LVU517
 247:/home/hkh/git/eapidk-code-r76-trunk/apps/EeePProg/linux/../../common/EApiAHStr.c ****     EAPI_APP_ASSERT_PARAMATER_ZERO(EApiAHCreateDecimalString, -1, StrBufLen);
 2010              		.loc 1 247 5 discriminator 1 view .LVU518
 2011 0ab4 38C09FE5 		ldr	ip, .L153+20
 2012 0ab8 00E0E0E3 		mvn	lr, #0
 2013 0abc 34009FE5 		ldr	r0, .L153+24
 2014              	.LVL188:
 247:/home/hkh/git/eapidk-code-r76-trunk/apps/EeePProg/linux/../../common/EApiAHStr.c ****     EAPI_APP_ASSERT_PARAMATER_ZERO(EApiAHCreateDecimalString, -1, StrBufLen);
 2015              		.loc 1 247 5 is_stmt 0 discriminator 1 view .LVU519
 2016 0ac0 F730A0E3 		mov	r3, #247
 2017 0ac4 30209FE5 		ldr	r2, .L153+28
 2018              	.LVL189:
ARM GAS  /tmp/ccQkFBoM.s 			page 54


 247:/home/hkh/git/eapidk-code-r76-trunk/apps/EeePProg/linux/../../common/EApiAHStr.c ****     EAPI_APP_ASSERT_PARAMATER_ZERO(EApiAHCreateDecimalString, -1, StrBufLen);
 2019              		.loc 1 247 5 discriminator 1 view .LVU520
 2020 0ac8 30109FE5 		ldr	r1, .L153+32
 2021              	.LVL190:
 247:/home/hkh/git/eapidk-code-r76-trunk/apps/EeePProg/linux/../../common/EApiAHStr.c ****     EAPI_APP_ASSERT_PARAMATER_ZERO(EApiAHCreateDecimalString, -1, StrBufLen);
 2022              		.loc 1 247 5 discriminator 1 view .LVU521
 2023              	.LPIC71:
 2024 0acc 0CC08FE0 		add	ip, pc, ip
 2025              	.LPIC72:
 2026 0ad0 00008FE0 		add	r0, pc, r0
 2027              	.LPIC69:
 2028 0ad4 02208FE0 		add	r2, pc, r2
 2029              	.LPIC70:
 2030 0ad8 01108FE0 		add	r1, pc, r1
 2031 0adc EDFFFFEA 		b	.L150
 2032              	.L154:
 2033              		.align	2
 2034              	.L153:
 2035 0ae0 78000000 		.word	.LC15-(.LPIC77+8)
 2036 0ae4 54000000 		.word	.LC6-(.LPIC75+8)
 2037 0ae8 54000000 		.word	.LC3-(.LPIC76+8)
 2038 0aec 54000000 		.word	.LC14-(.LPIC73+8)
 2039 0af0 54000000 		.word	.LC1-(.LPIC74+8)
 2040 0af4 20000000 		.word	.LC2-(.LPIC71+8)
 2041 0af8 20000000 		.word	.LC3-(.LPIC72+8)
 2042 0afc 20000000 		.word	.LC14-(.LPIC69+8)
 2043 0b00 20000000 		.word	.LC1-(.LPIC70+8)
 2044              		.cfi_endproc
 2045              	.LFE5:
 2047              		.section	.rodata.str1.4
 2048 01b7 00       		.align	2
 2049              	.LC16:
 2050 01b8 30782530 		.ascii	"0x%08X\000"
 2050      385800
 2051              		.text
 2052              		.align	2
 2053              		.global	EApiAHCreateHexString
 2054              		.syntax unified
 2055              		.arm
 2056              		.fpu vfpv3
 2058              	EApiAHCreateHexString:
 2059              	.LVL191:
 2060              	.LFB6:
 260:/home/hkh/git/eapidk-code-r76-trunk/apps/EeePProg/linux/../../common/EApiAHStr.c ****    int StatusCode=0;
 2061              		.loc 1 260 1 is_stmt 1 view -0
 2062              		.cfi_startproc
 2063              		@ args = 0, pretend = 0, frame = 0
 2064              		@ frame_needed = 0, uses_anonymous_args = 0
 261:/home/hkh/git/eapidk-code-r76-trunk/apps/EeePProg/linux/../../common/EApiAHStr.c ****     EAPI_APP_ASSERT_PARAMATER_NULL(EApiAHCreateDecimalString, -1, pString);
 2065              		.loc 1 261 4 view .LVU523
 262:/home/hkh/git/eapidk-code-r76-trunk/apps/EeePProg/linux/../../common/EApiAHStr.c ****     EAPI_APP_ASSERT_PARAMATER_ZERO(EApiAHCreateDecimalString, -1, StrBufLen);
 2066              		.loc 1 262 5 view .LVU524
 2067 0b04 00C051E2 		subs	ip, r1, #0
 260:/home/hkh/git/eapidk-code-r76-trunk/apps/EeePProg/linux/../../common/EApiAHStr.c ****    int StatusCode=0;
 2068              		.loc 1 260 1 is_stmt 0 view .LVU525
 2069 0b08 04E02DE5 		str	lr, [sp, #-4]!
 2070              		.cfi_def_cfa_offset 4
ARM GAS  /tmp/ccQkFBoM.s 			page 55


 2071              		.cfi_offset 14, -4
 2072 0b0c 14D04DE2 		sub	sp, sp, #20
 2073              		.cfi_def_cfa_offset 24
 262:/home/hkh/git/eapidk-code-r76-trunk/apps/EeePProg/linux/../../common/EApiAHStr.c ****     EAPI_APP_ASSERT_PARAMATER_ZERO(EApiAHCreateDecimalString, -1, StrBufLen);
 2074              		.loc 1 262 5 view .LVU526
 2075 0b10 1A00000A 		beq	.L161
 263:/home/hkh/git/eapidk-code-r76-trunk/apps/EeePProg/linux/../../common/EApiAHStr.c ****     StatusCode=EApiSprintf(pString, StrBufLen, TEXT("0x%08")TEXT(PRIX32), Value);
 2076              		.loc 1 263 5 discriminator 2 view .LVU527
 2077 0b14 000052E3 		cmp	r2, #0
 2078 0b18 0210A0E1 		mov	r1, r2
 2079              	.LVL192:
 262:/home/hkh/git/eapidk-code-r76-trunk/apps/EeePProg/linux/../../common/EApiAHStr.c ****     EAPI_APP_ASSERT_PARAMATER_ZERO(EApiAHCreateDecimalString, -1, StrBufLen);
 2080              		.loc 1 262 5 is_stmt 1 discriminator 2 view .LVU528
 262:/home/hkh/git/eapidk-code-r76-trunk/apps/EeePProg/linux/../../common/EApiAHStr.c ****     EAPI_APP_ASSERT_PARAMATER_ZERO(EApiAHCreateDecimalString, -1, StrBufLen);
 2081              		.loc 1 262 75 discriminator 2 view .LVU529
 263:/home/hkh/git/eapidk-code-r76-trunk/apps/EeePProg/linux/../../common/EApiAHStr.c ****     StatusCode=EApiSprintf(pString, StrBufLen, TEXT("0x%08")TEXT(PRIX32), Value);
 2082              		.loc 1 263 5 discriminator 2 view .LVU530
 2083 0b1c 0600000A 		beq	.L162
 263:/home/hkh/git/eapidk-code-r76-trunk/apps/EeePProg/linux/../../common/EApiAHStr.c ****     StatusCode=EApiSprintf(pString, StrBufLen, TEXT("0x%08")TEXT(PRIX32), Value);
 2084              		.loc 1 263 5 discriminator 2 view .LVU531
 263:/home/hkh/git/eapidk-code-r76-trunk/apps/EeePProg/linux/../../common/EApiAHStr.c ****     StatusCode=EApiSprintf(pString, StrBufLen, TEXT("0x%08")TEXT(PRIX32), Value);
 2085              		.loc 1 263 77 discriminator 2 view .LVU532
 264:/home/hkh/git/eapidk-code-r76-trunk/apps/EeePProg/linux/../../common/EApiAHStr.c **** EAPI_APP_ASSERT_EXIT
 2086              		.loc 1 264 5 discriminator 2 view .LVU533
 264:/home/hkh/git/eapidk-code-r76-trunk/apps/EeePProg/linux/../../common/EApiAHStr.c **** EAPI_APP_ASSERT_EXIT
 2087              		.loc 1 264 16 is_stmt 0 discriminator 2 view .LVU534
 2088 0b20 84209FE5 		ldr	r2, .L163
 2089              	.LVL193:
 264:/home/hkh/git/eapidk-code-r76-trunk/apps/EeePProg/linux/../../common/EApiAHStr.c **** EAPI_APP_ASSERT_EXIT
 2090              		.loc 1 264 16 discriminator 2 view .LVU535
 2091 0b24 0030A0E1 		mov	r3, r0
 2092 0b28 0C00A0E1 		mov	r0, ip
 2093              	.LVL194:
 264:/home/hkh/git/eapidk-code-r76-trunk/apps/EeePProg/linux/../../common/EApiAHStr.c **** EAPI_APP_ASSERT_EXIT
 2094              		.loc 1 264 16 discriminator 2 view .LVU536
 2095              	.LPIC86:
 2096 0b2c 02208FE0 		add	r2, pc, r2
 268:/home/hkh/git/eapidk-code-r76-trunk/apps/EeePProg/linux/../../common/EApiAHStr.c **** int
 2097              		.loc 1 268 1 discriminator 2 view .LVU537
 2098 0b30 14D08DE2 		add	sp, sp, #20
 2099              		.cfi_remember_state
 2100              		.cfi_def_cfa_offset 4
 2101              		@ sp needed
 2102 0b34 04E09DE4 		ldr	lr, [sp], #4
 2103              		.cfi_restore 14
 2104              		.cfi_def_cfa_offset 0
 264:/home/hkh/git/eapidk-code-r76-trunk/apps/EeePProg/linux/../../common/EApiAHStr.c **** EAPI_APP_ASSERT_EXIT
 2105              		.loc 1 264 16 discriminator 2 view .LVU538
 2106 0b38 FEFFFFEA 		b	EApiSprintf(PLT)
 2107              	.LVL195:
 2108              	.L162:
 2109              		.cfi_restore_state
 263:/home/hkh/git/eapidk-code-r76-trunk/apps/EeePProg/linux/../../common/EApiAHStr.c ****     StatusCode=EApiSprintf(pString, StrBufLen, TEXT("0x%08")TEXT(PRIX32), Value);
 2110              		.loc 1 263 5 is_stmt 1 discriminator 1 view .LVU539
 263:/home/hkh/git/eapidk-code-r76-trunk/apps/EeePProg/linux/../../common/EApiAHStr.c ****     StatusCode=EApiSprintf(pString, StrBufLen, TEXT("0x%08")TEXT(PRIX32), Value);
 2111              		.loc 1 263 5 discriminator 1 view .LVU540
 2112 0b3c 6CC09FE5 		ldr	ip, .L163+4
ARM GAS  /tmp/ccQkFBoM.s 			page 56


 2113              	.LVL196:
 263:/home/hkh/git/eapidk-code-r76-trunk/apps/EeePProg/linux/../../common/EApiAHStr.c ****     StatusCode=EApiSprintf(pString, StrBufLen, TEXT("0x%08")TEXT(PRIX32), Value);
 2114              		.loc 1 263 5 is_stmt 0 discriminator 1 view .LVU541
 2115 0b40 00E0E0E3 		mvn	lr, #0
 2116 0b44 68009FE5 		ldr	r0, .L163+8
 2117              	.LVL197:
 263:/home/hkh/git/eapidk-code-r76-trunk/apps/EeePProg/linux/../../common/EApiAHStr.c ****     StatusCode=EApiSprintf(pString, StrBufLen, TEXT("0x%08")TEXT(PRIX32), Value);
 2118              		.loc 1 263 5 discriminator 1 view .LVU542
 2119 0b48 073100E3 		movw	r3, #263
 2120 0b4c 64209FE5 		ldr	r2, .L163+12
 2121 0b50 64109FE5 		ldr	r1, .L163+16
 2122              	.LVL198:
 263:/home/hkh/git/eapidk-code-r76-trunk/apps/EeePProg/linux/../../common/EApiAHStr.c ****     StatusCode=EApiSprintf(pString, StrBufLen, TEXT("0x%08")TEXT(PRIX32), Value);
 2123              		.loc 1 263 5 discriminator 1 view .LVU543
 2124              	.LPIC84:
 2125 0b54 0CC08FE0 		add	ip, pc, ip
 2126              	.LPIC85:
 2127 0b58 00008FE0 		add	r0, pc, r0
 2128              	.LPIC82:
 2129 0b5c 02208FE0 		add	r2, pc, r2
 2130              	.LPIC83:
 2131 0b60 01108FE0 		add	r1, pc, r1
 2132              	.L160:
 2133 0b64 01108DE9 		stmib	sp, {r0, ip}
 2134 0b68 4500A0E3 		mov	r0, #69
 2135 0b6c 00E08DE5 		str	lr, [sp]
 2136 0b70 FEFFFFEB 		bl	siFormattedMessage_SC(PLT)
 2137              	.LVL199:
 263:/home/hkh/git/eapidk-code-r76-trunk/apps/EeePProg/linux/../../common/EApiAHStr.c ****     StatusCode=EApiSprintf(pString, StrBufLen, TEXT("0x%08")TEXT(PRIX32), Value);
 2138              		.loc 1 263 5 is_stmt 1 discriminator 1 view .LVU544
 263:/home/hkh/git/eapidk-code-r76-trunk/apps/EeePProg/linux/../../common/EApiAHStr.c ****     StatusCode=EApiSprintf(pString, StrBufLen, TEXT("0x%08")TEXT(PRIX32), Value);
 2139              		.loc 1 263 5 discriminator 1 view .LVU545
 263:/home/hkh/git/eapidk-code-r76-trunk/apps/EeePProg/linux/../../common/EApiAHStr.c ****     StatusCode=EApiSprintf(pString, StrBufLen, TEXT("0x%08")TEXT(PRIX32), Value);
 2140              		.loc 1 263 5 discriminator 1 view .LVU546
 268:/home/hkh/git/eapidk-code-r76-trunk/apps/EeePProg/linux/../../common/EApiAHStr.c **** int
 2141              		.loc 1 268 1 is_stmt 0 discriminator 1 view .LVU547
 2142 0b74 0000E0E3 		mvn	r0, #0
 2143 0b78 14D08DE2 		add	sp, sp, #20
 2144              		.cfi_remember_state
 2145              		.cfi_def_cfa_offset 4
 2146              		@ sp needed
 2147 0b7c 04F09DE4 		ldr	pc, [sp], #4
 2148              	.L157:
 2149              	.LVL200:
 2150              	.L161:
 2151              		.cfi_restore_state
 262:/home/hkh/git/eapidk-code-r76-trunk/apps/EeePProg/linux/../../common/EApiAHStr.c ****     EAPI_APP_ASSERT_PARAMATER_ZERO(EApiAHCreateDecimalString, -1, StrBufLen);
 2152              		.loc 1 262 5 is_stmt 1 discriminator 1 view .LVU548
 262:/home/hkh/git/eapidk-code-r76-trunk/apps/EeePProg/linux/../../common/EApiAHStr.c ****     EAPI_APP_ASSERT_PARAMATER_ZERO(EApiAHCreateDecimalString, -1, StrBufLen);
 2153              		.loc 1 262 5 discriminator 1 view .LVU549
 2154 0b80 38C09FE5 		ldr	ip, .L163+20
 2155 0b84 00E0E0E3 		mvn	lr, #0
 2156 0b88 34009FE5 		ldr	r0, .L163+24
 2157              	.LVL201:
 262:/home/hkh/git/eapidk-code-r76-trunk/apps/EeePProg/linux/../../common/EApiAHStr.c ****     EAPI_APP_ASSERT_PARAMATER_ZERO(EApiAHCreateDecimalString, -1, StrBufLen);
 2158              		.loc 1 262 5 is_stmt 0 discriminator 1 view .LVU550
 2159 0b8c 063100E3 		movw	r3, #262
ARM GAS  /tmp/ccQkFBoM.s 			page 57


 2160 0b90 30209FE5 		ldr	r2, .L163+28
 2161              	.LVL202:
 262:/home/hkh/git/eapidk-code-r76-trunk/apps/EeePProg/linux/../../common/EApiAHStr.c ****     EAPI_APP_ASSERT_PARAMATER_ZERO(EApiAHCreateDecimalString, -1, StrBufLen);
 2162              		.loc 1 262 5 discriminator 1 view .LVU551
 2163 0b94 30109FE5 		ldr	r1, .L163+32
 2164              	.LVL203:
 262:/home/hkh/git/eapidk-code-r76-trunk/apps/EeePProg/linux/../../common/EApiAHStr.c ****     EAPI_APP_ASSERT_PARAMATER_ZERO(EApiAHCreateDecimalString, -1, StrBufLen);
 2165              		.loc 1 262 5 discriminator 1 view .LVU552
 2166              	.LPIC80:
 2167 0b98 0CC08FE0 		add	ip, pc, ip
 2168              	.LPIC81:
 2169 0b9c 00008FE0 		add	r0, pc, r0
 2170              	.LPIC78:
 2171 0ba0 02208FE0 		add	r2, pc, r2
 2172              	.LPIC79:
 2173 0ba4 01108FE0 		add	r1, pc, r1
 2174 0ba8 EDFFFFEA 		b	.L160
 2175              	.L164:
 2176              		.align	2
 2177              	.L163:
 2178 0bac 78000000 		.word	.LC16-(.LPIC86+8)
 2179 0bb0 54000000 		.word	.LC6-(.LPIC84+8)
 2180 0bb4 54000000 		.word	.LC3-(.LPIC85+8)
 2181 0bb8 54000000 		.word	.LC14-(.LPIC82+8)
 2182 0bbc 54000000 		.word	.LC1-(.LPIC83+8)
 2183 0bc0 20000000 		.word	.LC2-(.LPIC80+8)
 2184 0bc4 20000000 		.word	.LC3-(.LPIC81+8)
 2185 0bc8 20000000 		.word	.LC14-(.LPIC78+8)
 2186 0bcc 20000000 		.word	.LC1-(.LPIC79+8)
 2187              		.cfi_endproc
 2188              	.LFE6:
 2190              		.section	.rodata.str1.4
 2191 01bf 00       		.align	2
 2192              	.LC17:
 2193 01c0 25752E25 		.ascii	"%u.%02u Volts\000"
 2193      30327520 
 2193      566F6C74 
 2193      7300
 2194              		.text
 2195              		.align	2
 2196              		.global	EApiAHCreateVoltageString
 2197              		.syntax unified
 2198              		.arm
 2199              		.fpu vfpv3
 2201              	EApiAHCreateVoltageString:
 2202              	.LVL204:
 2203              	.LFB7:
 275:/home/hkh/git/eapidk-code-r76-trunk/apps/EeePProg/linux/../../common/EApiAHStr.c ****    int StatusCode=0;
 2204              		.loc 1 275 1 is_stmt 1 view -0
 2205              		.cfi_startproc
 2206              		@ args = 0, pretend = 0, frame = 0
 2207              		@ frame_needed = 0, uses_anonymous_args = 0
 276:/home/hkh/git/eapidk-code-r76-trunk/apps/EeePProg/linux/../../common/EApiAHStr.c ****     EAPI_APP_ASSERT_PARAMATER_NULL(EApiAHCreateDecimalString, -1, pString);
 2208              		.loc 1 276 4 view .LVU554
 277:/home/hkh/git/eapidk-code-r76-trunk/apps/EeePProg/linux/../../common/EApiAHStr.c ****     EAPI_APP_ASSERT_PARAMATER_ZERO(EApiAHCreateDecimalString, -1, StrBufLen);
 2209              		.loc 1 277 5 view .LVU555
 275:/home/hkh/git/eapidk-code-r76-trunk/apps/EeePProg/linux/../../common/EApiAHStr.c ****    int StatusCode=0;
ARM GAS  /tmp/ccQkFBoM.s 			page 58


 2210              		.loc 1 275 1 is_stmt 0 view .LVU556
 2211 0bd0 10402DE9 		push	{r4, lr}
 2212              		.cfi_def_cfa_offset 8
 2213              		.cfi_offset 4, -8
 2214              		.cfi_offset 14, -4
 277:/home/hkh/git/eapidk-code-r76-trunk/apps/EeePProg/linux/../../common/EApiAHStr.c ****     EAPI_APP_ASSERT_PARAMATER_ZERO(EApiAHCreateDecimalString, -1, StrBufLen);
 2215              		.loc 1 277 5 view .LVU557
 2216 0bd4 00E051E2 		subs	lr, r1, #0
 275:/home/hkh/git/eapidk-code-r76-trunk/apps/EeePProg/linux/../../common/EApiAHStr.c ****    int StatusCode=0;
 2217              		.loc 1 275 1 view .LVU558
 2218 0bd8 10D04DE2 		sub	sp, sp, #16
 2219              		.cfi_def_cfa_offset 24
 277:/home/hkh/git/eapidk-code-r76-trunk/apps/EeePProg/linux/../../common/EApiAHStr.c ****     EAPI_APP_ASSERT_PARAMATER_ZERO(EApiAHCreateDecimalString, -1, StrBufLen);
 2220              		.loc 1 277 5 view .LVU559
 2221 0bdc 2300000A 		beq	.L171
 278:/home/hkh/git/eapidk-code-r76-trunk/apps/EeePProg/linux/../../common/EApiAHStr.c ****     Value/=10;
 2222              		.loc 1 278 5 discriminator 2 view .LVU560
 2223 0be0 000052E3 		cmp	r2, #0
 2224 0be4 0210A0E1 		mov	r1, r2
 2225              	.LVL205:
 277:/home/hkh/git/eapidk-code-r76-trunk/apps/EeePProg/linux/../../common/EApiAHStr.c ****     EAPI_APP_ASSERT_PARAMATER_ZERO(EApiAHCreateDecimalString, -1, StrBufLen);
 2226              		.loc 1 277 5 is_stmt 1 discriminator 2 view .LVU561
 277:/home/hkh/git/eapidk-code-r76-trunk/apps/EeePProg/linux/../../common/EApiAHStr.c ****     EAPI_APP_ASSERT_PARAMATER_ZERO(EApiAHCreateDecimalString, -1, StrBufLen);
 2227              		.loc 1 277 75 discriminator 2 view .LVU562
 278:/home/hkh/git/eapidk-code-r76-trunk/apps/EeePProg/linux/../../common/EApiAHStr.c ****     Value/=10;
 2228              		.loc 1 278 5 discriminator 2 view .LVU563
 2229 0be8 1000000A 		beq	.L172
 278:/home/hkh/git/eapidk-code-r76-trunk/apps/EeePProg/linux/../../common/EApiAHStr.c ****     Value/=10;
 2230              		.loc 1 278 5 discriminator 2 view .LVU564
 278:/home/hkh/git/eapidk-code-r76-trunk/apps/EeePProg/linux/../../common/EApiAHStr.c ****     Value/=10;
 2231              		.loc 1 278 77 discriminator 2 view .LVU565
 279:/home/hkh/git/eapidk-code-r76-trunk/apps/EeePProg/linux/../../common/EApiAHStr.c ****     StatusCode=EApiSprintf(pString, StrBufLen, TEXT("%")TEXT(PRIu32)TEXT(".%02")TEXT(PRIu32)TEXT(" 
 2232              		.loc 1 279 5 discriminator 2 view .LVU566
 279:/home/hkh/git/eapidk-code-r76-trunk/apps/EeePProg/linux/../../common/EApiAHStr.c ****     StatusCode=EApiSprintf(pString, StrBufLen, TEXT("%")TEXT(PRIu32)TEXT(".%02")TEXT(PRIu32)TEXT(" 
 2233              		.loc 1 279 10 is_stmt 0 discriminator 2 view .LVU567
 2234 0bec CD2C0CE3 		movw	r2, #52429
 2235              	.LVL206:
 280:/home/hkh/git/eapidk-code-r76-trunk/apps/EeePProg/linux/../../common/EApiAHStr.c **** 
 2236              		.loc 1 280 16 discriminator 2 view .LVU568
 2237 0bf0 1F3508E3 		movw	r3, #34079
 279:/home/hkh/git/eapidk-code-r76-trunk/apps/EeePProg/linux/../../common/EApiAHStr.c ****     StatusCode=EApiSprintf(pString, StrBufLen, TEXT("%")TEXT(PRIu32)TEXT(".%02")TEXT(PRIu32)TEXT(" 
 2238              		.loc 1 279 10 discriminator 2 view .LVU569
 2239 0bf4 CC2C4CE3 		movt	r2, 52428
 280:/home/hkh/git/eapidk-code-r76-trunk/apps/EeePProg/linux/../../common/EApiAHStr.c **** 
 2240              		.loc 1 280 16 discriminator 2 view .LVU570
 2241 0bf8 EB3145E3 		movt	r3, 20971
 279:/home/hkh/git/eapidk-code-r76-trunk/apps/EeePProg/linux/../../common/EApiAHStr.c ****     StatusCode=EApiSprintf(pString, StrBufLen, TEXT("%")TEXT(PRIu32)TEXT(".%02")TEXT(PRIu32)TEXT(" 
 2242              		.loc 1 279 10 discriminator 2 view .LVU571
 2243 0bfc 92208CE0 		umull	r2, ip, r2, r0
 280:/home/hkh/git/eapidk-code-r76-trunk/apps/EeePProg/linux/../../common/EApiAHStr.c **** 
 2244              		.loc 1 280 16 discriminator 2 view .LVU572
 2245 0c00 0E00A0E1 		mov	r0, lr
 2246              	.LVL207:
 279:/home/hkh/git/eapidk-code-r76-trunk/apps/EeePProg/linux/../../common/EApiAHStr.c ****     StatusCode=EApiSprintf(pString, StrBufLen, TEXT("%")TEXT(PRIu32)TEXT(".%02")TEXT(PRIu32)TEXT(" 
 2247              		.loc 1 279 10 discriminator 2 view .LVU573
 2248 0c04 AC21A0E1 		lsr	r2, ip, #3
 2249              	.LVL208:
ARM GAS  /tmp/ccQkFBoM.s 			page 59


 280:/home/hkh/git/eapidk-code-r76-trunk/apps/EeePProg/linux/../../common/EApiAHStr.c **** 
 2250              		.loc 1 280 5 is_stmt 1 discriminator 2 view .LVU574
 280:/home/hkh/git/eapidk-code-r76-trunk/apps/EeePProg/linux/../../common/EApiAHStr.c **** 
 2251              		.loc 1 280 16 is_stmt 0 discriminator 2 view .LVU575
 2252 0c08 93C283E0 		umull	ip, r3, r3, r2
 2253 0c0c 64C0A0E3 		mov	ip, #100
 2254 0c10 A332A0E1 		lsr	r3, r3, #5
 2255 0c14 9C236CE0 		mls	ip, ip, r3, r2
 2256 0c18 7C209FE5 		ldr	r2, .L173
 2257              	.LVL209:
 280:/home/hkh/git/eapidk-code-r76-trunk/apps/EeePProg/linux/../../common/EApiAHStr.c **** 
 2258              		.loc 1 280 16 discriminator 2 view .LVU576
 2259              	.LPIC95:
 2260 0c1c 02208FE0 		add	r2, pc, r2
 2261 0c20 00C08DE5 		str	ip, [sp]
 2262 0c24 FEFFFFEB 		bl	EApiSprintf(PLT)
 2263              	.LVL210:
 284:/home/hkh/git/eapidk-code-r76-trunk/apps/EeePProg/linux/../../common/EApiAHStr.c **** }
 2264              		.loc 1 284 5 is_stmt 1 discriminator 2 view .LVU577
 2265              	.L167:
 2266              	.L165:
 285:/home/hkh/git/eapidk-code-r76-trunk/apps/EeePProg/linux/../../common/EApiAHStr.c **** int
 2267              		.loc 1 285 1 is_stmt 0 view .LVU578
 2268 0c28 10D08DE2 		add	sp, sp, #16
 2269              		.cfi_remember_state
 2270              		.cfi_def_cfa_offset 8
 2271              		@ sp needed
 2272 0c2c 1080BDE8 		pop	{r4, pc}
 2273              	.LVL211:
 2274              	.L172:
 2275              		.cfi_restore_state
 278:/home/hkh/git/eapidk-code-r76-trunk/apps/EeePProg/linux/../../common/EApiAHStr.c ****     Value/=10;
 2276              		.loc 1 278 5 is_stmt 1 discriminator 1 view .LVU579
 278:/home/hkh/git/eapidk-code-r76-trunk/apps/EeePProg/linux/../../common/EApiAHStr.c ****     Value/=10;
 2277              		.loc 1 278 5 discriminator 1 view .LVU580
 2278 0c30 68C09FE5 		ldr	ip, .L173+4
 2279 0c34 0040E0E3 		mvn	r4, #0
 2280 0c38 64009FE5 		ldr	r0, .L173+8
 2281              	.LVL212:
 278:/home/hkh/git/eapidk-code-r76-trunk/apps/EeePProg/linux/../../common/EApiAHStr.c ****     Value/=10;
 2282              		.loc 1 278 5 is_stmt 0 discriminator 1 view .LVU581
 2283 0c3c 163100E3 		movw	r3, #278
 2284 0c40 60209FE5 		ldr	r2, .L173+12
 2285 0c44 60109FE5 		ldr	r1, .L173+16
 2286              	.LVL213:
 278:/home/hkh/git/eapidk-code-r76-trunk/apps/EeePProg/linux/../../common/EApiAHStr.c ****     Value/=10;
 2287              		.loc 1 278 5 discriminator 1 view .LVU582
 2288              	.LPIC93:
 2289 0c48 0CC08FE0 		add	ip, pc, ip
 2290              	.LPIC94:
 2291 0c4c 00008FE0 		add	r0, pc, r0
 2292              	.LPIC91:
 2293 0c50 02208FE0 		add	r2, pc, r2
 2294              	.LPIC92:
 2295 0c54 01108FE0 		add	r1, pc, r1
 2296              	.L170:
 2297 0c58 01108DE9 		stmib	sp, {r0, ip}
ARM GAS  /tmp/ccQkFBoM.s 			page 60


 2298 0c5c 4500A0E3 		mov	r0, #69
 2299 0c60 00408DE5 		str	r4, [sp]
 2300 0c64 FEFFFFEB 		bl	siFormattedMessage_SC(PLT)
 2301              	.LVL214:
 278:/home/hkh/git/eapidk-code-r76-trunk/apps/EeePProg/linux/../../common/EApiAHStr.c ****     Value/=10;
 2302              		.loc 1 278 5 is_stmt 1 discriminator 1 view .LVU583
 278:/home/hkh/git/eapidk-code-r76-trunk/apps/EeePProg/linux/../../common/EApiAHStr.c ****     Value/=10;
 2303              		.loc 1 278 5 discriminator 1 view .LVU584
 278:/home/hkh/git/eapidk-code-r76-trunk/apps/EeePProg/linux/../../common/EApiAHStr.c ****     Value/=10;
 2304              		.loc 1 278 5 discriminator 1 view .LVU585
 2305 0c68 0400A0E1 		mov	r0, r4
 2306 0c6c EDFFFFEA 		b	.L165
 2307              	.LVL215:
 2308              	.L171:
 277:/home/hkh/git/eapidk-code-r76-trunk/apps/EeePProg/linux/../../common/EApiAHStr.c ****     EAPI_APP_ASSERT_PARAMATER_ZERO(EApiAHCreateDecimalString, -1, StrBufLen);
 2309              		.loc 1 277 5 discriminator 1 view .LVU586
 277:/home/hkh/git/eapidk-code-r76-trunk/apps/EeePProg/linux/../../common/EApiAHStr.c ****     EAPI_APP_ASSERT_PARAMATER_ZERO(EApiAHCreateDecimalString, -1, StrBufLen);
 2310              		.loc 1 277 5 discriminator 1 view .LVU587
 2311 0c70 38C09FE5 		ldr	ip, .L173+20
 2312 0c74 0040E0E3 		mvn	r4, #0
 2313 0c78 34009FE5 		ldr	r0, .L173+24
 2314              	.LVL216:
 277:/home/hkh/git/eapidk-code-r76-trunk/apps/EeePProg/linux/../../common/EApiAHStr.c ****     EAPI_APP_ASSERT_PARAMATER_ZERO(EApiAHCreateDecimalString, -1, StrBufLen);
 2315              		.loc 1 277 5 is_stmt 0 discriminator 1 view .LVU588
 2316 0c7c 153100E3 		movw	r3, #277
 2317 0c80 30209FE5 		ldr	r2, .L173+28
 2318              	.LVL217:
 277:/home/hkh/git/eapidk-code-r76-trunk/apps/EeePProg/linux/../../common/EApiAHStr.c ****     EAPI_APP_ASSERT_PARAMATER_ZERO(EApiAHCreateDecimalString, -1, StrBufLen);
 2319              		.loc 1 277 5 discriminator 1 view .LVU589
 2320 0c84 30109FE5 		ldr	r1, .L173+32
 2321              	.LVL218:
 277:/home/hkh/git/eapidk-code-r76-trunk/apps/EeePProg/linux/../../common/EApiAHStr.c ****     EAPI_APP_ASSERT_PARAMATER_ZERO(EApiAHCreateDecimalString, -1, StrBufLen);
 2322              		.loc 1 277 5 discriminator 1 view .LVU590
 2323              	.LPIC89:
 2324 0c88 0CC08FE0 		add	ip, pc, ip
 2325              	.LPIC90:
 2326 0c8c 00008FE0 		add	r0, pc, r0
 2327              	.LPIC87:
 2328 0c90 02208FE0 		add	r2, pc, r2
 2329              	.LPIC88:
 2330 0c94 01108FE0 		add	r1, pc, r1
 2331 0c98 EEFFFFEA 		b	.L170
 2332              	.L174:
 2333              		.align	2
 2334              	.L173:
 2335 0c9c 78000000 		.word	.LC17-(.LPIC95+8)
 2336 0ca0 50000000 		.word	.LC6-(.LPIC93+8)
 2337 0ca4 50000000 		.word	.LC3-(.LPIC94+8)
 2338 0ca8 50000000 		.word	.LC14-(.LPIC91+8)
 2339 0cac 50000000 		.word	.LC1-(.LPIC92+8)
 2340 0cb0 20000000 		.word	.LC2-(.LPIC89+8)
 2341 0cb4 20000000 		.word	.LC3-(.LPIC90+8)
 2342 0cb8 20000000 		.word	.LC14-(.LPIC87+8)
 2343 0cbc 20000000 		.word	.LC1-(.LPIC88+8)
 2344              		.cfi_endproc
 2345              	.LFE7:
 2347              		.section	.rodata.str1.4
ARM GAS  /tmp/ccQkFBoM.s 			page 61


 2348 01ce 0000     		.align	2
 2349              	.LC18:
 2350 01d0 25752052 		.ascii	"%u RPM\000"
 2350      504D00
 2351              		.text
 2352              		.align	2
 2353              		.global	EApiAHCreateRotationsString
 2354              		.syntax unified
 2355              		.arm
 2356              		.fpu vfpv3
 2358              	EApiAHCreateRotationsString:
 2359              	.LVL219:
 2360              	.LFB8:
 292:/home/hkh/git/eapidk-code-r76-trunk/apps/EeePProg/linux/../../common/EApiAHStr.c ****     int StatusCode;
 2361              		.loc 1 292 1 is_stmt 1 view -0
 2362              		.cfi_startproc
 2363              		@ args = 0, pretend = 0, frame = 0
 2364              		@ frame_needed = 0, uses_anonymous_args = 0
 293:/home/hkh/git/eapidk-code-r76-trunk/apps/EeePProg/linux/../../common/EApiAHStr.c ****     EAPI_APP_ASSERT_PARAMATER_NULL(EApiAHCreateDecimalString, -1, pString);
 2365              		.loc 1 293 5 view .LVU592
 294:/home/hkh/git/eapidk-code-r76-trunk/apps/EeePProg/linux/../../common/EApiAHStr.c ****     EAPI_APP_ASSERT_PARAMATER_ZERO(EApiAHCreateDecimalString, -1, StrBufLen);
 2366              		.loc 1 294 5 view .LVU593
 2367 0cc0 00C051E2 		subs	ip, r1, #0
 292:/home/hkh/git/eapidk-code-r76-trunk/apps/EeePProg/linux/../../common/EApiAHStr.c ****     int StatusCode;
 2368              		.loc 1 292 1 is_stmt 0 view .LVU594
 2369 0cc4 04E02DE5 		str	lr, [sp, #-4]!
 2370              		.cfi_def_cfa_offset 4
 2371              		.cfi_offset 14, -4
 2372 0cc8 14D04DE2 		sub	sp, sp, #20
 2373              		.cfi_def_cfa_offset 24
 294:/home/hkh/git/eapidk-code-r76-trunk/apps/EeePProg/linux/../../common/EApiAHStr.c ****     EAPI_APP_ASSERT_PARAMATER_ZERO(EApiAHCreateDecimalString, -1, StrBufLen);
 2374              		.loc 1 294 5 view .LVU595
 2375 0ccc 1A00000A 		beq	.L181
 295:/home/hkh/git/eapidk-code-r76-trunk/apps/EeePProg/linux/../../common/EApiAHStr.c ****     StatusCode=EApiSprintf(pString, StrBufLen, TEXT("%")TEXT(PRIu32)TEXT(" RPM"), Value);
 2376              		.loc 1 295 5 discriminator 2 view .LVU596
 2377 0cd0 000052E3 		cmp	r2, #0
 2378 0cd4 0210A0E1 		mov	r1, r2
 2379              	.LVL220:
 294:/home/hkh/git/eapidk-code-r76-trunk/apps/EeePProg/linux/../../common/EApiAHStr.c ****     EAPI_APP_ASSERT_PARAMATER_ZERO(EApiAHCreateDecimalString, -1, StrBufLen);
 2380              		.loc 1 294 5 is_stmt 1 discriminator 2 view .LVU597
 294:/home/hkh/git/eapidk-code-r76-trunk/apps/EeePProg/linux/../../common/EApiAHStr.c ****     EAPI_APP_ASSERT_PARAMATER_ZERO(EApiAHCreateDecimalString, -1, StrBufLen);
 2381              		.loc 1 294 75 discriminator 2 view .LVU598
 295:/home/hkh/git/eapidk-code-r76-trunk/apps/EeePProg/linux/../../common/EApiAHStr.c ****     StatusCode=EApiSprintf(pString, StrBufLen, TEXT("%")TEXT(PRIu32)TEXT(" RPM"), Value);
 2382              		.loc 1 295 5 discriminator 2 view .LVU599
 2383 0cd8 0600000A 		beq	.L182
 295:/home/hkh/git/eapidk-code-r76-trunk/apps/EeePProg/linux/../../common/EApiAHStr.c ****     StatusCode=EApiSprintf(pString, StrBufLen, TEXT("%")TEXT(PRIu32)TEXT(" RPM"), Value);
 2384              		.loc 1 295 5 discriminator 2 view .LVU600
 295:/home/hkh/git/eapidk-code-r76-trunk/apps/EeePProg/linux/../../common/EApiAHStr.c ****     StatusCode=EApiSprintf(pString, StrBufLen, TEXT("%")TEXT(PRIu32)TEXT(" RPM"), Value);
 2385              		.loc 1 295 77 discriminator 2 view .LVU601
 296:/home/hkh/git/eapidk-code-r76-trunk/apps/EeePProg/linux/../../common/EApiAHStr.c **** 
 2386              		.loc 1 296 5 discriminator 2 view .LVU602
 296:/home/hkh/git/eapidk-code-r76-trunk/apps/EeePProg/linux/../../common/EApiAHStr.c **** 
 2387              		.loc 1 296 16 is_stmt 0 discriminator 2 view .LVU603
 2388 0cdc 84209FE5 		ldr	r2, .L183
 2389              	.LVL221:
 296:/home/hkh/git/eapidk-code-r76-trunk/apps/EeePProg/linux/../../common/EApiAHStr.c **** 
 2390              		.loc 1 296 16 discriminator 2 view .LVU604
ARM GAS  /tmp/ccQkFBoM.s 			page 62


 2391 0ce0 0030A0E1 		mov	r3, r0
 2392 0ce4 0C00A0E1 		mov	r0, ip
 2393              	.LVL222:
 296:/home/hkh/git/eapidk-code-r76-trunk/apps/EeePProg/linux/../../common/EApiAHStr.c **** 
 2394              		.loc 1 296 16 discriminator 2 view .LVU605
 2395              	.LPIC104:
 2396 0ce8 02208FE0 		add	r2, pc, r2
 301:/home/hkh/git/eapidk-code-r76-trunk/apps/EeePProg/linux/../../common/EApiAHStr.c **** int
 2397              		.loc 1 301 1 discriminator 2 view .LVU606
 2398 0cec 14D08DE2 		add	sp, sp, #20
 2399              		.cfi_remember_state
 2400              		.cfi_def_cfa_offset 4
 2401              		@ sp needed
 2402 0cf0 04E09DE4 		ldr	lr, [sp], #4
 2403              		.cfi_restore 14
 2404              		.cfi_def_cfa_offset 0
 296:/home/hkh/git/eapidk-code-r76-trunk/apps/EeePProg/linux/../../common/EApiAHStr.c **** 
 2405              		.loc 1 296 16 discriminator 2 view .LVU607
 2406 0cf4 FEFFFFEA 		b	EApiSprintf(PLT)
 2407              	.LVL223:
 2408              	.L182:
 2409              		.cfi_restore_state
 295:/home/hkh/git/eapidk-code-r76-trunk/apps/EeePProg/linux/../../common/EApiAHStr.c ****     StatusCode=EApiSprintf(pString, StrBufLen, TEXT("%")TEXT(PRIu32)TEXT(" RPM"), Value);
 2410              		.loc 1 295 5 is_stmt 1 discriminator 1 view .LVU608
 295:/home/hkh/git/eapidk-code-r76-trunk/apps/EeePProg/linux/../../common/EApiAHStr.c ****     StatusCode=EApiSprintf(pString, StrBufLen, TEXT("%")TEXT(PRIu32)TEXT(" RPM"), Value);
 2411              		.loc 1 295 5 discriminator 1 view .LVU609
 2412 0cf8 6CC09FE5 		ldr	ip, .L183+4
 2413              	.LVL224:
 295:/home/hkh/git/eapidk-code-r76-trunk/apps/EeePProg/linux/../../common/EApiAHStr.c ****     StatusCode=EApiSprintf(pString, StrBufLen, TEXT("%")TEXT(PRIu32)TEXT(" RPM"), Value);
 2414              		.loc 1 295 5 is_stmt 0 discriminator 1 view .LVU610
 2415 0cfc 00E0E0E3 		mvn	lr, #0
 2416 0d00 68009FE5 		ldr	r0, .L183+8
 2417              	.LVL225:
 295:/home/hkh/git/eapidk-code-r76-trunk/apps/EeePProg/linux/../../common/EApiAHStr.c ****     StatusCode=EApiSprintf(pString, StrBufLen, TEXT("%")TEXT(PRIu32)TEXT(" RPM"), Value);
 2418              		.loc 1 295 5 discriminator 1 view .LVU611
 2419 0d04 273100E3 		movw	r3, #295
 2420 0d08 64209FE5 		ldr	r2, .L183+12
 2421 0d0c 64109FE5 		ldr	r1, .L183+16
 2422              	.LVL226:
 295:/home/hkh/git/eapidk-code-r76-trunk/apps/EeePProg/linux/../../common/EApiAHStr.c ****     StatusCode=EApiSprintf(pString, StrBufLen, TEXT("%")TEXT(PRIu32)TEXT(" RPM"), Value);
 2423              		.loc 1 295 5 discriminator 1 view .LVU612
 2424              	.LPIC102:
 2425 0d10 0CC08FE0 		add	ip, pc, ip
 2426              	.LPIC103:
 2427 0d14 00008FE0 		add	r0, pc, r0
 2428              	.LPIC100:
 2429 0d18 02208FE0 		add	r2, pc, r2
 2430              	.LPIC101:
 2431 0d1c 01108FE0 		add	r1, pc, r1
 2432              	.L180:
 2433 0d20 01108DE9 		stmib	sp, {r0, ip}
 2434 0d24 4500A0E3 		mov	r0, #69
 2435 0d28 00E08DE5 		str	lr, [sp]
 2436 0d2c FEFFFFEB 		bl	siFormattedMessage_SC(PLT)
 2437              	.LVL227:
 295:/home/hkh/git/eapidk-code-r76-trunk/apps/EeePProg/linux/../../common/EApiAHStr.c ****     StatusCode=EApiSprintf(pString, StrBufLen, TEXT("%")TEXT(PRIu32)TEXT(" RPM"), Value);
 2438              		.loc 1 295 5 is_stmt 1 discriminator 1 view .LVU613
ARM GAS  /tmp/ccQkFBoM.s 			page 63


 295:/home/hkh/git/eapidk-code-r76-trunk/apps/EeePProg/linux/../../common/EApiAHStr.c ****     StatusCode=EApiSprintf(pString, StrBufLen, TEXT("%")TEXT(PRIu32)TEXT(" RPM"), Value);
 2439              		.loc 1 295 5 discriminator 1 view .LVU614
 295:/home/hkh/git/eapidk-code-r76-trunk/apps/EeePProg/linux/../../common/EApiAHStr.c ****     StatusCode=EApiSprintf(pString, StrBufLen, TEXT("%")TEXT(PRIu32)TEXT(" RPM"), Value);
 2440              		.loc 1 295 5 discriminator 1 view .LVU615
 301:/home/hkh/git/eapidk-code-r76-trunk/apps/EeePProg/linux/../../common/EApiAHStr.c **** int
 2441              		.loc 1 301 1 is_stmt 0 discriminator 1 view .LVU616
 2442 0d30 0000E0E3 		mvn	r0, #0
 2443 0d34 14D08DE2 		add	sp, sp, #20
 2444              		.cfi_remember_state
 2445              		.cfi_def_cfa_offset 4
 2446              		@ sp needed
 2447 0d38 04F09DE4 		ldr	pc, [sp], #4
 2448              	.L177:
 2449              	.LVL228:
 2450              	.L181:
 2451              		.cfi_restore_state
 294:/home/hkh/git/eapidk-code-r76-trunk/apps/EeePProg/linux/../../common/EApiAHStr.c ****     EAPI_APP_ASSERT_PARAMATER_ZERO(EApiAHCreateDecimalString, -1, StrBufLen);
 2452              		.loc 1 294 5 is_stmt 1 discriminator 1 view .LVU617
 294:/home/hkh/git/eapidk-code-r76-trunk/apps/EeePProg/linux/../../common/EApiAHStr.c ****     EAPI_APP_ASSERT_PARAMATER_ZERO(EApiAHCreateDecimalString, -1, StrBufLen);
 2453              		.loc 1 294 5 discriminator 1 view .LVU618
 2454 0d3c 38C09FE5 		ldr	ip, .L183+20
 2455 0d40 00E0E0E3 		mvn	lr, #0
 2456 0d44 34009FE5 		ldr	r0, .L183+24
 2457              	.LVL229:
 294:/home/hkh/git/eapidk-code-r76-trunk/apps/EeePProg/linux/../../common/EApiAHStr.c ****     EAPI_APP_ASSERT_PARAMATER_ZERO(EApiAHCreateDecimalString, -1, StrBufLen);
 2458              		.loc 1 294 5 is_stmt 0 discriminator 1 view .LVU619
 2459 0d48 263100E3 		movw	r3, #294
 2460 0d4c 30209FE5 		ldr	r2, .L183+28
 2461              	.LVL230:
 294:/home/hkh/git/eapidk-code-r76-trunk/apps/EeePProg/linux/../../common/EApiAHStr.c ****     EAPI_APP_ASSERT_PARAMATER_ZERO(EApiAHCreateDecimalString, -1, StrBufLen);
 2462              		.loc 1 294 5 discriminator 1 view .LVU620
 2463 0d50 30109FE5 		ldr	r1, .L183+32
 2464              	.LVL231:
 294:/home/hkh/git/eapidk-code-r76-trunk/apps/EeePProg/linux/../../common/EApiAHStr.c ****     EAPI_APP_ASSERT_PARAMATER_ZERO(EApiAHCreateDecimalString, -1, StrBufLen);
 2465              		.loc 1 294 5 discriminator 1 view .LVU621
 2466              	.LPIC98:
 2467 0d54 0CC08FE0 		add	ip, pc, ip
 2468              	.LPIC99:
 2469 0d58 00008FE0 		add	r0, pc, r0
 2470              	.LPIC96:
 2471 0d5c 02208FE0 		add	r2, pc, r2
 2472              	.LPIC97:
 2473 0d60 01108FE0 		add	r1, pc, r1
 2474 0d64 EDFFFFEA 		b	.L180
 2475              	.L184:
 2476              		.align	2
 2477              	.L183:
 2478 0d68 78000000 		.word	.LC18-(.LPIC104+8)
 2479 0d6c 54000000 		.word	.LC6-(.LPIC102+8)
 2480 0d70 54000000 		.word	.LC3-(.LPIC103+8)
 2481 0d74 54000000 		.word	.LC14-(.LPIC100+8)
 2482 0d78 54000000 		.word	.LC1-(.LPIC101+8)
 2483 0d7c 20000000 		.word	.LC2-(.LPIC98+8)
 2484 0d80 20000000 		.word	.LC3-(.LPIC99+8)
 2485 0d84 20000000 		.word	.LC14-(.LPIC96+8)
 2486 0d88 20000000 		.word	.LC1-(.LPIC97+8)
 2487              		.cfi_endproc
ARM GAS  /tmp/ccQkFBoM.s 			page 64


 2488              	.LFE8:
 2490              		.section	.rodata.str1.4
 2491 01d7 00       		.align	2
 2492              	.LC19:
 2493 01d8 2520692E 		.ascii	"% i.%i Celcius\000"
 2493      25692043 
 2493      656C6369 
 2493      757300
 2494              		.text
 2495              		.align	2
 2496              		.global	EApiAHCreateTempString
 2497              		.syntax unified
 2498              		.arm
 2499              		.fpu vfpv3
 2501              	EApiAHCreateTempString:
 2502              	.LVL232:
 2503              	.LFB9:
 308:/home/hkh/git/eapidk-code-r76-trunk/apps/EeePProg/linux/../../common/EApiAHStr.c ****     int StatusCode;
 2504              		.loc 1 308 1 is_stmt 1 view -0
 2505              		.cfi_startproc
 2506              		@ args = 0, pretend = 0, frame = 0
 2507              		@ frame_needed = 0, uses_anonymous_args = 0
 309:/home/hkh/git/eapidk-code-r76-trunk/apps/EeePProg/linux/../../common/EApiAHStr.c ****     EAPI_APP_ASSERT_PARAMATER_NULL(EApiAHCreateDecimalString, -1, pString);
 2508              		.loc 1 309 5 view .LVU623
 310:/home/hkh/git/eapidk-code-r76-trunk/apps/EeePProg/linux/../../common/EApiAHStr.c ****     EAPI_APP_ASSERT_PARAMATER_ZERO(EApiAHCreateDecimalString, -1, StrBufLen);
 2509              		.loc 1 310 5 view .LVU624
 308:/home/hkh/git/eapidk-code-r76-trunk/apps/EeePProg/linux/../../common/EApiAHStr.c ****     int StatusCode;
 2510              		.loc 1 308 1 is_stmt 0 view .LVU625
 2511 0d8c 10402DE9 		push	{r4, lr}
 2512              		.cfi_def_cfa_offset 8
 2513              		.cfi_offset 4, -8
 2514              		.cfi_offset 14, -4
 310:/home/hkh/git/eapidk-code-r76-trunk/apps/EeePProg/linux/../../common/EApiAHStr.c ****     EAPI_APP_ASSERT_PARAMATER_ZERO(EApiAHCreateDecimalString, -1, StrBufLen);
 2515              		.loc 1 310 5 view .LVU626
 2516 0d90 00E051E2 		subs	lr, r1, #0
 308:/home/hkh/git/eapidk-code-r76-trunk/apps/EeePProg/linux/../../common/EApiAHStr.c ****     int StatusCode;
 2517              		.loc 1 308 1 view .LVU627
 2518 0d94 10D04DE2 		sub	sp, sp, #16
 2519              		.cfi_def_cfa_offset 24
 310:/home/hkh/git/eapidk-code-r76-trunk/apps/EeePProg/linux/../../common/EApiAHStr.c ****     EAPI_APP_ASSERT_PARAMATER_ZERO(EApiAHCreateDecimalString, -1, StrBufLen);
 2520              		.loc 1 310 5 view .LVU628
 2521 0d98 2600000A 		beq	.L191
 311:/home/hkh/git/eapidk-code-r76-trunk/apps/EeePProg/linux/../../common/EApiAHStr.c ****     Value-=EAPI_KELVINS_OFFSET;
 2522              		.loc 1 311 5 discriminator 2 view .LVU629
 2523 0d9c 000052E3 		cmp	r2, #0
 2524 0da0 0210A0E1 		mov	r1, r2
 2525              	.LVL233:
 310:/home/hkh/git/eapidk-code-r76-trunk/apps/EeePProg/linux/../../common/EApiAHStr.c ****     EAPI_APP_ASSERT_PARAMATER_ZERO(EApiAHCreateDecimalString, -1, StrBufLen);
 2526              		.loc 1 310 5 is_stmt 1 discriminator 2 view .LVU630
 310:/home/hkh/git/eapidk-code-r76-trunk/apps/EeePProg/linux/../../common/EApiAHStr.c ****     EAPI_APP_ASSERT_PARAMATER_ZERO(EApiAHCreateDecimalString, -1, StrBufLen);
 2527              		.loc 1 310 75 discriminator 2 view .LVU631
 311:/home/hkh/git/eapidk-code-r76-trunk/apps/EeePProg/linux/../../common/EApiAHStr.c ****     Value-=EAPI_KELVINS_OFFSET;
 2528              		.loc 1 311 5 discriminator 2 view .LVU632
 2529 0da4 1300000A 		beq	.L192
 311:/home/hkh/git/eapidk-code-r76-trunk/apps/EeePProg/linux/../../common/EApiAHStr.c ****     Value-=EAPI_KELVINS_OFFSET;
 2530              		.loc 1 311 5 discriminator 2 view .LVU633
 311:/home/hkh/git/eapidk-code-r76-trunk/apps/EeePProg/linux/../../common/EApiAHStr.c ****     Value-=EAPI_KELVINS_OFFSET;
ARM GAS  /tmp/ccQkFBoM.s 			page 65


 2531              		.loc 1 311 77 discriminator 2 view .LVU634
 312:/home/hkh/git/eapidk-code-r76-trunk/apps/EeePProg/linux/../../common/EApiAHStr.c ****     StatusCode=EApiSprintf(pString, StrBufLen, TEXT("% ")TEXT(PRIi32)TEXT(".%")TEXT(PRIi32)TEXT(" C
 2532              		.loc 1 312 5 discriminator 2 view .LVU635
 312:/home/hkh/git/eapidk-code-r76-trunk/apps/EeePProg/linux/../../common/EApiAHStr.c ****     StatusCode=EApiSprintf(pString, StrBufLen, TEXT("% ")TEXT(PRIi32)TEXT(".%")TEXT(PRIi32)TEXT(" C
 2533              		.loc 1 312 10 is_stmt 0 discriminator 2 view .LVU636
 2534 0da8 AACE40E2 		sub	ip, r0, #2720
 313:/home/hkh/git/eapidk-code-r76-trunk/apps/EeePProg/linux/../../common/EApiAHStr.c **** 
 2535              		.loc 1 313 16 discriminator 2 view .LVU637
 2536 0dac 0E00A0E1 		mov	r0, lr
 2537              	.LVL234:
 313:/home/hkh/git/eapidk-code-r76-trunk/apps/EeePProg/linux/../../common/EApiAHStr.c **** 
 2538              		.loc 1 313 16 discriminator 2 view .LVU638
 2539 0db0 CDEC0CE3 		movw	lr, #52429
 2540              	.LVL235:
 312:/home/hkh/git/eapidk-code-r76-trunk/apps/EeePProg/linux/../../common/EApiAHStr.c ****     StatusCode=EApiSprintf(pString, StrBufLen, TEXT("% ")TEXT(PRIi32)TEXT(".%")TEXT(PRIi32)TEXT(" C
 2541              		.loc 1 312 10 discriminator 2 view .LVU639
 2542 0db4 0BC04CE2 		sub	ip, ip, #11
 2543              	.LVL236:
 313:/home/hkh/git/eapidk-code-r76-trunk/apps/EeePProg/linux/../../common/EApiAHStr.c **** 
 2544              		.loc 1 313 5 is_stmt 1 discriminator 2 view .LVU640
 313:/home/hkh/git/eapidk-code-r76-trunk/apps/EeePProg/linux/../../common/EApiAHStr.c **** 
 2545              		.loc 1 313 16 is_stmt 0 discriminator 2 view .LVU641
 2546 0db8 CCEC4CE3 		movt	lr, 52428
 2547 0dbc 673606E3 		movw	r3, #26215
 2548 0dc0 9E4C8EE0 		umull	r4, lr, lr, ip
 2549 0dc4 663646E3 		movt	r3, 26214
 2550 0dc8 932CC3E0 		smull	r2, r3, r3, ip
 2551              	.LVL237:
 313:/home/hkh/git/eapidk-code-r76-trunk/apps/EeePProg/linux/../../common/EApiAHStr.c **** 
 2552              		.loc 1 313 16 discriminator 2 view .LVU642
 2553 0dcc CC2FA0E1 		asr	r2, ip, #31
 2554 0dd0 AEE1A0E1 		lsr	lr, lr, #3
 2555 0dd4 0EE18EE0 		add	lr, lr, lr, lsl #2
 2556 0dd8 433162E0 		rsb	r3, r2, r3, asr #2
 2557 0ddc 80209FE5 		ldr	r2, .L193
 2558 0de0 8EC04CE0 		sub	ip, ip, lr, lsl #1
 2559              	.LVL238:
 313:/home/hkh/git/eapidk-code-r76-trunk/apps/EeePProg/linux/../../common/EApiAHStr.c **** 
 2560              		.loc 1 313 16 discriminator 2 view .LVU643
 2561              	.LPIC113:
 2562 0de4 02208FE0 		add	r2, pc, r2
 2563 0de8 00C08DE5 		str	ip, [sp]
 2564 0dec FEFFFFEB 		bl	EApiSprintf(PLT)
 2565              	.LVL239:
 317:/home/hkh/git/eapidk-code-r76-trunk/apps/EeePProg/linux/../../common/EApiAHStr.c **** }
 2566              		.loc 1 317 5 is_stmt 1 discriminator 2 view .LVU644
 2567              	.L187:
 2568              	.L185:
 318:/home/hkh/git/eapidk-code-r76-trunk/apps/EeePProg/linux/../../common/EApiAHStr.c **** int
 2569              		.loc 1 318 1 is_stmt 0 view .LVU645
 2570 0df0 10D08DE2 		add	sp, sp, #16
 2571              		.cfi_remember_state
 2572              		.cfi_def_cfa_offset 8
 2573              		@ sp needed
 2574 0df4 1080BDE8 		pop	{r4, pc}
 2575              	.LVL240:
 2576              	.L192:
ARM GAS  /tmp/ccQkFBoM.s 			page 66


 2577              		.cfi_restore_state
 311:/home/hkh/git/eapidk-code-r76-trunk/apps/EeePProg/linux/../../common/EApiAHStr.c ****     Value-=EAPI_KELVINS_OFFSET;
 2578              		.loc 1 311 5 is_stmt 1 discriminator 1 view .LVU646
 311:/home/hkh/git/eapidk-code-r76-trunk/apps/EeePProg/linux/../../common/EApiAHStr.c ****     Value-=EAPI_KELVINS_OFFSET;
 2579              		.loc 1 311 5 discriminator 1 view .LVU647
 2580 0df8 68C09FE5 		ldr	ip, .L193+4
 2581 0dfc 0040E0E3 		mvn	r4, #0
 2582 0e00 64009FE5 		ldr	r0, .L193+8
 2583              	.LVL241:
 311:/home/hkh/git/eapidk-code-r76-trunk/apps/EeePProg/linux/../../common/EApiAHStr.c ****     Value-=EAPI_KELVINS_OFFSET;
 2584              		.loc 1 311 5 is_stmt 0 discriminator 1 view .LVU648
 2585 0e04 373100E3 		movw	r3, #311
 2586 0e08 60209FE5 		ldr	r2, .L193+12
 2587 0e0c 60109FE5 		ldr	r1, .L193+16
 2588              	.LVL242:
 311:/home/hkh/git/eapidk-code-r76-trunk/apps/EeePProg/linux/../../common/EApiAHStr.c ****     Value-=EAPI_KELVINS_OFFSET;
 2589              		.loc 1 311 5 discriminator 1 view .LVU649
 2590              	.LPIC111:
 2591 0e10 0CC08FE0 		add	ip, pc, ip
 2592              	.LPIC112:
 2593 0e14 00008FE0 		add	r0, pc, r0
 2594              	.LPIC109:
 2595 0e18 02208FE0 		add	r2, pc, r2
 2596              	.LPIC110:
 2597 0e1c 01108FE0 		add	r1, pc, r1
 2598              	.L190:
 2599 0e20 01108DE9 		stmib	sp, {r0, ip}
 2600 0e24 4500A0E3 		mov	r0, #69
 2601 0e28 00408DE5 		str	r4, [sp]
 2602 0e2c FEFFFFEB 		bl	siFormattedMessage_SC(PLT)
 2603              	.LVL243:
 311:/home/hkh/git/eapidk-code-r76-trunk/apps/EeePProg/linux/../../common/EApiAHStr.c ****     Value-=EAPI_KELVINS_OFFSET;
 2604              		.loc 1 311 5 is_stmt 1 discriminator 1 view .LVU650
 311:/home/hkh/git/eapidk-code-r76-trunk/apps/EeePProg/linux/../../common/EApiAHStr.c ****     Value-=EAPI_KELVINS_OFFSET;
 2605              		.loc 1 311 5 discriminator 1 view .LVU651
 311:/home/hkh/git/eapidk-code-r76-trunk/apps/EeePProg/linux/../../common/EApiAHStr.c ****     Value-=EAPI_KELVINS_OFFSET;
 2606              		.loc 1 311 5 discriminator 1 view .LVU652
 2607 0e30 0400A0E1 		mov	r0, r4
 2608 0e34 EDFFFFEA 		b	.L185
 2609              	.LVL244:
 2610              	.L191:
 310:/home/hkh/git/eapidk-code-r76-trunk/apps/EeePProg/linux/../../common/EApiAHStr.c ****     EAPI_APP_ASSERT_PARAMATER_ZERO(EApiAHCreateDecimalString, -1, StrBufLen);
 2611              		.loc 1 310 5 discriminator 1 view .LVU653
 310:/home/hkh/git/eapidk-code-r76-trunk/apps/EeePProg/linux/../../common/EApiAHStr.c ****     EAPI_APP_ASSERT_PARAMATER_ZERO(EApiAHCreateDecimalString, -1, StrBufLen);
 2612              		.loc 1 310 5 discriminator 1 view .LVU654
 2613 0e38 38C09FE5 		ldr	ip, .L193+20
 2614 0e3c 0040E0E3 		mvn	r4, #0
 2615 0e40 34009FE5 		ldr	r0, .L193+24
 2616              	.LVL245:
 310:/home/hkh/git/eapidk-code-r76-trunk/apps/EeePProg/linux/../../common/EApiAHStr.c ****     EAPI_APP_ASSERT_PARAMATER_ZERO(EApiAHCreateDecimalString, -1, StrBufLen);
 2617              		.loc 1 310 5 is_stmt 0 discriminator 1 view .LVU655
 2618 0e44 363100E3 		movw	r3, #310
 2619 0e48 30209FE5 		ldr	r2, .L193+28
 2620              	.LVL246:
 310:/home/hkh/git/eapidk-code-r76-trunk/apps/EeePProg/linux/../../common/EApiAHStr.c ****     EAPI_APP_ASSERT_PARAMATER_ZERO(EApiAHCreateDecimalString, -1, StrBufLen);
 2621              		.loc 1 310 5 discriminator 1 view .LVU656
 2622 0e4c 30109FE5 		ldr	r1, .L193+32
ARM GAS  /tmp/ccQkFBoM.s 			page 67


 2623              	.LVL247:
 310:/home/hkh/git/eapidk-code-r76-trunk/apps/EeePProg/linux/../../common/EApiAHStr.c ****     EAPI_APP_ASSERT_PARAMATER_ZERO(EApiAHCreateDecimalString, -1, StrBufLen);
 2624              		.loc 1 310 5 discriminator 1 view .LVU657
 2625              	.LPIC107:
 2626 0e50 0CC08FE0 		add	ip, pc, ip
 2627              	.LPIC108:
 2628 0e54 00008FE0 		add	r0, pc, r0
 2629              	.LPIC105:
 2630 0e58 02208FE0 		add	r2, pc, r2
 2631              	.LPIC106:
 2632 0e5c 01108FE0 		add	r1, pc, r1
 2633 0e60 EEFFFFEA 		b	.L190
 2634              	.L194:
 2635              		.align	2
 2636              	.L193:
 2637 0e64 78000000 		.word	.LC19-(.LPIC113+8)
 2638 0e68 50000000 		.word	.LC6-(.LPIC111+8)
 2639 0e6c 50000000 		.word	.LC3-(.LPIC112+8)
 2640 0e70 50000000 		.word	.LC14-(.LPIC109+8)
 2641 0e74 50000000 		.word	.LC1-(.LPIC110+8)
 2642 0e78 20000000 		.word	.LC2-(.LPIC107+8)
 2643 0e7c 20000000 		.word	.LC3-(.LPIC108+8)
 2644 0e80 20000000 		.word	.LC14-(.LPIC105+8)
 2645 0e84 20000000 		.word	.LC1-(.LPIC106+8)
 2646              		.cfi_endproc
 2647              	.LFE9:
 2649              		.section	.rodata.str1.4
 2650 01e7 00       		.align	2
 2651              	.LC20:
 2652 01e8 45417069 		.ascii	"EApiAHCreateTimeString\000"
 2652      41484372 
 2652      65617465 
 2652      54696D65 
 2652      53747269 
 2653 01ff 00       		.align	2
 2654              	.LC21:
 2655 0200 25752059 		.ascii	"%u Years \000"
 2655      65617273 
 2655      2000
 2656 020a 0000     		.align	2
 2657              	.LC22:
 2658 020c 25752044 		.ascii	"%u Days \000"
 2658      61797320 
 2658      00
 2659 0215 000000   		.align	2
 2660              	.LC23:
 2661 0218 25752048 		.ascii	"%u Hours \000"
 2661      6F757273 
 2661      2000
 2662 0222 0000     		.align	2
 2663              	.LC24:
 2664 0224 2575204D 		.ascii	"%u Mins\000"
 2664      696E7300 
 2665              		.text
 2666              		.align	2
 2667              		.global	EApiAHCreateTimeString
 2668              		.syntax unified
ARM GAS  /tmp/ccQkFBoM.s 			page 68


 2669              		.arm
 2670              		.fpu vfpv3
 2672              	EApiAHCreateTimeString:
 2673              	.LVL248:
 2674              	.LFB10:
 325:/home/hkh/git/eapidk-code-r76-trunk/apps/EeePProg/linux/../../common/EApiAHStr.c ****     int StatusCode;
 2675              		.loc 1 325 1 is_stmt 1 view -0
 2676              		.cfi_startproc
 2677              		@ args = 0, pretend = 0, frame = 0
 2678              		@ frame_needed = 0, uses_anonymous_args = 0
 326:/home/hkh/git/eapidk-code-r76-trunk/apps/EeePProg/linux/../../common/EApiAHStr.c ****     int StrLength=0;
 2679              		.loc 1 326 5 view .LVU659
 327:/home/hkh/git/eapidk-code-r76-trunk/apps/EeePProg/linux/../../common/EApiAHStr.c ****     EAPI_APP_ASSERT_PARAMATER_NULL(EApiAHCreateTimeString, -1, pString);
 2680              		.loc 1 327 5 view .LVU660
 328:/home/hkh/git/eapidk-code-r76-trunk/apps/EeePProg/linux/../../common/EApiAHStr.c ****     EAPI_APP_ASSERT_PARAMATER_ZERO(EApiAHCreateTimeString, -1, StrBufLen);
 2681              		.loc 1 328 5 view .LVU661
 325:/home/hkh/git/eapidk-code-r76-trunk/apps/EeePProg/linux/../../common/EApiAHStr.c ****     int StatusCode;
 2682              		.loc 1 325 1 is_stmt 0 view .LVU662
 2683 0e88 F0412DE9 		push	{r4, r5, r6, r7, r8, lr}
 2684              		.cfi_def_cfa_offset 24
 2685              		.cfi_offset 4, -24
 2686              		.cfi_offset 5, -20
 2687              		.cfi_offset 6, -16
 2688              		.cfi_offset 7, -12
 2689              		.cfi_offset 8, -8
 2690              		.cfi_offset 14, -4
