ARM GAS  /tmp/ccqui9DH.s 			page 1


   1              		.cpu cortex-a9
   2              		.eabi_attribute 28, 1
   3              		.eabi_attribute 20, 1
   4              		.eabi_attribute 21, 1
   5              		.eabi_attribute 23, 3
   6              		.eabi_attribute 24, 1
   7              		.eabi_attribute 25, 1
   8              		.eabi_attribute 26, 2
   9              		.eabi_attribute 30, 2
  10              		.eabi_attribute 34, 1
  11              		.eabi_attribute 18, 4
  12              		.file	"EeePProg.c"
  13              		.text
  14              	.Ltext0:
  15              		.cfi_sections	.debug_frame
  16              		.section	.rodata.str1.4,"aMS",%progbits,1
  17              		.align	2
  18              	.LC0:
  19 0000 54422000 		.ascii	"TB \000"
  20              		.align	2
  21              	.LC1:
  22 0004 2F686F6D 		.ascii	"/home/hkh/git/eapidk-code-r76-trunk/apps/EeePProg/l"
  22      652F686B 
  22      682F6769 
  22      742F6561 
  22      7069646B 
  23 0037 696E7578 		.ascii	"inux/../EeePProg.c\000"
  23      2F2E2E2F 
  23      45656550 
  23      50726F67 
  23      2E6300
  24 004a 0000     		.align	2
  25              	.LC2:
  26 004c 45656550 		.ascii	"EeeP_CreateCOM0R20_CBImage( &BHandel , *(char**)pAr"
  26      5F437265 
  26      61746543 
  26      4F4D3052 
  26      32305F43 
  27 007f 67446174 		.ascii	"gData )\000"
  27      61202900 
  28 0087 00       		.align	2
  29              	.LC3:
  30 0088 25730A00 		.ascii	"%s\012\000"
  31              		.align	2
  32              	.LC4:
  33 008c 45656550 		.ascii	"EeePWriteBufferToEEP(BHandel, EAPI_ID_I2C_EXTERNAL,"
  33      57726974 
  33      65427566 
  33      66657254 
  33      6F454550 
  34 00bf 20434F4D 		.ascii	" COM0R20_CB_EEP_DEV_ADDR)\000"
  34      30523230 
  34      5F43425F 
  34      4545505F 
  34      4445565F 
  35              		.text
  36              		.align	2
ARM GAS  /tmp/ccqui9DH.s 			page 2


  37              		.global	CMD_CreateCOM0R20CB_EEP
  38              		.arch armv7-a
  39              		.arch_extension mp
  40              		.arch_extension sec
  41              		.syntax unified
  42              		.arm
  43              		.fpu vfpv3
  45              	CMD_CreateCOM0R20CB_EEP:
  46              	.LVL0:
  47              	.LFB6:
  48              		.file 1 "/home/hkh/git/eapidk-code-r76-trunk/apps/EeePProg/linux/../EeePProg.c"
   1:/home/hkh/git/eapidk-code-r76-trunk/apps/EeePProg/linux/../EeePProg.c **** /*
   2:/home/hkh/git/eapidk-code-r76-trunk/apps/EeePProg/linux/../EeePProg.c ****  *<KHeader>
   3:/home/hkh/git/eapidk-code-r76-trunk/apps/EeePProg/linux/../EeePProg.c ****  *+=========================================================================
   4:/home/hkh/git/eapidk-code-r76-trunk/apps/EeePProg/linux/../EeePProg.c ****  *I  Project Name: EApiDK Embedded Application Development Kit
   5:/home/hkh/git/eapidk-code-r76-trunk/apps/EeePProg/linux/../EeePProg.c ****  *+=========================================================================
   6:/home/hkh/git/eapidk-code-r76-trunk/apps/EeePProg/linux/../EeePProg.c ****  *I  $HeadURL: file:///svn/p/eapidk/code/trunk/apps/EeePProg/EeePProg.c $
   7:/home/hkh/git/eapidk-code-r76-trunk/apps/EeePProg/linux/../EeePProg.c ****  *+=========================================================================
   8:/home/hkh/git/eapidk-code-r76-trunk/apps/EeePProg/linux/../EeePProg.c ****  *I   Copyright: Copyright (c) 2002-2010, Kontron Embedded Modules GmbH
   9:/home/hkh/git/eapidk-code-r76-trunk/apps/EeePProg/linux/../EeePProg.c ****  *I      Author: John Kearney,                  John.Kearney@kontron.com
  10:/home/hkh/git/eapidk-code-r76-trunk/apps/EeePProg/linux/../EeePProg.c ****  *I
  11:/home/hkh/git/eapidk-code-r76-trunk/apps/EeePProg/linux/../EeePProg.c ****  *I     License: All rights reserved. This program and the accompanying 
  12:/home/hkh/git/eapidk-code-r76-trunk/apps/EeePProg/linux/../EeePProg.c ****  *I              materials are licensed and made available under the 
  13:/home/hkh/git/eapidk-code-r76-trunk/apps/EeePProg/linux/../EeePProg.c ****  *I              terms and conditions of the BSD License which 
  14:/home/hkh/git/eapidk-code-r76-trunk/apps/EeePProg/linux/../EeePProg.c ****  *I              accompanies this distribution. The full text of the 
  15:/home/hkh/git/eapidk-code-r76-trunk/apps/EeePProg/linux/../EeePProg.c ****  *I              license may be found at 
  16:/home/hkh/git/eapidk-code-r76-trunk/apps/EeePProg/linux/../EeePProg.c ****  *I              http://opensource.org/licenses/bsd-license.php
  17:/home/hkh/git/eapidk-code-r76-trunk/apps/EeePProg/linux/../EeePProg.c ****  *I              
  18:/home/hkh/git/eapidk-code-r76-trunk/apps/EeePProg/linux/../EeePProg.c ****  *I              THE PROGRAM IS DISTRIBUTED UNDER THE BSD LICENSE ON AN "
  19:/home/hkh/git/eapidk-code-r76-trunk/apps/EeePProg/linux/../EeePProg.c ****  *I              AS IS" BASIS, WITHOUT WARRANTIES OR REPRESENTATIONS OF 
  20:/home/hkh/git/eapidk-code-r76-trunk/apps/EeePProg/linux/../EeePProg.c ****  *I              ANY KIND, EITHER EXPRESS OR IMPLIED.
  21:/home/hkh/git/eapidk-code-r76-trunk/apps/EeePProg/linux/../EeePProg.c ****  *I
  22:/home/hkh/git/eapidk-code-r76-trunk/apps/EeePProg/linux/../EeePProg.c ****  *I Description: Auto Created for EApiValidateAPI.c
  23:/home/hkh/git/eapidk-code-r76-trunk/apps/EeePProg/linux/../EeePProg.c ****  *I
  24:/home/hkh/git/eapidk-code-r76-trunk/apps/EeePProg/linux/../EeePProg.c ****  *+-------------------------------------------------------------------------
  25:/home/hkh/git/eapidk-code-r76-trunk/apps/EeePProg/linux/../EeePProg.c ****  *I
  26:/home/hkh/git/eapidk-code-r76-trunk/apps/EeePProg/linux/../EeePProg.c ****  *I  File Name            : EeePProg.c
  27:/home/hkh/git/eapidk-code-r76-trunk/apps/EeePProg/linux/../EeePProg.c ****  *I  File Location        : apps\EeePProg
  28:/home/hkh/git/eapidk-code-r76-trunk/apps/EeePProg/linux/../EeePProg.c ****  *I  Last committed       : $Revision: 74 $
  29:/home/hkh/git/eapidk-code-r76-trunk/apps/EeePProg/linux/../EeePProg.c ****  *I  Last changed by      : $Author: dethrophes $
  30:/home/hkh/git/eapidk-code-r76-trunk/apps/EeePProg/linux/../EeePProg.c ****  *I  Last changed date    : $Date: 2010-06-23 19:26:50 +0000 (Wed, 23 Jun 2010) $
  31:/home/hkh/git/eapidk-code-r76-trunk/apps/EeePProg/linux/../EeePProg.c ****  *I  ID                   : $Id: EeePProg.c 74 2010-06-23 19:26:50Z dethrophes $
  32:/home/hkh/git/eapidk-code-r76-trunk/apps/EeePProg/linux/../EeePProg.c ****  *I
  33:/home/hkh/git/eapidk-code-r76-trunk/apps/EeePProg/linux/../EeePProg.c ****  *+=========================================================================
  34:/home/hkh/git/eapidk-code-r76-trunk/apps/EeePProg/linux/../EeePProg.c ****  *</KHeader>
  35:/home/hkh/git/eapidk-code-r76-trunk/apps/EeePProg/linux/../EeePProg.c ****  */
  36:/home/hkh/git/eapidk-code-r76-trunk/apps/EeePProg/linux/../EeePProg.c ****   #include <EeePApp.h>
  37:/home/hkh/git/eapidk-code-r76-trunk/apps/EeePProg/linux/../EeePProg.c **** 
  38:/home/hkh/git/eapidk-code-r76-trunk/apps/EeePProg/linux/../EeePProg.c **** const char cszTitle[]= 
  39:/home/hkh/git/eapidk-code-r76-trunk/apps/EeePProg/linux/../EeePProg.c ****   "+=============================================================================+\n"
  40:/home/hkh/git/eapidk-code-r76-trunk/apps/EeePProg/linux/../EeePProg.c ****   "| EeePProg.exe  Copyright (C) Kontron Embedded Modules GmbH 2010   V %u.%u.%04u |\n"
  41:/home/hkh/git/eapidk-code-r76-trunk/apps/EeePProg/linux/../EeePProg.c ****   "+=============================================================================+\n"
  42:/home/hkh/git/eapidk-code-r76-trunk/apps/EeePProg/linux/../EeePProg.c ****   "\n"
  43:/home/hkh/git/eapidk-code-r76-trunk/apps/EeePProg/linux/../EeePProg.c **** ;
  44:/home/hkh/git/eapidk-code-r76-trunk/apps/EeePProg/linux/../EeePProg.c **** 
  45:/home/hkh/git/eapidk-code-r76-trunk/apps/EeePProg/linux/../EeePProg.c **** const char syntaxErrMes[]  = "Syntax error / Use -h for info";
  46:/home/hkh/git/eapidk-code-r76-trunk/apps/EeePProg/linux/../EeePProg.c **** 
ARM GAS  /tmp/ccqui9DH.s 			page 3


  47:/home/hkh/git/eapidk-code-r76-trunk/apps/EeePProg/linux/../EeePProg.c **** 
  48:/home/hkh/git/eapidk-code-r76-trunk/apps/EeePProg/linux/../EeePProg.c **** Options_t CurOptions;
  49:/home/hkh/git/eapidk-code-r76-trunk/apps/EeePProg/linux/../EeePProg.c **** 
  50:/home/hkh/git/eapidk-code-r76-trunk/apps/EeePProg/linux/../EeePProg.c **** ArgDesc_t  COM0R20M_Cfg[]={
  51:/home/hkh/git/eapidk-code-r76-trunk/apps/EeePProg/linux/../EeePProg.c ****   {
  52:/home/hkh/git/eapidk-code-r76-trunk/apps/EeePProg/linux/../EeePProg.c ****   &CurOptions.szCOM0R20M_Cfg_File        ,
  53:/home/hkh/git/eapidk-code-r76-trunk/apps/EeePProg/linux/../EeePProg.c ****   sizeof(CurOptions.szCOM0R20M_Cfg_File) ,
  54:/home/hkh/git/eapidk-code-r76-trunk/apps/EeePProg/linux/../EeePProg.c ****   "<Filename|stdout>  Destination File"  ,
  55:/home/hkh/git/eapidk-code-r76-trunk/apps/EeePProg/linux/../EeePProg.c ****   StringArg
  56:/home/hkh/git/eapidk-code-r76-trunk/apps/EeePProg/linux/../EeePProg.c ****   },
  57:/home/hkh/git/eapidk-code-r76-trunk/apps/EeePProg/linux/../EeePProg.c **** };
  58:/home/hkh/git/eapidk-code-r76-trunk/apps/EeePProg/linux/../EeePProg.c **** ArgDesc_t  COM0R20M_Img[]={
  59:/home/hkh/git/eapidk-code-r76-trunk/apps/EeePProg/linux/../EeePProg.c ****   {
  60:/home/hkh/git/eapidk-code-r76-trunk/apps/EeePProg/linux/../EeePProg.c ****   &CurOptions.CreateCOM0R20M.InFile       ,
  61:/home/hkh/git/eapidk-code-r76-trunk/apps/EeePProg/linux/../EeePProg.c ****   sizeof(CurOptions.CreateCOM0R20M.InFile) ,
  62:/home/hkh/git/eapidk-code-r76-trunk/apps/EeePProg/linux/../EeePProg.c ****   "<Filename>  Configuration Filename"   ,
  63:/home/hkh/git/eapidk-code-r76-trunk/apps/EeePProg/linux/../EeePProg.c ****   StringArg
  64:/home/hkh/git/eapidk-code-r76-trunk/apps/EeePProg/linux/../EeePProg.c ****   },
  65:/home/hkh/git/eapidk-code-r76-trunk/apps/EeePProg/linux/../EeePProg.c ****   {
  66:/home/hkh/git/eapidk-code-r76-trunk/apps/EeePProg/linux/../EeePProg.c ****   &CurOptions.CreateCOM0R20M.OutFile        ,
  67:/home/hkh/git/eapidk-code-r76-trunk/apps/EeePProg/linux/../EeePProg.c ****   sizeof(CurOptions.CreateCOM0R20M.OutFile) ,
  68:/home/hkh/git/eapidk-code-r76-trunk/apps/EeePProg/linux/../EeePProg.c ****   "<Filename>  Destination File"         ,
  69:/home/hkh/git/eapidk-code-r76-trunk/apps/EeePProg/linux/../EeePProg.c ****   StringArg
  70:/home/hkh/git/eapidk-code-r76-trunk/apps/EeePProg/linux/../EeePProg.c ****   },
  71:/home/hkh/git/eapidk-code-r76-trunk/apps/EeePProg/linux/../EeePProg.c **** };
  72:/home/hkh/git/eapidk-code-r76-trunk/apps/EeePProg/linux/../EeePProg.c **** ArgDesc_t  COM0R20M_EEP[]={
  73:/home/hkh/git/eapidk-code-r76-trunk/apps/EeePProg/linux/../EeePProg.c ****   {
  74:/home/hkh/git/eapidk-code-r76-trunk/apps/EeePProg/linux/../EeePProg.c ****   &CurOptions.szCOM0R20M_S2Cfg_File        ,
  75:/home/hkh/git/eapidk-code-r76-trunk/apps/EeePProg/linux/../EeePProg.c ****   sizeof(CurOptions.szCOM0R20M_S2Cfg_File) ,
  76:/home/hkh/git/eapidk-code-r76-trunk/apps/EeePProg/linux/../EeePProg.c ****   "<Filename>  Configuration Filename"   ,
  77:/home/hkh/git/eapidk-code-r76-trunk/apps/EeePProg/linux/../EeePProg.c ****   StringArg
  78:/home/hkh/git/eapidk-code-r76-trunk/apps/EeePProg/linux/../EeePProg.c ****   },
  79:/home/hkh/git/eapidk-code-r76-trunk/apps/EeePProg/linux/../EeePProg.c **** };
  80:/home/hkh/git/eapidk-code-r76-trunk/apps/EeePProg/linux/../EeePProg.c **** ArgDesc_t  COM0R20CB_Cfg[]={
  81:/home/hkh/git/eapidk-code-r76-trunk/apps/EeePProg/linux/../EeePProg.c ****   {
  82:/home/hkh/git/eapidk-code-r76-trunk/apps/EeePProg/linux/../EeePProg.c ****   &CurOptions.szCOM0R20CB_Cfg_File       ,
  83:/home/hkh/git/eapidk-code-r76-trunk/apps/EeePProg/linux/../EeePProg.c ****   sizeof(CurOptions.szCOM0R20CB_Cfg_File),
  84:/home/hkh/git/eapidk-code-r76-trunk/apps/EeePProg/linux/../EeePProg.c ****   "<Filename|stdout>  Destination File"  ,
  85:/home/hkh/git/eapidk-code-r76-trunk/apps/EeePProg/linux/../EeePProg.c ****   StringArg
  86:/home/hkh/git/eapidk-code-r76-trunk/apps/EeePProg/linux/../EeePProg.c ****   },
  87:/home/hkh/git/eapidk-code-r76-trunk/apps/EeePProg/linux/../EeePProg.c **** };
  88:/home/hkh/git/eapidk-code-r76-trunk/apps/EeePProg/linux/../EeePProg.c **** ArgDesc_t  COM0R20CB_Img[]={
  89:/home/hkh/git/eapidk-code-r76-trunk/apps/EeePProg/linux/../EeePProg.c ****   {
  90:/home/hkh/git/eapidk-code-r76-trunk/apps/EeePProg/linux/../EeePProg.c ****   &CurOptions.CreateCOM0R20CB.InFile       ,
  91:/home/hkh/git/eapidk-code-r76-trunk/apps/EeePProg/linux/../EeePProg.c ****   sizeof(CurOptions.CreateCOM0R20CB.InFile) ,
  92:/home/hkh/git/eapidk-code-r76-trunk/apps/EeePProg/linux/../EeePProg.c ****   "<Filename>  Configuration Filename"   ,
  93:/home/hkh/git/eapidk-code-r76-trunk/apps/EeePProg/linux/../EeePProg.c ****   StringArg
  94:/home/hkh/git/eapidk-code-r76-trunk/apps/EeePProg/linux/../EeePProg.c ****   },
  95:/home/hkh/git/eapidk-code-r76-trunk/apps/EeePProg/linux/../EeePProg.c ****   {
  96:/home/hkh/git/eapidk-code-r76-trunk/apps/EeePProg/linux/../EeePProg.c ****   &CurOptions.CreateCOM0R20CB.OutFile       ,
  97:/home/hkh/git/eapidk-code-r76-trunk/apps/EeePProg/linux/../EeePProg.c ****   sizeof(CurOptions.CreateCOM0R20CB.OutFile),
  98:/home/hkh/git/eapidk-code-r76-trunk/apps/EeePProg/linux/../EeePProg.c ****   "<Filename>  Destination File"          ,
  99:/home/hkh/git/eapidk-code-r76-trunk/apps/EeePProg/linux/../EeePProg.c ****   StringArg
 100:/home/hkh/git/eapidk-code-r76-trunk/apps/EeePProg/linux/../EeePProg.c ****   },
 101:/home/hkh/git/eapidk-code-r76-trunk/apps/EeePProg/linux/../EeePProg.c **** };
 102:/home/hkh/git/eapidk-code-r76-trunk/apps/EeePProg/linux/../EeePProg.c **** ArgDesc_t  COM0R20CB_EEP[]={
 103:/home/hkh/git/eapidk-code-r76-trunk/apps/EeePProg/linux/../EeePProg.c ****   {
ARM GAS  /tmp/ccqui9DH.s 			page 4


 104:/home/hkh/git/eapidk-code-r76-trunk/apps/EeePProg/linux/../EeePProg.c ****   &CurOptions.szCOM0R20CB_S2Cfg_File        ,
 105:/home/hkh/git/eapidk-code-r76-trunk/apps/EeePProg/linux/../EeePProg.c ****   sizeof(CurOptions.szCOM0R20CB_S2Cfg_File) ,
 106:/home/hkh/git/eapidk-code-r76-trunk/apps/EeePProg/linux/../EeePProg.c ****   "<Filename>  Configuration Filename"   ,
 107:/home/hkh/git/eapidk-code-r76-trunk/apps/EeePProg/linux/../EeePProg.c ****   StringArg
 108:/home/hkh/git/eapidk-code-r76-trunk/apps/EeePProg/linux/../EeePProg.c ****   },
 109:/home/hkh/git/eapidk-code-r76-trunk/apps/EeePProg/linux/../EeePProg.c **** };
 110:/home/hkh/git/eapidk-code-r76-trunk/apps/EeePProg/linux/../EeePProg.c **** ArgDesc_t  EeePExpEEP_Cfg[]={
 111:/home/hkh/git/eapidk-code-r76-trunk/apps/EeePProg/linux/../EeePProg.c ****   {
 112:/home/hkh/git/eapidk-code-r76-trunk/apps/EeePProg/linux/../EeePProg.c ****   &CurOptions.szEeePExpEEP_Cfg_File        ,
 113:/home/hkh/git/eapidk-code-r76-trunk/apps/EeePProg/linux/../EeePProg.c ****   sizeof(CurOptions.szEeePExpEEP_Cfg_File) ,
 114:/home/hkh/git/eapidk-code-r76-trunk/apps/EeePProg/linux/../EeePProg.c ****   "<Filename|stdout>  Destination File"  ,
 115:/home/hkh/git/eapidk-code-r76-trunk/apps/EeePProg/linux/../EeePProg.c ****   StringArg
 116:/home/hkh/git/eapidk-code-r76-trunk/apps/EeePProg/linux/../EeePProg.c ****   },
 117:/home/hkh/git/eapidk-code-r76-trunk/apps/EeePProg/linux/../EeePProg.c **** };
 118:/home/hkh/git/eapidk-code-r76-trunk/apps/EeePProg/linux/../EeePProg.c **** ArgDesc_t  EeePExpEEP_Img[]={
 119:/home/hkh/git/eapidk-code-r76-trunk/apps/EeePProg/linux/../EeePProg.c ****   {
 120:/home/hkh/git/eapidk-code-r76-trunk/apps/EeePProg/linux/../EeePProg.c ****   &CurOptions.CreateEeePExpEEP.InFile       ,
 121:/home/hkh/git/eapidk-code-r76-trunk/apps/EeePProg/linux/../EeePProg.c ****   sizeof(CurOptions.CreateEeePExpEEP.InFile) ,
 122:/home/hkh/git/eapidk-code-r76-trunk/apps/EeePProg/linux/../EeePProg.c ****   "<Filename>  Configuration Filename"   ,
 123:/home/hkh/git/eapidk-code-r76-trunk/apps/EeePProg/linux/../EeePProg.c ****   StringArg
 124:/home/hkh/git/eapidk-code-r76-trunk/apps/EeePProg/linux/../EeePProg.c ****   },
 125:/home/hkh/git/eapidk-code-r76-trunk/apps/EeePProg/linux/../EeePProg.c ****   {
 126:/home/hkh/git/eapidk-code-r76-trunk/apps/EeePProg/linux/../EeePProg.c ****   &CurOptions.CreateEeePExpEEP.OutFile       ,
 127:/home/hkh/git/eapidk-code-r76-trunk/apps/EeePProg/linux/../EeePProg.c ****   sizeof(CurOptions.CreateEeePExpEEP.OutFile) ,
 128:/home/hkh/git/eapidk-code-r76-trunk/apps/EeePProg/linux/../EeePProg.c ****   "<Filename>  Destination File"            ,
 129:/home/hkh/git/eapidk-code-r76-trunk/apps/EeePProg/linux/../EeePProg.c ****   StringArg
 130:/home/hkh/git/eapidk-code-r76-trunk/apps/EeePProg/linux/../EeePProg.c ****   },
 131:/home/hkh/git/eapidk-code-r76-trunk/apps/EeePProg/linux/../EeePProg.c **** };
 132:/home/hkh/git/eapidk-code-r76-trunk/apps/EeePProg/linux/../EeePProg.c **** ArgDesc_t  EeePExpEEP_EEP[]={
 133:/home/hkh/git/eapidk-code-r76-trunk/apps/EeePProg/linux/../EeePProg.c ****   {
 134:/home/hkh/git/eapidk-code-r76-trunk/apps/EeePProg/linux/../EeePProg.c ****   &CurOptions.CreateEeePExpEEP_EEP.FileName   ,
 135:/home/hkh/git/eapidk-code-r76-trunk/apps/EeePProg/linux/../EeePProg.c ****   sizeof(CurOptions.CreateEeePExpEEP_EEP.FileName) ,
 136:/home/hkh/git/eapidk-code-r76-trunk/apps/EeePProg/linux/../EeePProg.c ****   "<Filename>  Configuration Filename"   ,
 137:/home/hkh/git/eapidk-code-r76-trunk/apps/EeePProg/linux/../EeePProg.c ****   StringArg
 138:/home/hkh/git/eapidk-code-r76-trunk/apps/EeePProg/linux/../EeePProg.c ****   },
 139:/home/hkh/git/eapidk-code-r76-trunk/apps/EeePProg/linux/../EeePProg.c ****   {
 140:/home/hkh/git/eapidk-code-r76-trunk/apps/EeePProg/linux/../EeePProg.c ****   &CurOptions.CreateEeePExpEEP_EEP.I2CBus     ,
 141:/home/hkh/git/eapidk-code-r76-trunk/apps/EeePProg/linux/../EeePProg.c ****   sizeof(CurOptions.CreateEeePExpEEP_EEP.I2CBus),
 142:/home/hkh/git/eapidk-code-r76-trunk/apps/EeePProg/linux/../EeePProg.c ****   "<EApi Id>      EApi Bus Id"             ,
 143:/home/hkh/git/eapidk-code-r76-trunk/apps/EeePProg/linux/../EeePProg.c ****   NumberArg
 144:/home/hkh/git/eapidk-code-r76-trunk/apps/EeePProg/linux/../EeePProg.c ****   },
 145:/home/hkh/git/eapidk-code-r76-trunk/apps/EeePProg/linux/../EeePProg.c ****   {
 146:/home/hkh/git/eapidk-code-r76-trunk/apps/EeePProg/linux/../EeePProg.c ****   &CurOptions.CreateEeePExpEEP_EEP.I2CDevAddr     ,
 147:/home/hkh/git/eapidk-code-r76-trunk/apps/EeePProg/linux/../EeePProg.c ****   sizeof(CurOptions.CreateEeePExpEEP_EEP.I2CDevAddr),
 148:/home/hkh/git/eapidk-code-r76-trunk/apps/EeePProg/linux/../EeePProg.c ****   "<I2C Address>  EEPROM Device Address"   ,
 149:/home/hkh/git/eapidk-code-r76-trunk/apps/EeePProg/linux/../EeePProg.c ****   NumberArg
 150:/home/hkh/git/eapidk-code-r76-trunk/apps/EeePProg/linux/../EeePProg.c ****   },
 151:/home/hkh/git/eapidk-code-r76-trunk/apps/EeePProg/linux/../EeePProg.c **** };
 152:/home/hkh/git/eapidk-code-r76-trunk/apps/EeePProg/linux/../EeePProg.c **** ArgDesc_t  EeePExpEEP_PEEP[]={
 153:/home/hkh/git/eapidk-code-r76-trunk/apps/EeePProg/linux/../EeePProg.c ****   {
 154:/home/hkh/git/eapidk-code-r76-trunk/apps/EeePProg/linux/../EeePProg.c ****   &CurOptions.ProgramEeePExpEEP_EEP.FileName   ,
 155:/home/hkh/git/eapidk-code-r76-trunk/apps/EeePProg/linux/../EeePProg.c ****   sizeof(CurOptions.ProgramEeePExpEEP_EEP.FileName) ,
 156:/home/hkh/git/eapidk-code-r76-trunk/apps/EeePProg/linux/../EeePProg.c ****   "<Filename>  Binary Image Filename"       ,
 157:/home/hkh/git/eapidk-code-r76-trunk/apps/EeePProg/linux/../EeePProg.c ****   StringArg
 158:/home/hkh/git/eapidk-code-r76-trunk/apps/EeePProg/linux/../EeePProg.c ****   },
 159:/home/hkh/git/eapidk-code-r76-trunk/apps/EeePProg/linux/../EeePProg.c ****   {
 160:/home/hkh/git/eapidk-code-r76-trunk/apps/EeePProg/linux/../EeePProg.c ****   &CurOptions.ProgramEeePExpEEP_EEP.I2CBus   ,
ARM GAS  /tmp/ccqui9DH.s 			page 5


 161:/home/hkh/git/eapidk-code-r76-trunk/apps/EeePProg/linux/../EeePProg.c ****   sizeof(CurOptions.ProgramEeePExpEEP_EEP.I2CBus) ,
 162:/home/hkh/git/eapidk-code-r76-trunk/apps/EeePProg/linux/../EeePProg.c ****   "<EApi Id>      EApi Bus Id"             ,
 163:/home/hkh/git/eapidk-code-r76-trunk/apps/EeePProg/linux/../EeePProg.c ****   NumberArg
 164:/home/hkh/git/eapidk-code-r76-trunk/apps/EeePProg/linux/../EeePProg.c ****   },
 165:/home/hkh/git/eapidk-code-r76-trunk/apps/EeePProg/linux/../EeePProg.c ****   {
 166:/home/hkh/git/eapidk-code-r76-trunk/apps/EeePProg/linux/../EeePProg.c ****   &CurOptions.ProgramEeePExpEEP_EEP.I2CDevAddr   ,
 167:/home/hkh/git/eapidk-code-r76-trunk/apps/EeePProg/linux/../EeePProg.c ****   sizeof(CurOptions.ProgramEeePExpEEP_EEP.I2CDevAddr) ,
 168:/home/hkh/git/eapidk-code-r76-trunk/apps/EeePProg/linux/../EeePProg.c ****   "<I2C Address>  EEPROM Device Address"   ,
 169:/home/hkh/git/eapidk-code-r76-trunk/apps/EeePProg/linux/../EeePProg.c ****   NumberArg
 170:/home/hkh/git/eapidk-code-r76-trunk/apps/EeePProg/linux/../EeePProg.c ****   },
 171:/home/hkh/git/eapidk-code-r76-trunk/apps/EeePProg/linux/../EeePProg.c **** };
 172:/home/hkh/git/eapidk-code-r76-trunk/apps/EeePProg/linux/../EeePProg.c **** ArgDesc_t  COM0R20CB_IMG[]={
 173:/home/hkh/git/eapidk-code-r76-trunk/apps/EeePProg/linux/../EeePProg.c ****   {
 174:/home/hkh/git/eapidk-code-r76-trunk/apps/EeePProg/linux/../EeePProg.c ****   &CurOptions.szCOM0R20CBEEP_To_Img_FName        ,
 175:/home/hkh/git/eapidk-code-r76-trunk/apps/EeePProg/linux/../EeePProg.c ****   sizeof(CurOptions.szCOM0R20CBEEP_To_Img_FName) ,
 176:/home/hkh/git/eapidk-code-r76-trunk/apps/EeePProg/linux/../EeePProg.c ****   "<Filename>  Binary Image Filename"       ,
 177:/home/hkh/git/eapidk-code-r76-trunk/apps/EeePProg/linux/../EeePProg.c ****   StringArg
 178:/home/hkh/git/eapidk-code-r76-trunk/apps/EeePProg/linux/../EeePProg.c ****   },
 179:/home/hkh/git/eapidk-code-r76-trunk/apps/EeePProg/linux/../EeePProg.c **** };
 180:/home/hkh/git/eapidk-code-r76-trunk/apps/EeePProg/linux/../EeePProg.c **** ArgDesc_t  COM0R20M_IMG[]={
 181:/home/hkh/git/eapidk-code-r76-trunk/apps/EeePProg/linux/../EeePProg.c ****   {
 182:/home/hkh/git/eapidk-code-r76-trunk/apps/EeePProg/linux/../EeePProg.c ****   &CurOptions.szCOM0R20MEEP_To_Img_FName        ,
 183:/home/hkh/git/eapidk-code-r76-trunk/apps/EeePProg/linux/../EeePProg.c ****   sizeof(CurOptions.szCOM0R20MEEP_To_Img_FName) ,
 184:/home/hkh/git/eapidk-code-r76-trunk/apps/EeePProg/linux/../EeePProg.c ****   "<Filename>  Binary Image Filename"       ,
 185:/home/hkh/git/eapidk-code-r76-trunk/apps/EeePProg/linux/../EeePProg.c ****   StringArg
 186:/home/hkh/git/eapidk-code-r76-trunk/apps/EeePProg/linux/../EeePProg.c ****   },
 187:/home/hkh/git/eapidk-code-r76-trunk/apps/EeePProg/linux/../EeePProg.c **** };
 188:/home/hkh/git/eapidk-code-r76-trunk/apps/EeePProg/linux/../EeePProg.c **** ArgDesc_t  EeePExpEEP_IMG[]={
 189:/home/hkh/git/eapidk-code-r76-trunk/apps/EeePProg/linux/../EeePProg.c ****   {
 190:/home/hkh/git/eapidk-code-r76-trunk/apps/EeePProg/linux/../EeePProg.c ****   &CurOptions.StoreEeePExpEEP_EEP.FileName   ,
 191:/home/hkh/git/eapidk-code-r76-trunk/apps/EeePProg/linux/../EeePProg.c ****   sizeof(CurOptions.StoreEeePExpEEP_EEP.FileName) ,
 192:/home/hkh/git/eapidk-code-r76-trunk/apps/EeePProg/linux/../EeePProg.c ****   "<Filename>  Binary Image Filename"       ,
 193:/home/hkh/git/eapidk-code-r76-trunk/apps/EeePProg/linux/../EeePProg.c ****   StringArg
 194:/home/hkh/git/eapidk-code-r76-trunk/apps/EeePProg/linux/../EeePProg.c ****   },
 195:/home/hkh/git/eapidk-code-r76-trunk/apps/EeePProg/linux/../EeePProg.c ****   {
 196:/home/hkh/git/eapidk-code-r76-trunk/apps/EeePProg/linux/../EeePProg.c ****   &CurOptions.StoreEeePExpEEP_EEP.I2CBus     ,
 197:/home/hkh/git/eapidk-code-r76-trunk/apps/EeePProg/linux/../EeePProg.c ****   sizeof(CurOptions.StoreEeePExpEEP_EEP.I2CBus),
 198:/home/hkh/git/eapidk-code-r76-trunk/apps/EeePProg/linux/../EeePProg.c ****   "<EApi Id>      EApi Bus Id"             ,
 199:/home/hkh/git/eapidk-code-r76-trunk/apps/EeePProg/linux/../EeePProg.c ****   NumberArg
 200:/home/hkh/git/eapidk-code-r76-trunk/apps/EeePProg/linux/../EeePProg.c ****   },
 201:/home/hkh/git/eapidk-code-r76-trunk/apps/EeePProg/linux/../EeePProg.c ****   {
 202:/home/hkh/git/eapidk-code-r76-trunk/apps/EeePProg/linux/../EeePProg.c ****   &CurOptions.StoreEeePExpEEP_EEP.I2CDevAddr     ,
 203:/home/hkh/git/eapidk-code-r76-trunk/apps/EeePProg/linux/../EeePProg.c ****   sizeof(CurOptions.StoreEeePExpEEP_EEP.I2CDevAddr),
 204:/home/hkh/git/eapidk-code-r76-trunk/apps/EeePProg/linux/../EeePProg.c ****   "<I2C Address>  EEPROM Device Address"   ,
 205:/home/hkh/git/eapidk-code-r76-trunk/apps/EeePProg/linux/../EeePProg.c ****   NumberArg
 206:/home/hkh/git/eapidk-code-r76-trunk/apps/EeePProg/linux/../EeePProg.c ****   },
 207:/home/hkh/git/eapidk-code-r76-trunk/apps/EeePProg/linux/../EeePProg.c **** };
 208:/home/hkh/git/eapidk-code-r76-trunk/apps/EeePProg/linux/../EeePProg.c **** ArgDesc_t  COM0R20CB_PEEP[]={
 209:/home/hkh/git/eapidk-code-r76-trunk/apps/EeePProg/linux/../EeePProg.c ****   {
 210:/home/hkh/git/eapidk-code-r76-trunk/apps/EeePProg/linux/../EeePProg.c ****   &CurOptions.szCOM0R20CB_SBIN_File        ,
 211:/home/hkh/git/eapidk-code-r76-trunk/apps/EeePProg/linux/../EeePProg.c ****   sizeof(CurOptions.szCOM0R20CB_SBIN_File) ,
 212:/home/hkh/git/eapidk-code-r76-trunk/apps/EeePProg/linux/../EeePProg.c ****   "<Filename>  Binary Image Filename"       ,
 213:/home/hkh/git/eapidk-code-r76-trunk/apps/EeePProg/linux/../EeePProg.c ****   StringArg
 214:/home/hkh/git/eapidk-code-r76-trunk/apps/EeePProg/linux/../EeePProg.c ****   },
 215:/home/hkh/git/eapidk-code-r76-trunk/apps/EeePProg/linux/../EeePProg.c **** };
 216:/home/hkh/git/eapidk-code-r76-trunk/apps/EeePProg/linux/../EeePProg.c **** ArgDesc_t  COM0R20M_PEEP[]={
 217:/home/hkh/git/eapidk-code-r76-trunk/apps/EeePProg/linux/../EeePProg.c ****   {
ARM GAS  /tmp/ccqui9DH.s 			page 6


 218:/home/hkh/git/eapidk-code-r76-trunk/apps/EeePProg/linux/../EeePProg.c ****   &CurOptions.szCOM0R20M_SBIN_File        ,
 219:/home/hkh/git/eapidk-code-r76-trunk/apps/EeePProg/linux/../EeePProg.c ****   sizeof(CurOptions.szCOM0R20M_SBIN_File) ,
 220:/home/hkh/git/eapidk-code-r76-trunk/apps/EeePProg/linux/../EeePProg.c ****   "<Filename>  Binary Image Filename"       ,
 221:/home/hkh/git/eapidk-code-r76-trunk/apps/EeePProg/linux/../EeePProg.c ****   StringArg
 222:/home/hkh/git/eapidk-code-r76-trunk/apps/EeePProg/linux/../EeePProg.c ****   },
 223:/home/hkh/git/eapidk-code-r76-trunk/apps/EeePProg/linux/../EeePProg.c **** };
 224:/home/hkh/git/eapidk-code-r76-trunk/apps/EeePProg/linux/../EeePProg.c **** ArgDesc_t  GEN_LIST_DBLOCKS_FILE[]={
 225:/home/hkh/git/eapidk-code-r76-trunk/apps/EeePProg/linux/../EeePProg.c ****   {
 226:/home/hkh/git/eapidk-code-r76-trunk/apps/EeePProg/linux/../EeePProg.c ****   &CurOptions.szGEN_List_DBlocks_File        ,
 227:/home/hkh/git/eapidk-code-r76-trunk/apps/EeePProg/linux/../EeePProg.c ****   sizeof(CurOptions.szGEN_List_DBlocks_File) ,
 228:/home/hkh/git/eapidk-code-r76-trunk/apps/EeePProg/linux/../EeePProg.c ****   "<Filename>  Binary Image Filename"       ,
 229:/home/hkh/git/eapidk-code-r76-trunk/apps/EeePProg/linux/../EeePProg.c ****   StringArg
 230:/home/hkh/git/eapidk-code-r76-trunk/apps/EeePProg/linux/../EeePProg.c ****   },
 231:/home/hkh/git/eapidk-code-r76-trunk/apps/EeePProg/linux/../EeePProg.c **** };
 232:/home/hkh/git/eapidk-code-r76-trunk/apps/EeePProg/linux/../EeePProg.c **** ArgDesc_t  GEN_LIST_DBLOCKS_EEP[]={
 233:/home/hkh/git/eapidk-code-r76-trunk/apps/EeePProg/linux/../EeePProg.c ****   {
 234:/home/hkh/git/eapidk-code-r76-trunk/apps/EeePProg/linux/../EeePProg.c ****   &CurOptions.ulEEP_Img.I2CBus                ,
 235:/home/hkh/git/eapidk-code-r76-trunk/apps/EeePProg/linux/../EeePProg.c ****   sizeof(CurOptions.ulEEP_Img.I2CBus)         ,
 236:/home/hkh/git/eapidk-code-r76-trunk/apps/EeePProg/linux/../EeePProg.c ****   "<EApi Id>      EApi Bus Id"                ,
 237:/home/hkh/git/eapidk-code-r76-trunk/apps/EeePProg/linux/../EeePProg.c ****   NumberArg
 238:/home/hkh/git/eapidk-code-r76-trunk/apps/EeePProg/linux/../EeePProg.c ****   },
 239:/home/hkh/git/eapidk-code-r76-trunk/apps/EeePProg/linux/../EeePProg.c ****   {
 240:/home/hkh/git/eapidk-code-r76-trunk/apps/EeePProg/linux/../EeePProg.c ****   &CurOptions.ulEEP_Img.I2CDevAddr            ,
 241:/home/hkh/git/eapidk-code-r76-trunk/apps/EeePProg/linux/../EeePProg.c ****   sizeof(CurOptions.ulEEP_Img.I2CDevAddr)     ,
 242:/home/hkh/git/eapidk-code-r76-trunk/apps/EeePProg/linux/../EeePProg.c ****   "<I2C Address>  EEPROM Device Address"      ,
 243:/home/hkh/git/eapidk-code-r76-trunk/apps/EeePProg/linux/../EeePProg.c ****   NumberArg
 244:/home/hkh/git/eapidk-code-r76-trunk/apps/EeePProg/linux/../EeePProg.c ****   },
 245:/home/hkh/git/eapidk-code-r76-trunk/apps/EeePProg/linux/../EeePProg.c **** };
 246:/home/hkh/git/eapidk-code-r76-trunk/apps/EeePProg/linux/../EeePProg.c **** 
 247:/home/hkh/git/eapidk-code-r76-trunk/apps/EeePProg/linux/../EeePProg.c **** EApiStatus_t
 248:/home/hkh/git/eapidk-code-r76-trunk/apps/EeePProg/linux/../EeePProg.c **** CreateTxtFilePtr(
 249:/home/hkh/git/eapidk-code-r76-trunk/apps/EeePProg/linux/../EeePProg.c ****     const char *Destination,
 250:/home/hkh/git/eapidk-code-r76-trunk/apps/EeePProg/linux/../EeePProg.c ****     FILE **     FilePtr
 251:/home/hkh/git/eapidk-code-r76-trunk/apps/EeePProg/linux/../EeePProg.c ****     )
 252:/home/hkh/git/eapidk-code-r76-trunk/apps/EeePProg/linux/../EeePProg.c **** {
 253:/home/hkh/git/eapidk-code-r76-trunk/apps/EeePProg/linux/../EeePProg.c ****   EApiStatus_t StatusCode=EAPI_STATUS_SUCCESS;
 254:/home/hkh/git/eapidk-code-r76-trunk/apps/EeePProg/linux/../EeePProg.c ****   if(!strcmp(Destination, "stdout")){
 255:/home/hkh/git/eapidk-code-r76-trunk/apps/EeePProg/linux/../EeePProg.c ****      *FilePtr=stdout;
 256:/home/hkh/git/eapidk-code-r76-trunk/apps/EeePProg/linux/../EeePProg.c ****   }else if(!strcmp(Destination, "&1")){
 257:/home/hkh/git/eapidk-code-r76-trunk/apps/EeePProg/linux/../EeePProg.c ****      *FilePtr=stdout;
 258:/home/hkh/git/eapidk-code-r76-trunk/apps/EeePProg/linux/../EeePProg.c ****   }else if(!strcmp(Destination, "stderr")){
 259:/home/hkh/git/eapidk-code-r76-trunk/apps/EeePProg/linux/../EeePProg.c ****      *FilePtr=stderr;
 260:/home/hkh/git/eapidk-code-r76-trunk/apps/EeePProg/linux/../EeePProg.c ****   }else if(!strcmp(Destination, "&2")){
 261:/home/hkh/git/eapidk-code-r76-trunk/apps/EeePProg/linux/../EeePProg.c ****      *FilePtr=stderr;
 262:/home/hkh/git/eapidk-code-r76-trunk/apps/EeePProg/linux/../EeePProg.c ****   }else {
 263:/home/hkh/git/eapidk-code-r76-trunk/apps/EeePProg/linux/../EeePProg.c ****     *FilePtr=fopen(Destination, "w");
 264:/home/hkh/git/eapidk-code-r76-trunk/apps/EeePProg/linux/../EeePProg.c ****     EAPI_APP_RETURN_ERROR_IF_S(
 265:/home/hkh/git/eapidk-code-r76-trunk/apps/EeePProg/linux/../EeePProg.c ****          CreateTxtFilePtr,
 266:/home/hkh/git/eapidk-code-r76-trunk/apps/EeePProg/linux/../EeePProg.c ****          (*FilePtr==NULL),
 267:/home/hkh/git/eapidk-code-r76-trunk/apps/EeePProg/linux/../EeePProg.c ****          EAPI_STATUS_WRITE_ERROR
 268:/home/hkh/git/eapidk-code-r76-trunk/apps/EeePProg/linux/../EeePProg.c ****       );
 269:/home/hkh/git/eapidk-code-r76-trunk/apps/EeePProg/linux/../EeePProg.c ****   }
 270:/home/hkh/git/eapidk-code-r76-trunk/apps/EeePProg/linux/../EeePProg.c **** EAPI_APP_ASSERT_EXIT
 271:/home/hkh/git/eapidk-code-r76-trunk/apps/EeePProg/linux/../EeePProg.c ****   return StatusCode;
 272:/home/hkh/git/eapidk-code-r76-trunk/apps/EeePProg/linux/../EeePProg.c **** }
 273:/home/hkh/git/eapidk-code-r76-trunk/apps/EeePProg/linux/../EeePProg.c **** EApiStatus_t
 274:/home/hkh/git/eapidk-code-r76-trunk/apps/EeePProg/linux/../EeePProg.c **** FreeFilePtr(
ARM GAS  /tmp/ccqui9DH.s 			page 7


 275:/home/hkh/git/eapidk-code-r76-trunk/apps/EeePProg/linux/../EeePProg.c ****     FILE **     FilePtr
 276:/home/hkh/git/eapidk-code-r76-trunk/apps/EeePProg/linux/../EeePProg.c ****     )
 277:/home/hkh/git/eapidk-code-r76-trunk/apps/EeePProg/linux/../EeePProg.c **** {
 278:/home/hkh/git/eapidk-code-r76-trunk/apps/EeePProg/linux/../EeePProg.c ****   FILE *     LclFilePtr=*FilePtr;
 279:/home/hkh/git/eapidk-code-r76-trunk/apps/EeePProg/linux/../EeePProg.c ****   if(LclFilePtr!=stdout&&LclFilePtr!=stderr&&LclFilePtr!=NULL){
 280:/home/hkh/git/eapidk-code-r76-trunk/apps/EeePProg/linux/../EeePProg.c ****     fclose(LclFilePtr);
 281:/home/hkh/git/eapidk-code-r76-trunk/apps/EeePProg/linux/../EeePProg.c ****   };
 282:/home/hkh/git/eapidk-code-r76-trunk/apps/EeePProg/linux/../EeePProg.c ****   *FilePtr=NULL;
 283:/home/hkh/git/eapidk-code-r76-trunk/apps/EeePProg/linux/../EeePProg.c ****   return EAPI_STATUS_SUCCESS;
 284:/home/hkh/git/eapidk-code-r76-trunk/apps/EeePProg/linux/../EeePProg.c **** }
 285:/home/hkh/git/eapidk-code-r76-trunk/apps/EeePProg/linux/../EeePProg.c **** #define FREE_BUFFER(x) \
 286:/home/hkh/git/eapidk-code-r76-trunk/apps/EeePProg/linux/../EeePProg.c ****       if(x!=NULL){\
 287:/home/hkh/git/eapidk-code-r76-trunk/apps/EeePProg/linux/../EeePProg.c ****           free(x);\
 288:/home/hkh/git/eapidk-code-r76-trunk/apps/EeePProg/linux/../EeePProg.c ****           x=NULL;\
 289:/home/hkh/git/eapidk-code-r76-trunk/apps/EeePProg/linux/../EeePProg.c ****       }
 290:/home/hkh/git/eapidk-code-r76-trunk/apps/EeePProg/linux/../EeePProg.c **** 
 291:/home/hkh/git/eapidk-code-r76-trunk/apps/EeePProg/linux/../EeePProg.c **** EApiStatus_t 
 292:/home/hkh/git/eapidk-code-r76-trunk/apps/EeePProg/linux/../EeePProg.c **** CMD_CreateCOM0R20_MEEPCfg(
 293:/home/hkh/git/eapidk-code-r76-trunk/apps/EeePProg/linux/../EeePProg.c ****     void *pArgData
 294:/home/hkh/git/eapidk-code-r76-trunk/apps/EeePProg/linux/../EeePProg.c ****     )
 295:/home/hkh/git/eapidk-code-r76-trunk/apps/EeePProg/linux/../EeePProg.c **** {
 296:/home/hkh/git/eapidk-code-r76-trunk/apps/EeePProg/linux/../EeePProg.c ****   EApiStatus_t StatusCode=EAPI_STATUS_SUCCESS;
 297:/home/hkh/git/eapidk-code-r76-trunk/apps/EeePProg/linux/../EeePProg.c ****   FILE *lclStream=NULL;
 298:/home/hkh/git/eapidk-code-r76-trunk/apps/EeePProg/linux/../EeePProg.c **** 
 299:/home/hkh/git/eapidk-code-r76-trunk/apps/EeePProg/linux/../EeePProg.c ****   DO(CreateTxtFilePtr(*(char**)pArgData, &lclStream));
 300:/home/hkh/git/eapidk-code-r76-trunk/apps/EeePProg/linux/../EeePProg.c ****   DO(EeeP_CreateCOM0R20_MEEPCfg(lclStream));
 301:/home/hkh/git/eapidk-code-r76-trunk/apps/EeePProg/linux/../EeePProg.c **** 
 302:/home/hkh/git/eapidk-code-r76-trunk/apps/EeePProg/linux/../EeePProg.c **** EAPI_APP_ASSERT_EXIT
 303:/home/hkh/git/eapidk-code-r76-trunk/apps/EeePProg/linux/../EeePProg.c ****   FreeFilePtr(&lclStream);
 304:/home/hkh/git/eapidk-code-r76-trunk/apps/EeePProg/linux/../EeePProg.c ****   return StatusCode;
 305:/home/hkh/git/eapidk-code-r76-trunk/apps/EeePProg/linux/../EeePProg.c **** }
 306:/home/hkh/git/eapidk-code-r76-trunk/apps/EeePProg/linux/../EeePProg.c **** EApiStatus_t 
 307:/home/hkh/git/eapidk-code-r76-trunk/apps/EeePProg/linux/../EeePProg.c **** CMD_CreateCOM0R20_CBCfg(
 308:/home/hkh/git/eapidk-code-r76-trunk/apps/EeePProg/linux/../EeePProg.c ****     void *pArgData
 309:/home/hkh/git/eapidk-code-r76-trunk/apps/EeePProg/linux/../EeePProg.c ****     )
 310:/home/hkh/git/eapidk-code-r76-trunk/apps/EeePProg/linux/../EeePProg.c **** {
 311:/home/hkh/git/eapidk-code-r76-trunk/apps/EeePProg/linux/../EeePProg.c ****   EApiStatus_t StatusCode=EAPI_STATUS_SUCCESS;
 312:/home/hkh/git/eapidk-code-r76-trunk/apps/EeePProg/linux/../EeePProg.c ****   FILE *lclStream=NULL;
 313:/home/hkh/git/eapidk-code-r76-trunk/apps/EeePProg/linux/../EeePProg.c **** 
 314:/home/hkh/git/eapidk-code-r76-trunk/apps/EeePProg/linux/../EeePProg.c ****   DO(CreateTxtFilePtr(*(char**)pArgData, &lclStream));
 315:/home/hkh/git/eapidk-code-r76-trunk/apps/EeePProg/linux/../EeePProg.c ****   DO(EeeP_CreateCOM0R20_CBCfg(lclStream));
 316:/home/hkh/git/eapidk-code-r76-trunk/apps/EeePProg/linux/../EeePProg.c **** 
 317:/home/hkh/git/eapidk-code-r76-trunk/apps/EeePProg/linux/../EeePProg.c **** EAPI_APP_ASSERT_EXIT
 318:/home/hkh/git/eapidk-code-r76-trunk/apps/EeePProg/linux/../EeePProg.c ****   FreeFilePtr(&lclStream);
 319:/home/hkh/git/eapidk-code-r76-trunk/apps/EeePProg/linux/../EeePProg.c ****   return StatusCode;
 320:/home/hkh/git/eapidk-code-r76-trunk/apps/EeePProg/linux/../EeePProg.c **** }
 321:/home/hkh/git/eapidk-code-r76-trunk/apps/EeePProg/linux/../EeePProg.c **** EApiStatus_t 
 322:/home/hkh/git/eapidk-code-r76-trunk/apps/EeePProg/linux/../EeePProg.c **** CMD_CreateCOM0R20_EeePExtCfg(
 323:/home/hkh/git/eapidk-code-r76-trunk/apps/EeePProg/linux/../EeePProg.c ****     void *pArgData
 324:/home/hkh/git/eapidk-code-r76-trunk/apps/EeePProg/linux/../EeePProg.c ****     )
 325:/home/hkh/git/eapidk-code-r76-trunk/apps/EeePProg/linux/../EeePProg.c **** {
 326:/home/hkh/git/eapidk-code-r76-trunk/apps/EeePProg/linux/../EeePProg.c ****   EApiStatus_t StatusCode=EAPI_STATUS_SUCCESS;
 327:/home/hkh/git/eapidk-code-r76-trunk/apps/EeePProg/linux/../EeePProg.c ****   FILE *lclStream=NULL;
 328:/home/hkh/git/eapidk-code-r76-trunk/apps/EeePProg/linux/../EeePProg.c **** 
 329:/home/hkh/git/eapidk-code-r76-trunk/apps/EeePProg/linux/../EeePProg.c ****   DO(CreateTxtFilePtr(*(char**)pArgData, &lclStream));
 330:/home/hkh/git/eapidk-code-r76-trunk/apps/EeePProg/linux/../EeePProg.c ****   DO(EeeP_CreateEeePExtEEPCfg(lclStream));
 331:/home/hkh/git/eapidk-code-r76-trunk/apps/EeePProg/linux/../EeePProg.c **** 
ARM GAS  /tmp/ccqui9DH.s 			page 8


 332:/home/hkh/git/eapidk-code-r76-trunk/apps/EeePProg/linux/../EeePProg.c **** EAPI_APP_ASSERT_EXIT
 333:/home/hkh/git/eapidk-code-r76-trunk/apps/EeePProg/linux/../EeePProg.c ****   FreeFilePtr(&lclStream);
 334:/home/hkh/git/eapidk-code-r76-trunk/apps/EeePProg/linux/../EeePProg.c ****   return StatusCode;
 335:/home/hkh/git/eapidk-code-r76-trunk/apps/EeePProg/linux/../EeePProg.c **** }
 336:/home/hkh/git/eapidk-code-r76-trunk/apps/EeePProg/linux/../EeePProg.c **** 
 337:/home/hkh/git/eapidk-code-r76-trunk/apps/EeePProg/linux/../EeePProg.c **** EApiStatus_t 
 338:/home/hkh/git/eapidk-code-r76-trunk/apps/EeePProg/linux/../EeePProg.c **** CMD_CreateCOM0R20CB_EEP(
 339:/home/hkh/git/eapidk-code-r76-trunk/apps/EeePProg/linux/../EeePProg.c ****     void *pArgData
 340:/home/hkh/git/eapidk-code-r76-trunk/apps/EeePProg/linux/../EeePProg.c ****     )
 341:/home/hkh/git/eapidk-code-r76-trunk/apps/EeePProg/linux/../EeePProg.c **** {
  49              		.loc 1 341 1 view -0
  50              		.cfi_startproc
  51              		@ args = 0, pretend = 0, frame = 8
  52              		@ frame_needed = 0, uses_anonymous_args = 0
  53              		.loc 1 341 1 is_stmt 0 view .LVU1
  54 0000 08C19FE5 		ldr	ip, .L13
 342:/home/hkh/git/eapidk-code-r76-trunk/apps/EeePProg/linux/../EeePProg.c ****   EApiStatus_t StatusCode=EAPI_STATUS_SUCCESS;
 343:/home/hkh/git/eapidk-code-r76-trunk/apps/EeePProg/linux/../EeePProg.c ****   EeePHandel_t BHandel=NULL;
  55              		.loc 1 343 16 view .LVU2
  56 0004 0030A0E3 		mov	r3, #0
 341:/home/hkh/git/eapidk-code-r76-trunk/apps/EeePProg/linux/../EeePProg.c ****   EApiStatus_t StatusCode=EAPI_STATUS_SUCCESS;
  57              		.loc 1 341 1 view .LVU3
  58 0008 04219FE5 		ldr	r2, .L13+4
  59 000c 30402DE9 		push	{r4, r5, lr}
  60              		.cfi_def_cfa_offset 12
  61              		.cfi_offset 4, -12
  62              		.cfi_offset 5, -8
  63              		.cfi_offset 14, -4
  64 0010 1CD04DE2 		sub	sp, sp, #28
  65              		.cfi_def_cfa_offset 40
 341:/home/hkh/git/eapidk-code-r76-trunk/apps/EeePProg/linux/../EeePProg.c ****   EApiStatus_t StatusCode=EAPI_STATUS_SUCCESS;
  66              		.loc 1 341 1 view .LVU4
  67              	.LPIC9:
  68 0014 0CC08FE0 		add	ip, pc, ip
 344:/home/hkh/git/eapidk-code-r76-trunk/apps/EeePProg/linux/../EeePProg.c **** 
 345:/home/hkh/git/eapidk-code-r76-trunk/apps/EeePProg/linux/../EeePProg.c ****   DO(EeeP_CreateCOM0R20_CBImage(
  69              		.loc 1 345 3 view .LVU5
  70 0018 10508DE2 		add	r5, sp, #16
 341:/home/hkh/git/eapidk-code-r76-trunk/apps/EeePProg/linux/../EeePProg.c ****   EApiStatus_t StatusCode=EAPI_STATUS_SUCCESS;
  71              		.loc 1 341 1 view .LVU6
  72 001c 02209CE7 		ldr	r2, [ip, r2]
  73              		.loc 1 345 3 view .LVU7
  74 0020 001090E5 		ldr	r1, [r0]
  75 0024 0500A0E1 		mov	r0, r5
 341:/home/hkh/git/eapidk-code-r76-trunk/apps/EeePProg/linux/../EeePProg.c ****   EApiStatus_t StatusCode=EAPI_STATUS_SUCCESS;
  76              		.loc 1 341 1 view .LVU8
  77 0028 002092E5 		ldr	r2, [r2]
  78 002c 14208DE5 		str	r2, [sp, #20]
  79 0030 0020A0E3 		mov	r2, #0
 342:/home/hkh/git/eapidk-code-r76-trunk/apps/EeePProg/linux/../EeePProg.c ****   EeePHandel_t BHandel=NULL;
  80              		.loc 1 342 3 is_stmt 1 view .LVU9
  81              	.LVL1:
 343:/home/hkh/git/eapidk-code-r76-trunk/apps/EeePProg/linux/../EeePProg.c **** 
  82              		.loc 1 343 3 view .LVU10
 343:/home/hkh/git/eapidk-code-r76-trunk/apps/EeePProg/linux/../EeePProg.c **** 
  83              		.loc 1 343 16 is_stmt 0 view .LVU11
  84 0034 10308DE5 		str	r3, [sp, #16]
ARM GAS  /tmp/ccqui9DH.s 			page 9


  85              		.loc 1 345 3 is_stmt 1 view .LVU12
  86              		.loc 1 345 3 view .LVU13
  87 0038 FEFFFFEB 		bl	EeeP_CreateCOM0R20_CBImage(PLT)
  88              	.LVL2:
  89              		.loc 1 345 3 view .LVU14
  90 003c 004050E2 		subs	r4, r0, #0
  91 0040 1300001A 		bne	.L10
  92              		.loc 1 345 3 discriminator 2 view .LVU15
 346:/home/hkh/git/eapidk-code-r76-trunk/apps/EeePProg/linux/../EeePProg.c ****         &BHandel                              ,
 347:/home/hkh/git/eapidk-code-r76-trunk/apps/EeePProg/linux/../EeePProg.c ****         *(char**)pArgData
 348:/home/hkh/git/eapidk-code-r76-trunk/apps/EeePProg/linux/../EeePProg.c ****       ));
 349:/home/hkh/git/eapidk-code-r76-trunk/apps/EeePProg/linux/../EeePProg.c ****   DO(EeePWriteBufferToEEP(BHandel, EAPI_ID_I2C_EXTERNAL, COM0R20_CB_EEP_DEV_ADDR));
  93              		.loc 1 349 3 discriminator 2 view .LVU16
  94              		.loc 1 349 3 discriminator 2 view .LVU17
  95 0044 0410A0E1 		mov	r1, r4
  96 0048 10009DE5 		ldr	r0, [sp, #16]
  97              	.LVL3:
  98              		.loc 1 349 3 is_stmt 0 discriminator 2 view .LVU18
  99 004c AE20A0E3 		mov	r2, #174
 100 0050 FEFFFFEB 		bl	EeePWriteBufferToEEP(PLT)
 101              	.LVL4:
 102              		.loc 1 349 3 is_stmt 1 discriminator 2 view .LVU19
 103 0054 004050E2 		subs	r4, r0, #0
 104 0058 1C00001A 		bne	.L11
 105              	.LVL5:
 106              	.L3:
 107              		.loc 1 349 3 discriminator 3 view .LVU20
 350:/home/hkh/git/eapidk-code-r76-trunk/apps/EeePProg/linux/../EeePProg.c **** 
 351:/home/hkh/git/eapidk-code-r76-trunk/apps/EeePProg/linux/../EeePProg.c **** EAPI_APP_ASSERT_EXIT
 352:/home/hkh/git/eapidk-code-r76-trunk/apps/EeePProg/linux/../EeePProg.c ****   EeePFreeBuffer(&BHandel);
 108              		.loc 1 352 3 discriminator 3 view .LVU21
 109 005c 0500A0E1 		mov	r0, r5
 110 0060 FEFFFFEB 		bl	EeePFreeBuffer(PLT)
 111              	.LVL6:
 353:/home/hkh/git/eapidk-code-r76-trunk/apps/EeePProg/linux/../EeePProg.c ****   return StatusCode;
 112              		.loc 1 353 3 discriminator 3 view .LVU22
 341:/home/hkh/git/eapidk-code-r76-trunk/apps/EeePProg/linux/../EeePProg.c ****   EApiStatus_t StatusCode=EAPI_STATUS_SUCCESS;
 113              		.loc 1 341 1 is_stmt 0 discriminator 3 view .LVU23
 114 0064 AC209FE5 		ldr	r2, .L13+8
 354:/home/hkh/git/eapidk-code-r76-trunk/apps/EeePProg/linux/../EeePProg.c **** }
 115              		.loc 1 354 1 discriminator 3 view .LVU24
 116 0068 A4309FE5 		ldr	r3, .L13+4
 341:/home/hkh/git/eapidk-code-r76-trunk/apps/EeePProg/linux/../EeePProg.c ****   EApiStatus_t StatusCode=EAPI_STATUS_SUCCESS;
 117              		.loc 1 341 1 discriminator 3 view .LVU25
 118              	.LPIC8:
 119 006c 02208FE0 		add	r2, pc, r2
 120              		.loc 1 354 1 discriminator 3 view .LVU26
 121 0070 033092E7 		ldr	r3, [r2, r3]
 122 0074 002093E5 		ldr	r2, [r3]
 123 0078 14309DE5 		ldr	r3, [sp, #20]
 124 007c 022033E0 		eors	r2, r3, r2
 125 0080 0030A0E3 		mov	r3, #0
 126 0084 2000001A 		bne	.L12
 127              		.loc 1 354 1 view .LVU27
 128 0088 0400A0E1 		mov	r0, r4
 129 008c 1CD08DE2 		add	sp, sp, #28
 130              		.cfi_remember_state
ARM GAS  /tmp/ccqui9DH.s 			page 10


 131              		.cfi_def_cfa_offset 12
 132              		@ sp needed
 133 0090 3080BDE8 		pop	{r4, r5, pc}
 134              	.LVL7:
 135              	.L10:
 136              		.cfi_restore_state
 345:/home/hkh/git/eapidk-code-r76-trunk/apps/EeePProg/linux/../EeePProg.c ****         &BHandel                              ,
 137              		.loc 1 345 3 is_stmt 1 discriminator 1 view .LVU28
 138 0094 80109FE5 		ldr	r1, .L13+12
 139 0098 593100E3 		movw	r3, #345
 140 009c 7C009FE5 		ldr	r0, .L13+16
 141              	.LVL8:
 345:/home/hkh/git/eapidk-code-r76-trunk/apps/EeePProg/linux/../EeePProg.c ****         &BHandel                              ,
 142              		.loc 1 345 3 is_stmt 0 discriminator 1 view .LVU29
 143 00a0 7C209FE5 		ldr	r2, .L13+20
 144              	.LPIC3:
 145 00a4 01108FE0 		add	r1, pc, r1
 146 00a8 00408DE5 		str	r4, [sp]
 147 00ac 04108DE5 		str	r1, [sp, #4]
 148              	.LPIC2:
 149 00b0 00008FE0 		add	r0, pc, r0
 150 00b4 6C109FE5 		ldr	r1, .L13+24
 151              	.LPIC0:
 152 00b8 02208FE0 		add	r2, pc, r2
 153 00bc 08008DE5 		str	r0, [sp, #8]
 154 00c0 4500A0E3 		mov	r0, #69
 155              	.LPIC1:
 156 00c4 01108FE0 		add	r1, pc, r1
 157 00c8 FEFFFFEB 		bl	siFormattedMessage_SC(PLT)
 158              	.LVL9:
 345:/home/hkh/git/eapidk-code-r76-trunk/apps/EeePProg/linux/../EeePProg.c ****         &BHandel                              ,
 159              		.loc 1 345 3 is_stmt 1 discriminator 1 view .LVU30
 160 00cc E2FFFFEA 		b	.L3
 161              	.LVL10:
 162              	.L11:
 349:/home/hkh/git/eapidk-code-r76-trunk/apps/EeePProg/linux/../EeePProg.c **** 
 163              		.loc 1 349 3 discriminator 1 view .LVU31
 164 00d0 54109FE5 		ldr	r1, .L13+28
 165 00d4 5D3100E3 		movw	r3, #349
 166 00d8 50009FE5 		ldr	r0, .L13+32
 167              	.LVL11:
 349:/home/hkh/git/eapidk-code-r76-trunk/apps/EeePProg/linux/../EeePProg.c **** 
 168              		.loc 1 349 3 is_stmt 0 discriminator 1 view .LVU32
 169 00dc 50209FE5 		ldr	r2, .L13+36
 170              	.LPIC7:
 171 00e0 01108FE0 		add	r1, pc, r1
 172 00e4 00408DE5 		str	r4, [sp]
 173 00e8 04108DE5 		str	r1, [sp, #4]
 174              	.LPIC6:
 175 00ec 00008FE0 		add	r0, pc, r0
 176 00f0 40109FE5 		ldr	r1, .L13+40
 177              	.LPIC4:
 178 00f4 02208FE0 		add	r2, pc, r2
 179 00f8 08008DE5 		str	r0, [sp, #8]
 180 00fc 4500A0E3 		mov	r0, #69
 181              	.LPIC5:
 182 0100 01108FE0 		add	r1, pc, r1
ARM GAS  /tmp/ccqui9DH.s 			page 11


 183 0104 FEFFFFEB 		bl	siFormattedMessage_SC(PLT)
 184              	.LVL12:
 349:/home/hkh/git/eapidk-code-r76-trunk/apps/EeePProg/linux/../EeePProg.c **** 
 185              		.loc 1 349 3 is_stmt 1 discriminator 1 view .LVU33
 186 0108 D3FFFFEA 		b	.L3
 187              	.L12:
 188              		.loc 1 354 1 is_stmt 0 view .LVU34
 189 010c FEFFFFEB 		bl	__stack_chk_fail(PLT)
 190              	.LVL13:
 191              	.L14:
 192              		.align	2
 193              	.L13:
 194 0110 F4000000 		.word	_GLOBAL_OFFSET_TABLE_-(.LPIC9+8)
 195 0114 00000000 		.word	__stack_chk_guard(GOT)
 196 0118 A4000000 		.word	_GLOBAL_OFFSET_TABLE_-(.LPIC8+8)
 197 011c 70000000 		.word	.LC3-(.LPIC3+8)
 198 0120 68000000 		.word	.LC2-(.LPIC2+8)
 199 0124 64000000 		.word	.LC0-(.LPIC0+8)
 200 0128 5C000000 		.word	.LC1-(.LPIC1+8)
 201 012c 44000000 		.word	.LC3-(.LPIC7+8)
 202 0130 3C000000 		.word	.LC4-(.LPIC6+8)
 203 0134 38000000 		.word	.LC0-(.LPIC4+8)
 204 0138 30000000 		.word	.LC1-(.LPIC5+8)
 205              		.cfi_endproc
 206              	.LFE6:
 208              		.section	.rodata.str1.4
 209 00d9 000000   		.align	2
 210              	.LC5:
 211 00dc 45656550 		.ascii	"EeeP_CreateCOM0R20_MEEPImage( &BHandel , *(char**)p"
 211      5F437265 
 211      61746543 
 211      4F4D3052 
 211      32305F4D 
 212 010f 41726744 		.ascii	"ArgData )\000"
 212      61746120 
 212      2900
 213 0119 000000   		.align	2
 214              	.LC6:
 215 011c 45656550 		.ascii	"EeePWriteBufferToEEP(BHandel, EAPI_ID_I2C_EXTERNAL,"
 215      57726974 
 215      65427566 
 215      66657254 
 215      6F454550 
 216 014f 20434F4D 		.ascii	" COM0R20_M_EEP_DEV_ADDR)\000"
 216      30523230 
 216      5F4D5F45 
 216      45505F44 
 216      45565F41 
 217              		.text
 218              		.align	2
 219              		.global	CMD_CreateCOM0R20M_EEP
 220              		.syntax unified
 221              		.arm
 222              		.fpu vfpv3
 224              	CMD_CreateCOM0R20M_EEP:
 225              	.LVL14:
 226              	.LFB7:
ARM GAS  /tmp/ccqui9DH.s 			page 12


 355:/home/hkh/git/eapidk-code-r76-trunk/apps/EeePProg/linux/../EeePProg.c **** 
 356:/home/hkh/git/eapidk-code-r76-trunk/apps/EeePProg/linux/../EeePProg.c **** EApiStatus_t 
 357:/home/hkh/git/eapidk-code-r76-trunk/apps/EeePProg/linux/../EeePProg.c **** CMD_CreateCOM0R20M_EEP(
 358:/home/hkh/git/eapidk-code-r76-trunk/apps/EeePProg/linux/../EeePProg.c ****     void *pArgData
 359:/home/hkh/git/eapidk-code-r76-trunk/apps/EeePProg/linux/../EeePProg.c ****     )
 360:/home/hkh/git/eapidk-code-r76-trunk/apps/EeePProg/linux/../EeePProg.c **** {
 227              		.loc 1 360 1 is_stmt 1 view -0
 228              		.cfi_startproc
 229              		@ args = 0, pretend = 0, frame = 8
 230              		@ frame_needed = 0, uses_anonymous_args = 0
 231              		.loc 1 360 1 is_stmt 0 view .LVU36
 232 013c 08C19FE5 		ldr	ip, .L26
 361:/home/hkh/git/eapidk-code-r76-trunk/apps/EeePProg/linux/../EeePProg.c ****   EApiStatus_t StatusCode=EAPI_STATUS_SUCCESS;
 362:/home/hkh/git/eapidk-code-r76-trunk/apps/EeePProg/linux/../EeePProg.c ****   EeePHandel_t BHandel=NULL;
 233              		.loc 1 362 16 view .LVU37
 234 0140 0030A0E3 		mov	r3, #0
 360:/home/hkh/git/eapidk-code-r76-trunk/apps/EeePProg/linux/../EeePProg.c ****   EApiStatus_t StatusCode=EAPI_STATUS_SUCCESS;
 235              		.loc 1 360 1 view .LVU38
 236 0144 04219FE5 		ldr	r2, .L26+4
 237 0148 30402DE9 		push	{r4, r5, lr}
 238              		.cfi_def_cfa_offset 12
 239              		.cfi_offset 4, -12
 240              		.cfi_offset 5, -8
 241              		.cfi_offset 14, -4
 242 014c 1CD04DE2 		sub	sp, sp, #28
 243              		.cfi_def_cfa_offset 40
 360:/home/hkh/git/eapidk-code-r76-trunk/apps/EeePProg/linux/../EeePProg.c ****   EApiStatus_t StatusCode=EAPI_STATUS_SUCCESS;
 244              		.loc 1 360 1 view .LVU39
 245              	.LPIC19:
 246 0150 0CC08FE0 		add	ip, pc, ip
 363:/home/hkh/git/eapidk-code-r76-trunk/apps/EeePProg/linux/../EeePProg.c **** 
 364:/home/hkh/git/eapidk-code-r76-trunk/apps/EeePProg/linux/../EeePProg.c ****   DO(EeeP_CreateCOM0R20_MEEPImage(
 247              		.loc 1 364 3 view .LVU40
 248 0154 10508DE2 		add	r5, sp, #16
 360:/home/hkh/git/eapidk-code-r76-trunk/apps/EeePProg/linux/../EeePProg.c ****   EApiStatus_t StatusCode=EAPI_STATUS_SUCCESS;
 249              		.loc 1 360 1 view .LVU41
 250 0158 02209CE7 		ldr	r2, [ip, r2]
 251              		.loc 1 364 3 view .LVU42
 252 015c 001090E5 		ldr	r1, [r0]
 253 0160 0500A0E1 		mov	r0, r5
 360:/home/hkh/git/eapidk-code-r76-trunk/apps/EeePProg/linux/../EeePProg.c ****   EApiStatus_t StatusCode=EAPI_STATUS_SUCCESS;
 254              		.loc 1 360 1 view .LVU43
 255 0164 002092E5 		ldr	r2, [r2]
 256 0168 14208DE5 		str	r2, [sp, #20]
 257 016c 0020A0E3 		mov	r2, #0
 361:/home/hkh/git/eapidk-code-r76-trunk/apps/EeePProg/linux/../EeePProg.c ****   EeePHandel_t BHandel=NULL;
 258              		.loc 1 361 3 is_stmt 1 view .LVU44
 259              	.LVL15:
 362:/home/hkh/git/eapidk-code-r76-trunk/apps/EeePProg/linux/../EeePProg.c **** 
 260              		.loc 1 362 3 view .LVU45
 362:/home/hkh/git/eapidk-code-r76-trunk/apps/EeePProg/linux/../EeePProg.c **** 
 261              		.loc 1 362 16 is_stmt 0 view .LVU46
 262 0170 10308DE5 		str	r3, [sp, #16]
 263              		.loc 1 364 3 is_stmt 1 view .LVU47
 264              		.loc 1 364 3 view .LVU48
 265 0174 FEFFFFEB 		bl	EeeP_CreateCOM0R20_MEEPImage(PLT)
 266              	.LVL16:
ARM GAS  /tmp/ccqui9DH.s 			page 13


 267              		.loc 1 364 3 view .LVU49
 268 0178 004050E2 		subs	r4, r0, #0
 269 017c 1300001A 		bne	.L23
 270              		.loc 1 364 3 discriminator 2 view .LVU50
 365:/home/hkh/git/eapidk-code-r76-trunk/apps/EeePProg/linux/../EeePProg.c ****         &BHandel                              ,
 366:/home/hkh/git/eapidk-code-r76-trunk/apps/EeePProg/linux/../EeePProg.c ****         *(char**)pArgData
 367:/home/hkh/git/eapidk-code-r76-trunk/apps/EeePProg/linux/../EeePProg.c ****       ));
 368:/home/hkh/git/eapidk-code-r76-trunk/apps/EeePProg/linux/../EeePProg.c ****   DO(EeePWriteBufferToEEP(BHandel, EAPI_ID_I2C_EXTERNAL, COM0R20_M_EEP_DEV_ADDR));
 271              		.loc 1 368 3 discriminator 2 view .LVU51
 272              		.loc 1 368 3 discriminator 2 view .LVU52
 273 0180 0410A0E1 		mov	r1, r4
 274 0184 10009DE5 		ldr	r0, [sp, #16]
 275              	.LVL17:
 276              		.loc 1 368 3 is_stmt 0 discriminator 2 view .LVU53
 277 0188 A020A0E3 		mov	r2, #160
 278 018c FEFFFFEB 		bl	EeePWriteBufferToEEP(PLT)
 279              	.LVL18:
 280              		.loc 1 368 3 is_stmt 1 discriminator 2 view .LVU54
 281 0190 004050E2 		subs	r4, r0, #0
 282 0194 1C00001A 		bne	.L24
 283              	.LVL19:
 284              	.L17:
 285              		.loc 1 368 3 discriminator 3 view .LVU55
 369:/home/hkh/git/eapidk-code-r76-trunk/apps/EeePProg/linux/../EeePProg.c **** 
 370:/home/hkh/git/eapidk-code-r76-trunk/apps/EeePProg/linux/../EeePProg.c **** EAPI_APP_ASSERT_EXIT
 371:/home/hkh/git/eapidk-code-r76-trunk/apps/EeePProg/linux/../EeePProg.c ****   EeePFreeBuffer(&BHandel);
 286              		.loc 1 371 3 discriminator 3 view .LVU56
 287 0198 0500A0E1 		mov	r0, r5
 288 019c FEFFFFEB 		bl	EeePFreeBuffer(PLT)
 289              	.LVL20:
 372:/home/hkh/git/eapidk-code-r76-trunk/apps/EeePProg/linux/../EeePProg.c ****   return StatusCode;
 290              		.loc 1 372 3 discriminator 3 view .LVU57
 360:/home/hkh/git/eapidk-code-r76-trunk/apps/EeePProg/linux/../EeePProg.c ****   EApiStatus_t StatusCode=EAPI_STATUS_SUCCESS;
 291              		.loc 1 360 1 is_stmt 0 discriminator 3 view .LVU58
 292 01a0 AC209FE5 		ldr	r2, .L26+8
 373:/home/hkh/git/eapidk-code-r76-trunk/apps/EeePProg/linux/../EeePProg.c **** }
 293              		.loc 1 373 1 discriminator 3 view .LVU59
 294 01a4 A4309FE5 		ldr	r3, .L26+4
 360:/home/hkh/git/eapidk-code-r76-trunk/apps/EeePProg/linux/../EeePProg.c ****   EApiStatus_t StatusCode=EAPI_STATUS_SUCCESS;
 295              		.loc 1 360 1 discriminator 3 view .LVU60
 296              	.LPIC18:
 297 01a8 02208FE0 		add	r2, pc, r2
 298              		.loc 1 373 1 discriminator 3 view .LVU61
 299 01ac 033092E7 		ldr	r3, [r2, r3]
 300 01b0 002093E5 		ldr	r2, [r3]
 301 01b4 14309DE5 		ldr	r3, [sp, #20]
 302 01b8 022033E0 		eors	r2, r3, r2
 303 01bc 0030A0E3 		mov	r3, #0
 304 01c0 2000001A 		bne	.L25
 305              		.loc 1 373 1 view .LVU62
 306 01c4 0400A0E1 		mov	r0, r4
 307 01c8 1CD08DE2 		add	sp, sp, #28
 308              		.cfi_remember_state
 309              		.cfi_def_cfa_offset 12
 310              		@ sp needed
 311 01cc 3080BDE8 		pop	{r4, r5, pc}
 312              	.LVL21:
ARM GAS  /tmp/ccqui9DH.s 			page 14


 313              	.L23:
 314              		.cfi_restore_state
 364:/home/hkh/git/eapidk-code-r76-trunk/apps/EeePProg/linux/../EeePProg.c ****         &BHandel                              ,
 315              		.loc 1 364 3 is_stmt 1 discriminator 1 view .LVU63
 316 01d0 80109FE5 		ldr	r1, .L26+12
 317 01d4 5B3FA0E3 		mov	r3, #364
 318 01d8 7C009FE5 		ldr	r0, .L26+16
 319              	.LVL22:
 364:/home/hkh/git/eapidk-code-r76-trunk/apps/EeePProg/linux/../EeePProg.c ****         &BHandel                              ,
 320              		.loc 1 364 3 is_stmt 0 discriminator 1 view .LVU64
 321 01dc 7C209FE5 		ldr	r2, .L26+20
 322              	.LPIC13:
 323 01e0 01108FE0 		add	r1, pc, r1
 324 01e4 00408DE5 		str	r4, [sp]
 325 01e8 04108DE5 		str	r1, [sp, #4]
 326              	.LPIC12:
 327 01ec 00008FE0 		add	r0, pc, r0
 328 01f0 6C109FE5 		ldr	r1, .L26+24
 329              	.LPIC10:
 330 01f4 02208FE0 		add	r2, pc, r2
 331 01f8 08008DE5 		str	r0, [sp, #8]
 332 01fc 4500A0E3 		mov	r0, #69
 333              	.LPIC11:
 334 0200 01108FE0 		add	r1, pc, r1
 335 0204 FEFFFFEB 		bl	siFormattedMessage_SC(PLT)
 336              	.LVL23:
 364:/home/hkh/git/eapidk-code-r76-trunk/apps/EeePProg/linux/../EeePProg.c ****         &BHandel                              ,
 337              		.loc 1 364 3 is_stmt 1 discriminator 1 view .LVU65
 338 0208 E2FFFFEA 		b	.L17
 339              	.LVL24:
 340              	.L24:
 368:/home/hkh/git/eapidk-code-r76-trunk/apps/EeePProg/linux/../EeePProg.c **** 
 341              		.loc 1 368 3 discriminator 1 view .LVU66
 342 020c 54109FE5 		ldr	r1, .L26+28
 343 0210 173EA0E3 		mov	r3, #368
 344 0214 50009FE5 		ldr	r0, .L26+32
 345              	.LVL25:
 368:/home/hkh/git/eapidk-code-r76-trunk/apps/EeePProg/linux/../EeePProg.c **** 
 346              		.loc 1 368 3 is_stmt 0 discriminator 1 view .LVU67
 347 0218 50209FE5 		ldr	r2, .L26+36
 348              	.LPIC17:
 349 021c 01108FE0 		add	r1, pc, r1
 350 0220 00408DE5 		str	r4, [sp]
 351 0224 04108DE5 		str	r1, [sp, #4]
 352              	.LPIC16:
 353 0228 00008FE0 		add	r0, pc, r0
 354 022c 40109FE5 		ldr	r1, .L26+40
 355              	.LPIC14:
 356 0230 02208FE0 		add	r2, pc, r2
 357 0234 08008DE5 		str	r0, [sp, #8]
 358 0238 4500A0E3 		mov	r0, #69
 359              	.LPIC15:
 360 023c 01108FE0 		add	r1, pc, r1
 361 0240 FEFFFFEB 		bl	siFormattedMessage_SC(PLT)
 362              	.LVL26:
 368:/home/hkh/git/eapidk-code-r76-trunk/apps/EeePProg/linux/../EeePProg.c **** 
 363              		.loc 1 368 3 is_stmt 1 discriminator 1 view .LVU68
ARM GAS  /tmp/ccqui9DH.s 			page 15


 364 0244 D3FFFFEA 		b	.L17
 365              	.L25:
 366              		.loc 1 373 1 is_stmt 0 view .LVU69
 367 0248 FEFFFFEB 		bl	__stack_chk_fail(PLT)
 368              	.LVL27:
 369              	.L27:
 370              		.align	2
 371              	.L26:
 372 024c F4000000 		.word	_GLOBAL_OFFSET_TABLE_-(.LPIC19+8)
 373 0250 00000000 		.word	__stack_chk_guard(GOT)
 374 0254 A4000000 		.word	_GLOBAL_OFFSET_TABLE_-(.LPIC18+8)
 375 0258 70000000 		.word	.LC3-(.LPIC13+8)
 376 025c 68000000 		.word	.LC5-(.LPIC12+8)
 377 0260 64000000 		.word	.LC0-(.LPIC10+8)
 378 0264 5C000000 		.word	.LC1-(.LPIC11+8)
 379 0268 44000000 		.word	.LC3-(.LPIC17+8)
 380 026c 3C000000 		.word	.LC6-(.LPIC16+8)
 381 0270 38000000 		.word	.LC0-(.LPIC14+8)
 382 0274 30000000 		.word	.LC1-(.LPIC15+8)
 383              		.cfi_endproc
 384              	.LFE7:
 386              		.section	.rodata.str1.4
 387              		.align	2
 388              	.LC7:
 389 0168 45656550 		.ascii	"EeeP_CreateEeePExtEEPImage( &BHandel , ((WriteEepCf"
 389      5F437265 
 389      61746545 
 389      65655045 
 389      78744545 
 390 019b 675F742A 		.ascii	"g_t*)pArgData)->FileName )\000"
 390      29704172 
 390      67446174 
 390      61292D3E 
 390      46696C65 
 391 01b6 0000     		.align	2
 392              	.LC8:
 393 01b8 45656550 		.ascii	"EeePWriteBufferToEEP(BHandel, (uint16_t)((WriteEepC"
 393      57726974 
 393      65427566 
 393      66657254 
 393      6F454550 
 394 01eb 66675F74 		.ascii	"fg_t*)pArgData)->I2CBus, (uint16_t)((WriteEepCfg_t*"
 394      2A297041 
 394      72674461 
 394      7461292D 
 394      3E493243 
 395 021e 29704172 		.ascii	")pArgData)->I2CDevAddr )\000"
 395      67446174 
 395      61292D3E 
 395      49324344 
 395      65764164 
 396              		.text
 397              		.align	2
 398              		.global	CMD_CreateEeePExt_EEP
 399              		.syntax unified
 400              		.arm
 401              		.fpu vfpv3
ARM GAS  /tmp/ccqui9DH.s 			page 16


 403              	CMD_CreateEeePExt_EEP:
 404              	.LVL28:
 405              	.LFB8:
 374:/home/hkh/git/eapidk-code-r76-trunk/apps/EeePProg/linux/../EeePProg.c **** 
 375:/home/hkh/git/eapidk-code-r76-trunk/apps/EeePProg/linux/../EeePProg.c **** EApiStatus_t 
 376:/home/hkh/git/eapidk-code-r76-trunk/apps/EeePProg/linux/../EeePProg.c **** CMD_CreateEeePExt_EEP(
 377:/home/hkh/git/eapidk-code-r76-trunk/apps/EeePProg/linux/../EeePProg.c ****     void *pArgData
 378:/home/hkh/git/eapidk-code-r76-trunk/apps/EeePProg/linux/../EeePProg.c ****     )
 379:/home/hkh/git/eapidk-code-r76-trunk/apps/EeePProg/linux/../EeePProg.c **** {
 406              		.loc 1 379 1 is_stmt 1 view -0
 407              		.cfi_startproc
 408              		@ args = 0, pretend = 0, frame = 8
 409              		@ frame_needed = 0, uses_anonymous_args = 0
 410              		.loc 1 379 1 is_stmt 0 view .LVU71
 411 0278 0CC19FE5 		ldr	ip, .L39
 380:/home/hkh/git/eapidk-code-r76-trunk/apps/EeePProg/linux/../EeePProg.c ****   EApiStatus_t StatusCode=EAPI_STATUS_SUCCESS;
 381:/home/hkh/git/eapidk-code-r76-trunk/apps/EeePProg/linux/../EeePProg.c ****   EeePHandel_t BHandel=NULL;
 412              		.loc 1 381 16 view .LVU72
 413 027c 0030A0E3 		mov	r3, #0
 379:/home/hkh/git/eapidk-code-r76-trunk/apps/EeePProg/linux/../EeePProg.c ****   EApiStatus_t StatusCode=EAPI_STATUS_SUCCESS;
 414              		.loc 1 379 1 view .LVU73
 415 0280 08219FE5 		ldr	r2, .L39+4
 416 0284 70402DE9 		push	{r4, r5, r6, lr}
 417              		.cfi_def_cfa_offset 16
 418              		.cfi_offset 4, -16
 419              		.cfi_offset 5, -12
 420              		.cfi_offset 6, -8
 421              		.cfi_offset 14, -4
 422 0288 18D04DE2 		sub	sp, sp, #24
 423              		.cfi_def_cfa_offset 40
 379:/home/hkh/git/eapidk-code-r76-trunk/apps/EeePProg/linux/../EeePProg.c ****   EApiStatus_t StatusCode=EAPI_STATUS_SUCCESS;
 424              		.loc 1 379 1 view .LVU74
 425              	.LPIC29:
 426 028c 0CC08FE0 		add	ip, pc, ip
 382:/home/hkh/git/eapidk-code-r76-trunk/apps/EeePProg/linux/../EeePProg.c **** 
 383:/home/hkh/git/eapidk-code-r76-trunk/apps/EeePProg/linux/../EeePProg.c ****   DO(EeeP_CreateEeePExtEEPImage(
 427              		.loc 1 383 3 view .LVU75
 428 0290 10608DE2 		add	r6, sp, #16
 379:/home/hkh/git/eapidk-code-r76-trunk/apps/EeePProg/linux/../EeePProg.c ****   EApiStatus_t StatusCode=EAPI_STATUS_SUCCESS;
 429              		.loc 1 379 1 view .LVU76
 430 0294 0050A0E1 		mov	r5, r0
 431 0298 02209CE7 		ldr	r2, [ip, r2]
 432              		.loc 1 383 3 view .LVU77
 433 029c 001090E5 		ldr	r1, [r0]
 434 02a0 0600A0E1 		mov	r0, r6
 379:/home/hkh/git/eapidk-code-r76-trunk/apps/EeePProg/linux/../EeePProg.c ****   EApiStatus_t StatusCode=EAPI_STATUS_SUCCESS;
 435              		.loc 1 379 1 view .LVU78
 436 02a4 002092E5 		ldr	r2, [r2]
 437 02a8 14208DE5 		str	r2, [sp, #20]
 438 02ac 0020A0E3 		mov	r2, #0
 380:/home/hkh/git/eapidk-code-r76-trunk/apps/EeePProg/linux/../EeePProg.c ****   EeePHandel_t BHandel=NULL;
 439              		.loc 1 380 3 is_stmt 1 view .LVU79
 440              	.LVL29:
 381:/home/hkh/git/eapidk-code-r76-trunk/apps/EeePProg/linux/../EeePProg.c **** 
 441              		.loc 1 381 3 view .LVU80
 381:/home/hkh/git/eapidk-code-r76-trunk/apps/EeePProg/linux/../EeePProg.c **** 
 442              		.loc 1 381 16 is_stmt 0 view .LVU81
ARM GAS  /tmp/ccqui9DH.s 			page 17


 443 02b0 10308DE5 		str	r3, [sp, #16]
 444              		.loc 1 383 3 is_stmt 1 view .LVU82
 445              		.loc 1 383 3 view .LVU83
 446 02b4 FEFFFFEB 		bl	EeeP_CreateEeePExtEEPImage(PLT)
 447              	.LVL30:
 448              		.loc 1 383 3 view .LVU84
 449 02b8 004050E2 		subs	r4, r0, #0
 450 02bc 1300001A 		bne	.L36
 451              		.loc 1 383 3 discriminator 2 view .LVU85
 384:/home/hkh/git/eapidk-code-r76-trunk/apps/EeePProg/linux/../EeePProg.c ****         &BHandel                              ,
 385:/home/hkh/git/eapidk-code-r76-trunk/apps/EeePProg/linux/../EeePProg.c ****         ((WriteEepCfg_t*)pArgData)->FileName
 386:/home/hkh/git/eapidk-code-r76-trunk/apps/EeePProg/linux/../EeePProg.c ****       ));
 387:/home/hkh/git/eapidk-code-r76-trunk/apps/EeePProg/linux/../EeePProg.c ****   DO(EeePWriteBufferToEEP(BHandel, 
 452              		.loc 1 387 3 discriminator 2 view .LVU86
 453              		.loc 1 387 3 discriminator 2 view .LVU87
 454 02c0 B820D5E1 		ldrh	r2, [r5, #8]
 455 02c4 B410D5E1 		ldrh	r1, [r5, #4]
 456 02c8 10009DE5 		ldr	r0, [sp, #16]
 457              	.LVL31:
 458              		.loc 1 387 3 is_stmt 0 discriminator 2 view .LVU88
 459 02cc FEFFFFEB 		bl	EeePWriteBufferToEEP(PLT)
 460              	.LVL32:
 461              		.loc 1 387 3 is_stmt 1 discriminator 2 view .LVU89
 462 02d0 004050E2 		subs	r4, r0, #0
 463 02d4 1C00001A 		bne	.L37
 464              	.LVL33:
 465              	.L30:
 466              		.loc 1 387 3 discriminator 3 view .LVU90
 388:/home/hkh/git/eapidk-code-r76-trunk/apps/EeePProg/linux/../EeePProg.c ****         (uint16_t)((WriteEepCfg_t*)pArgData)->I2CBus, 
 389:/home/hkh/git/eapidk-code-r76-trunk/apps/EeePProg/linux/../EeePProg.c ****         (uint16_t)((WriteEepCfg_t*)pArgData)->I2CDevAddr
 390:/home/hkh/git/eapidk-code-r76-trunk/apps/EeePProg/linux/../EeePProg.c ****         )
 391:/home/hkh/git/eapidk-code-r76-trunk/apps/EeePProg/linux/../EeePProg.c ****       );
 392:/home/hkh/git/eapidk-code-r76-trunk/apps/EeePProg/linux/../EeePProg.c **** 
 393:/home/hkh/git/eapidk-code-r76-trunk/apps/EeePProg/linux/../EeePProg.c **** EAPI_APP_ASSERT_EXIT
 394:/home/hkh/git/eapidk-code-r76-trunk/apps/EeePProg/linux/../EeePProg.c ****   EeePFreeBuffer(&BHandel);
 467              		.loc 1 394 3 discriminator 3 view .LVU91
 468 02d8 0600A0E1 		mov	r0, r6
 469 02dc FEFFFFEB 		bl	EeePFreeBuffer(PLT)
 470              	.LVL34:
 395:/home/hkh/git/eapidk-code-r76-trunk/apps/EeePProg/linux/../EeePProg.c ****   return StatusCode;
 471              		.loc 1 395 3 discriminator 3 view .LVU92
 379:/home/hkh/git/eapidk-code-r76-trunk/apps/EeePProg/linux/../EeePProg.c ****   EApiStatus_t StatusCode=EAPI_STATUS_SUCCESS;
 472              		.loc 1 379 1 is_stmt 0 discriminator 3 view .LVU93
 473 02e0 AC209FE5 		ldr	r2, .L39+8
 396:/home/hkh/git/eapidk-code-r76-trunk/apps/EeePProg/linux/../EeePProg.c **** }
 474              		.loc 1 396 1 discriminator 3 view .LVU94
 475 02e4 A4309FE5 		ldr	r3, .L39+4
 379:/home/hkh/git/eapidk-code-r76-trunk/apps/EeePProg/linux/../EeePProg.c ****   EApiStatus_t StatusCode=EAPI_STATUS_SUCCESS;
 476              		.loc 1 379 1 discriminator 3 view .LVU95
 477              	.LPIC28:
 478 02e8 02208FE0 		add	r2, pc, r2
 479              		.loc 1 396 1 discriminator 3 view .LVU96
 480 02ec 033092E7 		ldr	r3, [r2, r3]
 481 02f0 002093E5 		ldr	r2, [r3]
 482 02f4 14309DE5 		ldr	r3, [sp, #20]
 483 02f8 022033E0 		eors	r2, r3, r2
 484 02fc 0030A0E3 		mov	r3, #0
ARM GAS  /tmp/ccqui9DH.s 			page 18


 485 0300 2000001A 		bne	.L38
 486              		.loc 1 396 1 view .LVU97
 487 0304 0400A0E1 		mov	r0, r4
 488 0308 18D08DE2 		add	sp, sp, #24
 489              		.cfi_remember_state
 490              		.cfi_def_cfa_offset 16
 491              		@ sp needed
 492 030c 7080BDE8 		pop	{r4, r5, r6, pc}
 493              	.LVL35:
 494              	.L36:
 495              		.cfi_restore_state
 383:/home/hkh/git/eapidk-code-r76-trunk/apps/EeePProg/linux/../EeePProg.c ****         &BHandel                              ,
 496              		.loc 1 383 3 is_stmt 1 discriminator 1 view .LVU98
 497 0310 80109FE5 		ldr	r1, .L39+12
 498 0314 7F3100E3 		movw	r3, #383
 499 0318 7C009FE5 		ldr	r0, .L39+16
 500              	.LVL36:
 383:/home/hkh/git/eapidk-code-r76-trunk/apps/EeePProg/linux/../EeePProg.c ****         &BHandel                              ,
 501              		.loc 1 383 3 is_stmt 0 discriminator 1 view .LVU99
 502 031c 7C209FE5 		ldr	r2, .L39+20
 503              	.LPIC23:
 504 0320 01108FE0 		add	r1, pc, r1
 505 0324 00408DE5 		str	r4, [sp]
 506 0328 04108DE5 		str	r1, [sp, #4]
 507              	.LPIC22:
 508 032c 00008FE0 		add	r0, pc, r0
 509 0330 6C109FE5 		ldr	r1, .L39+24
 510              	.LPIC20:
 511 0334 02208FE0 		add	r2, pc, r2
 512 0338 08008DE5 		str	r0, [sp, #8]
 513 033c 4500A0E3 		mov	r0, #69
 514              	.LPIC21:
 515 0340 01108FE0 		add	r1, pc, r1
 516 0344 FEFFFFEB 		bl	siFormattedMessage_SC(PLT)
 517              	.LVL37:
 383:/home/hkh/git/eapidk-code-r76-trunk/apps/EeePProg/linux/../EeePProg.c ****         &BHandel                              ,
 518              		.loc 1 383 3 is_stmt 1 discriminator 1 view .LVU100
 519 0348 E2FFFFEA 		b	.L30
 520              	.LVL38:
 521              	.L37:
 387:/home/hkh/git/eapidk-code-r76-trunk/apps/EeePProg/linux/../EeePProg.c ****         (uint16_t)((WriteEepCfg_t*)pArgData)->I2CBus, 
 522              		.loc 1 387 3 discriminator 1 view .LVU101
 523 034c 54109FE5 		ldr	r1, .L39+28
 524 0350 833100E3 		movw	r3, #387
 525 0354 50009FE5 		ldr	r0, .L39+32
 526              	.LVL39:
 387:/home/hkh/git/eapidk-code-r76-trunk/apps/EeePProg/linux/../EeePProg.c ****         (uint16_t)((WriteEepCfg_t*)pArgData)->I2CBus, 
 527              		.loc 1 387 3 is_stmt 0 discriminator 1 view .LVU102
 528 0358 50209FE5 		ldr	r2, .L39+36
 529              	.LPIC27:
 530 035c 01108FE0 		add	r1, pc, r1
 531 0360 00408DE5 		str	r4, [sp]
 532 0364 04108DE5 		str	r1, [sp, #4]
 533              	.LPIC26:
 534 0368 00008FE0 		add	r0, pc, r0
 535 036c 40109FE5 		ldr	r1, .L39+40
 536              	.LPIC24:
ARM GAS  /tmp/ccqui9DH.s 			page 19


 537 0370 02208FE0 		add	r2, pc, r2
 538 0374 08008DE5 		str	r0, [sp, #8]
 539 0378 4500A0E3 		mov	r0, #69
 540              	.LPIC25:
 541 037c 01108FE0 		add	r1, pc, r1
 542 0380 FEFFFFEB 		bl	siFormattedMessage_SC(PLT)
 543              	.LVL40:
 387:/home/hkh/git/eapidk-code-r76-trunk/apps/EeePProg/linux/../EeePProg.c ****         (uint16_t)((WriteEepCfg_t*)pArgData)->I2CBus, 
 544              		.loc 1 387 3 is_stmt 1 discriminator 1 view .LVU103
 545 0384 D3FFFFEA 		b	.L30
 546              	.L38:
 547              		.loc 1 396 1 is_stmt 0 view .LVU104
 548 0388 FEFFFFEB 		bl	__stack_chk_fail(PLT)
 549              	.LVL41:
 550              	.L40:
 551              		.align	2
 552              	.L39:
 553 038c F8000000 		.word	_GLOBAL_OFFSET_TABLE_-(.LPIC29+8)
 554 0390 00000000 		.word	__stack_chk_guard(GOT)
 555 0394 A4000000 		.word	_GLOBAL_OFFSET_TABLE_-(.LPIC28+8)
 556 0398 70000000 		.word	.LC3-(.LPIC23+8)
 557 039c 68000000 		.word	.LC7-(.LPIC22+8)
 558 03a0 64000000 		.word	.LC0-(.LPIC20+8)
 559 03a4 5C000000 		.word	.LC1-(.LPIC21+8)
 560 03a8 44000000 		.word	.LC3-(.LPIC27+8)
 561 03ac 3C000000 		.word	.LC8-(.LPIC26+8)
 562 03b0 38000000 		.word	.LC0-(.LPIC24+8)
 563 03b4 30000000 		.word	.LC1-(.LPIC25+8)
 564              		.cfi_endproc
 565              	.LFE8:
 567              		.section	.rodata.str1.4
 568 0237 00       		.align	2
 569              	.LC9:
 570 0238 45656550 		.ascii	"EeePReadBufferFromFile( &BHandel , *(char**)pArgDat"
 570      52656164 
 570      42756666 
 570      65724672 
 570      6F6D4669 
 571 026b 61202900 		.ascii	"a )\000"
 572 026f 00       		.align	2
 573              	.LC10:
 574 0270 436F6D30 		.ascii	"Com0\000"
 574      00
 575 0275 000000   		.align	2
 576              	.LC11:
 577 0278 434D445F 		.ascii	"CMD_ProgramCOM0R20CB_EEP\000"
 577      50726F67 
 577      72616D43 
 577      4F4D3052 
 577      32304342 
 578 0291 000000   		.align	2
 579              	.LC12:
 580 0294 4E6F7420 		.ascii	"Not Valid COM0 R2.0 Carrier Board Image\000"
 580      56616C69 
 580      6420434F 
 580      4D302052 
 580      322E3020 
ARM GAS  /tmp/ccqui9DH.s 			page 20


 581              		.text
 582              		.align	2
 583              		.global	CMD_ProgramCOM0R20CB_EEP
 584              		.syntax unified
 585              		.arm
 586              		.fpu vfpv3
 588              	CMD_ProgramCOM0R20CB_EEP:
 589              	.LVL42:
 590              	.LFB9:
 397:/home/hkh/git/eapidk-code-r76-trunk/apps/EeePProg/linux/../EeePProg.c **** 
 398:/home/hkh/git/eapidk-code-r76-trunk/apps/EeePProg/linux/../EeePProg.c **** 
 399:/home/hkh/git/eapidk-code-r76-trunk/apps/EeePProg/linux/../EeePProg.c **** EApiStatus_t 
 400:/home/hkh/git/eapidk-code-r76-trunk/apps/EeePProg/linux/../EeePProg.c **** CMD_ProgramCOM0R20CB_EEP(
 401:/home/hkh/git/eapidk-code-r76-trunk/apps/EeePProg/linux/../EeePProg.c ****     void *pArgData
 402:/home/hkh/git/eapidk-code-r76-trunk/apps/EeePProg/linux/../EeePProg.c ****     )
 403:/home/hkh/git/eapidk-code-r76-trunk/apps/EeePProg/linux/../EeePProg.c **** {
 591              		.loc 1 403 1 is_stmt 1 view -0
 592              		.cfi_startproc
 593              		@ args = 0, pretend = 0, frame = 8
 594              		@ frame_needed = 0, uses_anonymous_args = 0
 595              		.loc 1 403 1 is_stmt 0 view .LVU106
 596 03b8 74C19FE5 		ldr	ip, .L56
 404:/home/hkh/git/eapidk-code-r76-trunk/apps/EeePProg/linux/../EeePProg.c ****   EApiStatus_t StatusCode=EAPI_STATUS_SUCCESS;
 405:/home/hkh/git/eapidk-code-r76-trunk/apps/EeePProg/linux/../EeePProg.c ****   EeePHandel_t BHandel=NULL;
 597              		.loc 1 405 16 view .LVU107
 598 03bc 0030A0E3 		mov	r3, #0
 403:/home/hkh/git/eapidk-code-r76-trunk/apps/EeePProg/linux/../EeePProg.c ****   EApiStatus_t StatusCode=EAPI_STATUS_SUCCESS;
 599              		.loc 1 403 1 view .LVU108
 600 03c0 70219FE5 		ldr	r2, .L56+4
 601 03c4 30402DE9 		push	{r4, r5, lr}
 602              		.cfi_def_cfa_offset 12
 603              		.cfi_offset 4, -12
 604              		.cfi_offset 5, -8
 605              		.cfi_offset 14, -4
 606 03c8 1CD04DE2 		sub	sp, sp, #28
 607              		.cfi_def_cfa_offset 40
 403:/home/hkh/git/eapidk-code-r76-trunk/apps/EeePProg/linux/../EeePProg.c ****   EApiStatus_t StatusCode=EAPI_STATUS_SUCCESS;
 608              		.loc 1 403 1 view .LVU109
 609              	.LPIC44:
 610 03cc 0CC08FE0 		add	ip, pc, ip
 406:/home/hkh/git/eapidk-code-r76-trunk/apps/EeePProg/linux/../EeePProg.c **** 
 407:/home/hkh/git/eapidk-code-r76-trunk/apps/EeePProg/linux/../EeePProg.c ****   DO(EeePReadBufferFromFile(
 611              		.loc 1 407 3 view .LVU110
 612 03d0 10508DE2 		add	r5, sp, #16
 403:/home/hkh/git/eapidk-code-r76-trunk/apps/EeePProg/linux/../EeePProg.c ****   EApiStatus_t StatusCode=EAPI_STATUS_SUCCESS;
 613              		.loc 1 403 1 view .LVU111
 614 03d4 02209CE7 		ldr	r2, [ip, r2]
 615              		.loc 1 407 3 view .LVU112
 616 03d8 001090E5 		ldr	r1, [r0]
 617 03dc 0500A0E1 		mov	r0, r5
 403:/home/hkh/git/eapidk-code-r76-trunk/apps/EeePProg/linux/../EeePProg.c ****   EApiStatus_t StatusCode=EAPI_STATUS_SUCCESS;
 618              		.loc 1 403 1 view .LVU113
 619 03e0 002092E5 		ldr	r2, [r2]
 620 03e4 14208DE5 		str	r2, [sp, #20]
 621 03e8 0020A0E3 		mov	r2, #0
 404:/home/hkh/git/eapidk-code-r76-trunk/apps/EeePProg/linux/../EeePProg.c ****   EeePHandel_t BHandel=NULL;
 622              		.loc 1 404 3 is_stmt 1 view .LVU114
ARM GAS  /tmp/ccqui9DH.s 			page 21


 623              	.LVL43:
 405:/home/hkh/git/eapidk-code-r76-trunk/apps/EeePProg/linux/../EeePProg.c **** 
 624              		.loc 1 405 3 view .LVU115
 405:/home/hkh/git/eapidk-code-r76-trunk/apps/EeePProg/linux/../EeePProg.c **** 
 625              		.loc 1 405 16 is_stmt 0 view .LVU116
 626 03ec 10308DE5 		str	r3, [sp, #16]
 627              		.loc 1 407 3 is_stmt 1 view .LVU117
 628              		.loc 1 407 3 view .LVU118
 629 03f0 FEFFFFEB 		bl	EeePReadBufferFromFile(PLT)
 630              	.LVL44:
 631              		.loc 1 407 3 view .LVU119
 632 03f4 004050E2 		subs	r4, r0, #0
 633 03f8 3D00001A 		bne	.L53
 634              		.loc 1 407 3 discriminator 2 view .LVU120
 408:/home/hkh/git/eapidk-code-r76-trunk/apps/EeePProg/linux/../EeePProg.c ****         &BHandel                              ,
 409:/home/hkh/git/eapidk-code-r76-trunk/apps/EeePProg/linux/../EeePProg.c ****         *(char**)pArgData
 410:/home/hkh/git/eapidk-code-r76-trunk/apps/EeePProg/linux/../EeePProg.c ****       ));
 411:/home/hkh/git/eapidk-code-r76-trunk/apps/EeePProg/linux/../EeePProg.c ****   if(memcmp(((COM0R20_CB_t *)BHandel)->GenId, COM0R20_CB_HEADER_ID, sizeof(COM0R20_CB_HEADER_ID)-1)
 635              		.loc 1 411 3 discriminator 2 view .LVU121
 636              		.loc 1 411 14 is_stmt 0 discriminator 2 view .LVU122
 637 03fc 10009DE5 		ldr	r0, [sp, #16]
 638              	.LVL45:
 639              		.loc 1 411 6 discriminator 2 view .LVU123
 640 0400 0630D0E5 		ldrb	r3, [r0, #6]	@ zero_extendqisi2
 641 0404 430053E3 		cmp	r3, #67
 642 0408 1C00000A 		beq	.L54
 643              	.L44:
 412:/home/hkh/git/eapidk-code-r76-trunk/apps/EeePProg/linux/../EeePProg.c ****     EAPI_APP_RETURN_ERROR(
 644              		.loc 1 412 5 is_stmt 1 discriminator 2 view .LVU124
 645              		.loc 1 412 5 discriminator 2 view .LVU125
 646 040c 28119FE5 		ldr	r1, .L56+8
 647 0410 0F4CE0E3 		mvn	r4, #3840
 648              	.LVL46:
 649              		.loc 1 412 5 is_stmt 0 discriminator 2 view .LVU126
 650 0414 24219FE5 		ldr	r2, .L56+12
 651 0418 673FA0E3 		mov	r3, #412
 652 041c 4500A0E3 		mov	r0, #69
 653 0420 00408DE5 		str	r4, [sp]
 654              	.LPIC37:
 655 0424 01108FE0 		add	r1, pc, r1
 656              	.LPIC38:
 657 0428 02208FE0 		add	r2, pc, r2
 658 042c 08108DE5 		str	r1, [sp, #8]
 659 0430 04208DE5 		str	r2, [sp, #4]
 660 0434 08119FE5 		ldr	r1, .L56+16
 661 0438 08219FE5 		ldr	r2, .L56+20
 662              	.LPIC36:
 663 043c 01108FE0 		add	r1, pc, r1
 664              	.LPIC35:
 665 0440 02208FE0 		add	r2, pc, r2
 666 0444 FEFFFFEB 		bl	siFormattedMessage_SC(PLT)
 667              	.LVL47:
 668              		.loc 1 412 5 is_stmt 1 discriminator 2 view .LVU127
 669              		.loc 1 412 5 discriminator 2 view .LVU128
 670              		.loc 1 412 5 discriminator 2 view .LVU129
 671              	.L43:
 413:/home/hkh/git/eapidk-code-r76-trunk/apps/EeePProg/linux/../EeePProg.c ****         CMD_ProgramCOM0R20CB_EEP,
ARM GAS  /tmp/ccqui9DH.s 			page 22


 414:/home/hkh/git/eapidk-code-r76-trunk/apps/EeePProg/linux/../EeePProg.c ****         EAPI_STATUS_ERROR,
 415:/home/hkh/git/eapidk-code-r76-trunk/apps/EeePProg/linux/../EeePProg.c ****         "Not Valid COM0 R2.0 Carrier Board Image"
 416:/home/hkh/git/eapidk-code-r76-trunk/apps/EeePProg/linux/../EeePProg.c ****       );
 417:/home/hkh/git/eapidk-code-r76-trunk/apps/EeePProg/linux/../EeePProg.c ****   }
 418:/home/hkh/git/eapidk-code-r76-trunk/apps/EeePProg/linux/../EeePProg.c ****   DO(EeePWriteBufferToEEP(BHandel, EAPI_ID_I2C_EXTERNAL, COM0R20_CB_EEP_DEV_ADDR));
 672              		.loc 1 418 3 discriminator 3 view .LVU130
 419:/home/hkh/git/eapidk-code-r76-trunk/apps/EeePProg/linux/../EeePProg.c **** 
 420:/home/hkh/git/eapidk-code-r76-trunk/apps/EeePProg/linux/../EeePProg.c **** EAPI_APP_ASSERT_EXIT
 421:/home/hkh/git/eapidk-code-r76-trunk/apps/EeePProg/linux/../EeePProg.c ****   EeePFreeBuffer(&BHandel);
 673              		.loc 1 421 3 discriminator 3 view .LVU131
 674 0448 0500A0E1 		mov	r0, r5
 675 044c FEFFFFEB 		bl	EeePFreeBuffer(PLT)
 676              	.LVL48:
 422:/home/hkh/git/eapidk-code-r76-trunk/apps/EeePProg/linux/../EeePProg.c ****   return StatusCode;
 677              		.loc 1 422 3 discriminator 3 view .LVU132
 403:/home/hkh/git/eapidk-code-r76-trunk/apps/EeePProg/linux/../EeePProg.c ****   EApiStatus_t StatusCode=EAPI_STATUS_SUCCESS;
 678              		.loc 1 403 1 is_stmt 0 discriminator 3 view .LVU133
 679 0450 F4209FE5 		ldr	r2, .L56+24
 423:/home/hkh/git/eapidk-code-r76-trunk/apps/EeePProg/linux/../EeePProg.c **** }
 680              		.loc 1 423 1 discriminator 3 view .LVU134
 681 0454 DC309FE5 		ldr	r3, .L56+4
 403:/home/hkh/git/eapidk-code-r76-trunk/apps/EeePProg/linux/../EeePProg.c ****   EApiStatus_t StatusCode=EAPI_STATUS_SUCCESS;
 682              		.loc 1 403 1 discriminator 3 view .LVU135
 683              	.LPIC43:
 684 0458 02208FE0 		add	r2, pc, r2
 685              		.loc 1 423 1 discriminator 3 view .LVU136
 686 045c 033092E7 		ldr	r3, [r2, r3]
 687 0460 002093E5 		ldr	r2, [r3]
 688 0464 14309DE5 		ldr	r3, [sp, #20]
 689 0468 022033E0 		eors	r2, r3, r2
 690 046c 0030A0E3 		mov	r3, #0
 691 0470 2E00001A 		bne	.L55
 692              		.loc 1 423 1 view .LVU137
 693 0474 0400A0E1 		mov	r0, r4
 694 0478 1CD08DE2 		add	sp, sp, #28
 695              		.cfi_remember_state
 696              		.cfi_def_cfa_offset 12
 697              		@ sp needed
 698 047c 3080BDE8 		pop	{r4, r5, pc}
 699              	.LVL49:
 700              	.L54:
 701              		.cfi_restore_state
 411:/home/hkh/git/eapidk-code-r76-trunk/apps/EeePProg/linux/../EeePProg.c ****     EAPI_APP_RETURN_ERROR(
 702              		.loc 1 411 6 discriminator 2 view .LVU138
 703 0480 0730D0E5 		ldrb	r3, [r0, #7]	@ zero_extendqisi2
 704 0484 6F0053E3 		cmp	r3, #111
 705 0488 DFFFFF1A 		bne	.L44
 706 048c 0830D0E5 		ldrb	r3, [r0, #8]	@ zero_extendqisi2
 707 0490 6D0053E3 		cmp	r3, #109
 708 0494 DCFFFF1A 		bne	.L44
 709 0498 0930D0E5 		ldrb	r3, [r0, #9]	@ zero_extendqisi2
 710 049c 300053E3 		cmp	r3, #48
 711 04a0 D9FFFF1A 		bne	.L44
 412:/home/hkh/git/eapidk-code-r76-trunk/apps/EeePProg/linux/../EeePProg.c ****         CMD_ProgramCOM0R20CB_EEP,
 712              		.loc 1 412 5 is_stmt 1 discriminator 2 view .LVU139
 418:/home/hkh/git/eapidk-code-r76-trunk/apps/EeePProg/linux/../EeePProg.c **** 
 713              		.loc 1 418 3 discriminator 2 view .LVU140
ARM GAS  /tmp/ccqui9DH.s 			page 23


 418:/home/hkh/git/eapidk-code-r76-trunk/apps/EeePProg/linux/../EeePProg.c **** 
 714              		.loc 1 418 3 discriminator 2 view .LVU141
 715 04a4 0410A0E1 		mov	r1, r4
 716 04a8 AE20A0E3 		mov	r2, #174
 717 04ac FEFFFFEB 		bl	EeePWriteBufferToEEP(PLT)
 718              	.LVL50:
 418:/home/hkh/git/eapidk-code-r76-trunk/apps/EeePProg/linux/../EeePProg.c **** 
 719              		.loc 1 418 3 discriminator 2 view .LVU142
 720 04b0 004050E2 		subs	r4, r0, #0
 721 04b4 E3FFFF0A 		beq	.L43
 418:/home/hkh/git/eapidk-code-r76-trunk/apps/EeePProg/linux/../EeePProg.c **** 
 722              		.loc 1 418 3 discriminator 1 view .LVU143
 723 04b8 90109FE5 		ldr	r1, .L56+28
 724 04bc A23100E3 		movw	r3, #418
 725 04c0 8C009FE5 		ldr	r0, .L56+32
 726              	.LVL51:
 418:/home/hkh/git/eapidk-code-r76-trunk/apps/EeePProg/linux/../EeePProg.c **** 
 727              		.loc 1 418 3 is_stmt 0 discriminator 1 view .LVU144
 728 04c4 8C209FE5 		ldr	r2, .L56+36
 729              	.LPIC42:
 730 04c8 01108FE0 		add	r1, pc, r1
 731 04cc 00408DE5 		str	r4, [sp]
 732 04d0 04108DE5 		str	r1, [sp, #4]
 733              	.LPIC41:
 734 04d4 00008FE0 		add	r0, pc, r0
 735 04d8 7C109FE5 		ldr	r1, .L56+40
 736              	.LPIC39:
 737 04dc 02208FE0 		add	r2, pc, r2
 738 04e0 08008DE5 		str	r0, [sp, #8]
 739 04e4 4500A0E3 		mov	r0, #69
 740              	.LPIC40:
 741 04e8 01108FE0 		add	r1, pc, r1
 742 04ec FEFFFFEB 		bl	siFormattedMessage_SC(PLT)
 743              	.LVL52:
 418:/home/hkh/git/eapidk-code-r76-trunk/apps/EeePProg/linux/../EeePProg.c **** 
 744              		.loc 1 418 3 is_stmt 1 discriminator 1 view .LVU145
 745 04f0 D4FFFFEA 		b	.L43
 746              	.LVL53:
 747              	.L53:
 407:/home/hkh/git/eapidk-code-r76-trunk/apps/EeePProg/linux/../EeePProg.c ****         &BHandel                              ,
 748              		.loc 1 407 3 discriminator 1 view .LVU146
 749 04f4 64109FE5 		ldr	r1, .L56+44
 750 04f8 973100E3 		movw	r3, #407
 751 04fc 60009FE5 		ldr	r0, .L56+48
 752              	.LVL54:
 407:/home/hkh/git/eapidk-code-r76-trunk/apps/EeePProg/linux/../EeePProg.c ****         &BHandel                              ,
 753              		.loc 1 407 3 is_stmt 0 discriminator 1 view .LVU147
 754 0500 60209FE5 		ldr	r2, .L56+52
 755              	.LPIC33:
 756 0504 01108FE0 		add	r1, pc, r1
 757 0508 00408DE5 		str	r4, [sp]
 758 050c 04108DE5 		str	r1, [sp, #4]
 759              	.LPIC32:
 760 0510 00008FE0 		add	r0, pc, r0
 761 0514 50109FE5 		ldr	r1, .L56+56
 762              	.LPIC30:
 763 0518 02208FE0 		add	r2, pc, r2
ARM GAS  /tmp/ccqui9DH.s 			page 24


 764 051c 08008DE5 		str	r0, [sp, #8]
 765 0520 4500A0E3 		mov	r0, #69
 766              	.LPIC31:
 767 0524 01108FE0 		add	r1, pc, r1
 768 0528 FEFFFFEB 		bl	siFormattedMessage_SC(PLT)
 769              	.LVL55:
 407:/home/hkh/git/eapidk-code-r76-trunk/apps/EeePProg/linux/../EeePProg.c ****         &BHandel                              ,
 770              		.loc 1 407 3 is_stmt 1 discriminator 1 view .LVU148
 771 052c C5FFFFEA 		b	.L43
 772              	.L55:
 773              		.loc 1 423 1 is_stmt 0 view .LVU149
 774 0530 FEFFFFEB 		bl	__stack_chk_fail(PLT)
 775              	.LVL56:
 776              	.L57:
 777              		.align	2
 778              	.L56:
 779 0534 60010000 		.word	_GLOBAL_OFFSET_TABLE_-(.LPIC44+8)
 780 0538 00000000 		.word	__stack_chk_guard(GOT)
 781 053c 10010000 		.word	.LC12-(.LPIC37+8)
 782 0540 10010000 		.word	.LC3-(.LPIC38+8)
 783 0544 00010000 		.word	.LC1-(.LPIC36+8)
 784 0548 00010000 		.word	.LC11-(.LPIC35+8)
 785 054c EC000000 		.word	_GLOBAL_OFFSET_TABLE_-(.LPIC43+8)
 786 0550 80000000 		.word	.LC3-(.LPIC42+8)
 787 0554 78000000 		.word	.LC4-(.LPIC41+8)
 788 0558 74000000 		.word	.LC0-(.LPIC39+8)
 789 055c 6C000000 		.word	.LC1-(.LPIC40+8)
 790 0560 54000000 		.word	.LC3-(.LPIC33+8)
 791 0564 4C000000 		.word	.LC9-(.LPIC32+8)
 792 0568 48000000 		.word	.LC0-(.LPIC30+8)
 793 056c 40000000 		.word	.LC1-(.LPIC31+8)
 794              		.cfi_endproc
 795              	.LFE9:
 797              		.section	.rodata.str1.4
 798              		.align	2
 799              	.LC13:
 800 02bc 636F4D30 		.ascii	"coM0\000"
 800      00
 801 02c1 000000   		.align	2
 802              	.LC14:
 803 02c4 434D445F 		.ascii	"CMD_ProgramCOM0R20M_EEP\000"
 803      50726F67 
 803      72616D43 
 803      4F4D3052 
 803      32304D5F 
 804              		.align	2
 805              	.LC15:
 806 02dc 4E6F7420 		.ascii	"Not Valid COM0 R2.0 Module Image\000"
 806      56616C69 
 806      6420434F 
 806      4D302052 
 806      322E3020 
 807              		.text
 808              		.align	2
 809              		.global	CMD_ProgramCOM0R20M_EEP
 810              		.syntax unified
 811              		.arm
ARM GAS  /tmp/ccqui9DH.s 			page 25


 812              		.fpu vfpv3
 814              	CMD_ProgramCOM0R20M_EEP:
 815              	.LVL57:
 816              	.LFB10:
 424:/home/hkh/git/eapidk-code-r76-trunk/apps/EeePProg/linux/../EeePProg.c **** 
 425:/home/hkh/git/eapidk-code-r76-trunk/apps/EeePProg/linux/../EeePProg.c **** EApiStatus_t 
 426:/home/hkh/git/eapidk-code-r76-trunk/apps/EeePProg/linux/../EeePProg.c **** CMD_ProgramCOM0R20M_EEP(
 427:/home/hkh/git/eapidk-code-r76-trunk/apps/EeePProg/linux/../EeePProg.c ****     void *pArgData
 428:/home/hkh/git/eapidk-code-r76-trunk/apps/EeePProg/linux/../EeePProg.c ****     )
 429:/home/hkh/git/eapidk-code-r76-trunk/apps/EeePProg/linux/../EeePProg.c **** {
 817              		.loc 1 429 1 is_stmt 1 view -0
 818              		.cfi_startproc
 819              		@ args = 0, pretend = 0, frame = 8
 820              		@ frame_needed = 0, uses_anonymous_args = 0
 821              		.loc 1 429 1 is_stmt 0 view .LVU151
 822 0570 74C19FE5 		ldr	ip, .L73
 430:/home/hkh/git/eapidk-code-r76-trunk/apps/EeePProg/linux/../EeePProg.c ****   EApiStatus_t StatusCode=EAPI_STATUS_SUCCESS;
 431:/home/hkh/git/eapidk-code-r76-trunk/apps/EeePProg/linux/../EeePProg.c ****   EeePHandel_t BHandel=NULL;
 823              		.loc 1 431 16 view .LVU152
 824 0574 0030A0E3 		mov	r3, #0
 429:/home/hkh/git/eapidk-code-r76-trunk/apps/EeePProg/linux/../EeePProg.c ****   EApiStatus_t StatusCode=EAPI_STATUS_SUCCESS;
 825              		.loc 1 429 1 view .LVU153
 826 0578 70219FE5 		ldr	r2, .L73+4
 827 057c 30402DE9 		push	{r4, r5, lr}
 828              		.cfi_def_cfa_offset 12
 829              		.cfi_offset 4, -12
 830              		.cfi_offset 5, -8
 831              		.cfi_offset 14, -4
 832 0580 1CD04DE2 		sub	sp, sp, #28
 833              		.cfi_def_cfa_offset 40
 429:/home/hkh/git/eapidk-code-r76-trunk/apps/EeePProg/linux/../EeePProg.c ****   EApiStatus_t StatusCode=EAPI_STATUS_SUCCESS;
 834              		.loc 1 429 1 view .LVU154
 835              	.LPIC59:
 836 0584 0CC08FE0 		add	ip, pc, ip
 432:/home/hkh/git/eapidk-code-r76-trunk/apps/EeePProg/linux/../EeePProg.c **** 
 433:/home/hkh/git/eapidk-code-r76-trunk/apps/EeePProg/linux/../EeePProg.c ****   DO(EeePReadBufferFromFile(
 837              		.loc 1 433 3 view .LVU155
 838 0588 10508DE2 		add	r5, sp, #16
 429:/home/hkh/git/eapidk-code-r76-trunk/apps/EeePProg/linux/../EeePProg.c ****   EApiStatus_t StatusCode=EAPI_STATUS_SUCCESS;
 839              		.loc 1 429 1 view .LVU156
 840 058c 02209CE7 		ldr	r2, [ip, r2]
 841              		.loc 1 433 3 view .LVU157
 842 0590 001090E5 		ldr	r1, [r0]
 843 0594 0500A0E1 		mov	r0, r5
 429:/home/hkh/git/eapidk-code-r76-trunk/apps/EeePProg/linux/../EeePProg.c ****   EApiStatus_t StatusCode=EAPI_STATUS_SUCCESS;
 844              		.loc 1 429 1 view .LVU158
 845 0598 002092E5 		ldr	r2, [r2]
 846 059c 14208DE5 		str	r2, [sp, #20]
 847 05a0 0020A0E3 		mov	r2, #0
 430:/home/hkh/git/eapidk-code-r76-trunk/apps/EeePProg/linux/../EeePProg.c ****   EeePHandel_t BHandel=NULL;
 848              		.loc 1 430 3 is_stmt 1 view .LVU159
 849              	.LVL58:
 431:/home/hkh/git/eapidk-code-r76-trunk/apps/EeePProg/linux/../EeePProg.c **** 
 850              		.loc 1 431 3 view .LVU160
 431:/home/hkh/git/eapidk-code-r76-trunk/apps/EeePProg/linux/../EeePProg.c **** 
 851              		.loc 1 431 16 is_stmt 0 view .LVU161
 852 05a4 10308DE5 		str	r3, [sp, #16]
ARM GAS  /tmp/ccqui9DH.s 			page 26


 853              		.loc 1 433 3 is_stmt 1 view .LVU162
 854              		.loc 1 433 3 view .LVU163
 855 05a8 FEFFFFEB 		bl	EeePReadBufferFromFile(PLT)
 856              	.LVL59:
 857              		.loc 1 433 3 view .LVU164
 858 05ac 004050E2 		subs	r4, r0, #0
 859 05b0 3D00001A 		bne	.L70
 860              		.loc 1 433 3 discriminator 2 view .LVU165
 434:/home/hkh/git/eapidk-code-r76-trunk/apps/EeePProg/linux/../EeePProg.c ****         &BHandel                              ,
 435:/home/hkh/git/eapidk-code-r76-trunk/apps/EeePProg/linux/../EeePProg.c ****         *(char**)pArgData
 436:/home/hkh/git/eapidk-code-r76-trunk/apps/EeePProg/linux/../EeePProg.c ****       ));
 437:/home/hkh/git/eapidk-code-r76-trunk/apps/EeePProg/linux/../EeePProg.c ****   if(memcmp(((COM0R20_M_t *)BHandel)->GenId, COM0R20_M_HEADER_ID, sizeof(COM0R20_M_HEADER_ID)-1)){
 861              		.loc 1 437 3 discriminator 2 view .LVU166
 862              		.loc 1 437 14 is_stmt 0 discriminator 2 view .LVU167
 863 05b4 10009DE5 		ldr	r0, [sp, #16]
 864              	.LVL60:
 865              		.loc 1 437 6 discriminator 2 view .LVU168
 866 05b8 0630D0E5 		ldrb	r3, [r0, #6]	@ zero_extendqisi2
 867 05bc 630053E3 		cmp	r3, #99
 868 05c0 1C00000A 		beq	.L71
 869              	.L61:
 438:/home/hkh/git/eapidk-code-r76-trunk/apps/EeePProg/linux/../EeePProg.c ****     EAPI_APP_RETURN_ERROR(
 870              		.loc 1 438 5 is_stmt 1 discriminator 2 view .LVU169
 871              		.loc 1 438 5 discriminator 2 view .LVU170
 872 05c4 28119FE5 		ldr	r1, .L73+8
 873 05c8 0F4CE0E3 		mvn	r4, #3840
 874              	.LVL61:
 875              		.loc 1 438 5 is_stmt 0 discriminator 2 view .LVU171
 876 05cc 24219FE5 		ldr	r2, .L73+12
 877 05d0 B63100E3 		movw	r3, #438
 878 05d4 4500A0E3 		mov	r0, #69
 879 05d8 00408DE5 		str	r4, [sp]
 880              	.LPIC52:
 881 05dc 01108FE0 		add	r1, pc, r1
 882              	.LPIC53:
 883 05e0 02208FE0 		add	r2, pc, r2
 884 05e4 08108DE5 		str	r1, [sp, #8]
 885 05e8 04208DE5 		str	r2, [sp, #4]
 886 05ec 08119FE5 		ldr	r1, .L73+16
 887 05f0 08219FE5 		ldr	r2, .L73+20
 888              	.LPIC51:
 889 05f4 01108FE0 		add	r1, pc, r1
 890              	.LPIC50:
 891 05f8 02208FE0 		add	r2, pc, r2
 892 05fc FEFFFFEB 		bl	siFormattedMessage_SC(PLT)
 893              	.LVL62:
 894              		.loc 1 438 5 is_stmt 1 discriminator 2 view .LVU172
 895              		.loc 1 438 5 discriminator 2 view .LVU173
 896              		.loc 1 438 5 discriminator 2 view .LVU174
 897              	.L60:
 439:/home/hkh/git/eapidk-code-r76-trunk/apps/EeePProg/linux/../EeePProg.c ****         CMD_ProgramCOM0R20M_EEP,
 440:/home/hkh/git/eapidk-code-r76-trunk/apps/EeePProg/linux/../EeePProg.c ****         EAPI_STATUS_ERROR,
 441:/home/hkh/git/eapidk-code-r76-trunk/apps/EeePProg/linux/../EeePProg.c ****         "Not Valid COM0 R2.0 Module Image"
 442:/home/hkh/git/eapidk-code-r76-trunk/apps/EeePProg/linux/../EeePProg.c ****       );
 443:/home/hkh/git/eapidk-code-r76-trunk/apps/EeePProg/linux/../EeePProg.c ****   }
 444:/home/hkh/git/eapidk-code-r76-trunk/apps/EeePProg/linux/../EeePProg.c ****   DO(EeePWriteBufferToEEP(BHandel, EAPI_ID_I2C_EXTERNAL, COM0R20_M_EEP_DEV_ADDR));
 898              		.loc 1 444 3 discriminator 3 view .LVU175
ARM GAS  /tmp/ccqui9DH.s 			page 27


 445:/home/hkh/git/eapidk-code-r76-trunk/apps/EeePProg/linux/../EeePProg.c **** 
 446:/home/hkh/git/eapidk-code-r76-trunk/apps/EeePProg/linux/../EeePProg.c **** EAPI_APP_ASSERT_EXIT
 447:/home/hkh/git/eapidk-code-r76-trunk/apps/EeePProg/linux/../EeePProg.c ****   EeePFreeBuffer(&BHandel);
 899              		.loc 1 447 3 discriminator 3 view .LVU176
 900 0600 0500A0E1 		mov	r0, r5
 901 0604 FEFFFFEB 		bl	EeePFreeBuffer(PLT)
 902              	.LVL63:
 448:/home/hkh/git/eapidk-code-r76-trunk/apps/EeePProg/linux/../EeePProg.c ****   return StatusCode;
 903              		.loc 1 448 3 discriminator 3 view .LVU177
 429:/home/hkh/git/eapidk-code-r76-trunk/apps/EeePProg/linux/../EeePProg.c ****   EApiStatus_t StatusCode=EAPI_STATUS_SUCCESS;
 904              		.loc 1 429 1 is_stmt 0 discriminator 3 view .LVU178
 905 0608 F4209FE5 		ldr	r2, .L73+24
 449:/home/hkh/git/eapidk-code-r76-trunk/apps/EeePProg/linux/../EeePProg.c **** }
 906              		.loc 1 449 1 discriminator 3 view .LVU179
 907 060c DC309FE5 		ldr	r3, .L73+4
 429:/home/hkh/git/eapidk-code-r76-trunk/apps/EeePProg/linux/../EeePProg.c ****   EApiStatus_t StatusCode=EAPI_STATUS_SUCCESS;
 908              		.loc 1 429 1 discriminator 3 view .LVU180
 909              	.LPIC58:
 910 0610 02208FE0 		add	r2, pc, r2
 911              		.loc 1 449 1 discriminator 3 view .LVU181
 912 0614 033092E7 		ldr	r3, [r2, r3]
 913 0618 002093E5 		ldr	r2, [r3]
 914 061c 14309DE5 		ldr	r3, [sp, #20]
 915 0620 022033E0 		eors	r2, r3, r2
 916 0624 0030A0E3 		mov	r3, #0
 917 0628 2E00001A 		bne	.L72
 918              		.loc 1 449 1 view .LVU182
 919 062c 0400A0E1 		mov	r0, r4
 920 0630 1CD08DE2 		add	sp, sp, #28
 921              		.cfi_remember_state
 922              		.cfi_def_cfa_offset 12
 923              		@ sp needed
 924 0634 3080BDE8 		pop	{r4, r5, pc}
 925              	.LVL64:
 926              	.L71:
 927              		.cfi_restore_state
 437:/home/hkh/git/eapidk-code-r76-trunk/apps/EeePProg/linux/../EeePProg.c ****     EAPI_APP_RETURN_ERROR(
 928              		.loc 1 437 6 discriminator 2 view .LVU183
 929 0638 0730D0E5 		ldrb	r3, [r0, #7]	@ zero_extendqisi2
 930 063c 6F0053E3 		cmp	r3, #111
 931 0640 DFFFFF1A 		bne	.L61
 932 0644 0830D0E5 		ldrb	r3, [r0, #8]	@ zero_extendqisi2
 933 0648 4D0053E3 		cmp	r3, #77
 934 064c DCFFFF1A 		bne	.L61
 935 0650 0930D0E5 		ldrb	r3, [r0, #9]	@ zero_extendqisi2
 936 0654 300053E3 		cmp	r3, #48
 937 0658 D9FFFF1A 		bne	.L61
 438:/home/hkh/git/eapidk-code-r76-trunk/apps/EeePProg/linux/../EeePProg.c ****         CMD_ProgramCOM0R20M_EEP,
 938              		.loc 1 438 5 is_stmt 1 discriminator 2 view .LVU184
 444:/home/hkh/git/eapidk-code-r76-trunk/apps/EeePProg/linux/../EeePProg.c **** 
 939              		.loc 1 444 3 discriminator 2 view .LVU185
 444:/home/hkh/git/eapidk-code-r76-trunk/apps/EeePProg/linux/../EeePProg.c **** 
 940              		.loc 1 444 3 discriminator 2 view .LVU186
 941 065c 0410A0E1 		mov	r1, r4
 942 0660 A020A0E3 		mov	r2, #160
 943 0664 FEFFFFEB 		bl	EeePWriteBufferToEEP(PLT)
 944              	.LVL65:
ARM GAS  /tmp/ccqui9DH.s 			page 28


 444:/home/hkh/git/eapidk-code-r76-trunk/apps/EeePProg/linux/../EeePProg.c **** 
 945              		.loc 1 444 3 discriminator 2 view .LVU187
 946 0668 004050E2 		subs	r4, r0, #0
 947 066c E3FFFF0A 		beq	.L60
 444:/home/hkh/git/eapidk-code-r76-trunk/apps/EeePProg/linux/../EeePProg.c **** 
 948              		.loc 1 444 3 discriminator 1 view .LVU188
 949 0670 90109FE5 		ldr	r1, .L73+28
 950 0674 6F3FA0E3 		mov	r3, #444
 951 0678 8C009FE5 		ldr	r0, .L73+32
 952              	.LVL66:
 444:/home/hkh/git/eapidk-code-r76-trunk/apps/EeePProg/linux/../EeePProg.c **** 
 953              		.loc 1 444 3 is_stmt 0 discriminator 1 view .LVU189
 954 067c 8C209FE5 		ldr	r2, .L73+36
 955              	.LPIC57:
 956 0680 01108FE0 		add	r1, pc, r1
 957 0684 00408DE5 		str	r4, [sp]
 958 0688 04108DE5 		str	r1, [sp, #4]
 959              	.LPIC56:
 960 068c 00008FE0 		add	r0, pc, r0
 961 0690 7C109FE5 		ldr	r1, .L73+40
 962              	.LPIC54:
 963 0694 02208FE0 		add	r2, pc, r2
 964 0698 08008DE5 		str	r0, [sp, #8]
 965 069c 4500A0E3 		mov	r0, #69
 966              	.LPIC55:
 967 06a0 01108FE0 		add	r1, pc, r1
 968 06a4 FEFFFFEB 		bl	siFormattedMessage_SC(PLT)
 969              	.LVL67:
 444:/home/hkh/git/eapidk-code-r76-trunk/apps/EeePProg/linux/../EeePProg.c **** 
 970              		.loc 1 444 3 is_stmt 1 discriminator 1 view .LVU190
 971 06a8 D4FFFFEA 		b	.L60
 972              	.LVL68:
 973              	.L70:
 433:/home/hkh/git/eapidk-code-r76-trunk/apps/EeePProg/linux/../EeePProg.c ****         &BHandel                              ,
 974              		.loc 1 433 3 discriminator 1 view .LVU191
 975 06ac 64109FE5 		ldr	r1, .L73+44
 976 06b0 B13100E3 		movw	r3, #433
 977 06b4 60009FE5 		ldr	r0, .L73+48
 978              	.LVL69:
 433:/home/hkh/git/eapidk-code-r76-trunk/apps/EeePProg/linux/../EeePProg.c ****         &BHandel                              ,
 979              		.loc 1 433 3 is_stmt 0 discriminator 1 view .LVU192
 980 06b8 60209FE5 		ldr	r2, .L73+52
 981              	.LPIC48:
 982 06bc 01108FE0 		add	r1, pc, r1
 983 06c0 00408DE5 		str	r4, [sp]
 984 06c4 04108DE5 		str	r1, [sp, #4]
 985              	.LPIC47:
 986 06c8 00008FE0 		add	r0, pc, r0
 987 06cc 50109FE5 		ldr	r1, .L73+56
 988              	.LPIC45:
 989 06d0 02208FE0 		add	r2, pc, r2
 990 06d4 08008DE5 		str	r0, [sp, #8]
 991 06d8 4500A0E3 		mov	r0, #69
 992              	.LPIC46:
 993 06dc 01108FE0 		add	r1, pc, r1
 994 06e0 FEFFFFEB 		bl	siFormattedMessage_SC(PLT)
 995              	.LVL70:
ARM GAS  /tmp/ccqui9DH.s 			page 29


 433:/home/hkh/git/eapidk-code-r76-trunk/apps/EeePProg/linux/../EeePProg.c ****         &BHandel                              ,
 996              		.loc 1 433 3 is_stmt 1 discriminator 1 view .LVU193
 997 06e4 C5FFFFEA 		b	.L60
 998              	.L72:
 999              		.loc 1 449 1 is_stmt 0 view .LVU194
 1000 06e8 FEFFFFEB 		bl	__stack_chk_fail(PLT)
 1001              	.LVL71:
 1002              	.L74:
 1003              		.align	2
 1004              	.L73:
 1005 06ec 60010000 		.word	_GLOBAL_OFFSET_TABLE_-(.LPIC59+8)
 1006 06f0 00000000 		.word	__stack_chk_guard(GOT)
 1007 06f4 10010000 		.word	.LC15-(.LPIC52+8)
 1008 06f8 10010000 		.word	.LC3-(.LPIC53+8)
 1009 06fc 00010000 		.word	.LC1-(.LPIC51+8)
 1010 0700 00010000 		.word	.LC14-(.LPIC50+8)
 1011 0704 EC000000 		.word	_GLOBAL_OFFSET_TABLE_-(.LPIC58+8)
 1012 0708 80000000 		.word	.LC3-(.LPIC57+8)
 1013 070c 78000000 		.word	.LC6-(.LPIC56+8)
 1014 0710 74000000 		.word	.LC0-(.LPIC54+8)
 1015 0714 6C000000 		.word	.LC1-(.LPIC55+8)
 1016 0718 54000000 		.word	.LC3-(.LPIC48+8)
 1017 071c 4C000000 		.word	.LC9-(.LPIC47+8)
 1018 0720 48000000 		.word	.LC0-(.LPIC45+8)
 1019 0724 40000000 		.word	.LC1-(.LPIC46+8)
 1020              		.cfi_endproc
 1021              	.LFE10:
 1023              		.section	.rodata.str1.4
 1024 02fd 000000   		.align	2
 1025              	.LC16:
 1026 0300 45656550 		.ascii	"EeePReadBufferFromFile( &BHandel , ((WriteEepCfg_t*"
 1026      52656164 
 1026      42756666 
 1026      65724672 
 1026      6F6D4669 
 1027 0333 29704172 		.ascii	")pArgData)->FileName )\000"
 1027      67446174 
 1027      61292D3E 
 1027      46696C65 
 1027      4E616D65 
 1028 034a 0000     		.align	2
 1029              	.LC17:
 1030 034c 45585031 		.ascii	"EXP1\000"
 1030      00
 1031 0351 000000   		.align	2
 1032              	.LC18:
 1033 0354 434D445F 		.ascii	"CMD_ProgramEeePExt_EEP\000"
 1033      50726F67 
 1033      72616D45 
 1033      65655045 
 1033      78745F45 
 1034 036b 00       		.align	2
 1035              	.LC19:
 1036 036c 4E6F7420 		.ascii	"Not Valid EeeP Extended EEP Image\000"
 1036      56616C69 
 1036      64204565 
 1036      65502045 
ARM GAS  /tmp/ccqui9DH.s 			page 30


 1036      7874656E 
 1037 038e 0000     		.align	2
 1038              	.LC20:
 1039 0390 45656550 		.ascii	"EeePWriteBufferToEEP( BHandel, (uint16_t)((WriteEep"
 1039      57726974 
 1039      65427566 
 1039      66657254 
 1039      6F454550 
 1040 03c3 4366675F 		.ascii	"Cfg_t*)pArgData)->I2CBus, (uint16_t)((WriteEepCfg_t"
 1040      742A2970 
 1040      41726744 
 1040      61746129 
 1040      2D3E4932 
 1041 03f6 2A297041 		.ascii	"*)pArgData)->I2CDevAddr )\000"
 1041      72674461 
 1041      7461292D 
 1041      3E493243 
 1041      44657641 
 1042              		.text
 1043              		.align	2
 1044              		.global	CMD_ProgramEeePExt_EEP
 1045              		.syntax unified
 1046              		.arm
 1047              		.fpu vfpv3
 1049              	CMD_ProgramEeePExt_EEP:
 1050              	.LVL72:
 1051              	.LFB11:
 450:/home/hkh/git/eapidk-code-r76-trunk/apps/EeePProg/linux/../EeePProg.c **** 
 451:/home/hkh/git/eapidk-code-r76-trunk/apps/EeePProg/linux/../EeePProg.c **** 
 452:/home/hkh/git/eapidk-code-r76-trunk/apps/EeePProg/linux/../EeePProg.c **** EApiStatus_t 
 453:/home/hkh/git/eapidk-code-r76-trunk/apps/EeePProg/linux/../EeePProg.c **** CMD_ProgramEeePExt_EEP(
 454:/home/hkh/git/eapidk-code-r76-trunk/apps/EeePProg/linux/../EeePProg.c ****     void *pArgData
 455:/home/hkh/git/eapidk-code-r76-trunk/apps/EeePProg/linux/../EeePProg.c ****     )
 456:/home/hkh/git/eapidk-code-r76-trunk/apps/EeePProg/linux/../EeePProg.c **** {
 1052              		.loc 1 456 1 is_stmt 1 view -0
 1053              		.cfi_startproc
 1054              		@ args = 0, pretend = 0, frame = 8
 1055              		@ frame_needed = 0, uses_anonymous_args = 0
 1056              		.loc 1 456 1 is_stmt 0 view .LVU196
 1057 0728 78C19FE5 		ldr	ip, .L90
 457:/home/hkh/git/eapidk-code-r76-trunk/apps/EeePProg/linux/../EeePProg.c ****   EApiStatus_t StatusCode=EAPI_STATUS_SUCCESS;
 458:/home/hkh/git/eapidk-code-r76-trunk/apps/EeePProg/linux/../EeePProg.c ****   EeePHandel_t BHandel=NULL;
 1058              		.loc 1 458 16 view .LVU197
 1059 072c 0030A0E3 		mov	r3, #0
 456:/home/hkh/git/eapidk-code-r76-trunk/apps/EeePProg/linux/../EeePProg.c ****   EApiStatus_t StatusCode=EAPI_STATUS_SUCCESS;
 1060              		.loc 1 456 1 view .LVU198
 1061 0730 74219FE5 		ldr	r2, .L90+4
 1062 0734 F0402DE9 		push	{r4, r5, r6, r7, lr}
 1063              		.cfi_def_cfa_offset 20
 1064              		.cfi_offset 4, -20
 1065              		.cfi_offset 5, -16
 1066              		.cfi_offset 6, -12
 1067              		.cfi_offset 7, -8
 1068              		.cfi_offset 14, -4
 1069 0738 1CD04DE2 		sub	sp, sp, #28
 1070              		.cfi_def_cfa_offset 48
 456:/home/hkh/git/eapidk-code-r76-trunk/apps/EeePProg/linux/../EeePProg.c ****   EApiStatus_t StatusCode=EAPI_STATUS_SUCCESS;
ARM GAS  /tmp/ccqui9DH.s 			page 31


 1071              		.loc 1 456 1 view .LVU199
 1072              	.LPIC74:
 1073 073c 0CC08FE0 		add	ip, pc, ip
 459:/home/hkh/git/eapidk-code-r76-trunk/apps/EeePProg/linux/../EeePProg.c **** 
 460:/home/hkh/git/eapidk-code-r76-trunk/apps/EeePProg/linux/../EeePProg.c ****   DO(EeePReadBufferFromFile(
 1074              		.loc 1 460 3 view .LVU200
 1075 0740 10608DE2 		add	r6, sp, #16
 456:/home/hkh/git/eapidk-code-r76-trunk/apps/EeePProg/linux/../EeePProg.c ****   EApiStatus_t StatusCode=EAPI_STATUS_SUCCESS;
 1076              		.loc 1 456 1 view .LVU201
 1077 0744 0050A0E1 		mov	r5, r0
 1078 0748 02209CE7 		ldr	r2, [ip, r2]
 1079              		.loc 1 460 3 view .LVU202
 1080 074c 001090E5 		ldr	r1, [r0]
 1081 0750 0600A0E1 		mov	r0, r6
 456:/home/hkh/git/eapidk-code-r76-trunk/apps/EeePProg/linux/../EeePProg.c ****   EApiStatus_t StatusCode=EAPI_STATUS_SUCCESS;
 1082              		.loc 1 456 1 view .LVU203
 1083 0754 002092E5 		ldr	r2, [r2]
 1084 0758 14208DE5 		str	r2, [sp, #20]
 1085 075c 0020A0E3 		mov	r2, #0
 457:/home/hkh/git/eapidk-code-r76-trunk/apps/EeePProg/linux/../EeePProg.c ****   EeePHandel_t BHandel=NULL;
 1086              		.loc 1 457 3 is_stmt 1 view .LVU204
 1087              	.LVL73:
 458:/home/hkh/git/eapidk-code-r76-trunk/apps/EeePProg/linux/../EeePProg.c **** 
 1088              		.loc 1 458 3 view .LVU205
 458:/home/hkh/git/eapidk-code-r76-trunk/apps/EeePProg/linux/../EeePProg.c **** 
 1089              		.loc 1 458 16 is_stmt 0 view .LVU206
 1090 0760 10308DE5 		str	r3, [sp, #16]
 1091              		.loc 1 460 3 is_stmt 1 view .LVU207
 1092              		.loc 1 460 3 view .LVU208
 1093 0764 FEFFFFEB 		bl	EeePReadBufferFromFile(PLT)
 1094              	.LVL74:
 1095              		.loc 1 460 3 view .LVU209
 1096 0768 004050E2 		subs	r4, r0, #0
 1097 076c 3D00001A 		bne	.L87
 1098              		.loc 1 460 3 discriminator 2 view .LVU210
 461:/home/hkh/git/eapidk-code-r76-trunk/apps/EeePProg/linux/../EeePProg.c ****         &BHandel                              ,
 462:/home/hkh/git/eapidk-code-r76-trunk/apps/EeePProg/linux/../EeePProg.c ****         ((WriteEepCfg_t*)pArgData)->FileName
 463:/home/hkh/git/eapidk-code-r76-trunk/apps/EeePProg/linux/../EeePProg.c ****       ));
 464:/home/hkh/git/eapidk-code-r76-trunk/apps/EeePProg/linux/../EeePProg.c ****   if(memcmp(((Exp_EEP_t *)BHandel)->GenId, EEEP_EXP_HEADER_ID, sizeof(EEEP_EXP_HEADER_ID)-1)){
 1099              		.loc 1 464 3 discriminator 2 view .LVU211
 1100              		.loc 1 464 14 is_stmt 0 discriminator 2 view .LVU212
 1101 0770 10009DE5 		ldr	r0, [sp, #16]
 1102              	.LVL75:
 1103              		.loc 1 464 6 discriminator 2 view .LVU213
 1104 0774 0670D0E5 		ldrb	r7, [r0, #6]	@ zero_extendqisi2
 1105 0778 450057E3 		cmp	r7, #69
 1106 077c 1C00000A 		beq	.L88
 1107              	.L78:
 465:/home/hkh/git/eapidk-code-r76-trunk/apps/EeePProg/linux/../EeePProg.c ****     EAPI_APP_RETURN_ERROR(
 1108              		.loc 1 465 5 is_stmt 1 discriminator 2 view .LVU214
 1109              		.loc 1 465 5 discriminator 2 view .LVU215
 1110 0780 28119FE5 		ldr	r1, .L90+8
 1111 0784 0F4CE0E3 		mvn	r4, #3840
 1112              	.LVL76:
 1113              		.loc 1 465 5 is_stmt 0 discriminator 2 view .LVU216
 1114 0788 24219FE5 		ldr	r2, .L90+12
 1115 078c D13100E3 		movw	r3, #465
ARM GAS  /tmp/ccqui9DH.s 			page 32


 1116 0790 4500A0E3 		mov	r0, #69
 1117 0794 00408DE5 		str	r4, [sp]
 1118              	.LPIC67:
 1119 0798 01108FE0 		add	r1, pc, r1
 1120              	.LPIC68:
 1121 079c 02208FE0 		add	r2, pc, r2
 1122 07a0 08108DE5 		str	r1, [sp, #8]
 1123 07a4 04208DE5 		str	r2, [sp, #4]
 1124 07a8 08119FE5 		ldr	r1, .L90+16
 1125 07ac 08219FE5 		ldr	r2, .L90+20
 1126              	.LPIC66:
 1127 07b0 01108FE0 		add	r1, pc, r1
 1128              	.LPIC65:
 1129 07b4 02208FE0 		add	r2, pc, r2
 1130 07b8 FEFFFFEB 		bl	siFormattedMessage_SC(PLT)
 1131              	.LVL77:
 1132              		.loc 1 465 5 is_stmt 1 discriminator 2 view .LVU217
 1133              		.loc 1 465 5 discriminator 2 view .LVU218
 1134              		.loc 1 465 5 discriminator 2 view .LVU219
 1135              	.L77:
 466:/home/hkh/git/eapidk-code-r76-trunk/apps/EeePProg/linux/../EeePProg.c ****         CMD_ProgramEeePExt_EEP,
 467:/home/hkh/git/eapidk-code-r76-trunk/apps/EeePProg/linux/../EeePProg.c ****         EAPI_STATUS_ERROR,
 468:/home/hkh/git/eapidk-code-r76-trunk/apps/EeePProg/linux/../EeePProg.c ****         "Not Valid EeeP Extended EEP Image"
 469:/home/hkh/git/eapidk-code-r76-trunk/apps/EeePProg/linux/../EeePProg.c ****       );
 470:/home/hkh/git/eapidk-code-r76-trunk/apps/EeePProg/linux/../EeePProg.c ****   }
 471:/home/hkh/git/eapidk-code-r76-trunk/apps/EeePProg/linux/../EeePProg.c ****   DO(EeePWriteBufferToEEP(
 1136              		.loc 1 471 3 discriminator 3 view .LVU220
 472:/home/hkh/git/eapidk-code-r76-trunk/apps/EeePProg/linux/../EeePProg.c ****           BHandel, 
 473:/home/hkh/git/eapidk-code-r76-trunk/apps/EeePProg/linux/../EeePProg.c ****           (uint16_t)((WriteEepCfg_t*)pArgData)->I2CBus, 
 474:/home/hkh/git/eapidk-code-r76-trunk/apps/EeePProg/linux/../EeePProg.c ****           (uint16_t)((WriteEepCfg_t*)pArgData)->I2CDevAddr
 475:/home/hkh/git/eapidk-code-r76-trunk/apps/EeePProg/linux/../EeePProg.c ****       ));
 476:/home/hkh/git/eapidk-code-r76-trunk/apps/EeePProg/linux/../EeePProg.c **** 
 477:/home/hkh/git/eapidk-code-r76-trunk/apps/EeePProg/linux/../EeePProg.c **** EAPI_APP_ASSERT_EXIT
 478:/home/hkh/git/eapidk-code-r76-trunk/apps/EeePProg/linux/../EeePProg.c ****   EeePFreeBuffer(&BHandel);
 1137              		.loc 1 478 3 discriminator 3 view .LVU221
 1138 07bc 0600A0E1 		mov	r0, r6
 1139 07c0 FEFFFFEB 		bl	EeePFreeBuffer(PLT)
 1140              	.LVL78:
 479:/home/hkh/git/eapidk-code-r76-trunk/apps/EeePProg/linux/../EeePProg.c ****   return StatusCode;
 1141              		.loc 1 479 3 discriminator 3 view .LVU222
 456:/home/hkh/git/eapidk-code-r76-trunk/apps/EeePProg/linux/../EeePProg.c ****   EApiStatus_t StatusCode=EAPI_STATUS_SUCCESS;
 1142              		.loc 1 456 1 is_stmt 0 discriminator 3 view .LVU223
 1143 07c4 F4209FE5 		ldr	r2, .L90+24
 480:/home/hkh/git/eapidk-code-r76-trunk/apps/EeePProg/linux/../EeePProg.c **** }
 1144              		.loc 1 480 1 discriminator 3 view .LVU224
 1145 07c8 DC309FE5 		ldr	r3, .L90+4
 456:/home/hkh/git/eapidk-code-r76-trunk/apps/EeePProg/linux/../EeePProg.c ****   EApiStatus_t StatusCode=EAPI_STATUS_SUCCESS;
 1146              		.loc 1 456 1 discriminator 3 view .LVU225
 1147              	.LPIC73:
 1148 07cc 02208FE0 		add	r2, pc, r2
 1149              		.loc 1 480 1 discriminator 3 view .LVU226
 1150 07d0 033092E7 		ldr	r3, [r2, r3]
 1151 07d4 002093E5 		ldr	r2, [r3]
 1152 07d8 14309DE5 		ldr	r3, [sp, #20]
 1153 07dc 022033E0 		eors	r2, r3, r2
 1154 07e0 0030A0E3 		mov	r3, #0
 1155 07e4 2E00001A 		bne	.L89
ARM GAS  /tmp/ccqui9DH.s 			page 33


 1156              		.loc 1 480 1 view .LVU227
 1157 07e8 0400A0E1 		mov	r0, r4
 1158 07ec 1CD08DE2 		add	sp, sp, #28
 1159              		.cfi_remember_state
 1160              		.cfi_def_cfa_offset 20
 1161              		@ sp needed
 1162 07f0 F080BDE8 		pop	{r4, r5, r6, r7, pc}
 1163              	.LVL79:
 1164              	.L88:
 1165              		.cfi_restore_state
 464:/home/hkh/git/eapidk-code-r76-trunk/apps/EeePProg/linux/../EeePProg.c ****     EAPI_APP_RETURN_ERROR(
 1166              		.loc 1 464 6 discriminator 2 view .LVU228
 1167 07f4 0730D0E5 		ldrb	r3, [r0, #7]	@ zero_extendqisi2
 1168 07f8 580053E3 		cmp	r3, #88
 1169 07fc DFFFFF1A 		bne	.L78
 1170 0800 0830D0E5 		ldrb	r3, [r0, #8]	@ zero_extendqisi2
 1171 0804 500053E3 		cmp	r3, #80
 1172 0808 DCFFFF1A 		bne	.L78
 1173 080c 0930D0E5 		ldrb	r3, [r0, #9]	@ zero_extendqisi2
 1174 0810 310053E3 		cmp	r3, #49
 1175 0814 D9FFFF1A 		bne	.L78
 465:/home/hkh/git/eapidk-code-r76-trunk/apps/EeePProg/linux/../EeePProg.c ****         CMD_ProgramEeePExt_EEP,
 1176              		.loc 1 465 5 is_stmt 1 discriminator 2 view .LVU229
 471:/home/hkh/git/eapidk-code-r76-trunk/apps/EeePProg/linux/../EeePProg.c ****           BHandel, 
 1177              		.loc 1 471 3 discriminator 2 view .LVU230
 471:/home/hkh/git/eapidk-code-r76-trunk/apps/EeePProg/linux/../EeePProg.c ****           BHandel, 
 1178              		.loc 1 471 3 discriminator 2 view .LVU231
 1179 0818 B820D5E1 		ldrh	r2, [r5, #8]
 1180 081c B410D5E1 		ldrh	r1, [r5, #4]
 1181 0820 FEFFFFEB 		bl	EeePWriteBufferToEEP(PLT)
 1182              	.LVL80:
 471:/home/hkh/git/eapidk-code-r76-trunk/apps/EeePProg/linux/../EeePProg.c ****           BHandel, 
 1183              		.loc 1 471 3 discriminator 2 view .LVU232
 1184 0824 004050E2 		subs	r4, r0, #0
 1185 0828 E3FFFF0A 		beq	.L77
 471:/home/hkh/git/eapidk-code-r76-trunk/apps/EeePProg/linux/../EeePProg.c ****           BHandel, 
 1186              		.loc 1 471 3 discriminator 1 view .LVU233
 1187 082c 90209FE5 		ldr	r2, .L90+28
 1188 0830 0700A0E1 		mov	r0, r7
 1189              	.LVL81:
 471:/home/hkh/git/eapidk-code-r76-trunk/apps/EeePProg/linux/../EeePProg.c ****           BHandel, 
 1190              		.loc 1 471 3 is_stmt 0 discriminator 1 view .LVU234
 1191 0834 8C309FE5 		ldr	r3, .L90+32
 1192 0838 8C109FE5 		ldr	r1, .L90+36
 1193              	.LPIC71:
 1194 083c 02208FE0 		add	r2, pc, r2
 1195 0840 00408DE5 		str	r4, [sp]
 1196 0844 08208DE5 		str	r2, [sp, #8]
 1197              	.LPIC72:
 1198 0848 03308FE0 		add	r3, pc, r3
 1199 084c 7C209FE5 		ldr	r2, .L90+40
 1200              	.LPIC70:
 1201 0850 01108FE0 		add	r1, pc, r1
 1202 0854 04308DE5 		str	r3, [sp, #4]
 1203 0858 D73100E3 		movw	r3, #471
 1204              	.LPIC69:
 1205 085c 02208FE0 		add	r2, pc, r2
ARM GAS  /tmp/ccqui9DH.s 			page 34


 1206 0860 FEFFFFEB 		bl	siFormattedMessage_SC(PLT)
 1207              	.LVL82:
 471:/home/hkh/git/eapidk-code-r76-trunk/apps/EeePProg/linux/../EeePProg.c ****           BHandel, 
 1208              		.loc 1 471 3 is_stmt 1 discriminator 1 view .LVU235
 1209 0864 D4FFFFEA 		b	.L77
 1210              	.LVL83:
 1211              	.L87:
 460:/home/hkh/git/eapidk-code-r76-trunk/apps/EeePProg/linux/../EeePProg.c ****         &BHandel                              ,
 1212              		.loc 1 460 3 discriminator 1 view .LVU236
 1213 0868 64109FE5 		ldr	r1, .L90+44
 1214 086c 733FA0E3 		mov	r3, #460
 1215 0870 60009FE5 		ldr	r0, .L90+48
 1216              	.LVL84:
 460:/home/hkh/git/eapidk-code-r76-trunk/apps/EeePProg/linux/../EeePProg.c ****         &BHandel                              ,
 1217              		.loc 1 460 3 is_stmt 0 discriminator 1 view .LVU237
 1218 0874 60209FE5 		ldr	r2, .L90+52
 1219              	.LPIC63:
 1220 0878 01108FE0 		add	r1, pc, r1
 1221 087c 00408DE5 		str	r4, [sp]
 1222 0880 04108DE5 		str	r1, [sp, #4]
 1223              	.LPIC62:
 1224 0884 00008FE0 		add	r0, pc, r0
 1225 0888 50109FE5 		ldr	r1, .L90+56
 1226              	.LPIC60:
 1227 088c 02208FE0 		add	r2, pc, r2
 1228 0890 08008DE5 		str	r0, [sp, #8]
 1229 0894 4500A0E3 		mov	r0, #69
 1230              	.LPIC61:
 1231 0898 01108FE0 		add	r1, pc, r1
 1232 089c FEFFFFEB 		bl	siFormattedMessage_SC(PLT)
 1233              	.LVL85:
 460:/home/hkh/git/eapidk-code-r76-trunk/apps/EeePProg/linux/../EeePProg.c ****         &BHandel                              ,
 1234              		.loc 1 460 3 is_stmt 1 discriminator 1 view .LVU238
 1235 08a0 C5FFFFEA 		b	.L77
 1236              	.L89:
 1237              		.loc 1 480 1 is_stmt 0 view .LVU239
 1238 08a4 FEFFFFEB 		bl	__stack_chk_fail(PLT)
 1239              	.LVL86:
 1240              	.L91:
 1241              		.align	2
 1242              	.L90:
 1243 08a8 64010000 		.word	_GLOBAL_OFFSET_TABLE_-(.LPIC74+8)
 1244 08ac 00000000 		.word	__stack_chk_guard(GOT)
 1245 08b0 10010000 		.word	.LC19-(.LPIC67+8)
 1246 08b4 10010000 		.word	.LC3-(.LPIC68+8)
 1247 08b8 00010000 		.word	.LC1-(.LPIC66+8)
 1248 08bc 00010000 		.word	.LC18-(.LPIC65+8)
 1249 08c0 EC000000 		.word	_GLOBAL_OFFSET_TABLE_-(.LPIC73+8)
 1250 08c4 80000000 		.word	.LC20-(.LPIC71+8)
 1251 08c8 78000000 		.word	.LC3-(.LPIC72+8)
 1252 08cc 74000000 		.word	.LC1-(.LPIC70+8)
 1253 08d0 6C000000 		.word	.LC0-(.LPIC69+8)
 1254 08d4 54000000 		.word	.LC3-(.LPIC63+8)
 1255 08d8 4C000000 		.word	.LC16-(.LPIC62+8)
 1256 08dc 48000000 		.word	.LC0-(.LPIC60+8)
 1257 08e0 40000000 		.word	.LC1-(.LPIC61+8)
 1258              		.cfi_endproc
ARM GAS  /tmp/ccqui9DH.s 			page 35


 1259              	.LFE11:
 1261              		.section	.rodata.str1.4
 1262              		.align	2
 1263              	.LC21:
 1264 0410 45656550 		.ascii	"EeePReadBufferFromEEP( &BHandel, (uint16_t)((WriteE"
 1264      52656164 
 1264      42756666 
 1264      65724672 
 1264      6F6D4545 
 1265 0443 65704366 		.ascii	"epCfg_t*)pArgData)->I2CBus, (uint16_t)((WriteEepCfg"
 1265      675F742A 
 1265      29704172 
 1265      67446174 
 1265      61292D3E 
 1266 0476 5F742A29 		.ascii	"_t*)pArgData)->I2CDevAddr )\000"
 1266      70417267 
 1266      44617461 
 1266      292D3E49 
 1266      32434465 
 1267 0492 0000     		.align	2
 1268              	.LC22:
 1269 0494 45656550 		.ascii	"EeePWriteBufferToFile(BHandel, ((WriteEepCfg_t*)pAr"
 1269      57726974 
 1269      65427566 
 1269      66657254 
 1269      6F46696C 
 1270 04c7 67446174 		.ascii	"gData)->FileName)\000"
 1270      61292D3E 
 1270      46696C65 
 1270      4E616D65 
 1270      2900
 1271              		.text
 1272              		.align	2
 1273              		.global	CMD_StoreEeePExt_EEP
 1274              		.syntax unified
 1275              		.arm
 1276              		.fpu vfpv3
 1278              	CMD_StoreEeePExt_EEP:
 1279              	.LVL87:
 1280              	.LFB12:
 481:/home/hkh/git/eapidk-code-r76-trunk/apps/EeePProg/linux/../EeePProg.c **** 
 482:/home/hkh/git/eapidk-code-r76-trunk/apps/EeePProg/linux/../EeePProg.c **** EApiStatus_t 
 483:/home/hkh/git/eapidk-code-r76-trunk/apps/EeePProg/linux/../EeePProg.c **** CMD_StoreEeePExt_EEP(
 484:/home/hkh/git/eapidk-code-r76-trunk/apps/EeePProg/linux/../EeePProg.c ****     void *pArgData
 485:/home/hkh/git/eapidk-code-r76-trunk/apps/EeePProg/linux/../EeePProg.c ****     )
 486:/home/hkh/git/eapidk-code-r76-trunk/apps/EeePProg/linux/../EeePProg.c **** {
 1281              		.loc 1 486 1 is_stmt 1 view -0
 1282              		.cfi_startproc
 1283              		@ args = 0, pretend = 0, frame = 8
 1284              		@ frame_needed = 0, uses_anonymous_args = 0
 1285              		.loc 1 486 1 is_stmt 0 view .LVU241
 1286 08e4 0CC19FE5 		ldr	ip, .L103
 487:/home/hkh/git/eapidk-code-r76-trunk/apps/EeePProg/linux/../EeePProg.c ****   EApiStatus_t StatusCode=EAPI_STATUS_SUCCESS;
 488:/home/hkh/git/eapidk-code-r76-trunk/apps/EeePProg/linux/../EeePProg.c ****   EeePHandel_t BHandel=NULL;
 1287              		.loc 1 488 16 view .LVU242
 1288 08e8 0030A0E3 		mov	r3, #0
 486:/home/hkh/git/eapidk-code-r76-trunk/apps/EeePProg/linux/../EeePProg.c ****   EApiStatus_t StatusCode=EAPI_STATUS_SUCCESS;
ARM GAS  /tmp/ccqui9DH.s 			page 36


 1289              		.loc 1 486 1 view .LVU243
 1290 08ec 70402DE9 		push	{r4, r5, r6, lr}
 1291              		.cfi_def_cfa_offset 16
 1292              		.cfi_offset 4, -16
 1293              		.cfi_offset 5, -12
 1294              		.cfi_offset 6, -8
 1295              		.cfi_offset 14, -4
 1296 08f0 0050A0E1 		mov	r5, r0
 489:/home/hkh/git/eapidk-code-r76-trunk/apps/EeePProg/linux/../EeePProg.c ****   DO(EeePReadBufferFromEEP(
 1297              		.loc 1 489 3 view .LVU244
 1298 08f4 B820D0E1 		ldrh	r2, [r0, #8]
 486:/home/hkh/git/eapidk-code-r76-trunk/apps/EeePProg/linux/../EeePProg.c ****   EApiStatus_t StatusCode=EAPI_STATUS_SUCCESS;
 1299              		.loc 1 486 1 view .LVU245
 1300 08f8 18D04DE2 		sub	sp, sp, #24
 1301              		.cfi_def_cfa_offset 40
 486:/home/hkh/git/eapidk-code-r76-trunk/apps/EeePProg/linux/../EeePProg.c ****   EApiStatus_t StatusCode=EAPI_STATUS_SUCCESS;
 1302              		.loc 1 486 1 view .LVU246
 1303              	.LPIC84:
 1304 08fc 0CC08FE0 		add	ip, pc, ip
 1305              		.loc 1 489 3 view .LVU247
 1306 0900 10608DE2 		add	r6, sp, #16
 1307 0904 B410D0E1 		ldrh	r1, [r0, #4]
 486:/home/hkh/git/eapidk-code-r76-trunk/apps/EeePProg/linux/../EeePProg.c ****   EApiStatus_t StatusCode=EAPI_STATUS_SUCCESS;
 1308              		.loc 1 486 1 view .LVU248
 1309 0908 EC009FE5 		ldr	r0, .L103+4
 1310              	.LVL88:
 486:/home/hkh/git/eapidk-code-r76-trunk/apps/EeePProg/linux/../EeePProg.c ****   EApiStatus_t StatusCode=EAPI_STATUS_SUCCESS;
 1311              		.loc 1 486 1 view .LVU249
 1312 090c 00009CE7 		ldr	r0, [ip, r0]
 1313 0910 000090E5 		ldr	r0, [r0]
 1314 0914 14008DE5 		str	r0, [sp, #20]
 1315 0918 0000A0E3 		mov	r0, #0
 487:/home/hkh/git/eapidk-code-r76-trunk/apps/EeePProg/linux/../EeePProg.c ****   EApiStatus_t StatusCode=EAPI_STATUS_SUCCESS;
 1316              		.loc 1 487 3 is_stmt 1 view .LVU250
 1317              	.LVL89:
 488:/home/hkh/git/eapidk-code-r76-trunk/apps/EeePProg/linux/../EeePProg.c ****   DO(EeePReadBufferFromEEP(
 1318              		.loc 1 488 3 view .LVU251
 1319              		.loc 1 489 3 is_stmt 0 view .LVU252
 1320 091c 0600A0E1 		mov	r0, r6
 488:/home/hkh/git/eapidk-code-r76-trunk/apps/EeePProg/linux/../EeePProg.c ****   DO(EeePReadBufferFromEEP(
 1321              		.loc 1 488 16 view .LVU253
 1322 0920 10308DE5 		str	r3, [sp, #16]
 1323              		.loc 1 489 3 is_stmt 1 view .LVU254
 1324              		.loc 1 489 3 view .LVU255
 1325 0924 FEFFFFEB 		bl	EeePReadBufferFromEEP(PLT)
 1326              	.LVL90:
 1327              		.loc 1 489 3 view .LVU256
 1328 0928 004050E2 		subs	r4, r0, #0
 1329 092c 1200001A 		bne	.L100
 1330              		.loc 1 489 3 discriminator 2 view .LVU257
 490:/home/hkh/git/eapidk-code-r76-trunk/apps/EeePProg/linux/../EeePProg.c ****           &BHandel, 
 491:/home/hkh/git/eapidk-code-r76-trunk/apps/EeePProg/linux/../EeePProg.c ****           (uint16_t)((WriteEepCfg_t*)pArgData)->I2CBus, 
 492:/home/hkh/git/eapidk-code-r76-trunk/apps/EeePProg/linux/../EeePProg.c ****           (uint16_t)((WriteEepCfg_t*)pArgData)->I2CDevAddr
 493:/home/hkh/git/eapidk-code-r76-trunk/apps/EeePProg/linux/../EeePProg.c ****       ));
 494:/home/hkh/git/eapidk-code-r76-trunk/apps/EeePProg/linux/../EeePProg.c ****   DO(EeePWriteBufferToFile(BHandel, ((WriteEepCfg_t*)pArgData)->FileName));
 1331              		.loc 1 494 3 discriminator 2 view .LVU258
 1332              		.loc 1 494 3 discriminator 2 view .LVU259
ARM GAS  /tmp/ccqui9DH.s 			page 37


 1333 0930 001095E5 		ldr	r1, [r5]
 1334 0934 10009DE5 		ldr	r0, [sp, #16]
 1335              	.LVL91:
 1336              		.loc 1 494 3 is_stmt 0 discriminator 2 view .LVU260
 1337 0938 FEFFFFEB 		bl	EeePWriteBufferToFile(PLT)
 1338              	.LVL92:
 1339              		.loc 1 494 3 is_stmt 1 discriminator 2 view .LVU261
 1340 093c 004050E2 		subs	r4, r0, #0
 1341 0940 1C00001A 		bne	.L101
 1342              	.LVL93:
 1343              	.L94:
 1344              		.loc 1 494 3 discriminator 3 view .LVU262
 495:/home/hkh/git/eapidk-code-r76-trunk/apps/EeePProg/linux/../EeePProg.c **** 
 496:/home/hkh/git/eapidk-code-r76-trunk/apps/EeePProg/linux/../EeePProg.c **** EAPI_APP_ASSERT_EXIT
 497:/home/hkh/git/eapidk-code-r76-trunk/apps/EeePProg/linux/../EeePProg.c ****   EeePFreeBuffer(&BHandel);
 1345              		.loc 1 497 3 discriminator 3 view .LVU263
 1346 0944 0600A0E1 		mov	r0, r6
 1347 0948 FEFFFFEB 		bl	EeePFreeBuffer(PLT)
 1348              	.LVL94:
 498:/home/hkh/git/eapidk-code-r76-trunk/apps/EeePProg/linux/../EeePProg.c ****   return StatusCode;
 1349              		.loc 1 498 3 discriminator 3 view .LVU264
 486:/home/hkh/git/eapidk-code-r76-trunk/apps/EeePProg/linux/../EeePProg.c ****   EApiStatus_t StatusCode=EAPI_STATUS_SUCCESS;
 1350              		.loc 1 486 1 is_stmt 0 discriminator 3 view .LVU265
 1351 094c AC209FE5 		ldr	r2, .L103+8
 499:/home/hkh/git/eapidk-code-r76-trunk/apps/EeePProg/linux/../EeePProg.c **** }
 1352              		.loc 1 499 1 discriminator 3 view .LVU266
 1353 0950 A4309FE5 		ldr	r3, .L103+4
 486:/home/hkh/git/eapidk-code-r76-trunk/apps/EeePProg/linux/../EeePProg.c ****   EApiStatus_t StatusCode=EAPI_STATUS_SUCCESS;
 1354              		.loc 1 486 1 discriminator 3 view .LVU267
 1355              	.LPIC83:
 1356 0954 02208FE0 		add	r2, pc, r2
 1357              		.loc 1 499 1 discriminator 3 view .LVU268
 1358 0958 033092E7 		ldr	r3, [r2, r3]
 1359 095c 002093E5 		ldr	r2, [r3]
 1360 0960 14309DE5 		ldr	r3, [sp, #20]
 1361 0964 022033E0 		eors	r2, r3, r2
 1362 0968 0030A0E3 		mov	r3, #0
 1363 096c 2000001A 		bne	.L102
 1364              		.loc 1 499 1 view .LVU269
 1365 0970 0400A0E1 		mov	r0, r4
 1366 0974 18D08DE2 		add	sp, sp, #24
 1367              		.cfi_remember_state
 1368              		.cfi_def_cfa_offset 16
 1369              		@ sp needed
 1370 0978 7080BDE8 		pop	{r4, r5, r6, pc}
 1371              	.LVL95:
 1372              	.L100:
 1373              		.cfi_restore_state
 489:/home/hkh/git/eapidk-code-r76-trunk/apps/EeePProg/linux/../EeePProg.c ****           &BHandel, 
 1374              		.loc 1 489 3 is_stmt 1 discriminator 1 view .LVU270
 1375 097c 80109FE5 		ldr	r1, .L103+12
 1376 0980 E93100E3 		movw	r3, #489
 1377 0984 7C009FE5 		ldr	r0, .L103+16
 1378              	.LVL96:
 489:/home/hkh/git/eapidk-code-r76-trunk/apps/EeePProg/linux/../EeePProg.c ****           &BHandel, 
 1379              		.loc 1 489 3 is_stmt 0 discriminator 1 view .LVU271
 1380 0988 7C209FE5 		ldr	r2, .L103+20
ARM GAS  /tmp/ccqui9DH.s 			page 38


 1381              	.LPIC78:
 1382 098c 01108FE0 		add	r1, pc, r1
 1383 0990 00408DE5 		str	r4, [sp]
 1384 0994 04108DE5 		str	r1, [sp, #4]
 1385              	.LPIC77:
 1386 0998 00008FE0 		add	r0, pc, r0
 1387 099c 6C109FE5 		ldr	r1, .L103+24
 1388              	.LPIC75:
 1389 09a0 02208FE0 		add	r2, pc, r2
 1390 09a4 08008DE5 		str	r0, [sp, #8]
 1391 09a8 4500A0E3 		mov	r0, #69
 1392              	.LPIC76:
 1393 09ac 01108FE0 		add	r1, pc, r1
 1394 09b0 FEFFFFEB 		bl	siFormattedMessage_SC(PLT)
 1395              	.LVL97:
 489:/home/hkh/git/eapidk-code-r76-trunk/apps/EeePProg/linux/../EeePProg.c ****           &BHandel, 
 1396              		.loc 1 489 3 is_stmt 1 discriminator 1 view .LVU272
 1397 09b4 E2FFFFEA 		b	.L94
 1398              	.LVL98:
 1399              	.L101:
 494:/home/hkh/git/eapidk-code-r76-trunk/apps/EeePProg/linux/../EeePProg.c **** 
 1400              		.loc 1 494 3 discriminator 1 view .LVU273
 1401 09b8 54109FE5 		ldr	r1, .L103+28
 1402 09bc EE3100E3 		movw	r3, #494
 1403 09c0 50009FE5 		ldr	r0, .L103+32
 1404              	.LVL99:
 494:/home/hkh/git/eapidk-code-r76-trunk/apps/EeePProg/linux/../EeePProg.c **** 
 1405              		.loc 1 494 3 is_stmt 0 discriminator 1 view .LVU274
 1406 09c4 50209FE5 		ldr	r2, .L103+36
 1407              	.LPIC82:
 1408 09c8 01108FE0 		add	r1, pc, r1
 1409 09cc 00408DE5 		str	r4, [sp]
 1410 09d0 04108DE5 		str	r1, [sp, #4]
 1411              	.LPIC81:
 1412 09d4 00008FE0 		add	r0, pc, r0
 1413 09d8 40109FE5 		ldr	r1, .L103+40
 1414              	.LPIC79:
 1415 09dc 02208FE0 		add	r2, pc, r2
 1416 09e0 08008DE5 		str	r0, [sp, #8]
 1417 09e4 4500A0E3 		mov	r0, #69
 1418              	.LPIC80:
 1419 09e8 01108FE0 		add	r1, pc, r1
 1420 09ec FEFFFFEB 		bl	siFormattedMessage_SC(PLT)
 1421              	.LVL100:
 494:/home/hkh/git/eapidk-code-r76-trunk/apps/EeePProg/linux/../EeePProg.c **** 
 1422              		.loc 1 494 3 is_stmt 1 discriminator 1 view .LVU275
 1423 09f0 D3FFFFEA 		b	.L94
 1424              	.L102:
 1425              		.loc 1 499 1 is_stmt 0 view .LVU276
 1426 09f4 FEFFFFEB 		bl	__stack_chk_fail(PLT)
 1427              	.LVL101:
 1428              	.L104:
 1429              		.align	2
 1430              	.L103:
 1431 09f8 F4000000 		.word	_GLOBAL_OFFSET_TABLE_-(.LPIC84+8)
 1432 09fc 00000000 		.word	__stack_chk_guard(GOT)
 1433 0a00 A4000000 		.word	_GLOBAL_OFFSET_TABLE_-(.LPIC83+8)
ARM GAS  /tmp/ccqui9DH.s 			page 39


 1434 0a04 70000000 		.word	.LC3-(.LPIC78+8)
 1435 0a08 68000000 		.word	.LC21-(.LPIC77+8)
 1436 0a0c 64000000 		.word	.LC0-(.LPIC75+8)
 1437 0a10 5C000000 		.word	.LC1-(.LPIC76+8)
 1438 0a14 44000000 		.word	.LC3-(.LPIC82+8)
 1439 0a18 3C000000 		.word	.LC22-(.LPIC81+8)
 1440 0a1c 38000000 		.word	.LC0-(.LPIC79+8)
 1441 0a20 30000000 		.word	.LC1-(.LPIC80+8)
 1442              		.cfi_endproc
 1443              	.LFE12:
 1445              		.section	.rodata.str1.4
 1446 04d9 000000   		.align	2
 1447              	.LC23:
 1448 04dc 45656550 		.ascii	"EeeP_CreateEeePExtEEPImage( &BHandel , ((InOutFiles"
 1448      5F437265 
 1448      61746545 
 1448      65655045 
 1448      78744545 
 1449 050f 5F742A29 		.ascii	"_t*)pArgData)->InFile )\000"
 1449      70417267 
 1449      44617461 
 1449      292D3E49 
 1449      6E46696C 
 1450 0527 00       		.align	2
 1451              	.LC24:
 1452 0528 45656550 		.ascii	"EeePWriteBufferToFile(BHandel, ((InOutFiles_t*)pArg"
 1452      57726974 
 1452      65427566 
 1452      66657254 
 1452      6F46696C 
 1453 055b 44617461 		.ascii	"Data)->OutFile)\000"
 1453      292D3E4F 
 1453      75744669 
 1453      6C652900 
 1454              		.text
 1455              		.align	2
 1456              		.global	CMD_CreateExtEepEEP_IMG
 1457              		.syntax unified
 1458              		.arm
 1459              		.fpu vfpv3
 1461              	CMD_CreateExtEepEEP_IMG:
 1462              	.LVL102:
 1463              	.LFB18:
 500:/home/hkh/git/eapidk-code-r76-trunk/apps/EeePProg/linux/../EeePProg.c **** 
 501:/home/hkh/git/eapidk-code-r76-trunk/apps/EeePProg/linux/../EeePProg.c **** EApiStatus_t 
 502:/home/hkh/git/eapidk-code-r76-trunk/apps/EeePProg/linux/../EeePProg.c **** CMD_StoreCOM0R20_CB_EEP(
 503:/home/hkh/git/eapidk-code-r76-trunk/apps/EeePProg/linux/../EeePProg.c ****     void *pArgData
 504:/home/hkh/git/eapidk-code-r76-trunk/apps/EeePProg/linux/../EeePProg.c ****     )
 505:/home/hkh/git/eapidk-code-r76-trunk/apps/EeePProg/linux/../EeePProg.c **** {
 506:/home/hkh/git/eapidk-code-r76-trunk/apps/EeePProg/linux/../EeePProg.c ****   WriteEepCfg_t WriteEep={NULL, EAPI_ID_I2C_EXTERNAL, COM0R20_CB_EEP_DEV_ADDR};
 507:/home/hkh/git/eapidk-code-r76-trunk/apps/EeePProg/linux/../EeePProg.c ****   WriteEep.FileName=*(char**)pArgData;
 508:/home/hkh/git/eapidk-code-r76-trunk/apps/EeePProg/linux/../EeePProg.c ****   return CMD_StoreEeePExt_EEP(&WriteEep);
 509:/home/hkh/git/eapidk-code-r76-trunk/apps/EeePProg/linux/../EeePProg.c **** }
 510:/home/hkh/git/eapidk-code-r76-trunk/apps/EeePProg/linux/../EeePProg.c **** 
 511:/home/hkh/git/eapidk-code-r76-trunk/apps/EeePProg/linux/../EeePProg.c **** EApiStatus_t 
 512:/home/hkh/git/eapidk-code-r76-trunk/apps/EeePProg/linux/../EeePProg.c **** CMD_StoreCOM0R20_M_EEP(
 513:/home/hkh/git/eapidk-code-r76-trunk/apps/EeePProg/linux/../EeePProg.c ****     void *pArgData
ARM GAS  /tmp/ccqui9DH.s 			page 40


 514:/home/hkh/git/eapidk-code-r76-trunk/apps/EeePProg/linux/../EeePProg.c ****     )
 515:/home/hkh/git/eapidk-code-r76-trunk/apps/EeePProg/linux/../EeePProg.c **** {
 516:/home/hkh/git/eapidk-code-r76-trunk/apps/EeePProg/linux/../EeePProg.c ****   WriteEepCfg_t WriteEep={NULL, EAPI_ID_I2C_EXTERNAL, COM0R20_M_EEP_DEV_ADDR};
 517:/home/hkh/git/eapidk-code-r76-trunk/apps/EeePProg/linux/../EeePProg.c ****   WriteEep.FileName=*(char**)pArgData;
 518:/home/hkh/git/eapidk-code-r76-trunk/apps/EeePProg/linux/../EeePProg.c ****   return CMD_StoreEeePExt_EEP(&WriteEep);
 519:/home/hkh/git/eapidk-code-r76-trunk/apps/EeePProg/linux/../EeePProg.c **** }
 520:/home/hkh/git/eapidk-code-r76-trunk/apps/EeePProg/linux/../EeePProg.c **** 
 521:/home/hkh/git/eapidk-code-r76-trunk/apps/EeePProg/linux/../EeePProg.c **** EApiStatus_t 
 522:/home/hkh/git/eapidk-code-r76-trunk/apps/EeePProg/linux/../EeePProg.c **** CMD_ListDBlocksEeePExt_EEP(
 523:/home/hkh/git/eapidk-code-r76-trunk/apps/EeePProg/linux/../EeePProg.c ****     void *pArgData
 524:/home/hkh/git/eapidk-code-r76-trunk/apps/EeePProg/linux/../EeePProg.c ****     )
 525:/home/hkh/git/eapidk-code-r76-trunk/apps/EeePProg/linux/../EeePProg.c **** {
 526:/home/hkh/git/eapidk-code-r76-trunk/apps/EeePProg/linux/../EeePProg.c ****   EApiStatus_t StatusCode=EAPI_STATUS_SUCCESS;
 527:/home/hkh/git/eapidk-code-r76-trunk/apps/EeePProg/linux/../EeePProg.c ****   EeePHandel_t BHandel=NULL;
 528:/home/hkh/git/eapidk-code-r76-trunk/apps/EeePProg/linux/../EeePProg.c ****   DO(EeePReadBufferFromEEP(
 529:/home/hkh/git/eapidk-code-r76-trunk/apps/EeePProg/linux/../EeePProg.c ****           &BHandel, 
 530:/home/hkh/git/eapidk-code-r76-trunk/apps/EeePProg/linux/../EeePProg.c ****           (uint16_t)((I2CAddrCfg_t*)pArgData)->I2CBus, 
 531:/home/hkh/git/eapidk-code-r76-trunk/apps/EeePProg/linux/../EeePProg.c ****           (uint16_t)((I2CAddrCfg_t*)pArgData)->I2CDevAddr
 532:/home/hkh/git/eapidk-code-r76-trunk/apps/EeePProg/linux/../EeePProg.c ****       ));
 533:/home/hkh/git/eapidk-code-r76-trunk/apps/EeePProg/linux/../EeePProg.c ****   DO(EeePListBlocks( BHandel, 0));
 534:/home/hkh/git/eapidk-code-r76-trunk/apps/EeePProg/linux/../EeePProg.c **** 
 535:/home/hkh/git/eapidk-code-r76-trunk/apps/EeePProg/linux/../EeePProg.c **** EAPI_APP_ASSERT_EXIT
 536:/home/hkh/git/eapidk-code-r76-trunk/apps/EeePProg/linux/../EeePProg.c ****   EeePFreeBuffer(&BHandel);
 537:/home/hkh/git/eapidk-code-r76-trunk/apps/EeePProg/linux/../EeePProg.c ****   return StatusCode;
 538:/home/hkh/git/eapidk-code-r76-trunk/apps/EeePProg/linux/../EeePProg.c **** }
 539:/home/hkh/git/eapidk-code-r76-trunk/apps/EeePProg/linux/../EeePProg.c **** 
 540:/home/hkh/git/eapidk-code-r76-trunk/apps/EeePProg/linux/../EeePProg.c **** 
 541:/home/hkh/git/eapidk-code-r76-trunk/apps/EeePProg/linux/../EeePProg.c **** EApiStatus_t 
 542:/home/hkh/git/eapidk-code-r76-trunk/apps/EeePProg/linux/../EeePProg.c **** CMD_ListDBlocksCOM0R20_CB_EEP(
 543:/home/hkh/git/eapidk-code-r76-trunk/apps/EeePProg/linux/../EeePProg.c ****     void *pArgData
 544:/home/hkh/git/eapidk-code-r76-trunk/apps/EeePProg/linux/../EeePProg.c ****     )
 545:/home/hkh/git/eapidk-code-r76-trunk/apps/EeePProg/linux/../EeePProg.c **** {
 546:/home/hkh/git/eapidk-code-r76-trunk/apps/EeePProg/linux/../EeePProg.c ****   I2CAddrCfg_t DevDesc={EAPI_ID_I2C_EXTERNAL, COM0R20_CB_EEP_DEV_ADDR};
 547:/home/hkh/git/eapidk-code-r76-trunk/apps/EeePProg/linux/../EeePProg.c ****   pArgData=pArgData;
 548:/home/hkh/git/eapidk-code-r76-trunk/apps/EeePProg/linux/../EeePProg.c ****   return CMD_ListDBlocksEeePExt_EEP(&DevDesc);
 549:/home/hkh/git/eapidk-code-r76-trunk/apps/EeePProg/linux/../EeePProg.c **** }
 550:/home/hkh/git/eapidk-code-r76-trunk/apps/EeePProg/linux/../EeePProg.c **** EApiStatus_t 
 551:/home/hkh/git/eapidk-code-r76-trunk/apps/EeePProg/linux/../EeePProg.c **** CMD_ListDBlocksCOM0R20_M_EEP(
 552:/home/hkh/git/eapidk-code-r76-trunk/apps/EeePProg/linux/../EeePProg.c ****     void *pArgData
 553:/home/hkh/git/eapidk-code-r76-trunk/apps/EeePProg/linux/../EeePProg.c ****     )
 554:/home/hkh/git/eapidk-code-r76-trunk/apps/EeePProg/linux/../EeePProg.c **** {
 555:/home/hkh/git/eapidk-code-r76-trunk/apps/EeePProg/linux/../EeePProg.c ****   I2CAddrCfg_t DevDesc={EAPI_ID_I2C_EXTERNAL, COM0R20_M_EEP_DEV_ADDR};
 556:/home/hkh/git/eapidk-code-r76-trunk/apps/EeePProg/linux/../EeePProg.c ****   pArgData=pArgData;
 557:/home/hkh/git/eapidk-code-r76-trunk/apps/EeePProg/linux/../EeePProg.c ****   return CMD_ListDBlocksEeePExt_EEP(&DevDesc);
 558:/home/hkh/git/eapidk-code-r76-trunk/apps/EeePProg/linux/../EeePProg.c **** }
 559:/home/hkh/git/eapidk-code-r76-trunk/apps/EeePProg/linux/../EeePProg.c **** 
 560:/home/hkh/git/eapidk-code-r76-trunk/apps/EeePProg/linux/../EeePProg.c **** EApiStatus_t 
 561:/home/hkh/git/eapidk-code-r76-trunk/apps/EeePProg/linux/../EeePProg.c **** CMD_CreateExtEepEEP_IMG(
 562:/home/hkh/git/eapidk-code-r76-trunk/apps/EeePProg/linux/../EeePProg.c ****     void *pArgData
 563:/home/hkh/git/eapidk-code-r76-trunk/apps/EeePProg/linux/../EeePProg.c ****     )
 564:/home/hkh/git/eapidk-code-r76-trunk/apps/EeePProg/linux/../EeePProg.c **** {
 1464              		.loc 1 564 1 is_stmt 1 view -0
 1465              		.cfi_startproc
 1466              		@ args = 0, pretend = 0, frame = 8
 1467              		@ frame_needed = 0, uses_anonymous_args = 0
 1468              		.loc 1 564 1 is_stmt 0 view .LVU278
 1469 0a24 08C19FE5 		ldr	ip, .L116
ARM GAS  /tmp/ccqui9DH.s 			page 41


 565:/home/hkh/git/eapidk-code-r76-trunk/apps/EeePProg/linux/../EeePProg.c ****   EApiStatus_t StatusCode=EAPI_STATUS_SUCCESS;
 566:/home/hkh/git/eapidk-code-r76-trunk/apps/EeePProg/linux/../EeePProg.c ****   EeePHandel_t BHandel=NULL;
 1470              		.loc 1 566 16 view .LVU279
 1471 0a28 0030A0E3 		mov	r3, #0
 564:/home/hkh/git/eapidk-code-r76-trunk/apps/EeePProg/linux/../EeePProg.c ****   EApiStatus_t StatusCode=EAPI_STATUS_SUCCESS;
 1472              		.loc 1 564 1 view .LVU280
 1473 0a2c 04219FE5 		ldr	r2, .L116+4
 1474 0a30 70402DE9 		push	{r4, r5, r6, lr}
 1475              		.cfi_def_cfa_offset 16
 1476              		.cfi_offset 4, -16
 1477              		.cfi_offset 5, -12
 1478              		.cfi_offset 6, -8
 1479              		.cfi_offset 14, -4
 1480 0a34 18D04DE2 		sub	sp, sp, #24
 1481              		.cfi_def_cfa_offset 40
 564:/home/hkh/git/eapidk-code-r76-trunk/apps/EeePProg/linux/../EeePProg.c ****   EApiStatus_t StatusCode=EAPI_STATUS_SUCCESS;
 1482              		.loc 1 564 1 view .LVU281
 1483              	.LPIC94:
 1484 0a38 0CC08FE0 		add	ip, pc, ip
 567:/home/hkh/git/eapidk-code-r76-trunk/apps/EeePProg/linux/../EeePProg.c **** 
 568:/home/hkh/git/eapidk-code-r76-trunk/apps/EeePProg/linux/../EeePProg.c ****   DO(EeeP_CreateEeePExtEEPImage(
 1485              		.loc 1 568 3 view .LVU282
 1486 0a3c 10608DE2 		add	r6, sp, #16
 564:/home/hkh/git/eapidk-code-r76-trunk/apps/EeePProg/linux/../EeePProg.c ****   EApiStatus_t StatusCode=EAPI_STATUS_SUCCESS;
 1487              		.loc 1 564 1 view .LVU283
 1488 0a40 0050A0E1 		mov	r5, r0
 1489 0a44 02209CE7 		ldr	r2, [ip, r2]
 1490              		.loc 1 568 3 view .LVU284
 1491 0a48 001090E5 		ldr	r1, [r0]
 1492 0a4c 0600A0E1 		mov	r0, r6
 564:/home/hkh/git/eapidk-code-r76-trunk/apps/EeePProg/linux/../EeePProg.c ****   EApiStatus_t StatusCode=EAPI_STATUS_SUCCESS;
 1493              		.loc 1 564 1 view .LVU285
 1494 0a50 002092E5 		ldr	r2, [r2]
 1495 0a54 14208DE5 		str	r2, [sp, #20]
 1496 0a58 0020A0E3 		mov	r2, #0
 565:/home/hkh/git/eapidk-code-r76-trunk/apps/EeePProg/linux/../EeePProg.c ****   EeePHandel_t BHandel=NULL;
 1497              		.loc 1 565 3 is_stmt 1 view .LVU286
 1498              	.LVL103:
 566:/home/hkh/git/eapidk-code-r76-trunk/apps/EeePProg/linux/../EeePProg.c **** 
 1499              		.loc 1 566 3 view .LVU287
 566:/home/hkh/git/eapidk-code-r76-trunk/apps/EeePProg/linux/../EeePProg.c **** 
 1500              		.loc 1 566 16 is_stmt 0 view .LVU288
 1501 0a5c 10308DE5 		str	r3, [sp, #16]
 1502              		.loc 1 568 3 is_stmt 1 view .LVU289
 1503              		.loc 1 568 3 view .LVU290
 1504 0a60 FEFFFFEB 		bl	EeeP_CreateEeePExtEEPImage(PLT)
 1505              	.LVL104:
 1506              		.loc 1 568 3 view .LVU291
 1507 0a64 004050E2 		subs	r4, r0, #0
 1508 0a68 1200001A 		bne	.L113
 1509              		.loc 1 568 3 discriminator 2 view .LVU292
 569:/home/hkh/git/eapidk-code-r76-trunk/apps/EeePProg/linux/../EeePProg.c ****         &BHandel                              ,
 570:/home/hkh/git/eapidk-code-r76-trunk/apps/EeePProg/linux/../EeePProg.c ****         ((InOutFiles_t*)pArgData)->InFile
 571:/home/hkh/git/eapidk-code-r76-trunk/apps/EeePProg/linux/../EeePProg.c ****       ));
 572:/home/hkh/git/eapidk-code-r76-trunk/apps/EeePProg/linux/../EeePProg.c ****   DO(EeePWriteBufferToFile(BHandel, ((InOutFiles_t*)pArgData)->OutFile));
 1510              		.loc 1 572 3 discriminator 2 view .LVU293
 1511              		.loc 1 572 3 discriminator 2 view .LVU294
ARM GAS  /tmp/ccqui9DH.s 			page 42


 1512 0a6c 041095E5 		ldr	r1, [r5, #4]
 1513 0a70 10009DE5 		ldr	r0, [sp, #16]
 1514              	.LVL105:
 1515              		.loc 1 572 3 is_stmt 0 discriminator 2 view .LVU295
 1516 0a74 FEFFFFEB 		bl	EeePWriteBufferToFile(PLT)
 1517              	.LVL106:
 1518              		.loc 1 572 3 is_stmt 1 discriminator 2 view .LVU296
 1519 0a78 004050E2 		subs	r4, r0, #0
 1520 0a7c 1C00001A 		bne	.L114
 1521              	.LVL107:
 1522              	.L107:
 1523              		.loc 1 572 3 discriminator 3 view .LVU297
 573:/home/hkh/git/eapidk-code-r76-trunk/apps/EeePProg/linux/../EeePProg.c **** 
 574:/home/hkh/git/eapidk-code-r76-trunk/apps/EeePProg/linux/../EeePProg.c **** EAPI_APP_ASSERT_EXIT
 575:/home/hkh/git/eapidk-code-r76-trunk/apps/EeePProg/linux/../EeePProg.c ****   EeePFreeBuffer(&BHandel);
 1524              		.loc 1 575 3 discriminator 3 view .LVU298
 1525 0a80 0600A0E1 		mov	r0, r6
 1526 0a84 FEFFFFEB 		bl	EeePFreeBuffer(PLT)
 1527              	.LVL108:
 576:/home/hkh/git/eapidk-code-r76-trunk/apps/EeePProg/linux/../EeePProg.c ****   return StatusCode;
 1528              		.loc 1 576 3 discriminator 3 view .LVU299
 564:/home/hkh/git/eapidk-code-r76-trunk/apps/EeePProg/linux/../EeePProg.c ****   EApiStatus_t StatusCode=EAPI_STATUS_SUCCESS;
 1529              		.loc 1 564 1 is_stmt 0 discriminator 3 view .LVU300
 1530 0a88 AC209FE5 		ldr	r2, .L116+8
 577:/home/hkh/git/eapidk-code-r76-trunk/apps/EeePProg/linux/../EeePProg.c **** }
 1531              		.loc 1 577 1 discriminator 3 view .LVU301
 1532 0a8c A4309FE5 		ldr	r3, .L116+4
 564:/home/hkh/git/eapidk-code-r76-trunk/apps/EeePProg/linux/../EeePProg.c ****   EApiStatus_t StatusCode=EAPI_STATUS_SUCCESS;
 1533              		.loc 1 564 1 discriminator 3 view .LVU302
 1534              	.LPIC93:
 1535 0a90 02208FE0 		add	r2, pc, r2
 1536              		.loc 1 577 1 discriminator 3 view .LVU303
 1537 0a94 033092E7 		ldr	r3, [r2, r3]
 1538 0a98 002093E5 		ldr	r2, [r3]
 1539 0a9c 14309DE5 		ldr	r3, [sp, #20]
 1540 0aa0 022033E0 		eors	r2, r3, r2
 1541 0aa4 0030A0E3 		mov	r3, #0
 1542 0aa8 2000001A 		bne	.L115
 1543              		.loc 1 577 1 view .LVU304
 1544 0aac 0400A0E1 		mov	r0, r4
 1545 0ab0 18D08DE2 		add	sp, sp, #24
 1546              		.cfi_remember_state
 1547              		.cfi_def_cfa_offset 16
 1548              		@ sp needed
 1549 0ab4 7080BDE8 		pop	{r4, r5, r6, pc}
 1550              	.LVL109:
 1551              	.L113:
 1552              		.cfi_restore_state
 568:/home/hkh/git/eapidk-code-r76-trunk/apps/EeePProg/linux/../EeePProg.c ****         &BHandel                              ,
 1553              		.loc 1 568 3 is_stmt 1 discriminator 1 view .LVU305
 1554 0ab8 80109FE5 		ldr	r1, .L116+12
 1555 0abc 8E3FA0E3 		mov	r3, #568
 1556 0ac0 7C009FE5 		ldr	r0, .L116+16
 1557              	.LVL110:
 568:/home/hkh/git/eapidk-code-r76-trunk/apps/EeePProg/linux/../EeePProg.c ****         &BHandel                              ,
 1558              		.loc 1 568 3 is_stmt 0 discriminator 1 view .LVU306
 1559 0ac4 7C209FE5 		ldr	r2, .L116+20
ARM GAS  /tmp/ccqui9DH.s 			page 43


 1560              	.LPIC88:
 1561 0ac8 01108FE0 		add	r1, pc, r1
 1562 0acc 00408DE5 		str	r4, [sp]
 1563 0ad0 04108DE5 		str	r1, [sp, #4]
 1564              	.LPIC87:
 1565 0ad4 00008FE0 		add	r0, pc, r0
 1566 0ad8 6C109FE5 		ldr	r1, .L116+24
 1567              	.LPIC85:
 1568 0adc 02208FE0 		add	r2, pc, r2
 1569 0ae0 08008DE5 		str	r0, [sp, #8]
 1570 0ae4 4500A0E3 		mov	r0, #69
 1571              	.LPIC86:
 1572 0ae8 01108FE0 		add	r1, pc, r1
 1573 0aec FEFFFFEB 		bl	siFormattedMessage_SC(PLT)
 1574              	.LVL111:
 568:/home/hkh/git/eapidk-code-r76-trunk/apps/EeePProg/linux/../EeePProg.c ****         &BHandel                              ,
 1575              		.loc 1 568 3 is_stmt 1 discriminator 1 view .LVU307
 1576 0af0 E2FFFFEA 		b	.L107
 1577              	.LVL112:
 1578              	.L114:
 572:/home/hkh/git/eapidk-code-r76-trunk/apps/EeePProg/linux/../EeePProg.c **** 
 1579              		.loc 1 572 3 discriminator 1 view .LVU308
 1580 0af4 54109FE5 		ldr	r1, .L116+28
 1581 0af8 8F3FA0E3 		mov	r3, #572
 1582 0afc 50009FE5 		ldr	r0, .L116+32
 1583              	.LVL113:
 572:/home/hkh/git/eapidk-code-r76-trunk/apps/EeePProg/linux/../EeePProg.c **** 
 1584              		.loc 1 572 3 is_stmt 0 discriminator 1 view .LVU309
 1585 0b00 50209FE5 		ldr	r2, .L116+36
 1586              	.LPIC92:
 1587 0b04 01108FE0 		add	r1, pc, r1
 1588 0b08 00408DE5 		str	r4, [sp]
 1589 0b0c 04108DE5 		str	r1, [sp, #4]
 1590              	.LPIC91:
 1591 0b10 00008FE0 		add	r0, pc, r0
 1592 0b14 40109FE5 		ldr	r1, .L116+40
 1593              	.LPIC89:
 1594 0b18 02208FE0 		add	r2, pc, r2
 1595 0b1c 08008DE5 		str	r0, [sp, #8]
 1596 0b20 4500A0E3 		mov	r0, #69
 1597              	.LPIC90:
 1598 0b24 01108FE0 		add	r1, pc, r1
 1599 0b28 FEFFFFEB 		bl	siFormattedMessage_SC(PLT)
 1600              	.LVL114:
 572:/home/hkh/git/eapidk-code-r76-trunk/apps/EeePProg/linux/../EeePProg.c **** 
 1601              		.loc 1 572 3 is_stmt 1 discriminator 1 view .LVU310
 1602 0b2c D3FFFFEA 		b	.L107
 1603              	.L115:
 1604              		.loc 1 577 1 is_stmt 0 view .LVU311
 1605 0b30 FEFFFFEB 		bl	__stack_chk_fail(PLT)
 1606              	.LVL115:
 1607              	.L117:
 1608              		.align	2
 1609              	.L116:
 1610 0b34 F4000000 		.word	_GLOBAL_OFFSET_TABLE_-(.LPIC94+8)
 1611 0b38 00000000 		.word	__stack_chk_guard(GOT)
 1612 0b3c A4000000 		.word	_GLOBAL_OFFSET_TABLE_-(.LPIC93+8)
ARM GAS  /tmp/ccqui9DH.s 			page 44


 1613 0b40 70000000 		.word	.LC3-(.LPIC88+8)
 1614 0b44 68000000 		.word	.LC23-(.LPIC87+8)
 1615 0b48 64000000 		.word	.LC0-(.LPIC85+8)
 1616 0b4c 5C000000 		.word	.LC1-(.LPIC86+8)
 1617 0b50 44000000 		.word	.LC3-(.LPIC92+8)
 1618 0b54 3C000000 		.word	.LC24-(.LPIC91+8)
 1619 0b58 38000000 		.word	.LC0-(.LPIC89+8)
 1620 0b5c 30000000 		.word	.LC1-(.LPIC90+8)
 1621              		.cfi_endproc
 1622              	.LFE18:
 1624              		.section	.rodata.str1.4
 1625 056b 00       		.align	2
 1626              	.LC25:
 1627 056c 45656550 		.ascii	"EeeP_CreateCOM0R20_MEEPImage( &BHandel , ((InOutFil"
 1627      5F437265 
 1627      61746543 
 1627      4F4D3052 
 1627      32305F4D 
 1628 059f 65735F74 		.ascii	"es_t*)pArgData)->InFile )\000"
 1628      2A297041 
 1628      72674461 
 1628      7461292D 
 1628      3E496E46 
 1629              		.text
 1630              		.align	2
 1631              		.global	CMD_CreateCOM0R20M_IMG
 1632              		.syntax unified
 1633              		.arm
 1634              		.fpu vfpv3
 1636              	CMD_CreateCOM0R20M_IMG:
 1637              	.LVL116:
 1638              	.LFB19:
 578:/home/hkh/git/eapidk-code-r76-trunk/apps/EeePProg/linux/../EeePProg.c **** EApiStatus_t 
 579:/home/hkh/git/eapidk-code-r76-trunk/apps/EeePProg/linux/../EeePProg.c **** CMD_CreateCOM0R20M_IMG(
 580:/home/hkh/git/eapidk-code-r76-trunk/apps/EeePProg/linux/../EeePProg.c ****     void *pArgData
 581:/home/hkh/git/eapidk-code-r76-trunk/apps/EeePProg/linux/../EeePProg.c ****     )
 582:/home/hkh/git/eapidk-code-r76-trunk/apps/EeePProg/linux/../EeePProg.c **** {
 1639              		.loc 1 582 1 is_stmt 1 view -0
 1640              		.cfi_startproc
 1641              		@ args = 0, pretend = 0, frame = 8
 1642              		@ frame_needed = 0, uses_anonymous_args = 0
 1643              		.loc 1 582 1 is_stmt 0 view .LVU313
 1644 0b60 08C19FE5 		ldr	ip, .L129
 583:/home/hkh/git/eapidk-code-r76-trunk/apps/EeePProg/linux/../EeePProg.c ****   EApiStatus_t StatusCode=EAPI_STATUS_SUCCESS;
 584:/home/hkh/git/eapidk-code-r76-trunk/apps/EeePProg/linux/../EeePProg.c ****   EeePHandel_t BHandel=NULL;
 1645              		.loc 1 584 16 view .LVU314
 1646 0b64 0030A0E3 		mov	r3, #0
 582:/home/hkh/git/eapidk-code-r76-trunk/apps/EeePProg/linux/../EeePProg.c ****   EApiStatus_t StatusCode=EAPI_STATUS_SUCCESS;
 1647              		.loc 1 582 1 view .LVU315
 1648 0b68 04219FE5 		ldr	r2, .L129+4
 1649 0b6c 70402DE9 		push	{r4, r5, r6, lr}
 1650              		.cfi_def_cfa_offset 16
 1651              		.cfi_offset 4, -16
 1652              		.cfi_offset 5, -12
 1653              		.cfi_offset 6, -8
 1654              		.cfi_offset 14, -4
 1655 0b70 18D04DE2 		sub	sp, sp, #24
ARM GAS  /tmp/ccqui9DH.s 			page 45


 1656              		.cfi_def_cfa_offset 40
 582:/home/hkh/git/eapidk-code-r76-trunk/apps/EeePProg/linux/../EeePProg.c ****   EApiStatus_t StatusCode=EAPI_STATUS_SUCCESS;
 1657              		.loc 1 582 1 view .LVU316
 1658              	.LPIC104:
 1659 0b74 0CC08FE0 		add	ip, pc, ip
 585:/home/hkh/git/eapidk-code-r76-trunk/apps/EeePProg/linux/../EeePProg.c **** 
 586:/home/hkh/git/eapidk-code-r76-trunk/apps/EeePProg/linux/../EeePProg.c ****   DO(EeeP_CreateCOM0R20_MEEPImage(
 1660              		.loc 1 586 3 view .LVU317
 1661 0b78 10608DE2 		add	r6, sp, #16
 582:/home/hkh/git/eapidk-code-r76-trunk/apps/EeePProg/linux/../EeePProg.c ****   EApiStatus_t StatusCode=EAPI_STATUS_SUCCESS;
 1662              		.loc 1 582 1 view .LVU318
 1663 0b7c 0050A0E1 		mov	r5, r0
 1664 0b80 02209CE7 		ldr	r2, [ip, r2]
 1665              		.loc 1 586 3 view .LVU319
 1666 0b84 001090E5 		ldr	r1, [r0]
 1667 0b88 0600A0E1 		mov	r0, r6
 582:/home/hkh/git/eapidk-code-r76-trunk/apps/EeePProg/linux/../EeePProg.c ****   EApiStatus_t StatusCode=EAPI_STATUS_SUCCESS;
 1668              		.loc 1 582 1 view .LVU320
 1669 0b8c 002092E5 		ldr	r2, [r2]
 1670 0b90 14208DE5 		str	r2, [sp, #20]
 1671 0b94 0020A0E3 		mov	r2, #0
 583:/home/hkh/git/eapidk-code-r76-trunk/apps/EeePProg/linux/../EeePProg.c ****   EeePHandel_t BHandel=NULL;
 1672              		.loc 1 583 3 is_stmt 1 view .LVU321
 1673              	.LVL117:
 584:/home/hkh/git/eapidk-code-r76-trunk/apps/EeePProg/linux/../EeePProg.c **** 
 1674              		.loc 1 584 3 view .LVU322
 584:/home/hkh/git/eapidk-code-r76-trunk/apps/EeePProg/linux/../EeePProg.c **** 
 1675              		.loc 1 584 16 is_stmt 0 view .LVU323
 1676 0b98 10308DE5 		str	r3, [sp, #16]
 1677              		.loc 1 586 3 is_stmt 1 view .LVU324
 1678              		.loc 1 586 3 view .LVU325
 1679 0b9c FEFFFFEB 		bl	EeeP_CreateCOM0R20_MEEPImage(PLT)
 1680              	.LVL118:
 1681              		.loc 1 586 3 view .LVU326
 1682 0ba0 004050E2 		subs	r4, r0, #0
 1683 0ba4 1200001A 		bne	.L126
 1684              		.loc 1 586 3 discriminator 2 view .LVU327
 587:/home/hkh/git/eapidk-code-r76-trunk/apps/EeePProg/linux/../EeePProg.c ****         &BHandel                              ,
 588:/home/hkh/git/eapidk-code-r76-trunk/apps/EeePProg/linux/../EeePProg.c ****         ((InOutFiles_t*)pArgData)->InFile
 589:/home/hkh/git/eapidk-code-r76-trunk/apps/EeePProg/linux/../EeePProg.c ****       ));
 590:/home/hkh/git/eapidk-code-r76-trunk/apps/EeePProg/linux/../EeePProg.c ****   DO(EeePWriteBufferToFile(BHandel, ((InOutFiles_t*)pArgData)->OutFile));
 1685              		.loc 1 590 3 discriminator 2 view .LVU328
 1686              		.loc 1 590 3 discriminator 2 view .LVU329
 1687 0ba8 041095E5 		ldr	r1, [r5, #4]
 1688 0bac 10009DE5 		ldr	r0, [sp, #16]
 1689              	.LVL119:
 1690              		.loc 1 590 3 is_stmt 0 discriminator 2 view .LVU330
 1691 0bb0 FEFFFFEB 		bl	EeePWriteBufferToFile(PLT)
 1692              	.LVL120:
 1693              		.loc 1 590 3 is_stmt 1 discriminator 2 view .LVU331
 1694 0bb4 004050E2 		subs	r4, r0, #0
 1695 0bb8 1C00001A 		bne	.L127
 1696              	.LVL121:
 1697              	.L120:
 1698              		.loc 1 590 3 discriminator 3 view .LVU332
 591:/home/hkh/git/eapidk-code-r76-trunk/apps/EeePProg/linux/../EeePProg.c **** 
 592:/home/hkh/git/eapidk-code-r76-trunk/apps/EeePProg/linux/../EeePProg.c **** EAPI_APP_ASSERT_EXIT
ARM GAS  /tmp/ccqui9DH.s 			page 46


 593:/home/hkh/git/eapidk-code-r76-trunk/apps/EeePProg/linux/../EeePProg.c ****   EeePFreeBuffer(&BHandel);
 1699              		.loc 1 593 3 discriminator 3 view .LVU333
 1700 0bbc 0600A0E1 		mov	r0, r6
 1701 0bc0 FEFFFFEB 		bl	EeePFreeBuffer(PLT)
 1702              	.LVL122:
 594:/home/hkh/git/eapidk-code-r76-trunk/apps/EeePProg/linux/../EeePProg.c ****   return StatusCode;
 1703              		.loc 1 594 3 discriminator 3 view .LVU334
 582:/home/hkh/git/eapidk-code-r76-trunk/apps/EeePProg/linux/../EeePProg.c ****   EApiStatus_t StatusCode=EAPI_STATUS_SUCCESS;
 1704              		.loc 1 582 1 is_stmt 0 discriminator 3 view .LVU335
 1705 0bc4 AC209FE5 		ldr	r2, .L129+8
 595:/home/hkh/git/eapidk-code-r76-trunk/apps/EeePProg/linux/../EeePProg.c **** }
 1706              		.loc 1 595 1 discriminator 3 view .LVU336
 1707 0bc8 A4309FE5 		ldr	r3, .L129+4
 582:/home/hkh/git/eapidk-code-r76-trunk/apps/EeePProg/linux/../EeePProg.c ****   EApiStatus_t StatusCode=EAPI_STATUS_SUCCESS;
 1708              		.loc 1 582 1 discriminator 3 view .LVU337
 1709              	.LPIC103:
 1710 0bcc 02208FE0 		add	r2, pc, r2
 1711              		.loc 1 595 1 discriminator 3 view .LVU338
 1712 0bd0 033092E7 		ldr	r3, [r2, r3]
 1713 0bd4 002093E5 		ldr	r2, [r3]
 1714 0bd8 14309DE5 		ldr	r3, [sp, #20]
 1715 0bdc 022033E0 		eors	r2, r3, r2
 1716 0be0 0030A0E3 		mov	r3, #0
 1717 0be4 2000001A 		bne	.L128
 1718              		.loc 1 595 1 view .LVU339
 1719 0be8 0400A0E1 		mov	r0, r4
 1720 0bec 18D08DE2 		add	sp, sp, #24
 1721              		.cfi_remember_state
 1722              		.cfi_def_cfa_offset 16
 1723              		@ sp needed
 1724 0bf0 7080BDE8 		pop	{r4, r5, r6, pc}
 1725              	.LVL123:
 1726              	.L126:
 1727              		.cfi_restore_state
 586:/home/hkh/git/eapidk-code-r76-trunk/apps/EeePProg/linux/../EeePProg.c ****         &BHandel                              ,
 1728              		.loc 1 586 3 is_stmt 1 discriminator 1 view .LVU340
 1729 0bf4 80109FE5 		ldr	r1, .L129+12
 1730 0bf8 4A3200E3 		movw	r3, #586
 1731 0bfc 7C009FE5 		ldr	r0, .L129+16
 1732              	.LVL124:
 586:/home/hkh/git/eapidk-code-r76-trunk/apps/EeePProg/linux/../EeePProg.c ****         &BHandel                              ,
 1733              		.loc 1 586 3 is_stmt 0 discriminator 1 view .LVU341
 1734 0c00 7C209FE5 		ldr	r2, .L129+20
 1735              	.LPIC98:
 1736 0c04 01108FE0 		add	r1, pc, r1
 1737 0c08 00408DE5 		str	r4, [sp]
 1738 0c0c 04108DE5 		str	r1, [sp, #4]
 1739              	.LPIC97:
 1740 0c10 00008FE0 		add	r0, pc, r0
 1741 0c14 6C109FE5 		ldr	r1, .L129+24
 1742              	.LPIC95:
 1743 0c18 02208FE0 		add	r2, pc, r2
 1744 0c1c 08008DE5 		str	r0, [sp, #8]
 1745 0c20 4500A0E3 		mov	r0, #69
 1746              	.LPIC96:
 1747 0c24 01108FE0 		add	r1, pc, r1
 1748 0c28 FEFFFFEB 		bl	siFormattedMessage_SC(PLT)
ARM GAS  /tmp/ccqui9DH.s 			page 47


 1749              	.LVL125:
 586:/home/hkh/git/eapidk-code-r76-trunk/apps/EeePProg/linux/../EeePProg.c ****         &BHandel                              ,
 1750              		.loc 1 586 3 is_stmt 1 discriminator 1 view .LVU342
 1751 0c2c E2FFFFEA 		b	.L120
 1752              	.LVL126:
 1753              	.L127:
 590:/home/hkh/git/eapidk-code-r76-trunk/apps/EeePProg/linux/../EeePProg.c **** 
 1754              		.loc 1 590 3 discriminator 1 view .LVU343
 1755 0c30 54109FE5 		ldr	r1, .L129+28
 1756 0c34 4E3200E3 		movw	r3, #590
 1757 0c38 50009FE5 		ldr	r0, .L129+32
 1758              	.LVL127:
 590:/home/hkh/git/eapidk-code-r76-trunk/apps/EeePProg/linux/../EeePProg.c **** 
 1759              		.loc 1 590 3 is_stmt 0 discriminator 1 view .LVU344
 1760 0c3c 50209FE5 		ldr	r2, .L129+36
 1761              	.LPIC102:
 1762 0c40 01108FE0 		add	r1, pc, r1
 1763 0c44 00408DE5 		str	r4, [sp]
 1764 0c48 04108DE5 		str	r1, [sp, #4]
 1765              	.LPIC101:
 1766 0c4c 00008FE0 		add	r0, pc, r0
 1767 0c50 40109FE5 		ldr	r1, .L129+40
 1768              	.LPIC99:
 1769 0c54 02208FE0 		add	r2, pc, r2
 1770 0c58 08008DE5 		str	r0, [sp, #8]
 1771 0c5c 4500A0E3 		mov	r0, #69
 1772              	.LPIC100:
 1773 0c60 01108FE0 		add	r1, pc, r1
 1774 0c64 FEFFFFEB 		bl	siFormattedMessage_SC(PLT)
 1775              	.LVL128:
 590:/home/hkh/git/eapidk-code-r76-trunk/apps/EeePProg/linux/../EeePProg.c **** 
 1776              		.loc 1 590 3 is_stmt 1 discriminator 1 view .LVU345
 1777 0c68 D3FFFFEA 		b	.L120
 1778              	.L128:
 1779              		.loc 1 595 1 is_stmt 0 view .LVU346
 1780 0c6c FEFFFFEB 		bl	__stack_chk_fail(PLT)
 1781              	.LVL129:
 1782              	.L130:
 1783              		.align	2
 1784              	.L129:
 1785 0c70 F4000000 		.word	_GLOBAL_OFFSET_TABLE_-(.LPIC104+8)
 1786 0c74 00000000 		.word	__stack_chk_guard(GOT)
 1787 0c78 A4000000 		.word	_GLOBAL_OFFSET_TABLE_-(.LPIC103+8)
 1788 0c7c 70000000 		.word	.LC3-(.LPIC98+8)
 1789 0c80 68000000 		.word	.LC25-(.LPIC97+8)
 1790 0c84 64000000 		.word	.LC0-(.LPIC95+8)
 1791 0c88 5C000000 		.word	.LC1-(.LPIC96+8)
 1792 0c8c 44000000 		.word	.LC3-(.LPIC102+8)
 1793 0c90 3C000000 		.word	.LC24-(.LPIC101+8)
 1794 0c94 38000000 		.word	.LC0-(.LPIC99+8)
 1795 0c98 30000000 		.word	.LC1-(.LPIC100+8)
 1796              		.cfi_endproc
 1797              	.LFE19:
 1799              		.section	.rodata.str1.4
 1800 05b9 000000   		.align	2
 1801              	.LC26:
 1802 05bc 45656550 		.ascii	"EeeP_CreateCOM0R20_CBImage( &BHandel , ((InOutFiles"
ARM GAS  /tmp/ccqui9DH.s 			page 48


 1802      5F437265 
 1802      61746543 
 1802      4F4D3052 
 1802      32305F43 
 1803 05ef 5F742A29 		.ascii	"_t*)pArgData)->InFile )\000"
 1803      70417267 
 1803      44617461 
 1803      292D3E49 
 1803      6E46696C 
 1804              		.text
 1805              		.align	2
 1806              		.global	CMD_CreateCOM0R20CB_IMG
 1807              		.syntax unified
 1808              		.arm
 1809              		.fpu vfpv3
 1811              	CMD_CreateCOM0R20CB_IMG:
 1812              	.LVL130:
 1813              	.LFB20:
 596:/home/hkh/git/eapidk-code-r76-trunk/apps/EeePProg/linux/../EeePProg.c **** EApiStatus_t 
 597:/home/hkh/git/eapidk-code-r76-trunk/apps/EeePProg/linux/../EeePProg.c **** CMD_CreateCOM0R20CB_IMG(
 598:/home/hkh/git/eapidk-code-r76-trunk/apps/EeePProg/linux/../EeePProg.c ****     void *pArgData
 599:/home/hkh/git/eapidk-code-r76-trunk/apps/EeePProg/linux/../EeePProg.c ****     )
 600:/home/hkh/git/eapidk-code-r76-trunk/apps/EeePProg/linux/../EeePProg.c **** {
 1814              		.loc 1 600 1 is_stmt 1 view -0
 1815              		.cfi_startproc
 1816              		@ args = 0, pretend = 0, frame = 8
 1817              		@ frame_needed = 0, uses_anonymous_args = 0
 1818              		.loc 1 600 1 is_stmt 0 view .LVU348
 1819 0c9c 08C19FE5 		ldr	ip, .L142
 601:/home/hkh/git/eapidk-code-r76-trunk/apps/EeePProg/linux/../EeePProg.c ****   EApiStatus_t StatusCode=EAPI_STATUS_SUCCESS;
 602:/home/hkh/git/eapidk-code-r76-trunk/apps/EeePProg/linux/../EeePProg.c ****   EeePHandel_t BHandel=NULL;
 1820              		.loc 1 602 16 view .LVU349
 1821 0ca0 0030A0E3 		mov	r3, #0
 600:/home/hkh/git/eapidk-code-r76-trunk/apps/EeePProg/linux/../EeePProg.c ****   EApiStatus_t StatusCode=EAPI_STATUS_SUCCESS;
 1822              		.loc 1 600 1 view .LVU350
 1823 0ca4 04219FE5 		ldr	r2, .L142+4
 1824 0ca8 70402DE9 		push	{r4, r5, r6, lr}
 1825              		.cfi_def_cfa_offset 16
 1826              		.cfi_offset 4, -16
 1827              		.cfi_offset 5, -12
 1828              		.cfi_offset 6, -8
 1829              		.cfi_offset 14, -4
 1830 0cac 18D04DE2 		sub	sp, sp, #24
 1831              		.cfi_def_cfa_offset 40
 600:/home/hkh/git/eapidk-code-r76-trunk/apps/EeePProg/linux/../EeePProg.c ****   EApiStatus_t StatusCode=EAPI_STATUS_SUCCESS;
 1832              		.loc 1 600 1 view .LVU351
 1833              	.LPIC114:
 1834 0cb0 0CC08FE0 		add	ip, pc, ip
 603:/home/hkh/git/eapidk-code-r76-trunk/apps/EeePProg/linux/../EeePProg.c **** 
 604:/home/hkh/git/eapidk-code-r76-trunk/apps/EeePProg/linux/../EeePProg.c ****   DO(EeeP_CreateCOM0R20_CBImage(
 1835              		.loc 1 604 3 view .LVU352
 1836 0cb4 10608DE2 		add	r6, sp, #16
 600:/home/hkh/git/eapidk-code-r76-trunk/apps/EeePProg/linux/../EeePProg.c ****   EApiStatus_t StatusCode=EAPI_STATUS_SUCCESS;
 1837              		.loc 1 600 1 view .LVU353
 1838 0cb8 0050A0E1 		mov	r5, r0
 1839 0cbc 02209CE7 		ldr	r2, [ip, r2]
 1840              		.loc 1 604 3 view .LVU354
ARM GAS  /tmp/ccqui9DH.s 			page 49


 1841 0cc0 001090E5 		ldr	r1, [r0]
 1842 0cc4 0600A0E1 		mov	r0, r6
 600:/home/hkh/git/eapidk-code-r76-trunk/apps/EeePProg/linux/../EeePProg.c ****   EApiStatus_t StatusCode=EAPI_STATUS_SUCCESS;
 1843              		.loc 1 600 1 view .LVU355
 1844 0cc8 002092E5 		ldr	r2, [r2]
 1845 0ccc 14208DE5 		str	r2, [sp, #20]
 1846 0cd0 0020A0E3 		mov	r2, #0
 601:/home/hkh/git/eapidk-code-r76-trunk/apps/EeePProg/linux/../EeePProg.c ****   EeePHandel_t BHandel=NULL;
 1847              		.loc 1 601 3 is_stmt 1 view .LVU356
 1848              	.LVL131:
 602:/home/hkh/git/eapidk-code-r76-trunk/apps/EeePProg/linux/../EeePProg.c **** 
 1849              		.loc 1 602 3 view .LVU357
 602:/home/hkh/git/eapidk-code-r76-trunk/apps/EeePProg/linux/../EeePProg.c **** 
 1850              		.loc 1 602 16 is_stmt 0 view .LVU358
 1851 0cd4 10308DE5 		str	r3, [sp, #16]
 1852              		.loc 1 604 3 is_stmt 1 view .LVU359
 1853              		.loc 1 604 3 view .LVU360
 1854 0cd8 FEFFFFEB 		bl	EeeP_CreateCOM0R20_CBImage(PLT)
 1855              	.LVL132:
 1856              		.loc 1 604 3 view .LVU361
 1857 0cdc 004050E2 		subs	r4, r0, #0
 1858 0ce0 1200001A 		bne	.L139
 1859              		.loc 1 604 3 discriminator 2 view .LVU362
 605:/home/hkh/git/eapidk-code-r76-trunk/apps/EeePProg/linux/../EeePProg.c ****         &BHandel                              ,
 606:/home/hkh/git/eapidk-code-r76-trunk/apps/EeePProg/linux/../EeePProg.c ****         ((InOutFiles_t*)pArgData)->InFile
 607:/home/hkh/git/eapidk-code-r76-trunk/apps/EeePProg/linux/../EeePProg.c ****       ));
 608:/home/hkh/git/eapidk-code-r76-trunk/apps/EeePProg/linux/../EeePProg.c ****   DO(EeePWriteBufferToFile(BHandel, ((InOutFiles_t*)pArgData)->OutFile));
 1860              		.loc 1 608 3 discriminator 2 view .LVU363
 1861              		.loc 1 608 3 discriminator 2 view .LVU364
 1862 0ce4 041095E5 		ldr	r1, [r5, #4]
 1863 0ce8 10009DE5 		ldr	r0, [sp, #16]
 1864              	.LVL133:
 1865              		.loc 1 608 3 is_stmt 0 discriminator 2 view .LVU365
 1866 0cec FEFFFFEB 		bl	EeePWriteBufferToFile(PLT)
 1867              	.LVL134:
 1868              		.loc 1 608 3 is_stmt 1 discriminator 2 view .LVU366
 1869 0cf0 004050E2 		subs	r4, r0, #0
 1870 0cf4 1C00001A 		bne	.L140
 1871              	.LVL135:
 1872              	.L133:
 1873              		.loc 1 608 3 discriminator 3 view .LVU367
 609:/home/hkh/git/eapidk-code-r76-trunk/apps/EeePProg/linux/../EeePProg.c **** 
 610:/home/hkh/git/eapidk-code-r76-trunk/apps/EeePProg/linux/../EeePProg.c **** EAPI_APP_ASSERT_EXIT
 611:/home/hkh/git/eapidk-code-r76-trunk/apps/EeePProg/linux/../EeePProg.c ****   EeePFreeBuffer(&BHandel);
 1874              		.loc 1 611 3 discriminator 3 view .LVU368
 1875 0cf8 0600A0E1 		mov	r0, r6
 1876 0cfc FEFFFFEB 		bl	EeePFreeBuffer(PLT)
 1877              	.LVL136:
 612:/home/hkh/git/eapidk-code-r76-trunk/apps/EeePProg/linux/../EeePProg.c ****   return StatusCode;
 1878              		.loc 1 612 3 discriminator 3 view .LVU369
 600:/home/hkh/git/eapidk-code-r76-trunk/apps/EeePProg/linux/../EeePProg.c ****   EApiStatus_t StatusCode=EAPI_STATUS_SUCCESS;
 1879              		.loc 1 600 1 is_stmt 0 discriminator 3 view .LVU370
 1880 0d00 AC209FE5 		ldr	r2, .L142+8
 613:/home/hkh/git/eapidk-code-r76-trunk/apps/EeePProg/linux/../EeePProg.c **** }
 1881              		.loc 1 613 1 discriminator 3 view .LVU371
 1882 0d04 A4309FE5 		ldr	r3, .L142+4
 600:/home/hkh/git/eapidk-code-r76-trunk/apps/EeePProg/linux/../EeePProg.c ****   EApiStatus_t StatusCode=EAPI_STATUS_SUCCESS;
ARM GAS  /tmp/ccqui9DH.s 			page 50


 1883              		.loc 1 600 1 discriminator 3 view .LVU372
 1884              	.LPIC113:
 1885 0d08 02208FE0 		add	r2, pc, r2
 1886              		.loc 1 613 1 discriminator 3 view .LVU373
 1887 0d0c 033092E7 		ldr	r3, [r2, r3]
 1888 0d10 002093E5 		ldr	r2, [r3]
 1889 0d14 14309DE5 		ldr	r3, [sp, #20]
 1890 0d18 022033E0 		eors	r2, r3, r2
 1891 0d1c 0030A0E3 		mov	r3, #0
 1892 0d20 2000001A 		bne	.L141
 1893              		.loc 1 613 1 view .LVU374
 1894 0d24 0400A0E1 		mov	r0, r4
 1895 0d28 18D08DE2 		add	sp, sp, #24
 1896              		.cfi_remember_state
 1897              		.cfi_def_cfa_offset 16
 1898              		@ sp needed
 1899 0d2c 7080BDE8 		pop	{r4, r5, r6, pc}
 1900              	.LVL137:
 1901              	.L139:
 1902              		.cfi_restore_state
 604:/home/hkh/git/eapidk-code-r76-trunk/apps/EeePProg/linux/../EeePProg.c ****         &BHandel                              ,
 1903              		.loc 1 604 3 is_stmt 1 discriminator 1 view .LVU375
 1904 0d30 80109FE5 		ldr	r1, .L142+12
 1905 0d34 973FA0E3 		mov	r3, #604
 1906 0d38 7C009FE5 		ldr	r0, .L142+16
 1907              	.LVL138:
 604:/home/hkh/git/eapidk-code-r76-trunk/apps/EeePProg/linux/../EeePProg.c ****         &BHandel                              ,
 1908              		.loc 1 604 3 is_stmt 0 discriminator 1 view .LVU376
 1909 0d3c 7C209FE5 		ldr	r2, .L142+20
 1910              	.LPIC108:
 1911 0d40 01108FE0 		add	r1, pc, r1
 1912 0d44 00408DE5 		str	r4, [sp]
 1913 0d48 04108DE5 		str	r1, [sp, #4]
 1914              	.LPIC107:
 1915 0d4c 00008FE0 		add	r0, pc, r0
 1916 0d50 6C109FE5 		ldr	r1, .L142+24
 1917              	.LPIC105:
 1918 0d54 02208FE0 		add	r2, pc, r2
 1919 0d58 08008DE5 		str	r0, [sp, #8]
 1920 0d5c 4500A0E3 		mov	r0, #69
 1921              	.LPIC106:
 1922 0d60 01108FE0 		add	r1, pc, r1
 1923 0d64 FEFFFFEB 		bl	siFormattedMessage_SC(PLT)
 1924              	.LVL139:
 604:/home/hkh/git/eapidk-code-r76-trunk/apps/EeePProg/linux/../EeePProg.c ****         &BHandel                              ,
 1925              		.loc 1 604 3 is_stmt 1 discriminator 1 view .LVU377
 1926 0d68 E2FFFFEA 		b	.L133
 1927              	.LVL140:
 1928              	.L140:
 608:/home/hkh/git/eapidk-code-r76-trunk/apps/EeePProg/linux/../EeePProg.c **** 
 1929              		.loc 1 608 3 discriminator 1 view .LVU378
 1930 0d6c 54109FE5 		ldr	r1, .L142+28
 1931 0d70 263EA0E3 		mov	r3, #608
 1932 0d74 50009FE5 		ldr	r0, .L142+32
 1933              	.LVL141:
 608:/home/hkh/git/eapidk-code-r76-trunk/apps/EeePProg/linux/../EeePProg.c **** 
 1934              		.loc 1 608 3 is_stmt 0 discriminator 1 view .LVU379
ARM GAS  /tmp/ccqui9DH.s 			page 51


 1935 0d78 50209FE5 		ldr	r2, .L142+36
 1936              	.LPIC112:
 1937 0d7c 01108FE0 		add	r1, pc, r1
 1938 0d80 00408DE5 		str	r4, [sp]
 1939 0d84 04108DE5 		str	r1, [sp, #4]
 1940              	.LPIC111:
 1941 0d88 00008FE0 		add	r0, pc, r0
 1942 0d8c 40109FE5 		ldr	r1, .L142+40
 1943              	.LPIC109:
 1944 0d90 02208FE0 		add	r2, pc, r2
 1945 0d94 08008DE5 		str	r0, [sp, #8]
 1946 0d98 4500A0E3 		mov	r0, #69
 1947              	.LPIC110:
 1948 0d9c 01108FE0 		add	r1, pc, r1
 1949 0da0 FEFFFFEB 		bl	siFormattedMessage_SC(PLT)
 1950              	.LVL142:
 608:/home/hkh/git/eapidk-code-r76-trunk/apps/EeePProg/linux/../EeePProg.c **** 
 1951              		.loc 1 608 3 is_stmt 1 discriminator 1 view .LVU380
 1952 0da4 D3FFFFEA 		b	.L133
 1953              	.L141:
 1954              		.loc 1 613 1 is_stmt 0 view .LVU381
 1955 0da8 FEFFFFEB 		bl	__stack_chk_fail(PLT)
 1956              	.LVL143:
 1957              	.L143:
 1958              		.align	2
 1959              	.L142:
 1960 0dac F4000000 		.word	_GLOBAL_OFFSET_TABLE_-(.LPIC114+8)
 1961 0db0 00000000 		.word	__stack_chk_guard(GOT)
 1962 0db4 A4000000 		.word	_GLOBAL_OFFSET_TABLE_-(.LPIC113+8)
 1963 0db8 70000000 		.word	.LC3-(.LPIC108+8)
 1964 0dbc 68000000 		.word	.LC26-(.LPIC107+8)
 1965 0dc0 64000000 		.word	.LC0-(.LPIC105+8)
 1966 0dc4 5C000000 		.word	.LC1-(.LPIC106+8)
 1967 0dc8 44000000 		.word	.LC3-(.LPIC112+8)
 1968 0dcc 3C000000 		.word	.LC24-(.LPIC111+8)
 1969 0dd0 38000000 		.word	.LC0-(.LPIC109+8)
 1970 0dd4 30000000 		.word	.LC1-(.LPIC110+8)
 1971              		.cfi_endproc
 1972              	.LFE20:
 1974              		.section	.rodata.str1.4
 1975 0607 00       		.align	2
 1976              	.LC27:
 1977 0608 45656550 		.ascii	"EeePReadBufferFromEEP( &BHandel, (uint16_t)((I2CAdd"
 1977      52656164 
 1977      42756666 
 1977      65724672 
 1977      6F6D4545 
 1978 063b 72436667 		.ascii	"rCfg_t*)pArgData)->I2CBus, (uint16_t)((I2CAddrCfg_t"
 1978      5F742A29 
 1978      70417267 
 1978      44617461 
 1978      292D3E49 
 1979 066e 2A297041 		.ascii	"*)pArgData)->I2CDevAddr )\000"
 1979      72674461 
 1979      7461292D 
 1979      3E493243 
 1979      44657641 
ARM GAS  /tmp/ccqui9DH.s 			page 52


 1980              		.align	2
 1981              	.LC28:
 1982 0688 45656550 		.ascii	"EeePListBlocks( BHandel, 0)\000"
 1982      4C697374 
 1982      426C6F63 
 1982      6B732820 
 1982      4248616E 
 1983              		.text
 1984              		.align	2
 1985              		.global	CMD_ListDBlocksEeePExt_EEP
 1986              		.syntax unified
 1987              		.arm
 1988              		.fpu vfpv3
 1990              	CMD_ListDBlocksEeePExt_EEP:
 1991              	.LVL144:
 1992              	.LFB15:
 525:/home/hkh/git/eapidk-code-r76-trunk/apps/EeePProg/linux/../EeePProg.c ****   EApiStatus_t StatusCode=EAPI_STATUS_SUCCESS;
 1993              		.loc 1 525 1 is_stmt 1 view -0
 1994              		.cfi_startproc
 1995              		@ args = 0, pretend = 0, frame = 8
 1996              		@ frame_needed = 0, uses_anonymous_args = 0
 525:/home/hkh/git/eapidk-code-r76-trunk/apps/EeePProg/linux/../EeePProg.c ****   EApiStatus_t StatusCode=EAPI_STATUS_SUCCESS;
 1997              		.loc 1 525 1 is_stmt 0 view .LVU383
 1998 0dd8 08C19FE5 		ldr	ip, .L155
 527:/home/hkh/git/eapidk-code-r76-trunk/apps/EeePProg/linux/../EeePProg.c ****   DO(EeePReadBufferFromEEP(
 1999              		.loc 1 527 16 view .LVU384
 2000 0ddc 0030A0E3 		mov	r3, #0
 528:/home/hkh/git/eapidk-code-r76-trunk/apps/EeePProg/linux/../EeePProg.c ****           &BHandel, 
 2001              		.loc 1 528 3 view .LVU385
 2002 0de0 B420D0E1 		ldrh	r2, [r0, #4]
 2003 0de4 B010D0E1 		ldrh	r1, [r0]
 525:/home/hkh/git/eapidk-code-r76-trunk/apps/EeePProg/linux/../EeePProg.c ****   EApiStatus_t StatusCode=EAPI_STATUS_SUCCESS;
 2004              		.loc 1 525 1 view .LVU386
 2005 0de8 FC009FE5 		ldr	r0, .L155+4
 2006              	.LVL145:
 525:/home/hkh/git/eapidk-code-r76-trunk/apps/EeePProg/linux/../EeePProg.c ****   EApiStatus_t StatusCode=EAPI_STATUS_SUCCESS;
 2007              		.loc 1 525 1 view .LVU387
 2008              	.LPIC124:
 2009 0dec 0CC08FE0 		add	ip, pc, ip
 2010 0df0 30402DE9 		push	{r4, r5, lr}
 2011              		.cfi_def_cfa_offset 12
 2012              		.cfi_offset 4, -12
 2013              		.cfi_offset 5, -8
 2014              		.cfi_offset 14, -4
 2015 0df4 1CD04DE2 		sub	sp, sp, #28
 2016              		.cfi_def_cfa_offset 40
 528:/home/hkh/git/eapidk-code-r76-trunk/apps/EeePProg/linux/../EeePProg.c ****           &BHandel, 
 2017              		.loc 1 528 3 view .LVU388
 2018 0df8 10508DE2 		add	r5, sp, #16
 525:/home/hkh/git/eapidk-code-r76-trunk/apps/EeePProg/linux/../EeePProg.c ****   EApiStatus_t StatusCode=EAPI_STATUS_SUCCESS;
 2019              		.loc 1 525 1 view .LVU389
 2020 0dfc 00009CE7 		ldr	r0, [ip, r0]
 2021 0e00 000090E5 		ldr	r0, [r0]
 2022 0e04 14008DE5 		str	r0, [sp, #20]
 2023 0e08 0000A0E3 		mov	r0, #0
 526:/home/hkh/git/eapidk-code-r76-trunk/apps/EeePProg/linux/../EeePProg.c ****   EeePHandel_t BHandel=NULL;
 2024              		.loc 1 526 3 is_stmt 1 view .LVU390
ARM GAS  /tmp/ccqui9DH.s 			page 53


 2025              	.LVL146:
 527:/home/hkh/git/eapidk-code-r76-trunk/apps/EeePProg/linux/../EeePProg.c ****   DO(EeePReadBufferFromEEP(
 2026              		.loc 1 527 3 view .LVU391
 528:/home/hkh/git/eapidk-code-r76-trunk/apps/EeePProg/linux/../EeePProg.c ****           &BHandel, 
 2027              		.loc 1 528 3 is_stmt 0 view .LVU392
 2028 0e0c 0500A0E1 		mov	r0, r5
 527:/home/hkh/git/eapidk-code-r76-trunk/apps/EeePProg/linux/../EeePProg.c ****   DO(EeePReadBufferFromEEP(
 2029              		.loc 1 527 16 view .LVU393
 2030 0e10 10308DE5 		str	r3, [sp, #16]
 528:/home/hkh/git/eapidk-code-r76-trunk/apps/EeePProg/linux/../EeePProg.c ****           &BHandel, 
 2031              		.loc 1 528 3 is_stmt 1 view .LVU394
 528:/home/hkh/git/eapidk-code-r76-trunk/apps/EeePProg/linux/../EeePProg.c ****           &BHandel, 
 2032              		.loc 1 528 3 view .LVU395
 2033 0e14 FEFFFFEB 		bl	EeePReadBufferFromEEP(PLT)
 2034              	.LVL147:
 528:/home/hkh/git/eapidk-code-r76-trunk/apps/EeePProg/linux/../EeePProg.c ****           &BHandel, 
 2035              		.loc 1 528 3 view .LVU396
 2036 0e18 004050E2 		subs	r4, r0, #0
 2037 0e1c 1200001A 		bne	.L152
 528:/home/hkh/git/eapidk-code-r76-trunk/apps/EeePProg/linux/../EeePProg.c ****           &BHandel, 
 2038              		.loc 1 528 3 discriminator 2 view .LVU397
 533:/home/hkh/git/eapidk-code-r76-trunk/apps/EeePProg/linux/../EeePProg.c **** 
 2039              		.loc 1 533 3 discriminator 2 view .LVU398
 533:/home/hkh/git/eapidk-code-r76-trunk/apps/EeePProg/linux/../EeePProg.c **** 
 2040              		.loc 1 533 3 discriminator 2 view .LVU399
 2041 0e20 0410A0E1 		mov	r1, r4
 2042 0e24 10009DE5 		ldr	r0, [sp, #16]
 2043              	.LVL148:
 533:/home/hkh/git/eapidk-code-r76-trunk/apps/EeePProg/linux/../EeePProg.c **** 
 2044              		.loc 1 533 3 is_stmt 0 discriminator 2 view .LVU400
 2045 0e28 FEFFFFEB 		bl	EeePListBlocks(PLT)
 2046              	.LVL149:
 533:/home/hkh/git/eapidk-code-r76-trunk/apps/EeePProg/linux/../EeePProg.c **** 
 2047              		.loc 1 533 3 is_stmt 1 discriminator 2 view .LVU401
 2048 0e2c 004050E2 		subs	r4, r0, #0
 2049 0e30 1C00001A 		bne	.L153
 2050              	.LVL150:
 2051              	.L146:
 533:/home/hkh/git/eapidk-code-r76-trunk/apps/EeePProg/linux/../EeePProg.c **** 
 2052              		.loc 1 533 3 discriminator 3 view .LVU402
 536:/home/hkh/git/eapidk-code-r76-trunk/apps/EeePProg/linux/../EeePProg.c ****   return StatusCode;
 2053              		.loc 1 536 3 discriminator 3 view .LVU403
 2054 0e34 0500A0E1 		mov	r0, r5
 2055 0e38 FEFFFFEB 		bl	EeePFreeBuffer(PLT)
 2056              	.LVL151:
 537:/home/hkh/git/eapidk-code-r76-trunk/apps/EeePProg/linux/../EeePProg.c **** }
 2057              		.loc 1 537 3 discriminator 3 view .LVU404
 525:/home/hkh/git/eapidk-code-r76-trunk/apps/EeePProg/linux/../EeePProg.c ****   EApiStatus_t StatusCode=EAPI_STATUS_SUCCESS;
 2058              		.loc 1 525 1 is_stmt 0 discriminator 3 view .LVU405
 2059 0e3c AC209FE5 		ldr	r2, .L155+8
 538:/home/hkh/git/eapidk-code-r76-trunk/apps/EeePProg/linux/../EeePProg.c **** 
 2060              		.loc 1 538 1 discriminator 3 view .LVU406
 2061 0e40 A4309FE5 		ldr	r3, .L155+4
 525:/home/hkh/git/eapidk-code-r76-trunk/apps/EeePProg/linux/../EeePProg.c ****   EApiStatus_t StatusCode=EAPI_STATUS_SUCCESS;
 2062              		.loc 1 525 1 discriminator 3 view .LVU407
 2063              	.LPIC123:
 2064 0e44 02208FE0 		add	r2, pc, r2
ARM GAS  /tmp/ccqui9DH.s 			page 54


 538:/home/hkh/git/eapidk-code-r76-trunk/apps/EeePProg/linux/../EeePProg.c **** 
 2065              		.loc 1 538 1 discriminator 3 view .LVU408
 2066 0e48 033092E7 		ldr	r3, [r2, r3]
 2067 0e4c 002093E5 		ldr	r2, [r3]
 2068 0e50 14309DE5 		ldr	r3, [sp, #20]
 2069 0e54 022033E0 		eors	r2, r3, r2
 2070 0e58 0030A0E3 		mov	r3, #0
 2071 0e5c 2000001A 		bne	.L154
 538:/home/hkh/git/eapidk-code-r76-trunk/apps/EeePProg/linux/../EeePProg.c **** 
 2072              		.loc 1 538 1 view .LVU409
 2073 0e60 0400A0E1 		mov	r0, r4
 2074 0e64 1CD08DE2 		add	sp, sp, #28
 2075              		.cfi_remember_state
 2076              		.cfi_def_cfa_offset 12
 2077              		@ sp needed
 2078 0e68 3080BDE8 		pop	{r4, r5, pc}
 2079              	.LVL152:
 2080              	.L152:
 2081              		.cfi_restore_state
 528:/home/hkh/git/eapidk-code-r76-trunk/apps/EeePProg/linux/../EeePProg.c ****           &BHandel, 
 2082              		.loc 1 528 3 is_stmt 1 discriminator 1 view .LVU410
 2083 0e6c 80109FE5 		ldr	r1, .L155+12
 2084 0e70 213EA0E3 		mov	r3, #528
 2085 0e74 7C009FE5 		ldr	r0, .L155+16
 2086              	.LVL153:
 528:/home/hkh/git/eapidk-code-r76-trunk/apps/EeePProg/linux/../EeePProg.c ****           &BHandel, 
 2087              		.loc 1 528 3 is_stmt 0 discriminator 1 view .LVU411
 2088 0e78 7C209FE5 		ldr	r2, .L155+20
 2089              	.LPIC118:
 2090 0e7c 01108FE0 		add	r1, pc, r1
 2091 0e80 00408DE5 		str	r4, [sp]
 2092 0e84 04108DE5 		str	r1, [sp, #4]
 2093              	.LPIC117:
 2094 0e88 00008FE0 		add	r0, pc, r0
 2095 0e8c 6C109FE5 		ldr	r1, .L155+24
 2096              	.LPIC115:
 2097 0e90 02208FE0 		add	r2, pc, r2
 2098 0e94 08008DE5 		str	r0, [sp, #8]
 2099 0e98 4500A0E3 		mov	r0, #69
 2100              	.LPIC116:
 2101 0e9c 01108FE0 		add	r1, pc, r1
 2102 0ea0 FEFFFFEB 		bl	siFormattedMessage_SC(PLT)
 2103              	.LVL154:
 528:/home/hkh/git/eapidk-code-r76-trunk/apps/EeePProg/linux/../EeePProg.c ****           &BHandel, 
 2104              		.loc 1 528 3 is_stmt 1 discriminator 1 view .LVU412
 2105 0ea4 E2FFFFEA 		b	.L146
 2106              	.LVL155:
 2107              	.L153:
 533:/home/hkh/git/eapidk-code-r76-trunk/apps/EeePProg/linux/../EeePProg.c **** 
 2108              		.loc 1 533 3 discriminator 1 view .LVU413
 2109 0ea8 54109FE5 		ldr	r1, .L155+28
 2110 0eac 153200E3 		movw	r3, #533
 2111 0eb0 50009FE5 		ldr	r0, .L155+32
 2112              	.LVL156:
 533:/home/hkh/git/eapidk-code-r76-trunk/apps/EeePProg/linux/../EeePProg.c **** 
 2113              		.loc 1 533 3 is_stmt 0 discriminator 1 view .LVU414
 2114 0eb4 50209FE5 		ldr	r2, .L155+36
ARM GAS  /tmp/ccqui9DH.s 			page 55


 2115              	.LPIC122:
 2116 0eb8 01108FE0 		add	r1, pc, r1
 2117 0ebc 00408DE5 		str	r4, [sp]
 2118 0ec0 04108DE5 		str	r1, [sp, #4]
 2119              	.LPIC121:
 2120 0ec4 00008FE0 		add	r0, pc, r0
 2121 0ec8 40109FE5 		ldr	r1, .L155+40
 2122              	.LPIC119:
 2123 0ecc 02208FE0 		add	r2, pc, r2
 2124 0ed0 08008DE5 		str	r0, [sp, #8]
 2125 0ed4 4500A0E3 		mov	r0, #69
 2126              	.LPIC120:
 2127 0ed8 01108FE0 		add	r1, pc, r1
 2128 0edc FEFFFFEB 		bl	siFormattedMessage_SC(PLT)
 2129              	.LVL157:
 533:/home/hkh/git/eapidk-code-r76-trunk/apps/EeePProg/linux/../EeePProg.c **** 
 2130              		.loc 1 533 3 is_stmt 1 discriminator 1 view .LVU415
 2131 0ee0 D3FFFFEA 		b	.L146
 2132              	.L154:
 538:/home/hkh/git/eapidk-code-r76-trunk/apps/EeePProg/linux/../EeePProg.c **** 
 2133              		.loc 1 538 1 is_stmt 0 view .LVU416
 2134 0ee4 FEFFFFEB 		bl	__stack_chk_fail(PLT)
 2135              	.LVL158:
 2136              	.L156:
 2137              		.align	2
 2138              	.L155:
 2139 0ee8 F4000000 		.word	_GLOBAL_OFFSET_TABLE_-(.LPIC124+8)
 2140 0eec 00000000 		.word	__stack_chk_guard(GOT)
 2141 0ef0 A4000000 		.word	_GLOBAL_OFFSET_TABLE_-(.LPIC123+8)
 2142 0ef4 70000000 		.word	.LC3-(.LPIC118+8)
 2143 0ef8 68000000 		.word	.LC27-(.LPIC117+8)
 2144 0efc 64000000 		.word	.LC0-(.LPIC115+8)
 2145 0f00 5C000000 		.word	.LC1-(.LPIC116+8)
 2146 0f04 44000000 		.word	.LC3-(.LPIC122+8)
 2147 0f08 3C000000 		.word	.LC28-(.LPIC121+8)
 2148 0f0c 38000000 		.word	.LC0-(.LPIC119+8)
 2149 0f10 30000000 		.word	.LC1-(.LPIC120+8)
 2150              		.cfi_endproc
 2151              	.LFE15:
 2153              		.align	2
 2154              		.global	CMD_ListDBlocks_IMG
 2155              		.syntax unified
 2156              		.arm
 2157              		.fpu vfpv3
 2159              	CMD_ListDBlocks_IMG:
 2160              	.LVL159:
 2161              	.LFB21:
 614:/home/hkh/git/eapidk-code-r76-trunk/apps/EeePProg/linux/../EeePProg.c **** 
 615:/home/hkh/git/eapidk-code-r76-trunk/apps/EeePProg/linux/../EeePProg.c **** EApiStatus_t 
 616:/home/hkh/git/eapidk-code-r76-trunk/apps/EeePProg/linux/../EeePProg.c **** CMD_ListDBlocks_IMG(
 617:/home/hkh/git/eapidk-code-r76-trunk/apps/EeePProg/linux/../EeePProg.c ****     void *pArgData
 618:/home/hkh/git/eapidk-code-r76-trunk/apps/EeePProg/linux/../EeePProg.c ****     )
 619:/home/hkh/git/eapidk-code-r76-trunk/apps/EeePProg/linux/../EeePProg.c **** {
 2162              		.loc 1 619 1 is_stmt 1 view -0
 2163              		.cfi_startproc
 2164              		@ args = 0, pretend = 0, frame = 8
 2165              		@ frame_needed = 0, uses_anonymous_args = 0
ARM GAS  /tmp/ccqui9DH.s 			page 56


 2166              		.loc 1 619 1 is_stmt 0 view .LVU418
 2167 0f14 04C19FE5 		ldr	ip, .L168
 620:/home/hkh/git/eapidk-code-r76-trunk/apps/EeePProg/linux/../EeePProg.c ****   EApiStatus_t StatusCode=EAPI_STATUS_SUCCESS;
 621:/home/hkh/git/eapidk-code-r76-trunk/apps/EeePProg/linux/../EeePProg.c ****   EeePHandel_t BHandel=NULL;
 2168              		.loc 1 621 16 view .LVU419
 2169 0f18 0030A0E3 		mov	r3, #0
 619:/home/hkh/git/eapidk-code-r76-trunk/apps/EeePProg/linux/../EeePProg.c ****   EApiStatus_t StatusCode=EAPI_STATUS_SUCCESS;
 2170              		.loc 1 619 1 view .LVU420
 2171 0f1c 00219FE5 		ldr	r2, .L168+4
 2172 0f20 30402DE9 		push	{r4, r5, lr}
 2173              		.cfi_def_cfa_offset 12
 2174              		.cfi_offset 4, -12
 2175              		.cfi_offset 5, -8
 2176              		.cfi_offset 14, -4
 2177 0f24 1CD04DE2 		sub	sp, sp, #28
 2178              		.cfi_def_cfa_offset 40
 619:/home/hkh/git/eapidk-code-r76-trunk/apps/EeePProg/linux/../EeePProg.c ****   EApiStatus_t StatusCode=EAPI_STATUS_SUCCESS;
 2179              		.loc 1 619 1 view .LVU421
 2180              	.LPIC134:
 2181 0f28 0CC08FE0 		add	ip, pc, ip
 622:/home/hkh/git/eapidk-code-r76-trunk/apps/EeePProg/linux/../EeePProg.c **** 
 623:/home/hkh/git/eapidk-code-r76-trunk/apps/EeePProg/linux/../EeePProg.c ****   DO(EeePReadBufferFromFile(
 2182              		.loc 1 623 3 view .LVU422
 2183 0f2c 10508DE2 		add	r5, sp, #16
 619:/home/hkh/git/eapidk-code-r76-trunk/apps/EeePProg/linux/../EeePProg.c ****   EApiStatus_t StatusCode=EAPI_STATUS_SUCCESS;
 2184              		.loc 1 619 1 view .LVU423
 2185 0f30 02209CE7 		ldr	r2, [ip, r2]
 2186              		.loc 1 623 3 view .LVU424
 2187 0f34 001090E5 		ldr	r1, [r0]
 2188 0f38 0500A0E1 		mov	r0, r5
 619:/home/hkh/git/eapidk-code-r76-trunk/apps/EeePProg/linux/../EeePProg.c ****   EApiStatus_t StatusCode=EAPI_STATUS_SUCCESS;
 2189              		.loc 1 619 1 view .LVU425
 2190 0f3c 002092E5 		ldr	r2, [r2]
 2191 0f40 14208DE5 		str	r2, [sp, #20]
 2192 0f44 0020A0E3 		mov	r2, #0
 620:/home/hkh/git/eapidk-code-r76-trunk/apps/EeePProg/linux/../EeePProg.c ****   EeePHandel_t BHandel=NULL;
 2193              		.loc 1 620 3 is_stmt 1 view .LVU426
 2194              	.LVL160:
 621:/home/hkh/git/eapidk-code-r76-trunk/apps/EeePProg/linux/../EeePProg.c **** 
 2195              		.loc 1 621 3 view .LVU427
 621:/home/hkh/git/eapidk-code-r76-trunk/apps/EeePProg/linux/../EeePProg.c **** 
 2196              		.loc 1 621 16 is_stmt 0 view .LVU428
 2197 0f48 10308DE5 		str	r3, [sp, #16]
 2198              		.loc 1 623 3 is_stmt 1 view .LVU429
 2199              		.loc 1 623 3 view .LVU430
 2200 0f4c FEFFFFEB 		bl	EeePReadBufferFromFile(PLT)
 2201              	.LVL161:
 2202              		.loc 1 623 3 view .LVU431
 2203 0f50 004050E2 		subs	r4, r0, #0
 2204 0f54 1200001A 		bne	.L165
 2205              		.loc 1 623 3 discriminator 2 view .LVU432
 624:/home/hkh/git/eapidk-code-r76-trunk/apps/EeePProg/linux/../EeePProg.c ****         &BHandel                              ,
 625:/home/hkh/git/eapidk-code-r76-trunk/apps/EeePProg/linux/../EeePProg.c ****         *(char**)pArgData
 626:/home/hkh/git/eapidk-code-r76-trunk/apps/EeePProg/linux/../EeePProg.c ****       ));
 627:/home/hkh/git/eapidk-code-r76-trunk/apps/EeePProg/linux/../EeePProg.c ****   DO(EeePListBlocks( BHandel, 0));
 2206              		.loc 1 627 3 discriminator 2 view .LVU433
 2207              		.loc 1 627 3 discriminator 2 view .LVU434
ARM GAS  /tmp/ccqui9DH.s 			page 57


 2208 0f58 0410A0E1 		mov	r1, r4
 2209 0f5c 10009DE5 		ldr	r0, [sp, #16]
 2210              	.LVL162:
 2211              		.loc 1 627 3 is_stmt 0 discriminator 2 view .LVU435
 2212 0f60 FEFFFFEB 		bl	EeePListBlocks(PLT)
 2213              	.LVL163:
 2214              		.loc 1 627 3 is_stmt 1 discriminator 2 view .LVU436
 2215 0f64 004050E2 		subs	r4, r0, #0
 2216 0f68 1C00001A 		bne	.L166
 2217              	.LVL164:
 2218              	.L159:
 2219              		.loc 1 627 3 discriminator 3 view .LVU437
 628:/home/hkh/git/eapidk-code-r76-trunk/apps/EeePProg/linux/../EeePProg.c **** 
 629:/home/hkh/git/eapidk-code-r76-trunk/apps/EeePProg/linux/../EeePProg.c **** EAPI_APP_ASSERT_EXIT
 630:/home/hkh/git/eapidk-code-r76-trunk/apps/EeePProg/linux/../EeePProg.c ****   EeePFreeBuffer(&BHandel);
 2220              		.loc 1 630 3 discriminator 3 view .LVU438
 2221 0f6c 0500A0E1 		mov	r0, r5
 2222 0f70 FEFFFFEB 		bl	EeePFreeBuffer(PLT)
 2223              	.LVL165:
 631:/home/hkh/git/eapidk-code-r76-trunk/apps/EeePProg/linux/../EeePProg.c ****   return StatusCode;
 2224              		.loc 1 631 3 discriminator 3 view .LVU439
 619:/home/hkh/git/eapidk-code-r76-trunk/apps/EeePProg/linux/../EeePProg.c ****   EApiStatus_t StatusCode=EAPI_STATUS_SUCCESS;
 2225              		.loc 1 619 1 is_stmt 0 discriminator 3 view .LVU440
 2226 0f74 AC209FE5 		ldr	r2, .L168+8
 632:/home/hkh/git/eapidk-code-r76-trunk/apps/EeePProg/linux/../EeePProg.c **** }
 2227              		.loc 1 632 1 discriminator 3 view .LVU441
 2228 0f78 A4309FE5 		ldr	r3, .L168+4
 619:/home/hkh/git/eapidk-code-r76-trunk/apps/EeePProg/linux/../EeePProg.c ****   EApiStatus_t StatusCode=EAPI_STATUS_SUCCESS;
 2229              		.loc 1 619 1 discriminator 3 view .LVU442
 2230              	.LPIC133:
 2231 0f7c 02208FE0 		add	r2, pc, r2
 2232              		.loc 1 632 1 discriminator 3 view .LVU443
 2233 0f80 033092E7 		ldr	r3, [r2, r3]
 2234 0f84 002093E5 		ldr	r2, [r3]
 2235 0f88 14309DE5 		ldr	r3, [sp, #20]
 2236 0f8c 022033E0 		eors	r2, r3, r2
 2237 0f90 0030A0E3 		mov	r3, #0
 2238 0f94 2000001A 		bne	.L167
 2239              		.loc 1 632 1 view .LVU444
 2240 0f98 0400A0E1 		mov	r0, r4
 2241 0f9c 1CD08DE2 		add	sp, sp, #28
 2242              		.cfi_remember_state
 2243              		.cfi_def_cfa_offset 12
 2244              		@ sp needed
 2245 0fa0 3080BDE8 		pop	{r4, r5, pc}
 2246              	.LVL166:
 2247              	.L165:
 2248              		.cfi_restore_state
 623:/home/hkh/git/eapidk-code-r76-trunk/apps/EeePProg/linux/../EeePProg.c ****         &BHandel                              ,
 2249              		.loc 1 623 3 is_stmt 1 discriminator 1 view .LVU445
 2250 0fa4 80109FE5 		ldr	r1, .L168+12
 2251 0fa8 6F3200E3 		movw	r3, #623
 2252 0fac 7C009FE5 		ldr	r0, .L168+16
 2253              	.LVL167:
 623:/home/hkh/git/eapidk-code-r76-trunk/apps/EeePProg/linux/../EeePProg.c ****         &BHandel                              ,
 2254              		.loc 1 623 3 is_stmt 0 discriminator 1 view .LVU446
 2255 0fb0 7C209FE5 		ldr	r2, .L168+20
ARM GAS  /tmp/ccqui9DH.s 			page 58


 2256              	.LPIC128:
 2257 0fb4 01108FE0 		add	r1, pc, r1
 2258 0fb8 00408DE5 		str	r4, [sp]
 2259 0fbc 04108DE5 		str	r1, [sp, #4]
 2260              	.LPIC127:
 2261 0fc0 00008FE0 		add	r0, pc, r0
 2262 0fc4 6C109FE5 		ldr	r1, .L168+24
 2263              	.LPIC125:
 2264 0fc8 02208FE0 		add	r2, pc, r2
 2265 0fcc 08008DE5 		str	r0, [sp, #8]
 2266 0fd0 4500A0E3 		mov	r0, #69
 2267              	.LPIC126:
 2268 0fd4 01108FE0 		add	r1, pc, r1
 2269 0fd8 FEFFFFEB 		bl	siFormattedMessage_SC(PLT)
 2270              	.LVL168:
 623:/home/hkh/git/eapidk-code-r76-trunk/apps/EeePProg/linux/../EeePProg.c ****         &BHandel                              ,
 2271              		.loc 1 623 3 is_stmt 1 discriminator 1 view .LVU447
 2272 0fdc E2FFFFEA 		b	.L159
 2273              	.LVL169:
 2274              	.L166:
 627:/home/hkh/git/eapidk-code-r76-trunk/apps/EeePProg/linux/../EeePProg.c **** 
 2275              		.loc 1 627 3 discriminator 1 view .LVU448
 2276 0fe0 54109FE5 		ldr	r1, .L168+28
 2277 0fe4 733200E3 		movw	r3, #627
 2278 0fe8 50009FE5 		ldr	r0, .L168+32
 2279              	.LVL170:
 627:/home/hkh/git/eapidk-code-r76-trunk/apps/EeePProg/linux/../EeePProg.c **** 
 2280              		.loc 1 627 3 is_stmt 0 discriminator 1 view .LVU449
 2281 0fec 50209FE5 		ldr	r2, .L168+36
 2282              	.LPIC132:
 2283 0ff0 01108FE0 		add	r1, pc, r1
 2284 0ff4 00408DE5 		str	r4, [sp]
 2285 0ff8 04108DE5 		str	r1, [sp, #4]
 2286              	.LPIC131:
 2287 0ffc 00008FE0 		add	r0, pc, r0
 2288 1000 40109FE5 		ldr	r1, .L168+40
 2289              	.LPIC129:
 2290 1004 02208FE0 		add	r2, pc, r2
 2291 1008 08008DE5 		str	r0, [sp, #8]
 2292 100c 4500A0E3 		mov	r0, #69
 2293              	.LPIC130:
 2294 1010 01108FE0 		add	r1, pc, r1
 2295 1014 FEFFFFEB 		bl	siFormattedMessage_SC(PLT)
 2296              	.LVL171:
 627:/home/hkh/git/eapidk-code-r76-trunk/apps/EeePProg/linux/../EeePProg.c **** 
 2297              		.loc 1 627 3 is_stmt 1 discriminator 1 view .LVU450
 2298 1018 D3FFFFEA 		b	.L159
 2299              	.L167:
 2300              		.loc 1 632 1 is_stmt 0 view .LVU451
 2301 101c FEFFFFEB 		bl	__stack_chk_fail(PLT)
 2302              	.LVL172:
 2303              	.L169:
 2304              		.align	2
 2305              	.L168:
 2306 1020 F0000000 		.word	_GLOBAL_OFFSET_TABLE_-(.LPIC134+8)
 2307 1024 00000000 		.word	__stack_chk_guard(GOT)
 2308 1028 A4000000 		.word	_GLOBAL_OFFSET_TABLE_-(.LPIC133+8)
ARM GAS  /tmp/ccqui9DH.s 			page 59


 2309 102c 70000000 		.word	.LC3-(.LPIC128+8)
 2310 1030 68000000 		.word	.LC9-(.LPIC127+8)
 2311 1034 64000000 		.word	.LC0-(.LPIC125+8)
 2312 1038 5C000000 		.word	.LC1-(.LPIC126+8)
 2313 103c 44000000 		.word	.LC3-(.LPIC132+8)
 2314 1040 3C000000 		.word	.LC28-(.LPIC131+8)
 2315 1044 38000000 		.word	.LC0-(.LPIC129+8)
 2316 1048 30000000 		.word	.LC1-(.LPIC130+8)
 2317              		.cfi_endproc
 2318              	.LFE21:
 2320              		.align	2
 2321              		.global	CMD_ListDBlocksCOM0R20_CB_EEP
 2322              		.syntax unified
 2323              		.arm
 2324              		.fpu vfpv3
 2326              	CMD_ListDBlocksCOM0R20_CB_EEP:
 2327              	.LVL173:
 2328              	.LFB16:
 545:/home/hkh/git/eapidk-code-r76-trunk/apps/EeePProg/linux/../EeePProg.c ****   I2CAddrCfg_t DevDesc={EAPI_ID_I2C_EXTERNAL, COM0R20_CB_EEP_DEV_ADDR};
 2329              		.loc 1 545 1 is_stmt 1 view -0
 2330              		.cfi_startproc
 2331              		@ args = 0, pretend = 0, frame = 8
 2332              		@ frame_needed = 0, uses_anonymous_args = 0
 545:/home/hkh/git/eapidk-code-r76-trunk/apps/EeePProg/linux/../EeePProg.c ****   I2CAddrCfg_t DevDesc={EAPI_ID_I2C_EXTERNAL, COM0R20_CB_EEP_DEV_ADDR};
 2333              		.loc 1 545 1 is_stmt 0 view .LVU453
 2334 104c 04C19FE5 		ldr	ip, .L181
 2335              	.LBB4:
 2336              	.LBB5:
 527:/home/hkh/git/eapidk-code-r76-trunk/apps/EeePProg/linux/../EeePProg.c ****   DO(EeePReadBufferFromEEP(
 2337              		.loc 1 527 16 view .LVU454
 2338 1050 0010A0E3 		mov	r1, #0
 2339              	.LBE5:
 2340              	.LBE4:
 545:/home/hkh/git/eapidk-code-r76-trunk/apps/EeePProg/linux/../EeePProg.c ****   I2CAddrCfg_t DevDesc={EAPI_ID_I2C_EXTERNAL, COM0R20_CB_EEP_DEV_ADDR};
 2341              		.loc 1 545 1 view .LVU455
 2342 1054 00319FE5 		ldr	r3, .L181+4
 2343              	.LBB10:
 2344              	.LBB6:
 528:/home/hkh/git/eapidk-code-r76-trunk/apps/EeePProg/linux/../EeePProg.c ****           &BHandel, 
 2345              		.loc 1 528 3 view .LVU456
 2346 1058 AE20A0E3 		mov	r2, #174
 2347              	.LBE6:
 2348              	.LBE10:
 545:/home/hkh/git/eapidk-code-r76-trunk/apps/EeePProg/linux/../EeePProg.c ****   I2CAddrCfg_t DevDesc={EAPI_ID_I2C_EXTERNAL, COM0R20_CB_EEP_DEV_ADDR};
 2349              		.loc 1 545 1 view .LVU457
 2350 105c 30402DE9 		push	{r4, r5, lr}
 2351              		.cfi_def_cfa_offset 12
 2352              		.cfi_offset 4, -12
 2353              		.cfi_offset 5, -8
 2354              		.cfi_offset 14, -4
 2355 1060 1CD04DE2 		sub	sp, sp, #28
 2356              		.cfi_def_cfa_offset 40
 545:/home/hkh/git/eapidk-code-r76-trunk/apps/EeePProg/linux/../EeePProg.c ****   I2CAddrCfg_t DevDesc={EAPI_ID_I2C_EXTERNAL, COM0R20_CB_EEP_DEV_ADDR};
 2357              		.loc 1 545 1 view .LVU458
 2358              	.LPIC144:
 2359 1064 0CC08FE0 		add	ip, pc, ip
 2360              	.LBB11:
ARM GAS  /tmp/ccqui9DH.s 			page 60


 2361              	.LBB7:
 528:/home/hkh/git/eapidk-code-r76-trunk/apps/EeePProg/linux/../EeePProg.c ****           &BHandel, 
 2362              		.loc 1 528 3 view .LVU459
 2363 1068 10508DE2 		add	r5, sp, #16
 2364 106c 0500A0E1 		mov	r0, r5
 2365              	.LBE7:
 2366              	.LBE11:
 545:/home/hkh/git/eapidk-code-r76-trunk/apps/EeePProg/linux/../EeePProg.c ****   I2CAddrCfg_t DevDesc={EAPI_ID_I2C_EXTERNAL, COM0R20_CB_EEP_DEV_ADDR};
 2367              		.loc 1 545 1 view .LVU460
 2368 1070 03309CE7 		ldr	r3, [ip, r3]
 2369 1074 003093E5 		ldr	r3, [r3]
 2370 1078 14308DE5 		str	r3, [sp, #20]
 2371 107c 0030A0E3 		mov	r3, #0
 546:/home/hkh/git/eapidk-code-r76-trunk/apps/EeePProg/linux/../EeePProg.c ****   pArgData=pArgData;
 2372              		.loc 1 546 3 is_stmt 1 view .LVU461
 547:/home/hkh/git/eapidk-code-r76-trunk/apps/EeePProg/linux/../EeePProg.c ****   return CMD_ListDBlocksEeePExt_EEP(&DevDesc);
 2373              		.loc 1 547 3 view .LVU462
 548:/home/hkh/git/eapidk-code-r76-trunk/apps/EeePProg/linux/../EeePProg.c **** }
 2374              		.loc 1 548 3 view .LVU463
 2375              	.LVL174:
 2376              	.LBB12:
 2377              	.LBI4:
 522:/home/hkh/git/eapidk-code-r76-trunk/apps/EeePProg/linux/../EeePProg.c ****     void *pArgData
 2378              		.loc 1 522 1 view .LVU464
 2379              	.LBB8:
 526:/home/hkh/git/eapidk-code-r76-trunk/apps/EeePProg/linux/../EeePProg.c ****   EeePHandel_t BHandel=NULL;
 2380              		.loc 1 526 3 view .LVU465
 527:/home/hkh/git/eapidk-code-r76-trunk/apps/EeePProg/linux/../EeePProg.c ****   DO(EeePReadBufferFromEEP(
 2381              		.loc 1 527 3 view .LVU466
 527:/home/hkh/git/eapidk-code-r76-trunk/apps/EeePProg/linux/../EeePProg.c ****   DO(EeePReadBufferFromEEP(
 2382              		.loc 1 527 16 is_stmt 0 view .LVU467
 2383 1080 10108DE5 		str	r1, [sp, #16]
 528:/home/hkh/git/eapidk-code-r76-trunk/apps/EeePProg/linux/../EeePProg.c ****           &BHandel, 
 2384              		.loc 1 528 3 is_stmt 1 view .LVU468
 528:/home/hkh/git/eapidk-code-r76-trunk/apps/EeePProg/linux/../EeePProg.c ****           &BHandel, 
 2385              		.loc 1 528 3 view .LVU469
 2386 1084 FEFFFFEB 		bl	EeePReadBufferFromEEP(PLT)
 2387              	.LVL175:
 528:/home/hkh/git/eapidk-code-r76-trunk/apps/EeePProg/linux/../EeePProg.c ****           &BHandel, 
 2388              		.loc 1 528 3 view .LVU470
 2389 1088 004050E2 		subs	r4, r0, #0
 2390 108c 1200001A 		bne	.L178
 528:/home/hkh/git/eapidk-code-r76-trunk/apps/EeePProg/linux/../EeePProg.c ****           &BHandel, 
 2391              		.loc 1 528 3 view .LVU471
 533:/home/hkh/git/eapidk-code-r76-trunk/apps/EeePProg/linux/../EeePProg.c **** 
 2392              		.loc 1 533 3 view .LVU472
 533:/home/hkh/git/eapidk-code-r76-trunk/apps/EeePProg/linux/../EeePProg.c **** 
 2393              		.loc 1 533 3 view .LVU473
 2394 1090 0410A0E1 		mov	r1, r4
 2395 1094 10009DE5 		ldr	r0, [sp, #16]
 2396              	.LVL176:
 533:/home/hkh/git/eapidk-code-r76-trunk/apps/EeePProg/linux/../EeePProg.c **** 
 2397              		.loc 1 533 3 is_stmt 0 view .LVU474
 2398 1098 FEFFFFEB 		bl	EeePListBlocks(PLT)
 2399              	.LVL177:
 533:/home/hkh/git/eapidk-code-r76-trunk/apps/EeePProg/linux/../EeePProg.c **** 
 2400              		.loc 1 533 3 is_stmt 1 view .LVU475
ARM GAS  /tmp/ccqui9DH.s 			page 61


 2401 109c 004050E2 		subs	r4, r0, #0
 2402 10a0 1C00001A 		bne	.L179
 2403              	.LVL178:
 2404              	.L172:
 533:/home/hkh/git/eapidk-code-r76-trunk/apps/EeePProg/linux/../EeePProg.c **** 
 2405              		.loc 1 533 3 view .LVU476
 536:/home/hkh/git/eapidk-code-r76-trunk/apps/EeePProg/linux/../EeePProg.c ****   return StatusCode;
 2406              		.loc 1 536 3 view .LVU477
 2407 10a4 0500A0E1 		mov	r0, r5
 2408 10a8 FEFFFFEB 		bl	EeePFreeBuffer(PLT)
 2409              	.LVL179:
 537:/home/hkh/git/eapidk-code-r76-trunk/apps/EeePProg/linux/../EeePProg.c **** }
 2410              		.loc 1 537 3 view .LVU478
 537:/home/hkh/git/eapidk-code-r76-trunk/apps/EeePProg/linux/../EeePProg.c **** }
 2411              		.loc 1 537 3 is_stmt 0 view .LVU479
 2412              	.LBE8:
 2413              	.LBE12:
 545:/home/hkh/git/eapidk-code-r76-trunk/apps/EeePProg/linux/../EeePProg.c ****   I2CAddrCfg_t DevDesc={EAPI_ID_I2C_EXTERNAL, COM0R20_CB_EEP_DEV_ADDR};
 2414              		.loc 1 545 1 view .LVU480
 2415 10ac AC209FE5 		ldr	r2, .L181+8
 549:/home/hkh/git/eapidk-code-r76-trunk/apps/EeePProg/linux/../EeePProg.c **** EApiStatus_t 
 2416              		.loc 1 549 1 view .LVU481
 2417 10b0 A4309FE5 		ldr	r3, .L181+4
 545:/home/hkh/git/eapidk-code-r76-trunk/apps/EeePProg/linux/../EeePProg.c ****   I2CAddrCfg_t DevDesc={EAPI_ID_I2C_EXTERNAL, COM0R20_CB_EEP_DEV_ADDR};
 2418              		.loc 1 545 1 view .LVU482
 2419              	.LPIC143:
 2420 10b4 02208FE0 		add	r2, pc, r2
 549:/home/hkh/git/eapidk-code-r76-trunk/apps/EeePProg/linux/../EeePProg.c **** EApiStatus_t 
 2421              		.loc 1 549 1 view .LVU483
 2422 10b8 033092E7 		ldr	r3, [r2, r3]
 2423 10bc 002093E5 		ldr	r2, [r3]
 2424 10c0 14309DE5 		ldr	r3, [sp, #20]
 2425 10c4 022033E0 		eors	r2, r3, r2
 2426 10c8 0030A0E3 		mov	r3, #0
 2427 10cc 2000001A 		bne	.L180
 2428 10d0 0400A0E1 		mov	r0, r4
 2429 10d4 1CD08DE2 		add	sp, sp, #28
 2430              		.cfi_remember_state
 2431              		.cfi_def_cfa_offset 12
 2432              		@ sp needed
 2433 10d8 3080BDE8 		pop	{r4, r5, pc}
 2434              	.LVL180:
 2435              	.L178:
 2436              		.cfi_restore_state
 2437              	.LBB13:
 2438              	.LBB9:
 528:/home/hkh/git/eapidk-code-r76-trunk/apps/EeePProg/linux/../EeePProg.c ****           &BHandel, 
 2439              		.loc 1 528 3 is_stmt 1 view .LVU484
 2440 10dc 80109FE5 		ldr	r1, .L181+12
 2441 10e0 213EA0E3 		mov	r3, #528
 2442 10e4 7C009FE5 		ldr	r0, .L181+16
 2443              	.LVL181:
 528:/home/hkh/git/eapidk-code-r76-trunk/apps/EeePProg/linux/../EeePProg.c ****           &BHandel, 
 2444              		.loc 1 528 3 is_stmt 0 view .LVU485
 2445 10e8 7C209FE5 		ldr	r2, .L181+20
 2446              	.LPIC138:
 2447 10ec 01108FE0 		add	r1, pc, r1
ARM GAS  /tmp/ccqui9DH.s 			page 62


 2448 10f0 00408DE5 		str	r4, [sp]
 2449 10f4 04108DE5 		str	r1, [sp, #4]
 2450              	.LPIC137:
 2451 10f8 00008FE0 		add	r0, pc, r0
 2452 10fc 6C109FE5 		ldr	r1, .L181+24
 2453              	.LPIC135:
 2454 1100 02208FE0 		add	r2, pc, r2
 2455 1104 08008DE5 		str	r0, [sp, #8]
 2456 1108 4500A0E3 		mov	r0, #69
 2457              	.LPIC136:
 2458 110c 01108FE0 		add	r1, pc, r1
 2459 1110 FEFFFFEB 		bl	siFormattedMessage_SC(PLT)
 2460              	.LVL182:
 528:/home/hkh/git/eapidk-code-r76-trunk/apps/EeePProg/linux/../EeePProg.c ****           &BHandel, 
 2461              		.loc 1 528 3 is_stmt 1 view .LVU486
 2462 1114 E2FFFFEA 		b	.L172
 2463              	.LVL183:
 2464              	.L179:
 533:/home/hkh/git/eapidk-code-r76-trunk/apps/EeePProg/linux/../EeePProg.c **** 
 2465              		.loc 1 533 3 view .LVU487
 2466 1118 54109FE5 		ldr	r1, .L181+28
 2467 111c 153200E3 		movw	r3, #533
 2468 1120 50009FE5 		ldr	r0, .L181+32
 2469              	.LVL184:
 533:/home/hkh/git/eapidk-code-r76-trunk/apps/EeePProg/linux/../EeePProg.c **** 
 2470              		.loc 1 533 3 is_stmt 0 view .LVU488
 2471 1124 50209FE5 		ldr	r2, .L181+36
 2472              	.LPIC142:
 2473 1128 01108FE0 		add	r1, pc, r1
 2474 112c 00408DE5 		str	r4, [sp]
 2475 1130 04108DE5 		str	r1, [sp, #4]
 2476              	.LPIC141:
 2477 1134 00008FE0 		add	r0, pc, r0
 2478 1138 40109FE5 		ldr	r1, .L181+40
 2479              	.LPIC139:
 2480 113c 02208FE0 		add	r2, pc, r2
 2481 1140 08008DE5 		str	r0, [sp, #8]
 2482 1144 4500A0E3 		mov	r0, #69
 2483              	.LPIC140:
 2484 1148 01108FE0 		add	r1, pc, r1
 2485 114c FEFFFFEB 		bl	siFormattedMessage_SC(PLT)
 2486              	.LVL185:
 533:/home/hkh/git/eapidk-code-r76-trunk/apps/EeePProg/linux/../EeePProg.c **** 
 2487              		.loc 1 533 3 is_stmt 1 view .LVU489
 2488 1150 D3FFFFEA 		b	.L172
 2489              	.LVL186:
 2490              	.L180:
 533:/home/hkh/git/eapidk-code-r76-trunk/apps/EeePProg/linux/../EeePProg.c **** 
 2491              		.loc 1 533 3 is_stmt 0 view .LVU490
 2492              	.LBE9:
 2493              	.LBE13:
 549:/home/hkh/git/eapidk-code-r76-trunk/apps/EeePProg/linux/../EeePProg.c **** EApiStatus_t 
 2494              		.loc 1 549 1 view .LVU491
 2495 1154 FEFFFFEB 		bl	__stack_chk_fail(PLT)
 2496              	.LVL187:
 2497              	.L182:
 2498              		.align	2
ARM GAS  /tmp/ccqui9DH.s 			page 63


 2499              	.L181:
 2500 1158 EC000000 		.word	_GLOBAL_OFFSET_TABLE_-(.LPIC144+8)
 2501 115c 00000000 		.word	__stack_chk_guard(GOT)
 2502 1160 A4000000 		.word	_GLOBAL_OFFSET_TABLE_-(.LPIC143+8)
 2503 1164 70000000 		.word	.LC3-(.LPIC138+8)
 2504 1168 68000000 		.word	.LC27-(.LPIC137+8)
 2505 116c 64000000 		.word	.LC0-(.LPIC135+8)
 2506 1170 5C000000 		.word	.LC1-(.LPIC136+8)
 2507 1174 44000000 		.word	.LC3-(.LPIC142+8)
 2508 1178 3C000000 		.word	.LC28-(.LPIC141+8)
 2509 117c 38000000 		.word	.LC0-(.LPIC139+8)
 2510 1180 30000000 		.word	.LC1-(.LPIC140+8)
 2511              		.cfi_endproc
 2512              	.LFE16:
 2514              		.align	2
 2515              		.global	CMD_ListDBlocksCOM0R20_M_EEP
 2516              		.syntax unified
 2517              		.arm
 2518              		.fpu vfpv3
 2520              	CMD_ListDBlocksCOM0R20_M_EEP:
 2521              	.LVL188:
 2522              	.LFB17:
 554:/home/hkh/git/eapidk-code-r76-trunk/apps/EeePProg/linux/../EeePProg.c ****   I2CAddrCfg_t DevDesc={EAPI_ID_I2C_EXTERNAL, COM0R20_M_EEP_DEV_ADDR};
 2523              		.loc 1 554 1 is_stmt 1 view -0
 2524              		.cfi_startproc
 2525              		@ args = 0, pretend = 0, frame = 8
 2526              		@ frame_needed = 0, uses_anonymous_args = 0
 554:/home/hkh/git/eapidk-code-r76-trunk/apps/EeePProg/linux/../EeePProg.c ****   I2CAddrCfg_t DevDesc={EAPI_ID_I2C_EXTERNAL, COM0R20_M_EEP_DEV_ADDR};
 2527              		.loc 1 554 1 is_stmt 0 view .LVU493
 2528 1184 04C19FE5 		ldr	ip, .L194
 2529              	.LBB16:
 2530              	.LBB17:
 527:/home/hkh/git/eapidk-code-r76-trunk/apps/EeePProg/linux/../EeePProg.c ****   DO(EeePReadBufferFromEEP(
 2531              		.loc 1 527 16 view .LVU494
 2532 1188 0010A0E3 		mov	r1, #0
 2533              	.LBE17:
 2534              	.LBE16:
 554:/home/hkh/git/eapidk-code-r76-trunk/apps/EeePProg/linux/../EeePProg.c ****   I2CAddrCfg_t DevDesc={EAPI_ID_I2C_EXTERNAL, COM0R20_M_EEP_DEV_ADDR};
 2535              		.loc 1 554 1 view .LVU495
 2536 118c 00319FE5 		ldr	r3, .L194+4
 2537              	.LBB22:
 2538              	.LBB18:
 528:/home/hkh/git/eapidk-code-r76-trunk/apps/EeePProg/linux/../EeePProg.c ****           &BHandel, 
 2539              		.loc 1 528 3 view .LVU496
 2540 1190 A020A0E3 		mov	r2, #160
 2541              	.LBE18:
 2542              	.LBE22:
 554:/home/hkh/git/eapidk-code-r76-trunk/apps/EeePProg/linux/../EeePProg.c ****   I2CAddrCfg_t DevDesc={EAPI_ID_I2C_EXTERNAL, COM0R20_M_EEP_DEV_ADDR};
 2543              		.loc 1 554 1 view .LVU497
 2544 1194 30402DE9 		push	{r4, r5, lr}
 2545              		.cfi_def_cfa_offset 12
 2546              		.cfi_offset 4, -12
 2547              		.cfi_offset 5, -8
 2548              		.cfi_offset 14, -4
 2549 1198 1CD04DE2 		sub	sp, sp, #28
 2550              		.cfi_def_cfa_offset 40
 554:/home/hkh/git/eapidk-code-r76-trunk/apps/EeePProg/linux/../EeePProg.c ****   I2CAddrCfg_t DevDesc={EAPI_ID_I2C_EXTERNAL, COM0R20_M_EEP_DEV_ADDR};
ARM GAS  /tmp/ccqui9DH.s 			page 64


 2551              		.loc 1 554 1 view .LVU498
 2552              	.LPIC154:
 2553 119c 0CC08FE0 		add	ip, pc, ip
 2554              	.LBB23:
 2555              	.LBB19:
 528:/home/hkh/git/eapidk-code-r76-trunk/apps/EeePProg/linux/../EeePProg.c ****           &BHandel, 
 2556              		.loc 1 528 3 view .LVU499
 2557 11a0 10508DE2 		add	r5, sp, #16
 2558 11a4 0500A0E1 		mov	r0, r5
 2559              	.LBE19:
 2560              	.LBE23:
 554:/home/hkh/git/eapidk-code-r76-trunk/apps/EeePProg/linux/../EeePProg.c ****   I2CAddrCfg_t DevDesc={EAPI_ID_I2C_EXTERNAL, COM0R20_M_EEP_DEV_ADDR};
 2561              		.loc 1 554 1 view .LVU500
 2562 11a8 03309CE7 		ldr	r3, [ip, r3]
 2563 11ac 003093E5 		ldr	r3, [r3]
 2564 11b0 14308DE5 		str	r3, [sp, #20]
 2565 11b4 0030A0E3 		mov	r3, #0
 555:/home/hkh/git/eapidk-code-r76-trunk/apps/EeePProg/linux/../EeePProg.c ****   pArgData=pArgData;
 2566              		.loc 1 555 3 is_stmt 1 view .LVU501
 556:/home/hkh/git/eapidk-code-r76-trunk/apps/EeePProg/linux/../EeePProg.c ****   return CMD_ListDBlocksEeePExt_EEP(&DevDesc);
 2567              		.loc 1 556 3 view .LVU502
 557:/home/hkh/git/eapidk-code-r76-trunk/apps/EeePProg/linux/../EeePProg.c **** }
 2568              		.loc 1 557 3 view .LVU503
 2569              	.LVL189:
 2570              	.LBB24:
 2571              	.LBI16:
 522:/home/hkh/git/eapidk-code-r76-trunk/apps/EeePProg/linux/../EeePProg.c ****     void *pArgData
 2572              		.loc 1 522 1 view .LVU504
 2573              	.LBB20:
 526:/home/hkh/git/eapidk-code-r76-trunk/apps/EeePProg/linux/../EeePProg.c ****   EeePHandel_t BHandel=NULL;
 2574              		.loc 1 526 3 view .LVU505
 527:/home/hkh/git/eapidk-code-r76-trunk/apps/EeePProg/linux/../EeePProg.c ****   DO(EeePReadBufferFromEEP(
 2575              		.loc 1 527 3 view .LVU506
 527:/home/hkh/git/eapidk-code-r76-trunk/apps/EeePProg/linux/../EeePProg.c ****   DO(EeePReadBufferFromEEP(
 2576              		.loc 1 527 16 is_stmt 0 view .LVU507
 2577 11b8 10108DE5 		str	r1, [sp, #16]
 528:/home/hkh/git/eapidk-code-r76-trunk/apps/EeePProg/linux/../EeePProg.c ****           &BHandel, 
 2578              		.loc 1 528 3 is_stmt 1 view .LVU508
 528:/home/hkh/git/eapidk-code-r76-trunk/apps/EeePProg/linux/../EeePProg.c ****           &BHandel, 
 2579              		.loc 1 528 3 view .LVU509
 2580 11bc FEFFFFEB 		bl	EeePReadBufferFromEEP(PLT)
 2581              	.LVL190:
 528:/home/hkh/git/eapidk-code-r76-trunk/apps/EeePProg/linux/../EeePProg.c ****           &BHandel, 
 2582              		.loc 1 528 3 view .LVU510
 2583 11c0 004050E2 		subs	r4, r0, #0
 2584 11c4 1200001A 		bne	.L191
 528:/home/hkh/git/eapidk-code-r76-trunk/apps/EeePProg/linux/../EeePProg.c ****           &BHandel, 
 2585              		.loc 1 528 3 view .LVU511
 533:/home/hkh/git/eapidk-code-r76-trunk/apps/EeePProg/linux/../EeePProg.c **** 
 2586              		.loc 1 533 3 view .LVU512
 533:/home/hkh/git/eapidk-code-r76-trunk/apps/EeePProg/linux/../EeePProg.c **** 
 2587              		.loc 1 533 3 view .LVU513
 2588 11c8 0410A0E1 		mov	r1, r4
 2589 11cc 10009DE5 		ldr	r0, [sp, #16]
 2590              	.LVL191:
 533:/home/hkh/git/eapidk-code-r76-trunk/apps/EeePProg/linux/../EeePProg.c **** 
 2591              		.loc 1 533 3 is_stmt 0 view .LVU514
ARM GAS  /tmp/ccqui9DH.s 			page 65


 2592 11d0 FEFFFFEB 		bl	EeePListBlocks(PLT)
 2593              	.LVL192:
 533:/home/hkh/git/eapidk-code-r76-trunk/apps/EeePProg/linux/../EeePProg.c **** 
 2594              		.loc 1 533 3 is_stmt 1 view .LVU515
 2595 11d4 004050E2 		subs	r4, r0, #0
 2596 11d8 1C00001A 		bne	.L192
 2597              	.LVL193:
 2598              	.L185:
 533:/home/hkh/git/eapidk-code-r76-trunk/apps/EeePProg/linux/../EeePProg.c **** 
 2599              		.loc 1 533 3 view .LVU516
 536:/home/hkh/git/eapidk-code-r76-trunk/apps/EeePProg/linux/../EeePProg.c ****   return StatusCode;
 2600              		.loc 1 536 3 view .LVU517
 2601 11dc 0500A0E1 		mov	r0, r5
 2602 11e0 FEFFFFEB 		bl	EeePFreeBuffer(PLT)
 2603              	.LVL194:
 537:/home/hkh/git/eapidk-code-r76-trunk/apps/EeePProg/linux/../EeePProg.c **** }
 2604              		.loc 1 537 3 view .LVU518
 537:/home/hkh/git/eapidk-code-r76-trunk/apps/EeePProg/linux/../EeePProg.c **** }
 2605              		.loc 1 537 3 is_stmt 0 view .LVU519
 2606              	.LBE20:
 2607              	.LBE24:
 554:/home/hkh/git/eapidk-code-r76-trunk/apps/EeePProg/linux/../EeePProg.c ****   I2CAddrCfg_t DevDesc={EAPI_ID_I2C_EXTERNAL, COM0R20_M_EEP_DEV_ADDR};
 2608              		.loc 1 554 1 view .LVU520
 2609 11e4 AC209FE5 		ldr	r2, .L194+8
 558:/home/hkh/git/eapidk-code-r76-trunk/apps/EeePProg/linux/../EeePProg.c **** 
 2610              		.loc 1 558 1 view .LVU521
 2611 11e8 A4309FE5 		ldr	r3, .L194+4
 554:/home/hkh/git/eapidk-code-r76-trunk/apps/EeePProg/linux/../EeePProg.c ****   I2CAddrCfg_t DevDesc={EAPI_ID_I2C_EXTERNAL, COM0R20_M_EEP_DEV_ADDR};
 2612              		.loc 1 554 1 view .LVU522
 2613              	.LPIC153:
 2614 11ec 02208FE0 		add	r2, pc, r2
 558:/home/hkh/git/eapidk-code-r76-trunk/apps/EeePProg/linux/../EeePProg.c **** 
 2615              		.loc 1 558 1 view .LVU523
 2616 11f0 033092E7 		ldr	r3, [r2, r3]
 2617 11f4 002093E5 		ldr	r2, [r3]
 2618 11f8 14309DE5 		ldr	r3, [sp, #20]
 2619 11fc 022033E0 		eors	r2, r3, r2
 2620 1200 0030A0E3 		mov	r3, #0
 2621 1204 2000001A 		bne	.L193
 2622 1208 0400A0E1 		mov	r0, r4
 2623 120c 1CD08DE2 		add	sp, sp, #28
 2624              		.cfi_remember_state
 2625              		.cfi_def_cfa_offset 12
 2626              		@ sp needed
 2627 1210 3080BDE8 		pop	{r4, r5, pc}
 2628              	.LVL195:
 2629              	.L191:
 2630              		.cfi_restore_state
 2631              	.LBB25:
 2632              	.LBB21:
 528:/home/hkh/git/eapidk-code-r76-trunk/apps/EeePProg/linux/../EeePProg.c ****           &BHandel, 
 2633              		.loc 1 528 3 is_stmt 1 view .LVU524
 2634 1214 80109FE5 		ldr	r1, .L194+12
 2635 1218 213EA0E3 		mov	r3, #528
 2636 121c 7C009FE5 		ldr	r0, .L194+16
 2637              	.LVL196:
 528:/home/hkh/git/eapidk-code-r76-trunk/apps/EeePProg/linux/../EeePProg.c ****           &BHandel, 
ARM GAS  /tmp/ccqui9DH.s 			page 66


 2638              		.loc 1 528 3 is_stmt 0 view .LVU525
 2639 1220 7C209FE5 		ldr	r2, .L194+20
 2640              	.LPIC148:
 2641 1224 01108FE0 		add	r1, pc, r1
 2642 1228 00408DE5 		str	r4, [sp]
 2643 122c 04108DE5 		str	r1, [sp, #4]
 2644              	.LPIC147:
 2645 1230 00008FE0 		add	r0, pc, r0
 2646 1234 6C109FE5 		ldr	r1, .L194+24
 2647              	.LPIC145:
 2648 1238 02208FE0 		add	r2, pc, r2
 2649 123c 08008DE5 		str	r0, [sp, #8]
 2650 1240 4500A0E3 		mov	r0, #69
 2651              	.LPIC146:
 2652 1244 01108FE0 		add	r1, pc, r1
 2653 1248 FEFFFFEB 		bl	siFormattedMessage_SC(PLT)
 2654              	.LVL197:
 528:/home/hkh/git/eapidk-code-r76-trunk/apps/EeePProg/linux/../EeePProg.c ****           &BHandel, 
 2655              		.loc 1 528 3 is_stmt 1 view .LVU526
 2656 124c E2FFFFEA 		b	.L185
 2657              	.LVL198:
 2658              	.L192:
 533:/home/hkh/git/eapidk-code-r76-trunk/apps/EeePProg/linux/../EeePProg.c **** 
 2659              		.loc 1 533 3 view .LVU527
 2660 1250 54109FE5 		ldr	r1, .L194+28
 2661 1254 153200E3 		movw	r3, #533
 2662 1258 50009FE5 		ldr	r0, .L194+32
 2663              	.LVL199:
 533:/home/hkh/git/eapidk-code-r76-trunk/apps/EeePProg/linux/../EeePProg.c **** 
 2664              		.loc 1 533 3 is_stmt 0 view .LVU528
 2665 125c 50209FE5 		ldr	r2, .L194+36
 2666              	.LPIC152:
 2667 1260 01108FE0 		add	r1, pc, r1
 2668 1264 00408DE5 		str	r4, [sp]
 2669 1268 04108DE5 		str	r1, [sp, #4]
 2670              	.LPIC151:
 2671 126c 00008FE0 		add	r0, pc, r0
 2672 1270 40109FE5 		ldr	r1, .L194+40
 2673              	.LPIC149:
 2674 1274 02208FE0 		add	r2, pc, r2
 2675 1278 08008DE5 		str	r0, [sp, #8]
 2676 127c 4500A0E3 		mov	r0, #69
 2677              	.LPIC150:
 2678 1280 01108FE0 		add	r1, pc, r1
 2679 1284 FEFFFFEB 		bl	siFormattedMessage_SC(PLT)
 2680              	.LVL200:
 533:/home/hkh/git/eapidk-code-r76-trunk/apps/EeePProg/linux/../EeePProg.c **** 
 2681              		.loc 1 533 3 is_stmt 1 view .LVU529
 2682 1288 D3FFFFEA 		b	.L185
 2683              	.LVL201:
 2684              	.L193:
 533:/home/hkh/git/eapidk-code-r76-trunk/apps/EeePProg/linux/../EeePProg.c **** 
 2685              		.loc 1 533 3 is_stmt 0 view .LVU530
 2686              	.LBE21:
 2687              	.LBE25:
 558:/home/hkh/git/eapidk-code-r76-trunk/apps/EeePProg/linux/../EeePProg.c **** 
 2688              		.loc 1 558 1 view .LVU531
ARM GAS  /tmp/ccqui9DH.s 			page 67


 2689 128c FEFFFFEB 		bl	__stack_chk_fail(PLT)
 2690              	.LVL202:
 2691              	.L195:
 2692              		.align	2
 2693              	.L194:
 2694 1290 EC000000 		.word	_GLOBAL_OFFSET_TABLE_-(.LPIC154+8)
 2695 1294 00000000 		.word	__stack_chk_guard(GOT)
 2696 1298 A4000000 		.word	_GLOBAL_OFFSET_TABLE_-(.LPIC153+8)
 2697 129c 70000000 		.word	.LC3-(.LPIC148+8)
 2698 12a0 68000000 		.word	.LC27-(.LPIC147+8)
 2699 12a4 64000000 		.word	.LC0-(.LPIC145+8)
 2700 12a8 5C000000 		.word	.LC1-(.LPIC146+8)
 2701 12ac 44000000 		.word	.LC3-(.LPIC152+8)
 2702 12b0 3C000000 		.word	.LC28-(.LPIC151+8)
 2703 12b4 38000000 		.word	.LC0-(.LPIC149+8)
 2704 12b8 30000000 		.word	.LC1-(.LPIC150+8)
 2705              		.cfi_endproc
 2706              	.LFE17:
 2708              		.align	2
 2709              		.global	CMD_StoreCOM0R20_CB_EEP
 2710              		.syntax unified
 2711              		.arm
 2712              		.fpu vfpv3
 2714              	CMD_StoreCOM0R20_CB_EEP:
 2715              	.LVL203:
 2716              	.LFB13:
 505:/home/hkh/git/eapidk-code-r76-trunk/apps/EeePProg/linux/../EeePProg.c ****   WriteEepCfg_t WriteEep={NULL, EAPI_ID_I2C_EXTERNAL, COM0R20_CB_EEP_DEV_ADDR};
 2717              		.loc 1 505 1 is_stmt 1 view -0
 2718              		.cfi_startproc
 2719              		@ args = 0, pretend = 0, frame = 8
 2720              		@ frame_needed = 0, uses_anonymous_args = 0
 505:/home/hkh/git/eapidk-code-r76-trunk/apps/EeePProg/linux/../EeePProg.c ****   WriteEepCfg_t WriteEep={NULL, EAPI_ID_I2C_EXTERNAL, COM0R20_CB_EEP_DEV_ADDR};
 2721              		.loc 1 505 1 is_stmt 0 view .LVU533
 2722 12bc 70402DE9 		push	{r4, r5, r6, lr}
 2723              		.cfi_def_cfa_offset 16
 2724              		.cfi_offset 4, -16
 2725              		.cfi_offset 5, -12
 2726              		.cfi_offset 6, -8
 2727              		.cfi_offset 14, -4
 2728 12c0 18D04DE2 		sub	sp, sp, #24
 2729              		.cfi_def_cfa_offset 40
 507:/home/hkh/git/eapidk-code-r76-trunk/apps/EeePProg/linux/../EeePProg.c ****   return CMD_StoreEeePExt_EEP(&WriteEep);
 2730              		.loc 1 507 21 view .LVU534
 2731 12c4 006090E5 		ldr	r6, [r0]
 2732              	.LBB28:
 2733              	.LBB29:
 489:/home/hkh/git/eapidk-code-r76-trunk/apps/EeePProg/linux/../EeePProg.c ****           &BHandel, 
 2734              		.loc 1 489 3 view .LVU535
 2735 12c8 10508DE2 		add	r5, sp, #16
 488:/home/hkh/git/eapidk-code-r76-trunk/apps/EeePProg/linux/../EeePProg.c ****   DO(EeePReadBufferFromEEP(
 2736              		.loc 1 488 16 view .LVU536
 2737 12cc 0010A0E3 		mov	r1, #0
 489:/home/hkh/git/eapidk-code-r76-trunk/apps/EeePProg/linux/../EeePProg.c ****           &BHandel, 
 2738              		.loc 1 489 3 view .LVU537
 2739 12d0 AE20A0E3 		mov	r2, #174
 2740              	.LBE29:
 2741              	.LBE28:
ARM GAS  /tmp/ccqui9DH.s 			page 68


 505:/home/hkh/git/eapidk-code-r76-trunk/apps/EeePProg/linux/../EeePProg.c ****   WriteEepCfg_t WriteEep={NULL, EAPI_ID_I2C_EXTERNAL, COM0R20_CB_EEP_DEV_ADDR};
 2742              		.loc 1 505 1 view .LVU538
 2743 12d4 F0009FE5 		ldr	r0, .L207
 2744              	.LVL204:
 505:/home/hkh/git/eapidk-code-r76-trunk/apps/EeePProg/linux/../EeePProg.c ****   WriteEepCfg_t WriteEep={NULL, EAPI_ID_I2C_EXTERNAL, COM0R20_CB_EEP_DEV_ADDR};
 2745              		.loc 1 505 1 view .LVU539
 2746 12d8 F0309FE5 		ldr	r3, .L207+4
 2747              	.LPIC164:
 2748 12dc 00008FE0 		add	r0, pc, r0
 2749 12e0 033090E7 		ldr	r3, [r0, r3]
 2750              	.LBB33:
 2751              	.LBB30:
 489:/home/hkh/git/eapidk-code-r76-trunk/apps/EeePProg/linux/../EeePProg.c ****           &BHandel, 
 2752              		.loc 1 489 3 view .LVU540
 2753 12e4 0500A0E1 		mov	r0, r5
 2754              	.LBE30:
 2755              	.LBE33:
 505:/home/hkh/git/eapidk-code-r76-trunk/apps/EeePProg/linux/../EeePProg.c ****   WriteEepCfg_t WriteEep={NULL, EAPI_ID_I2C_EXTERNAL, COM0R20_CB_EEP_DEV_ADDR};
 2756              		.loc 1 505 1 view .LVU541
 2757 12e8 003093E5 		ldr	r3, [r3]
 2758 12ec 14308DE5 		str	r3, [sp, #20]
 2759 12f0 0030A0E3 		mov	r3, #0
 506:/home/hkh/git/eapidk-code-r76-trunk/apps/EeePProg/linux/../EeePProg.c ****   WriteEep.FileName=*(char**)pArgData;
 2760              		.loc 1 506 3 is_stmt 1 view .LVU542
 507:/home/hkh/git/eapidk-code-r76-trunk/apps/EeePProg/linux/../EeePProg.c ****   return CMD_StoreEeePExt_EEP(&WriteEep);
 2761              		.loc 1 507 3 view .LVU543
 508:/home/hkh/git/eapidk-code-r76-trunk/apps/EeePProg/linux/../EeePProg.c **** }
 2762              		.loc 1 508 3 view .LVU544
 2763              	.LVL205:
 2764              	.LBB34:
 2765              	.LBI28:
 483:/home/hkh/git/eapidk-code-r76-trunk/apps/EeePProg/linux/../EeePProg.c ****     void *pArgData
 2766              		.loc 1 483 1 view .LVU545
 2767              	.LBB31:
 487:/home/hkh/git/eapidk-code-r76-trunk/apps/EeePProg/linux/../EeePProg.c ****   EeePHandel_t BHandel=NULL;
 2768              		.loc 1 487 3 view .LVU546
 488:/home/hkh/git/eapidk-code-r76-trunk/apps/EeePProg/linux/../EeePProg.c ****   DO(EeePReadBufferFromEEP(
 2769              		.loc 1 488 3 view .LVU547
 488:/home/hkh/git/eapidk-code-r76-trunk/apps/EeePProg/linux/../EeePProg.c ****   DO(EeePReadBufferFromEEP(
 2770              		.loc 1 488 16 is_stmt 0 view .LVU548
 2771 12f4 10108DE5 		str	r1, [sp, #16]
 489:/home/hkh/git/eapidk-code-r76-trunk/apps/EeePProg/linux/../EeePProg.c ****           &BHandel, 
 2772              		.loc 1 489 3 is_stmt 1 view .LVU549
 489:/home/hkh/git/eapidk-code-r76-trunk/apps/EeePProg/linux/../EeePProg.c ****           &BHandel, 
 2773              		.loc 1 489 3 view .LVU550
 2774 12f8 FEFFFFEB 		bl	EeePReadBufferFromEEP(PLT)
 2775              	.LVL206:
 489:/home/hkh/git/eapidk-code-r76-trunk/apps/EeePProg/linux/../EeePProg.c ****           &BHandel, 
 2776              		.loc 1 489 3 view .LVU551
 2777 12fc 004050E2 		subs	r4, r0, #0
 2778 1300 1200001A 		bne	.L204
 489:/home/hkh/git/eapidk-code-r76-trunk/apps/EeePProg/linux/../EeePProg.c ****           &BHandel, 
 2779              		.loc 1 489 3 view .LVU552
 494:/home/hkh/git/eapidk-code-r76-trunk/apps/EeePProg/linux/../EeePProg.c **** 
 2780              		.loc 1 494 3 view .LVU553
 494:/home/hkh/git/eapidk-code-r76-trunk/apps/EeePProg/linux/../EeePProg.c **** 
 2781              		.loc 1 494 3 view .LVU554
ARM GAS  /tmp/ccqui9DH.s 			page 69


 2782 1304 10009DE5 		ldr	r0, [sp, #16]
 2783              	.LVL207:
 494:/home/hkh/git/eapidk-code-r76-trunk/apps/EeePProg/linux/../EeePProg.c **** 
 2784              		.loc 1 494 3 is_stmt 0 view .LVU555
 2785 1308 0610A0E1 		mov	r1, r6
 2786 130c FEFFFFEB 		bl	EeePWriteBufferToFile(PLT)
 2787              	.LVL208:
 494:/home/hkh/git/eapidk-code-r76-trunk/apps/EeePProg/linux/../EeePProg.c **** 
 2788              		.loc 1 494 3 is_stmt 1 view .LVU556
 2789 1310 004050E2 		subs	r4, r0, #0
 2790 1314 1C00001A 		bne	.L205
 2791              	.LVL209:
 2792              	.L198:
 494:/home/hkh/git/eapidk-code-r76-trunk/apps/EeePProg/linux/../EeePProg.c **** 
 2793              		.loc 1 494 3 view .LVU557
 497:/home/hkh/git/eapidk-code-r76-trunk/apps/EeePProg/linux/../EeePProg.c ****   return StatusCode;
 2794              		.loc 1 497 3 view .LVU558
 2795 1318 0500A0E1 		mov	r0, r5
 2796 131c FEFFFFEB 		bl	EeePFreeBuffer(PLT)
 2797              	.LVL210:
 498:/home/hkh/git/eapidk-code-r76-trunk/apps/EeePProg/linux/../EeePProg.c **** }
 2798              		.loc 1 498 3 view .LVU559
 498:/home/hkh/git/eapidk-code-r76-trunk/apps/EeePProg/linux/../EeePProg.c **** }
 2799              		.loc 1 498 3 is_stmt 0 view .LVU560
 2800              	.LBE31:
 2801              	.LBE34:
 505:/home/hkh/git/eapidk-code-r76-trunk/apps/EeePProg/linux/../EeePProg.c ****   WriteEepCfg_t WriteEep={NULL, EAPI_ID_I2C_EXTERNAL, COM0R20_CB_EEP_DEV_ADDR};
 2802              		.loc 1 505 1 view .LVU561
 2803 1320 AC209FE5 		ldr	r2, .L207+8
 509:/home/hkh/git/eapidk-code-r76-trunk/apps/EeePProg/linux/../EeePProg.c **** 
 2804              		.loc 1 509 1 view .LVU562
 2805 1324 A4309FE5 		ldr	r3, .L207+4
 505:/home/hkh/git/eapidk-code-r76-trunk/apps/EeePProg/linux/../EeePProg.c ****   WriteEepCfg_t WriteEep={NULL, EAPI_ID_I2C_EXTERNAL, COM0R20_CB_EEP_DEV_ADDR};
 2806              		.loc 1 505 1 view .LVU563
 2807              	.LPIC163:
 2808 1328 02208FE0 		add	r2, pc, r2
 509:/home/hkh/git/eapidk-code-r76-trunk/apps/EeePProg/linux/../EeePProg.c **** 
 2809              		.loc 1 509 1 view .LVU564
 2810 132c 033092E7 		ldr	r3, [r2, r3]
 2811 1330 002093E5 		ldr	r2, [r3]
 2812 1334 14309DE5 		ldr	r3, [sp, #20]
 2813 1338 022033E0 		eors	r2, r3, r2
 2814 133c 0030A0E3 		mov	r3, #0
 2815 1340 2000001A 		bne	.L206
 2816 1344 0400A0E1 		mov	r0, r4
 2817 1348 18D08DE2 		add	sp, sp, #24
 2818              		.cfi_remember_state
 2819              		.cfi_def_cfa_offset 16
 2820              		@ sp needed
 2821 134c 7080BDE8 		pop	{r4, r5, r6, pc}
 2822              	.LVL211:
 2823              	.L204:
 2824              		.cfi_restore_state
 2825              	.LBB35:
 2826              	.LBB32:
 489:/home/hkh/git/eapidk-code-r76-trunk/apps/EeePProg/linux/../EeePProg.c ****           &BHandel, 
 2827              		.loc 1 489 3 is_stmt 1 view .LVU565
ARM GAS  /tmp/ccqui9DH.s 			page 70


 2828 1350 80109FE5 		ldr	r1, .L207+12
 2829 1354 E93100E3 		movw	r3, #489
 2830 1358 7C009FE5 		ldr	r0, .L207+16
 2831              	.LVL212:
 489:/home/hkh/git/eapidk-code-r76-trunk/apps/EeePProg/linux/../EeePProg.c ****           &BHandel, 
 2832              		.loc 1 489 3 is_stmt 0 view .LVU566
 2833 135c 7C209FE5 		ldr	r2, .L207+20
 2834              	.LPIC158:
 2835 1360 01108FE0 		add	r1, pc, r1
 2836 1364 00408DE5 		str	r4, [sp]
 2837 1368 04108DE5 		str	r1, [sp, #4]
 2838              	.LPIC157:
 2839 136c 00008FE0 		add	r0, pc, r0
 2840 1370 6C109FE5 		ldr	r1, .L207+24
 2841              	.LPIC155:
 2842 1374 02208FE0 		add	r2, pc, r2
 2843 1378 08008DE5 		str	r0, [sp, #8]
 2844 137c 4500A0E3 		mov	r0, #69
 2845              	.LPIC156:
 2846 1380 01108FE0 		add	r1, pc, r1
 2847 1384 FEFFFFEB 		bl	siFormattedMessage_SC(PLT)
 2848              	.LVL213:
 489:/home/hkh/git/eapidk-code-r76-trunk/apps/EeePProg/linux/../EeePProg.c ****           &BHandel, 
 2849              		.loc 1 489 3 is_stmt 1 view .LVU567
 2850 1388 E2FFFFEA 		b	.L198
 2851              	.LVL214:
 2852              	.L205:
 494:/home/hkh/git/eapidk-code-r76-trunk/apps/EeePProg/linux/../EeePProg.c **** 
 2853              		.loc 1 494 3 view .LVU568
 2854 138c 54109FE5 		ldr	r1, .L207+28
 2855 1390 EE3100E3 		movw	r3, #494
 2856 1394 50009FE5 		ldr	r0, .L207+32
 2857              	.LVL215:
 494:/home/hkh/git/eapidk-code-r76-trunk/apps/EeePProg/linux/../EeePProg.c **** 
 2858              		.loc 1 494 3 is_stmt 0 view .LVU569
 2859 1398 50209FE5 		ldr	r2, .L207+36
 2860              	.LPIC162:
 2861 139c 01108FE0 		add	r1, pc, r1
 2862 13a0 00408DE5 		str	r4, [sp]
 2863 13a4 04108DE5 		str	r1, [sp, #4]
 2864              	.LPIC161:
 2865 13a8 00008FE0 		add	r0, pc, r0
 2866 13ac 40109FE5 		ldr	r1, .L207+40
 2867              	.LPIC159:
 2868 13b0 02208FE0 		add	r2, pc, r2
 2869 13b4 08008DE5 		str	r0, [sp, #8]
 2870 13b8 4500A0E3 		mov	r0, #69
 2871              	.LPIC160:
 2872 13bc 01108FE0 		add	r1, pc, r1
 2873 13c0 FEFFFFEB 		bl	siFormattedMessage_SC(PLT)
 2874              	.LVL216:
 494:/home/hkh/git/eapidk-code-r76-trunk/apps/EeePProg/linux/../EeePProg.c **** 
 2875              		.loc 1 494 3 is_stmt 1 view .LVU570
 2876 13c4 D3FFFFEA 		b	.L198
 2877              	.LVL217:
 2878              	.L206:
 494:/home/hkh/git/eapidk-code-r76-trunk/apps/EeePProg/linux/../EeePProg.c **** 
ARM GAS  /tmp/ccqui9DH.s 			page 71


 2879              		.loc 1 494 3 is_stmt 0 view .LVU571
 2880              	.LBE32:
 2881              	.LBE35:
 509:/home/hkh/git/eapidk-code-r76-trunk/apps/EeePProg/linux/../EeePProg.c **** 
 2882              		.loc 1 509 1 view .LVU572
 2883 13c8 FEFFFFEB 		bl	__stack_chk_fail(PLT)
 2884              	.LVL218:
 2885              	.L208:
 2886              		.align	2
 2887              	.L207:
 2888 13cc E8000000 		.word	_GLOBAL_OFFSET_TABLE_-(.LPIC164+8)
 2889 13d0 00000000 		.word	__stack_chk_guard(GOT)
 2890 13d4 A4000000 		.word	_GLOBAL_OFFSET_TABLE_-(.LPIC163+8)
 2891 13d8 70000000 		.word	.LC3-(.LPIC158+8)
 2892 13dc 68000000 		.word	.LC21-(.LPIC157+8)
 2893 13e0 64000000 		.word	.LC0-(.LPIC155+8)
 2894 13e4 5C000000 		.word	.LC1-(.LPIC156+8)
 2895 13e8 44000000 		.word	.LC3-(.LPIC162+8)
 2896 13ec 3C000000 		.word	.LC22-(.LPIC161+8)
 2897 13f0 38000000 		.word	.LC0-(.LPIC159+8)
 2898 13f4 30000000 		.word	.LC1-(.LPIC160+8)
 2899              		.cfi_endproc
 2900              	.LFE13:
 2902              		.align	2
 2903              		.global	CMD_StoreCOM0R20_M_EEP
 2904              		.syntax unified
 2905              		.arm
 2906              		.fpu vfpv3
 2908              	CMD_StoreCOM0R20_M_EEP:
 2909              	.LVL219:
 2910              	.LFB14:
 515:/home/hkh/git/eapidk-code-r76-trunk/apps/EeePProg/linux/../EeePProg.c ****   WriteEepCfg_t WriteEep={NULL, EAPI_ID_I2C_EXTERNAL, COM0R20_M_EEP_DEV_ADDR};
 2911              		.loc 1 515 1 is_stmt 1 view -0
 2912              		.cfi_startproc
 2913              		@ args = 0, pretend = 0, frame = 8
 2914              		@ frame_needed = 0, uses_anonymous_args = 0
 515:/home/hkh/git/eapidk-code-r76-trunk/apps/EeePProg/linux/../EeePProg.c ****   WriteEepCfg_t WriteEep={NULL, EAPI_ID_I2C_EXTERNAL, COM0R20_M_EEP_DEV_ADDR};
 2915              		.loc 1 515 1 is_stmt 0 view .LVU574
 2916 13f8 70402DE9 		push	{r4, r5, r6, lr}
 2917              		.cfi_def_cfa_offset 16
 2918              		.cfi_offset 4, -16
 2919              		.cfi_offset 5, -12
 2920              		.cfi_offset 6, -8
 2921              		.cfi_offset 14, -4
 2922 13fc 18D04DE2 		sub	sp, sp, #24
 2923              		.cfi_def_cfa_offset 40
 517:/home/hkh/git/eapidk-code-r76-trunk/apps/EeePProg/linux/../EeePProg.c ****   return CMD_StoreEeePExt_EEP(&WriteEep);
 2924              		.loc 1 517 21 view .LVU575
 2925 1400 006090E5 		ldr	r6, [r0]
 2926              	.LBB38:
 2927              	.LBB39:
 489:/home/hkh/git/eapidk-code-r76-trunk/apps/EeePProg/linux/../EeePProg.c ****           &BHandel, 
 2928              		.loc 1 489 3 view .LVU576
 2929 1404 10508DE2 		add	r5, sp, #16
 488:/home/hkh/git/eapidk-code-r76-trunk/apps/EeePProg/linux/../EeePProg.c ****   DO(EeePReadBufferFromEEP(
 2930              		.loc 1 488 16 view .LVU577
 2931 1408 0010A0E3 		mov	r1, #0
ARM GAS  /tmp/ccqui9DH.s 			page 72


 489:/home/hkh/git/eapidk-code-r76-trunk/apps/EeePProg/linux/../EeePProg.c ****           &BHandel, 
 2932              		.loc 1 489 3 view .LVU578
 2933 140c A020A0E3 		mov	r2, #160
 2934              	.LBE39:
 2935              	.LBE38:
 515:/home/hkh/git/eapidk-code-r76-trunk/apps/EeePProg/linux/../EeePProg.c ****   WriteEepCfg_t WriteEep={NULL, EAPI_ID_I2C_EXTERNAL, COM0R20_M_EEP_DEV_ADDR};
 2936              		.loc 1 515 1 view .LVU579
 2937 1410 F0009FE5 		ldr	r0, .L220
 2938              	.LVL220:
 515:/home/hkh/git/eapidk-code-r76-trunk/apps/EeePProg/linux/../EeePProg.c ****   WriteEepCfg_t WriteEep={NULL, EAPI_ID_I2C_EXTERNAL, COM0R20_M_EEP_DEV_ADDR};
 2939              		.loc 1 515 1 view .LVU580
 2940 1414 F0309FE5 		ldr	r3, .L220+4
 2941              	.LPIC174:
 2942 1418 00008FE0 		add	r0, pc, r0
 2943 141c 033090E7 		ldr	r3, [r0, r3]
 2944              	.LBB43:
 2945              	.LBB40:
 489:/home/hkh/git/eapidk-code-r76-trunk/apps/EeePProg/linux/../EeePProg.c ****           &BHandel, 
 2946              		.loc 1 489 3 view .LVU581
 2947 1420 0500A0E1 		mov	r0, r5
 2948              	.LBE40:
 2949              	.LBE43:
 515:/home/hkh/git/eapidk-code-r76-trunk/apps/EeePProg/linux/../EeePProg.c ****   WriteEepCfg_t WriteEep={NULL, EAPI_ID_I2C_EXTERNAL, COM0R20_M_EEP_DEV_ADDR};
 2950              		.loc 1 515 1 view .LVU582
 2951 1424 003093E5 		ldr	r3, [r3]
 2952 1428 14308DE5 		str	r3, [sp, #20]
 2953 142c 0030A0E3 		mov	r3, #0
 516:/home/hkh/git/eapidk-code-r76-trunk/apps/EeePProg/linux/../EeePProg.c ****   WriteEep.FileName=*(char**)pArgData;
 2954              		.loc 1 516 3 is_stmt 1 view .LVU583
 517:/home/hkh/git/eapidk-code-r76-trunk/apps/EeePProg/linux/../EeePProg.c ****   return CMD_StoreEeePExt_EEP(&WriteEep);
 2955              		.loc 1 517 3 view .LVU584
 518:/home/hkh/git/eapidk-code-r76-trunk/apps/EeePProg/linux/../EeePProg.c **** }
 2956              		.loc 1 518 3 view .LVU585
 2957              	.LVL221:
 2958              	.LBB44:
 2959              	.LBI38:
 483:/home/hkh/git/eapidk-code-r76-trunk/apps/EeePProg/linux/../EeePProg.c ****     void *pArgData
 2960              		.loc 1 483 1 view .LVU586
 2961              	.LBB41:
 487:/home/hkh/git/eapidk-code-r76-trunk/apps/EeePProg/linux/../EeePProg.c ****   EeePHandel_t BHandel=NULL;
 2962              		.loc 1 487 3 view .LVU587
 488:/home/hkh/git/eapidk-code-r76-trunk/apps/EeePProg/linux/../EeePProg.c ****   DO(EeePReadBufferFromEEP(
 2963              		.loc 1 488 3 view .LVU588
 488:/home/hkh/git/eapidk-code-r76-trunk/apps/EeePProg/linux/../EeePProg.c ****   DO(EeePReadBufferFromEEP(
 2964              		.loc 1 488 16 is_stmt 0 view .LVU589
 2965 1430 10108DE5 		str	r1, [sp, #16]
 489:/home/hkh/git/eapidk-code-r76-trunk/apps/EeePProg/linux/../EeePProg.c ****           &BHandel, 
 2966              		.loc 1 489 3 is_stmt 1 view .LVU590
 489:/home/hkh/git/eapidk-code-r76-trunk/apps/EeePProg/linux/../EeePProg.c ****           &BHandel, 
 2967              		.loc 1 489 3 view .LVU591
 2968 1434 FEFFFFEB 		bl	EeePReadBufferFromEEP(PLT)
 2969              	.LVL222:
 489:/home/hkh/git/eapidk-code-r76-trunk/apps/EeePProg/linux/../EeePProg.c ****           &BHandel, 
 2970              		.loc 1 489 3 view .LVU592
 2971 1438 004050E2 		subs	r4, r0, #0
 2972 143c 1200001A 		bne	.L217
 489:/home/hkh/git/eapidk-code-r76-trunk/apps/EeePProg/linux/../EeePProg.c ****           &BHandel, 
ARM GAS  /tmp/ccqui9DH.s 			page 73


 2973              		.loc 1 489 3 view .LVU593
 494:/home/hkh/git/eapidk-code-r76-trunk/apps/EeePProg/linux/../EeePProg.c **** 
 2974              		.loc 1 494 3 view .LVU594
 494:/home/hkh/git/eapidk-code-r76-trunk/apps/EeePProg/linux/../EeePProg.c **** 
 2975              		.loc 1 494 3 view .LVU595
 2976 1440 10009DE5 		ldr	r0, [sp, #16]
 2977              	.LVL223:
 494:/home/hkh/git/eapidk-code-r76-trunk/apps/EeePProg/linux/../EeePProg.c **** 
 2978              		.loc 1 494 3 is_stmt 0 view .LVU596
 2979 1444 0610A0E1 		mov	r1, r6
 2980 1448 FEFFFFEB 		bl	EeePWriteBufferToFile(PLT)
 2981              	.LVL224:
 494:/home/hkh/git/eapidk-code-r76-trunk/apps/EeePProg/linux/../EeePProg.c **** 
 2982              		.loc 1 494 3 is_stmt 1 view .LVU597
 2983 144c 004050E2 		subs	r4, r0, #0
 2984 1450 1C00001A 		bne	.L218
 2985              	.LVL225:
 2986              	.L211:
 494:/home/hkh/git/eapidk-code-r76-trunk/apps/EeePProg/linux/../EeePProg.c **** 
 2987              		.loc 1 494 3 view .LVU598
 497:/home/hkh/git/eapidk-code-r76-trunk/apps/EeePProg/linux/../EeePProg.c ****   return StatusCode;
 2988              		.loc 1 497 3 view .LVU599
 2989 1454 0500A0E1 		mov	r0, r5
 2990 1458 FEFFFFEB 		bl	EeePFreeBuffer(PLT)
 2991              	.LVL226:
 498:/home/hkh/git/eapidk-code-r76-trunk/apps/EeePProg/linux/../EeePProg.c **** }
 2992              		.loc 1 498 3 view .LVU600
 498:/home/hkh/git/eapidk-code-r76-trunk/apps/EeePProg/linux/../EeePProg.c **** }
 2993              		.loc 1 498 3 is_stmt 0 view .LVU601
 2994              	.LBE41:
 2995              	.LBE44:
 515:/home/hkh/git/eapidk-code-r76-trunk/apps/EeePProg/linux/../EeePProg.c ****   WriteEepCfg_t WriteEep={NULL, EAPI_ID_I2C_EXTERNAL, COM0R20_M_EEP_DEV_ADDR};
 2996              		.loc 1 515 1 view .LVU602
 2997 145c AC209FE5 		ldr	r2, .L220+8
 519:/home/hkh/git/eapidk-code-r76-trunk/apps/EeePProg/linux/../EeePProg.c **** 
 2998              		.loc 1 519 1 view .LVU603
 2999 1460 A4309FE5 		ldr	r3, .L220+4
 515:/home/hkh/git/eapidk-code-r76-trunk/apps/EeePProg/linux/../EeePProg.c ****   WriteEepCfg_t WriteEep={NULL, EAPI_ID_I2C_EXTERNAL, COM0R20_M_EEP_DEV_ADDR};
 3000              		.loc 1 515 1 view .LVU604
 3001              	.LPIC173:
 3002 1464 02208FE0 		add	r2, pc, r2
 519:/home/hkh/git/eapidk-code-r76-trunk/apps/EeePProg/linux/../EeePProg.c **** 
 3003              		.loc 1 519 1 view .LVU605
 3004 1468 033092E7 		ldr	r3, [r2, r3]
 3005 146c 002093E5 		ldr	r2, [r3]
 3006 1470 14309DE5 		ldr	r3, [sp, #20]
 3007 1474 022033E0 		eors	r2, r3, r2
 3008 1478 0030A0E3 		mov	r3, #0
 3009 147c 2000001A 		bne	.L219
 3010 1480 0400A0E1 		mov	r0, r4
 3011 1484 18D08DE2 		add	sp, sp, #24
 3012              		.cfi_remember_state
 3013              		.cfi_def_cfa_offset 16
 3014              		@ sp needed
 3015 1488 7080BDE8 		pop	{r4, r5, r6, pc}
 3016              	.LVL227:
 3017              	.L217:
ARM GAS  /tmp/ccqui9DH.s 			page 74


 3018              		.cfi_restore_state
 3019              	.LBB45:
 3020              	.LBB42:
 489:/home/hkh/git/eapidk-code-r76-trunk/apps/EeePProg/linux/../EeePProg.c ****           &BHandel, 
 3021              		.loc 1 489 3 is_stmt 1 view .LVU606
 3022 148c 80109FE5 		ldr	r1, .L220+12
 3023 1490 E93100E3 		movw	r3, #489
 3024 1494 7C009FE5 		ldr	r0, .L220+16
 3025              	.LVL228:
 489:/home/hkh/git/eapidk-code-r76-trunk/apps/EeePProg/linux/../EeePProg.c ****           &BHandel, 
 3026              		.loc 1 489 3 is_stmt 0 view .LVU607
 3027 1498 7C209FE5 		ldr	r2, .L220+20
 3028              	.LPIC168:
 3029 149c 01108FE0 		add	r1, pc, r1
 3030 14a0 00408DE5 		str	r4, [sp]
 3031 14a4 04108DE5 		str	r1, [sp, #4]
 3032              	.LPIC167:
 3033 14a8 00008FE0 		add	r0, pc, r0
 3034 14ac 6C109FE5 		ldr	r1, .L220+24
 3035              	.LPIC165:
 3036 14b0 02208FE0 		add	r2, pc, r2
 3037 14b4 08008DE5 		str	r0, [sp, #8]
 3038 14b8 4500A0E3 		mov	r0, #69
 3039              	.LPIC166:
 3040 14bc 01108FE0 		add	r1, pc, r1
 3041 14c0 FEFFFFEB 		bl	siFormattedMessage_SC(PLT)
 3042              	.LVL229:
 489:/home/hkh/git/eapidk-code-r76-trunk/apps/EeePProg/linux/../EeePProg.c ****           &BHandel, 
 3043              		.loc 1 489 3 is_stmt 1 view .LVU608
 3044 14c4 E2FFFFEA 		b	.L211
 3045              	.LVL230:
 3046              	.L218:
 494:/home/hkh/git/eapidk-code-r76-trunk/apps/EeePProg/linux/../EeePProg.c **** 
 3047              		.loc 1 494 3 view .LVU609
 3048 14c8 54109FE5 		ldr	r1, .L220+28
 3049 14cc EE3100E3 		movw	r3, #494
 3050 14d0 50009FE5 		ldr	r0, .L220+32
 3051              	.LVL231:
 494:/home/hkh/git/eapidk-code-r76-trunk/apps/EeePProg/linux/../EeePProg.c **** 
 3052              		.loc 1 494 3 is_stmt 0 view .LVU610
 3053 14d4 50209FE5 		ldr	r2, .L220+36
 3054              	.LPIC172:
 3055 14d8 01108FE0 		add	r1, pc, r1
 3056 14dc 00408DE5 		str	r4, [sp]
 3057 14e0 04108DE5 		str	r1, [sp, #4]
 3058              	.LPIC171:
 3059 14e4 00008FE0 		add	r0, pc, r0
 3060 14e8 40109FE5 		ldr	r1, .L220+40
 3061              	.LPIC169:
 3062 14ec 02208FE0 		add	r2, pc, r2
 3063 14f0 08008DE5 		str	r0, [sp, #8]
 3064 14f4 4500A0E3 		mov	r0, #69
 3065              	.LPIC170:
 3066 14f8 01108FE0 		add	r1, pc, r1
 3067 14fc FEFFFFEB 		bl	siFormattedMessage_SC(PLT)
 3068              	.LVL232:
 494:/home/hkh/git/eapidk-code-r76-trunk/apps/EeePProg/linux/../EeePProg.c **** 
ARM GAS  /tmp/ccqui9DH.s 			page 75


 3069              		.loc 1 494 3 is_stmt 1 view .LVU611
 3070 1500 D3FFFFEA 		b	.L211
 3071              	.LVL233:
 3072              	.L219:
 494:/home/hkh/git/eapidk-code-r76-trunk/apps/EeePProg/linux/../EeePProg.c **** 
 3073              		.loc 1 494 3 is_stmt 0 view .LVU612
 3074              	.LBE42:
 3075              	.LBE45:
 519:/home/hkh/git/eapidk-code-r76-trunk/apps/EeePProg/linux/../EeePProg.c **** 
 3076              		.loc 1 519 1 view .LVU613
 3077 1504 FEFFFFEB 		bl	__stack_chk_fail(PLT)
 3078              	.LVL234:
 3079              	.L221:
 3080              		.align	2
 3081              	.L220:
 3082 1508 E8000000 		.word	_GLOBAL_OFFSET_TABLE_-(.LPIC174+8)
 3083 150c 00000000 		.word	__stack_chk_guard(GOT)
 3084 1510 A4000000 		.word	_GLOBAL_OFFSET_TABLE_-(.LPIC173+8)
 3085 1514 70000000 		.word	.LC3-(.LPIC168+8)
 3086 1518 68000000 		.word	.LC21-(.LPIC167+8)
 3087 151c 64000000 		.word	.LC0-(.LPIC165+8)
 3088 1520 5C000000 		.word	.LC1-(.LPIC166+8)
 3089 1524 44000000 		.word	.LC3-(.LPIC172+8)
 3090 1528 3C000000 		.word	.LC22-(.LPIC171+8)
 3091 152c 38000000 		.word	.LC0-(.LPIC169+8)
 3092 1530 30000000 		.word	.LC1-(.LPIC170+8)
 3093              		.cfi_endproc
 3094              	.LFE14:
 3096              		.section	.rodata.str1.4
 3097              		.align	2
 3098              	.LC29:
 3099 06a4 7374646F 		.ascii	"stdout\000"
 3099      757400
 3100 06ab 00       		.align	2
 3101              	.LC30:
 3102 06ac 73746465 		.ascii	"stderr\000"
 3102      727200
 3103 06b3 00       		.align	2
 3104              	.LC31:
 3105 06b4 7700     		.ascii	"w\000"
 3106 06b6 0000     		.align	2
 3107              	.LC32:
 3108 06b8 43726561 		.ascii	"CreateTxtFilePtr\000"
 3108      74655478 
 3108      7446696C 
 3108      65507472 
 3108      00
 3109 06c9 000000   		.align	2
 3110              	.LC33:
 3111 06cc 282A4669 		.ascii	"(*FilePtr==NULL)\000"
 3111      6C655074 
 3111      723D3D4E 
 3111      554C4C29 
 3111      00
 3112 06dd 000000   		.align	2
 3113              	.LC34:
 3114 06e0 43726561 		.ascii	"CreateTxtFilePtr(*(char**)pArgData, &lclStream)\000"
ARM GAS  /tmp/ccqui9DH.s 			page 76


 3114      74655478 
 3114      7446696C 
 3114      65507472 
 3114      282A2863 
 3115              		.align	2
 3116              	.LC35:
 3117 0710 45656550 		.ascii	"EeeP_CreateCOM0R20_CBCfg(lclStream)\000"
 3117      5F437265 
 3117      61746543 
 3117      4F4D3052 
 3117      32305F43 
 3118              		.text
 3119              		.align	2
 3120              		.global	CMD_CreateCOM0R20_CBCfg
 3121              		.syntax unified
 3122              		.arm
 3123              		.fpu vfpv3
 3125              	CMD_CreateCOM0R20_CBCfg:
 3126              	.LVL235:
 3127              	.LFB4:
 310:/home/hkh/git/eapidk-code-r76-trunk/apps/EeePProg/linux/../EeePProg.c ****   EApiStatus_t StatusCode=EAPI_STATUS_SUCCESS;
 3128              		.loc 1 310 1 is_stmt 1 view -0
 3129              		.cfi_startproc
 3130              		@ args = 0, pretend = 0, frame = 0
 3131              		@ frame_needed = 0, uses_anonymous_args = 0
 311:/home/hkh/git/eapidk-code-r76-trunk/apps/EeePProg/linux/../EeePProg.c ****   FILE *lclStream=NULL;
 3132              		.loc 1 311 3 view .LVU615
 312:/home/hkh/git/eapidk-code-r76-trunk/apps/EeePProg/linux/../EeePProg.c **** 
 3133              		.loc 1 312 3 view .LVU616
 314:/home/hkh/git/eapidk-code-r76-trunk/apps/EeePProg/linux/../EeePProg.c ****   DO(EeeP_CreateCOM0R20_CBCfg(lclStream));
 3134              		.loc 1 314 3 view .LVU617
 314:/home/hkh/git/eapidk-code-r76-trunk/apps/EeePProg/linux/../EeePProg.c ****   DO(EeeP_CreateCOM0R20_CBCfg(lclStream));
 3135              		.loc 1 314 3 view .LVU618
 310:/home/hkh/git/eapidk-code-r76-trunk/apps/EeePProg/linux/../EeePProg.c ****   EApiStatus_t StatusCode=EAPI_STATUS_SUCCESS;
 3136              		.loc 1 310 1 is_stmt 0 view .LVU619
 3137 1534 F0402DE9 		push	{r4, r5, r6, r7, lr}
 3138              		.cfi_def_cfa_offset 20
 3139              		.cfi_offset 4, -20
 3140              		.cfi_offset 5, -16
 3141              		.cfi_offset 6, -12
 3142              		.cfi_offset 7, -8
 3143              		.cfi_offset 14, -4
 3144 1538 14D04DE2 		sub	sp, sp, #20
 3145              		.cfi_def_cfa_offset 40
 3146              	.LBB52:
 3147              	.LBB53:
 254:/home/hkh/git/eapidk-code-r76-trunk/apps/EeePProg/linux/../EeePProg.c ****      *FilePtr=stdout;
 3148              		.loc 1 254 7 view .LVU620
 3149 153c B8119FE5 		ldr	r1, .L253
 3150              	.LBE53:
 3151              	.LBE52:
 314:/home/hkh/git/eapidk-code-r76-trunk/apps/EeePProg/linux/../EeePProg.c ****   DO(EeeP_CreateCOM0R20_CBCfg(lclStream));
 3152              		.loc 1 314 3 view .LVU621
 3153 1540 004090E5 		ldr	r4, [r0]
 3154              	.LVL236:
 3155              	.LBB62:
 3156              	.LBI52:
ARM GAS  /tmp/ccqui9DH.s 			page 77


 248:/home/hkh/git/eapidk-code-r76-trunk/apps/EeePProg/linux/../EeePProg.c ****     const char *Destination,
 3157              		.loc 1 248 1 is_stmt 1 view .LVU622
 3158              	.LBB56:
 253:/home/hkh/git/eapidk-code-r76-trunk/apps/EeePProg/linux/../EeePProg.c ****   if(!strcmp(Destination, "stdout")){
 3159              		.loc 1 253 3 view .LVU623
 254:/home/hkh/git/eapidk-code-r76-trunk/apps/EeePProg/linux/../EeePProg.c ****      *FilePtr=stdout;
 3160              		.loc 1 254 3 view .LVU624
 3161              	.LBE56:
 3162              	.LBE62:
 310:/home/hkh/git/eapidk-code-r76-trunk/apps/EeePProg/linux/../EeePProg.c ****   EApiStatus_t StatusCode=EAPI_STATUS_SUCCESS;
 3163              		.loc 1 310 1 is_stmt 0 view .LVU625
 3164 1544 B4519FE5 		ldr	r5, .L253+4
 3165              	.LBB63:
 3166              	.LBB57:
 254:/home/hkh/git/eapidk-code-r76-trunk/apps/EeePProg/linux/../EeePProg.c ****      *FilePtr=stdout;
 3167              		.loc 1 254 7 view .LVU626
 3168              	.LPIC175:
 3169 1548 01108FE0 		add	r1, pc, r1
 3170 154c 0400A0E1 		mov	r0, r4
 3171              	.LVL237:
 254:/home/hkh/git/eapidk-code-r76-trunk/apps/EeePProg/linux/../EeePProg.c ****      *FilePtr=stdout;
 3172              		.loc 1 254 7 view .LVU627
 3173 1550 FEFFFFEB 		bl	strcmp(PLT)
 3174              	.LVL238:
 255:/home/hkh/git/eapidk-code-r76-trunk/apps/EeePProg/linux/../EeePProg.c ****   }else if(!strcmp(Destination, "&1")){
 3175              		.loc 1 255 14 view .LVU628
 3176 1554 A8319FE5 		ldr	r3, .L253+8
 3177              	.LBE57:
 3178              	.LBE63:
 310:/home/hkh/git/eapidk-code-r76-trunk/apps/EeePProg/linux/../EeePProg.c ****   EApiStatus_t StatusCode=EAPI_STATUS_SUCCESS;
 3179              		.loc 1 310 1 view .LVU629
 3180              	.LPIC176:
 3181 1558 05508FE0 		add	r5, pc, r5
 3182              	.LBB64:
 3183              	.LBB58:
 254:/home/hkh/git/eapidk-code-r76-trunk/apps/EeePProg/linux/../EeePProg.c ****      *FilePtr=stdout;
 3184              		.loc 1 254 5 view .LVU630
 3185 155c 000050E3 		cmp	r0, #0
 255:/home/hkh/git/eapidk-code-r76-trunk/apps/EeePProg/linux/../EeePProg.c ****   }else if(!strcmp(Destination, "&1")){
 3186              		.loc 1 255 14 view .LVU631
 3187 1560 033095E7 		ldr	r3, [r5, r3]
 3188 1564 006093E5 		ldr	r6, [r3]
 254:/home/hkh/git/eapidk-code-r76-trunk/apps/EeePProg/linux/../EeePProg.c ****      *FilePtr=stdout;
 3189              		.loc 1 254 5 view .LVU632
 3190 1568 2200000A 		beq	.L223
 256:/home/hkh/git/eapidk-code-r76-trunk/apps/EeePProg/linux/../EeePProg.c ****      *FilePtr=stdout;
 3191              		.loc 1 256 9 is_stmt 1 view .LVU633
 256:/home/hkh/git/eapidk-code-r76-trunk/apps/EeePProg/linux/../EeePProg.c ****      *FilePtr=stdout;
 3192              		.loc 1 256 13 is_stmt 0 view .LVU634
 3193 156c 0070D4E5 		ldrb	r7, [r4]	@ zero_extendqisi2
 3194 1570 260057E3 		cmp	r7, #38
 3195 1574 1900000A 		beq	.L251
 3196              	.L233:
 258:/home/hkh/git/eapidk-code-r76-trunk/apps/EeePProg/linux/../EeePProg.c ****      *FilePtr=stderr;
 3197              		.loc 1 258 9 is_stmt 1 view .LVU635
 258:/home/hkh/git/eapidk-code-r76-trunk/apps/EeePProg/linux/../EeePProg.c ****      *FilePtr=stderr;
 3198              		.loc 1 258 13 is_stmt 0 view .LVU636
ARM GAS  /tmp/ccqui9DH.s 			page 78


 3199 1578 88119FE5 		ldr	r1, .L253+12
 3200 157c 0400A0E1 		mov	r0, r4
 3201              	.LPIC177:
 3202 1580 01108FE0 		add	r1, pc, r1
 3203 1584 FEFFFFEB 		bl	strcmp(PLT)
 3204              	.LVL239:
 258:/home/hkh/git/eapidk-code-r76-trunk/apps/EeePProg/linux/../EeePProg.c ****      *FilePtr=stderr;
 3205              		.loc 1 258 11 view .LVU637
 3206 1588 000050E3 		cmp	r0, #0
 3207 158c 2D00001A 		bne	.L225
 3208              	.L228:
 259:/home/hkh/git/eapidk-code-r76-trunk/apps/EeePProg/linux/../EeePProg.c ****   }else if(!strcmp(Destination, "&2")){
 3209              		.loc 1 259 6 is_stmt 1 view .LVU638
 259:/home/hkh/git/eapidk-code-r76-trunk/apps/EeePProg/linux/../EeePProg.c ****   }else if(!strcmp(Destination, "&2")){
 3210              		.loc 1 259 14 is_stmt 0 view .LVU639
 3211 1590 74319FE5 		ldr	r3, .L253+16
 3212 1594 033095E7 		ldr	r3, [r5, r3]
 3213 1598 007093E5 		ldr	r7, [r3]
 3214              	.LVL240:
 264:/home/hkh/git/eapidk-code-r76-trunk/apps/EeePProg/linux/../EeePProg.c ****          CreateTxtFilePtr,
 3215              		.loc 1 264 5 is_stmt 1 view .LVU640
 268:/home/hkh/git/eapidk-code-r76-trunk/apps/EeePProg/linux/../EeePProg.c ****   }
 3216              		.loc 1 268 8 view .LVU641
 271:/home/hkh/git/eapidk-code-r76-trunk/apps/EeePProg/linux/../EeePProg.c **** }
 3217              		.loc 1 271 3 view .LVU642
 271:/home/hkh/git/eapidk-code-r76-trunk/apps/EeePProg/linux/../EeePProg.c **** }
 3218              		.loc 1 271 3 is_stmt 0 view .LVU643
 3219              	.LBE58:
 3220              	.LBE64:
 314:/home/hkh/git/eapidk-code-r76-trunk/apps/EeePProg/linux/../EeePProg.c ****   DO(EeeP_CreateCOM0R20_CBCfg(lclStream));
 3221              		.loc 1 314 3 is_stmt 1 view .LVU644
 3222              	.L226:
 314:/home/hkh/git/eapidk-code-r76-trunk/apps/EeePProg/linux/../EeePProg.c ****   DO(EeeP_CreateCOM0R20_CBCfg(lclStream));
 3223              		.loc 1 314 3 discriminator 2 view .LVU645
 315:/home/hkh/git/eapidk-code-r76-trunk/apps/EeePProg/linux/../EeePProg.c **** 
 3224              		.loc 1 315 3 discriminator 2 view .LVU646
 315:/home/hkh/git/eapidk-code-r76-trunk/apps/EeePProg/linux/../EeePProg.c **** 
 3225              		.loc 1 315 3 discriminator 2 view .LVU647
 3226 159c 0700A0E1 		mov	r0, r7
 3227 15a0 FEFFFFEB 		bl	EeeP_CreateCOM0R20_CBCfg(PLT)
 3228              	.LVL241:
 315:/home/hkh/git/eapidk-code-r76-trunk/apps/EeePProg/linux/../EeePProg.c **** 
 3229              		.loc 1 315 3 discriminator 2 view .LVU648
 3230 15a4 004050E2 		subs	r4, r0, #0
 3231 15a8 1700001A 		bne	.L231
 3232              	.LVL242:
 3233              	.L230:
 315:/home/hkh/git/eapidk-code-r76-trunk/apps/EeePProg/linux/../EeePProg.c **** 
 3234              		.loc 1 315 3 discriminator 3 view .LVU649
 318:/home/hkh/git/eapidk-code-r76-trunk/apps/EeePProg/linux/../EeePProg.c ****   return StatusCode;
 3235              		.loc 1 318 3 discriminator 3 view .LVU650
 3236              	.LBB65:
 3237              	.LBI65:
 274:/home/hkh/git/eapidk-code-r76-trunk/apps/EeePProg/linux/../EeePProg.c ****     FILE **     FilePtr
 3238              		.loc 1 274 1 discriminator 3 view .LVU651
 3239              	.LBB66:
 278:/home/hkh/git/eapidk-code-r76-trunk/apps/EeePProg/linux/../EeePProg.c ****   if(LclFilePtr!=stdout&&LclFilePtr!=stderr&&LclFilePtr!=NULL){
ARM GAS  /tmp/ccqui9DH.s 			page 79


 3240              		.loc 1 278 3 discriminator 3 view .LVU652
 279:/home/hkh/git/eapidk-code-r76-trunk/apps/EeePProg/linux/../EeePProg.c ****     fclose(LclFilePtr);
 3241              		.loc 1 279 3 discriminator 3 view .LVU653
 279:/home/hkh/git/eapidk-code-r76-trunk/apps/EeePProg/linux/../EeePProg.c ****     fclose(LclFilePtr);
 3242              		.loc 1 279 5 is_stmt 0 discriminator 3 view .LVU654
 3243 15ac 060057E1 		cmp	r7, r6
 3244 15b0 0700000A 		beq	.L222
 279:/home/hkh/git/eapidk-code-r76-trunk/apps/EeePProg/linux/../EeePProg.c ****     fclose(LclFilePtr);
 3245              		.loc 1 279 36 view .LVU655
 3246 15b4 50319FE5 		ldr	r3, .L253+16
 3247 15b8 033095E7 		ldr	r3, [r5, r3]
 279:/home/hkh/git/eapidk-code-r76-trunk/apps/EeePProg/linux/../EeePProg.c ****     fclose(LclFilePtr);
 3248              		.loc 1 279 24 view .LVU656
 3249 15bc 003093E5 		ldr	r3, [r3]
 279:/home/hkh/git/eapidk-code-r76-trunk/apps/EeePProg/linux/../EeePProg.c ****     fclose(LclFilePtr);
 3250              		.loc 1 279 44 view .LVU657
 3251 15c0 070053E1 		cmp	r3, r7
 3252 15c4 00005713 		cmpne	r7, #0
 3253 15c8 0100000A 		beq	.L222
 280:/home/hkh/git/eapidk-code-r76-trunk/apps/EeePProg/linux/../EeePProg.c ****   };
 3254              		.loc 1 280 5 is_stmt 1 view .LVU658
 3255 15cc 0700A0E1 		mov	r0, r7
 3256 15d0 FEFFFFEB 		bl	fclose(PLT)
 3257              	.LVL243:
