ARM GAS  /tmp/ccTXisr2.s 			page 1


   1              		.cpu cortex-a9
   2              		.eabi_attribute 28, 1
   3              		.eabi_attribute 20, 1
   4              		.eabi_attribute 21, 1
   5              		.eabi_attribute 23, 3
   6              		.eabi_attribute 24, 1
   7              		.eabi_attribute 25, 1
   8              		.eabi_attribute 26, 2
   9              		.eabi_attribute 30, 2
  10              		.eabi_attribute 34, 1
  11              		.eabi_attribute 18, 4
  12              		.file	"EeePDB.c"
  13              		.text
  14              	.Ltext0:
  15              		.cfi_sections	.debug_frame
  16              		.section	.rodata.str1.4,"aMS",%progbits,1
  17              		.align	2
  18              	.LC0:
  19 0000 257300   		.ascii	"%s\000"
  20 0003 00       		.align	2
  21              	.LC1:
  22 0004 554E4B4E 		.ascii	"UNKNOWN ID\000"
  22      4F574E20 
  22      494400
  23              		.text
  24              		.align	2
  25              		.global	GetString
  26              		.arch armv7-a
  27              		.arch_extension mp
  28              		.arch_extension sec
  29              		.syntax unified
  30              		.arm
  31              		.fpu vfpv3
  33              	GetString:
  34              	.LVL0:
  35              	.LFB1:
  36              		.file 1 "/home/hkh/git/eapidk-code-r76-trunk/apps/EeePProg/linux/../EeePDB.c"
   1:/home/hkh/git/eapidk-code-r76-trunk/apps/EeePProg/linux/../EeePDB.c **** /*
   2:/home/hkh/git/eapidk-code-r76-trunk/apps/EeePProg/linux/../EeePDB.c ****  *<KHeader>
   3:/home/hkh/git/eapidk-code-r76-trunk/apps/EeePProg/linux/../EeePDB.c ****  *+=========================================================================
   4:/home/hkh/git/eapidk-code-r76-trunk/apps/EeePProg/linux/../EeePDB.c ****  *I  Project Name: EApiDK Embedded Application Development Kit
   5:/home/hkh/git/eapidk-code-r76-trunk/apps/EeePProg/linux/../EeePDB.c ****  *+=========================================================================
   6:/home/hkh/git/eapidk-code-r76-trunk/apps/EeePProg/linux/../EeePDB.c ****  *I  $HeadURL: file:///svn/p/eapidk/code/trunk/apps/EeePProg/EeePDB.c $
   7:/home/hkh/git/eapidk-code-r76-trunk/apps/EeePProg/linux/../EeePDB.c ****  *+=========================================================================
   8:/home/hkh/git/eapidk-code-r76-trunk/apps/EeePProg/linux/../EeePDB.c ****  *I   Copyright: Copyright (c) 2002-2010, Kontron Embedded Modules GmbH
   9:/home/hkh/git/eapidk-code-r76-trunk/apps/EeePProg/linux/../EeePDB.c ****  *I      Author: John Kearney,                  John.Kearney@kontron.com
  10:/home/hkh/git/eapidk-code-r76-trunk/apps/EeePProg/linux/../EeePDB.c ****  *I
  11:/home/hkh/git/eapidk-code-r76-trunk/apps/EeePProg/linux/../EeePDB.c ****  *I     License: All rights reserved. This program and the accompanying 
  12:/home/hkh/git/eapidk-code-r76-trunk/apps/EeePProg/linux/../EeePDB.c ****  *I              materials are licensed and made available under the 
  13:/home/hkh/git/eapidk-code-r76-trunk/apps/EeePProg/linux/../EeePDB.c ****  *I              terms and conditions of the BSD License which 
  14:/home/hkh/git/eapidk-code-r76-trunk/apps/EeePProg/linux/../EeePDB.c ****  *I              accompanies this distribution. The full text of the 
  15:/home/hkh/git/eapidk-code-r76-trunk/apps/EeePProg/linux/../EeePDB.c ****  *I              license may be found at 
  16:/home/hkh/git/eapidk-code-r76-trunk/apps/EeePProg/linux/../EeePDB.c ****  *I              http://opensource.org/licenses/bsd-license.php
  17:/home/hkh/git/eapidk-code-r76-trunk/apps/EeePProg/linux/../EeePDB.c ****  *I              
  18:/home/hkh/git/eapidk-code-r76-trunk/apps/EeePProg/linux/../EeePDB.c ****  *I              THE PROGRAM IS DISTRIBUTED UNDER THE BSD LICENSE ON AN "
  19:/home/hkh/git/eapidk-code-r76-trunk/apps/EeePProg/linux/../EeePDB.c ****  *I              AS IS" BASIS, WITHOUT WARRANTIES OR REPRESENTATIONS OF 
  20:/home/hkh/git/eapidk-code-r76-trunk/apps/EeePProg/linux/../EeePDB.c ****  *I              ANY KIND, EITHER EXPRESS OR IMPLIED.
ARM GAS  /tmp/ccTXisr2.s 			page 2


  21:/home/hkh/git/eapidk-code-r76-trunk/apps/EeePProg/linux/../EeePDB.c ****  *I
  22:/home/hkh/git/eapidk-code-r76-trunk/apps/EeePProg/linux/../EeePDB.c ****  *I Description: Auto Created for EApiValidateAPI.c
  23:/home/hkh/git/eapidk-code-r76-trunk/apps/EeePProg/linux/../EeePDB.c ****  *I
  24:/home/hkh/git/eapidk-code-r76-trunk/apps/EeePProg/linux/../EeePDB.c ****  *+-------------------------------------------------------------------------
  25:/home/hkh/git/eapidk-code-r76-trunk/apps/EeePProg/linux/../EeePDB.c ****  *I
  26:/home/hkh/git/eapidk-code-r76-trunk/apps/EeePProg/linux/../EeePDB.c ****  *I  File Name            : EeePDB.c
  27:/home/hkh/git/eapidk-code-r76-trunk/apps/EeePProg/linux/../EeePDB.c ****  *I  File Location        : apps\EeePProg
  28:/home/hkh/git/eapidk-code-r76-trunk/apps/EeePProg/linux/../EeePDB.c ****  *I  Last committed       : $Revision: 75 $
  29:/home/hkh/git/eapidk-code-r76-trunk/apps/EeePProg/linux/../EeePDB.c ****  *I  Last changed by      : $Author: dethrophes $
  30:/home/hkh/git/eapidk-code-r76-trunk/apps/EeePProg/linux/../EeePDB.c ****  *I  Last changed date    : $Date: 2010-06-28 23:50:38 +0000 (Mon, 28 Jun 2010) $
  31:/home/hkh/git/eapidk-code-r76-trunk/apps/EeePProg/linux/../EeePDB.c ****  *I  ID                   : $Id: EeePDB.c 75 2010-06-28 23:50:38Z dethrophes $
  32:/home/hkh/git/eapidk-code-r76-trunk/apps/EeePProg/linux/../EeePDB.c ****  *I
  33:/home/hkh/git/eapidk-code-r76-trunk/apps/EeePProg/linux/../EeePDB.c ****  *+=========================================================================
  34:/home/hkh/git/eapidk-code-r76-trunk/apps/EeePProg/linux/../EeePDB.c ****  *</KHeader>
  35:/home/hkh/git/eapidk-code-r76-trunk/apps/EeePProg/linux/../EeePDB.c ****  */
  36:/home/hkh/git/eapidk-code-r76-trunk/apps/EeePProg/linux/../EeePDB.c ****   #include <EeePApp.h>
  37:/home/hkh/git/eapidk-code-r76-trunk/apps/EeePProg/linux/../EeePDB.c **** 
  38:/home/hkh/git/eapidk-code-r76-trunk/apps/EeePProg/linux/../EeePDB.c **** typedef struct StringLookup_s{
  39:/home/hkh/git/eapidk-code-r76-trunk/apps/EeePProg/linux/../EeePDB.c ****   char *szString;
  40:/home/hkh/git/eapidk-code-r76-trunk/apps/EeePProg/linux/../EeePDB.c ****   const unsigned int cuiValue;
  41:/home/hkh/git/eapidk-code-r76-trunk/apps/EeePProg/linux/../EeePDB.c **** }StringLookup_t;
  42:/home/hkh/git/eapidk-code-r76-trunk/apps/EeePProg/linux/../EeePDB.c **** 
  43:/home/hkh/git/eapidk-code-r76-trunk/apps/EeePProg/linux/../EeePDB.c **** StringLookup_t BlockIdLookup[]={
  44:/home/hkh/git/eapidk-code-r76-trunk/apps/EeePProg/linux/../EeePDB.c ****   { "EEEP_BLOCK_ID_UNUSED"          , EEEP_BLOCK_ID_UNUSED          },
  45:/home/hkh/git/eapidk-code-r76-trunk/apps/EeePProg/linux/../EeePDB.c ****   { "EEEP_BLOCK_ID_VENDOR_SPECIFIC" , EEEP_BLOCK_ID_VENDOR_SPECIFIC },
  46:/home/hkh/git/eapidk-code-r76-trunk/apps/EeePProg/linux/../EeePDB.c ****   { "EEEP_BLOCK_ID_EXP_EEPROM"      , EEEP_BLOCK_ID_EXP_EEPROM      },
  47:/home/hkh/git/eapidk-code-r76-trunk/apps/EeePProg/linux/../EeePDB.c ****   { "EEEP_BLOCK_ID_SMBIOS"          , EEEP_BLOCK_ID_SMBIOS          },
  48:/home/hkh/git/eapidk-code-r76-trunk/apps/EeePProg/linux/../EeePDB.c ****   { "EEEP_BLOCK_ID_LFP"             , EEEP_BLOCK_ID_LFP             },
  49:/home/hkh/git/eapidk-code-r76-trunk/apps/EeePProg/linux/../EeePDB.c ****   { "EEEP_BLOCK_ID_CRC_CHK"         , EEEP_BLOCK_ID_CRC_CHK         },
  50:/home/hkh/git/eapidk-code-r76-trunk/apps/EeePProg/linux/../EeePDB.c ****   { "EEEP_BLOCK_ID_IGNORE"          , EEEP_BLOCK_ID_IGNORE          },
  51:/home/hkh/git/eapidk-code-r76-trunk/apps/EeePProg/linux/../EeePDB.c **** 
  52:/home/hkh/git/eapidk-code-r76-trunk/apps/EeePProg/linux/../EeePDB.c ****   { "COM0R20_BLOCK_ID_EXP_CARD_DESC", COM0R20_BLOCK_ID_EXP_CARD_DESC},
  53:/home/hkh/git/eapidk-code-r76-trunk/apps/EeePProg/linux/../EeePDB.c ****   { "COM0R20_BLOCK_ID_SERIO_DESC"   , COM0R20_BLOCK_ID_SERIO_DESC   },
  54:/home/hkh/git/eapidk-code-r76-trunk/apps/EeePProg/linux/../EeePDB.c ****   { NULL                            , 0                             },
  55:/home/hkh/git/eapidk-code-r76-trunk/apps/EeePProg/linux/../EeePDB.c **** };
  56:/home/hkh/git/eapidk-code-r76-trunk/apps/EeePProg/linux/../EeePDB.c **** 
  57:/home/hkh/git/eapidk-code-r76-trunk/apps/EeePProg/linux/../EeePDB.c **** 
  58:/home/hkh/git/eapidk-code-r76-trunk/apps/EeePProg/linux/../EeePDB.c **** EApiStatus_t 
  59:/home/hkh/git/eapidk-code-r76-trunk/apps/EeePProg/linux/../EeePDB.c **** GetString(
  60:/home/hkh/git/eapidk-code-r76-trunk/apps/EeePProg/linux/../EeePDB.c ****     __IN  StringLookup_t *pStrTbl,
  61:/home/hkh/git/eapidk-code-r76-trunk/apps/EeePProg/linux/../EeePDB.c ****     __OUT TCHAR *        pszString,
  62:/home/hkh/git/eapidk-code-r76-trunk/apps/EeePProg/linux/../EeePDB.c ****     __IN  size_t         stArrayLen,
  63:/home/hkh/git/eapidk-code-r76-trunk/apps/EeePProg/linux/../EeePDB.c ****     __IN  unsigned int   uiValue
  64:/home/hkh/git/eapidk-code-r76-trunk/apps/EeePProg/linux/../EeePDB.c ****     )
  65:/home/hkh/git/eapidk-code-r76-trunk/apps/EeePProg/linux/../EeePDB.c **** {
  37              		.loc 1 65 1 view -0
  38              		.cfi_startproc
  39              		@ args = 0, pretend = 0, frame = 0
  40              		@ frame_needed = 0, uses_anonymous_args = 0
  66:/home/hkh/git/eapidk-code-r76-trunk/apps/EeePProg/linux/../EeePDB.c ****   EApiStatus_t StatusCode=EAPI_STATUS_SUCCESS;
  41              		.loc 1 66 3 view .LVU1
  67:/home/hkh/git/eapidk-code-r76-trunk/apps/EeePProg/linux/../EeePDB.c ****   for(;pStrTbl->szString!=NULL;pStrTbl++){
  42              		.loc 1 67 3 view .LVU2
  65:/home/hkh/git/eapidk-code-r76-trunk/apps/EeePProg/linux/../EeePDB.c ****   EApiStatus_t StatusCode=EAPI_STATUS_SUCCESS;
  43              		.loc 1 65 1 is_stmt 0 view .LVU3
  44 0000 10402DE9 		push	{r4, lr}
  45              		.cfi_def_cfa_offset 8
ARM GAS  /tmp/ccTXisr2.s 			page 3


  46              		.cfi_offset 4, -8
  47              		.cfi_offset 14, -4
  65:/home/hkh/git/eapidk-code-r76-trunk/apps/EeePProg/linux/../EeePDB.c ****   EApiStatus_t StatusCode=EAPI_STATUS_SUCCESS;
  48              		.loc 1 65 1 view .LVU4
  49 0004 00C0A0E1 		mov	ip, r0
  50              		.loc 1 67 25 is_stmt 1 view .LVU5
  51              		.loc 1 67 15 is_stmt 0 view .LVU6
  52 0008 00E090E5 		ldr	lr, [r0]
  65:/home/hkh/git/eapidk-code-r76-trunk/apps/EeePProg/linux/../EeePDB.c ****   EApiStatus_t StatusCode=EAPI_STATUS_SUCCESS;
  53              		.loc 1 65 1 view .LVU7
  54 000c 0100A0E1 		mov	r0, r1
  55              	.LVL1:
  65:/home/hkh/git/eapidk-code-r76-trunk/apps/EeePProg/linux/../EeePDB.c ****   EApiStatus_t StatusCode=EAPI_STATUS_SUCCESS;
  56              		.loc 1 65 1 view .LVU8
  57 0010 0210A0E1 		mov	r1, r2
  58              	.LVL2:
  59              		.loc 1 67 25 view .LVU9
  60 0014 00005EE3 		cmp	lr, #0
  61 0018 0300001A 		bne	.L5
  62 001c 0B0000EA 		b	.L2
  63              	.LVL3:
  64              	.L3:
  65              		.loc 1 67 15 view .LVU10
  66 0020 08E0BCE5 		ldr	lr, [ip, #8]!
  67              	.LVL4:
  68              		.loc 1 67 25 view .LVU11
  69 0024 00005EE3 		cmp	lr, #0
  70 0028 0800000A 		beq	.L2
  71              	.LVL5:
  72              	.L5:
  68:/home/hkh/git/eapidk-code-r76-trunk/apps/EeePProg/linux/../EeePDB.c ****     if(pStrTbl->cuiValue==uiValue){
  73              		.loc 1 68 5 is_stmt 1 view .LVU12
  67:/home/hkh/git/eapidk-code-r76-trunk/apps/EeePProg/linux/../EeePDB.c ****   for(;pStrTbl->szString!=NULL;pStrTbl++){
  74              		.loc 1 67 39 view .LVU13
  67:/home/hkh/git/eapidk-code-r76-trunk/apps/EeePProg/linux/../EeePDB.c ****   for(;pStrTbl->szString!=NULL;pStrTbl++){
  75              		.loc 1 67 25 view .LVU14
  76              		.loc 1 68 7 is_stmt 0 view .LVU15
  77 002c 04209CE5 		ldr	r2, [ip, #4]
  78 0030 030052E1 		cmp	r2, r3
  79 0034 F9FFFF1A 		bne	.L3
  69:/home/hkh/git/eapidk-code-r76-trunk/apps/EeePProg/linux/../EeePDB.c **** #if UNICODE
  70:/home/hkh/git/eapidk-code-r76-trunk/apps/EeePProg/linux/../EeePDB.c ****       EApiSprintf(pszString, stArrayLen, TEXT("%hs"), pStrTbl->szString);
  71:/home/hkh/git/eapidk-code-r76-trunk/apps/EeePProg/linux/../EeePDB.c **** #else
  72:/home/hkh/git/eapidk-code-r76-trunk/apps/EeePProg/linux/../EeePDB.c ****       EApiSprintf(pszString, stArrayLen, TEXT("%s"), pStrTbl->szString);
  80              		.loc 1 72 7 is_stmt 1 view .LVU16
  81 0038 24209FE5 		ldr	r2, .L12
  82 003c 0E30A0E1 		mov	r3, lr
  83              	.LVL6:
  84              		.loc 1 72 7 is_stmt 0 view .LVU17
  85              	.LPIC0:
  86 0040 02208FE0 		add	r2, pc, r2
  87 0044 FEFFFFEB 		bl	EApiSprintf(PLT)
  88              	.LVL7:
  73:/home/hkh/git/eapidk-code-r76-trunk/apps/EeePProg/linux/../EeePDB.c **** #endif
  74:/home/hkh/git/eapidk-code-r76-trunk/apps/EeePProg/linux/../EeePDB.c ****       goto ExitSuccess;
  89              		.loc 1 74 7 is_stmt 1 view .LVU18
  66:/home/hkh/git/eapidk-code-r76-trunk/apps/EeePProg/linux/../EeePDB.c ****   for(;pStrTbl->szString!=NULL;pStrTbl++){
ARM GAS  /tmp/ccTXisr2.s 			page 4


  90              		.loc 1 66 16 is_stmt 0 view .LVU19
  91 0048 0000A0E3 		mov	r0, #0
  92              		.loc 1 74 7 view .LVU20
  93 004c 1080BDE8 		pop	{r4, pc}
  94              	.LVL8:
  95              	.L2:
  96              	.L4:
  75:/home/hkh/git/eapidk-code-r76-trunk/apps/EeePProg/linux/../EeePDB.c ****     }
  76:/home/hkh/git/eapidk-code-r76-trunk/apps/EeePProg/linux/../EeePDB.c ****   }
  77:/home/hkh/git/eapidk-code-r76-trunk/apps/EeePProg/linux/../EeePDB.c ****   EApiSprintf(pszString, stArrayLen, TEXT("UNKNOWN ID"));
  97              		.loc 1 77 3 is_stmt 1 view .LVU21
  98 0050 10209FE5 		ldr	r2, .L12+4
  99              	.LPIC1:
 100 0054 02208FE0 		add	r2, pc, r2
 101 0058 FEFFFFEB 		bl	EApiSprintf(PLT)
 102              	.LVL9:
  78:/home/hkh/git/eapidk-code-r76-trunk/apps/EeePProg/linux/../EeePDB.c ****   StatusCode=EAPI_STATUS_ERROR;
 103              		.loc 1 78 3 view .LVU22
 104              		.loc 1 78 13 is_stmt 0 view .LVU23
 105 005c 0F0CE0E3 		mvn	r0, #3840
  79:/home/hkh/git/eapidk-code-r76-trunk/apps/EeePProg/linux/../EeePDB.c **** ExitSuccess:
  80:/home/hkh/git/eapidk-code-r76-trunk/apps/EeePProg/linux/../EeePDB.c ****   return StatusCode;
 106              		.loc 1 80 3 is_stmt 1 view .LVU24
  81:/home/hkh/git/eapidk-code-r76-trunk/apps/EeePProg/linux/../EeePDB.c **** }
 107              		.loc 1 81 1 is_stmt 0 view .LVU25
 108 0060 1080BDE8 		pop	{r4, pc}
 109              	.L13:
 110              		.align	2
 111              	.L12:
 112 0064 1C000000 		.word	.LC0-(.LPIC0+8)
 113 0068 0C000000 		.word	.LC1-(.LPIC1+8)
 114              		.cfi_endproc
 115              	.LFE1:
 117              		.align	2
 118              		.global	GetDBlckIdString
 119              		.syntax unified
 120              		.arm
 121              		.fpu vfpv3
 123              	GetDBlckIdString:
 124              	.LVL10:
 125              	.LFB2:
  82:/home/hkh/git/eapidk-code-r76-trunk/apps/EeePProg/linux/../EeePDB.c **** 
  83:/home/hkh/git/eapidk-code-r76-trunk/apps/EeePProg/linux/../EeePDB.c **** EApiStatus_t 
  84:/home/hkh/git/eapidk-code-r76-trunk/apps/EeePProg/linux/../EeePDB.c **** GetDBlckIdString(
  85:/home/hkh/git/eapidk-code-r76-trunk/apps/EeePProg/linux/../EeePDB.c ****     __OUT TCHAR *        pszString,
  86:/home/hkh/git/eapidk-code-r76-trunk/apps/EeePProg/linux/../EeePDB.c ****     __IN  size_t         stArrayLen,
  87:/home/hkh/git/eapidk-code-r76-trunk/apps/EeePProg/linux/../EeePDB.c ****     __IN  unsigned int   uiValue
  88:/home/hkh/git/eapidk-code-r76-trunk/apps/EeePProg/linux/../EeePDB.c ****     )
  89:/home/hkh/git/eapidk-code-r76-trunk/apps/EeePProg/linux/../EeePDB.c **** {
 126              		.loc 1 89 1 is_stmt 1 view -0
 127              		.cfi_startproc
 128              		@ args = 0, pretend = 0, frame = 0
 129              		@ frame_needed = 0, uses_anonymous_args = 0
  90:/home/hkh/git/eapidk-code-r76-trunk/apps/EeePProg/linux/../EeePDB.c ****   return GetString(BlockIdLookup, pszString, stArrayLen, uiValue);
 130              		.loc 1 90 3 view .LVU27
 131              	.LBB39:
 132              	.LBB40:
ARM GAS  /tmp/ccTXisr2.s 			page 5


  67:/home/hkh/git/eapidk-code-r76-trunk/apps/EeePProg/linux/../EeePDB.c ****     if(pStrTbl->cuiValue==uiValue){
 133              		.loc 1 67 15 is_stmt 0 view .LVU28
 134 006c 54C09FE5 		ldr	ip, .L24
 135              	.LBE40:
 136              	.LBE39:
  89:/home/hkh/git/eapidk-code-r76-trunk/apps/EeePProg/linux/../EeePDB.c ****   return GetString(BlockIdLookup, pszString, stArrayLen, uiValue);
 137              		.loc 1 89 1 view .LVU29
 138 0070 10402DE9 		push	{r4, lr}
 139              		.cfi_def_cfa_offset 8
 140              		.cfi_offset 4, -8
 141              		.cfi_offset 14, -4
 142              	.LBB43:
 143              	.LBB41:
  67:/home/hkh/git/eapidk-code-r76-trunk/apps/EeePProg/linux/../EeePDB.c ****     if(pStrTbl->cuiValue==uiValue){
 144              		.loc 1 67 15 view .LVU30
 145              	.LPIC2:
 146 0074 0CC08FE0 		add	ip, pc, ip
 147              	.LVL11:
  67:/home/hkh/git/eapidk-code-r76-trunk/apps/EeePProg/linux/../EeePDB.c ****     if(pStrTbl->cuiValue==uiValue){
 148              		.loc 1 67 15 view .LVU31
 149 0078 00309CE5 		ldr	r3, [ip]
 150              	.LVL12:
  67:/home/hkh/git/eapidk-code-r76-trunk/apps/EeePProg/linux/../EeePDB.c ****     if(pStrTbl->cuiValue==uiValue){
 151              		.loc 1 67 15 view .LVU32
 152              	.LBE41:
 153              	.LBI39:
  59:/home/hkh/git/eapidk-code-r76-trunk/apps/EeePProg/linux/../EeePDB.c ****     __IN  StringLookup_t *pStrTbl,
 154              		.loc 1 59 1 is_stmt 1 view .LVU33
 155              	.LBB42:
  67:/home/hkh/git/eapidk-code-r76-trunk/apps/EeePProg/linux/../EeePDB.c ****     if(pStrTbl->cuiValue==uiValue){
 156              		.loc 1 67 25 view .LVU34
 157 007c 000053E3 		cmp	r3, #0
 158 0080 0300001A 		bne	.L18
 159 0084 0A0000EA 		b	.L15
 160              	.LVL13:
 161              	.L16:
  67:/home/hkh/git/eapidk-code-r76-trunk/apps/EeePProg/linux/../EeePDB.c ****     if(pStrTbl->cuiValue==uiValue){
 162              		.loc 1 67 15 is_stmt 0 view .LVU35
 163 0088 0830BCE5 		ldr	r3, [ip, #8]!
 164              	.LVL14:
  67:/home/hkh/git/eapidk-code-r76-trunk/apps/EeePProg/linux/../EeePDB.c ****     if(pStrTbl->cuiValue==uiValue){
 165              		.loc 1 67 25 view .LVU36
 166 008c 000053E3 		cmp	r3, #0
 167 0090 0700000A 		beq	.L15
 168              	.LVL15:
 169              	.L18:
  68:/home/hkh/git/eapidk-code-r76-trunk/apps/EeePProg/linux/../EeePDB.c **** #if UNICODE
 170              		.loc 1 68 5 is_stmt 1 view .LVU37
  67:/home/hkh/git/eapidk-code-r76-trunk/apps/EeePProg/linux/../EeePDB.c ****     if(pStrTbl->cuiValue==uiValue){
 171              		.loc 1 67 39 view .LVU38
  67:/home/hkh/git/eapidk-code-r76-trunk/apps/EeePProg/linux/../EeePDB.c ****     if(pStrTbl->cuiValue==uiValue){
 172              		.loc 1 67 25 view .LVU39
  68:/home/hkh/git/eapidk-code-r76-trunk/apps/EeePProg/linux/../EeePDB.c **** #if UNICODE
 173              		.loc 1 68 7 is_stmt 0 view .LVU40
 174 0094 04E09CE5 		ldr	lr, [ip, #4]
 175 0098 0E0052E1 		cmp	r2, lr
 176 009c F9FFFF1A 		bne	.L16
ARM GAS  /tmp/ccTXisr2.s 			page 6


  72:/home/hkh/git/eapidk-code-r76-trunk/apps/EeePProg/linux/../EeePDB.c **** #endif
 177              		.loc 1 72 7 is_stmt 1 view .LVU41
 178 00a0 24209FE5 		ldr	r2, .L24+4
 179              	.LVL16:
  72:/home/hkh/git/eapidk-code-r76-trunk/apps/EeePProg/linux/../EeePDB.c **** #endif
 180              		.loc 1 72 7 is_stmt 0 view .LVU42
 181              	.LPIC4:
 182 00a4 02208FE0 		add	r2, pc, r2
 183 00a8 FEFFFFEB 		bl	EApiSprintf(PLT)
 184              	.LVL17:
  74:/home/hkh/git/eapidk-code-r76-trunk/apps/EeePProg/linux/../EeePDB.c ****     }
 185              		.loc 1 74 7 is_stmt 1 view .LVU43
  66:/home/hkh/git/eapidk-code-r76-trunk/apps/EeePProg/linux/../EeePDB.c ****   for(;pStrTbl->szString!=NULL;pStrTbl++){
 186              		.loc 1 66 16 is_stmt 0 view .LVU44
 187 00ac 0000A0E3 		mov	r0, #0
  74:/home/hkh/git/eapidk-code-r76-trunk/apps/EeePProg/linux/../EeePDB.c ****     }
 188              		.loc 1 74 7 view .LVU45
 189 00b0 1080BDE8 		pop	{r4, pc}
 190              	.LVL18:
 191              	.L15:
 192              	.L17:
  77:/home/hkh/git/eapidk-code-r76-trunk/apps/EeePProg/linux/../EeePDB.c ****   StatusCode=EAPI_STATUS_ERROR;
 193              		.loc 1 77 3 is_stmt 1 view .LVU46
 194 00b4 14209FE5 		ldr	r2, .L24+8
 195              	.LVL19:
  77:/home/hkh/git/eapidk-code-r76-trunk/apps/EeePProg/linux/../EeePDB.c ****   StatusCode=EAPI_STATUS_ERROR;
 196              		.loc 1 77 3 is_stmt 0 view .LVU47
 197              	.LPIC5:
 198 00b8 02208FE0 		add	r2, pc, r2
 199 00bc FEFFFFEB 		bl	EApiSprintf(PLT)
 200              	.LVL20:
  78:/home/hkh/git/eapidk-code-r76-trunk/apps/EeePProg/linux/../EeePDB.c **** ExitSuccess:
 201              		.loc 1 78 3 is_stmt 1 view .LVU48
  78:/home/hkh/git/eapidk-code-r76-trunk/apps/EeePProg/linux/../EeePDB.c **** ExitSuccess:
 202              		.loc 1 78 13 is_stmt 0 view .LVU49
 203 00c0 0F0CE0E3 		mvn	r0, #3840
  80:/home/hkh/git/eapidk-code-r76-trunk/apps/EeePProg/linux/../EeePDB.c **** }
 204              		.loc 1 80 3 is_stmt 1 view .LVU50
 205              	.LVL21:
  80:/home/hkh/git/eapidk-code-r76-trunk/apps/EeePProg/linux/../EeePDB.c **** }
 206              		.loc 1 80 3 is_stmt 0 view .LVU51
 207              	.LBE42:
 208              	.LBE43:
  91:/home/hkh/git/eapidk-code-r76-trunk/apps/EeePProg/linux/../EeePDB.c **** }
 209              		.loc 1 91 1 view .LVU52
 210 00c4 1080BDE8 		pop	{r4, pc}
 211              	.L25:
 212              		.align	2
 213              	.L24:
 214 00c8 4C000000 		.word	.LANCHOR0-(.LPIC2+8)
 215 00cc 20000000 		.word	.LC0-(.LPIC4+8)
 216 00d0 10000000 		.word	.LC1-(.LPIC5+8)
 217              		.cfi_endproc
 218              	.LFE2:
 220              		.align	2
 221              		.global	EeePAdjLength
 222              		.syntax unified
ARM GAS  /tmp/ccTXisr2.s 			page 7


 223              		.arm
 224              		.fpu vfpv3
 226              	EeePAdjLength:
 227              	.LVL22:
 228              	.LFB3:
  92:/home/hkh/git/eapidk-code-r76-trunk/apps/EeePProg/linux/../EeePDB.c **** size_t 
  93:/home/hkh/git/eapidk-code-r76-trunk/apps/EeePProg/linux/../EeePDB.c **** EeePAdjLength(
  94:/home/hkh/git/eapidk-code-r76-trunk/apps/EeePProg/linux/../EeePDB.c ****     size_t Length
  95:/home/hkh/git/eapidk-code-r76-trunk/apps/EeePProg/linux/../EeePDB.c ****     )
  96:/home/hkh/git/eapidk-code-r76-trunk/apps/EeePProg/linux/../EeePDB.c **** {
 229              		.loc 1 96 1 is_stmt 1 view -0
 230              		.cfi_startproc
 231              		@ args = 0, pretend = 0, frame = 0
 232              		@ frame_needed = 0, uses_anonymous_args = 0
 233              		@ link register save eliminated.
  97:/home/hkh/git/eapidk-code-r76-trunk/apps/EeePProg/linux/../EeePDB.c ****   return EEEP_DIVIDE_RU(Length, EEEP_SIZE_UNITS);
 234              		.loc 1 97 3 view .LVU54
 235              		.loc 1 97 10 is_stmt 0 view .LVU55
 236 00d4 010080E2 		add	r0, r0, #1
 237              	.LVL23:
  98:/home/hkh/git/eapidk-code-r76-trunk/apps/EeePProg/linux/../EeePDB.c **** }
 238              		.loc 1 98 1 view .LVU56
 239 00d8 A000A0E1 		lsr	r0, r0, #1
 240              	.LVL24:
 241              		.loc 1 98 1 view .LVU57
 242 00dc 1EFF2FE1 		bx	lr
 243              		.cfi_endproc
 244              	.LFE3:
 246              		.align	2
 247              		.global	EeePAlignLength
 248              		.syntax unified
 249              		.arm
 250              		.fpu vfpv3
 252              	EeePAlignLength:
 253              	.LVL25:
 254              	.LFB4:
  99:/home/hkh/git/eapidk-code-r76-trunk/apps/EeePProg/linux/../EeePDB.c **** size_t 
 100:/home/hkh/git/eapidk-code-r76-trunk/apps/EeePProg/linux/../EeePDB.c **** EeePAlignLength(
 101:/home/hkh/git/eapidk-code-r76-trunk/apps/EeePProg/linux/../EeePDB.c ****     size_t Length
 102:/home/hkh/git/eapidk-code-r76-trunk/apps/EeePProg/linux/../EeePDB.c ****     )
 103:/home/hkh/git/eapidk-code-r76-trunk/apps/EeePProg/linux/../EeePDB.c **** {
 255              		.loc 1 103 1 is_stmt 1 view -0
 256              		.cfi_startproc
 257              		@ args = 0, pretend = 0, frame = 0
 258              		@ frame_needed = 0, uses_anonymous_args = 0
 259              		@ link register save eliminated.
 104:/home/hkh/git/eapidk-code-r76-trunk/apps/EeePProg/linux/../EeePDB.c **** #if (EEEP_SIZE_UNITS&(EEEP_SIZE_UNITS-1))
 105:/home/hkh/git/eapidk-code-r76-trunk/apps/EeePProg/linux/../EeePDB.c ****   return EEEP_ALIGN_VALUE(Length, EEEP_SIZE_UNITS);
 106:/home/hkh/git/eapidk-code-r76-trunk/apps/EeePProg/linux/../EeePDB.c **** #else
 107:/home/hkh/git/eapidk-code-r76-trunk/apps/EeePProg/linux/../EeePDB.c ****   return EEEP_ALIGN_VALUE_B(Length, EEEP_SIZE_UNITS);
 260              		.loc 1 107 3 view .LVU59
 261              		.loc 1 107 10 is_stmt 0 view .LVU60
 262 00e0 010080E2 		add	r0, r0, #1
 263              	.LVL26:
 108:/home/hkh/git/eapidk-code-r76-trunk/apps/EeePProg/linux/../EeePDB.c **** #endif
 109:/home/hkh/git/eapidk-code-r76-trunk/apps/EeePProg/linux/../EeePDB.c **** }
 264              		.loc 1 109 1 view .LVU61
ARM GAS  /tmp/ccTXisr2.s 			page 8


 265 00e4 0100C0E3 		bic	r0, r0, #1
 266              	.LVL27:
 267              		.loc 1 109 1 view .LVU62
 268 00e8 1EFF2FE1 		bx	lr
 269              		.cfi_endproc
 270              	.LFE4:
 272              		.section	.rodata.str1.4
 273 000f 00       		.align	2
 274              	.LC2:
 275 0010 53657442 		.ascii	"SetBlockLength\000"
 275      6C6F636B 
 275      4C656E67 
 275      746800
 276 001f 00       		.align	2
 277              	.LC3:
 278 0020 2F686F6D 		.ascii	"/home/hkh/git/eapidk-code-r76-trunk/apps/EeePProg/l"
 278      652F686B 
 278      682F6769 
 278      742F6561 
 278      7069646B 
 279 0053 696E7578 		.ascii	"inux/../EeePDB.c\000"
 279      2F2E2E2F 
 279      45656550 
 279      44422E63 
 279      00
 280              		.align	2
 281              	.LC4:
 282 0064 28424861 		.ascii	"(BHandel==NULL)\000"
 282      6E64656C 
 282      3D3D4E55 
 282      4C4C2900 
 283              		.align	2
 284              	.LC5:
 285 0074 25730A00 		.ascii	"%s\012\000"
 286              		.align	2
 287              	.LC6:
 288 0078 28737442 		.ascii	"(stBlockLength%EEEP_SIZE_UNITS)\000"
 288      6C6F636B 
 288      4C656E67 
 288      74682545 
 288      4545505F 
 289              		.align	2
 290              	.LC7:
 291 0098 28737442 		.ascii	"(stBlockLength>(UINT16_MAX*EEEP_SIZE_UNITS))\000"
 291      6C6F636B 
 291      4C656E67 
 291      74683E28 
 291      55494E54 
 292              		.text
 293              		.align	2
 294              		.global	SetBlockLength
 295              		.syntax unified
 296              		.arm
 297              		.fpu vfpv3
 299              	SetBlockLength:
 300              	.LVL28:
 301              	.LFB5:
ARM GAS  /tmp/ccTXisr2.s 			page 9


 110:/home/hkh/git/eapidk-code-r76-trunk/apps/EeePProg/linux/../EeePDB.c **** 
 111:/home/hkh/git/eapidk-code-r76-trunk/apps/EeePProg/linux/../EeePDB.c **** EApiStatus_t
 112:/home/hkh/git/eapidk-code-r76-trunk/apps/EeePProg/linux/../EeePDB.c **** SetBlockLength(
 113:/home/hkh/git/eapidk-code-r76-trunk/apps/EeePProg/linux/../EeePDB.c ****     EeePHandel_t BHandel,
 114:/home/hkh/git/eapidk-code-r76-trunk/apps/EeePProg/linux/../EeePDB.c ****     size_t       stBlockLength
 115:/home/hkh/git/eapidk-code-r76-trunk/apps/EeePProg/linux/../EeePDB.c ****     )
 116:/home/hkh/git/eapidk-code-r76-trunk/apps/EeePProg/linux/../EeePDB.c **** {
 302              		.loc 1 116 1 is_stmt 1 view -0
 303              		.cfi_startproc
 304              		@ args = 0, pretend = 0, frame = 0
 305              		@ frame_needed = 0, uses_anonymous_args = 0
 117:/home/hkh/git/eapidk-code-r76-trunk/apps/EeePProg/linux/../EeePDB.c ****   EApiStatus_t StatusCode=EAPI_STATUS_SUCCESS;
 306              		.loc 1 117 3 view .LVU64
 118:/home/hkh/git/eapidk-code-r76-trunk/apps/EeePProg/linux/../EeePDB.c ****   EAPI_APP_ASSERT_PARAMATER_NULL(
 307              		.loc 1 118 3 view .LVU65
 308 00ec 000050E3 		cmp	r0, #0
 116:/home/hkh/git/eapidk-code-r76-trunk/apps/EeePProg/linux/../EeePDB.c ****   EApiStatus_t StatusCode=EAPI_STATUS_SUCCESS;
 309              		.loc 1 116 1 is_stmt 0 view .LVU66
 310 00f0 10402DE9 		push	{r4, lr}
 311              		.cfi_def_cfa_offset 8
 312              		.cfi_offset 4, -8
 313              		.cfi_offset 14, -4
 314 00f4 10D04DE2 		sub	sp, sp, #16
 315              		.cfi_def_cfa_offset 24
 316              		.loc 1 118 3 view .LVU67
 317 00f8 2700000A 		beq	.L35
 318              		.loc 1 118 3 is_stmt 1 discriminator 2 view .LVU68
 119:/home/hkh/git/eapidk-code-r76-trunk/apps/EeePProg/linux/../EeePDB.c ****       SetBlockLength,
 120:/home/hkh/git/eapidk-code-r76-trunk/apps/EeePProg/linux/../EeePDB.c ****       EAPI_STATUS_INVALID_PARAMETER,
 121:/home/hkh/git/eapidk-code-r76-trunk/apps/EeePProg/linux/../EeePDB.c ****       BHandel
 122:/home/hkh/git/eapidk-code-r76-trunk/apps/EeePProg/linux/../EeePDB.c ****     );
 319              		.loc 1 122 6 discriminator 2 view .LVU69
 123:/home/hkh/git/eapidk-code-r76-trunk/apps/EeePProg/linux/../EeePDB.c ****   EAPI_APP_ASSERT_PARAMATER_CHECK_S(
 320              		.loc 1 123 3 discriminator 2 view .LVU70
 321 00fc 014011E2 		ands	r4, r1, #1
 322 0100 1A00001A 		bne	.L36
 323              		.loc 1 123 3 discriminator 2 view .LVU71
 124:/home/hkh/git/eapidk-code-r76-trunk/apps/EeePProg/linux/../EeePDB.c ****       SetBlockLength,
 125:/home/hkh/git/eapidk-code-r76-trunk/apps/EeePProg/linux/../EeePDB.c ****       EAPI_STATUS_INVALID_PARAMETER,
 126:/home/hkh/git/eapidk-code-r76-trunk/apps/EeePProg/linux/../EeePDB.c ****       (stBlockLength%EEEP_SIZE_UNITS)
 127:/home/hkh/git/eapidk-code-r76-trunk/apps/EeePProg/linux/../EeePDB.c ****     );
 324              		.loc 1 127 6 discriminator 2 view .LVU72
 128:/home/hkh/git/eapidk-code-r76-trunk/apps/EeePProg/linux/../EeePDB.c ****   EAPI_APP_ASSERT_PARAMATER_CHECK_S(
 325              		.loc 1 128 3 discriminator 2 view .LVU73
 326 0104 FE3F0FE3 		movw	r3, #65534
 327 0108 013040E3 		movt	r3, 1
 328 010c 030051E1 		cmp	r1, r3
 329 0110 0500008A 		bhi	.L37
 330              	.L30:
 331              		.loc 1 128 3 discriminator 2 view .LVU74
 129:/home/hkh/git/eapidk-code-r76-trunk/apps/EeePProg/linux/../EeePDB.c ****       SetBlockLength, 
 130:/home/hkh/git/eapidk-code-r76-trunk/apps/EeePProg/linux/../EeePDB.c ****       EAPI_STATUS_INVALID_PARAMETER, 
 131:/home/hkh/git/eapidk-code-r76-trunk/apps/EeePProg/linux/../EeePDB.c ****       (stBlockLength>(UINT16_MAX*EEEP_SIZE_UNITS))
 132:/home/hkh/git/eapidk-code-r76-trunk/apps/EeePProg/linux/../EeePDB.c ****     );
 332              		.loc 1 132 6 discriminator 2 view .LVU75
 133:/home/hkh/git/eapidk-code-r76-trunk/apps/EeePProg/linux/../EeePDB.c **** 
 134:/home/hkh/git/eapidk-code-r76-trunk/apps/EeePProg/linux/../EeePDB.c ****   EeeP_Set16BitValue_BE(
ARM GAS  /tmp/ccTXisr2.s 			page 10


 333              		.loc 1 134 3 discriminator 2 view .LVU76
 334 0114 D110EFE7 		ubfx	r1, r1, #1, #16
 335              	.LVL29:
 336              		.loc 1 134 3 is_stmt 0 discriminator 2 view .LVU77
 337 0118 010080E2 		add	r0, r0, #1
 338              	.LVL30:
 339              		.loc 1 134 3 discriminator 2 view .LVU78
 340 011c FEFFFFEB 		bl	EeeP_Set16BitValue_BE(PLT)
 341              	.LVL31:
 135:/home/hkh/git/eapidk-code-r76-trunk/apps/EeePProg/linux/../EeePDB.c ****         ((DBlockIdHdr_t*)BHandel)->DBlockLength, 
 136:/home/hkh/git/eapidk-code-r76-trunk/apps/EeePProg/linux/../EeePDB.c ****         EEEP_LO_UINT16((stBlockLength)/EEEP_SIZE_UNITS)
 137:/home/hkh/git/eapidk-code-r76-trunk/apps/EeePProg/linux/../EeePDB.c ****       );
 138:/home/hkh/git/eapidk-code-r76-trunk/apps/EeePProg/linux/../EeePDB.c **** EAPI_APP_ASSERT_EXIT
 139:/home/hkh/git/eapidk-code-r76-trunk/apps/EeePProg/linux/../EeePDB.c ****   if(!EAPI_TEST_SUCCESS(StatusCode)){
 342              		.loc 1 139 3 is_stmt 1 discriminator 2 view .LVU79
 140:/home/hkh/git/eapidk-code-r76-trunk/apps/EeePProg/linux/../EeePDB.c ****   }
 343              		.loc 1 140 3 discriminator 2 view .LVU80
 141:/home/hkh/git/eapidk-code-r76-trunk/apps/EeePProg/linux/../EeePDB.c ****   return StatusCode;
 344              		.loc 1 141 3 discriminator 2 view .LVU81
 142:/home/hkh/git/eapidk-code-r76-trunk/apps/EeePProg/linux/../EeePDB.c **** }
 345              		.loc 1 142 1 is_stmt 0 discriminator 2 view .LVU82
 346 0120 0400A0E1 		mov	r0, r4
 347 0124 10D08DE2 		add	sp, sp, #16
 348              		.cfi_remember_state
 349              		.cfi_def_cfa_offset 8
 350              		@ sp needed
 351 0128 1080BDE8 		pop	{r4, pc}
 352              	.LVL32:
 353              	.L37:
 354              		.cfi_restore_state
 128:/home/hkh/git/eapidk-code-r76-trunk/apps/EeePProg/linux/../EeePDB.c ****       SetBlockLength, 
 355              		.loc 1 128 3 is_stmt 1 discriminator 1 view .LVU83
 128:/home/hkh/git/eapidk-code-r76-trunk/apps/EeePProg/linux/../EeePDB.c ****       SetBlockLength, 
 356              		.loc 1 128 3 discriminator 1 view .LVU84
 357 012c 94C09FE5 		ldr	ip, .L38
 358 0130 014CE0E3 		mvn	r4, #256
 359 0134 90009FE5 		ldr	r0, .L38+4
 360              	.LVL33:
 128:/home/hkh/git/eapidk-code-r76-trunk/apps/EeePProg/linux/../EeePDB.c ****       SetBlockLength, 
 361              		.loc 1 128 3 is_stmt 0 discriminator 1 view .LVU85
 362 0138 8030A0E3 		mov	r3, #128
 363 013c 8C209FE5 		ldr	r2, .L38+8
 364 0140 8C109FE5 		ldr	r1, .L38+12
 365              	.LVL34:
 128:/home/hkh/git/eapidk-code-r76-trunk/apps/EeePProg/linux/../EeePDB.c ****       SetBlockLength, 
 366              		.loc 1 128 3 discriminator 1 view .LVU86
 367              	.LPIC16:
 368 0144 0CC08FE0 		add	ip, pc, ip
 369              	.LPIC17:
 370 0148 00008FE0 		add	r0, pc, r0
 371              	.LPIC14:
 372 014c 02208FE0 		add	r2, pc, r2
 373              	.LPIC15:
 374 0150 01108FE0 		add	r1, pc, r1
 375              	.L34:
 376 0154 01108DE9 		stmib	sp, {r0, ip}
 377 0158 4500A0E3 		mov	r0, #69
ARM GAS  /tmp/ccTXisr2.s 			page 11


 378 015c 00408DE5 		str	r4, [sp]
 379 0160 FEFFFFEB 		bl	siFormattedMessage_SC(PLT)
 380              	.LVL35:
 128:/home/hkh/git/eapidk-code-r76-trunk/apps/EeePProg/linux/../EeePDB.c ****       SetBlockLength, 
 381              		.loc 1 128 3 is_stmt 1 discriminator 1 view .LVU87
 128:/home/hkh/git/eapidk-code-r76-trunk/apps/EeePProg/linux/../EeePDB.c ****       SetBlockLength, 
 382              		.loc 1 128 3 discriminator 1 view .LVU88
 128:/home/hkh/git/eapidk-code-r76-trunk/apps/EeePProg/linux/../EeePDB.c ****       SetBlockLength, 
 383              		.loc 1 128 3 discriminator 1 view .LVU89
 384              		.loc 1 142 1 is_stmt 0 discriminator 1 view .LVU90
 385 0164 0400A0E1 		mov	r0, r4
 386 0168 10D08DE2 		add	sp, sp, #16
 387              		.cfi_remember_state
 388              		.cfi_def_cfa_offset 8
 389              		@ sp needed
 390 016c 1080BDE8 		pop	{r4, pc}
 391              	.LVL36:
 392              	.L36:
 393              		.cfi_restore_state
 123:/home/hkh/git/eapidk-code-r76-trunk/apps/EeePProg/linux/../EeePDB.c ****       SetBlockLength,
 394              		.loc 1 123 3 is_stmt 1 discriminator 1 view .LVU91
 123:/home/hkh/git/eapidk-code-r76-trunk/apps/EeePProg/linux/../EeePDB.c ****       SetBlockLength,
 395              		.loc 1 123 3 discriminator 1 view .LVU92
 396 0170 60C09FE5 		ldr	ip, .L38+16
 397 0174 014CE0E3 		mvn	r4, #256
 398 0178 5C009FE5 		ldr	r0, .L38+20
 399              	.LVL37:
 123:/home/hkh/git/eapidk-code-r76-trunk/apps/EeePProg/linux/../EeePDB.c ****       SetBlockLength,
 400              		.loc 1 123 3 is_stmt 0 discriminator 1 view .LVU93
 401 017c 7B30A0E3 		mov	r3, #123
 402 0180 58209FE5 		ldr	r2, .L38+24
 403 0184 58109FE5 		ldr	r1, .L38+28
 404              	.LVL38:
 123:/home/hkh/git/eapidk-code-r76-trunk/apps/EeePProg/linux/../EeePDB.c ****       SetBlockLength,
 405              		.loc 1 123 3 discriminator 1 view .LVU94
 406              	.LPIC12:
 407 0188 0CC08FE0 		add	ip, pc, ip
 408              	.LPIC13:
 409 018c 00008FE0 		add	r0, pc, r0
 410              	.LPIC10:
 411 0190 02208FE0 		add	r2, pc, r2
 412              	.LPIC11:
 413 0194 01108FE0 		add	r1, pc, r1
 414 0198 EDFFFFEA 		b	.L34
 415              	.LVL39:
 416              	.L35:
 417              	.LBB46:
 418              	.LBI46:
 112:/home/hkh/git/eapidk-code-r76-trunk/apps/EeePProg/linux/../EeePDB.c ****     EeePHandel_t BHandel,
 419              		.loc 1 112 1 is_stmt 1 view .LVU95
 420              	.LBB47:
 118:/home/hkh/git/eapidk-code-r76-trunk/apps/EeePProg/linux/../EeePDB.c ****       SetBlockLength,
 421              		.loc 1 118 3 view .LVU96
 118:/home/hkh/git/eapidk-code-r76-trunk/apps/EeePProg/linux/../EeePDB.c ****       SetBlockLength,
 422              		.loc 1 118 3 view .LVU97
 423 019c 44C09FE5 		ldr	ip, .L38+32
 424 01a0 014CE0E3 		mvn	r4, #256
ARM GAS  /tmp/ccTXisr2.s 			page 12


 425 01a4 40009FE5 		ldr	r0, .L38+36
 426              	.LVL40:
 118:/home/hkh/git/eapidk-code-r76-trunk/apps/EeePProg/linux/../EeePDB.c ****       SetBlockLength,
 427              		.loc 1 118 3 is_stmt 0 view .LVU98
 428 01a8 7630A0E3 		mov	r3, #118
 429 01ac 3C209FE5 		ldr	r2, .L38+40
 430 01b0 3C109FE5 		ldr	r1, .L38+44
 431              	.LVL41:
 118:/home/hkh/git/eapidk-code-r76-trunk/apps/EeePProg/linux/../EeePDB.c ****       SetBlockLength,
 432              		.loc 1 118 3 view .LVU99
 433              	.LPIC8:
 434 01b4 0CC08FE0 		add	ip, pc, ip
 435              	.LPIC9:
 436 01b8 00008FE0 		add	r0, pc, r0
 437              	.LPIC6:
 438 01bc 02208FE0 		add	r2, pc, r2
 439              	.LPIC7:
 440 01c0 01108FE0 		add	r1, pc, r1
 441 01c4 E2FFFFEA 		b	.L34
 442              	.L39:
 443              		.align	2
 444              	.L38:
 445 01c8 7C000000 		.word	.LC7-(.LPIC16+8)
 446 01cc 7C000000 		.word	.LC5-(.LPIC17+8)
 447 01d0 7C000000 		.word	.LC2-(.LPIC14+8)
 448 01d4 7C000000 		.word	.LC3-(.LPIC15+8)
 449 01d8 48000000 		.word	.LC6-(.LPIC12+8)
 450 01dc 48000000 		.word	.LC5-(.LPIC13+8)
 451 01e0 48000000 		.word	.LC2-(.LPIC10+8)
 452 01e4 48000000 		.word	.LC3-(.LPIC11+8)
 453 01e8 2C000000 		.word	.LC4-(.LPIC8+8)
 454 01ec 2C000000 		.word	.LC5-(.LPIC9+8)
 455 01f0 2C000000 		.word	.LC2-(.LPIC6+8)
 456 01f4 2C000000 		.word	.LC3-(.LPIC7+8)
 457              	.LBE47:
 458              	.LBE46:
 459              		.cfi_endproc
 460              	.LFE5:
 462              		.align	2
 463              		.global	GetBlockLength
 464              		.syntax unified
 465              		.arm
 466              		.fpu vfpv3
 468              	GetBlockLength:
 469              	.LVL42:
 470              	.LFB6:
 143:/home/hkh/git/eapidk-code-r76-trunk/apps/EeePProg/linux/../EeePDB.c **** size_t 
 144:/home/hkh/git/eapidk-code-r76-trunk/apps/EeePProg/linux/../EeePDB.c **** GetBlockLength(
 145:/home/hkh/git/eapidk-code-r76-trunk/apps/EeePProg/linux/../EeePDB.c ****     const void * pcvBHandel
 146:/home/hkh/git/eapidk-code-r76-trunk/apps/EeePProg/linux/../EeePDB.c ****     )
 147:/home/hkh/git/eapidk-code-r76-trunk/apps/EeePProg/linux/../EeePDB.c **** {
 471              		.loc 1 147 1 is_stmt 1 view -0
 472              		.cfi_startproc
 473              		@ args = 0, pretend = 0, frame = 0
 474              		@ frame_needed = 0, uses_anonymous_args = 0
 148:/home/hkh/git/eapidk-code-r76-trunk/apps/EeePProg/linux/../EeePDB.c ****   size_t stBlockSize=EEEP_OFFSET_VALUE_EOL;
 475              		.loc 1 148 3 view .LVU101
ARM GAS  /tmp/ccTXisr2.s 			page 13


 149:/home/hkh/git/eapidk-code-r76-trunk/apps/EeePProg/linux/../EeePDB.c ****   if(!pcvBHandel) return stBlockSize;
 476              		.loc 1 149 3 view .LVU102
 477              		.loc 1 149 5 is_stmt 0 view .LVU103
 478 01f8 000050E3 		cmp	r0, #0
 479              		.loc 1 149 5 view .LVU104
 480 01fc 1EFF2F01 		bxeq	lr
 481              	.LVL43:
 482              	.LBB50:
 483              	.LBI50:
 144:/home/hkh/git/eapidk-code-r76-trunk/apps/EeePProg/linux/../EeePDB.c ****     const void * pcvBHandel
 484              		.loc 1 144 1 is_stmt 1 view .LVU105
 485              	.LBB51:
 150:/home/hkh/git/eapidk-code-r76-trunk/apps/EeePProg/linux/../EeePDB.c **** 
 151:/home/hkh/git/eapidk-code-r76-trunk/apps/EeePProg/linux/../EeePDB.c ****   stBlockSize=EeeP_Get16BitValue_BE(((DBlockIdHdr_t*)pcvBHandel)->DBlockLength )*EEEP_SIZE_UNITS;
 486              		.loc 1 151 3 view .LVU106
 487              	.LBE51:
 488              	.LBE50:
 147:/home/hkh/git/eapidk-code-r76-trunk/apps/EeePProg/linux/../EeePDB.c ****   size_t stBlockSize=EEEP_OFFSET_VALUE_EOL;
 489              		.loc 1 147 1 is_stmt 0 view .LVU107
 490 0200 10402DE9 		push	{r4, lr}
 491              		.cfi_def_cfa_offset 8
 492              		.cfi_offset 4, -8
 493              		.cfi_offset 14, -4
 494              	.LBB53:
 495              	.LBB52:
 496              		.loc 1 151 15 view .LVU108
 497 0204 010080E2 		add	r0, r0, #1
 498              	.LVL44:
 499              		.loc 1 151 15 view .LVU109
 500 0208 FEFFFFEB 		bl	EeeP_Get16BitValue_BE(PLT)
 501              	.LVL45:
 502              		.loc 1 151 81 view .LVU110
 503 020c 8000A0E1 		lsl	r0, r0, #1
 504              	.LVL46:
 152:/home/hkh/git/eapidk-code-r76-trunk/apps/EeePProg/linux/../EeePDB.c ****   return stBlockSize;
 505              		.loc 1 152 3 is_stmt 1 view .LVU111
 506              		.loc 1 152 3 is_stmt 0 view .LVU112
 507              	.LBE52:
 508              	.LBE53:
 153:/home/hkh/git/eapidk-code-r76-trunk/apps/EeePProg/linux/../EeePDB.c **** }
 509              		.loc 1 153 1 view .LVU113
 510 0210 1080BDE8 		pop	{r4, pc}
 511              		.cfi_endproc
 512              	.LFE6:
 514              		.section	.rodata.str1.4
 515 00c5 000000   		.align	2
 516              	.LC8:
 517 00c8 4765744E 		.ascii	"GetNextBlock\000"
 517      65787442 
 517      6C6F636B 
 517      00
 518 00d5 000000   		.align	2
 519              	.LC9:
 520 00d8 28704375 		.ascii	"(pCurBlock==NULL)\000"
 520      72426C6F 
 520      636B3D3D 
 520      4E554C4C 
ARM GAS  /tmp/ccTXisr2.s 			page 14


 520      2900
 521              		.text
 522              		.align	2
 523              		.global	GetNextBlock
 524              		.syntax unified
 525              		.arm
 526              		.fpu vfpv3
 528              	GetNextBlock:
 529              	.LVL47:
 530              	.LFB7:
 154:/home/hkh/git/eapidk-code-r76-trunk/apps/EeePProg/linux/../EeePDB.c **** DBlockIdHdr_t * 
 155:/home/hkh/git/eapidk-code-r76-trunk/apps/EeePProg/linux/../EeePDB.c **** GetNextBlock(
 156:/home/hkh/git/eapidk-code-r76-trunk/apps/EeePProg/linux/../EeePDB.c ****     DBlockIdHdr_t *pCurBlock
 157:/home/hkh/git/eapidk-code-r76-trunk/apps/EeePProg/linux/../EeePDB.c ****     )
 158:/home/hkh/git/eapidk-code-r76-trunk/apps/EeePProg/linux/../EeePDB.c **** {
 531              		.loc 1 158 1 is_stmt 1 view -0
 532              		.cfi_startproc
 533              		@ args = 0, pretend = 0, frame = 0
 534              		@ frame_needed = 0, uses_anonymous_args = 0
 159:/home/hkh/git/eapidk-code-r76-trunk/apps/EeePProg/linux/../EeePDB.c ****   DBlockIdHdr_t * StatusCode=EAPI_STATUS_SUCCESS;
 535              		.loc 1 159 3 view .LVU115
 160:/home/hkh/git/eapidk-code-r76-trunk/apps/EeePProg/linux/../EeePDB.c ****   size_t stBlockLength;
 536              		.loc 1 160 3 view .LVU116
 161:/home/hkh/git/eapidk-code-r76-trunk/apps/EeePProg/linux/../EeePDB.c ****   EAPI_APP_ASSERT_PARAMATER_NULL(
 537              		.loc 1 161 3 view .LVU117
 158:/home/hkh/git/eapidk-code-r76-trunk/apps/EeePProg/linux/../EeePDB.c ****   DBlockIdHdr_t * StatusCode=EAPI_STATUS_SUCCESS;
 538              		.loc 1 158 1 is_stmt 0 view .LVU118
 539 0214 10402DE9 		push	{r4, lr}
 540              		.cfi_def_cfa_offset 8
 541              		.cfi_offset 4, -8
 542              		.cfi_offset 14, -4
 543              		.loc 1 161 3 view .LVU119
 544 0218 004050E2 		subs	r4, r0, #0
 158:/home/hkh/git/eapidk-code-r76-trunk/apps/EeePProg/linux/../EeePDB.c ****   DBlockIdHdr_t * StatusCode=EAPI_STATUS_SUCCESS;
 545              		.loc 1 158 1 view .LVU120
 546 021c 10D04DE2 		sub	sp, sp, #16
 547              		.cfi_def_cfa_offset 24
 548              		.loc 1 161 3 view .LVU121
 549 0220 0A00000A 		beq	.L54
 550              		.loc 1 161 3 is_stmt 1 view .LVU122
 162:/home/hkh/git/eapidk-code-r76-trunk/apps/EeePProg/linux/../EeePDB.c ****       GetNextBlock,
 163:/home/hkh/git/eapidk-code-r76-trunk/apps/EeePProg/linux/../EeePDB.c ****       NULL,
 164:/home/hkh/git/eapidk-code-r76-trunk/apps/EeePProg/linux/../EeePDB.c ****       pCurBlock
 165:/home/hkh/git/eapidk-code-r76-trunk/apps/EeePProg/linux/../EeePDB.c ****     );
 551              		.loc 1 165 6 view .LVU123
 166:/home/hkh/git/eapidk-code-r76-trunk/apps/EeePProg/linux/../EeePDB.c ****   stBlockLength=GetBlockLength(pCurBlock);
 552              		.loc 1 166 3 view .LVU124
 553              	.LVL48:
 554              	.LBB64:
 555              	.LBI64:
 144:/home/hkh/git/eapidk-code-r76-trunk/apps/EeePProg/linux/../EeePDB.c ****     const void * pcvBHandel
 556              		.loc 1 144 1 view .LVU125
 557              	.LBB65:
 148:/home/hkh/git/eapidk-code-r76-trunk/apps/EeePProg/linux/../EeePDB.c ****   if(!pcvBHandel) return stBlockSize;
 558              		.loc 1 148 3 view .LVU126
 149:/home/hkh/git/eapidk-code-r76-trunk/apps/EeePProg/linux/../EeePDB.c **** 
 559              		.loc 1 149 3 view .LVU127
ARM GAS  /tmp/ccTXisr2.s 			page 15


 560              	.LBB66:
 561              	.LBI66:
 144:/home/hkh/git/eapidk-code-r76-trunk/apps/EeePProg/linux/../EeePDB.c ****     const void * pcvBHandel
 562              		.loc 1 144 1 view .LVU128
 563              	.LBB67:
 151:/home/hkh/git/eapidk-code-r76-trunk/apps/EeePProg/linux/../EeePDB.c ****   return stBlockSize;
 564              		.loc 1 151 3 view .LVU129
 151:/home/hkh/git/eapidk-code-r76-trunk/apps/EeePProg/linux/../EeePDB.c ****   return stBlockSize;
 565              		.loc 1 151 15 is_stmt 0 view .LVU130
 566 0224 010084E2 		add	r0, r4, #1
 567              	.LVL49:
 151:/home/hkh/git/eapidk-code-r76-trunk/apps/EeePProg/linux/../EeePDB.c ****   return stBlockSize;
 568              		.loc 1 151 15 view .LVU131
 569 0228 FEFFFFEB 		bl	EeeP_Get16BitValue_BE(PLT)
 570              	.LVL50:
 571              	.LBE67:
 572              	.LBE66:
 573              	.LBE65:
 574              	.LBE64:
 167:/home/hkh/git/eapidk-code-r76-trunk/apps/EeePProg/linux/../EeePDB.c ****   switch(stBlockLength){
 575              		.loc 1 167 3 view .LVU132
 576 022c 000050E3 		cmp	r0, #0
 577              	.LBB71:
 578              	.LBB70:
 579              	.LBB69:
 580              	.LBB68:
 151:/home/hkh/git/eapidk-code-r76-trunk/apps/EeePProg/linux/../EeePDB.c ****   return stBlockSize;
 581              		.loc 1 151 81 view .LVU133
 582 0230 8020A0E1 		lsl	r2, r0, #1
 583              	.LVL51:
 152:/home/hkh/git/eapidk-code-r76-trunk/apps/EeePProg/linux/../EeePDB.c **** }
 584              		.loc 1 152 3 is_stmt 1 view .LVU134
 152:/home/hkh/git/eapidk-code-r76-trunk/apps/EeePProg/linux/../EeePDB.c **** }
 585              		.loc 1 152 3 is_stmt 0 view .LVU135
 586              	.LBE68:
 587              	.LBE69:
 588              	.LBE70:
 589              	.LBE71:
 590              		.loc 1 167 3 is_stmt 1 view .LVU136
 591 0234 0300000A 		beq	.L47
 592 0238 FF3F0FE3 		movw	r3, #65535
 593 023c 030050E1 		cmp	r0, r3
 168:/home/hkh/git/eapidk-code-r76-trunk/apps/EeePProg/linux/../EeePDB.c ****     case EEEP_OFFSET_VALUE_EOL:
 169:/home/hkh/git/eapidk-code-r76-trunk/apps/EeePProg/linux/../EeePDB.c ****     case EEEP_OFFSET_VALUE_EOL_ALT*EEEP_SIZE_UNITS:
 170:/home/hkh/git/eapidk-code-r76-trunk/apps/EeePProg/linux/../EeePDB.c ****       goto ErrorExit;
 171:/home/hkh/git/eapidk-code-r76-trunk/apps/EeePProg/linux/../EeePDB.c ****       break;
 594              		.loc 1 171 7 view .LVU137
 172:/home/hkh/git/eapidk-code-r76-trunk/apps/EeePProg/linux/../EeePDB.c ****     default:
 173:/home/hkh/git/eapidk-code-r76-trunk/apps/EeePProg/linux/../EeePDB.c ****       StatusCode=EAPI_CREATE_PTR(
 595              		.loc 1 173 7 view .LVU138
 596              		.loc 1 173 17 is_stmt 0 view .LVU139
 597 0240 02008410 		addne	r0, r4, r2
 598              	.LVL52:
 174:/home/hkh/git/eapidk-code-r76-trunk/apps/EeePProg/linux/../EeePDB.c ****           pCurBlock         ,
 175:/home/hkh/git/eapidk-code-r76-trunk/apps/EeePProg/linux/../EeePDB.c ****           stBlockLength     ,
 176:/home/hkh/git/eapidk-code-r76-trunk/apps/EeePProg/linux/../EeePDB.c ****           DBlockIdHdr_t *
 177:/home/hkh/git/eapidk-code-r76-trunk/apps/EeePProg/linux/../EeePDB.c ****         );
ARM GAS  /tmp/ccTXisr2.s 			page 16


 178:/home/hkh/git/eapidk-code-r76-trunk/apps/EeePProg/linux/../EeePDB.c ****       break;
 599              		.loc 1 178 7 is_stmt 1 view .LVU140
 167:/home/hkh/git/eapidk-code-r76-trunk/apps/EeePProg/linux/../EeePDB.c ****     case EEEP_OFFSET_VALUE_EOL:
 600              		.loc 1 167 3 is_stmt 0 view .LVU141
 601 0244 0000A003 		moveq	r0, #0
 602              	.LVL53:
 179:/home/hkh/git/eapidk-code-r76-trunk/apps/EeePProg/linux/../EeePDB.c ****       }
 180:/home/hkh/git/eapidk-code-r76-trunk/apps/EeePProg/linux/../EeePDB.c **** ErrorExit:
 181:/home/hkh/git/eapidk-code-r76-trunk/apps/EeePProg/linux/../EeePDB.c **** EAPI_APP_ASSERT_EXIT
 182:/home/hkh/git/eapidk-code-r76-trunk/apps/EeePProg/linux/../EeePDB.c ****   return StatusCode;
 603              		.loc 1 182 3 is_stmt 1 view .LVU142
 604              	.L49:
 605              	.L50:
 606              	.L47:
 183:/home/hkh/git/eapidk-code-r76-trunk/apps/EeePProg/linux/../EeePDB.c **** }
 607              		.loc 1 183 1 is_stmt 0 view .LVU143
 608 0248 10D08DE2 		add	sp, sp, #16
 609              		.cfi_remember_state
 610              		.cfi_def_cfa_offset 8
 611              		@ sp needed
 612 024c 1080BDE8 		pop	{r4, pc}
 613              	.LVL54:
 614              	.L54:
 615              		.cfi_restore_state
 616              	.LBB72:
 617              	.LBI72:
 155:/home/hkh/git/eapidk-code-r76-trunk/apps/EeePProg/linux/../EeePDB.c ****     DBlockIdHdr_t *pCurBlock
 618              		.loc 1 155 1 is_stmt 1 view .LVU144
 619              	.LBB73:
 161:/home/hkh/git/eapidk-code-r76-trunk/apps/EeePProg/linux/../EeePDB.c ****       GetNextBlock,
 620              		.loc 1 161 3 view .LVU145
 161:/home/hkh/git/eapidk-code-r76-trunk/apps/EeePProg/linux/../EeePDB.c ****       GetNextBlock,
 621              		.loc 1 161 3 view .LVU146
 622 0250 34C09FE5 		ldr	ip, .L55
 623 0254 A130A0E3 		mov	r3, #161
 624 0258 30009FE5 		ldr	r0, .L55+4
 625              	.LVL55:
 161:/home/hkh/git/eapidk-code-r76-trunk/apps/EeePProg/linux/../EeePDB.c ****       GetNextBlock,
 626              		.loc 1 161 3 is_stmt 0 view .LVU147
 627 025c 30209FE5 		ldr	r2, .L55+8
 628 0260 30109FE5 		ldr	r1, .L55+12
 629              	.LPIC20:
 630 0264 0CC08FE0 		add	ip, pc, ip
 631              	.LPIC21:
 632 0268 00008FE0 		add	r0, pc, r0
 633 026c 00408DE5 		str	r4, [sp]
 634 0270 01108DE9 		stmib	sp, {r0, ip}
 635              	.LPIC18:
 636 0274 02208FE0 		add	r2, pc, r2
 637              	.LPIC19:
 638 0278 01108FE0 		add	r1, pc, r1
 639 027c 4500A0E3 		mov	r0, #69
 640 0280 FEFFFFEB 		bl	siFormattedMessage_SC(PLT)
 641              	.LVL56:
 161:/home/hkh/git/eapidk-code-r76-trunk/apps/EeePProg/linux/../EeePDB.c ****       GetNextBlock,
 642              		.loc 1 161 3 is_stmt 1 view .LVU148
 161:/home/hkh/git/eapidk-code-r76-trunk/apps/EeePProg/linux/../EeePDB.c ****       GetNextBlock,
ARM GAS  /tmp/ccTXisr2.s 			page 17


 643              		.loc 1 161 3 view .LVU149
 161:/home/hkh/git/eapidk-code-r76-trunk/apps/EeePProg/linux/../EeePDB.c ****       GetNextBlock,
 644              		.loc 1 161 3 view .LVU150
 645              	.LDL1:
 646              	.LDL2:
 182:/home/hkh/git/eapidk-code-r76-trunk/apps/EeePProg/linux/../EeePDB.c **** }
 647              		.loc 1 182 3 view .LVU151
 161:/home/hkh/git/eapidk-code-r76-trunk/apps/EeePProg/linux/../EeePDB.c ****       GetNextBlock,
 648              		.loc 1 161 3 is_stmt 0 view .LVU152
 649 0284 0400A0E1 		mov	r0, r4
 650 0288 EEFFFFEA 		b	.L47
 651              	.L56:
 652              		.align	2
 653              	.L55:
 654 028c 20000000 		.word	.LC9-(.LPIC20+8)
 655 0290 20000000 		.word	.LC5-(.LPIC21+8)
 656 0294 18000000 		.word	.LC8-(.LPIC18+8)
 657 0298 18000000 		.word	.LC3-(.LPIC19+8)
 658              	.LBE73:
 659              	.LBE72:
 660              		.cfi_endproc
 661              	.LFE7:
 663              		.section	.rodata.str1.4
 664 00ea 0000     		.align	2
 665              	.LC10:
 666 00ec 53657444 		.ascii	"SetDynBlockInfo\000"
 666      796E426C 
 666      6F636B49 
 666      6E666F00 
 667              		.text
 668              		.align	2
 669              		.global	SetDynBlockHeader
 670              		.syntax unified
 671              		.arm
 672              		.fpu vfpv3
 674              	SetDynBlockHeader:
 675              	.LVL57:
 676              	.LFB8:
 184:/home/hkh/git/eapidk-code-r76-trunk/apps/EeePProg/linux/../EeePDB.c **** EApiStatus_t
 185:/home/hkh/git/eapidk-code-r76-trunk/apps/EeePProg/linux/../EeePDB.c **** SetDynBlockHeader(
 186:/home/hkh/git/eapidk-code-r76-trunk/apps/EeePProg/linux/../EeePDB.c ****     void          *pCurBlock,
 187:/home/hkh/git/eapidk-code-r76-trunk/apps/EeePProg/linux/../EeePDB.c ****     uint8_t        u8BlockId,
 188:/home/hkh/git/eapidk-code-r76-trunk/apps/EeePProg/linux/../EeePDB.c ****     size_t         stBlockLength
 189:/home/hkh/git/eapidk-code-r76-trunk/apps/EeePProg/linux/../EeePDB.c ****     )
 190:/home/hkh/git/eapidk-code-r76-trunk/apps/EeePProg/linux/../EeePDB.c **** {
 677              		.loc 1 190 1 is_stmt 1 view -0
 678              		.cfi_startproc
 679              		@ args = 0, pretend = 0, frame = 0
 680              		@ frame_needed = 0, uses_anonymous_args = 0
 191:/home/hkh/git/eapidk-code-r76-trunk/apps/EeePProg/linux/../EeePDB.c ****   EApiStatus_t StatusCode=EAPI_STATUS_SUCCESS;
 192:/home/hkh/git/eapidk-code-r76-trunk/apps/EeePProg/linux/../EeePDB.c ****   EAPI_APP_ASSERT_PARAMATER_NULL(
 681              		.loc 1 192 3 is_stmt 0 view .LVU154
 682 029c 000050E3 		cmp	r0, #0
 191:/home/hkh/git/eapidk-code-r76-trunk/apps/EeePProg/linux/../EeePDB.c ****   EApiStatus_t StatusCode=EAPI_STATUS_SUCCESS;
 683              		.loc 1 191 3 is_stmt 1 view .LVU155
 684              	.LVL58:
 685              		.loc 1 192 3 view .LVU156
ARM GAS  /tmp/ccTXisr2.s 			page 18


 190:/home/hkh/git/eapidk-code-r76-trunk/apps/EeePProg/linux/../EeePDB.c ****   EApiStatus_t StatusCode=EAPI_STATUS_SUCCESS;
 686              		.loc 1 190 1 is_stmt 0 view .LVU157
 687 02a0 10402DE9 		push	{r4, lr}
 688              		.cfi_def_cfa_offset 8
 689              		.cfi_offset 4, -8
 690              		.cfi_offset 14, -4
 691 02a4 10D04DE2 		sub	sp, sp, #16
 692              		.cfi_def_cfa_offset 24
 693              		.loc 1 192 3 view .LVU158
 694 02a8 1D00000A 		beq	.L64
 695              		.loc 1 192 3 is_stmt 1 discriminator 2 view .LVU159
 193:/home/hkh/git/eapidk-code-r76-trunk/apps/EeePProg/linux/../EeePDB.c ****       SetDynBlockInfo,
 194:/home/hkh/git/eapidk-code-r76-trunk/apps/EeePProg/linux/../EeePDB.c ****       EAPI_STATUS_INVALID_PARAMETER,
 195:/home/hkh/git/eapidk-code-r76-trunk/apps/EeePProg/linux/../EeePDB.c ****       pCurBlock
 196:/home/hkh/git/eapidk-code-r76-trunk/apps/EeePProg/linux/../EeePDB.c ****     );
 696              		.loc 1 196 6 discriminator 2 view .LVU160
 197:/home/hkh/git/eapidk-code-r76-trunk/apps/EeePProg/linux/../EeePDB.c ****   ((DBlockIdHdr_t *)pCurBlock)->DBlockId=u8BlockId;
 697              		.loc 1 197 3 discriminator 2 view .LVU161
 698              	.LBB80:
 699              	.LBB81:
 123:/home/hkh/git/eapidk-code-r76-trunk/apps/EeePProg/linux/../EeePDB.c ****       SetBlockLength,
 700              		.loc 1 123 3 is_stmt 0 discriminator 2 view .LVU162
 701 02ac 014012E2 		ands	r4, r2, #1
 702              	.LBE81:
 703              	.LBE80:
 704              		.loc 1 197 41 discriminator 2 view .LVU163
 705 02b0 0010C0E5 		strb	r1, [r0]
 198:/home/hkh/git/eapidk-code-r76-trunk/apps/EeePProg/linux/../EeePDB.c ****   StatusCode=SetBlockLength(pCurBlock, stBlockLength);
 706              		.loc 1 198 3 is_stmt 1 discriminator 2 view .LVU164
 707              	.LVL59:
 708              	.LBB85:
 709              	.LBI80:
 112:/home/hkh/git/eapidk-code-r76-trunk/apps/EeePProg/linux/../EeePDB.c ****     EeePHandel_t BHandel,
 710              		.loc 1 112 1 discriminator 2 view .LVU165
 711              	.LBB82:
 117:/home/hkh/git/eapidk-code-r76-trunk/apps/EeePProg/linux/../EeePDB.c ****   EAPI_APP_ASSERT_PARAMATER_NULL(
 712              		.loc 1 117 3 discriminator 2 view .LVU166
 118:/home/hkh/git/eapidk-code-r76-trunk/apps/EeePProg/linux/../EeePDB.c ****       SetBlockLength,
 713              		.loc 1 118 3 discriminator 2 view .LVU167
 118:/home/hkh/git/eapidk-code-r76-trunk/apps/EeePProg/linux/../EeePDB.c ****       SetBlockLength,
 714              		.loc 1 118 3 discriminator 2 view .LVU168
 122:/home/hkh/git/eapidk-code-r76-trunk/apps/EeePProg/linux/../EeePDB.c ****   EAPI_APP_ASSERT_PARAMATER_CHECK_S(
 715              		.loc 1 122 6 discriminator 2 view .LVU169
 123:/home/hkh/git/eapidk-code-r76-trunk/apps/EeePProg/linux/../EeePDB.c ****       SetBlockLength,
 716              		.loc 1 123 3 discriminator 2 view .LVU170
 717 02b4 2500001A 		bne	.L65
 123:/home/hkh/git/eapidk-code-r76-trunk/apps/EeePProg/linux/../EeePDB.c ****       SetBlockLength,
 718              		.loc 1 123 3 view .LVU171
 127:/home/hkh/git/eapidk-code-r76-trunk/apps/EeePProg/linux/../EeePDB.c ****   EAPI_APP_ASSERT_PARAMATER_CHECK_S(
 719              		.loc 1 127 6 view .LVU172
 128:/home/hkh/git/eapidk-code-r76-trunk/apps/EeePProg/linux/../EeePDB.c ****       SetBlockLength, 
 720              		.loc 1 128 3 view .LVU173
 721 02b8 FE3F0FE3 		movw	r3, #65534
 722 02bc 013040E3 		movt	r3, 1
 723 02c0 030052E1 		cmp	r2, r3
 724 02c4 0500008A 		bhi	.L66
 725              	.L59:
ARM GAS  /tmp/ccTXisr2.s 			page 19


 128:/home/hkh/git/eapidk-code-r76-trunk/apps/EeePProg/linux/../EeePDB.c ****       SetBlockLength, 
 726              		.loc 1 128 3 view .LVU174
 132:/home/hkh/git/eapidk-code-r76-trunk/apps/EeePProg/linux/../EeePDB.c **** 
 727              		.loc 1 132 6 view .LVU175
 134:/home/hkh/git/eapidk-code-r76-trunk/apps/EeePProg/linux/../EeePDB.c ****         ((DBlockIdHdr_t*)BHandel)->DBlockLength, 
 728              		.loc 1 134 3 view .LVU176
 729 02c8 D210EFE7 		ubfx	r1, r2, #1, #16
 730              	.LVL60:
 134:/home/hkh/git/eapidk-code-r76-trunk/apps/EeePProg/linux/../EeePDB.c ****         ((DBlockIdHdr_t*)BHandel)->DBlockLength, 
 731              		.loc 1 134 3 is_stmt 0 view .LVU177
 732 02cc 010080E2 		add	r0, r0, #1
 733              	.LVL61:
 134:/home/hkh/git/eapidk-code-r76-trunk/apps/EeePProg/linux/../EeePDB.c ****         ((DBlockIdHdr_t*)BHandel)->DBlockLength, 
 734              		.loc 1 134 3 view .LVU178
 735 02d0 FEFFFFEB 		bl	EeeP_Set16BitValue_BE(PLT)
 736              	.LVL62:
 134:/home/hkh/git/eapidk-code-r76-trunk/apps/EeePProg/linux/../EeePDB.c ****         ((DBlockIdHdr_t*)BHandel)->DBlockLength, 
 737              		.loc 1 134 3 view .LVU179
 738              	.LBE82:
 739              	.LBE85:
 199:/home/hkh/git/eapidk-code-r76-trunk/apps/EeePProg/linux/../EeePDB.c **** EAPI_APP_ASSERT_EXIT
 200:/home/hkh/git/eapidk-code-r76-trunk/apps/EeePProg/linux/../EeePDB.c ****   if(!EAPI_TEST_SUCCESS(StatusCode)){
 740              		.loc 1 200 3 is_stmt 1 view .LVU180
 201:/home/hkh/git/eapidk-code-r76-trunk/apps/EeePProg/linux/../EeePDB.c ****   }
 741              		.loc 1 201 3 view .LVU181
 202:/home/hkh/git/eapidk-code-r76-trunk/apps/EeePProg/linux/../EeePDB.c ****   return StatusCode;
 742              		.loc 1 202 3 view .LVU182
 203:/home/hkh/git/eapidk-code-r76-trunk/apps/EeePProg/linux/../EeePDB.c **** }
 743              		.loc 1 203 1 is_stmt 0 view .LVU183
 744 02d4 0400A0E1 		mov	r0, r4
 745 02d8 10D08DE2 		add	sp, sp, #16
 746              		.cfi_remember_state
 747              		.cfi_def_cfa_offset 8
 748              		@ sp needed
 749 02dc 1080BDE8 		pop	{r4, pc}
 750              	.LVL63:
 751              	.L66:
 752              		.cfi_restore_state
 753              	.LBB86:
 754              	.LBB83:
 128:/home/hkh/git/eapidk-code-r76-trunk/apps/EeePProg/linux/../EeePDB.c ****       SetBlockLength, 
 755              		.loc 1 128 3 is_stmt 1 view .LVU184
 128:/home/hkh/git/eapidk-code-r76-trunk/apps/EeePProg/linux/../EeePDB.c ****       SetBlockLength, 
 756              		.loc 1 128 3 view .LVU185
 757 02e0 94C09FE5 		ldr	ip, .L67
 758 02e4 014CE0E3 		mvn	r4, #256
 759 02e8 90009FE5 		ldr	r0, .L67+4
 760              	.LVL64:
 128:/home/hkh/git/eapidk-code-r76-trunk/apps/EeePProg/linux/../EeePDB.c ****       SetBlockLength, 
 761              		.loc 1 128 3 is_stmt 0 view .LVU186
 762 02ec 8030A0E3 		mov	r3, #128
 763 02f0 8C209FE5 		ldr	r2, .L67+8
 764              	.LVL65:
 128:/home/hkh/git/eapidk-code-r76-trunk/apps/EeePProg/linux/../EeePDB.c ****       SetBlockLength, 
 765              		.loc 1 128 3 view .LVU187
 766 02f4 8C109FE5 		ldr	r1, .L67+12
 767              	.LVL66:
ARM GAS  /tmp/ccTXisr2.s 			page 20


 128:/home/hkh/git/eapidk-code-r76-trunk/apps/EeePProg/linux/../EeePDB.c ****       SetBlockLength, 
 768              		.loc 1 128 3 view .LVU188
 769              	.LPIC32:
 770 02f8 0CC08FE0 		add	ip, pc, ip
 771              	.LPIC33:
 772 02fc 00008FE0 		add	r0, pc, r0
 773              	.LPIC30:
 774 0300 02208FE0 		add	r2, pc, r2
 775              	.LPIC31:
 776 0304 01108FE0 		add	r1, pc, r1
 777              	.LVL67:
 778              	.L63:
 128:/home/hkh/git/eapidk-code-r76-trunk/apps/EeePProg/linux/../EeePDB.c ****       SetBlockLength, 
 779              		.loc 1 128 3 view .LVU189
 780 0308 01108DE9 		stmib	sp, {r0, ip}
 781 030c 4500A0E3 		mov	r0, #69
 782 0310 00408DE5 		str	r4, [sp]
 783 0314 FEFFFFEB 		bl	siFormattedMessage_SC(PLT)
 784              	.LVL68:
 128:/home/hkh/git/eapidk-code-r76-trunk/apps/EeePProg/linux/../EeePDB.c ****       SetBlockLength, 
 785              		.loc 1 128 3 is_stmt 1 view .LVU190
 128:/home/hkh/git/eapidk-code-r76-trunk/apps/EeePProg/linux/../EeePDB.c ****       SetBlockLength, 
 786              		.loc 1 128 3 view .LVU191
 128:/home/hkh/git/eapidk-code-r76-trunk/apps/EeePProg/linux/../EeePDB.c ****       SetBlockLength, 
 787              		.loc 1 128 3 view .LVU192
 788              	.LBE83:
 789              	.LBE86:
 790              		.loc 1 203 1 is_stmt 0 view .LVU193
 791 0318 0400A0E1 		mov	r0, r4
 792 031c 10D08DE2 		add	sp, sp, #16
 793              		.cfi_remember_state
 794              		.cfi_def_cfa_offset 8
 795              		@ sp needed
 796 0320 1080BDE8 		pop	{r4, pc}
 797              	.LVL69:
 798              	.L64:
 799              		.cfi_restore_state
 800              	.LBB87:
 801              	.LBI87:
 185:/home/hkh/git/eapidk-code-r76-trunk/apps/EeePProg/linux/../EeePDB.c ****     void          *pCurBlock,
 802              		.loc 1 185 1 is_stmt 1 view .LVU194
 803              	.LBB88:
 192:/home/hkh/git/eapidk-code-r76-trunk/apps/EeePProg/linux/../EeePDB.c ****       SetDynBlockInfo,
 804              		.loc 1 192 3 view .LVU195
 192:/home/hkh/git/eapidk-code-r76-trunk/apps/EeePProg/linux/../EeePDB.c ****       SetDynBlockInfo,
 805              		.loc 1 192 3 view .LVU196
 806 0324 60C09FE5 		ldr	ip, .L67+16
 807 0328 014CE0E3 		mvn	r4, #256
 808 032c 5C009FE5 		ldr	r0, .L67+20
 809              	.LVL70:
 192:/home/hkh/git/eapidk-code-r76-trunk/apps/EeePProg/linux/../EeePDB.c ****       SetDynBlockInfo,
 810              		.loc 1 192 3 is_stmt 0 view .LVU197
 811 0330 C030A0E3 		mov	r3, #192
 812 0334 58209FE5 		ldr	r2, .L67+24
 813              	.LVL71:
 192:/home/hkh/git/eapidk-code-r76-trunk/apps/EeePProg/linux/../EeePDB.c ****       SetDynBlockInfo,
 814              		.loc 1 192 3 view .LVU198
ARM GAS  /tmp/ccTXisr2.s 			page 21


 815 0338 58109FE5 		ldr	r1, .L67+28
 816              	.LVL72:
 192:/home/hkh/git/eapidk-code-r76-trunk/apps/EeePProg/linux/../EeePDB.c ****       SetDynBlockInfo,
 817              		.loc 1 192 3 view .LVU199
 818              	.LPIC24:
 819 033c 0CC08FE0 		add	ip, pc, ip
 820              	.LPIC25:
 821 0340 00008FE0 		add	r0, pc, r0
 822              	.LPIC22:
 823 0344 02208FE0 		add	r2, pc, r2
 824              	.LPIC23:
 825 0348 01108FE0 		add	r1, pc, r1
 826 034c EDFFFFEA 		b	.L63
 827              	.LVL73:
 828              	.L65:
 192:/home/hkh/git/eapidk-code-r76-trunk/apps/EeePProg/linux/../EeePDB.c ****       SetDynBlockInfo,
 829              		.loc 1 192 3 view .LVU200
 830              	.LBE88:
 831              	.LBE87:
 832              	.LBB89:
 833              	.LBB84:
 123:/home/hkh/git/eapidk-code-r76-trunk/apps/EeePProg/linux/../EeePDB.c ****       SetBlockLength,
 834              		.loc 1 123 3 is_stmt 1 view .LVU201
 123:/home/hkh/git/eapidk-code-r76-trunk/apps/EeePProg/linux/../EeePDB.c ****       SetBlockLength,
 835              		.loc 1 123 3 view .LVU202
 836 0350 44C09FE5 		ldr	ip, .L67+32
 837 0354 014CE0E3 		mvn	r4, #256
 838 0358 40009FE5 		ldr	r0, .L67+36
 839              	.LVL74:
 123:/home/hkh/git/eapidk-code-r76-trunk/apps/EeePProg/linux/../EeePDB.c ****       SetBlockLength,
 840              		.loc 1 123 3 is_stmt 0 view .LVU203
 841 035c 7B30A0E3 		mov	r3, #123
 842 0360 3C209FE5 		ldr	r2, .L67+40
 843              	.LVL75:
 123:/home/hkh/git/eapidk-code-r76-trunk/apps/EeePProg/linux/../EeePDB.c ****       SetBlockLength,
 844              		.loc 1 123 3 view .LVU204
 845 0364 3C109FE5 		ldr	r1, .L67+44
 846              	.LVL76:
 123:/home/hkh/git/eapidk-code-r76-trunk/apps/EeePProg/linux/../EeePDB.c ****       SetBlockLength,
 847              		.loc 1 123 3 view .LVU205
 848              	.LPIC28:
 849 0368 0CC08FE0 		add	ip, pc, ip
 850              	.LPIC29:
 851 036c 00008FE0 		add	r0, pc, r0
 852              	.LPIC26:
 853 0370 02208FE0 		add	r2, pc, r2
 854              	.LPIC27:
 855 0374 01108FE0 		add	r1, pc, r1
 856 0378 E2FFFFEA 		b	.L63
 857              	.L68:
 858              		.align	2
 859              	.L67:
 860 037c 7C000000 		.word	.LC7-(.LPIC32+8)
 861 0380 7C000000 		.word	.LC5-(.LPIC33+8)
 862 0384 7C000000 		.word	.LC2-(.LPIC30+8)
 863 0388 7C000000 		.word	.LC3-(.LPIC31+8)
 864 038c 48000000 		.word	.LC9-(.LPIC24+8)
ARM GAS  /tmp/ccTXisr2.s 			page 22


 865 0390 48000000 		.word	.LC5-(.LPIC25+8)
 866 0394 48000000 		.word	.LC10-(.LPIC22+8)
 867 0398 48000000 		.word	.LC3-(.LPIC23+8)
 868 039c 2C000000 		.word	.LC6-(.LPIC28+8)
 869 03a0 2C000000 		.word	.LC5-(.LPIC29+8)
 870 03a4 2C000000 		.word	.LC2-(.LPIC26+8)
 871 03a8 2C000000 		.word	.LC3-(.LPIC27+8)
 872              	.LBE84:
 873              	.LBE89:
 874              		.cfi_endproc
 875              	.LFE8:
 877              		.section	.rodata.str1.4
 878              		.align	2
 879              	.LC11:
 880 00fc 52656475 		.ascii	"ReduceBlockLength\000"
 880      6365426C 
 880      6F636B4C 
 880      656E6774 
 880      6800
 881 010e 0000     		.align	2
 882              	.LC12:
 883 0110 28707643 		.ascii	"(pvCurBlock==NULL)\000"
 883      7572426C 
 883      6F636B3D 
 883      3D4E554C 
 883      4C2900
 884 0123 00       		.align	2
 885              	.LC13:
 886 0124 282A7076 		.ascii	"(*pvCurBlock==NULL)\000"
 886      43757242 
 886      6C6F636B 
 886      3D3D4E55 
 886      4C4C2900 
 887              		.align	2
 888              	.LC14:
 889 0138 47657442 		.ascii	"GetBlockLength(*pvCurBlock)<(EeePAlignLength(stRedu"
 889      6C6F636B 
 889      4C656E67 
 889      7468282A 
 889      70764375 
 890 016b 63654279 		.ascii	"ceBy)+EEEP_MIN_BLOCK_LENGTH)\000"
 890      292B4545 
 890      45505F4D 
 890      494E5F42 
 890      4C4F434B 
 891              		.text
 892              		.align	2
 893              		.global	ReduceBlockLength
 894              		.syntax unified
 895              		.arm
 896              		.fpu vfpv3
 898              	ReduceBlockLength:
 899              	.LVL77:
 900              	.LFB9:
 204:/home/hkh/git/eapidk-code-r76-trunk/apps/EeePProg/linux/../EeePDB.c **** EApiStatus_t
 205:/home/hkh/git/eapidk-code-r76-trunk/apps/EeePProg/linux/../EeePDB.c **** ReduceBlockLength(
 206:/home/hkh/git/eapidk-code-r76-trunk/apps/EeePProg/linux/../EeePDB.c ****     __IN     DBlockIdHdr_t**pvCurBlock,
ARM GAS  /tmp/ccTXisr2.s 			page 23


 207:/home/hkh/git/eapidk-code-r76-trunk/apps/EeePProg/linux/../EeePDB.c ****     __IN     size_t         stReduceBy, 
 208:/home/hkh/git/eapidk-code-r76-trunk/apps/EeePProg/linux/../EeePDB.c ****     __OUTOPT DBlockIdHdr_t**pvNewBlock,
 209:/home/hkh/git/eapidk-code-r76-trunk/apps/EeePProg/linux/../EeePDB.c ****     __IN     unsigned int   uiFlags
 210:/home/hkh/git/eapidk-code-r76-trunk/apps/EeePProg/linux/../EeePDB.c ****     )
 211:/home/hkh/git/eapidk-code-r76-trunk/apps/EeePProg/linux/../EeePDB.c **** {
 901              		.loc 1 211 1 is_stmt 1 view -0
 902              		.cfi_startproc
 903              		@ args = 0, pretend = 0, frame = 0
 904              		@ frame_needed = 0, uses_anonymous_args = 0
 212:/home/hkh/git/eapidk-code-r76-trunk/apps/EeePProg/linux/../EeePDB.c ****   EApiStatus_t StatusCode=EAPI_STATUS_SUCCESS;
 905              		.loc 1 212 3 view .LVU207
 213:/home/hkh/git/eapidk-code-r76-trunk/apps/EeePProg/linux/../EeePDB.c ****   DBlockIdHdr_t    *pTmpBlock   ;
 906              		.loc 1 213 3 view .LVU208
 214:/home/hkh/git/eapidk-code-r76-trunk/apps/EeePProg/linux/../EeePDB.c ****   size_t NewLength;
 907              		.loc 1 214 3 view .LVU209
 215:/home/hkh/git/eapidk-code-r76-trunk/apps/EeePProg/linux/../EeePDB.c ****   if(pvNewBlock!=NULL) *pvNewBlock=NULL;
 908              		.loc 1 215 3 view .LVU210
 211:/home/hkh/git/eapidk-code-r76-trunk/apps/EeePProg/linux/../EeePDB.c ****   EApiStatus_t StatusCode=EAPI_STATUS_SUCCESS;
 909              		.loc 1 211 1 is_stmt 0 view .LVU211
 910 03ac F0432DE9 		push	{r4, r5, r6, r7, r8, r9, lr}
 911              		.cfi_def_cfa_offset 28
 912              		.cfi_offset 4, -28
 913              		.cfi_offset 5, -24
 914              		.cfi_offset 6, -20
 915              		.cfi_offset 7, -16
 916              		.cfi_offset 8, -12
 917              		.cfi_offset 9, -8
 918              		.cfi_offset 14, -4
 919              		.loc 1 215 5 view .LVU212
 920 03b0 006052E2 		subs	r6, r2, #0
 211:/home/hkh/git/eapidk-code-r76-trunk/apps/EeePProg/linux/../EeePDB.c ****   EApiStatus_t StatusCode=EAPI_STATUS_SUCCESS;
 921              		.loc 1 211 1 view .LVU213
 922 03b4 0390A0E1 		mov	r9, r3
 923              		.loc 1 215 24 is_stmt 1 view .LVU214
 924              		.loc 1 215 35 is_stmt 0 view .LVU215
 925 03b8 0030A013 		movne	r3, #0
 926              	.LVL78:
 211:/home/hkh/git/eapidk-code-r76-trunk/apps/EeePProg/linux/../EeePDB.c ****   EApiStatus_t StatusCode=EAPI_STATUS_SUCCESS;
 927              		.loc 1 211 1 view .LVU216
 928 03bc 14D04DE2 		sub	sp, sp, #20
 929              		.cfi_def_cfa_offset 48
 211:/home/hkh/git/eapidk-code-r76-trunk/apps/EeePProg/linux/../EeePDB.c ****   EApiStatus_t StatusCode=EAPI_STATUS_SUCCESS;
 930              		.loc 1 211 1 view .LVU217
 931 03c0 0050A0E1 		mov	r5, r0
 932              		.loc 1 215 35 view .LVU218
 933 03c4 00308615 		strne	r3, [r6]
 216:/home/hkh/git/eapidk-code-r76-trunk/apps/EeePProg/linux/../EeePDB.c **** 
 217:/home/hkh/git/eapidk-code-r76-trunk/apps/EeePProg/linux/../EeePDB.c ****   EAPI_APP_ASSERT_PARAMATER_NULL(
 934              		.loc 1 217 3 is_stmt 1 view .LVU219
 935 03c8 000050E3 		cmp	r0, #0
 211:/home/hkh/git/eapidk-code-r76-trunk/apps/EeePProg/linux/../EeePDB.c ****   EApiStatus_t StatusCode=EAPI_STATUS_SUCCESS;
 936              		.loc 1 211 1 is_stmt 0 view .LVU220
 937 03cc 0140A0E1 		mov	r4, r1
 938              		.loc 1 217 3 view .LVU221
 939 03d0 5500000A 		beq	.L91
 940              		.loc 1 217 3 is_stmt 1 discriminator 2 view .LVU222
 218:/home/hkh/git/eapidk-code-r76-trunk/apps/EeePProg/linux/../EeePDB.c ****       ReduceBlockLength             ,
ARM GAS  /tmp/ccTXisr2.s 			page 24


 219:/home/hkh/git/eapidk-code-r76-trunk/apps/EeePProg/linux/../EeePDB.c ****       EAPI_STATUS_INVALID_PARAMETER ,
 220:/home/hkh/git/eapidk-code-r76-trunk/apps/EeePProg/linux/../EeePDB.c ****       pvCurBlock
 221:/home/hkh/git/eapidk-code-r76-trunk/apps/EeePProg/linux/../EeePDB.c ****     );
 941              		.loc 1 221 6 discriminator 2 view .LVU223
 222:/home/hkh/git/eapidk-code-r76-trunk/apps/EeePProg/linux/../EeePDB.c ****   EAPI_APP_ASSERT_PARAMATER_NULL(
 942              		.loc 1 222 3 discriminator 2 view .LVU224
 943 03d4 000090E5 		ldr	r0, [r0]
 944              	.LVL79:
 945              		.loc 1 222 3 is_stmt 0 discriminator 2 view .LVU225
 946 03d8 000050E3 		cmp	r0, #0
 947 03dc 4700000A 		beq	.L92
 948              		.loc 1 222 3 is_stmt 1 view .LVU226
 223:/home/hkh/git/eapidk-code-r76-trunk/apps/EeePProg/linux/../EeePDB.c ****       ReduceBlockLength             ,
 224:/home/hkh/git/eapidk-code-r76-trunk/apps/EeePProg/linux/../EeePDB.c ****       EAPI_STATUS_INVALID_PARAMETER ,
 225:/home/hkh/git/eapidk-code-r76-trunk/apps/EeePProg/linux/../EeePDB.c ****       *pvCurBlock
 226:/home/hkh/git/eapidk-code-r76-trunk/apps/EeePProg/linux/../EeePDB.c ****     );
 949              		.loc 1 226 6 view .LVU227
 227:/home/hkh/git/eapidk-code-r76-trunk/apps/EeePProg/linux/../EeePDB.c **** #if TEST_EEEPDB
 228:/home/hkh/git/eapidk-code-r76-trunk/apps/EeePProg/linux/../EeePDB.c ****   EAPI_printf(TEXT("%08X, %08X, %08X\n"), GetBlockLength(*pvCurBlock), EeePAlignLength(stReduceBy),
 229:/home/hkh/git/eapidk-code-r76-trunk/apps/EeePProg/linux/../EeePDB.c **** #endif
 230:/home/hkh/git/eapidk-code-r76-trunk/apps/EeePProg/linux/../EeePDB.c ****   EAPI_APP_RETURN_ERROR_IF_S(
 950              		.loc 1 230 3 view .LVU228
 951              	.LVL80:
 952              	.LBB110:
 953              	.LBI110:
 144:/home/hkh/git/eapidk-code-r76-trunk/apps/EeePProg/linux/../EeePDB.c ****     const void * pcvBHandel
 954              		.loc 1 144 1 view .LVU229
 955              	.LBB111:
 148:/home/hkh/git/eapidk-code-r76-trunk/apps/EeePProg/linux/../EeePDB.c ****   if(!pcvBHandel) return stBlockSize;
 956              		.loc 1 148 3 view .LVU230
 149:/home/hkh/git/eapidk-code-r76-trunk/apps/EeePProg/linux/../EeePDB.c **** 
 957              		.loc 1 149 3 view .LVU231
 958              	.LBB112:
 959              	.LBI112:
 144:/home/hkh/git/eapidk-code-r76-trunk/apps/EeePProg/linux/../EeePDB.c ****     const void * pcvBHandel
 960              		.loc 1 144 1 view .LVU232
 961              	.LBB113:
 151:/home/hkh/git/eapidk-code-r76-trunk/apps/EeePProg/linux/../EeePDB.c ****   return stBlockSize;
 962              		.loc 1 151 3 view .LVU233
 963              	.LBE113:
 964              	.LBE112:
 965              	.LBE111:
 966              	.LBE110:
 967              	.LBB120:
 968              	.LBB121:
 107:/home/hkh/git/eapidk-code-r76-trunk/apps/EeePProg/linux/../EeePDB.c **** #endif
 969              		.loc 1 107 10 is_stmt 0 view .LVU234
 970 03e0 014084E2 		add	r4, r4, #1
 971              	.LBE121:
 972              	.LBE120:
 973              	.LBB124:
 974              	.LBB118:
 975              	.LBB116:
 976              	.LBB114:
 151:/home/hkh/git/eapidk-code-r76-trunk/apps/EeePProg/linux/../EeePDB.c ****   return stBlockSize;
 977              		.loc 1 151 15 view .LVU235
 978 03e4 010080E2 		add	r0, r0, #1
ARM GAS  /tmp/ccTXisr2.s 			page 25


 979              	.LVL81:
 151:/home/hkh/git/eapidk-code-r76-trunk/apps/EeePProg/linux/../EeePDB.c ****   return stBlockSize;
 980              		.loc 1 151 15 view .LVU236
 981              	.LBE114:
 982              	.LBE116:
 983              	.LBE118:
 984              	.LBE124:
 985              	.LBB125:
 986              	.LBB122:
 107:/home/hkh/git/eapidk-code-r76-trunk/apps/EeePProg/linux/../EeePDB.c **** #endif
 987              		.loc 1 107 10 view .LVU237
 988 03e8 0140C4E3 		bic	r4, r4, #1
 989              	.LBE122:
 990              	.LBE125:
 991              	.LBB126:
 992              	.LBB119:
 993              	.LBB117:
 994              	.LBB115:
 151:/home/hkh/git/eapidk-code-r76-trunk/apps/EeePProg/linux/../EeePDB.c ****   return stBlockSize;
 995              		.loc 1 151 15 view .LVU238
 996 03ec FEFFFFEB 		bl	EeeP_Get16BitValue_BE(PLT)
 997              	.LVL82:
 152:/home/hkh/git/eapidk-code-r76-trunk/apps/EeePProg/linux/../EeePDB.c **** }
 998              		.loc 1 152 3 is_stmt 1 view .LVU239
 152:/home/hkh/git/eapidk-code-r76-trunk/apps/EeePProg/linux/../EeePDB.c **** }
 999              		.loc 1 152 3 is_stmt 0 view .LVU240
 1000              	.LBE115:
 1001              	.LBE117:
 1002              	.LBE119:
 1003              	.LBE126:
 1004              	.LBB127:
 1005              	.LBI120:
 100:/home/hkh/git/eapidk-code-r76-trunk/apps/EeePProg/linux/../EeePDB.c ****     size_t Length
 1006              		.loc 1 100 1 is_stmt 1 view .LVU241
 1007              	.LBB123:
 107:/home/hkh/git/eapidk-code-r76-trunk/apps/EeePProg/linux/../EeePDB.c **** #endif
 1008              		.loc 1 107 3 view .LVU242
 1009              	.LBE123:
 1010              	.LBE127:
 1011              		.loc 1 230 3 is_stmt 0 view .LVU243
 1012 03f0 043084E2 		add	r3, r4, #4
 1013 03f4 800053E1 		cmp	r3, r0, lsl #1
 1014 03f8 2F00008A 		bhi	.L93
 1015              		.loc 1 230 3 is_stmt 1 discriminator 2 view .LVU244
 231:/home/hkh/git/eapidk-code-r76-trunk/apps/EeePProg/linux/../EeePDB.c ****       ReduceBlockLength                                                             ,
 232:/home/hkh/git/eapidk-code-r76-trunk/apps/EeePProg/linux/../EeePDB.c ****       GetBlockLength(*pvCurBlock)<(EeePAlignLength(stReduceBy)+EEEP_MIN_BLOCK_LENGTH),
 233:/home/hkh/git/eapidk-code-r76-trunk/apps/EeePProg/linux/../EeePDB.c ****       EAPI_STATUS_INVALID_PARAMETER
 234:/home/hkh/git/eapidk-code-r76-trunk/apps/EeePProg/linux/../EeePDB.c ****     );
 1016              		.loc 1 234 6 discriminator 2 view .LVU245
 235:/home/hkh/git/eapidk-code-r76-trunk/apps/EeePProg/linux/../EeePDB.c ****   NewLength=GetBlockLength(*pvCurBlock)- EeePAlignLength(stReduceBy);
 1017              		.loc 1 235 3 discriminator 2 view .LVU246
 1018              		.loc 1 235 13 is_stmt 0 discriminator 2 view .LVU247
 1019 03fc 007095E5 		ldr	r7, [r5]
 1020              	.LVL83:
 1021              	.LBB128:
 1022              	.LBI128:
 144:/home/hkh/git/eapidk-code-r76-trunk/apps/EeePProg/linux/../EeePDB.c ****     const void * pcvBHandel
ARM GAS  /tmp/ccTXisr2.s 			page 26


 1023              		.loc 1 144 1 is_stmt 1 discriminator 2 view .LVU248
 1024              	.LBB129:
 148:/home/hkh/git/eapidk-code-r76-trunk/apps/EeePProg/linux/../EeePDB.c ****   if(!pcvBHandel) return stBlockSize;
 1025              		.loc 1 148 3 discriminator 2 view .LVU249
 149:/home/hkh/git/eapidk-code-r76-trunk/apps/EeePProg/linux/../EeePDB.c **** 
 1026              		.loc 1 149 3 discriminator 2 view .LVU250
 149:/home/hkh/git/eapidk-code-r76-trunk/apps/EeePProg/linux/../EeePDB.c **** 
 1027              		.loc 1 149 5 is_stmt 0 discriminator 2 view .LVU251
 1028 0400 000057E3 		cmp	r7, #0
 149:/home/hkh/git/eapidk-code-r76-trunk/apps/EeePProg/linux/../EeePDB.c **** 
 1029              		.loc 1 149 26 discriminator 2 view .LVU252
 1030 0404 0780A001 		moveq	r8, r7
 149:/home/hkh/git/eapidk-code-r76-trunk/apps/EeePProg/linux/../EeePDB.c **** 
 1031              		.loc 1 149 5 discriminator 2 view .LVU253
 1032 0408 0300000A 		beq	.L75
 1033              	.LVL84:
 1034              	.LBB130:
 1035              	.LBI130:
 144:/home/hkh/git/eapidk-code-r76-trunk/apps/EeePProg/linux/../EeePDB.c ****     const void * pcvBHandel
 1036              		.loc 1 144 1 is_stmt 1 view .LVU254
 1037              	.LBB131:
 151:/home/hkh/git/eapidk-code-r76-trunk/apps/EeePProg/linux/../EeePDB.c ****   return stBlockSize;
 1038              		.loc 1 151 3 view .LVU255
 151:/home/hkh/git/eapidk-code-r76-trunk/apps/EeePProg/linux/../EeePDB.c ****   return stBlockSize;
 1039              		.loc 1 151 15 is_stmt 0 view .LVU256
 1040 040c 010087E2 		add	r0, r7, #1
 1041 0410 FEFFFFEB 		bl	EeeP_Get16BitValue_BE(PLT)
 1042              	.LVL85:
 1043              	.LBE131:
 1044              	.LBE130:
 1045              	.LBE129:
 1046              	.LBE128:
 236:/home/hkh/git/eapidk-code-r76-trunk/apps/EeePProg/linux/../EeePDB.c ****   if(uiFlags&EEEP_RBL_REDUCE_TOP_DOWN){
 237:/home/hkh/git/eapidk-code-r76-trunk/apps/EeePProg/linux/../EeePDB.c ****     pTmpBlock=*pvCurBlock;
 1047              		.loc 1 237 14 view .LVU257
 1048 0414 007095E5 		ldr	r7, [r5]
 1049              	.LVL86:
 1050              	.LBB135:
 1051              	.LBB134:
 1052              	.LBB133:
 1053              	.LBB132:
 151:/home/hkh/git/eapidk-code-r76-trunk/apps/EeePProg/linux/../EeePDB.c ****   return stBlockSize;
 1054              		.loc 1 151 81 view .LVU258
 1055 0418 8080A0E1 		lsl	r8, r0, #1
 1056              	.LVL87:
 152:/home/hkh/git/eapidk-code-r76-trunk/apps/EeePProg/linux/../EeePDB.c **** }
 1057              		.loc 1 152 3 is_stmt 1 view .LVU259
 1058              	.L75:
 152:/home/hkh/git/eapidk-code-r76-trunk/apps/EeePProg/linux/../EeePDB.c **** }
 1059              		.loc 1 152 3 is_stmt 0 view .LVU260
 1060              	.LBE132:
 1061              	.LBE133:
 1062              	.LBE134:
 1063              	.LBE135:
 236:/home/hkh/git/eapidk-code-r76-trunk/apps/EeePProg/linux/../EeePDB.c ****   if(uiFlags&EEEP_RBL_REDUCE_TOP_DOWN){
 1064              		.loc 1 236 5 view .LVU261
 1065 041c 010019E3 		tst	r9, #1
ARM GAS  /tmp/ccTXisr2.s 			page 27


 235:/home/hkh/git/eapidk-code-r76-trunk/apps/EeePProg/linux/../EeePDB.c ****   if(uiFlags&EEEP_RBL_REDUCE_TOP_DOWN){
 1066              		.loc 1 235 12 view .LVU262
 1067 0420 048048E0 		sub	r8, r8, r4
 1068              	.LVL88:
 236:/home/hkh/git/eapidk-code-r76-trunk/apps/EeePProg/linux/../EeePDB.c ****   if(uiFlags&EEEP_RBL_REDUCE_TOP_DOWN){
 1069              		.loc 1 236 3 is_stmt 1 view .LVU263
 236:/home/hkh/git/eapidk-code-r76-trunk/apps/EeePProg/linux/../EeePDB.c ****   if(uiFlags&EEEP_RBL_REDUCE_TOP_DOWN){
 1070              		.loc 1 236 5 is_stmt 0 view .LVU264
 1071 0424 1400000A 		beq	.L76
 1072              		.loc 1 237 5 is_stmt 1 view .LVU265
 1073              	.LVL89:
 238:/home/hkh/git/eapidk-code-r76-trunk/apps/EeePProg/linux/../EeePDB.c ****   }else{
 239:/home/hkh/git/eapidk-code-r76-trunk/apps/EeePProg/linux/../EeePDB.c ****     pTmpBlock=EAPI_CREATE_PTR(*pvCurBlock, EeePAlignLength(stReduceBy), DBlockIdHdr_t *);
 240:/home/hkh/git/eapidk-code-r76-trunk/apps/EeePProg/linux/../EeePDB.c ****     memmove(pTmpBlock, *pvCurBlock, NewLength);
 241:/home/hkh/git/eapidk-code-r76-trunk/apps/EeePProg/linux/../EeePDB.c ****   }
 242:/home/hkh/git/eapidk-code-r76-trunk/apps/EeePProg/linux/../EeePDB.c ****   StatusCode=SetBlockLength(
 1074              		.loc 1 242 3 view .LVU266
 1075              		.loc 1 242 14 is_stmt 0 view .LVU267
 1076 0428 0810A0E1 		mov	r1, r8
 1077 042c 0700A0E1 		mov	r0, r7
 1078 0430 FEFFFFEB 		bl	SetBlockLength(PLT)
 1079              	.LVL90:
 243:/home/hkh/git/eapidk-code-r76-trunk/apps/EeePProg/linux/../EeePDB.c ****         pTmpBlock, 
 244:/home/hkh/git/eapidk-code-r76-trunk/apps/EeePProg/linux/../EeePDB.c ****         NewLength
 245:/home/hkh/git/eapidk-code-r76-trunk/apps/EeePProg/linux/../EeePDB.c ****       );
 246:/home/hkh/git/eapidk-code-r76-trunk/apps/EeePProg/linux/../EeePDB.c ****   if(uiFlags&EEEP_RBL_REDUCE_TOP_DOWN){
 247:/home/hkh/git/eapidk-code-r76-trunk/apps/EeePProg/linux/../EeePDB.c ****     if(pvNewBlock!=NULL)
 1080              		.loc 1 247 7 view .LVU268
 1081 0434 000056E3 		cmp	r6, #0
 242:/home/hkh/git/eapidk-code-r76-trunk/apps/EeePProg/linux/../EeePDB.c ****         pTmpBlock, 
 1082              		.loc 1 242 14 view .LVU269
 1083 0438 0080A0E1 		mov	r8, r0
 1084              	.LVL91:
 246:/home/hkh/git/eapidk-code-r76-trunk/apps/EeePProg/linux/../EeePDB.c ****     if(pvNewBlock!=NULL)
 1085              		.loc 1 246 3 is_stmt 1 view .LVU270
 1086              		.loc 1 247 5 view .LVU271
 1087              		.loc 1 247 7 is_stmt 0 view .LVU272
 1088 043c 1B00000A 		beq	.L69
 248:/home/hkh/git/eapidk-code-r76-trunk/apps/EeePProg/linux/../EeePDB.c ****       *pvNewBlock=GetNextBlock(pTmpBlock);
 1089              		.loc 1 248 7 is_stmt 1 view .LVU273
 1090              	.LVL92:
 1091              	.LBB136:
 1092              	.LBI136:
 155:/home/hkh/git/eapidk-code-r76-trunk/apps/EeePProg/linux/../EeePDB.c ****     DBlockIdHdr_t *pCurBlock
 1093              		.loc 1 155 1 view .LVU274
 1094              	.LBB137:
 159:/home/hkh/git/eapidk-code-r76-trunk/apps/EeePProg/linux/../EeePDB.c ****   size_t stBlockLength;
 1095              		.loc 1 159 3 view .LVU275
 160:/home/hkh/git/eapidk-code-r76-trunk/apps/EeePProg/linux/../EeePDB.c ****   EAPI_APP_ASSERT_PARAMATER_NULL(
 1096              		.loc 1 160 3 view .LVU276
 161:/home/hkh/git/eapidk-code-r76-trunk/apps/EeePProg/linux/../EeePDB.c ****       GetNextBlock,
 1097              		.loc 1 161 3 view .LVU277
 1098 0440 000057E3 		cmp	r7, #0
 1099 0444 4300000A 		beq	.L94
 161:/home/hkh/git/eapidk-code-r76-trunk/apps/EeePProg/linux/../EeePDB.c ****       GetNextBlock,
 1100              		.loc 1 161 3 view .LVU278
 165:/home/hkh/git/eapidk-code-r76-trunk/apps/EeePProg/linux/../EeePDB.c ****   stBlockLength=GetBlockLength(pCurBlock);
ARM GAS  /tmp/ccTXisr2.s 			page 28


 1101              		.loc 1 165 6 view .LVU279
 166:/home/hkh/git/eapidk-code-r76-trunk/apps/EeePProg/linux/../EeePDB.c ****   switch(stBlockLength){
 1102              		.loc 1 166 3 view .LVU280
 1103              	.LVL93:
 1104              	.LBB138:
 1105              	.LBI138:
 144:/home/hkh/git/eapidk-code-r76-trunk/apps/EeePProg/linux/../EeePDB.c ****     const void * pcvBHandel
 1106              		.loc 1 144 1 view .LVU281
 1107              	.LBB139:
 148:/home/hkh/git/eapidk-code-r76-trunk/apps/EeePProg/linux/../EeePDB.c ****   if(!pcvBHandel) return stBlockSize;
 1108              		.loc 1 148 3 view .LVU282
 149:/home/hkh/git/eapidk-code-r76-trunk/apps/EeePProg/linux/../EeePDB.c **** 
 1109              		.loc 1 149 3 view .LVU283
 1110              	.LBB140:
 1111              	.LBI140:
 144:/home/hkh/git/eapidk-code-r76-trunk/apps/EeePProg/linux/../EeePDB.c ****     const void * pcvBHandel
 1112              		.loc 1 144 1 view .LVU284
 1113              	.LBB141:
 151:/home/hkh/git/eapidk-code-r76-trunk/apps/EeePProg/linux/../EeePDB.c ****   return stBlockSize;
 1114              		.loc 1 151 3 view .LVU285
 151:/home/hkh/git/eapidk-code-r76-trunk/apps/EeePProg/linux/../EeePDB.c ****   return stBlockSize;
 1115              		.loc 1 151 15 is_stmt 0 view .LVU286
 1116 0448 010087E2 		add	r0, r7, #1
 1117              	.LVL94:
 151:/home/hkh/git/eapidk-code-r76-trunk/apps/EeePProg/linux/../EeePDB.c ****   return stBlockSize;
 1118              		.loc 1 151 15 view .LVU287
 1119 044c FEFFFFEB 		bl	EeeP_Get16BitValue_BE(PLT)
 1120              	.LVL95:
 1121              	.LBE141:
 1122              	.LBE140:
 1123              	.LBE139:
 1124              	.LBE138:
 167:/home/hkh/git/eapidk-code-r76-trunk/apps/EeePProg/linux/../EeePDB.c ****     case EEEP_OFFSET_VALUE_EOL:
 1125              		.loc 1 167 3 view .LVU288
 1126 0450 000050E3 		cmp	r0, #0
 1127              	.LBB145:
 1128              	.LBB144:
 1129              	.LBB143:
 1130              	.LBB142:
 151:/home/hkh/git/eapidk-code-r76-trunk/apps/EeePProg/linux/../EeePDB.c ****   return stBlockSize;
 1131              		.loc 1 151 81 view .LVU289
 1132 0454 8020A0E1 		lsl	r2, r0, #1
 1133              	.LVL96:
 152:/home/hkh/git/eapidk-code-r76-trunk/apps/EeePProg/linux/../EeePDB.c **** }
 1134              		.loc 1 152 3 is_stmt 1 view .LVU290
 152:/home/hkh/git/eapidk-code-r76-trunk/apps/EeePProg/linux/../EeePDB.c **** }
 1135              		.loc 1 152 3 is_stmt 0 view .LVU291
 1136              	.LBE142:
 1137              	.LBE143:
 1138              	.LBE144:
 1139              	.LBE145:
 167:/home/hkh/git/eapidk-code-r76-trunk/apps/EeePProg/linux/../EeePDB.c ****     case EEEP_OFFSET_VALUE_EOL:
 1140              		.loc 1 167 3 is_stmt 1 view .LVU292
 1141 0458 4D00000A 		beq	.L85
 1142 045c FF3F0FE3 		movw	r3, #65535
 1143 0460 030050E1 		cmp	r0, r3
 1144 0464 4A00000A 		beq	.L85
ARM GAS  /tmp/ccTXisr2.s 			page 29


 171:/home/hkh/git/eapidk-code-r76-trunk/apps/EeePProg/linux/../EeePDB.c ****     default:
 1145              		.loc 1 171 7 view .LVU293
 173:/home/hkh/git/eapidk-code-r76-trunk/apps/EeePProg/linux/../EeePDB.c ****           pCurBlock         ,
 1146              		.loc 1 173 7 view .LVU294
 173:/home/hkh/git/eapidk-code-r76-trunk/apps/EeePProg/linux/../EeePDB.c ****           pCurBlock         ,
 1147              		.loc 1 173 17 is_stmt 0 view .LVU295
 1148 0468 027087E0 		add	r7, r7, r2
 1149              	.LVL97:
 178:/home/hkh/git/eapidk-code-r76-trunk/apps/EeePProg/linux/../EeePDB.c ****       }
 1150              		.loc 1 178 7 is_stmt 1 view .LVU296
 1151              	.L81:
 1152              	.L82:
 182:/home/hkh/git/eapidk-code-r76-trunk/apps/EeePProg/linux/../EeePDB.c **** }
 1153              		.loc 1 182 3 view .LVU297
 182:/home/hkh/git/eapidk-code-r76-trunk/apps/EeePProg/linux/../EeePDB.c **** }
 1154              		.loc 1 182 3 is_stmt 0 view .LVU298
 1155              	.LBE137:
 1156              	.LBE136:
 249:/home/hkh/git/eapidk-code-r76-trunk/apps/EeePProg/linux/../EeePDB.c ****   }else{
 250:/home/hkh/git/eapidk-code-r76-trunk/apps/EeePProg/linux/../EeePDB.c ****     if(pvNewBlock!=NULL)
 251:/home/hkh/git/eapidk-code-r76-trunk/apps/EeePProg/linux/../EeePDB.c ****       *pvNewBlock=*pvCurBlock;
 252:/home/hkh/git/eapidk-code-r76-trunk/apps/EeePProg/linux/../EeePDB.c ****     *pvCurBlock=pTmpBlock;
 253:/home/hkh/git/eapidk-code-r76-trunk/apps/EeePProg/linux/../EeePDB.c ****   }
 254:/home/hkh/git/eapidk-code-r76-trunk/apps/EeePProg/linux/../EeePDB.c **** EAPI_APP_ASSERT_EXIT
 255:/home/hkh/git/eapidk-code-r76-trunk/apps/EeePProg/linux/../EeePDB.c ****   if(!EAPI_TEST_SUCCESS(StatusCode)){
 256:/home/hkh/git/eapidk-code-r76-trunk/apps/EeePProg/linux/../EeePDB.c ****   }
 257:/home/hkh/git/eapidk-code-r76-trunk/apps/EeePProg/linux/../EeePDB.c ****   return StatusCode;
 258:/home/hkh/git/eapidk-code-r76-trunk/apps/EeePProg/linux/../EeePDB.c **** }
 1157              		.loc 1 258 1 view .LVU299
 1158 046c 0800A0E1 		mov	r0, r8
 248:/home/hkh/git/eapidk-code-r76-trunk/apps/EeePProg/linux/../EeePDB.c ****   }else{
 1159              		.loc 1 248 18 view .LVU300
 1160 0470 007086E5 		str	r7, [r6]
 1161              		.loc 1 258 1 view .LVU301
 1162 0474 14D08DE2 		add	sp, sp, #20
 1163              		.cfi_remember_state
 1164              		.cfi_def_cfa_offset 28
 1165              		@ sp needed
 1166 0478 F083BDE8 		pop	{r4, r5, r6, r7, r8, r9, pc}
 1167              	.LVL98:
 1168              	.L76:
 1169              		.cfi_restore_state
 239:/home/hkh/git/eapidk-code-r76-trunk/apps/EeePProg/linux/../EeePDB.c ****     memmove(pTmpBlock, *pvCurBlock, NewLength);
 1170              		.loc 1 239 5 is_stmt 1 view .LVU302
 239:/home/hkh/git/eapidk-code-r76-trunk/apps/EeePProg/linux/../EeePDB.c ****     memmove(pTmpBlock, *pvCurBlock, NewLength);
 1171              		.loc 1 239 14 is_stmt 0 view .LVU303
 1172 047c 044087E0 		add	r4, r7, r4
 1173              	.LVL99:
 240:/home/hkh/git/eapidk-code-r76-trunk/apps/EeePProg/linux/../EeePDB.c ****   }
 1174              		.loc 1 240 5 is_stmt 1 view .LVU304
 1175 0480 0820A0E1 		mov	r2, r8
 1176 0484 0710A0E1 		mov	r1, r7
 1177 0488 0400A0E1 		mov	r0, r4
 1178 048c FEFFFFEB 		bl	memmove(PLT)
 1179              	.LVL100:
 242:/home/hkh/git/eapidk-code-r76-trunk/apps/EeePProg/linux/../EeePDB.c ****         pTmpBlock, 
 1180              		.loc 1 242 3 view .LVU305
ARM GAS  /tmp/ccTXisr2.s 			page 30


 242:/home/hkh/git/eapidk-code-r76-trunk/apps/EeePProg/linux/../EeePDB.c ****         pTmpBlock, 
 1181              		.loc 1 242 14 is_stmt 0 view .LVU306
 1182 0490 0810A0E1 		mov	r1, r8
 1183 0494 0400A0E1 		mov	r0, r4
 1184 0498 FEFFFFEB 		bl	SetBlockLength(PLT)
 1185              	.LVL101:
 250:/home/hkh/git/eapidk-code-r76-trunk/apps/EeePProg/linux/../EeePDB.c ****       *pvNewBlock=*pvCurBlock;
 1186              		.loc 1 250 7 view .LVU307
 1187 049c 000056E3 		cmp	r6, #0
 242:/home/hkh/git/eapidk-code-r76-trunk/apps/EeePProg/linux/../EeePDB.c ****         pTmpBlock, 
 1188              		.loc 1 242 14 view .LVU308
 1189 04a0 0080A0E1 		mov	r8, r0
 1190              	.LVL102:
 246:/home/hkh/git/eapidk-code-r76-trunk/apps/EeePProg/linux/../EeePDB.c ****     if(pvNewBlock!=NULL)
 1191              		.loc 1 246 3 is_stmt 1 view .LVU309
 250:/home/hkh/git/eapidk-code-r76-trunk/apps/EeePProg/linux/../EeePDB.c ****       *pvNewBlock=*pvCurBlock;
 1192              		.loc 1 250 5 view .LVU310
 250:/home/hkh/git/eapidk-code-r76-trunk/apps/EeePProg/linux/../EeePDB.c ****       *pvNewBlock=*pvCurBlock;
 1193              		.loc 1 250 7 is_stmt 0 view .LVU311
 251:/home/hkh/git/eapidk-code-r76-trunk/apps/EeePProg/linux/../EeePDB.c ****     *pvCurBlock=pTmpBlock;
 1194              		.loc 1 251 7 is_stmt 1 view .LVU312
 251:/home/hkh/git/eapidk-code-r76-trunk/apps/EeePProg/linux/../EeePDB.c ****     *pvCurBlock=pTmpBlock;
 1195              		.loc 1 251 19 is_stmt 0 view .LVU313
 1196 04a4 00309515 		ldrne	r3, [r5]
 251:/home/hkh/git/eapidk-code-r76-trunk/apps/EeePProg/linux/../EeePDB.c ****     *pvCurBlock=pTmpBlock;
 1197              		.loc 1 251 18 view .LVU314
 1198 04a8 00308615 		strne	r3, [r6]
 1199              	.L79:
 252:/home/hkh/git/eapidk-code-r76-trunk/apps/EeePProg/linux/../EeePDB.c ****   }
 1200              		.loc 1 252 5 is_stmt 1 view .LVU315
 252:/home/hkh/git/eapidk-code-r76-trunk/apps/EeePProg/linux/../EeePDB.c ****   }
 1201              		.loc 1 252 16 is_stmt 0 view .LVU316
 1202 04ac 004085E5 		str	r4, [r5]
 255:/home/hkh/git/eapidk-code-r76-trunk/apps/EeePProg/linux/../EeePDB.c ****   }
 1203              		.loc 1 255 3 is_stmt 1 view .LVU317
 256:/home/hkh/git/eapidk-code-r76-trunk/apps/EeePProg/linux/../EeePDB.c ****   return StatusCode;
 1204              		.loc 1 256 3 view .LVU318
 257:/home/hkh/git/eapidk-code-r76-trunk/apps/EeePProg/linux/../EeePDB.c **** }
 1205              		.loc 1 257 3 view .LVU319
 1206              	.L72:
 1207              	.LVL103:
 1208              	.L69:
 1209              		.loc 1 258 1 is_stmt 0 view .LVU320
 1210 04b0 0800A0E1 		mov	r0, r8
 1211              	.LVL104:
 1212              		.loc 1 258 1 view .LVU321
 1213 04b4 14D08DE2 		add	sp, sp, #20
 1214              		.cfi_remember_state
 1215              		.cfi_def_cfa_offset 28
 1216              		@ sp needed
 1217 04b8 F083BDE8 		pop	{r4, r5, r6, r7, r8, r9, pc}
 1218              	.LVL105:
 1219              	.L93:
 1220              		.cfi_restore_state
 230:/home/hkh/git/eapidk-code-r76-trunk/apps/EeePProg/linux/../EeePDB.c ****       ReduceBlockLength                                                             ,
 1221              		.loc 1 230 3 is_stmt 1 discriminator 1 view .LVU322
 230:/home/hkh/git/eapidk-code-r76-trunk/apps/EeePProg/linux/../EeePDB.c ****       ReduceBlockLength                                                             ,
ARM GAS  /tmp/ccTXisr2.s 			page 31


 1222              		.loc 1 230 3 discriminator 1 view .LVU323
 1223 04bc D8C09FE5 		ldr	ip, .L95
 1224 04c0 018CE0E3 		mvn	r8, #256
 1225 04c4 D4009FE5 		ldr	r0, .L95+4
 1226 04c8 E630A0E3 		mov	r3, #230
 1227 04cc D0209FE5 		ldr	r2, .L95+8
 1228 04d0 D0109FE5 		ldr	r1, .L95+12
 1229              	.LPIC44:
 1230 04d4 0CC08FE0 		add	ip, pc, ip
 1231              	.LPIC45:
 1232 04d8 00008FE0 		add	r0, pc, r0
 1233              	.LPIC42:
 1234 04dc 02208FE0 		add	r2, pc, r2
 1235              	.LPIC43:
 1236 04e0 01108FE0 		add	r1, pc, r1
 1237              	.LVL106:
 1238              	.L90:
 222:/home/hkh/git/eapidk-code-r76-trunk/apps/EeePProg/linux/../EeePDB.c ****       ReduceBlockLength             ,
 1239              		.loc 1 222 3 is_stmt 0 discriminator 1 view .LVU324
 1240 04e4 01108DE9 		stmib	sp, {r0, ip}
 1241 04e8 4500A0E3 		mov	r0, #69
 1242 04ec 00808DE5 		str	r8, [sp]
 1243 04f0 FEFFFFEB 		bl	siFormattedMessage_SC(PLT)
 1244              	.LVL107:
 222:/home/hkh/git/eapidk-code-r76-trunk/apps/EeePProg/linux/../EeePDB.c ****       ReduceBlockLength             ,
 1245              		.loc 1 222 3 is_stmt 1 discriminator 1 view .LVU325
 222:/home/hkh/git/eapidk-code-r76-trunk/apps/EeePProg/linux/../EeePDB.c ****       ReduceBlockLength             ,
 1246              		.loc 1 222 3 discriminator 1 view .LVU326
 222:/home/hkh/git/eapidk-code-r76-trunk/apps/EeePProg/linux/../EeePDB.c ****       ReduceBlockLength             ,
 1247              		.loc 1 222 3 discriminator 1 view .LVU327
 1248              		.loc 1 258 1 is_stmt 0 discriminator 1 view .LVU328
 1249 04f4 0800A0E1 		mov	r0, r8
 1250 04f8 14D08DE2 		add	sp, sp, #20
 1251              		.cfi_remember_state
 1252              		.cfi_def_cfa_offset 28
 1253              		@ sp needed
 1254 04fc F083BDE8 		pop	{r4, r5, r6, r7, r8, r9, pc}
 1255              	.LVL108:
 1256              	.L92:
 1257              		.cfi_restore_state
 222:/home/hkh/git/eapidk-code-r76-trunk/apps/EeePProg/linux/../EeePDB.c ****       ReduceBlockLength             ,
 1258              		.loc 1 222 3 is_stmt 1 discriminator 1 view .LVU329
 222:/home/hkh/git/eapidk-code-r76-trunk/apps/EeePProg/linux/../EeePDB.c ****       ReduceBlockLength             ,
 1259              		.loc 1 222 3 discriminator 1 view .LVU330
 1260 0500 A4C09FE5 		ldr	ip, .L95+16
 1261 0504 018CE0E3 		mvn	r8, #256
 1262 0508 A0009FE5 		ldr	r0, .L95+20
 1263 050c DE30A0E3 		mov	r3, #222
 1264 0510 9C209FE5 		ldr	r2, .L95+24
 1265              	.LVL109:
 222:/home/hkh/git/eapidk-code-r76-trunk/apps/EeePProg/linux/../EeePDB.c ****       ReduceBlockLength             ,
 1266              		.loc 1 222 3 is_stmt 0 discriminator 1 view .LVU331
 1267 0514 9C109FE5 		ldr	r1, .L95+28
 1268              	.LVL110:
 222:/home/hkh/git/eapidk-code-r76-trunk/apps/EeePProg/linux/../EeePDB.c ****       ReduceBlockLength             ,
 1269              		.loc 1 222 3 discriminator 1 view .LVU332
 1270              	.LPIC40:
ARM GAS  /tmp/ccTXisr2.s 			page 32


 1271 0518 0CC08FE0 		add	ip, pc, ip
 1272              	.LPIC41:
 1273 051c 00008FE0 		add	r0, pc, r0
 1274              	.LPIC38:
 1275 0520 02208FE0 		add	r2, pc, r2
 1276              	.LPIC39:
 1277 0524 01108FE0 		add	r1, pc, r1
 1278 0528 EDFFFFEA 		b	.L90
 1279              	.LVL111:
 1280              	.L91:
 217:/home/hkh/git/eapidk-code-r76-trunk/apps/EeePProg/linux/../EeePDB.c ****       ReduceBlockLength             ,
 1281              		.loc 1 217 3 is_stmt 1 discriminator 1 view .LVU333
 217:/home/hkh/git/eapidk-code-r76-trunk/apps/EeePProg/linux/../EeePDB.c ****       ReduceBlockLength             ,
 1282              		.loc 1 217 3 discriminator 1 view .LVU334
 1283 052c 88C09FE5 		ldr	ip, .L95+32
 1284 0530 018CE0E3 		mvn	r8, #256
 1285 0534 84009FE5 		ldr	r0, .L95+36
 1286              	.LVL112:
 217:/home/hkh/git/eapidk-code-r76-trunk/apps/EeePProg/linux/../EeePDB.c ****       ReduceBlockLength             ,
 1287              		.loc 1 217 3 is_stmt 0 discriminator 1 view .LVU335
 1288 0538 D930A0E3 		mov	r3, #217
 1289 053c 80209FE5 		ldr	r2, .L95+40
 1290              	.LVL113:
 217:/home/hkh/git/eapidk-code-r76-trunk/apps/EeePProg/linux/../EeePDB.c ****       ReduceBlockLength             ,
 1291              		.loc 1 217 3 discriminator 1 view .LVU336
 1292 0540 80109FE5 		ldr	r1, .L95+44
 1293              	.LVL114:
 217:/home/hkh/git/eapidk-code-r76-trunk/apps/EeePProg/linux/../EeePDB.c ****       ReduceBlockLength             ,
 1294              		.loc 1 217 3 discriminator 1 view .LVU337
 1295              	.LPIC36:
 1296 0544 0CC08FE0 		add	ip, pc, ip
 1297              	.LPIC37:
 1298 0548 00008FE0 		add	r0, pc, r0
 1299              	.LPIC34:
 1300 054c 02208FE0 		add	r2, pc, r2
 1301              	.LPIC35:
 1302 0550 01108FE0 		add	r1, pc, r1
 1303 0554 E2FFFFEA 		b	.L90
 1304              	.LVL115:
 1305              	.L94:
 1306              	.LBB149:
 1307              	.LBB148:
 1308              	.LBB146:
 1309              	.LBI146:
 155:/home/hkh/git/eapidk-code-r76-trunk/apps/EeePProg/linux/../EeePDB.c ****     DBlockIdHdr_t *pCurBlock
 1310              		.loc 1 155 1 is_stmt 1 view .LVU338
 1311              	.LBB147:
 161:/home/hkh/git/eapidk-code-r76-trunk/apps/EeePProg/linux/../EeePDB.c ****       GetNextBlock,
 1312              		.loc 1 161 3 view .LVU339
 161:/home/hkh/git/eapidk-code-r76-trunk/apps/EeePProg/linux/../EeePDB.c ****       GetNextBlock,
 1313              		.loc 1 161 3 view .LVU340
 1314 0558 6C209FE5 		ldr	r2, .L95+48
 1315 055c 4500A0E3 		mov	r0, #69
 1316              	.LVL116:
 161:/home/hkh/git/eapidk-code-r76-trunk/apps/EeePProg/linux/../EeePDB.c ****       GetNextBlock,
 1317              		.loc 1 161 3 is_stmt 0 view .LVU341
 1318 0560 68309FE5 		ldr	r3, .L95+52
ARM GAS  /tmp/ccTXisr2.s 			page 33


 1319 0564 68109FE5 		ldr	r1, .L95+56
 1320              	.LPIC48:
 1321 0568 02208FE0 		add	r2, pc, r2
 1322 056c 00708DE5 		str	r7, [sp]
 1323 0570 08208DE5 		str	r2, [sp, #8]
 1324              	.LPIC49:
 1325 0574 03308FE0 		add	r3, pc, r3
 1326 0578 58209FE5 		ldr	r2, .L95+60
 1327              	.LPIC47:
 1328 057c 01108FE0 		add	r1, pc, r1
 1329 0580 04308DE5 		str	r3, [sp, #4]
 1330 0584 A130A0E3 		mov	r3, #161
 1331              	.LPIC46:
 1332 0588 02208FE0 		add	r2, pc, r2
 1333 058c FEFFFFEB 		bl	siFormattedMessage_SC(PLT)
 1334              	.LVL117:
 161:/home/hkh/git/eapidk-code-r76-trunk/apps/EeePProg/linux/../EeePDB.c ****       GetNextBlock,
 1335              		.loc 1 161 3 is_stmt 1 view .LVU342
 161:/home/hkh/git/eapidk-code-r76-trunk/apps/EeePProg/linux/../EeePDB.c ****       GetNextBlock,
 1336              		.loc 1 161 3 view .LVU343
 161:/home/hkh/git/eapidk-code-r76-trunk/apps/EeePProg/linux/../EeePDB.c ****       GetNextBlock,
 1337              		.loc 1 161 3 view .LVU344
 1338              	.LDL3:
 1339              	.LDL4:
 182:/home/hkh/git/eapidk-code-r76-trunk/apps/EeePProg/linux/../EeePDB.c **** }
 1340              		.loc 1 182 3 view .LVU345
 182:/home/hkh/git/eapidk-code-r76-trunk/apps/EeePProg/linux/../EeePDB.c **** }
 1341              		.loc 1 182 3 is_stmt 0 view .LVU346
 1342 0590 B5FFFFEA 		b	.L82
 1343              	.LVL118:
 1344              	.L85:
 182:/home/hkh/git/eapidk-code-r76-trunk/apps/EeePProg/linux/../EeePDB.c **** }
 1345              		.loc 1 182 3 view .LVU347
 1346              	.LBE147:
 1347              	.LBE146:
 167:/home/hkh/git/eapidk-code-r76-trunk/apps/EeePProg/linux/../EeePDB.c ****     case EEEP_OFFSET_VALUE_EOL:
 1348              		.loc 1 167 3 view .LVU348
 1349 0594 0070A0E3 		mov	r7, #0
 1350 0598 B3FFFFEA 		b	.L82
 1351              	.L96:
 1352              		.align	2
 1353              	.L95:
 1354 059c C0000000 		.word	.LC14-(.LPIC44+8)
 1355 05a0 C0000000 		.word	.LC5-(.LPIC45+8)
 1356 05a4 C0000000 		.word	.LC11-(.LPIC42+8)
 1357 05a8 C0000000 		.word	.LC3-(.LPIC43+8)
 1358 05ac 8C000000 		.word	.LC13-(.LPIC40+8)
 1359 05b0 8C000000 		.word	.LC5-(.LPIC41+8)
 1360 05b4 8C000000 		.word	.LC11-(.LPIC38+8)
 1361 05b8 8C000000 		.word	.LC3-(.LPIC39+8)
 1362 05bc 70000000 		.word	.LC12-(.LPIC36+8)
 1363 05c0 70000000 		.word	.LC5-(.LPIC37+8)
 1364 05c4 70000000 		.word	.LC11-(.LPIC34+8)
 1365 05c8 70000000 		.word	.LC3-(.LPIC35+8)
 1366 05cc 5C000000 		.word	.LC9-(.LPIC48+8)
 1367 05d0 54000000 		.word	.LC5-(.LPIC49+8)
 1368 05d4 50000000 		.word	.LC3-(.LPIC47+8)
ARM GAS  /tmp/ccTXisr2.s 			page 34


 1369 05d8 48000000 		.word	.LC8-(.LPIC46+8)
 1370              	.LBE148:
 1371              	.LBE149:
 1372              		.cfi_endproc
 1373              	.LFE9:
 1375              		.section	.rodata.str1.4
 1376              		.align	2
 1377              	.LC15:
 1378 0188 45656550 		.ascii	"EeePFreeBuffer\000"
 1378      46726565 
 1378      42756666 
 1378      657200
 1379 0197 00       		.align	2
 1380              	.LC16:
 1381 0198 28704248 		.ascii	"(pBHandel==NULL)\000"
 1381      616E6465 
 1381      6C3D3D4E 
 1381      554C4C29 
 1381      00
 1382              		.text
 1383              		.align	2
 1384              		.global	EeePFreeBuffer
 1385              		.syntax unified
 1386              		.arm
 1387              		.fpu vfpv3
 1389              	EeePFreeBuffer:
 1390              	.LVL119:
 1391              	.LFB11:
 259:/home/hkh/git/eapidk-code-r76-trunk/apps/EeePProg/linux/../EeePDB.c **** 
 260:/home/hkh/git/eapidk-code-r76-trunk/apps/EeePProg/linux/../EeePDB.c **** /*
 261:/home/hkh/git/eapidk-code-r76-trunk/apps/EeePProg/linux/../EeePDB.c ****  * Create and Handle Blocks 
 262:/home/hkh/git/eapidk-code-r76-trunk/apps/EeePProg/linux/../EeePDB.c ****  */
 263:/home/hkh/git/eapidk-code-r76-trunk/apps/EeePProg/linux/../EeePDB.c **** EApiStatus_t
 264:/home/hkh/git/eapidk-code-r76-trunk/apps/EeePProg/linux/../EeePDB.c **** EeePCreateNewBuffer(
 265:/home/hkh/git/eapidk-code-r76-trunk/apps/EeePProg/linux/../EeePDB.c ****     EeePHandel_t *pBHandel,
 266:/home/hkh/git/eapidk-code-r76-trunk/apps/EeePProg/linux/../EeePDB.c ****     size_t   stBufferSize ,
 267:/home/hkh/git/eapidk-code-r76-trunk/apps/EeePProg/linux/../EeePDB.c ****     size_t   stHeaderSize ,
 268:/home/hkh/git/eapidk-code-r76-trunk/apps/EeePProg/linux/../EeePDB.c ****     uint32_t u32Flags
 269:/home/hkh/git/eapidk-code-r76-trunk/apps/EeePProg/linux/../EeePDB.c ****     )
 270:/home/hkh/git/eapidk-code-r76-trunk/apps/EeePProg/linux/../EeePDB.c **** {
 271:/home/hkh/git/eapidk-code-r76-trunk/apps/EeePProg/linux/../EeePDB.c ****   EeePCmn_t     *pEeePCmnHdr; 
 272:/home/hkh/git/eapidk-code-r76-trunk/apps/EeePProg/linux/../EeePDB.c ****   DBlockIdHdr_t *pEeePEmptyBlock; 
 273:/home/hkh/git/eapidk-code-r76-trunk/apps/EeePProg/linux/../EeePDB.c ****   EApiStatus_t StatusCode=EAPI_STATUS_SUCCESS;
 274:/home/hkh/git/eapidk-code-r76-trunk/apps/EeePProg/linux/../EeePDB.c ****   DBlockIdHdr_t *pEeePTBlock; 
 275:/home/hkh/git/eapidk-code-r76-trunk/apps/EeePProg/linux/../EeePDB.c ****   
 276:/home/hkh/git/eapidk-code-r76-trunk/apps/EeePProg/linux/../EeePDB.c ****   EAPI_APP_ASSERT_PARAMATER_CHECK_S(
 277:/home/hkh/git/eapidk-code-r76-trunk/apps/EeePProg/linux/../EeePDB.c ****       EeePCreateNewBuffer, 
 278:/home/hkh/git/eapidk-code-r76-trunk/apps/EeePProg/linux/../EeePDB.c ****       EAPI_STATUS_INVALID_PARAMETER, 
 279:/home/hkh/git/eapidk-code-r76-trunk/apps/EeePProg/linux/../EeePDB.c ****       (stBufferSize<256)
 280:/home/hkh/git/eapidk-code-r76-trunk/apps/EeePProg/linux/../EeePDB.c ****     );
 281:/home/hkh/git/eapidk-code-r76-trunk/apps/EeePProg/linux/../EeePDB.c ****   EAPI_APP_ASSERT_PARAMATER_CHECK_S(
 282:/home/hkh/git/eapidk-code-r76-trunk/apps/EeePProg/linux/../EeePDB.c ****       EeePCreateNewBuffer, 
 283:/home/hkh/git/eapidk-code-r76-trunk/apps/EeePProg/linux/../EeePDB.c ****       EAPI_STATUS_INVALID_PARAMETER, 
 284:/home/hkh/git/eapidk-code-r76-trunk/apps/EeePProg/linux/../EeePDB.c ****       (stHeaderSize<sizeof(*pEeePCmnHdr))
 285:/home/hkh/git/eapidk-code-r76-trunk/apps/EeePProg/linux/../EeePDB.c ****     );
 286:/home/hkh/git/eapidk-code-r76-trunk/apps/EeePProg/linux/../EeePDB.c **** 
 287:/home/hkh/git/eapidk-code-r76-trunk/apps/EeePProg/linux/../EeePDB.c ****   pEeePCmnHdr=*pBHandel=(EeePHandel_t)malloc(stBufferSize);
ARM GAS  /tmp/ccTXisr2.s 			page 35


 288:/home/hkh/git/eapidk-code-r76-trunk/apps/EeePProg/linux/../EeePDB.c **** 
 289:/home/hkh/git/eapidk-code-r76-trunk/apps/EeePProg/linux/../EeePDB.c ****   EAPI_APP_ASSERT_PARAMATER_NULL(
 290:/home/hkh/git/eapidk-code-r76-trunk/apps/EeePProg/linux/../EeePDB.c ****       EeePCreateNewBuffer,
 291:/home/hkh/git/eapidk-code-r76-trunk/apps/EeePProg/linux/../EeePDB.c ****       EAPI_STATUS_ALLOC_ERROR,
 292:/home/hkh/git/eapidk-code-r76-trunk/apps/EeePProg/linux/../EeePDB.c ****       *pBHandel
 293:/home/hkh/git/eapidk-code-r76-trunk/apps/EeePProg/linux/../EeePDB.c ****     );
 294:/home/hkh/git/eapidk-code-r76-trunk/apps/EeePProg/linux/../EeePDB.c ****   memset(pEeePCmnHdr, 0x00, stBufferSize);
 295:/home/hkh/git/eapidk-code-r76-trunk/apps/EeePProg/linux/../EeePDB.c ****   /*
 296:/home/hkh/git/eapidk-code-r76-trunk/apps/EeePProg/linux/../EeePDB.c ****    * Initialize Header
 297:/home/hkh/git/eapidk-code-r76-trunk/apps/EeePProg/linux/../EeePDB.c ****    */
 298:/home/hkh/git/eapidk-code-r76-trunk/apps/EeePProg/linux/../EeePDB.c ****   pEeePCmnHdr->DontCareByte=0;
 299:/home/hkh/git/eapidk-code-r76-trunk/apps/EeePProg/linux/../EeePDB.c ****   memcpy(
 300:/home/hkh/git/eapidk-code-r76-trunk/apps/EeePProg/linux/../EeePDB.c ****       pEeePCmnHdr->EepId        ,
 301:/home/hkh/git/eapidk-code-r76-trunk/apps/EeePProg/linux/../EeePDB.c ****       EEEP_EEPROM_MARKER        ,
 302:/home/hkh/git/eapidk-code-r76-trunk/apps/EeePProg/linux/../EeePDB.c ****       sizeof(EEEP_EEPROM_MARKER)-1
 303:/home/hkh/git/eapidk-code-r76-trunk/apps/EeePProg/linux/../EeePDB.c ****     );
 304:/home/hkh/git/eapidk-code-r76-trunk/apps/EeePProg/linux/../EeePDB.c ****   pEeePCmnHdr->SpecRev=EEEP_VERSION;
 305:/home/hkh/git/eapidk-code-r76-trunk/apps/EeePProg/linux/../EeePDB.c ****   pEeePCmnHdr->BlkOffset=(uint8_t)EeePAdjLength(stHeaderSize);
 306:/home/hkh/git/eapidk-code-r76-trunk/apps/EeePProg/linux/../EeePDB.c ****   pEeePCmnHdr->DeviceDesc=0;
 307:/home/hkh/git/eapidk-code-r76-trunk/apps/EeePProg/linux/../EeePDB.c ****   /*
 308:/home/hkh/git/eapidk-code-r76-trunk/apps/EeePProg/linux/../EeePDB.c ****    * Initialize Free Block
 309:/home/hkh/git/eapidk-code-r76-trunk/apps/EeePProg/linux/../EeePDB.c ****    */
 310:/home/hkh/git/eapidk-code-r76-trunk/apps/EeePProg/linux/../EeePDB.c ****   DO(EeePGetFirstDB(*pBHandel, &pEeePEmptyBlock, NULL));
 311:/home/hkh/git/eapidk-code-r76-trunk/apps/EeePProg/linux/../EeePDB.c **** 
 312:/home/hkh/git/eapidk-code-r76-trunk/apps/EeePProg/linux/../EeePDB.c ****   DO(SetDynBlockHeader(
 313:/home/hkh/git/eapidk-code-r76-trunk/apps/EeePProg/linux/../EeePDB.c ****         pEeePEmptyBlock, 
 314:/home/hkh/git/eapidk-code-r76-trunk/apps/EeePProg/linux/../EeePDB.c ****         EEEP_BLOCK_ID_UNUSED, 
 315:/home/hkh/git/eapidk-code-r76-trunk/apps/EeePProg/linux/../EeePDB.c ****         stBufferSize - (pEeePCmnHdr->BlkOffset*EEEP_SIZE_UNITS)
 316:/home/hkh/git/eapidk-code-r76-trunk/apps/EeePProg/linux/../EeePDB.c ****       ));
 317:/home/hkh/git/eapidk-code-r76-trunk/apps/EeePProg/linux/../EeePDB.c ****   /*
 318:/home/hkh/git/eapidk-code-r76-trunk/apps/EeePProg/linux/../EeePDB.c ****    * Termination Block
 319:/home/hkh/git/eapidk-code-r76-trunk/apps/EeePProg/linux/../EeePDB.c ****    */
 320:/home/hkh/git/eapidk-code-r76-trunk/apps/EeePProg/linux/../EeePDB.c ****   DO(ReduceBlockLength(
 321:/home/hkh/git/eapidk-code-r76-trunk/apps/EeePProg/linux/../EeePDB.c ****         &pEeePEmptyBlock        ,
 322:/home/hkh/git/eapidk-code-r76-trunk/apps/EeePProg/linux/../EeePDB.c ****         sizeof(*pEeePTBlock)    ,
 323:/home/hkh/git/eapidk-code-r76-trunk/apps/EeePProg/linux/../EeePDB.c ****         &pEeePTBlock            , 
 324:/home/hkh/git/eapidk-code-r76-trunk/apps/EeePProg/linux/../EeePDB.c ****         EEEP_RBL_REDUCE_TOP_DOWN
 325:/home/hkh/git/eapidk-code-r76-trunk/apps/EeePProg/linux/../EeePDB.c ****       ));
 326:/home/hkh/git/eapidk-code-r76-trunk/apps/EeePProg/linux/../EeePDB.c **** 
 327:/home/hkh/git/eapidk-code-r76-trunk/apps/EeePProg/linux/../EeePDB.c ****   /*
 328:/home/hkh/git/eapidk-code-r76-trunk/apps/EeePProg/linux/../EeePDB.c ****    * Initialise Termination Block Values
 329:/home/hkh/git/eapidk-code-r76-trunk/apps/EeePProg/linux/../EeePDB.c ****    */
 330:/home/hkh/git/eapidk-code-r76-trunk/apps/EeePProg/linux/../EeePDB.c ****   DO(SetDynBlockHeader(
 331:/home/hkh/git/eapidk-code-r76-trunk/apps/EeePProg/linux/../EeePDB.c ****         pEeePTBlock, 
 332:/home/hkh/git/eapidk-code-r76-trunk/apps/EeePProg/linux/../EeePDB.c ****         EEEP_BLOCK_ID_UNUSED, 
 333:/home/hkh/git/eapidk-code-r76-trunk/apps/EeePProg/linux/../EeePDB.c ****         EEEP_OFFSET_VALUE_EOL
 334:/home/hkh/git/eapidk-code-r76-trunk/apps/EeePProg/linux/../EeePDB.c ****       ));
 335:/home/hkh/git/eapidk-code-r76-trunk/apps/EeePProg/linux/../EeePDB.c ****   /*
 336:/home/hkh/git/eapidk-code-r76-trunk/apps/EeePProg/linux/../EeePDB.c ****    * Optional Create CRC Block
 337:/home/hkh/git/eapidk-code-r76-trunk/apps/EeePProg/linux/../EeePDB.c ****    */
 338:/home/hkh/git/eapidk-code-r76-trunk/apps/EeePProg/linux/../EeePDB.c ****   if(u32Flags&EEEP_INIT_INCLUDE_CRC){
 339:/home/hkh/git/eapidk-code-r76-trunk/apps/EeePProg/linux/../EeePDB.c ****     DBlockIdHdr_t   *plclEeePBlock; 
 340:/home/hkh/git/eapidk-code-r76-trunk/apps/EeePProg/linux/../EeePDB.c ****     EeePCRC16ChkBlock_t *pEeePCRCBlock;
 341:/home/hkh/git/eapidk-code-r76-trunk/apps/EeePProg/linux/../EeePDB.c ****     /*
 342:/home/hkh/git/eapidk-code-r76-trunk/apps/EeePProg/linux/../EeePDB.c ****      * Allocate CRC BLOCK
 343:/home/hkh/git/eapidk-code-r76-trunk/apps/EeePProg/linux/../EeePDB.c ****      */
 344:/home/hkh/git/eapidk-code-r76-trunk/apps/EeePProg/linux/../EeePDB.c ****     DO(ReduceBlockLength(
ARM GAS  /tmp/ccTXisr2.s 			page 36


 345:/home/hkh/git/eapidk-code-r76-trunk/apps/EeePProg/linux/../EeePDB.c ****           &pEeePEmptyBlock      ,
 346:/home/hkh/git/eapidk-code-r76-trunk/apps/EeePProg/linux/../EeePDB.c ****           sizeof(*pEeePCRCBlock),
 347:/home/hkh/git/eapidk-code-r76-trunk/apps/EeePProg/linux/../EeePDB.c ****           &plclEeePBlock,
 348:/home/hkh/git/eapidk-code-r76-trunk/apps/EeePProg/linux/../EeePDB.c ****           0
 349:/home/hkh/git/eapidk-code-r76-trunk/apps/EeePProg/linux/../EeePDB.c ****         ));
 350:/home/hkh/git/eapidk-code-r76-trunk/apps/EeePProg/linux/../EeePDB.c ****    pEeePCRCBlock=(EeePCRC16ChkBlock_t*)plclEeePBlock;
 351:/home/hkh/git/eapidk-code-r76-trunk/apps/EeePProg/linux/../EeePDB.c **** 
 352:/home/hkh/git/eapidk-code-r76-trunk/apps/EeePProg/linux/../EeePDB.c ****     /*
 353:/home/hkh/git/eapidk-code-r76-trunk/apps/EeePProg/linux/../EeePDB.c ****      * Initialise CRC Block Values
 354:/home/hkh/git/eapidk-code-r76-trunk/apps/EeePProg/linux/../EeePDB.c ****      */
 355:/home/hkh/git/eapidk-code-r76-trunk/apps/EeePProg/linux/../EeePDB.c ****     DO(SetDynBlockHeader(
 356:/home/hkh/git/eapidk-code-r76-trunk/apps/EeePProg/linux/../EeePDB.c ****           pEeePCRCBlock         ,
 357:/home/hkh/git/eapidk-code-r76-trunk/apps/EeePProg/linux/../EeePDB.c ****           EEEP_BLOCK_ID_CRC_CHK ,
 358:/home/hkh/git/eapidk-code-r76-trunk/apps/EeePProg/linux/../EeePDB.c ****           sizeof(*pEeePCRCBlock)
 359:/home/hkh/git/eapidk-code-r76-trunk/apps/EeePProg/linux/../EeePDB.c ****         ));
 360:/home/hkh/git/eapidk-code-r76-trunk/apps/EeePProg/linux/../EeePDB.c ****     EeeP_Set16BitValue_BE( pEeePCRCBlock->CrC16, 0);
 361:/home/hkh/git/eapidk-code-r76-trunk/apps/EeePProg/linux/../EeePDB.c ****   }
 362:/home/hkh/git/eapidk-code-r76-trunk/apps/EeePProg/linux/../EeePDB.c **** EAPI_APP_ASSERT_EXIT
 363:/home/hkh/git/eapidk-code-r76-trunk/apps/EeePProg/linux/../EeePDB.c ****   return StatusCode;
 364:/home/hkh/git/eapidk-code-r76-trunk/apps/EeePProg/linux/../EeePDB.c **** }
 365:/home/hkh/git/eapidk-code-r76-trunk/apps/EeePProg/linux/../EeePDB.c **** EApiStatus_t
 366:/home/hkh/git/eapidk-code-r76-trunk/apps/EeePProg/linux/../EeePDB.c **** EeePFreeBuffer(
 367:/home/hkh/git/eapidk-code-r76-trunk/apps/EeePProg/linux/../EeePDB.c ****     EeePHandel_t *pBHandel
 368:/home/hkh/git/eapidk-code-r76-trunk/apps/EeePProg/linux/../EeePDB.c ****     )
 369:/home/hkh/git/eapidk-code-r76-trunk/apps/EeePProg/linux/../EeePDB.c **** {
 1392              		.loc 1 369 1 is_stmt 1 view -0
 1393              		.cfi_startproc
 1394              		@ args = 0, pretend = 0, frame = 0
 1395              		@ frame_needed = 0, uses_anonymous_args = 0
 370:/home/hkh/git/eapidk-code-r76-trunk/apps/EeePProg/linux/../EeePDB.c ****   EApiStatus_t StatusCode=EAPI_STATUS_SUCCESS;
 1396              		.loc 1 370 3 view .LVU350
 371:/home/hkh/git/eapidk-code-r76-trunk/apps/EeePProg/linux/../EeePDB.c ****   EAPI_APP_ASSERT_PARAMATER_NULL(
 1397              		.loc 1 371 3 view .LVU351
 369:/home/hkh/git/eapidk-code-r76-trunk/apps/EeePProg/linux/../EeePDB.c ****   EApiStatus_t StatusCode=EAPI_STATUS_SUCCESS;
 1398              		.loc 1 369 1 is_stmt 0 view .LVU352
 1399 05dc 10402DE9 		push	{r4, lr}
 1400              		.cfi_def_cfa_offset 8
 1401              		.cfi_offset 4, -8
 1402              		.cfi_offset 14, -4
 1403              		.loc 1 371 3 view .LVU353
 1404 05e0 004050E2 		subs	r4, r0, #0
 369:/home/hkh/git/eapidk-code-r76-trunk/apps/EeePProg/linux/../EeePDB.c ****   EApiStatus_t StatusCode=EAPI_STATUS_SUCCESS;
 1405              		.loc 1 369 1 view .LVU354
 1406 05e4 10D04DE2 		sub	sp, sp, #16
 1407              		.cfi_def_cfa_offset 24
 1408              		.loc 1 371 3 view .LVU355
 1409 05e8 0800000A 		beq	.L102
 1410              		.loc 1 371 3 is_stmt 1 discriminator 2 view .LVU356
 372:/home/hkh/git/eapidk-code-r76-trunk/apps/EeePProg/linux/../EeePDB.c ****       EeePFreeBuffer,
 373:/home/hkh/git/eapidk-code-r76-trunk/apps/EeePProg/linux/../EeePDB.c ****       EAPI_STATUS_INVALID_PARAMETER,
 374:/home/hkh/git/eapidk-code-r76-trunk/apps/EeePProg/linux/../EeePDB.c ****       pBHandel
 375:/home/hkh/git/eapidk-code-r76-trunk/apps/EeePProg/linux/../EeePDB.c ****     );
 1411              		.loc 1 375 6 discriminator 2 view .LVU357
 376:/home/hkh/git/eapidk-code-r76-trunk/apps/EeePProg/linux/../EeePDB.c **** 
 377:/home/hkh/git/eapidk-code-r76-trunk/apps/EeePProg/linux/../EeePDB.c ****   if(*pBHandel!=NULL){
 1412              		.loc 1 377 3 discriminator 2 view .LVU358
 1413              		.loc 1 377 6 is_stmt 0 discriminator 2 view .LVU359
ARM GAS  /tmp/ccTXisr2.s 			page 37


 1414 05ec 000094E5 		ldr	r0, [r4]
 1415              	.LVL120:
 1416              		.loc 1 377 5 discriminator 2 view .LVU360
 1417 05f0 000050E3 		cmp	r0, #0
 1418 05f4 0300000A 		beq	.L97
 378:/home/hkh/git/eapidk-code-r76-trunk/apps/EeePProg/linux/../EeePDB.c **** 		free(*pBHandel);
 1419              		.loc 1 378 3 is_stmt 1 view .LVU361
 1420 05f8 FEFFFFEB 		bl	free(PLT)
 1421              	.LVL121:
 379:/home/hkh/git/eapidk-code-r76-trunk/apps/EeePProg/linux/../EeePDB.c **** 		*pBHandel=NULL;
 1422              		.loc 1 379 3 view .LVU362
 1423              		.loc 1 379 12 is_stmt 0 view .LVU363
 1424 05fc 0030A0E3 		mov	r3, #0
 370:/home/hkh/git/eapidk-code-r76-trunk/apps/EeePProg/linux/../EeePDB.c ****   EAPI_APP_ASSERT_PARAMATER_NULL(
 1425              		.loc 1 370 16 view .LVU364
 1426 0600 0300A0E1 		mov	r0, r3
 1427              		.loc 1 379 12 view .LVU365
 1428 0604 003084E5 		str	r3, [r4]
 1429              	.L99:
 1430              	.LVL122:
 1431              	.L97:
 380:/home/hkh/git/eapidk-code-r76-trunk/apps/EeePProg/linux/../EeePDB.c ****   }
 381:/home/hkh/git/eapidk-code-r76-trunk/apps/EeePProg/linux/../EeePDB.c **** EAPI_APP_ASSERT_EXIT
 382:/home/hkh/git/eapidk-code-r76-trunk/apps/EeePProg/linux/../EeePDB.c ****   return StatusCode;
 383:/home/hkh/git/eapidk-code-r76-trunk/apps/EeePProg/linux/../EeePDB.c **** }
 1432              		.loc 1 383 1 view .LVU366
 1433 0608 10D08DE2 		add	sp, sp, #16
 1434              		.cfi_remember_state
 1435              		.cfi_def_cfa_offset 8
 1436              		@ sp needed
 1437 060c 1080BDE8 		pop	{r4, pc}
 1438              	.LVL123:
 1439              	.L102:
 1440              		.cfi_restore_state
 371:/home/hkh/git/eapidk-code-r76-trunk/apps/EeePProg/linux/../EeePDB.c ****       EeePFreeBuffer,
 1441              		.loc 1 371 3 is_stmt 1 discriminator 1 view .LVU367
 371:/home/hkh/git/eapidk-code-r76-trunk/apps/EeePProg/linux/../EeePDB.c ****       EeePFreeBuffer,
 1442              		.loc 1 371 3 discriminator 1 view .LVU368
 1443 0610 38C09FE5 		ldr	ip, .L103
 1444 0614 014CE0E3 		mvn	r4, #256
 1445 0618 34009FE5 		ldr	r0, .L103+4
 1446              	.LVL124:
 371:/home/hkh/git/eapidk-code-r76-trunk/apps/EeePProg/linux/../EeePDB.c ****       EeePFreeBuffer,
 1447              		.loc 1 371 3 is_stmt 0 discriminator 1 view .LVU369
 1448 061c 733100E3 		movw	r3, #371
 1449 0620 30209FE5 		ldr	r2, .L103+8
 1450 0624 30109FE5 		ldr	r1, .L103+12
 1451              	.LPIC52:
 1452 0628 0CC08FE0 		add	ip, pc, ip
 1453              	.LPIC53:
 1454 062c 00008FE0 		add	r0, pc, r0
 1455 0630 00408DE5 		str	r4, [sp]
 1456 0634 01108DE9 		stmib	sp, {r0, ip}
 1457              	.LPIC50:
 1458 0638 02208FE0 		add	r2, pc, r2
 1459              	.LPIC51:
 1460 063c 01108FE0 		add	r1, pc, r1
ARM GAS  /tmp/ccTXisr2.s 			page 38


 1461 0640 4500A0E3 		mov	r0, #69
 1462 0644 FEFFFFEB 		bl	siFormattedMessage_SC(PLT)
 1463              	.LVL125:
 371:/home/hkh/git/eapidk-code-r76-trunk/apps/EeePProg/linux/../EeePDB.c ****       EeePFreeBuffer,
 1464              		.loc 1 371 3 is_stmt 1 discriminator 1 view .LVU370
 371:/home/hkh/git/eapidk-code-r76-trunk/apps/EeePProg/linux/../EeePDB.c ****       EeePFreeBuffer,
 1465              		.loc 1 371 3 discriminator 1 view .LVU371
 371:/home/hkh/git/eapidk-code-r76-trunk/apps/EeePProg/linux/../EeePDB.c ****       EeePFreeBuffer,
 1466              		.loc 1 371 3 discriminator 1 view .LVU372
 1467 0648 0400A0E1 		mov	r0, r4
 1468 064c EDFFFFEA 		b	.L97
 1469              	.L104:
 1470              		.align	2
 1471              	.L103:
 1472 0650 20000000 		.word	.LC16-(.LPIC52+8)
 1473 0654 20000000 		.word	.LC5-(.LPIC53+8)
 1474 0658 18000000 		.word	.LC15-(.LPIC50+8)
 1475 065c 18000000 		.word	.LC3-(.LPIC51+8)
 1476              		.cfi_endproc
 1477              	.LFE11:
 1479              		.section	.rodata.str1.4
 1480 01a9 000000   		.align	2
 1481              	.LC17:
 1482 01ac 45656550 		.ascii	"EeePGetFirstDB\000"
 1482      47657446 
 1482      69727374 
 1482      444200
 1483 01bb 00       		.align	2
 1484              	.LC18:
 1485 01bc 28704669 		.ascii	"(pFirstDB==NULL)\000"
 1485      72737444 
 1485      423D3D4E 
 1485      554C4C29 
 1485      00
 1486 01cd 000000   		.align	2
 1487              	.LC19:
 1488 01d0 335000   		.ascii	"3P\000"
 1489 01d3 00       		.align	2
 1490              	.LC20:
 1491 01d4 496E7661 		.ascii	"Invalid EeeP Buffer\000"
 1491      6C696420 
 1491      45656550 
 1491      20427566 
 1491      66657200 
 1492              		.text
 1493              		.align	2
 1494              		.global	EeePGetFirstDB
 1495              		.syntax unified
 1496              		.arm
 1497              		.fpu vfpv3
 1499              	EeePGetFirstDB:
 1500              	.LVL126:
 1501              	.LFB12:
 384:/home/hkh/git/eapidk-code-r76-trunk/apps/EeePProg/linux/../EeePDB.c **** EApiStatus_t
 385:/home/hkh/git/eapidk-code-r76-trunk/apps/EeePProg/linux/../EeePDB.c **** EeePGetFirstDB(
 386:/home/hkh/git/eapidk-code-r76-trunk/apps/EeePProg/linux/../EeePDB.c ****     EeePHandel_t     BHandel,
 387:/home/hkh/git/eapidk-code-r76-trunk/apps/EeePProg/linux/../EeePDB.c ****     DBlockIdHdr_t ** pFirstDB, 
ARM GAS  /tmp/ccTXisr2.s 			page 39


 388:/home/hkh/git/eapidk-code-r76-trunk/apps/EeePProg/linux/../EeePDB.c ****     size_t          *pstImageMaxSize
 389:/home/hkh/git/eapidk-code-r76-trunk/apps/EeePProg/linux/../EeePDB.c ****     )
 390:/home/hkh/git/eapidk-code-r76-trunk/apps/EeePProg/linux/../EeePDB.c **** {
 1502              		.loc 1 390 1 view -0
 1503              		.cfi_startproc
 1504              		@ args = 0, pretend = 0, frame = 0
 1505              		@ frame_needed = 0, uses_anonymous_args = 0
 391:/home/hkh/git/eapidk-code-r76-trunk/apps/EeePProg/linux/../EeePDB.c ****   EApiStatus_t StatusCode=EAPI_STATUS_SUCCESS;
 1506              		.loc 1 391 3 view .LVU374
 392:/home/hkh/git/eapidk-code-r76-trunk/apps/EeePProg/linux/../EeePDB.c ****   EAPI_APP_ASSERT_PARAMATER_NULL(
 1507              		.loc 1 392 3 view .LVU375
 1508 0660 003050E2 		subs	r3, r0, #0
 390:/home/hkh/git/eapidk-code-r76-trunk/apps/EeePProg/linux/../EeePDB.c ****   EApiStatus_t StatusCode=EAPI_STATUS_SUCCESS;
 1509              		.loc 1 390 1 is_stmt 0 view .LVU376
 1510 0664 10402DE9 		push	{r4, lr}
 1511              		.cfi_def_cfa_offset 8
 1512              		.cfi_offset 4, -8
 1513              		.cfi_offset 14, -4
 1514 0668 10D04DE2 		sub	sp, sp, #16
 1515              		.cfi_def_cfa_offset 24
 1516              		.loc 1 392 3 view .LVU377
 1517 066c 2C00000A 		beq	.L119
 1518              		.loc 1 392 3 is_stmt 1 discriminator 2 view .LVU378
 393:/home/hkh/git/eapidk-code-r76-trunk/apps/EeePProg/linux/../EeePDB.c ****       EeePGetFirstDB,
 394:/home/hkh/git/eapidk-code-r76-trunk/apps/EeePProg/linux/../EeePDB.c ****       EAPI_STATUS_INVALID_PARAMETER,
 395:/home/hkh/git/eapidk-code-r76-trunk/apps/EeePProg/linux/../EeePDB.c ****       BHandel
 396:/home/hkh/git/eapidk-code-r76-trunk/apps/EeePProg/linux/../EeePDB.c ****     );
 1519              		.loc 1 396 6 discriminator 2 view .LVU379
 397:/home/hkh/git/eapidk-code-r76-trunk/apps/EeePProg/linux/../EeePDB.c ****   EAPI_APP_ASSERT_PARAMATER_NULL(
 1520              		.loc 1 397 3 discriminator 2 view .LVU380
 1521 0670 000051E3 		cmp	r1, #0
 1522 0674 3500000A 		beq	.L120
 1523              		.loc 1 397 3 discriminator 2 view .LVU381
 398:/home/hkh/git/eapidk-code-r76-trunk/apps/EeePProg/linux/../EeePDB.c ****       EeePGetFirstDB,
 399:/home/hkh/git/eapidk-code-r76-trunk/apps/EeePProg/linux/../EeePDB.c ****       EAPI_STATUS_INVALID_PARAMETER,
 400:/home/hkh/git/eapidk-code-r76-trunk/apps/EeePProg/linux/../EeePDB.c ****       pFirstDB
 401:/home/hkh/git/eapidk-code-r76-trunk/apps/EeePProg/linux/../EeePDB.c ****     );
 1524              		.loc 1 401 6 discriminator 2 view .LVU382
 402:/home/hkh/git/eapidk-code-r76-trunk/apps/EeePProg/linux/../EeePDB.c ****     
 403:/home/hkh/git/eapidk-code-r76-trunk/apps/EeePProg/linux/../EeePDB.c ****   *pFirstDB=NULL;
 1525              		.loc 1 403 3 discriminator 2 view .LVU383
 1526              		.loc 1 403 12 is_stmt 0 discriminator 2 view .LVU384
 1527 0678 0000A0E3 		mov	r0, #0
 1528              	.LVL127:
 404:/home/hkh/git/eapidk-code-r76-trunk/apps/EeePProg/linux/../EeePDB.c **** 
 405:/home/hkh/git/eapidk-code-r76-trunk/apps/EeePProg/linux/../EeePDB.c ****   EAPI_APP_RETURN_ERROR_IF(
 1529              		.loc 1 405 3 discriminator 2 view .LVU385
 1530 067c 01E083E2 		add	lr, r3, #1
 403:/home/hkh/git/eapidk-code-r76-trunk/apps/EeePProg/linux/../EeePDB.c **** 
 1531              		.loc 1 403 12 discriminator 2 view .LVU386
 1532 0680 000081E5 		str	r0, [r1]
 1533              		.loc 1 405 3 is_stmt 1 discriminator 2 view .LVU387
 1534 0684 01C0D3E5 		ldrb	ip, [r3, #1]	@ zero_extendqisi2
 1535 0688 33005CE3 		cmp	ip, #51
 1536 068c 1000000A 		beq	.L121
 1537              	.L109:
 1538              		.loc 1 405 3 discriminator 2 view .LVU388
ARM GAS  /tmp/ccTXisr2.s 			page 40


 1539              		.loc 1 405 3 discriminator 2 view .LVU389
 1540 0690 E4C09FE5 		ldr	ip, .L122
 1541 0694 0F4CE0E3 		mvn	r4, #3840
 1542 0698 E0009FE5 		ldr	r0, .L122+4
 1543 069c 953100E3 		movw	r3, #405
 1544              	.LVL128:
 1545              		.loc 1 405 3 is_stmt 0 discriminator 2 view .LVU390
 1546 06a0 DC209FE5 		ldr	r2, .L122+8
 1547              	.LVL129:
 1548              		.loc 1 405 3 discriminator 2 view .LVU391
 1549 06a4 DC109FE5 		ldr	r1, .L122+12
 1550              	.LVL130:
 1551              		.loc 1 405 3 discriminator 2 view .LVU392
 1552              	.LPIC65:
 1553 06a8 0CC08FE0 		add	ip, pc, ip
 1554              	.LPIC66:
 1555 06ac 00008FE0 		add	r0, pc, r0
 1556              	.LPIC63:
 1557 06b0 02208FE0 		add	r2, pc, r2
 1558              	.LPIC64:
 1559 06b4 01108FE0 		add	r1, pc, r1
 1560              	.LVL131:
 1561              	.L118:
 1562              		.loc 1 405 3 discriminator 2 view .LVU393
 1563 06b8 01108DE9 		stmib	sp, {r0, ip}
 1564 06bc 4500A0E3 		mov	r0, #69
 1565 06c0 00408DE5 		str	r4, [sp]
 1566 06c4 FEFFFFEB 		bl	siFormattedMessage_SC(PLT)
 1567              	.LVL132:
 1568              		.loc 1 405 3 is_stmt 1 discriminator 2 view .LVU394
 1569              		.loc 1 405 3 discriminator 2 view .LVU395
 1570              		.loc 1 405 3 discriminator 2 view .LVU396
 1571 06c8 0400A0E1 		mov	r0, r4
 406:/home/hkh/git/eapidk-code-r76-trunk/apps/EeePProg/linux/../EeePDB.c ****       EeePGetFirstDB,
 407:/home/hkh/git/eapidk-code-r76-trunk/apps/EeePProg/linux/../EeePDB.c ****       memcmp(
 408:/home/hkh/git/eapidk-code-r76-trunk/apps/EeePProg/linux/../EeePDB.c ****           ((EeePCmn_t*)BHandel)->EepId, 
 409:/home/hkh/git/eapidk-code-r76-trunk/apps/EeePProg/linux/../EeePDB.c ****           EEEP_EEPROM_MARKER, 
 410:/home/hkh/git/eapidk-code-r76-trunk/apps/EeePProg/linux/../EeePDB.c ****           sizeof(EEEP_EEPROM_MARKER)-1
 411:/home/hkh/git/eapidk-code-r76-trunk/apps/EeePProg/linux/../EeePDB.c ****         ),
 412:/home/hkh/git/eapidk-code-r76-trunk/apps/EeePProg/linux/../EeePDB.c ****       EAPI_STATUS_ERROR,
 413:/home/hkh/git/eapidk-code-r76-trunk/apps/EeePProg/linux/../EeePDB.c ****       TEXT("Invalid EeeP Buffer")
 414:/home/hkh/git/eapidk-code-r76-trunk/apps/EeePProg/linux/../EeePDB.c ****     );
 415:/home/hkh/git/eapidk-code-r76-trunk/apps/EeePProg/linux/../EeePDB.c **** 
 416:/home/hkh/git/eapidk-code-r76-trunk/apps/EeePProg/linux/../EeePDB.c **** 
 417:/home/hkh/git/eapidk-code-r76-trunk/apps/EeePProg/linux/../EeePDB.c ****   /*
 418:/home/hkh/git/eapidk-code-r76-trunk/apps/EeePProg/linux/../EeePDB.c ****    * Check If Dynamic Blocks Present
 419:/home/hkh/git/eapidk-code-r76-trunk/apps/EeePProg/linux/../EeePDB.c ****    */
 420:/home/hkh/git/eapidk-code-r76-trunk/apps/EeePProg/linux/../EeePDB.c ****   if(!((EeePCmn_t*)BHandel)->BlkOffset) 
 421:/home/hkh/git/eapidk-code-r76-trunk/apps/EeePProg/linux/../EeePDB.c ****     return EAPI_STATUS_SUCCESS;
 422:/home/hkh/git/eapidk-code-r76-trunk/apps/EeePProg/linux/../EeePDB.c **** 
 423:/home/hkh/git/eapidk-code-r76-trunk/apps/EeePProg/linux/../EeePDB.c ****   *pFirstDB=EAPI_CREATE_PTR(
 424:/home/hkh/git/eapidk-code-r76-trunk/apps/EeePProg/linux/../EeePDB.c ****         BHandel         ,
 425:/home/hkh/git/eapidk-code-r76-trunk/apps/EeePProg/linux/../EeePDB.c ****         (((EeePCmn_t*)BHandel)->BlkOffset*EEEP_SIZE_UNITS),
 426:/home/hkh/git/eapidk-code-r76-trunk/apps/EeePProg/linux/../EeePDB.c ****         void *
 427:/home/hkh/git/eapidk-code-r76-trunk/apps/EeePProg/linux/../EeePDB.c ****       );
 428:/home/hkh/git/eapidk-code-r76-trunk/apps/EeePProg/linux/../EeePDB.c ****   if(pstImageMaxSize!=NULL) *pstImageMaxSize=
 429:/home/hkh/git/eapidk-code-r76-trunk/apps/EeePProg/linux/../EeePDB.c ****         (size_t)(256<<(((EeePCmn_t*)BHandel)->DeviceDesc&EEEP_DEVICE_SIZE_MASK));
ARM GAS  /tmp/ccTXisr2.s 			page 41


 430:/home/hkh/git/eapidk-code-r76-trunk/apps/EeePProg/linux/../EeePDB.c **** EAPI_APP_ASSERT_EXIT
 431:/home/hkh/git/eapidk-code-r76-trunk/apps/EeePProg/linux/../EeePDB.c ****   return StatusCode;
 432:/home/hkh/git/eapidk-code-r76-trunk/apps/EeePProg/linux/../EeePDB.c **** }
 1572              		.loc 1 432 1 is_stmt 0 discriminator 2 view .LVU397
 1573 06cc 10D08DE2 		add	sp, sp, #16
 1574              		.cfi_remember_state
 1575              		.cfi_def_cfa_offset 8
 1576              		@ sp needed
 1577 06d0 1080BDE8 		pop	{r4, pc}
 1578              	.LVL133:
 1579              	.L121:
 1580              		.cfi_restore_state
 405:/home/hkh/git/eapidk-code-r76-trunk/apps/EeePProg/linux/../EeePDB.c ****       EeePGetFirstDB,
 1581              		.loc 1 405 3 discriminator 2 view .LVU398
 1582 06d4 02C0D3E5 		ldrb	ip, [r3, #2]	@ zero_extendqisi2
 1583 06d8 50005CE3 		cmp	ip, #80
 1584 06dc EBFFFF1A 		bne	.L109
 405:/home/hkh/git/eapidk-code-r76-trunk/apps/EeePProg/linux/../EeePDB.c ****       EeePGetFirstDB,
 1585              		.loc 1 405 3 is_stmt 1 discriminator 2 view .LVU399
 414:/home/hkh/git/eapidk-code-r76-trunk/apps/EeePProg/linux/../EeePDB.c **** 
 1586              		.loc 1 414 6 discriminator 2 view .LVU400
 420:/home/hkh/git/eapidk-code-r76-trunk/apps/EeePProg/linux/../EeePDB.c ****     return EAPI_STATUS_SUCCESS;
 1587              		.loc 1 420 3 discriminator 2 view .LVU401
 420:/home/hkh/git/eapidk-code-r76-trunk/apps/EeePProg/linux/../EeePDB.c ****     return EAPI_STATUS_SUCCESS;
 1588              		.loc 1 420 28 is_stmt 0 discriminator 2 view .LVU402
 1589 06e0 04C0D3E5 		ldrb	ip, [r3, #4]	@ zero_extendqisi2
 420:/home/hkh/git/eapidk-code-r76-trunk/apps/EeePProg/linux/../EeePDB.c ****     return EAPI_STATUS_SUCCESS;
 1590              		.loc 1 420 5 discriminator 2 view .LVU403
 1591 06e4 00005CE1 		cmp	ip, r0
 1592 06e8 0A00000A 		beq	.L113
 423:/home/hkh/git/eapidk-code-r76-trunk/apps/EeePProg/linux/../EeePDB.c ****         BHandel         ,
 1593              		.loc 1 423 3 is_stmt 1 view .LVU404
 423:/home/hkh/git/eapidk-code-r76-trunk/apps/EeePProg/linux/../EeePDB.c ****         BHandel         ,
 1594              		.loc 1 423 13 is_stmt 0 view .LVU405
 1595 06ec 8CC083E0 		add	ip, r3, ip, lsl #1
 428:/home/hkh/git/eapidk-code-r76-trunk/apps/EeePProg/linux/../EeePDB.c ****         (size_t)(256<<(((EeePCmn_t*)BHandel)->DeviceDesc&EEEP_DEVICE_SIZE_MASK));
 1596              		.loc 1 428 5 view .LVU406
 1597 06f0 000052E3 		cmp	r2, #0
 423:/home/hkh/git/eapidk-code-r76-trunk/apps/EeePProg/linux/../EeePDB.c ****         BHandel         ,
 1598              		.loc 1 423 12 view .LVU407
 1599 06f4 00C081E5 		str	ip, [r1]
 428:/home/hkh/git/eapidk-code-r76-trunk/apps/EeePProg/linux/../EeePDB.c ****         (size_t)(256<<(((EeePCmn_t*)BHandel)->DeviceDesc&EEEP_DEVICE_SIZE_MASK));
 1600              		.loc 1 428 3 is_stmt 1 view .LVU408
 428:/home/hkh/git/eapidk-code-r76-trunk/apps/EeePProg/linux/../EeePDB.c ****         (size_t)(256<<(((EeePCmn_t*)BHandel)->DeviceDesc&EEEP_DEVICE_SIZE_MASK));
 1601              		.loc 1 428 5 is_stmt 0 view .LVU409
 1602 06f8 0600000A 		beq	.L113
 428:/home/hkh/git/eapidk-code-r76-trunk/apps/EeePProg/linux/../EeePDB.c ****         (size_t)(256<<(((EeePCmn_t*)BHandel)->DeviceDesc&EEEP_DEVICE_SIZE_MASK));
 1603              		.loc 1 428 29 is_stmt 1 discriminator 1 view .LVU410
 429:/home/hkh/git/eapidk-code-r76-trunk/apps/EeePProg/linux/../EeePDB.c **** EAPI_APP_ASSERT_EXIT
 1604              		.loc 1 429 57 is_stmt 0 discriminator 1 view .LVU411
 1605 06fc 0510D3E5 		ldrb	r1, [r3, #5]	@ zero_extendqisi2
 1606              	.LVL134:
 429:/home/hkh/git/eapidk-code-r76-trunk/apps/EeePProg/linux/../EeePDB.c **** EAPI_APP_ASSERT_EXIT
 1607              		.loc 1 429 21 discriminator 1 view .LVU412
 1608 0700 013CA0E3 		mov	r3, #256
 1609              	.LVL135:
 429:/home/hkh/git/eapidk-code-r76-trunk/apps/EeePProg/linux/../EeePDB.c **** EAPI_APP_ASSERT_EXIT
ARM GAS  /tmp/ccTXisr2.s 			page 42


 1610              		.loc 1 429 57 discriminator 1 view .LVU413
 1611 0704 0F1001E2 		and	r1, r1, #15
 429:/home/hkh/git/eapidk-code-r76-trunk/apps/EeePProg/linux/../EeePDB.c **** EAPI_APP_ASSERT_EXIT
 1612              		.loc 1 429 21 discriminator 1 view .LVU414
 1613 0708 1331A0E1 		lsl	r3, r3, r1
 428:/home/hkh/git/eapidk-code-r76-trunk/apps/EeePProg/linux/../EeePDB.c ****         (size_t)(256<<(((EeePCmn_t*)BHandel)->DeviceDesc&EEEP_DEVICE_SIZE_MASK));
 1614              		.loc 1 428 45 discriminator 1 view .LVU415
 1615 070c 003082E5 		str	r3, [r2]
 1616              		.loc 1 432 1 discriminator 1 view .LVU416
 1617 0710 10D08DE2 		add	sp, sp, #16
 1618              		.cfi_remember_state
 1619              		.cfi_def_cfa_offset 8
 1620              		@ sp needed
 1621 0714 1080BDE8 		pop	{r4, pc}
 1622              	.LVL136:
 1623              	.L113:
 1624              		.cfi_restore_state
 421:/home/hkh/git/eapidk-code-r76-trunk/apps/EeePProg/linux/../EeePDB.c **** 
 1625              		.loc 1 421 12 view .LVU417
 1626 0718 0000A0E3 		mov	r0, #0
 1627              		.loc 1 432 1 view .LVU418
 1628 071c 10D08DE2 		add	sp, sp, #16
 1629              		.cfi_remember_state
 1630              		.cfi_def_cfa_offset 8
 1631              		@ sp needed
 1632 0720 1080BDE8 		pop	{r4, pc}
 1633              	.LVL137:
 1634              	.L119:
 1635              		.cfi_restore_state
 392:/home/hkh/git/eapidk-code-r76-trunk/apps/EeePProg/linux/../EeePDB.c ****       EeePGetFirstDB,
 1636              		.loc 1 392 3 is_stmt 1 discriminator 1 view .LVU419
 392:/home/hkh/git/eapidk-code-r76-trunk/apps/EeePProg/linux/../EeePDB.c ****       EeePGetFirstDB,
 1637              		.loc 1 392 3 discriminator 1 view .LVU420
 1638 0724 60C09FE5 		ldr	ip, .L122+16
 1639 0728 014CE0E3 		mvn	r4, #256
 1640 072c 5C009FE5 		ldr	r0, .L122+20
 1641              	.LVL138:
 392:/home/hkh/git/eapidk-code-r76-trunk/apps/EeePProg/linux/../EeePDB.c ****       EeePGetFirstDB,
 1642              		.loc 1 392 3 is_stmt 0 discriminator 1 view .LVU421
 1643 0730 623FA0E3 		mov	r3, #392
 1644              	.LVL139:
 392:/home/hkh/git/eapidk-code-r76-trunk/apps/EeePProg/linux/../EeePDB.c ****       EeePGetFirstDB,
 1645              		.loc 1 392 3 discriminator 1 view .LVU422
 1646 0734 58209FE5 		ldr	r2, .L122+24
 1647              	.LVL140:
 392:/home/hkh/git/eapidk-code-r76-trunk/apps/EeePProg/linux/../EeePDB.c ****       EeePGetFirstDB,
 1648              		.loc 1 392 3 discriminator 1 view .LVU423
 1649 0738 58109FE5 		ldr	r1, .L122+28
 1650              	.LVL141:
 392:/home/hkh/git/eapidk-code-r76-trunk/apps/EeePProg/linux/../EeePDB.c ****       EeePGetFirstDB,
 1651              		.loc 1 392 3 discriminator 1 view .LVU424
 1652              	.LPIC56:
 1653 073c 0CC08FE0 		add	ip, pc, ip
 1654              	.LPIC57:
 1655 0740 00008FE0 		add	r0, pc, r0
 1656              	.LPIC54:
 1657 0744 02208FE0 		add	r2, pc, r2
ARM GAS  /tmp/ccTXisr2.s 			page 43


 1658              	.LPIC55:
 1659 0748 01108FE0 		add	r1, pc, r1
 1660 074c D9FFFFEA 		b	.L118
 1661              	.LVL142:
 1662              	.L120:
 397:/home/hkh/git/eapidk-code-r76-trunk/apps/EeePProg/linux/../EeePDB.c ****       EeePGetFirstDB,
 1663              		.loc 1 397 3 is_stmt 1 discriminator 1 view .LVU425
 397:/home/hkh/git/eapidk-code-r76-trunk/apps/EeePProg/linux/../EeePDB.c ****       EeePGetFirstDB,
 1664              		.loc 1 397 3 discriminator 1 view .LVU426
 1665 0750 44C09FE5 		ldr	ip, .L122+32
 1666 0754 014CE0E3 		mvn	r4, #256
 1667 0758 40009FE5 		ldr	r0, .L122+36
 1668              	.LVL143:
 397:/home/hkh/git/eapidk-code-r76-trunk/apps/EeePProg/linux/../EeePDB.c ****       EeePGetFirstDB,
 1669              		.loc 1 397 3 is_stmt 0 discriminator 1 view .LVU427
 1670 075c 8D3100E3 		movw	r3, #397
 1671              	.LVL144:
 397:/home/hkh/git/eapidk-code-r76-trunk/apps/EeePProg/linux/../EeePDB.c ****       EeePGetFirstDB,
 1672              		.loc 1 397 3 discriminator 1 view .LVU428
 1673 0760 3C209FE5 		ldr	r2, .L122+40
 1674              	.LVL145:
 397:/home/hkh/git/eapidk-code-r76-trunk/apps/EeePProg/linux/../EeePDB.c ****       EeePGetFirstDB,
 1675              		.loc 1 397 3 discriminator 1 view .LVU429
 1676 0764 3C109FE5 		ldr	r1, .L122+44
 1677              	.LVL146:
 397:/home/hkh/git/eapidk-code-r76-trunk/apps/EeePProg/linux/../EeePDB.c ****       EeePGetFirstDB,
 1678              		.loc 1 397 3 discriminator 1 view .LVU430
 1679              	.LPIC60:
 1680 0768 0CC08FE0 		add	ip, pc, ip
 1681              	.LPIC61:
 1682 076c 00008FE0 		add	r0, pc, r0
 1683              	.LPIC58:
 1684 0770 02208FE0 		add	r2, pc, r2
 1685              	.LPIC59:
 1686 0774 01108FE0 		add	r1, pc, r1
 1687 0778 CEFFFFEA 		b	.L118
 1688              	.L123:
 1689              		.align	2
 1690              	.L122:
 1691 077c CC000000 		.word	.LC20-(.LPIC65+8)
 1692 0780 CC000000 		.word	.LC5-(.LPIC66+8)
 1693 0784 CC000000 		.word	.LC17-(.LPIC63+8)
 1694 0788 CC000000 		.word	.LC3-(.LPIC64+8)
 1695 078c 48000000 		.word	.LC4-(.LPIC56+8)
 1696 0790 48000000 		.word	.LC5-(.LPIC57+8)
 1697 0794 48000000 		.word	.LC17-(.LPIC54+8)
 1698 0798 48000000 		.word	.LC3-(.LPIC55+8)
 1699 079c 2C000000 		.word	.LC18-(.LPIC60+8)
 1700 07a0 2C000000 		.word	.LC5-(.LPIC61+8)
 1701 07a4 2C000000 		.word	.LC17-(.LPIC58+8)
 1702 07a8 2C000000 		.word	.LC3-(.LPIC59+8)
 1703              		.cfi_endproc
 1704              	.LFE12:
 1706              		.section	.rodata.str1.4
 1707              		.align	2
 1708              	.LC21:
 1709 01e8 45656550 		.ascii	"EeePCreateNewBuffer\000"
ARM GAS  /tmp/ccTXisr2.s 			page 44


 1709      43726561 
 1709      74654E65 
 1709      77427566 
 1709      66657200 
 1710              		.align	2
 1711              	.LC22:
 1712 01fc 28737442 		.ascii	"(stBufferSize<256)\000"
 1712      75666665 
 1712      7253697A 
 1712      653C3235 
 1712      362900
 1713 020f 00       		.align	2
 1714              	.LC23:
 1715 0210 28737448 		.ascii	"(stHeaderSize<sizeof(*pEeePCmnHdr))\000"
 1715      65616465 
 1715      7253697A 
 1715      653C7369 
 1715      7A656F66 
 1716              		.align	2
 1717              	.LC24:
 1718 0234 282A7042 		.ascii	"(*pBHandel==NULL)\000"
 1718      48616E64 
 1718      656C3D3D 
 1718      4E554C4C 
 1718      2900
 1719 0246 0000     		.align	2
 1720              	.LC25:
 1721 0248 54422000 		.ascii	"TB \000"
 1722              		.align	2
 1723              	.LC26:
 1724 024c 45656550 		.ascii	"EeePGetFirstDB(*pBHandel, &pEeePEmptyBlock, NULL)\000"
 1724      47657446 
 1724      69727374 
 1724      4442282A 
 1724      70424861 
 1725 027e 0000     		.align	2
 1726              	.LC27:
 1727 0280 53657444 		.ascii	"SetDynBlockHeader( pEeePEmptyBlock, EEEP_BLOCK_ID_U"
 1727      796E426C 
 1727      6F636B48 
 1727      65616465 
 1727      72282070 
 1728 02b3 4E555345 		.ascii	"NUSED, stBufferSize - (pEeePCmnHdr->BlkOffset*EEEP_"
 1728      442C2073 
 1728      74427566 
 1728      66657253 
 1728      697A6520 
 1729 02e6 53495A45 		.ascii	"SIZE_UNITS) )\000"
 1729      5F554E49 
 1729      54532920 
 1729      2900
 1730              		.align	2
 1731              	.LC28:
 1732 02f4 52656475 		.ascii	"ReduceBlockLength( &pEeePEmptyBlock , sizeof(*pEeeP"
 1732      6365426C 
 1732      6F636B4C 
 1732      656E6774 
ARM GAS  /tmp/ccTXisr2.s 			page 45


 1732      68282026 
 1733 0327 54426C6F 		.ascii	"TBlock) , &pEeePTBlock , EEEP_RBL_REDUCE_TOP_DOWN )"
 1733      636B2920 
 1733      2C202670 
 1733      45656550 
 1733      54426C6F 
 1734 035a 00       		.ascii	"\000"
 1735 035b 00       		.align	2
 1736              	.LC29:
 1737 035c 53657444 		.ascii	"SetDynBlockHeader( pEeePTBlock, EEEP_BLOCK_ID_UNUSE"
 1737      796E426C 
 1737      6F636B48 
 1737      65616465 
 1737      72282070 
 1738 038f 442C2045 		.ascii	"D, EEEP_OFFSET_VALUE_EOL )\000"
 1738      4545505F 
 1738      4F464653 
 1738      45545F56 
 1738      414C5545 
 1739 03aa 0000     		.align	2
 1740              	.LC30:
 1741 03ac 52656475 		.ascii	"ReduceBlockLength( &pEeePEmptyBlock , sizeof(*pEeeP"
 1741      6365426C 
 1741      6F636B4C 
 1741      656E6774 
 1741      68282026 
 1742 03df 43524342 		.ascii	"CRCBlock), &plclEeePBlock, 0 )\000"
 1742      6C6F636B 
 1742      292C2026 
 1742      706C636C 
 1742      45656550 
 1743 03fe 0000     		.align	2
 1744              	.LC31:
 1745 0400 53657444 		.ascii	"SetDynBlockHeader( pEeePCRCBlock , EEEP_BLOCK_ID_CR"
 1745      796E426C 
 1745      6F636B48 
 1745      65616465 
 1745      72282070 
 1746 0433 435F4348 		.ascii	"C_CHK , sizeof(*pEeePCRCBlock) )\000"
 1746      4B202C20 
 1746      73697A65 
 1746      6F66282A 
 1746      70456565 
 1747              		.text
 1748              		.align	2
 1749              		.global	EeePCreateNewBuffer
 1750              		.syntax unified
 1751              		.arm
 1752              		.fpu vfpv3
 1754              	EeePCreateNewBuffer:
 1755              	.LVL147:
 1756              	.LFB10:
 270:/home/hkh/git/eapidk-code-r76-trunk/apps/EeePProg/linux/../EeePDB.c ****   EeePCmn_t     *pEeePCmnHdr; 
 1757              		.loc 1 270 1 is_stmt 1 view -0
 1758              		.cfi_startproc
 1759              		@ args = 0, pretend = 0, frame = 16
 1760              		@ frame_needed = 0, uses_anonymous_args = 0
ARM GAS  /tmp/ccTXisr2.s 			page 46


 270:/home/hkh/git/eapidk-code-r76-trunk/apps/EeePProg/linux/../EeePDB.c ****   EeePCmn_t     *pEeePCmnHdr; 
 1761              		.loc 1 270 1 is_stmt 0 view .LVU432
 1762 07ac F0432DE9 		push	{r4, r5, r6, r7, r8, r9, lr}
 1763              		.cfi_def_cfa_offset 28
 1764              		.cfi_offset 4, -28
 1765              		.cfi_offset 5, -24
 1766              		.cfi_offset 6, -20
 1767              		.cfi_offset 7, -16
 1768              		.cfi_offset 8, -12
 1769              		.cfi_offset 9, -8
 1770              		.cfi_offset 14, -4
 1771 07b0 0240A0E1 		mov	r4, r2
 1772 07b4 B4239FE5 		ldr	r2, .L157
 1773              	.LVL148:
 270:/home/hkh/git/eapidk-code-r76-trunk/apps/EeePProg/linux/../EeePDB.c ****   EeePCmn_t     *pEeePCmnHdr; 
 1774              		.loc 1 270 1 view .LVU433
 1775 07b8 0370A0E1 		mov	r7, r3
 276:/home/hkh/git/eapidk-code-r76-trunk/apps/EeePProg/linux/../EeePDB.c ****       EeePCreateNewBuffer, 
 1776              		.loc 1 276 3 view .LVU434
 1777 07bc FF0051E3 		cmp	r1, #255
 270:/home/hkh/git/eapidk-code-r76-trunk/apps/EeePProg/linux/../EeePDB.c ****   EeePCmn_t     *pEeePCmnHdr; 
 1778              		.loc 1 270 1 view .LVU435
 1779 07c0 24D04DE2 		sub	sp, sp, #36
 1780              		.cfi_def_cfa_offset 64
 270:/home/hkh/git/eapidk-code-r76-trunk/apps/EeePProg/linux/../EeePDB.c ****   EeePCmn_t     *pEeePCmnHdr; 
 1781              		.loc 1 270 1 view .LVU436
 1782 07c4 A8339FE5 		ldr	r3, .L157+4
 1783              	.LVL149:
 270:/home/hkh/git/eapidk-code-r76-trunk/apps/EeePProg/linux/../EeePDB.c ****   EeePCmn_t     *pEeePCmnHdr; 
 1784              		.loc 1 270 1 view .LVU437
 1785              	.LPIC117:
 1786 07c8 02208FE0 		add	r2, pc, r2
 1787 07cc 033092E7 		ldr	r3, [r2, r3]
 1788 07d0 003093E5 		ldr	r3, [r3]
 1789 07d4 1C308DE5 		str	r3, [sp, #28]
 1790 07d8 0030A0E3 		mov	r3, #0
 271:/home/hkh/git/eapidk-code-r76-trunk/apps/EeePProg/linux/../EeePDB.c ****   DBlockIdHdr_t *pEeePEmptyBlock; 
 1791              		.loc 1 271 3 is_stmt 1 view .LVU438
 272:/home/hkh/git/eapidk-code-r76-trunk/apps/EeePProg/linux/../EeePDB.c ****   EApiStatus_t StatusCode=EAPI_STATUS_SUCCESS;
 1792              		.loc 1 272 3 view .LVU439
 273:/home/hkh/git/eapidk-code-r76-trunk/apps/EeePProg/linux/../EeePDB.c ****   DBlockIdHdr_t *pEeePTBlock; 
 1793              		.loc 1 273 3 view .LVU440
 1794              	.LVL150:
 274:/home/hkh/git/eapidk-code-r76-trunk/apps/EeePProg/linux/../EeePDB.c ****   
 1795              		.loc 1 274 3 view .LVU441
 276:/home/hkh/git/eapidk-code-r76-trunk/apps/EeePProg/linux/../EeePDB.c ****       EeePCreateNewBuffer, 
 1796              		.loc 1 276 3 view .LVU442
 1797 07dc 8800009A 		bls	.L146
 276:/home/hkh/git/eapidk-code-r76-trunk/apps/EeePProg/linux/../EeePDB.c ****       EeePCreateNewBuffer, 
 1798              		.loc 1 276 3 discriminator 2 view .LVU443
 280:/home/hkh/git/eapidk-code-r76-trunk/apps/EeePProg/linux/../EeePDB.c ****   EAPI_APP_ASSERT_PARAMATER_CHECK_S(
 1799              		.loc 1 280 6 discriminator 2 view .LVU444
 281:/home/hkh/git/eapidk-code-r76-trunk/apps/EeePProg/linux/../EeePDB.c ****       EeePCreateNewBuffer, 
 1800              		.loc 1 281 3 discriminator 2 view .LVU445
 1801 07e0 050054E3 		cmp	r4, #5
 1802 07e4 6D00009A 		bls	.L147
 1803 07e8 0160A0E1 		mov	r6, r1
ARM GAS  /tmp/ccTXisr2.s 			page 47


 1804 07ec 0080A0E1 		mov	r8, r0
 281:/home/hkh/git/eapidk-code-r76-trunk/apps/EeePProg/linux/../EeePDB.c ****       EeePCreateNewBuffer, 
 1805              		.loc 1 281 3 discriminator 2 view .LVU446
 285:/home/hkh/git/eapidk-code-r76-trunk/apps/EeePProg/linux/../EeePDB.c **** 
 1806              		.loc 1 285 6 discriminator 2 view .LVU447
 287:/home/hkh/git/eapidk-code-r76-trunk/apps/EeePProg/linux/../EeePDB.c **** 
 1807              		.loc 1 287 3 discriminator 2 view .LVU448
 287:/home/hkh/git/eapidk-code-r76-trunk/apps/EeePProg/linux/../EeePDB.c **** 
 1808              		.loc 1 287 25 is_stmt 0 discriminator 2 view .LVU449
 1809 07f0 0110A0E3 		mov	r1, #1
 1810              	.LVL151:
 287:/home/hkh/git/eapidk-code-r76-trunk/apps/EeePProg/linux/../EeePDB.c **** 
 1811              		.loc 1 287 25 discriminator 2 view .LVU450
 1812 07f4 0600A0E1 		mov	r0, r6
 1813              	.LVL152:
 287:/home/hkh/git/eapidk-code-r76-trunk/apps/EeePProg/linux/../EeePDB.c **** 
 1814              		.loc 1 287 25 discriminator 2 view .LVU451
 1815 07f8 FEFFFFEB 		bl	calloc(PLT)
 1816              	.LVL153:
 289:/home/hkh/git/eapidk-code-r76-trunk/apps/EeePProg/linux/../EeePDB.c ****       EeePCreateNewBuffer,
 1817              		.loc 1 289 3 discriminator 2 view .LVU452
 1818 07fc 000050E3 		cmp	r0, #0
 287:/home/hkh/git/eapidk-code-r76-trunk/apps/EeePProg/linux/../EeePDB.c **** 
 1819              		.loc 1 287 25 discriminator 2 view .LVU453
 1820 0800 0050A0E1 		mov	r5, r0
 287:/home/hkh/git/eapidk-code-r76-trunk/apps/EeePProg/linux/../EeePDB.c **** 
 1821              		.loc 1 287 24 discriminator 2 view .LVU454
 1822 0804 000088E5 		str	r0, [r8]
 1823              	.LVL154:
 289:/home/hkh/git/eapidk-code-r76-trunk/apps/EeePProg/linux/../EeePDB.c ****       EeePCreateNewBuffer,
 1824              		.loc 1 289 3 is_stmt 1 discriminator 2 view .LVU455
 1825 0808 CD00000A 		beq	.L148
 289:/home/hkh/git/eapidk-code-r76-trunk/apps/EeePProg/linux/../EeePDB.c ****       EeePCreateNewBuffer,
 1826              		.loc 1 289 3 discriminator 2 view .LVU456
 293:/home/hkh/git/eapidk-code-r76-trunk/apps/EeePProg/linux/../EeePDB.c ****   memset(pEeePCmnHdr, 0x00, stBufferSize);
 1827              		.loc 1 293 6 discriminator 2 view .LVU457
 294:/home/hkh/git/eapidk-code-r76-trunk/apps/EeePProg/linux/../EeePDB.c ****   /*
 1828              		.loc 1 294 3 discriminator 2 view .LVU458
 298:/home/hkh/git/eapidk-code-r76-trunk/apps/EeePProg/linux/../EeePDB.c ****   memcpy(
 1829              		.loc 1 298 3 discriminator 2 view .LVU459
 299:/home/hkh/git/eapidk-code-r76-trunk/apps/EeePProg/linux/../EeePDB.c ****       pEeePCmnHdr->EepId        ,
 1830              		.loc 1 299 3 is_stmt 0 discriminator 2 view .LVU460
 1831 080c 64339FE5 		ldr	r3, .L157+8
 1832              	.LBB173:
 1833              	.LBB174:
  97:/home/hkh/git/eapidk-code-r76-trunk/apps/EeePProg/linux/../EeePDB.c **** }
 1834              		.loc 1 97 10 discriminator 2 view .LVU461
 1835 0810 014084E2 		add	r4, r4, #1
 1836              	.LVL155:
  97:/home/hkh/git/eapidk-code-r76-trunk/apps/EeePProg/linux/../EeePDB.c **** }
 1837              		.loc 1 97 10 discriminator 2 view .LVU462
 1838 0814 A440A0E1 		lsr	r4, r4, #1
 1839              	.LVL156:
  97:/home/hkh/git/eapidk-code-r76-trunk/apps/EeePProg/linux/../EeePDB.c **** }
 1840              		.loc 1 97 10 discriminator 2 view .LVU463
 1841              	.LBE174:
 1842              	.LBE173:
ARM GAS  /tmp/ccTXisr2.s 			page 48


 298:/home/hkh/git/eapidk-code-r76-trunk/apps/EeePProg/linux/../EeePDB.c ****   memcpy(
 1843              		.loc 1 298 28 discriminator 2 view .LVU464
 1844 0818 0080A0E3 		mov	r8, #0
 1845              	.LVL157:
 310:/home/hkh/git/eapidk-code-r76-trunk/apps/EeePProg/linux/../EeePDB.c **** 
 1846              		.loc 1 310 3 discriminator 2 view .LVU465
 1847 081c 10908DE2 		add	r9, sp, #16
 298:/home/hkh/git/eapidk-code-r76-trunk/apps/EeePProg/linux/../EeePDB.c ****   memcpy(
 1848              		.loc 1 298 28 discriminator 2 view .LVU466
 1849 0820 0080C0E5 		strb	r8, [r0]
 299:/home/hkh/git/eapidk-code-r76-trunk/apps/EeePProg/linux/../EeePDB.c ****       pEeePCmnHdr->EepId        ,
 1850              		.loc 1 299 3 is_stmt 1 discriminator 2 view .LVU467
 304:/home/hkh/git/eapidk-code-r76-trunk/apps/EeePProg/linux/../EeePDB.c ****   pEeePCmnHdr->BlkOffset=(uint8_t)EeePAdjLength(stHeaderSize);
 1851              		.loc 1 304 3 discriminator 2 view .LVU468
 299:/home/hkh/git/eapidk-code-r76-trunk/apps/EeePProg/linux/../EeePDB.c ****       pEeePCmnHdr->EepId        ,
 1852              		.loc 1 299 3 is_stmt 0 discriminator 2 view .LVU469
 1853              	.LPIC79:
 1854 0824 03308FE0 		add	r3, pc, r3
 305:/home/hkh/git/eapidk-code-r76-trunk/apps/EeePProg/linux/../EeePDB.c ****   pEeePCmnHdr->DeviceDesc=0;
 1855              		.loc 1 305 26 discriminator 2 view .LVU470
 1856 0828 0440C0E5 		strb	r4, [r0, #4]
 299:/home/hkh/git/eapidk-code-r76-trunk/apps/EeePProg/linux/../EeePDB.c ****       pEeePCmnHdr->EepId        ,
 1857              		.loc 1 299 3 discriminator 2 view .LVU471
 1858 082c B030D3E1 		ldrh	r3, [r3]	@ unaligned
 310:/home/hkh/git/eapidk-code-r76-trunk/apps/EeePProg/linux/../EeePDB.c **** 
 1859              		.loc 1 310 3 discriminator 2 view .LVU472
 1860 0830 0820A0E1 		mov	r2, r8
 1861 0834 0910A0E1 		mov	r1, r9
 306:/home/hkh/git/eapidk-code-r76-trunk/apps/EeePProg/linux/../EeePDB.c ****   /*
 1862              		.loc 1 306 26 discriminator 2 view .LVU473
 1863 0838 0580C0E5 		strb	r8, [r0, #5]
 299:/home/hkh/git/eapidk-code-r76-trunk/apps/EeePProg/linux/../EeePDB.c ****       pEeePCmnHdr->EepId        ,
 1864              		.loc 1 299 3 discriminator 2 view .LVU474
 1865 083c B130C0E1 		strh	r3, [r0, #1]	@ unaligned
 304:/home/hkh/git/eapidk-code-r76-trunk/apps/EeePProg/linux/../EeePDB.c ****   pEeePCmnHdr->BlkOffset=(uint8_t)EeePAdjLength(stHeaderSize);
 1866              		.loc 1 304 23 discriminator 2 view .LVU475
 1867 0840 0530A0E3 		mov	r3, #5
 1868 0844 0330C0E5 		strb	r3, [r0, #3]
 305:/home/hkh/git/eapidk-code-r76-trunk/apps/EeePProg/linux/../EeePDB.c ****   pEeePCmnHdr->DeviceDesc=0;
 1869              		.loc 1 305 3 is_stmt 1 discriminator 2 view .LVU476
 1870              	.LVL158:
 1871              	.LBB176:
 1872              	.LBI173:
  93:/home/hkh/git/eapidk-code-r76-trunk/apps/EeePProg/linux/../EeePDB.c ****     size_t Length
 1873              		.loc 1 93 1 discriminator 2 view .LVU477
 1874              	.LBB175:
  97:/home/hkh/git/eapidk-code-r76-trunk/apps/EeePProg/linux/../EeePDB.c **** }
 1875              		.loc 1 97 3 discriminator 2 view .LVU478
  97:/home/hkh/git/eapidk-code-r76-trunk/apps/EeePProg/linux/../EeePDB.c **** }
 1876              		.loc 1 97 3 is_stmt 0 discriminator 2 view .LVU479
 1877              	.LBE175:
 1878              	.LBE176:
 306:/home/hkh/git/eapidk-code-r76-trunk/apps/EeePProg/linux/../EeePDB.c ****   /*
 1879              		.loc 1 306 3 is_stmt 1 discriminator 2 view .LVU480
 310:/home/hkh/git/eapidk-code-r76-trunk/apps/EeePProg/linux/../EeePDB.c **** 
 1880              		.loc 1 310 3 discriminator 2 view .LVU481
 310:/home/hkh/git/eapidk-code-r76-trunk/apps/EeePProg/linux/../EeePDB.c **** 
ARM GAS  /tmp/ccTXisr2.s 			page 49


 1881              		.loc 1 310 3 discriminator 2 view .LVU482
 1882 0848 FEFFFFEB 		bl	EeePGetFirstDB(PLT)
 1883              	.LVL159:
 310:/home/hkh/git/eapidk-code-r76-trunk/apps/EeePProg/linux/../EeePDB.c **** 
 1884              		.loc 1 310 3 discriminator 2 view .LVU483
 1885 084c 004050E2 		subs	r4, r0, #0
 1886 0850 6100001A 		bne	.L149
 310:/home/hkh/git/eapidk-code-r76-trunk/apps/EeePProg/linux/../EeePDB.c **** 
 1887              		.loc 1 310 3 discriminator 2 view .LVU484
 312:/home/hkh/git/eapidk-code-r76-trunk/apps/EeePProg/linux/../EeePDB.c ****         pEeePEmptyBlock, 
 1888              		.loc 1 312 3 discriminator 2 view .LVU485
 312:/home/hkh/git/eapidk-code-r76-trunk/apps/EeePProg/linux/../EeePDB.c ****         pEeePEmptyBlock, 
 1889              		.loc 1 312 3 discriminator 2 view .LVU486
 1890 0854 10009DE5 		ldr	r0, [sp, #16]
 1891              	.LVL160:
 312:/home/hkh/git/eapidk-code-r76-trunk/apps/EeePProg/linux/../EeePDB.c ****         pEeePEmptyBlock, 
 1892              		.loc 1 312 3 is_stmt 0 discriminator 2 view .LVU487
 1893 0858 0430D5E5 		ldrb	r3, [r5, #4]	@ zero_extendqisi2
 1894              	.LVL161:
 1895              	.LBB177:
 1896              	.LBI177:
 185:/home/hkh/git/eapidk-code-r76-trunk/apps/EeePProg/linux/../EeePDB.c ****     void          *pCurBlock,
 1897              		.loc 1 185 1 is_stmt 1 discriminator 2 view .LVU488
 1898              	.LBB178:
 191:/home/hkh/git/eapidk-code-r76-trunk/apps/EeePProg/linux/../EeePDB.c ****   EAPI_APP_ASSERT_PARAMATER_NULL(
 1899              		.loc 1 191 3 discriminator 2 view .LVU489
 192:/home/hkh/git/eapidk-code-r76-trunk/apps/EeePProg/linux/../EeePDB.c ****       SetDynBlockInfo,
 1900              		.loc 1 192 3 discriminator 2 view .LVU490
 1901 085c 000050E3 		cmp	r0, #0
 1902              	.LBE178:
 1903              	.LBE177:
 312:/home/hkh/git/eapidk-code-r76-trunk/apps/EeePProg/linux/../EeePDB.c ****         pEeePEmptyBlock, 
 1904              		.loc 1 312 3 is_stmt 0 discriminator 2 view .LVU491
 1905 0860 831046E0 		sub	r1, r6, r3, lsl #1
 1906              	.LVL162:
 1907              	.LBB183:
 1908              	.LBB181:
 192:/home/hkh/git/eapidk-code-r76-trunk/apps/EeePProg/linux/../EeePDB.c ****       SetDynBlockInfo,
 1909              		.loc 1 192 3 discriminator 2 view .LVU492
 1910 0864 3100000A 		beq	.L150
 192:/home/hkh/git/eapidk-code-r76-trunk/apps/EeePProg/linux/../EeePDB.c ****       SetDynBlockInfo,
 1911              		.loc 1 192 3 is_stmt 1 view .LVU493
 196:/home/hkh/git/eapidk-code-r76-trunk/apps/EeePProg/linux/../EeePDB.c ****   ((DBlockIdHdr_t *)pCurBlock)->DBlockId=u8BlockId;
 1912              		.loc 1 196 6 view .LVU494
 197:/home/hkh/git/eapidk-code-r76-trunk/apps/EeePProg/linux/../EeePDB.c ****   StatusCode=SetBlockLength(pCurBlock, stBlockLength);
 1913              		.loc 1 197 3 view .LVU495
 197:/home/hkh/git/eapidk-code-r76-trunk/apps/EeePProg/linux/../EeePDB.c ****   StatusCode=SetBlockLength(pCurBlock, stBlockLength);
 1914              		.loc 1 197 41 is_stmt 0 view .LVU496
 1915 0868 0040C0E5 		strb	r4, [r0]
 198:/home/hkh/git/eapidk-code-r76-trunk/apps/EeePProg/linux/../EeePDB.c **** EAPI_APP_ASSERT_EXIT
 1916              		.loc 1 198 3 is_stmt 1 view .LVU497
 198:/home/hkh/git/eapidk-code-r76-trunk/apps/EeePProg/linux/../EeePDB.c **** EAPI_APP_ASSERT_EXIT
 1917              		.loc 1 198 14 is_stmt 0 view .LVU498
 1918 086c FEFFFFEB 		bl	SetBlockLength(PLT)
 1919              	.LVL163:
 1920              	.LDL5:
 200:/home/hkh/git/eapidk-code-r76-trunk/apps/EeePProg/linux/../EeePDB.c ****   }
ARM GAS  /tmp/ccTXisr2.s 			page 50


 1921              		.loc 1 200 3 is_stmt 1 view .LVU499
 201:/home/hkh/git/eapidk-code-r76-trunk/apps/EeePProg/linux/../EeePDB.c ****   return StatusCode;
 1922              		.loc 1 201 3 view .LVU500
 202:/home/hkh/git/eapidk-code-r76-trunk/apps/EeePProg/linux/../EeePDB.c **** }
 1923              		.loc 1 202 3 view .LVU501
 202:/home/hkh/git/eapidk-code-r76-trunk/apps/EeePProg/linux/../EeePDB.c **** }
 1924              		.loc 1 202 3 is_stmt 0 view .LVU502
 1925              	.LBE181:
 1926              	.LBE183:
 312:/home/hkh/git/eapidk-code-r76-trunk/apps/EeePProg/linux/../EeePDB.c ****         pEeePEmptyBlock, 
 1927              		.loc 1 312 3 is_stmt 1 view .LVU503
 1928 0870 004050E2 		subs	r4, r0, #0
 1929 0874 3B00001A 		bne	.L131
 312:/home/hkh/git/eapidk-code-r76-trunk/apps/EeePProg/linux/../EeePDB.c ****         pEeePEmptyBlock, 
 1930              		.loc 1 312 3 discriminator 2 view .LVU504
 320:/home/hkh/git/eapidk-code-r76-trunk/apps/EeePProg/linux/../EeePDB.c ****         &pEeePEmptyBlock        ,
 1931              		.loc 1 320 3 discriminator 2 view .LVU505
 320:/home/hkh/git/eapidk-code-r76-trunk/apps/EeePProg/linux/../EeePDB.c ****         &pEeePEmptyBlock        ,
 1932              		.loc 1 320 3 discriminator 2 view .LVU506
 1933 0878 0130A0E3 		mov	r3, #1
 1934 087c 14208DE2 		add	r2, sp, #20
 1935 0880 0310A0E3 		mov	r1, #3
 1936 0884 0900A0E1 		mov	r0, r9
 1937 0888 FEFFFFEB 		bl	ReduceBlockLength(PLT)
 1938              	.LVL164:
 320:/home/hkh/git/eapidk-code-r76-trunk/apps/EeePProg/linux/../EeePDB.c ****         &pEeePEmptyBlock        ,
 1939              		.loc 1 320 3 discriminator 2 view .LVU507
 1940 088c 004050E2 		subs	r4, r0, #0
 1941 0890 6600001A 		bne	.L151
 320:/home/hkh/git/eapidk-code-r76-trunk/apps/EeePProg/linux/../EeePDB.c ****         &pEeePEmptyBlock        ,
 1942              		.loc 1 320 3 discriminator 2 view .LVU508
 330:/home/hkh/git/eapidk-code-r76-trunk/apps/EeePProg/linux/../EeePDB.c ****         pEeePTBlock, 
 1943              		.loc 1 330 3 discriminator 2 view .LVU509
 330:/home/hkh/git/eapidk-code-r76-trunk/apps/EeePProg/linux/../EeePDB.c ****         pEeePTBlock, 
 1944              		.loc 1 330 3 discriminator 2 view .LVU510
 1945 0894 14009DE5 		ldr	r0, [sp, #20]
 1946              	.LVL165:
 1947              	.LBB184:
 1948              	.LBI184:
 185:/home/hkh/git/eapidk-code-r76-trunk/apps/EeePProg/linux/../EeePDB.c ****     void          *pCurBlock,
 1949              		.loc 1 185 1 discriminator 2 view .LVU511
 1950              	.LBB185:
 191:/home/hkh/git/eapidk-code-r76-trunk/apps/EeePProg/linux/../EeePDB.c ****   EAPI_APP_ASSERT_PARAMATER_NULL(
 1951              		.loc 1 191 3 discriminator 2 view .LVU512
 192:/home/hkh/git/eapidk-code-r76-trunk/apps/EeePProg/linux/../EeePDB.c ****       SetDynBlockInfo,
 1952              		.loc 1 192 3 discriminator 2 view .LVU513
 1953 0898 000050E3 		cmp	r0, #0
 1954 089c 6D00000A 		beq	.L152
 192:/home/hkh/git/eapidk-code-r76-trunk/apps/EeePProg/linux/../EeePDB.c ****       SetDynBlockInfo,
 1955              		.loc 1 192 3 view .LVU514
 196:/home/hkh/git/eapidk-code-r76-trunk/apps/EeePProg/linux/../EeePDB.c ****   ((DBlockIdHdr_t *)pCurBlock)->DBlockId=u8BlockId;
 1956              		.loc 1 196 6 view .LVU515
 197:/home/hkh/git/eapidk-code-r76-trunk/apps/EeePProg/linux/../EeePDB.c ****   StatusCode=SetBlockLength(pCurBlock, stBlockLength);
 1957              		.loc 1 197 3 view .LVU516
 1958              	.LBB186:
 1959              	.LBB187:
 134:/home/hkh/git/eapidk-code-r76-trunk/apps/EeePProg/linux/../EeePDB.c ****         ((DBlockIdHdr_t*)BHandel)->DBlockLength, 
ARM GAS  /tmp/ccTXisr2.s 			page 51


 1960              		.loc 1 134 3 is_stmt 0 view .LVU517
 1961 08a0 0410A0E1 		mov	r1, r4
 1962              	.LBE187:
 1963              	.LBE186:
 197:/home/hkh/git/eapidk-code-r76-trunk/apps/EeePProg/linux/../EeePDB.c ****   StatusCode=SetBlockLength(pCurBlock, stBlockLength);
 1964              		.loc 1 197 41 view .LVU518
 1965 08a4 0140C0E4 		strb	r4, [r0], #1
 1966              	.LVL166:
 198:/home/hkh/git/eapidk-code-r76-trunk/apps/EeePProg/linux/../EeePDB.c **** EAPI_APP_ASSERT_EXIT
 1967              		.loc 1 198 3 is_stmt 1 view .LVU519
 1968              	.LBB189:
 1969              	.LBI186:
 112:/home/hkh/git/eapidk-code-r76-trunk/apps/EeePProg/linux/../EeePDB.c ****     EeePHandel_t BHandel,
 1970              		.loc 1 112 1 view .LVU520
 1971              	.LBB188:
 117:/home/hkh/git/eapidk-code-r76-trunk/apps/EeePProg/linux/../EeePDB.c ****   EAPI_APP_ASSERT_PARAMATER_NULL(
 1972              		.loc 1 117 3 view .LVU521
 118:/home/hkh/git/eapidk-code-r76-trunk/apps/EeePProg/linux/../EeePDB.c ****       SetBlockLength,
 1973              		.loc 1 118 3 view .LVU522
 118:/home/hkh/git/eapidk-code-r76-trunk/apps/EeePProg/linux/../EeePDB.c ****       SetBlockLength,
 1974              		.loc 1 118 3 view .LVU523
 122:/home/hkh/git/eapidk-code-r76-trunk/apps/EeePProg/linux/../EeePDB.c ****   EAPI_APP_ASSERT_PARAMATER_CHECK_S(
 1975              		.loc 1 122 6 view .LVU524
 123:/home/hkh/git/eapidk-code-r76-trunk/apps/EeePProg/linux/../EeePDB.c ****       SetBlockLength,
 1976              		.loc 1 123 3 view .LVU525
 123:/home/hkh/git/eapidk-code-r76-trunk/apps/EeePProg/linux/../EeePDB.c ****       SetBlockLength,
 1977              		.loc 1 123 3 view .LVU526
 127:/home/hkh/git/eapidk-code-r76-trunk/apps/EeePProg/linux/../EeePDB.c ****   EAPI_APP_ASSERT_PARAMATER_CHECK_S(
 1978              		.loc 1 127 6 view .LVU527
 128:/home/hkh/git/eapidk-code-r76-trunk/apps/EeePProg/linux/../EeePDB.c ****       SetBlockLength, 
 1979              		.loc 1 128 3 view .LVU528
 128:/home/hkh/git/eapidk-code-r76-trunk/apps/EeePProg/linux/../EeePDB.c ****       SetBlockLength, 
 1980              		.loc 1 128 3 view .LVU529
 132:/home/hkh/git/eapidk-code-r76-trunk/apps/EeePProg/linux/../EeePDB.c **** 
 1981              		.loc 1 132 6 view .LVU530
 134:/home/hkh/git/eapidk-code-r76-trunk/apps/EeePProg/linux/../EeePDB.c ****         ((DBlockIdHdr_t*)BHandel)->DBlockLength, 
 1982              		.loc 1 134 3 view .LVU531
 1983 08a8 FEFFFFEB 		bl	EeeP_Set16BitValue_BE(PLT)
 1984              	.LVL167:
 1985              	.LDL6:
 139:/home/hkh/git/eapidk-code-r76-trunk/apps/EeePProg/linux/../EeePDB.c ****   }
 1986              		.loc 1 139 3 view .LVU532
 140:/home/hkh/git/eapidk-code-r76-trunk/apps/EeePProg/linux/../EeePDB.c ****   return StatusCode;
 1987              		.loc 1 140 3 view .LVU533
 141:/home/hkh/git/eapidk-code-r76-trunk/apps/EeePProg/linux/../EeePDB.c **** }
 1988              		.loc 1 141 3 view .LVU534
 141:/home/hkh/git/eapidk-code-r76-trunk/apps/EeePProg/linux/../EeePDB.c **** }
 1989              		.loc 1 141 3 is_stmt 0 view .LVU535
 1990              	.LBE188:
 1991              	.LBE189:
 200:/home/hkh/git/eapidk-code-r76-trunk/apps/EeePProg/linux/../EeePDB.c ****   }
 1992              		.loc 1 200 3 is_stmt 1 view .LVU536
 201:/home/hkh/git/eapidk-code-r76-trunk/apps/EeePProg/linux/../EeePDB.c ****   return StatusCode;
 1993              		.loc 1 201 3 view .LVU537
 202:/home/hkh/git/eapidk-code-r76-trunk/apps/EeePProg/linux/../EeePDB.c **** }
 1994              		.loc 1 202 3 view .LVU538
 202:/home/hkh/git/eapidk-code-r76-trunk/apps/EeePProg/linux/../EeePDB.c **** }
ARM GAS  /tmp/ccTXisr2.s 			page 52


 1995              		.loc 1 202 3 is_stmt 0 view .LVU539
 1996              	.LBE185:
 1997              	.LBE184:
 330:/home/hkh/git/eapidk-code-r76-trunk/apps/EeePProg/linux/../EeePDB.c ****         pEeePTBlock, 
 1998              		.loc 1 330 3 is_stmt 1 view .LVU540
 330:/home/hkh/git/eapidk-code-r76-trunk/apps/EeePProg/linux/../EeePDB.c ****         pEeePTBlock, 
 1999              		.loc 1 330 3 view .LVU541
 338:/home/hkh/git/eapidk-code-r76-trunk/apps/EeePProg/linux/../EeePDB.c ****     DBlockIdHdr_t   *plclEeePBlock; 
 2000              		.loc 1 338 3 view .LVU542
 338:/home/hkh/git/eapidk-code-r76-trunk/apps/EeePProg/linux/../EeePDB.c ****     DBlockIdHdr_t   *plclEeePBlock; 
 2001              		.loc 1 338 5 is_stmt 0 view .LVU543
 2002 08ac 014017E2 		ands	r4, r7, #1
 2003 08b0 0B00001A 		bne	.L153
 2004              	.L126:
 2005              	.LVL168:
 2006              	.L124:
 270:/home/hkh/git/eapidk-code-r76-trunk/apps/EeePProg/linux/../EeePDB.c ****   EeePCmn_t     *pEeePCmnHdr; 
 2007              		.loc 1 270 1 view .LVU544
 2008 08b4 C0229FE5 		ldr	r2, .L157+12
 364:/home/hkh/git/eapidk-code-r76-trunk/apps/EeePProg/linux/../EeePDB.c **** EApiStatus_t
 2009              		.loc 1 364 1 view .LVU545
 2010 08b8 B4329FE5 		ldr	r3, .L157+4
 270:/home/hkh/git/eapidk-code-r76-trunk/apps/EeePProg/linux/../EeePDB.c ****   EeePCmn_t     *pEeePCmnHdr; 
 2011              		.loc 1 270 1 view .LVU546
 2012              	.LPIC116:
 2013 08bc 02208FE0 		add	r2, pc, r2
 364:/home/hkh/git/eapidk-code-r76-trunk/apps/EeePProg/linux/../EeePDB.c **** EApiStatus_t
 2014              		.loc 1 364 1 view .LVU547
 2015 08c0 033092E7 		ldr	r3, [r2, r3]
 2016 08c4 002093E5 		ldr	r2, [r3]
 2017 08c8 1C309DE5 		ldr	r3, [sp, #28]
 2018 08cc 022033E0 		eors	r2, r3, r2
 2019 08d0 0030A0E3 		mov	r3, #0
 2020 08d4 9900001A 		bne	.L154
 2021 08d8 0400A0E1 		mov	r0, r4
 2022 08dc 24D08DE2 		add	sp, sp, #36
 2023              		.cfi_remember_state
 2024              		.cfi_def_cfa_offset 28
 2025              		@ sp needed
 2026 08e0 F083BDE8 		pop	{r4, r5, r6, r7, r8, r9, pc}
 2027              	.LVL169:
 2028              	.L153:
 2029              		.cfi_restore_state
 2030              	.LBB193:
 339:/home/hkh/git/eapidk-code-r76-trunk/apps/EeePProg/linux/../EeePDB.c ****     EeePCRC16ChkBlock_t *pEeePCRCBlock;
 2031              		.loc 1 339 5 is_stmt 1 view .LVU548
 340:/home/hkh/git/eapidk-code-r76-trunk/apps/EeePProg/linux/../EeePDB.c ****     /*
 2032              		.loc 1 340 5 view .LVU549
 344:/home/hkh/git/eapidk-code-r76-trunk/apps/EeePProg/linux/../EeePDB.c ****           &pEeePEmptyBlock      ,
 2033              		.loc 1 344 5 view .LVU550
 344:/home/hkh/git/eapidk-code-r76-trunk/apps/EeePProg/linux/../EeePDB.c ****           &pEeePEmptyBlock      ,
 2034              		.loc 1 344 5 view .LVU551
 2035 08e4 0830A0E1 		mov	r3, r8
 2036 08e8 18208DE2 		add	r2, sp, #24
 2037 08ec 0610A0E3 		mov	r1, #6
 2038 08f0 0900A0E1 		mov	r0, r9
 2039 08f4 FEFFFFEB 		bl	ReduceBlockLength(PLT)
ARM GAS  /tmp/ccTXisr2.s 			page 53


 2040              	.LVL170:
 344:/home/hkh/git/eapidk-code-r76-trunk/apps/EeePProg/linux/../EeePDB.c ****           &pEeePEmptyBlock      ,
 2041              		.loc 1 344 5 view .LVU552
 2042 08f8 004050E2 		subs	r4, r0, #0
 2043 08fc 8500001A 		bne	.L155
 344:/home/hkh/git/eapidk-code-r76-trunk/apps/EeePProg/linux/../EeePDB.c ****           &pEeePEmptyBlock      ,
 2044              		.loc 1 344 5 discriminator 2 view .LVU553
 350:/home/hkh/git/eapidk-code-r76-trunk/apps/EeePProg/linux/../EeePDB.c **** 
 2045              		.loc 1 350 4 discriminator 2 view .LVU554
 350:/home/hkh/git/eapidk-code-r76-trunk/apps/EeePProg/linux/../EeePDB.c **** 
 2046              		.loc 1 350 17 is_stmt 0 discriminator 2 view .LVU555
 2047 0900 18509DE5 		ldr	r5, [sp, #24]
 2048              	.LVL171:
 355:/home/hkh/git/eapidk-code-r76-trunk/apps/EeePProg/linux/../EeePDB.c ****           pEeePCRCBlock         ,
 2049              		.loc 1 355 5 is_stmt 1 discriminator 2 view .LVU556
 355:/home/hkh/git/eapidk-code-r76-trunk/apps/EeePProg/linux/../EeePDB.c ****           pEeePCRCBlock         ,
 2050              		.loc 1 355 5 discriminator 2 view .LVU557
 2051              	.LBB194:
 2052              	.LBI194:
 185:/home/hkh/git/eapidk-code-r76-trunk/apps/EeePProg/linux/../EeePDB.c ****     void          *pCurBlock,
 2053              		.loc 1 185 1 discriminator 2 view .LVU558
 2054              	.LBB195:
 191:/home/hkh/git/eapidk-code-r76-trunk/apps/EeePProg/linux/../EeePDB.c ****   EAPI_APP_ASSERT_PARAMATER_NULL(
 2055              		.loc 1 191 3 discriminator 2 view .LVU559
 192:/home/hkh/git/eapidk-code-r76-trunk/apps/EeePProg/linux/../EeePDB.c ****       SetDynBlockInfo,
 2056              		.loc 1 192 3 discriminator 2 view .LVU560
 2057 0904 000055E3 		cmp	r5, #0
 2058 0908 6D00000A 		beq	.L156
 192:/home/hkh/git/eapidk-code-r76-trunk/apps/EeePProg/linux/../EeePDB.c ****       SetDynBlockInfo,
 2059              		.loc 1 192 3 view .LVU561
 196:/home/hkh/git/eapidk-code-r76-trunk/apps/EeePProg/linux/../EeePDB.c ****   ((DBlockIdHdr_t *)pCurBlock)->DBlockId=u8BlockId;
 2060              		.loc 1 196 6 view .LVU562
 197:/home/hkh/git/eapidk-code-r76-trunk/apps/EeePProg/linux/../EeePDB.c ****   StatusCode=SetBlockLength(pCurBlock, stBlockLength);
 2061              		.loc 1 197 3 view .LVU563
 197:/home/hkh/git/eapidk-code-r76-trunk/apps/EeePProg/linux/../EeePDB.c ****   StatusCode=SetBlockLength(pCurBlock, stBlockLength);
 2062              		.loc 1 197 41 is_stmt 0 view .LVU564
 2063 090c 0500A0E1 		mov	r0, r5
 2064              	.LVL172:
 197:/home/hkh/git/eapidk-code-r76-trunk/apps/EeePProg/linux/../EeePDB.c ****   StatusCode=SetBlockLength(pCurBlock, stBlockLength);
 2065              		.loc 1 197 41 view .LVU565
 2066 0910 0D30E0E3 		mvn	r3, #13
 2067 0914 0130C0E4 		strb	r3, [r0], #1
 198:/home/hkh/git/eapidk-code-r76-trunk/apps/EeePProg/linux/../EeePDB.c **** EAPI_APP_ASSERT_EXIT
 2068              		.loc 1 198 3 is_stmt 1 view .LVU566
 2069              	.LVL173:
 2070              	.LBB196:
 2071              	.LBI196:
 112:/home/hkh/git/eapidk-code-r76-trunk/apps/EeePProg/linux/../EeePDB.c ****     EeePHandel_t BHandel,
 2072              		.loc 1 112 1 view .LVU567
 2073              	.LBB197:
 117:/home/hkh/git/eapidk-code-r76-trunk/apps/EeePProg/linux/../EeePDB.c ****   EAPI_APP_ASSERT_PARAMATER_NULL(
 2074              		.loc 1 117 3 view .LVU568
 118:/home/hkh/git/eapidk-code-r76-trunk/apps/EeePProg/linux/../EeePDB.c ****       SetBlockLength,
 2075              		.loc 1 118 3 view .LVU569
 118:/home/hkh/git/eapidk-code-r76-trunk/apps/EeePProg/linux/../EeePDB.c ****       SetBlockLength,
 2076              		.loc 1 118 3 view .LVU570
 122:/home/hkh/git/eapidk-code-r76-trunk/apps/EeePProg/linux/../EeePDB.c ****   EAPI_APP_ASSERT_PARAMATER_CHECK_S(
ARM GAS  /tmp/ccTXisr2.s 			page 54


 2077              		.loc 1 122 6 view .LVU571
 123:/home/hkh/git/eapidk-code-r76-trunk/apps/EeePProg/linux/../EeePDB.c ****       SetBlockLength,
 2078              		.loc 1 123 3 view .LVU572
 123:/home/hkh/git/eapidk-code-r76-trunk/apps/EeePProg/linux/../EeePDB.c ****       SetBlockLength,
 2079              		.loc 1 123 3 view .LVU573
 127:/home/hkh/git/eapidk-code-r76-trunk/apps/EeePProg/linux/../EeePDB.c ****   EAPI_APP_ASSERT_PARAMATER_CHECK_S(
 2080              		.loc 1 127 6 view .LVU574
 128:/home/hkh/git/eapidk-code-r76-trunk/apps/EeePProg/linux/../EeePDB.c ****       SetBlockLength, 
 2081              		.loc 1 128 3 view .LVU575
 128:/home/hkh/git/eapidk-code-r76-trunk/apps/EeePProg/linux/../EeePDB.c ****       SetBlockLength, 
 2082              		.loc 1 128 3 view .LVU576
 132:/home/hkh/git/eapidk-code-r76-trunk/apps/EeePProg/linux/../EeePDB.c **** 
 2083              		.loc 1 132 6 view .LVU577
 134:/home/hkh/git/eapidk-code-r76-trunk/apps/EeePProg/linux/../EeePDB.c ****         ((DBlockIdHdr_t*)BHandel)->DBlockLength, 
 2084              		.loc 1 134 3 view .LVU578
 2085 0918 0310A0E3 		mov	r1, #3
 2086 091c FEFFFFEB 		bl	EeeP_Set16BitValue_BE(PLT)
 2087              	.LVL174:
 2088              	.LDL7:
 139:/home/hkh/git/eapidk-code-r76-trunk/apps/EeePProg/linux/../EeePDB.c ****   }
 2089              		.loc 1 139 3 view .LVU579
 140:/home/hkh/git/eapidk-code-r76-trunk/apps/EeePProg/linux/../EeePDB.c ****   return StatusCode;
 2090              		.loc 1 140 3 view .LVU580
 141:/home/hkh/git/eapidk-code-r76-trunk/apps/EeePProg/linux/../EeePDB.c **** }
 2091              		.loc 1 141 3 view .LVU581
 141:/home/hkh/git/eapidk-code-r76-trunk/apps/EeePProg/linux/../EeePDB.c **** }
 2092              		.loc 1 141 3 is_stmt 0 view .LVU582
 2093              	.LBE197:
 2094              	.LBE196:
 200:/home/hkh/git/eapidk-code-r76-trunk/apps/EeePProg/linux/../EeePDB.c ****   }
 2095              		.loc 1 200 3 is_stmt 1 view .LVU583
 201:/home/hkh/git/eapidk-code-r76-trunk/apps/EeePProg/linux/../EeePDB.c ****   return StatusCode;
 2096              		.loc 1 201 3 view .LVU584
 202:/home/hkh/git/eapidk-code-r76-trunk/apps/EeePProg/linux/../EeePDB.c **** }
 2097              		.loc 1 202 3 view .LVU585
 202:/home/hkh/git/eapidk-code-r76-trunk/apps/EeePProg/linux/../EeePDB.c **** }
 2098              		.loc 1 202 3 is_stmt 0 view .LVU586
 2099              	.LBE195:
 2100              	.LBE194:
 355:/home/hkh/git/eapidk-code-r76-trunk/apps/EeePProg/linux/../EeePDB.c ****           pEeePCRCBlock         ,
 2101              		.loc 1 355 5 is_stmt 1 view .LVU587
 355:/home/hkh/git/eapidk-code-r76-trunk/apps/EeePProg/linux/../EeePDB.c ****           pEeePCRCBlock         ,
 2102              		.loc 1 355 5 view .LVU588
 360:/home/hkh/git/eapidk-code-r76-trunk/apps/EeePProg/linux/../EeePDB.c ****   }
 2103              		.loc 1 360 5 view .LVU589
 2104 0920 0010A0E3 		mov	r1, #0
 2105 0924 030085E2 		add	r0, r5, #3
 2106 0928 FEFFFFEB 		bl	EeeP_Set16BitValue_BE(PLT)
 2107              	.LVL175:
 2108 092c E0FFFFEA 		b	.L124
 2109              	.LVL176:
 2110              	.L150:
 360:/home/hkh/git/eapidk-code-r76-trunk/apps/EeePProg/linux/../EeePDB.c ****   }
 2111              		.loc 1 360 5 is_stmt 0 view .LVU590
 2112              	.LBE193:
 2113              	.LBB202:
 2114              	.LBB182:
ARM GAS  /tmp/ccTXisr2.s 			page 55


 2115              	.LBB179:
 2116              	.LBI179:
 185:/home/hkh/git/eapidk-code-r76-trunk/apps/EeePProg/linux/../EeePDB.c ****     void          *pCurBlock,
 2117              		.loc 1 185 1 is_stmt 1 view .LVU591
 2118              	.LBB180:
 192:/home/hkh/git/eapidk-code-r76-trunk/apps/EeePProg/linux/../EeePDB.c ****       SetDynBlockInfo,
 2119              		.loc 1 192 3 view .LVU592
 192:/home/hkh/git/eapidk-code-r76-trunk/apps/EeePProg/linux/../EeePDB.c ****       SetDynBlockInfo,
 2120              		.loc 1 192 3 view .LVU593
 2121 0930 48C29FE5 		ldr	ip, .L157+16
 2122 0934 014CE0E3 		mvn	r4, #256
 2123              	.LVL177:
 192:/home/hkh/git/eapidk-code-r76-trunk/apps/EeePProg/linux/../EeePDB.c ****       SetDynBlockInfo,
 2124              		.loc 1 192 3 is_stmt 0 view .LVU594
 2125 0938 44029FE5 		ldr	r0, .L157+20
 2126              	.LVL178:
 192:/home/hkh/git/eapidk-code-r76-trunk/apps/EeePProg/linux/../EeePDB.c ****       SetDynBlockInfo,
 2127              		.loc 1 192 3 view .LVU595
 2128 093c C030A0E3 		mov	r3, #192
 2129 0940 40229FE5 		ldr	r2, .L157+24
 2130 0944 40129FE5 		ldr	r1, .L157+28
 2131              	.LVL179:
 192:/home/hkh/git/eapidk-code-r76-trunk/apps/EeePProg/linux/../EeePDB.c ****       SetDynBlockInfo,
 2132              		.loc 1 192 3 view .LVU596
 2133              	.LPIC86:
 2134 0948 0CC08FE0 		add	ip, pc, ip
 2135              	.LPIC87:
 2136 094c 00008FE0 		add	r0, pc, r0
 2137 0950 00408DE5 		str	r4, [sp]
 2138              	.LVL180:
 192:/home/hkh/git/eapidk-code-r76-trunk/apps/EeePProg/linux/../EeePDB.c ****       SetDynBlockInfo,
 2139              		.loc 1 192 3 view .LVU597
 2140 0954 01108DE9 		stmib	sp, {r0, ip}
 2141              	.LPIC84:
 2142 0958 02208FE0 		add	r2, pc, r2
 2143              	.LPIC85:
 2144 095c 01108FE0 		add	r1, pc, r1
 2145 0960 4500A0E3 		mov	r0, #69
 2146 0964 FEFFFFEB 		bl	siFormattedMessage_SC(PLT)
 2147              	.LVL181:
 192:/home/hkh/git/eapidk-code-r76-trunk/apps/EeePProg/linux/../EeePDB.c ****       SetDynBlockInfo,
 2148              		.loc 1 192 3 is_stmt 1 view .LVU598
 192:/home/hkh/git/eapidk-code-r76-trunk/apps/EeePProg/linux/../EeePDB.c ****       SetDynBlockInfo,
 2149              		.loc 1 192 3 view .LVU599
 192:/home/hkh/git/eapidk-code-r76-trunk/apps/EeePProg/linux/../EeePDB.c ****       SetDynBlockInfo,
 2150              		.loc 1 192 3 view .LVU600
 2151              	.LDL8:
 200:/home/hkh/git/eapidk-code-r76-trunk/apps/EeePProg/linux/../EeePDB.c ****   }
 2152              		.loc 1 200 3 view .LVU601
 201:/home/hkh/git/eapidk-code-r76-trunk/apps/EeePProg/linux/../EeePDB.c ****   return StatusCode;
 2153              		.loc 1 201 3 view .LVU602
 202:/home/hkh/git/eapidk-code-r76-trunk/apps/EeePProg/linux/../EeePDB.c **** }
 2154              		.loc 1 202 3 view .LVU603
 202:/home/hkh/git/eapidk-code-r76-trunk/apps/EeePProg/linux/../EeePDB.c **** }
 2155              		.loc 1 202 3 is_stmt 0 view .LVU604
 2156              	.LBE180:
 2157              	.LBE179:
ARM GAS  /tmp/ccTXisr2.s 			page 56


 200:/home/hkh/git/eapidk-code-r76-trunk/apps/EeePProg/linux/../EeePDB.c ****   }
 2158              		.loc 1 200 3 is_stmt 1 view .LVU605
 201:/home/hkh/git/eapidk-code-r76-trunk/apps/EeePProg/linux/../EeePDB.c ****   return StatusCode;
 2159              		.loc 1 201 3 view .LVU606
 202:/home/hkh/git/eapidk-code-r76-trunk/apps/EeePProg/linux/../EeePDB.c **** }
 2160              		.loc 1 202 3 view .LVU607
 202:/home/hkh/git/eapidk-code-r76-trunk/apps/EeePProg/linux/../EeePDB.c **** }
 2161              		.loc 1 202 3 is_stmt 0 view .LVU608
 2162              	.LBE182:
 2163              	.LBE202:
 312:/home/hkh/git/eapidk-code-r76-trunk/apps/EeePProg/linux/../EeePDB.c ****         pEeePEmptyBlock, 
 2164              		.loc 1 312 3 is_stmt 1 view .LVU609
 2165              	.L131:
 312:/home/hkh/git/eapidk-code-r76-trunk/apps/EeePProg/linux/../EeePDB.c ****         pEeePEmptyBlock, 
 2166              		.loc 1 312 3 discriminator 1 view .LVU610
 2167 0968 20C29FE5 		ldr	ip, .L157+32
 2168 096c 4E3FA0E3 		mov	r3, #312
 2169 0970 1C029FE5 		ldr	r0, .L157+36
 2170 0974 1C229FE5 		ldr	r2, .L157+40
 2171 0978 1C129FE5 		ldr	r1, .L157+44
 2172              	.LPIC90:
 2173 097c 0CC08FE0 		add	ip, pc, ip
 2174              	.LPIC91:
 2175 0980 00008FE0 		add	r0, pc, r0
 2176              	.LPIC88:
 2177 0984 02208FE0 		add	r2, pc, r2
 2178              	.LPIC89:
 2179 0988 01108FE0 		add	r1, pc, r1
 2180              	.L145:
 2181              	.LBB203:
 344:/home/hkh/git/eapidk-code-r76-trunk/apps/EeePProg/linux/../EeePDB.c ****           &pEeePEmptyBlock      ,
 2182              		.loc 1 344 5 is_stmt 0 discriminator 1 view .LVU611
 2183 098c 01108DE9 		stmib	sp, {r0, ip}
 2184 0990 4500A0E3 		mov	r0, #69
 2185 0994 00408DE5 		str	r4, [sp]
 2186 0998 FEFFFFEB 		bl	siFormattedMessage_SC(PLT)
 2187              	.LVL182:
 344:/home/hkh/git/eapidk-code-r76-trunk/apps/EeePProg/linux/../EeePDB.c ****           &pEeePEmptyBlock      ,
 2188              		.loc 1 344 5 is_stmt 1 discriminator 1 view .LVU612
 2189 099c C4FFFFEA 		b	.L124
 2190              	.LVL183:
 2191              	.L147:
 344:/home/hkh/git/eapidk-code-r76-trunk/apps/EeePProg/linux/../EeePDB.c ****           &pEeePEmptyBlock      ,
 2192              		.loc 1 344 5 is_stmt 0 discriminator 1 view .LVU613
 2193              	.LBE203:
 281:/home/hkh/git/eapidk-code-r76-trunk/apps/EeePProg/linux/../EeePDB.c ****       EeePCreateNewBuffer, 
 2194              		.loc 1 281 3 is_stmt 1 discriminator 1 view .LVU614
 281:/home/hkh/git/eapidk-code-r76-trunk/apps/EeePProg/linux/../EeePDB.c ****       EeePCreateNewBuffer, 
 2195              		.loc 1 281 3 discriminator 1 view .LVU615
 2196 09a0 F8C19FE5 		ldr	ip, .L157+48
 2197 09a4 014CE0E3 		mvn	r4, #256
 2198              	.LVL184:
 281:/home/hkh/git/eapidk-code-r76-trunk/apps/EeePProg/linux/../EeePDB.c ****       EeePCreateNewBuffer, 
 2199              		.loc 1 281 3 is_stmt 0 discriminator 1 view .LVU616
 2200 09a8 F4019FE5 		ldr	r0, .L157+52
 2201              	.LVL185:
 281:/home/hkh/git/eapidk-code-r76-trunk/apps/EeePProg/linux/../EeePDB.c ****       EeePCreateNewBuffer, 
ARM GAS  /tmp/ccTXisr2.s 			page 57


 2202              		.loc 1 281 3 discriminator 1 view .LVU617
 2203 09ac 193100E3 		movw	r3, #281
 2204 09b0 F0219FE5 		ldr	r2, .L157+56
 2205 09b4 F0119FE5 		ldr	r1, .L157+60
 2206              	.LVL186:
 281:/home/hkh/git/eapidk-code-r76-trunk/apps/EeePProg/linux/../EeePDB.c ****       EeePCreateNewBuffer, 
 2207              		.loc 1 281 3 discriminator 1 view .LVU618
 2208              	.LPIC73:
 2209 09b8 0CC08FE0 		add	ip, pc, ip
 2210              	.LPIC74:
 2211 09bc 00008FE0 		add	r0, pc, r0
 2212              	.LPIC71:
 2213 09c0 02208FE0 		add	r2, pc, r2
 2214              	.LPIC72:
 2215 09c4 01108FE0 		add	r1, pc, r1
 2216              	.L143:
 2217 09c8 01108DE9 		stmib	sp, {r0, ip}
 2218 09cc 4500A0E3 		mov	r0, #69
 2219 09d0 00408DE5 		str	r4, [sp]
 2220 09d4 FEFFFFEB 		bl	siFormattedMessage_SC(PLT)
 2221              	.LVL187:
 281:/home/hkh/git/eapidk-code-r76-trunk/apps/EeePProg/linux/../EeePDB.c ****       EeePCreateNewBuffer, 
 2222              		.loc 1 281 3 is_stmt 1 discriminator 1 view .LVU619
 281:/home/hkh/git/eapidk-code-r76-trunk/apps/EeePProg/linux/../EeePDB.c ****       EeePCreateNewBuffer, 
 2223              		.loc 1 281 3 discriminator 1 view .LVU620
 281:/home/hkh/git/eapidk-code-r76-trunk/apps/EeePProg/linux/../EeePDB.c ****       EeePCreateNewBuffer, 
 2224              		.loc 1 281 3 discriminator 1 view .LVU621
 2225 09d8 B5FFFFEA 		b	.L124
 2226              	.LVL188:
 2227              	.L149:
 310:/home/hkh/git/eapidk-code-r76-trunk/apps/EeePProg/linux/../EeePDB.c **** 
 2228              		.loc 1 310 3 discriminator 1 view .LVU622
 2229 09dc CCC19FE5 		ldr	ip, .L157+64
 2230 09e0 363100E3 		movw	r3, #310
 2231 09e4 C8019FE5 		ldr	r0, .L157+68
 2232              	.LVL189:
 310:/home/hkh/git/eapidk-code-r76-trunk/apps/EeePProg/linux/../EeePDB.c **** 
 2233              		.loc 1 310 3 is_stmt 0 discriminator 1 view .LVU623
 2234 09e8 C8219FE5 		ldr	r2, .L157+72
 2235 09ec C8119FE5 		ldr	r1, .L157+76
 2236              	.LPIC82:
 2237 09f0 0CC08FE0 		add	ip, pc, ip
 2238              	.LPIC83:
 2239 09f4 00008FE0 		add	r0, pc, r0
 2240              	.LPIC80:
 2241 09f8 02208FE0 		add	r2, pc, r2
 2242              	.LPIC81:
 2243 09fc 01108FE0 		add	r1, pc, r1
 2244 0a00 E1FFFFEA 		b	.L145
 2245              	.LVL190:
 2246              	.L146:
 276:/home/hkh/git/eapidk-code-r76-trunk/apps/EeePProg/linux/../EeePDB.c ****       EeePCreateNewBuffer, 
 2247              		.loc 1 276 3 is_stmt 1 discriminator 1 view .LVU624
 276:/home/hkh/git/eapidk-code-r76-trunk/apps/EeePProg/linux/../EeePDB.c ****       EeePCreateNewBuffer, 
 2248              		.loc 1 276 3 discriminator 1 view .LVU625
 2249 0a04 B4C19FE5 		ldr	ip, .L157+80
 2250 0a08 014CE0E3 		mvn	r4, #256
ARM GAS  /tmp/ccTXisr2.s 			page 58


 2251              	.LVL191:
 276:/home/hkh/git/eapidk-code-r76-trunk/apps/EeePProg/linux/../EeePDB.c ****       EeePCreateNewBuffer, 
 2252              		.loc 1 276 3 is_stmt 0 discriminator 1 view .LVU626
 2253 0a0c B0019FE5 		ldr	r0, .L157+84
 2254              	.LVL192:
 276:/home/hkh/git/eapidk-code-r76-trunk/apps/EeePProg/linux/../EeePDB.c ****       EeePCreateNewBuffer, 
 2255              		.loc 1 276 3 discriminator 1 view .LVU627
 2256 0a10 453FA0E3 		mov	r3, #276
 2257 0a14 AC219FE5 		ldr	r2, .L157+88
 2258 0a18 AC119FE5 		ldr	r1, .L157+92
 2259              	.LVL193:
 276:/home/hkh/git/eapidk-code-r76-trunk/apps/EeePProg/linux/../EeePDB.c ****       EeePCreateNewBuffer, 
 2260              		.loc 1 276 3 discriminator 1 view .LVU628
 2261              	.LPIC69:
 2262 0a1c 0CC08FE0 		add	ip, pc, ip
 2263              	.LPIC70:
 2264 0a20 00008FE0 		add	r0, pc, r0
 2265              	.LPIC67:
 2266 0a24 02208FE0 		add	r2, pc, r2
 2267              	.LPIC68:
 2268 0a28 01108FE0 		add	r1, pc, r1
 2269 0a2c E5FFFFEA 		b	.L143
 2270              	.LVL194:
 2271              	.L151:
 320:/home/hkh/git/eapidk-code-r76-trunk/apps/EeePProg/linux/../EeePDB.c ****         &pEeePEmptyBlock        ,
 2272              		.loc 1 320 3 is_stmt 1 discriminator 1 view .LVU629
 2273 0a30 98C19FE5 		ldr	ip, .L157+96
 2274 0a34 053DA0E3 		mov	r3, #320
 2275 0a38 94019FE5 		ldr	r0, .L157+100
 2276              	.LVL195:
 320:/home/hkh/git/eapidk-code-r76-trunk/apps/EeePProg/linux/../EeePDB.c ****         &pEeePEmptyBlock        ,
 2277              		.loc 1 320 3 is_stmt 0 discriminator 1 view .LVU630
 2278 0a3c 94219FE5 		ldr	r2, .L157+104
 2279 0a40 94119FE5 		ldr	r1, .L157+108
 2280              	.LPIC94:
 2281 0a44 0CC08FE0 		add	ip, pc, ip
 2282              	.LPIC95:
 2283 0a48 00008FE0 		add	r0, pc, r0
 2284              	.LPIC92:
 2285 0a4c 02208FE0 		add	r2, pc, r2
 2286              	.LPIC93:
 2287 0a50 01108FE0 		add	r1, pc, r1
 2288 0a54 CCFFFFEA 		b	.L145
 2289              	.LVL196:
 2290              	.L152:
 2291              	.LBB204:
 2292              	.LBB192:
 2293              	.LBB190:
 2294              	.LBI190:
 185:/home/hkh/git/eapidk-code-r76-trunk/apps/EeePProg/linux/../EeePDB.c ****     void          *pCurBlock,
 2295              		.loc 1 185 1 is_stmt 1 view .LVU631
 2296              	.LBB191:
 192:/home/hkh/git/eapidk-code-r76-trunk/apps/EeePProg/linux/../EeePDB.c ****       SetDynBlockInfo,
 2297              		.loc 1 192 3 view .LVU632
 192:/home/hkh/git/eapidk-code-r76-trunk/apps/EeePProg/linux/../EeePDB.c ****       SetDynBlockInfo,
 2298              		.loc 1 192 3 view .LVU633
 2299 0a58 80219FE5 		ldr	r2, .L157+112
ARM GAS  /tmp/ccTXisr2.s 			page 59


 2300 0a5c 014CE0E3 		mvn	r4, #256
 2301              	.LVL197:
 192:/home/hkh/git/eapidk-code-r76-trunk/apps/EeePProg/linux/../EeePDB.c ****       SetDynBlockInfo,
 2302              		.loc 1 192 3 is_stmt 0 view .LVU634
 2303 0a60 7C619FE5 		ldr	r6, .L157+116
 2304              	.LVL198:
 192:/home/hkh/git/eapidk-code-r76-trunk/apps/EeePProg/linux/../EeePDB.c ****       SetDynBlockInfo,
 2305              		.loc 1 192 3 view .LVU635
 2306 0a64 C030A0E3 		mov	r3, #192
 2307 0a68 78519FE5 		ldr	r5, .L157+120
 2308              	.LVL199:
 192:/home/hkh/git/eapidk-code-r76-trunk/apps/EeePProg/linux/../EeePDB.c ****       SetDynBlockInfo,
 2309              		.loc 1 192 3 view .LVU636
 2310 0a6c 4500A0E3 		mov	r0, #69
 2311              	.LVL200:
 192:/home/hkh/git/eapidk-code-r76-trunk/apps/EeePProg/linux/../EeePDB.c ****       SetDynBlockInfo,
 2312              		.loc 1 192 3 view .LVU637
 2313              	.LPIC98:
 2314 0a70 02208FE0 		add	r2, pc, r2
 2315 0a74 08208DE5 		str	r2, [sp, #8]
 2316              	.LPIC97:
 2317 0a78 06608FE0 		add	r6, pc, r6
 2318 0a7c 68219FE5 		ldr	r2, .L157+124
 2319              	.LPIC99:
 2320 0a80 05508FE0 		add	r5, pc, r5
 2321 0a84 0610A0E1 		mov	r1, r6
 2322 0a88 F040CDE1 		strd	r4, [sp]
 2323              	.LPIC96:
 2324 0a8c 02208FE0 		add	r2, pc, r2
 2325 0a90 FEFFFFEB 		bl	siFormattedMessage_SC(PLT)
 2326              	.LVL201:
 192:/home/hkh/git/eapidk-code-r76-trunk/apps/EeePProg/linux/../EeePDB.c ****       SetDynBlockInfo,
 2327              		.loc 1 192 3 is_stmt 1 view .LVU638
 192:/home/hkh/git/eapidk-code-r76-trunk/apps/EeePProg/linux/../EeePDB.c ****       SetDynBlockInfo,
 2328              		.loc 1 192 3 view .LVU639
 192:/home/hkh/git/eapidk-code-r76-trunk/apps/EeePProg/linux/../EeePDB.c ****       SetDynBlockInfo,
 2329              		.loc 1 192 3 view .LVU640
 2330              	.LDL9:
 200:/home/hkh/git/eapidk-code-r76-trunk/apps/EeePProg/linux/../EeePDB.c ****   }
 2331              		.loc 1 200 3 view .LVU641
 201:/home/hkh/git/eapidk-code-r76-trunk/apps/EeePProg/linux/../EeePDB.c ****   return StatusCode;
 2332              		.loc 1 201 3 view .LVU642
 202:/home/hkh/git/eapidk-code-r76-trunk/apps/EeePProg/linux/../EeePDB.c **** }
 2333              		.loc 1 202 3 view .LVU643
 202:/home/hkh/git/eapidk-code-r76-trunk/apps/EeePProg/linux/../EeePDB.c **** }
 2334              		.loc 1 202 3 is_stmt 0 view .LVU644
 2335              	.LBE191:
 2336              	.LBE190:
 200:/home/hkh/git/eapidk-code-r76-trunk/apps/EeePProg/linux/../EeePDB.c ****   }
 2337              		.loc 1 200 3 is_stmt 1 view .LVU645
 201:/home/hkh/git/eapidk-code-r76-trunk/apps/EeePProg/linux/../EeePDB.c ****   return StatusCode;
 2338              		.loc 1 201 3 view .LVU646
 202:/home/hkh/git/eapidk-code-r76-trunk/apps/EeePProg/linux/../EeePDB.c **** }
 2339              		.loc 1 202 3 view .LVU647
 202:/home/hkh/git/eapidk-code-r76-trunk/apps/EeePProg/linux/../EeePDB.c **** }
 2340              		.loc 1 202 3 is_stmt 0 view .LVU648
 2341              	.LBE192:
ARM GAS  /tmp/ccTXisr2.s 			page 60


 2342              	.LBE204:
 330:/home/hkh/git/eapidk-code-r76-trunk/apps/EeePProg/linux/../EeePDB.c ****         pEeePTBlock, 
 2343              		.loc 1 330 3 is_stmt 1 view .LVU649
 330:/home/hkh/git/eapidk-code-r76-trunk/apps/EeePProg/linux/../EeePDB.c ****         pEeePTBlock, 
 2344              		.loc 1 330 3 view .LVU650
 2345 0a94 54019FE5 		ldr	r0, .L157+128
 2346 0a98 4A3100E3 		movw	r3, #330
 2347 0a9c 50219FE5 		ldr	r2, .L157+132
 2348              	.LPIC102:
 2349 0aa0 00008FE0 		add	r0, pc, r0
 2350              	.LPIC100:
 2351 0aa4 02208FE0 		add	r2, pc, r2
 2352              	.L144:
 2353              	.LBB205:
 355:/home/hkh/git/eapidk-code-r76-trunk/apps/EeePProg/linux/../EeePDB.c ****           pEeePCRCBlock         ,
 2354              		.loc 1 355 5 is_stmt 0 view .LVU651
 2355 0aa8 08008DE5 		str	r0, [sp, #8]
 2356 0aac 0610A0E1 		mov	r1, r6
 2357 0ab0 04508DE5 		str	r5, [sp, #4]
 2358 0ab4 4500A0E3 		mov	r0, #69
 2359 0ab8 00408DE5 		str	r4, [sp]
 2360 0abc FEFFFFEB 		bl	siFormattedMessage_SC(PLT)
 2361              	.LVL202:
 355:/home/hkh/git/eapidk-code-r76-trunk/apps/EeePProg/linux/../EeePDB.c ****           pEeePCRCBlock         ,
 2362              		.loc 1 355 5 is_stmt 1 view .LVU652
 2363 0ac0 7BFFFFEA 		b	.L124
 2364              	.LVL203:
 2365              	.L156:
 2366              	.LBB201:
 2367              	.LBB200:
 2368              	.LBB198:
 2369              	.LBI198:
 185:/home/hkh/git/eapidk-code-r76-trunk/apps/EeePProg/linux/../EeePDB.c ****     void          *pCurBlock,
 2370              		.loc 1 185 1 view .LVU653
 2371              	.LBB199:
 192:/home/hkh/git/eapidk-code-r76-trunk/apps/EeePProg/linux/../EeePDB.c ****       SetDynBlockInfo,
 2372              		.loc 1 192 3 view .LVU654
 192:/home/hkh/git/eapidk-code-r76-trunk/apps/EeePProg/linux/../EeePDB.c ****       SetDynBlockInfo,
 2373              		.loc 1 192 3 view .LVU655
 2374 0ac4 2C219FE5 		ldr	r2, .L157+136
 2375 0ac8 014CE0E3 		mvn	r4, #256
 2376 0acc 28619FE5 		ldr	r6, .L157+140
 2377              	.LVL204:
 192:/home/hkh/git/eapidk-code-r76-trunk/apps/EeePProg/linux/../EeePDB.c ****       SetDynBlockInfo,
 2378              		.loc 1 192 3 is_stmt 0 view .LVU656
 2379 0ad0 C030A0E3 		mov	r3, #192
 2380 0ad4 24519FE5 		ldr	r5, .L157+144
 2381              	.LVL205:
 192:/home/hkh/git/eapidk-code-r76-trunk/apps/EeePProg/linux/../EeePDB.c ****       SetDynBlockInfo,
 2382              		.loc 1 192 3 view .LVU657
 2383 0ad8 4500A0E3 		mov	r0, #69
 2384              	.LVL206:
 192:/home/hkh/git/eapidk-code-r76-trunk/apps/EeePProg/linux/../EeePDB.c ****       SetDynBlockInfo,
 2385              		.loc 1 192 3 view .LVU658
 2386              	.LPIC110:
 2387 0adc 02208FE0 		add	r2, pc, r2
 2388 0ae0 08208DE5 		str	r2, [sp, #8]
ARM GAS  /tmp/ccTXisr2.s 			page 61


 2389              	.LPIC109:
 2390 0ae4 06608FE0 		add	r6, pc, r6
 2391 0ae8 14219FE5 		ldr	r2, .L157+148
 2392              	.LPIC111:
 2393 0aec 05508FE0 		add	r5, pc, r5
 2394 0af0 0610A0E1 		mov	r1, r6
 2395 0af4 F040CDE1 		strd	r4, [sp]
 2396              	.LPIC108:
 2397 0af8 02208FE0 		add	r2, pc, r2
 2398 0afc FEFFFFEB 		bl	siFormattedMessage_SC(PLT)
 2399              	.LVL207:
 192:/home/hkh/git/eapidk-code-r76-trunk/apps/EeePProg/linux/../EeePDB.c ****       SetDynBlockInfo,
 2400              		.loc 1 192 3 is_stmt 1 view .LVU659
 192:/home/hkh/git/eapidk-code-r76-trunk/apps/EeePProg/linux/../EeePDB.c ****       SetDynBlockInfo,
 2401              		.loc 1 192 3 view .LVU660
 192:/home/hkh/git/eapidk-code-r76-trunk/apps/EeePProg/linux/../EeePDB.c ****       SetDynBlockInfo,
 2402              		.loc 1 192 3 view .LVU661
 2403              	.LDL10:
 200:/home/hkh/git/eapidk-code-r76-trunk/apps/EeePProg/linux/../EeePDB.c ****   }
 2404              		.loc 1 200 3 view .LVU662
 201:/home/hkh/git/eapidk-code-r76-trunk/apps/EeePProg/linux/../EeePDB.c ****   return StatusCode;
 2405              		.loc 1 201 3 view .LVU663
 202:/home/hkh/git/eapidk-code-r76-trunk/apps/EeePProg/linux/../EeePDB.c **** }
 2406              		.loc 1 202 3 view .LVU664
 202:/home/hkh/git/eapidk-code-r76-trunk/apps/EeePProg/linux/../EeePDB.c **** }
 2407              		.loc 1 202 3 is_stmt 0 view .LVU665
 2408              	.LBE199:
 2409              	.LBE198:
 200:/home/hkh/git/eapidk-code-r76-trunk/apps/EeePProg/linux/../EeePDB.c ****   }
 2410              		.loc 1 200 3 is_stmt 1 view .LVU666
 201:/home/hkh/git/eapidk-code-r76-trunk/apps/EeePProg/linux/../EeePDB.c ****   return StatusCode;
 2411              		.loc 1 201 3 view .LVU667
 202:/home/hkh/git/eapidk-code-r76-trunk/apps/EeePProg/linux/../EeePDB.c **** }
 2412              		.loc 1 202 3 view .LVU668
 202:/home/hkh/git/eapidk-code-r76-trunk/apps/EeePProg/linux/../EeePDB.c **** }
 2413              		.loc 1 202 3 is_stmt 0 view .LVU669
 2414              	.LBE200:
 2415              	.LBE201:
 355:/home/hkh/git/eapidk-code-r76-trunk/apps/EeePProg/linux/../EeePDB.c ****           pEeePCRCBlock         ,
 2416              		.loc 1 355 5 is_stmt 1 view .LVU670
 355:/home/hkh/git/eapidk-code-r76-trunk/apps/EeePProg/linux/../EeePDB.c ****           pEeePCRCBlock         ,
 2417              		.loc 1 355 5 view .LVU671
 2418 0b00 00019FE5 		ldr	r0, .L157+152
 2419 0b04 633100E3 		movw	r3, #355
 2420 0b08 FC209FE5 		ldr	r2, .L157+156
 2421              	.LPIC114:
 2422 0b0c 00008FE0 		add	r0, pc, r0
 2423              	.LPIC112:
 2424 0b10 02208FE0 		add	r2, pc, r2
 2425 0b14 E3FFFFEA 		b	.L144
 2426              	.LVL208:
 2427              	.L155:
 344:/home/hkh/git/eapidk-code-r76-trunk/apps/EeePProg/linux/../EeePDB.c ****           &pEeePEmptyBlock      ,
 2428              		.loc 1 344 5 discriminator 1 view .LVU672
 2429 0b18 F0C09FE5 		ldr	ip, .L157+160
 2430 0b1c 563FA0E3 		mov	r3, #344
 2431 0b20 EC009FE5 		ldr	r0, .L157+164
ARM GAS  /tmp/ccTXisr2.s 			page 62


 2432              	.LVL209:
 344:/home/hkh/git/eapidk-code-r76-trunk/apps/EeePProg/linux/../EeePDB.c ****           &pEeePEmptyBlock      ,
 2433              		.loc 1 344 5 is_stmt 0 discriminator 1 view .LVU673
 2434 0b24 EC209FE5 		ldr	r2, .L157+168
 2435 0b28 EC109FE5 		ldr	r1, .L157+172
 2436              	.LPIC106:
 2437 0b2c 0CC08FE0 		add	ip, pc, ip
 2438              	.LPIC107:
 2439 0b30 00008FE0 		add	r0, pc, r0
 2440              	.LPIC104:
 2441 0b34 02208FE0 		add	r2, pc, r2
 2442              	.LPIC105:
 2443 0b38 01108FE0 		add	r1, pc, r1
 2444 0b3c 92FFFFEA 		b	.L145
 2445              	.LVL210:
 2446              	.L154:
 344:/home/hkh/git/eapidk-code-r76-trunk/apps/EeePProg/linux/../EeePDB.c ****           &pEeePEmptyBlock      ,
 2447              		.loc 1 344 5 discriminator 1 view .LVU674
 2448              	.LBE205:
 364:/home/hkh/git/eapidk-code-r76-trunk/apps/EeePProg/linux/../EeePDB.c **** EApiStatus_t
 2449              		.loc 1 364 1 view .LVU675
 2450 0b40 FEFFFFEB 		bl	__stack_chk_fail(PLT)
 2451              	.LVL211:
 2452              	.L148:
 289:/home/hkh/git/eapidk-code-r76-trunk/apps/EeePProg/linux/../EeePDB.c ****       EeePCreateNewBuffer,
 2453              		.loc 1 289 3 is_stmt 1 discriminator 1 view .LVU676
 289:/home/hkh/git/eapidk-code-r76-trunk/apps/EeePProg/linux/../EeePDB.c ****       EeePCreateNewBuffer,
 2454              		.loc 1 289 3 discriminator 1 view .LVU677
 2455 0b44 D4C09FE5 		ldr	ip, .L157+176
 2456 0b48 0240E0E3 		mvn	r4, #2
 2457              	.LVL212:
 289:/home/hkh/git/eapidk-code-r76-trunk/apps/EeePProg/linux/../EeePDB.c ****       EeePCreateNewBuffer,
 2458              		.loc 1 289 3 is_stmt 0 discriminator 1 view .LVU678
 2459 0b4c D0009FE5 		ldr	r0, .L157+180
 2460              	.LVL213:
 289:/home/hkh/git/eapidk-code-r76-trunk/apps/EeePProg/linux/../EeePDB.c ****       EeePCreateNewBuffer,
 2461              		.loc 1 289 3 discriminator 1 view .LVU679
 2462 0b50 213100E3 		movw	r3, #289
 2463 0b54 CC209FE5 		ldr	r2, .L157+184
 2464 0b58 CC109FE5 		ldr	r1, .L157+188
 2465              	.LPIC77:
 2466 0b5c 0CC08FE0 		add	ip, pc, ip
 2467              	.LPIC78:
 2468 0b60 00008FE0 		add	r0, pc, r0
 2469              	.LPIC75:
 2470 0b64 02208FE0 		add	r2, pc, r2
 2471              	.LPIC76:
 2472 0b68 01108FE0 		add	r1, pc, r1
 2473 0b6c 95FFFFEA 		b	.L143
 2474              	.L158:
 2475              		.align	2
 2476              	.L157:
 2477 0b70 A0030000 		.word	_GLOBAL_OFFSET_TABLE_-(.LPIC117+8)
 2478 0b74 00000000 		.word	__stack_chk_guard(GOT)
 2479 0b78 4C030000 		.word	.LC19-(.LPIC79+8)
 2480 0b7c B8020000 		.word	_GLOBAL_OFFSET_TABLE_-(.LPIC116+8)
 2481 0b80 30020000 		.word	.LC9-(.LPIC86+8)
ARM GAS  /tmp/ccTXisr2.s 			page 63


 2482 0b84 30020000 		.word	.LC5-(.LPIC87+8)
 2483 0b88 28020000 		.word	.LC10-(.LPIC84+8)
 2484 0b8c 28020000 		.word	.LC3-(.LPIC85+8)
 2485 0b90 0C020000 		.word	.LC27-(.LPIC90+8)
 2486 0b94 0C020000 		.word	.LC5-(.LPIC91+8)
 2487 0b98 0C020000 		.word	.LC25-(.LPIC88+8)
 2488 0b9c 0C020000 		.word	.LC3-(.LPIC89+8)
 2489 0ba0 E0010000 		.word	.LC23-(.LPIC73+8)
 2490 0ba4 E0010000 		.word	.LC5-(.LPIC74+8)
 2491 0ba8 E0010000 		.word	.LC21-(.LPIC71+8)
 2492 0bac E0010000 		.word	.LC3-(.LPIC72+8)
 2493 0bb0 B8010000 		.word	.LC26-(.LPIC82+8)
 2494 0bb4 B8010000 		.word	.LC5-(.LPIC83+8)
 2495 0bb8 B8010000 		.word	.LC25-(.LPIC80+8)
 2496 0bbc B8010000 		.word	.LC3-(.LPIC81+8)
 2497 0bc0 9C010000 		.word	.LC22-(.LPIC69+8)
 2498 0bc4 9C010000 		.word	.LC5-(.LPIC70+8)
 2499 0bc8 9C010000 		.word	.LC21-(.LPIC67+8)
 2500 0bcc 9C010000 		.word	.LC3-(.LPIC68+8)
 2501 0bd0 84010000 		.word	.LC28-(.LPIC94+8)
 2502 0bd4 84010000 		.word	.LC5-(.LPIC95+8)
 2503 0bd8 84010000 		.word	.LC25-(.LPIC92+8)
 2504 0bdc 84010000 		.word	.LC3-(.LPIC93+8)
 2505 0be0 68010000 		.word	.LC9-(.LPIC98+8)
 2506 0be4 64010000 		.word	.LC3-(.LPIC97+8)
 2507 0be8 60010000 		.word	.LC5-(.LPIC99+8)
 2508 0bec 58010000 		.word	.LC10-(.LPIC96+8)
 2509 0bf0 48010000 		.word	.LC29-(.LPIC102+8)
 2510 0bf4 48010000 		.word	.LC25-(.LPIC100+8)
 2511 0bf8 14010000 		.word	.LC9-(.LPIC110+8)
 2512 0bfc 10010000 		.word	.LC3-(.LPIC109+8)
 2513 0c00 0C010000 		.word	.LC5-(.LPIC111+8)
 2514 0c04 04010000 		.word	.LC10-(.LPIC108+8)
 2515 0c08 F4000000 		.word	.LC31-(.LPIC114+8)
 2516 0c0c F4000000 		.word	.LC25-(.LPIC112+8)
 2517 0c10 DC000000 		.word	.LC30-(.LPIC106+8)
 2518 0c14 DC000000 		.word	.LC5-(.LPIC107+8)
 2519 0c18 DC000000 		.word	.LC25-(.LPIC104+8)
 2520 0c1c DC000000 		.word	.LC3-(.LPIC105+8)
 2521 0c20 BC000000 		.word	.LC24-(.LPIC77+8)
 2522 0c24 BC000000 		.word	.LC5-(.LPIC78+8)
 2523 0c28 BC000000 		.word	.LC21-(.LPIC75+8)
 2524 0c2c BC000000 		.word	.LC3-(.LPIC76+8)
 2525              		.cfi_endproc
 2526              	.LFE10:
 2528              		.section	.rodata.str1.4
 2529              		.align	2
 2530              	.LC32:
 2531 0454 45656550 		.ascii	"EeePMapBuffer\000"
 2531      4D617042 
 2531      75666665 
 2531      7200
 2532 0462 0000     		.align	2
 2533              	.LC33:
 2534 0464 45656550 		.ascii	"EeePGetFirstDB(BHandel, &pCurBlock, &MaxDeviceLen)\000"
 2534      47657446 
 2534      69727374 
ARM GAS  /tmp/ccTXisr2.s 			page 64


 2534      44422842 
 2534      48616E64 
 2535 0497 00       		.align	2
 2536              	.LC34:
 2537 0498 28437572 		.ascii	"(CurOffset>MaxDeviceLen)\000"
 2537      4F666673 
 2537      65743E4D 
 2537      61784465 
 2537      76696365 
 2538 04b1 000000   		.align	2
 2539              	.LC35:
 2540 04b4 4D6F7265 		.ascii	"More than 1 Empty Block in CRC Not Supported\000"
 2540      20746861 
 2540      6E203120 
 2540      456D7074 
 2540      7920426C 
 2541 04e1 000000   		.align	2
 2542              	.LC36:
 2543 04e4 4D6F7265 		.ascii	"More than 1 CRC Block Not Supported\000"
 2543      20746861 
 2543      6E203120 
 2543      43524320 
 2543      426C6F63 
 2544              		.text
 2545              		.align	2
 2546              		.global	EeePMapBuffer
 2547              		.syntax unified
 2548              		.arm
 2549              		.fpu vfpv3
 2551              	EeePMapBuffer:
 2552              	.LVL214:
 2553              	.LFB13:
 433:/home/hkh/git/eapidk-code-r76-trunk/apps/EeePProg/linux/../EeePDB.c **** 
 434:/home/hkh/git/eapidk-code-r76-trunk/apps/EeePProg/linux/../EeePDB.c **** EApiStatus_t
 435:/home/hkh/git/eapidk-code-r76-trunk/apps/EeePProg/linux/../EeePDB.c **** EeePMapBuffer(
 436:/home/hkh/git/eapidk-code-r76-trunk/apps/EeePProg/linux/../EeePDB.c ****     EeePHandel_t     BHandel,
 437:/home/hkh/git/eapidk-code-r76-trunk/apps/EeePProg/linux/../EeePDB.c ****     EeePBufferMap_t *pBufMap
 438:/home/hkh/git/eapidk-code-r76-trunk/apps/EeePProg/linux/../EeePDB.c ****     )
 439:/home/hkh/git/eapidk-code-r76-trunk/apps/EeePProg/linux/../EeePDB.c **** {
 2554              		.loc 1 439 1 is_stmt 1 view -0
 2555              		.cfi_startproc
 2556              		@ args = 0, pretend = 0, frame = 16
 2557              		@ frame_needed = 0, uses_anonymous_args = 0
 2558              		.loc 1 439 1 is_stmt 0 view .LVU681
 2559 0c30 C4229FE5 		ldr	r2, .L199
 2560 0c34 C4329FE5 		ldr	r3, .L199+4
 2561 0c38 F0412DE9 		push	{r4, r5, r6, r7, r8, lr}
 2562              		.cfi_def_cfa_offset 24
 2563              		.cfi_offset 4, -24
 2564              		.cfi_offset 5, -20
 2565              		.cfi_offset 6, -16
 2566              		.cfi_offset 7, -12
 2567              		.cfi_offset 8, -8
 2568              		.cfi_offset 14, -4
 440:/home/hkh/git/eapidk-code-r76-trunk/apps/EeePProg/linux/../EeePDB.c ****   DBlockIdHdr_t    *pCurBlock       ;
 441:/home/hkh/git/eapidk-code-r76-trunk/apps/EeePProg/linux/../EeePDB.c ****   size_t         CurOffset, MaxDeviceLen;
 442:/home/hkh/git/eapidk-code-r76-trunk/apps/EeePProg/linux/../EeePDB.c ****   EApiStatus_t StatusCode=EAPI_STATUS_SUCCESS;
ARM GAS  /tmp/ccTXisr2.s 			page 65


 443:/home/hkh/git/eapidk-code-r76-trunk/apps/EeePProg/linux/../EeePDB.c **** 
 444:/home/hkh/git/eapidk-code-r76-trunk/apps/EeePProg/linux/../EeePDB.c **** 
 445:/home/hkh/git/eapidk-code-r76-trunk/apps/EeePProg/linux/../EeePDB.c **** 
 446:/home/hkh/git/eapidk-code-r76-trunk/apps/EeePProg/linux/../EeePDB.c ****   EAPI_APP_ASSERT_PARAMATER_NULL(
 2569              		.loc 1 446 3 view .LVU682
 2570 0c3c 004050E2 		subs	r4, r0, #0
 439:/home/hkh/git/eapidk-code-r76-trunk/apps/EeePProg/linux/../EeePDB.c ****   DBlockIdHdr_t    *pCurBlock       ;
 2571              		.loc 1 439 1 view .LVU683
 2572              	.LPIC148:
 2573 0c40 02208FE0 		add	r2, pc, r2
 2574 0c44 20D04DE2 		sub	sp, sp, #32
 2575              		.cfi_def_cfa_offset 56
 439:/home/hkh/git/eapidk-code-r76-trunk/apps/EeePProg/linux/../EeePDB.c ****   DBlockIdHdr_t    *pCurBlock       ;
 2576              		.loc 1 439 1 view .LVU684
 2577 0c48 033092E7 		ldr	r3, [r2, r3]
 2578 0c4c 003093E5 		ldr	r3, [r3]
 2579 0c50 1C308DE5 		str	r3, [sp, #28]
 2580 0c54 0030A0E3 		mov	r3, #0
 440:/home/hkh/git/eapidk-code-r76-trunk/apps/EeePProg/linux/../EeePDB.c ****   DBlockIdHdr_t    *pCurBlock       ;
 2581              		.loc 1 440 3 is_stmt 1 view .LVU685
 441:/home/hkh/git/eapidk-code-r76-trunk/apps/EeePProg/linux/../EeePDB.c ****   EApiStatus_t StatusCode=EAPI_STATUS_SUCCESS;
 2582              		.loc 1 441 3 view .LVU686
 442:/home/hkh/git/eapidk-code-r76-trunk/apps/EeePProg/linux/../EeePDB.c **** 
 2583              		.loc 1 442 3 view .LVU687
 2584              	.LVL215:
 2585              		.loc 1 446 3 view .LVU688
 2586 0c58 8500000A 		beq	.L191
 2587              		.loc 1 446 3 discriminator 2 view .LVU689
 447:/home/hkh/git/eapidk-code-r76-trunk/apps/EeePProg/linux/../EeePDB.c ****       EeePMapBuffer,
 448:/home/hkh/git/eapidk-code-r76-trunk/apps/EeePProg/linux/../EeePDB.c ****       EAPI_STATUS_INVALID_PARAMETER,
 449:/home/hkh/git/eapidk-code-r76-trunk/apps/EeePProg/linux/../EeePDB.c ****       BHandel
 450:/home/hkh/git/eapidk-code-r76-trunk/apps/EeePProg/linux/../EeePDB.c ****     );
 2588              		.loc 1 450 6 discriminator 2 view .LVU690
 451:/home/hkh/git/eapidk-code-r76-trunk/apps/EeePProg/linux/../EeePDB.c **** 
 452:/home/hkh/git/eapidk-code-r76-trunk/apps/EeePProg/linux/../EeePDB.c ****   memset(pBufMap, 0x00, sizeof(*pBufMap));
 2589              		.loc 1 452 3 discriminator 2 view .LVU691
 2590 0c5c 0030A0E3 		mov	r3, #0
 453:/home/hkh/git/eapidk-code-r76-trunk/apps/EeePProg/linux/../EeePDB.c **** 
 454:/home/hkh/git/eapidk-code-r76-trunk/apps/EeePProg/linux/../EeePDB.c ****   pBufMap->pCmnHdr=BHandel;
 2591              		.loc 1 454 19 is_stmt 0 discriminator 2 view .LVU692
 2592 0c60 004081E5 		str	r4, [r1]
 452:/home/hkh/git/eapidk-code-r76-trunk/apps/EeePProg/linux/../EeePDB.c **** 
 2593              		.loc 1 452 3 discriminator 2 view .LVU693
 2594 0c64 043081E5 		str	r3, [r1, #4]	@ unaligned
 2595 0c68 0150A0E1 		mov	r5, r1
 2596 0c6c 083081E5 		str	r3, [r1, #8]	@ unaligned
 2597              		.loc 1 454 3 is_stmt 1 discriminator 2 view .LVU694
 455:/home/hkh/git/eapidk-code-r76-trunk/apps/EeePProg/linux/../EeePDB.c **** 
 456:/home/hkh/git/eapidk-code-r76-trunk/apps/EeePProg/linux/../EeePDB.c ****   EAPI_APP_RETURN_ERROR_IF(
 2598              		.loc 1 456 3 discriminator 2 view .LVU695
 2599 0c70 0130D4E5 		ldrb	r3, [r4, #1]	@ zero_extendqisi2
 2600 0c74 330053E3 		cmp	r3, #51
 2601 0c78 1900000A 		beq	.L192
 2602              	.L162:
 2603              		.loc 1 456 3 discriminator 2 view .LVU696
 2604              		.loc 1 456 3 discriminator 2 view .LVU697
 2605 0c7c 80C29FE5 		ldr	ip, .L199+8
ARM GAS  /tmp/ccTXisr2.s 			page 66


 2606 0c80 0F7CE0E3 		mvn	r7, #3840
 2607 0c84 7C029FE5 		ldr	r0, .L199+12
 2608              	.LVL216:
 2609              		.loc 1 456 3 is_stmt 0 discriminator 2 view .LVU698
 2610 0c88 723FA0E3 		mov	r3, #456
 2611 0c8c 78229FE5 		ldr	r2, .L199+16
 2612 0c90 78129FE5 		ldr	r1, .L199+20
 2613              	.LVL217:
 2614              		.loc 1 456 3 discriminator 2 view .LVU699
 2615              	.LPIC125:
 2616 0c94 0CC08FE0 		add	ip, pc, ip
 2617              	.LPIC126:
 2618 0c98 00008FE0 		add	r0, pc, r0
 2619              	.LPIC123:
 2620 0c9c 02208FE0 		add	r2, pc, r2
 2621              	.LPIC124:
 2622 0ca0 01108FE0 		add	r1, pc, r1
 2623              	.LVL218:
 2624              	.L190:
 2625              		.loc 1 456 3 discriminator 2 view .LVU700
 2626 0ca4 01108DE9 		stmib	sp, {r0, ip}
 2627 0ca8 4500A0E3 		mov	r0, #69
 2628 0cac 00708DE5 		str	r7, [sp]
 2629 0cb0 FEFFFFEB 		bl	siFormattedMessage_SC(PLT)
 2630              	.LVL219:
 2631              		.loc 1 456 3 is_stmt 1 discriminator 2 view .LVU701
 2632              		.loc 1 456 3 discriminator 2 view .LVU702
 2633              		.loc 1 456 3 discriminator 2 view .LVU703
 2634              	.L167:
 2635              	.L161:
 2636              	.L159:
 439:/home/hkh/git/eapidk-code-r76-trunk/apps/EeePProg/linux/../EeePDB.c ****   DBlockIdHdr_t    *pCurBlock       ;
 2637              		.loc 1 439 1 is_stmt 0 view .LVU704
 2638 0cb4 58229FE5 		ldr	r2, .L199+24
 457:/home/hkh/git/eapidk-code-r76-trunk/apps/EeePProg/linux/../EeePDB.c ****       EeePMapBuffer,
 458:/home/hkh/git/eapidk-code-r76-trunk/apps/EeePProg/linux/../EeePDB.c ****       memcmp(
 459:/home/hkh/git/eapidk-code-r76-trunk/apps/EeePProg/linux/../EeePDB.c ****           pBufMap->pCmnHdr->EepId, 
 460:/home/hkh/git/eapidk-code-r76-trunk/apps/EeePProg/linux/../EeePDB.c ****           EEEP_EEPROM_MARKER, 
 461:/home/hkh/git/eapidk-code-r76-trunk/apps/EeePProg/linux/../EeePDB.c ****           STRLEN(EEEP_EEPROM_MARKER)
 462:/home/hkh/git/eapidk-code-r76-trunk/apps/EeePProg/linux/../EeePDB.c ****         ),
 463:/home/hkh/git/eapidk-code-r76-trunk/apps/EeePProg/linux/../EeePDB.c ****       EAPI_STATUS_ERROR,
 464:/home/hkh/git/eapidk-code-r76-trunk/apps/EeePProg/linux/../EeePDB.c ****       "Invalid EeeP Buffer"
 465:/home/hkh/git/eapidk-code-r76-trunk/apps/EeePProg/linux/../EeePDB.c ****     );
 466:/home/hkh/git/eapidk-code-r76-trunk/apps/EeePProg/linux/../EeePDB.c **** 
 467:/home/hkh/git/eapidk-code-r76-trunk/apps/EeePProg/linux/../EeePDB.c ****   DO(EeePGetFirstDB(BHandel, &pCurBlock, &MaxDeviceLen));
 468:/home/hkh/git/eapidk-code-r76-trunk/apps/EeePProg/linux/../EeePDB.c **** 
 469:/home/hkh/git/eapidk-code-r76-trunk/apps/EeePProg/linux/../EeePDB.c ****   for(;pCurBlock!=NULL;pCurBlock=GetNextBlock(pCurBlock))
 470:/home/hkh/git/eapidk-code-r76-trunk/apps/EeePProg/linux/../EeePDB.c ****   {
 471:/home/hkh/git/eapidk-code-r76-trunk/apps/EeePProg/linux/../EeePDB.c ****     CurOffset=EAPI_GET_PTR_OFFSET(pCurBlock, BHandel);
 472:/home/hkh/git/eapidk-code-r76-trunk/apps/EeePProg/linux/../EeePDB.c **** #if TEST_EEEPDB
 473:/home/hkh/git/eapidk-code-r76-trunk/apps/EeePProg/linux/../EeePDB.c ****     EAPI_MSG_OUT(
 474:/home/hkh/git/eapidk-code-r76-trunk/apps/EeePProg/linux/../EeePDB.c ****         TEXT("LOG: BLOCK ID  : 0x%02")TEXT(PRIX8)TEXT("\n")
 475:/home/hkh/git/eapidk-code-r76-trunk/apps/EeePProg/linux/../EeePDB.c ****         TEXT("LOG:   Length  : 0x%04lX\n")
 476:/home/hkh/git/eapidk-code-r76-trunk/apps/EeePProg/linux/../EeePDB.c ****         TEXT("LOG:   Offset  : 0x%08lX\n"),
 477:/home/hkh/git/eapidk-code-r76-trunk/apps/EeePProg/linux/../EeePDB.c ****         pCurBlock->DBlockId,
 478:/home/hkh/git/eapidk-code-r76-trunk/apps/EeePProg/linux/../EeePDB.c ****         (unsigned long)GetBlockLength(pCurBlock),
 479:/home/hkh/git/eapidk-code-r76-trunk/apps/EeePProg/linux/../EeePDB.c ****         (unsigned long)CurOffset
ARM GAS  /tmp/ccTXisr2.s 			page 67


 480:/home/hkh/git/eapidk-code-r76-trunk/apps/EeePProg/linux/../EeePDB.c ****       );
 481:/home/hkh/git/eapidk-code-r76-trunk/apps/EeePProg/linux/../EeePDB.c ****     PrintHexAsciiTable(pCurBlock, GetBlockLength(pCurBlock), BHandel, NULL);
 482:/home/hkh/git/eapidk-code-r76-trunk/apps/EeePProg/linux/../EeePDB.c **** #endif
 483:/home/hkh/git/eapidk-code-r76-trunk/apps/EeePProg/linux/../EeePDB.c ****     EAPI_APP_RETURN_ERROR_IF_S(
 484:/home/hkh/git/eapidk-code-r76-trunk/apps/EeePProg/linux/../EeePDB.c ****       EeePMapBuffer    ,
 485:/home/hkh/git/eapidk-code-r76-trunk/apps/EeePProg/linux/../EeePDB.c ****       (CurOffset>MaxDeviceLen),
 486:/home/hkh/git/eapidk-code-r76-trunk/apps/EeePProg/linux/../EeePDB.c ****       EAPI_STATUS_ERROR
 487:/home/hkh/git/eapidk-code-r76-trunk/apps/EeePProg/linux/../EeePDB.c ****       );
 488:/home/hkh/git/eapidk-code-r76-trunk/apps/EeePProg/linux/../EeePDB.c ****     switch(pCurBlock->DBlockId){
 489:/home/hkh/git/eapidk-code-r76-trunk/apps/EeePProg/linux/../EeePDB.c ****       case EEEP_BLOCK_ID_UNUSED:
 490:/home/hkh/git/eapidk-code-r76-trunk/apps/EeePProg/linux/../EeePDB.c ****         if(GetNextBlock(pCurBlock)==NULL) break;
 491:/home/hkh/git/eapidk-code-r76-trunk/apps/EeePProg/linux/../EeePDB.c ****         EAPI_APP_RETURN_ERROR_IF(
 492:/home/hkh/git/eapidk-code-r76-trunk/apps/EeePProg/linux/../EeePDB.c ****             EeePMapBuffer,
 493:/home/hkh/git/eapidk-code-r76-trunk/apps/EeePProg/linux/../EeePDB.c ****             pBufMap->pEmptyBlock!=NULL,
 494:/home/hkh/git/eapidk-code-r76-trunk/apps/EeePProg/linux/../EeePDB.c ****             EAPI_STATUS_ERROR,
 495:/home/hkh/git/eapidk-code-r76-trunk/apps/EeePProg/linux/../EeePDB.c ****             "More than 1 Empty Block in CRC Not Supported"
 496:/home/hkh/git/eapidk-code-r76-trunk/apps/EeePProg/linux/../EeePDB.c ****           );
 497:/home/hkh/git/eapidk-code-r76-trunk/apps/EeePProg/linux/../EeePDB.c ****         pBufMap->pEmptyBlock=pCurBlock;
 498:/home/hkh/git/eapidk-code-r76-trunk/apps/EeePProg/linux/../EeePDB.c ****         break;
 499:/home/hkh/git/eapidk-code-r76-trunk/apps/EeePProg/linux/../EeePDB.c ****       case EEEP_BLOCK_ID_CRC_CHK:
 500:/home/hkh/git/eapidk-code-r76-trunk/apps/EeePProg/linux/../EeePDB.c ****         EAPI_APP_RETURN_ERROR_IF(
 501:/home/hkh/git/eapidk-code-r76-trunk/apps/EeePProg/linux/../EeePDB.c ****             EeePMapBuffer,
 502:/home/hkh/git/eapidk-code-r76-trunk/apps/EeePProg/linux/../EeePDB.c ****             pBufMap->pEeePCRCBlock!=NULL,
 503:/home/hkh/git/eapidk-code-r76-trunk/apps/EeePProg/linux/../EeePDB.c ****             EAPI_STATUS_ERROR,
 504:/home/hkh/git/eapidk-code-r76-trunk/apps/EeePProg/linux/../EeePDB.c ****             "More than 1 CRC Block Not Supported"
 505:/home/hkh/git/eapidk-code-r76-trunk/apps/EeePProg/linux/../EeePDB.c ****           );
 506:/home/hkh/git/eapidk-code-r76-trunk/apps/EeePProg/linux/../EeePDB.c ****         pBufMap->pEeePCRCBlock=(EeePCRC16ChkBlock_t *)pCurBlock;
 507:/home/hkh/git/eapidk-code-r76-trunk/apps/EeePProg/linux/../EeePDB.c ****         break;
 508:/home/hkh/git/eapidk-code-r76-trunk/apps/EeePProg/linux/../EeePDB.c ****       case EEEP_BLOCK_ID_IGNORE:
 509:/home/hkh/git/eapidk-code-r76-trunk/apps/EeePProg/linux/../EeePDB.c ****         pCurBlock=NULL;
 510:/home/hkh/git/eapidk-code-r76-trunk/apps/EeePProg/linux/../EeePDB.c ****         break;
 511:/home/hkh/git/eapidk-code-r76-trunk/apps/EeePProg/linux/../EeePDB.c ****       default:
 512:/home/hkh/git/eapidk-code-r76-trunk/apps/EeePProg/linux/../EeePDB.c ****         break;
 513:/home/hkh/git/eapidk-code-r76-trunk/apps/EeePProg/linux/../EeePDB.c ****     }
 514:/home/hkh/git/eapidk-code-r76-trunk/apps/EeePProg/linux/../EeePDB.c ****   }
 515:/home/hkh/git/eapidk-code-r76-trunk/apps/EeePProg/linux/../EeePDB.c **** 
 516:/home/hkh/git/eapidk-code-r76-trunk/apps/EeePProg/linux/../EeePDB.c **** EAPI_APP_ASSERT_EXIT
 517:/home/hkh/git/eapidk-code-r76-trunk/apps/EeePProg/linux/../EeePDB.c ****   return StatusCode;
 518:/home/hkh/git/eapidk-code-r76-trunk/apps/EeePProg/linux/../EeePDB.c **** }
 2639              		.loc 1 518 1 view .LVU705
 2640 0cb8 40329FE5 		ldr	r3, .L199+4
 439:/home/hkh/git/eapidk-code-r76-trunk/apps/EeePProg/linux/../EeePDB.c ****   DBlockIdHdr_t    *pCurBlock       ;
 2641              		.loc 1 439 1 view .LVU706
 2642              	.LPIC147:
 2643 0cbc 02208FE0 		add	r2, pc, r2
 2644              		.loc 1 518 1 view .LVU707
 2645 0cc0 033092E7 		ldr	r3, [r2, r3]
 2646 0cc4 002093E5 		ldr	r2, [r3]
 2647 0cc8 1C309DE5 		ldr	r3, [sp, #28]
 2648 0ccc 022033E0 		eors	r2, r3, r2
 2649 0cd0 0030A0E3 		mov	r3, #0
 2650 0cd4 8700001A 		bne	.L193
 2651 0cd8 0700A0E1 		mov	r0, r7
 2652 0cdc 20D08DE2 		add	sp, sp, #32
 2653              		.cfi_remember_state
 2654              		.cfi_def_cfa_offset 24
 2655              		@ sp needed
ARM GAS  /tmp/ccTXisr2.s 			page 68


 2656 0ce0 F081BDE8 		pop	{r4, r5, r6, r7, r8, pc}
 2657              	.LVL220:
 2658              	.L192:
 2659              		.cfi_restore_state
 456:/home/hkh/git/eapidk-code-r76-trunk/apps/EeePProg/linux/../EeePDB.c ****       EeePMapBuffer,
 2660              		.loc 1 456 3 discriminator 2 view .LVU708
 2661 0ce4 0230D4E5 		ldrb	r3, [r4, #2]	@ zero_extendqisi2
 2662 0ce8 500053E3 		cmp	r3, #80
 2663 0cec E2FFFF1A 		bne	.L162
 2664              	.LVL221:
 2665              	.LBB228:
 2666              	.LBI228:
 435:/home/hkh/git/eapidk-code-r76-trunk/apps/EeePProg/linux/../EeePDB.c ****     EeePHandel_t     BHandel,
 2667              		.loc 1 435 1 is_stmt 1 discriminator 2 view .LVU709
 2668              	.LBB229:
 456:/home/hkh/git/eapidk-code-r76-trunk/apps/EeePProg/linux/../EeePDB.c ****       EeePMapBuffer,
 2669              		.loc 1 456 3 discriminator 2 view .LVU710
 465:/home/hkh/git/eapidk-code-r76-trunk/apps/EeePProg/linux/../EeePDB.c **** 
 2670              		.loc 1 465 6 discriminator 2 view .LVU711
 467:/home/hkh/git/eapidk-code-r76-trunk/apps/EeePProg/linux/../EeePDB.c **** 
 2671              		.loc 1 467 3 discriminator 2 view .LVU712
 467:/home/hkh/git/eapidk-code-r76-trunk/apps/EeePProg/linux/../EeePDB.c **** 
 2672              		.loc 1 467 3 discriminator 2 view .LVU713
 2673 0cf0 18208DE2 		add	r2, sp, #24
 2674 0cf4 14108DE2 		add	r1, sp, #20
 2675 0cf8 FEFFFFEB 		bl	EeePGetFirstDB(PLT)
 2676              	.LVL222:
 467:/home/hkh/git/eapidk-code-r76-trunk/apps/EeePProg/linux/../EeePDB.c **** 
 2677              		.loc 1 467 3 discriminator 2 view .LVU714
 2678 0cfc 007050E2 		subs	r7, r0, #0
 2679 0d00 4D00001A 		bne	.L194
 469:/home/hkh/git/eapidk-code-r76-trunk/apps/EeePProg/linux/../EeePDB.c ****   {
 2680              		.loc 1 469 17 view .LVU715
 2681 0d04 14009DE5 		ldr	r0, [sp, #20]
 2682              	.LVL223:
 469:/home/hkh/git/eapidk-code-r76-trunk/apps/EeePProg/linux/../EeePDB.c ****   {
 2683              		.loc 1 469 17 is_stmt 0 view .LVU716
 2684 0d08 000050E3 		cmp	r0, #0
 2685 0d0c E8FFFF0A 		beq	.L159
 483:/home/hkh/git/eapidk-code-r76-trunk/apps/EeePProg/linux/../EeePDB.c ****       EeePMapBuffer    ,
 2686              		.loc 1 483 5 view .LVU717
 2687 0d10 18309DE5 		ldr	r3, [sp, #24]
 471:/home/hkh/git/eapidk-code-r76-trunk/apps/EeePProg/linux/../EeePDB.c **** #if TEST_EEEPDB
 2688              		.loc 1 471 15 view .LVU718
 2689 0d14 042040E0 		sub	r2, r0, r4
 2690              	.LBB230:
 2691              	.LBB231:
 167:/home/hkh/git/eapidk-code-r76-trunk/apps/EeePProg/linux/../EeePDB.c ****     case EEEP_OFFSET_VALUE_EOL:
 2692              		.loc 1 167 3 view .LVU719
 2693 0d18 FF6F0FE3 		movw	r6, #65535
 2694              	.LBE231:
 2695              	.LBE230:
 471:/home/hkh/git/eapidk-code-r76-trunk/apps/EeePProg/linux/../EeePDB.c **** #if TEST_EEEPDB
 2696              		.loc 1 471 5 is_stmt 1 view .LVU720
 2697              	.LVL224:
 483:/home/hkh/git/eapidk-code-r76-trunk/apps/EeePProg/linux/../EeePDB.c ****       EeePMapBuffer    ,
 2698              		.loc 1 483 5 view .LVU721
ARM GAS  /tmp/ccTXisr2.s 			page 69


 2699 0d1c 030052E1 		cmp	r2, r3
 2700 0d20 1600008A 		bhi	.L195
 2701              	.LVL225:
 2702              	.L168:
 483:/home/hkh/git/eapidk-code-r76-trunk/apps/EeePProg/linux/../EeePDB.c ****       EeePMapBuffer    ,
 2703              		.loc 1 483 5 view .LVU722
 487:/home/hkh/git/eapidk-code-r76-trunk/apps/EeePProg/linux/../EeePDB.c ****     switch(pCurBlock->DBlockId){
 2704              		.loc 1 487 8 view .LVU723
 488:/home/hkh/git/eapidk-code-r76-trunk/apps/EeePProg/linux/../EeePDB.c ****       case EEEP_BLOCK_ID_UNUSED:
 2705              		.loc 1 488 5 view .LVU724
 488:/home/hkh/git/eapidk-code-r76-trunk/apps/EeePProg/linux/../EeePDB.c ****       case EEEP_BLOCK_ID_UNUSED:
 2706              		.loc 1 488 21 is_stmt 0 view .LVU725
 2707 0d24 0030D0E5 		ldrb	r3, [r0]	@ zero_extendqisi2
 488:/home/hkh/git/eapidk-code-r76-trunk/apps/EeePProg/linux/../EeePDB.c ****       case EEEP_BLOCK_ID_UNUSED:
 2708              		.loc 1 488 5 view .LVU726
 2709 0d28 F20053E3 		cmp	r3, #242
 2710 0d2c 3000000A 		beq	.L169
 2711 0d30 FF0053E3 		cmp	r3, #255
 2712 0d34 1C00000A 		beq	.L170
 2713 0d38 000053E3 		cmp	r3, #0
 2714 0d3c 3200000A 		beq	.L196
 2715              	.L171:
 469:/home/hkh/git/eapidk-code-r76-trunk/apps/EeePProg/linux/../EeePDB.c ****   {
 2716              		.loc 1 469 34 view .LVU727
 2717 0d40 14809DE5 		ldr	r8, [sp, #20]
 2718              	.L174:
 469:/home/hkh/git/eapidk-code-r76-trunk/apps/EeePProg/linux/../EeePDB.c ****   {
 2719              		.loc 1 469 33 is_stmt 1 view .LVU728
 2720              	.LVL226:
 2721              	.LBB237:
 2722              	.LBI237:
 155:/home/hkh/git/eapidk-code-r76-trunk/apps/EeePProg/linux/../EeePDB.c ****     DBlockIdHdr_t *pCurBlock
 2723              		.loc 1 155 1 view .LVU729
 2724              	.LBB238:
 159:/home/hkh/git/eapidk-code-r76-trunk/apps/EeePProg/linux/../EeePDB.c ****   size_t stBlockLength;
 2725              		.loc 1 159 3 view .LVU730
 160:/home/hkh/git/eapidk-code-r76-trunk/apps/EeePProg/linux/../EeePDB.c ****   EAPI_APP_ASSERT_PARAMATER_NULL(
 2726              		.loc 1 160 3 view .LVU731
 161:/home/hkh/git/eapidk-code-r76-trunk/apps/EeePProg/linux/../EeePDB.c ****       GetNextBlock,
 2727              		.loc 1 161 3 view .LVU732
 2728 0d44 000058E3 		cmp	r8, #0
 2729 0d48 1900000A 		beq	.L177
 161:/home/hkh/git/eapidk-code-r76-trunk/apps/EeePProg/linux/../EeePDB.c ****       GetNextBlock,
 2730              		.loc 1 161 3 view .LVU733
 165:/home/hkh/git/eapidk-code-r76-trunk/apps/EeePProg/linux/../EeePDB.c ****   stBlockLength=GetBlockLength(pCurBlock);
 2731              		.loc 1 165 6 view .LVU734
 166:/home/hkh/git/eapidk-code-r76-trunk/apps/EeePProg/linux/../EeePDB.c ****   switch(stBlockLength){
 2732              		.loc 1 166 3 view .LVU735
 2733              	.LVL227:
 2734              	.LBB239:
 2735              	.LBI239:
 144:/home/hkh/git/eapidk-code-r76-trunk/apps/EeePProg/linux/../EeePDB.c ****     const void * pcvBHandel
 2736              		.loc 1 144 1 view .LVU736
 2737              	.LBB240:
 148:/home/hkh/git/eapidk-code-r76-trunk/apps/EeePProg/linux/../EeePDB.c ****   if(!pcvBHandel) return stBlockSize;
 2738              		.loc 1 148 3 view .LVU737
 149:/home/hkh/git/eapidk-code-r76-trunk/apps/EeePProg/linux/../EeePDB.c **** 
ARM GAS  /tmp/ccTXisr2.s 			page 70


 2739              		.loc 1 149 3 view .LVU738
 2740              	.LBB241:
 2741              	.LBI241:
 144:/home/hkh/git/eapidk-code-r76-trunk/apps/EeePProg/linux/../EeePDB.c ****     const void * pcvBHandel
 2742              		.loc 1 144 1 view .LVU739
 2743              	.LBB242:
 151:/home/hkh/git/eapidk-code-r76-trunk/apps/EeePProg/linux/../EeePDB.c ****   return stBlockSize;
 2744              		.loc 1 151 3 view .LVU740
 151:/home/hkh/git/eapidk-code-r76-trunk/apps/EeePProg/linux/../EeePDB.c ****   return stBlockSize;
 2745              		.loc 1 151 15 is_stmt 0 view .LVU741
 2746 0d4c 010088E2 		add	r0, r8, #1
 2747 0d50 FEFFFFEB 		bl	EeeP_Get16BitValue_BE(PLT)
 2748              	.LVL228:
 151:/home/hkh/git/eapidk-code-r76-trunk/apps/EeePProg/linux/../EeePDB.c ****   return stBlockSize;
 2749              		.loc 1 151 15 view .LVU742
 2750              	.LBE242:
 2751              	.LBE241:
 2752              	.LBE240:
 2753              	.LBE239:
 167:/home/hkh/git/eapidk-code-r76-trunk/apps/EeePProg/linux/../EeePDB.c ****     case EEEP_OFFSET_VALUE_EOL:
 2754              		.loc 1 167 3 view .LVU743
 2755 0d54 000050E3 		cmp	r0, #0
 2756              	.LBB246:
 2757              	.LBB245:
 2758              	.LBB244:
 2759              	.LBB243:
 151:/home/hkh/git/eapidk-code-r76-trunk/apps/EeePProg/linux/../EeePDB.c ****   return stBlockSize;
 2760              		.loc 1 151 81 view .LVU744
 2761 0d58 8030A0E1 		lsl	r3, r0, #1
 2762              	.LVL229:
 152:/home/hkh/git/eapidk-code-r76-trunk/apps/EeePProg/linux/../EeePDB.c **** }
 2763              		.loc 1 152 3 is_stmt 1 view .LVU745
 152:/home/hkh/git/eapidk-code-r76-trunk/apps/EeePProg/linux/../EeePDB.c **** }
 2764              		.loc 1 152 3 is_stmt 0 view .LVU746
 2765              	.LBE243:
 2766              	.LBE244:
 2767              	.LBE245:
 2768              	.LBE246:
 167:/home/hkh/git/eapidk-code-r76-trunk/apps/EeePProg/linux/../EeePDB.c ****     case EEEP_OFFSET_VALUE_EOL:
 2769              		.loc 1 167 3 is_stmt 1 view .LVU747
 2770 0d5c D4FFFF0A 		beq	.L159
 2771 0d60 060050E1 		cmp	r0, r6
 2772 0d64 D2FFFF0A 		beq	.L159
 171:/home/hkh/git/eapidk-code-r76-trunk/apps/EeePProg/linux/../EeePDB.c ****     default:
 2773              		.loc 1 171 7 view .LVU748
 173:/home/hkh/git/eapidk-code-r76-trunk/apps/EeePProg/linux/../EeePDB.c ****           pCurBlock         ,
 2774              		.loc 1 173 7 view .LVU749
 173:/home/hkh/git/eapidk-code-r76-trunk/apps/EeePProg/linux/../EeePDB.c ****           pCurBlock         ,
 2775              		.loc 1 173 17 is_stmt 0 view .LVU750
 2776 0d68 030088E0 		add	r0, r8, r3
 2777              	.LVL230:
 178:/home/hkh/git/eapidk-code-r76-trunk/apps/EeePProg/linux/../EeePDB.c ****       }
 2778              		.loc 1 178 7 is_stmt 1 view .LVU751
 2779              	.LDL11:
 2780              	.LDL12:
 182:/home/hkh/git/eapidk-code-r76-trunk/apps/EeePProg/linux/../EeePDB.c **** }
 2781              		.loc 1 182 3 view .LVU752
ARM GAS  /tmp/ccTXisr2.s 			page 71


 182:/home/hkh/git/eapidk-code-r76-trunk/apps/EeePProg/linux/../EeePDB.c **** }
 2782              		.loc 1 182 3 is_stmt 0 view .LVU753
 2783              	.LBE238:
 2784              	.LBE237:
 483:/home/hkh/git/eapidk-code-r76-trunk/apps/EeePProg/linux/../EeePDB.c ****       EeePMapBuffer    ,
 2785              		.loc 1 483 5 view .LVU754
 2786 0d6c 18309DE5 		ldr	r3, [sp, #24]
 2787              	.LVL231:
 471:/home/hkh/git/eapidk-code-r76-trunk/apps/EeePProg/linux/../EeePDB.c **** #if TEST_EEEPDB
 2788              		.loc 1 471 15 view .LVU755
 2789 0d70 042040E0 		sub	r2, r0, r4
 469:/home/hkh/git/eapidk-code-r76-trunk/apps/EeePProg/linux/../EeePDB.c ****   {
 2790              		.loc 1 469 33 view .LVU756
 2791 0d74 14008DE5 		str	r0, [sp, #20]
 469:/home/hkh/git/eapidk-code-r76-trunk/apps/EeePProg/linux/../EeePDB.c ****   {
 2792              		.loc 1 469 17 is_stmt 1 view .LVU757
 471:/home/hkh/git/eapidk-code-r76-trunk/apps/EeePProg/linux/../EeePDB.c **** #if TEST_EEEPDB
 2793              		.loc 1 471 5 view .LVU758
 2794              	.LVL232:
 483:/home/hkh/git/eapidk-code-r76-trunk/apps/EeePProg/linux/../EeePDB.c ****       EeePMapBuffer    ,
 2795              		.loc 1 483 5 view .LVU759
 2796 0d78 030052E1 		cmp	r2, r3
 2797 0d7c E8FFFF9A 		bls	.L168
 2798              	.LVL233:
 2799              	.L195:
 483:/home/hkh/git/eapidk-code-r76-trunk/apps/EeePProg/linux/../EeePDB.c ****       EeePMapBuffer    ,
 2800              		.loc 1 483 5 view .LVU760
 483:/home/hkh/git/eapidk-code-r76-trunk/apps/EeePProg/linux/../EeePDB.c ****       EeePMapBuffer    ,
 2801              		.loc 1 483 5 view .LVU761
 2802 0d80 90C19FE5 		ldr	ip, .L199+28
 2803 0d84 0F7CE0E3 		mvn	r7, #3840
 2804              	.LVL234:
 483:/home/hkh/git/eapidk-code-r76-trunk/apps/EeePProg/linux/../EeePDB.c ****       EeePMapBuffer    ,
 2805              		.loc 1 483 5 is_stmt 0 view .LVU762
 2806 0d88 8C019FE5 		ldr	r0, .L199+32
 2807 0d8c E33100E3 		movw	r3, #483
 2808 0d90 88219FE5 		ldr	r2, .L199+36
 2809 0d94 88119FE5 		ldr	r1, .L199+40
 2810              	.LPIC133:
 2811 0d98 0CC08FE0 		add	ip, pc, ip
 2812              	.LPIC134:
 2813 0d9c 00008FE0 		add	r0, pc, r0
 2814              	.LPIC131:
 2815 0da0 02208FE0 		add	r2, pc, r2
 2816              	.LPIC132:
 2817 0da4 01108FE0 		add	r1, pc, r1
 2818 0da8 BDFFFFEA 		b	.L190
 2819              	.LVL235:
 2820              	.L170:
 509:/home/hkh/git/eapidk-code-r76-trunk/apps/EeePProg/linux/../EeePDB.c ****         break;
 2821              		.loc 1 509 9 is_stmt 1 view .LVU763
 509:/home/hkh/git/eapidk-code-r76-trunk/apps/EeePProg/linux/../EeePDB.c ****         break;
 2822              		.loc 1 509 18 is_stmt 0 view .LVU764
 2823 0dac 0030A0E3 		mov	r3, #0
 2824 0db0 14308DE5 		str	r3, [sp, #20]
 510:/home/hkh/git/eapidk-code-r76-trunk/apps/EeePProg/linux/../EeePDB.c ****       default:
 2825              		.loc 1 510 9 is_stmt 1 view .LVU765
ARM GAS  /tmp/ccTXisr2.s 			page 72


 469:/home/hkh/git/eapidk-code-r76-trunk/apps/EeePProg/linux/../EeePDB.c ****   {
 2826              		.loc 1 469 33 view .LVU766
 2827              	.LVL236:
 2828              	.LBB250:
 155:/home/hkh/git/eapidk-code-r76-trunk/apps/EeePProg/linux/../EeePDB.c ****     DBlockIdHdr_t *pCurBlock
 2829              		.loc 1 155 1 view .LVU767
 2830              	.LBB249:
 159:/home/hkh/git/eapidk-code-r76-trunk/apps/EeePProg/linux/../EeePDB.c ****   size_t stBlockLength;
 2831              		.loc 1 159 3 view .LVU768
 160:/home/hkh/git/eapidk-code-r76-trunk/apps/EeePProg/linux/../EeePDB.c ****   EAPI_APP_ASSERT_PARAMATER_NULL(
 2832              		.loc 1 160 3 view .LVU769
 161:/home/hkh/git/eapidk-code-r76-trunk/apps/EeePProg/linux/../EeePDB.c ****       GetNextBlock,
 2833              		.loc 1 161 3 view .LVU770
 2834              	.L177:
 2835              	.LBB247:
 2836              	.LBI247:
 155:/home/hkh/git/eapidk-code-r76-trunk/apps/EeePProg/linux/../EeePDB.c ****     DBlockIdHdr_t *pCurBlock
 2837              		.loc 1 155 1 view .LVU771
 2838              	.LBB248:
 161:/home/hkh/git/eapidk-code-r76-trunk/apps/EeePProg/linux/../EeePDB.c ****       GetNextBlock,
 2839              		.loc 1 161 3 view .LVU772
 161:/home/hkh/git/eapidk-code-r76-trunk/apps/EeePProg/linux/../EeePDB.c ****       GetNextBlock,
 2840              		.loc 1 161 3 view .LVU773
 2841 0db4 6C119FE5 		ldr	r1, .L199+44
 2842 0db8 00C0A0E3 		mov	ip, #0
 2843 0dbc 68019FE5 		ldr	r0, .L199+48
 2844 0dc0 A130A0E3 		mov	r3, #161
 2845 0dc4 64219FE5 		ldr	r2, .L199+52
 2846              	.LPIC146:
 2847 0dc8 01108FE0 		add	r1, pc, r1
 2848 0dcc 00C08DE5 		str	ip, [sp]
 2849 0dd0 04108DE5 		str	r1, [sp, #4]
 2850              	.LPIC145:
 2851 0dd4 00008FE0 		add	r0, pc, r0
 2852 0dd8 54119FE5 		ldr	r1, .L199+56
 2853              	.LPIC143:
 2854 0ddc 02208FE0 		add	r2, pc, r2
 2855 0de0 08008DE5 		str	r0, [sp, #8]
 2856 0de4 4500A0E3 		mov	r0, #69
 2857              	.LPIC144:
 2858 0de8 01108FE0 		add	r1, pc, r1
 2859 0dec FEFFFFEB 		bl	siFormattedMessage_SC(PLT)
 2860              	.LVL237:
 161:/home/hkh/git/eapidk-code-r76-trunk/apps/EeePProg/linux/../EeePDB.c ****       GetNextBlock,
 2861              		.loc 1 161 3 view .LVU774
 161:/home/hkh/git/eapidk-code-r76-trunk/apps/EeePProg/linux/../EeePDB.c ****       GetNextBlock,
 2862              		.loc 1 161 3 view .LVU775
 161:/home/hkh/git/eapidk-code-r76-trunk/apps/EeePProg/linux/../EeePDB.c ****       GetNextBlock,
 2863              		.loc 1 161 3 view .LVU776
 2864              	.LDL13:
 2865              	.LDL14:
 182:/home/hkh/git/eapidk-code-r76-trunk/apps/EeePProg/linux/../EeePDB.c **** }
 2866              		.loc 1 182 3 view .LVU777
 182:/home/hkh/git/eapidk-code-r76-trunk/apps/EeePProg/linux/../EeePDB.c **** }
 2867              		.loc 1 182 3 is_stmt 0 view .LVU778
 2868              	.LBE248:
 2869              	.LBE247:
ARM GAS  /tmp/ccTXisr2.s 			page 73


 182:/home/hkh/git/eapidk-code-r76-trunk/apps/EeePProg/linux/../EeePDB.c **** }
 2870              		.loc 1 182 3 is_stmt 1 view .LVU779
 182:/home/hkh/git/eapidk-code-r76-trunk/apps/EeePProg/linux/../EeePDB.c **** }
 2871              		.loc 1 182 3 is_stmt 0 view .LVU780
 2872              	.LBE249:
 2873              	.LBE250:
 469:/home/hkh/git/eapidk-code-r76-trunk/apps/EeePProg/linux/../EeePDB.c ****   {
 2874              		.loc 1 469 17 is_stmt 1 view .LVU781
 2875 0df0 AFFFFFEA 		b	.L159
 2876              	.L169:
 500:/home/hkh/git/eapidk-code-r76-trunk/apps/EeePProg/linux/../EeePDB.c ****             EeePMapBuffer,
 2877              		.loc 1 500 9 view .LVU782
 2878 0df4 083095E5 		ldr	r3, [r5, #8]
 2879 0df8 000053E3 		cmp	r3, #0
 2880 0dfc 2700001A 		bne	.L197
 500:/home/hkh/git/eapidk-code-r76-trunk/apps/EeePProg/linux/../EeePDB.c ****             EeePMapBuffer,
 2881              		.loc 1 500 9 view .LVU783
 505:/home/hkh/git/eapidk-code-r76-trunk/apps/EeePProg/linux/../EeePDB.c ****         pBufMap->pEeePCRCBlock=(EeePCRC16ChkBlock_t *)pCurBlock;
 2882              		.loc 1 505 12 view .LVU784
 506:/home/hkh/git/eapidk-code-r76-trunk/apps/EeePProg/linux/../EeePDB.c ****         break;
 2883              		.loc 1 506 9 view .LVU785
 469:/home/hkh/git/eapidk-code-r76-trunk/apps/EeePProg/linux/../EeePDB.c ****   {
 2884              		.loc 1 469 34 is_stmt 0 view .LVU786
 2885 0e00 14809DE5 		ldr	r8, [sp, #20]
 506:/home/hkh/git/eapidk-code-r76-trunk/apps/EeePProg/linux/../EeePDB.c ****         break;
 2886              		.loc 1 506 31 view .LVU787
 2887 0e04 080085E5 		str	r0, [r5, #8]
 507:/home/hkh/git/eapidk-code-r76-trunk/apps/EeePProg/linux/../EeePDB.c ****       case EEEP_BLOCK_ID_IGNORE:
 2888              		.loc 1 507 9 is_stmt 1 view .LVU788
 2889 0e08 CDFFFFEA 		b	.L174
 2890              	.L196:
 490:/home/hkh/git/eapidk-code-r76-trunk/apps/EeePProg/linux/../EeePDB.c ****         EAPI_APP_RETURN_ERROR_IF(
 2891              		.loc 1 490 9 view .LVU789
 2892              	.LVL238:
 2893              	.LBB251:
 2894              	.LBI230:
 155:/home/hkh/git/eapidk-code-r76-trunk/apps/EeePProg/linux/../EeePDB.c ****     DBlockIdHdr_t *pCurBlock
 2895              		.loc 1 155 1 view .LVU790
 2896              	.LBB236:
 159:/home/hkh/git/eapidk-code-r76-trunk/apps/EeePProg/linux/../EeePDB.c ****   size_t stBlockLength;
 2897              		.loc 1 159 3 view .LVU791
 160:/home/hkh/git/eapidk-code-r76-trunk/apps/EeePProg/linux/../EeePDB.c ****   EAPI_APP_ASSERT_PARAMATER_NULL(
 2898              		.loc 1 160 3 view .LVU792
 161:/home/hkh/git/eapidk-code-r76-trunk/apps/EeePProg/linux/../EeePDB.c ****       GetNextBlock,
 2899              		.loc 1 161 3 view .LVU793
 161:/home/hkh/git/eapidk-code-r76-trunk/apps/EeePProg/linux/../EeePDB.c ****       GetNextBlock,
 2900              		.loc 1 161 3 view .LVU794
 165:/home/hkh/git/eapidk-code-r76-trunk/apps/EeePProg/linux/../EeePDB.c ****   stBlockLength=GetBlockLength(pCurBlock);
 2901              		.loc 1 165 6 view .LVU795
 166:/home/hkh/git/eapidk-code-r76-trunk/apps/EeePProg/linux/../EeePDB.c ****   switch(stBlockLength){
 2902              		.loc 1 166 3 view .LVU796
 2903              	.LBB232:
 2904              	.LBI232:
 144:/home/hkh/git/eapidk-code-r76-trunk/apps/EeePProg/linux/../EeePDB.c ****     const void * pcvBHandel
 2905              		.loc 1 144 1 view .LVU797
 2906              	.LBB233:
 148:/home/hkh/git/eapidk-code-r76-trunk/apps/EeePProg/linux/../EeePDB.c ****   if(!pcvBHandel) return stBlockSize;
ARM GAS  /tmp/ccTXisr2.s 			page 74


 2907              		.loc 1 148 3 view .LVU798
 149:/home/hkh/git/eapidk-code-r76-trunk/apps/EeePProg/linux/../EeePDB.c **** 
 2908              		.loc 1 149 3 view .LVU799
 2909              	.LBB234:
 2910              	.LBI234:
 144:/home/hkh/git/eapidk-code-r76-trunk/apps/EeePProg/linux/../EeePDB.c ****     const void * pcvBHandel
 2911              		.loc 1 144 1 view .LVU800
 2912              	.LBB235:
 151:/home/hkh/git/eapidk-code-r76-trunk/apps/EeePProg/linux/../EeePDB.c ****   return stBlockSize;
 2913              		.loc 1 151 3 view .LVU801
 151:/home/hkh/git/eapidk-code-r76-trunk/apps/EeePProg/linux/../EeePDB.c ****   return stBlockSize;
 2914              		.loc 1 151 15 is_stmt 0 view .LVU802
 2915 0e0c 010080E2 		add	r0, r0, #1
 2916              	.LVL239:
 151:/home/hkh/git/eapidk-code-r76-trunk/apps/EeePProg/linux/../EeePDB.c ****   return stBlockSize;
 2917              		.loc 1 151 15 view .LVU803
 2918 0e10 FEFFFFEB 		bl	EeeP_Get16BitValue_BE(PLT)
 2919              	.LVL240:
 152:/home/hkh/git/eapidk-code-r76-trunk/apps/EeePProg/linux/../EeePDB.c **** }
 2920              		.loc 1 152 3 is_stmt 1 view .LVU804
 152:/home/hkh/git/eapidk-code-r76-trunk/apps/EeePProg/linux/../EeePDB.c **** }
 2921              		.loc 1 152 3 is_stmt 0 view .LVU805
 2922              	.LBE235:
 2923              	.LBE234:
 2924              	.LBE233:
 2925              	.LBE232:
 167:/home/hkh/git/eapidk-code-r76-trunk/apps/EeePProg/linux/../EeePDB.c ****     case EEEP_OFFSET_VALUE_EOL:
 2926              		.loc 1 167 3 is_stmt 1 view .LVU806
 2927 0e14 000050E3 		cmp	r0, #0
 2928              	.LVL241:
 167:/home/hkh/git/eapidk-code-r76-trunk/apps/EeePProg/linux/../EeePDB.c ****     case EEEP_OFFSET_VALUE_EOL:
 2929              		.loc 1 167 3 is_stmt 0 view .LVU807
 2930 0e18 C8FFFF0A 		beq	.L171
 2931 0e1c 060050E1 		cmp	r0, r6
 2932 0e20 C6FFFF0A 		beq	.L171
 171:/home/hkh/git/eapidk-code-r76-trunk/apps/EeePProg/linux/../EeePDB.c ****     default:
 2933              		.loc 1 171 7 is_stmt 1 view .LVU808
 173:/home/hkh/git/eapidk-code-r76-trunk/apps/EeePProg/linux/../EeePDB.c ****           pCurBlock         ,
 2934              		.loc 1 173 7 view .LVU809
 2935              	.LVL242:
 178:/home/hkh/git/eapidk-code-r76-trunk/apps/EeePProg/linux/../EeePDB.c ****       }
 2936              		.loc 1 178 7 view .LVU810
 2937              	.LDL15:
 2938              	.LDL16:
 182:/home/hkh/git/eapidk-code-r76-trunk/apps/EeePProg/linux/../EeePDB.c **** }
 2939              		.loc 1 182 3 view .LVU811
 182:/home/hkh/git/eapidk-code-r76-trunk/apps/EeePProg/linux/../EeePDB.c **** }
 2940              		.loc 1 182 3 is_stmt 0 view .LVU812
 2941              	.LBE236:
 2942              	.LBE251:
 491:/home/hkh/git/eapidk-code-r76-trunk/apps/EeePProg/linux/../EeePDB.c ****             EeePMapBuffer,
 2943              		.loc 1 491 9 is_stmt 1 view .LVU813
 2944 0e24 043095E5 		ldr	r3, [r5, #4]
 2945 0e28 000053E3 		cmp	r3, #0
 2946 0e2c 2600001A 		bne	.L198
 491:/home/hkh/git/eapidk-code-r76-trunk/apps/EeePProg/linux/../EeePDB.c ****             EeePMapBuffer,
 2947              		.loc 1 491 9 view .LVU814
ARM GAS  /tmp/ccTXisr2.s 			page 75


 496:/home/hkh/git/eapidk-code-r76-trunk/apps/EeePProg/linux/../EeePDB.c ****         pBufMap->pEmptyBlock=pCurBlock;
 2948              		.loc 1 496 12 view .LVU815
 497:/home/hkh/git/eapidk-code-r76-trunk/apps/EeePProg/linux/../EeePDB.c ****         break;
 2949              		.loc 1 497 9 view .LVU816
 497:/home/hkh/git/eapidk-code-r76-trunk/apps/EeePProg/linux/../EeePDB.c ****         break;
 2950              		.loc 1 497 29 is_stmt 0 view .LVU817
 2951 0e30 14809DE5 		ldr	r8, [sp, #20]
 2952 0e34 048085E5 		str	r8, [r5, #4]
 498:/home/hkh/git/eapidk-code-r76-trunk/apps/EeePProg/linux/../EeePDB.c ****       case EEEP_BLOCK_ID_CRC_CHK:
 2953              		.loc 1 498 9 is_stmt 1 view .LVU818
 2954 0e38 C1FFFFEA 		b	.L174
 2955              	.LVL243:
 2956              	.L194:
 467:/home/hkh/git/eapidk-code-r76-trunk/apps/EeePProg/linux/../EeePDB.c **** 
 2957              		.loc 1 467 3 view .LVU819
 2958 0e3c F4C09FE5 		ldr	ip, .L199+60
 2959 0e40 D33100E3 		movw	r3, #467
 2960 0e44 F0009FE5 		ldr	r0, .L199+64
 2961              	.LVL244:
 467:/home/hkh/git/eapidk-code-r76-trunk/apps/EeePProg/linux/../EeePDB.c **** 
 2962              		.loc 1 467 3 is_stmt 0 view .LVU820
 2963 0e48 F0209FE5 		ldr	r2, .L199+68
 2964 0e4c F0109FE5 		ldr	r1, .L199+72
 2965              	.LPIC129:
 2966 0e50 0CC08FE0 		add	ip, pc, ip
 2967              	.LPIC130:
 2968 0e54 00008FE0 		add	r0, pc, r0
 2969 0e58 00708DE5 		str	r7, [sp]
 2970 0e5c 01108DE9 		stmib	sp, {r0, ip}
 2971              	.LPIC127:
 2972 0e60 02208FE0 		add	r2, pc, r2
 2973              	.LPIC128:
 2974 0e64 01108FE0 		add	r1, pc, r1
 2975 0e68 4500A0E3 		mov	r0, #69
 2976 0e6c FEFFFFEB 		bl	siFormattedMessage_SC(PLT)
 2977              	.LVL245:
 467:/home/hkh/git/eapidk-code-r76-trunk/apps/EeePProg/linux/../EeePDB.c **** 
 2978              		.loc 1 467 3 is_stmt 1 view .LVU821
 2979 0e70 8FFFFFEA 		b	.L159
 2980              	.LVL246:
 2981              	.L191:
 467:/home/hkh/git/eapidk-code-r76-trunk/apps/EeePProg/linux/../EeePDB.c **** 
 2982              		.loc 1 467 3 is_stmt 0 view .LVU822
 2983              	.LBE229:
 2984              	.LBE228:
 446:/home/hkh/git/eapidk-code-r76-trunk/apps/EeePProg/linux/../EeePDB.c ****       EeePMapBuffer,
 2985              		.loc 1 446 3 is_stmt 1 discriminator 1 view .LVU823
 446:/home/hkh/git/eapidk-code-r76-trunk/apps/EeePProg/linux/../EeePDB.c ****       EeePMapBuffer,
 2986              		.loc 1 446 3 discriminator 1 view .LVU824
 2987 0e74 CCC09FE5 		ldr	ip, .L199+76
 2988 0e78 017CE0E3 		mvn	r7, #256
 2989 0e7c C8009FE5 		ldr	r0, .L199+80
 2990              	.LVL247:
 446:/home/hkh/git/eapidk-code-r76-trunk/apps/EeePProg/linux/../EeePDB.c ****       EeePMapBuffer,
 2991              		.loc 1 446 3 is_stmt 0 discriminator 1 view .LVU825
 2992 0e80 BE3100E3 		movw	r3, #446
 2993 0e84 C4209FE5 		ldr	r2, .L199+84
ARM GAS  /tmp/ccTXisr2.s 			page 76


 2994 0e88 C4109FE5 		ldr	r1, .L199+88
 2995              	.LVL248:
 446:/home/hkh/git/eapidk-code-r76-trunk/apps/EeePProg/linux/../EeePDB.c ****       EeePMapBuffer,
 2996              		.loc 1 446 3 discriminator 1 view .LVU826
 2997              	.LPIC120:
 2998 0e8c 0CC08FE0 		add	ip, pc, ip
 2999              	.LPIC121:
 3000 0e90 00008FE0 		add	r0, pc, r0
 3001              	.LPIC118:
 3002 0e94 02208FE0 		add	r2, pc, r2
 3003              	.LPIC119:
 3004 0e98 01108FE0 		add	r1, pc, r1
 3005 0e9c 80FFFFEA 		b	.L190
 3006              	.LVL249:
 3007              	.L197:
 3008              	.LBB253:
 3009              	.LBB252:
 500:/home/hkh/git/eapidk-code-r76-trunk/apps/EeePProg/linux/../EeePDB.c ****             EeePMapBuffer,
 3010              		.loc 1 500 9 is_stmt 1 view .LVU827
 500:/home/hkh/git/eapidk-code-r76-trunk/apps/EeePProg/linux/../EeePDB.c ****             EeePMapBuffer,
 3011              		.loc 1 500 9 view .LVU828
 3012 0ea0 B0C09FE5 		ldr	ip, .L199+92
 3013 0ea4 0F7CE0E3 		mvn	r7, #3840
 3014              	.LVL250:
 500:/home/hkh/git/eapidk-code-r76-trunk/apps/EeePProg/linux/../EeePDB.c ****             EeePMapBuffer,
 3015              		.loc 1 500 9 is_stmt 0 view .LVU829
 3016 0ea8 AC009FE5 		ldr	r0, .L199+96
 3017 0eac 7D3FA0E3 		mov	r3, #500
 3018 0eb0 A8209FE5 		ldr	r2, .L199+100
 3019 0eb4 A8109FE5 		ldr	r1, .L199+104
 3020              	.LPIC141:
 3021 0eb8 0CC08FE0 		add	ip, pc, ip
 3022              	.LPIC142:
 3023 0ebc 00008FE0 		add	r0, pc, r0
 3024              	.LPIC139:
 3025 0ec0 02208FE0 		add	r2, pc, r2
 3026              	.LPIC140:
 3027 0ec4 01108FE0 		add	r1, pc, r1
 3028 0ec8 75FFFFEA 		b	.L190
 3029              	.LVL251:
 3030              	.L198:
 491:/home/hkh/git/eapidk-code-r76-trunk/apps/EeePProg/linux/../EeePDB.c ****             EeePMapBuffer,
 3031              		.loc 1 491 9 is_stmt 1 view .LVU830
 491:/home/hkh/git/eapidk-code-r76-trunk/apps/EeePProg/linux/../EeePDB.c ****             EeePMapBuffer,
 3032              		.loc 1 491 9 view .LVU831
 3033 0ecc 94C09FE5 		ldr	ip, .L199+108
 3034 0ed0 0F7CE0E3 		mvn	r7, #3840
 3035              	.LVL252:
 491:/home/hkh/git/eapidk-code-r76-trunk/apps/EeePProg/linux/../EeePDB.c ****             EeePMapBuffer,
 3036              		.loc 1 491 9 is_stmt 0 view .LVU832
 3037 0ed4 90009FE5 		ldr	r0, .L199+112
 3038 0ed8 EB3100E3 		movw	r3, #491
 3039 0edc 8C209FE5 		ldr	r2, .L199+116
 3040 0ee0 8C109FE5 		ldr	r1, .L199+120
 3041              	.LPIC137:
 3042 0ee4 0CC08FE0 		add	ip, pc, ip
 3043              	.LPIC138:
ARM GAS  /tmp/ccTXisr2.s 			page 77


 3044 0ee8 00008FE0 		add	r0, pc, r0
 3045              	.LPIC135:
 3046 0eec 02208FE0 		add	r2, pc, r2
 3047              	.LPIC136:
 3048 0ef0 01108FE0 		add	r1, pc, r1
 3049 0ef4 6AFFFFEA 		b	.L190
 3050              	.LVL253:
 3051              	.L193:
 491:/home/hkh/git/eapidk-code-r76-trunk/apps/EeePProg/linux/../EeePDB.c ****             EeePMapBuffer,
 3052              		.loc 1 491 9 view .LVU833
 3053              	.LBE252:
 3054              	.LBE253:
 3055              		.loc 1 518 1 view .LVU834
 3056 0ef8 FEFFFFEB 		bl	__stack_chk_fail(PLT)
 3057              	.LVL254:
 3058              	.L200:
 3059              		.align	2
 3060              	.L199:
 3061 0efc B4020000 		.word	_GLOBAL_OFFSET_TABLE_-(.LPIC148+8)
 3062 0f00 00000000 		.word	__stack_chk_guard(GOT)
 3063 0f04 68020000 		.word	.LC20-(.LPIC125+8)
 3064 0f08 68020000 		.word	.LC5-(.LPIC126+8)
 3065 0f0c 68020000 		.word	.LC32-(.LPIC123+8)
 3066 0f10 68020000 		.word	.LC3-(.LPIC124+8)
 3067 0f14 50020000 		.word	_GLOBAL_OFFSET_TABLE_-(.LPIC147+8)
 3068 0f18 78010000 		.word	.LC34-(.LPIC133+8)
 3069 0f1c 78010000 		.word	.LC5-(.LPIC134+8)
 3070 0f20 78010000 		.word	.LC32-(.LPIC131+8)
 3071 0f24 78010000 		.word	.LC3-(.LPIC132+8)
 3072 0f28 58010000 		.word	.LC5-(.LPIC146+8)
 3073 0f2c 50010000 		.word	.LC9-(.LPIC145+8)
 3074 0f30 4C010000 		.word	.LC8-(.LPIC143+8)
 3075 0f34 44010000 		.word	.LC3-(.LPIC144+8)
 3076 0f38 E0000000 		.word	.LC33-(.LPIC129+8)
 3077 0f3c E0000000 		.word	.LC5-(.LPIC130+8)
 3078 0f40 D8000000 		.word	.LC25-(.LPIC127+8)
 3079 0f44 D8000000 		.word	.LC3-(.LPIC128+8)
 3080 0f48 B4000000 		.word	.LC4-(.LPIC120+8)
 3081 0f4c B4000000 		.word	.LC5-(.LPIC121+8)
 3082 0f50 B4000000 		.word	.LC32-(.LPIC118+8)
 3083 0f54 B4000000 		.word	.LC3-(.LPIC119+8)
 3084 0f58 98000000 		.word	.LC36-(.LPIC141+8)
 3085 0f5c 98000000 		.word	.LC5-(.LPIC142+8)
 3086 0f60 98000000 		.word	.LC32-(.LPIC139+8)
 3087 0f64 98000000 		.word	.LC3-(.LPIC140+8)
 3088 0f68 7C000000 		.word	.LC35-(.LPIC137+8)
 3089 0f6c 7C000000 		.word	.LC5-(.LPIC138+8)
 3090 0f70 7C000000 		.word	.LC32-(.LPIC135+8)
 3091 0f74 7C000000 		.word	.LC3-(.LPIC136+8)
 3092              		.cfi_endproc
 3093              	.LFE13:
 3095              		.section	.rodata.str1.4
 3096              		.align	2
 3097              	.LC37:
 3098 0508 45656550 		.ascii	"EeePListBlocks\000"
 3098      4C697374 
 3098      426C6F63 
ARM GAS  /tmp/ccTXisr2.s 			page 78


 3098      6B7300
 3099 0517 00       		.align	2
 3100              	.LC38:
 3101 0518 4C4F473A 		.ascii	"LOG: Header Size: 0x%02lX\012\000"
 3101      20486561 
 3101      64657220 
 3101      53697A65 
 3101      3A203078 
 3102 0533 00       		.align	2
 3103              	.LC39:
 3104 0534 45656550 		.ascii	"EeeP Common Header\000"
 3104      20436F6D 
 3104      6D6F6E20 
 3104      48656164 
 3104      657200
 3105 0547 00       		.align	2
 3106              	.LC40:
 3107 0548 45656550 		.ascii	"EeeP Extended Header\000"
 3107      20457874 
 3107      656E6465 
 3107      64204865 
 3107      61646572 
 3108 055d 000000   		.align	2
 3109              	.LC41:
 3110 0560 0A4C4F47 		.ascii	"\012LOG: BLOCK ID  : %s(0x%02X)\012LOG:   Length  :"
 3110      3A20424C 
 3110      4F434B20 
 3110      49442020 
 3110      3A202573 
 3111 058d 20307825 		.ascii	" 0x%04lX\012LOG:   Offset  : 0x%08lX\012\000"
 3111      30346C58 
 3111      0A4C4F47 
 3111      3A202020 
 3111      4F666673 
 3112              		.align	2
 3113              	.LC42:
