ARM GAS  /tmp/ccTXisr2.s 			page 1


   1              		.cpu cortex-a9
   2              		.eabi_attribute 28, 1
   3              		.eabi_attribute 20, 1
   4              		.eabi_attribute 21, 1
   5              		.eabi_attribute 23, 3
   6              		.eabi_attribute 24, 1
   7              		.eabi_attribute 25, 1
   8              		.eabi_attribute 26, 2
   9              		.eabi_attribute 30, 2
  10              		.eabi_attribute 34, 1
  11              		.eabi_attribute 18, 4
  12              		.file	"EeePDB.c"
  13              		.text
  14              	.Ltext0:
  15              		.cfi_sections	.debug_frame
  16              		.section	.rodata.str1.4,"aMS",%progbits,1
  17              		.align	2
  18              	.LC0:
  19 0000 257300   		.ascii	"%s\000"
  20 0003 00       		.align	2
  21              	.LC1:
  22 0004 554E4B4E 		.ascii	"UNKNOWN ID\000"
  22      4F574E20 
  22      494400
  23              		.text
  24              		.align	2
  25              		.global	GetString
  26              		.arch armv7-a
  27              		.arch_extension mp
  28              		.arch_extension sec
  29              		.syntax unified
  30              		.arm
  31              		.fpu vfpv3
  33              	GetString:
  34              	.LVL0:
  35              	.LFB1:
  36              		.file 1 "/home/hkh/git/eapidk-code-r76-trunk/apps/EeePProg/linux/../EeePDB.c"
   1:/home/hkh/git/eapidk-code-r76-trunk/apps/EeePProg/linux/../EeePDB.c **** /*
   2:/home/hkh/git/eapidk-code-r76-trunk/apps/EeePProg/linux/../EeePDB.c ****  *<KHeader>
   3:/home/hkh/git/eapidk-code-r76-trunk/apps/EeePProg/linux/../EeePDB.c ****  *+=========================================================================
   4:/home/hkh/git/eapidk-code-r76-trunk/apps/EeePProg/linux/../EeePDB.c ****  *I  Project Name: EApiDK Embedded Application Development Kit
   5:/home/hkh/git/eapidk-code-r76-trunk/apps/EeePProg/linux/../EeePDB.c ****  *+=========================================================================
   6:/home/hkh/git/eapidk-code-r76-trunk/apps/EeePProg/linux/../EeePDB.c ****  *I  $HeadURL: file:///svn/p/eapidk/code/trunk/apps/EeePProg/EeePDB.c $
   7:/home/hkh/git/eapidk-code-r76-trunk/apps/EeePProg/linux/../EeePDB.c ****  *+=========================================================================
   8:/home/hkh/git/eapidk-code-r76-trunk/apps/EeePProg/linux/../EeePDB.c ****  *I   Copyright: Copyright (c) 2002-2010, Kontron Embedded Modules GmbH
   9:/home/hkh/git/eapidk-code-r76-trunk/apps/EeePProg/linux/../EeePDB.c ****  *I      Author: John Kearney,                  John.Kearney@kontron.com
  10:/home/hkh/git/eapidk-code-r76-trunk/apps/EeePProg/linux/../EeePDB.c ****  *I
  11:/home/hkh/git/eapidk-code-r76-trunk/apps/EeePProg/linux/../EeePDB.c ****  *I     License: All rights reserved. This program and the accompanying 
  12:/home/hkh/git/eapidk-code-r76-trunk/apps/EeePProg/linux/../EeePDB.c ****  *I              materials are licensed and made available under the 
  13:/home/hkh/git/eapidk-code-r76-trunk/apps/EeePProg/linux/../EeePDB.c ****  *I              terms and conditions of the BSD License which 
  14:/home/hkh/git/eapidk-code-r76-trunk/apps/EeePProg/linux/../EeePDB.c ****  *I              accompanies this distribution. The full text of the 
  15:/home/hkh/git/eapidk-code-r76-trunk/apps/EeePProg/linux/../EeePDB.c ****  *I              license may be found at 
  16:/home/hkh/git/eapidk-code-r76-trunk/apps/EeePProg/linux/../EeePDB.c ****  *I              http://opensource.org/licenses/bsd-license.php
  17:/home/hkh/git/eapidk-code-r76-trunk/apps/EeePProg/linux/../EeePDB.c ****  *I              
  18:/home/hkh/git/eapidk-code-r76-trunk/apps/EeePProg/linux/../EeePDB.c ****  *I              THE PROGRAM IS DISTRIBUTED UNDER THE BSD LICENSE ON AN "
  19:/home/hkh/git/eapidk-code-r76-trunk/apps/EeePProg/linux/../EeePDB.c ****  *I              AS IS" BASIS, WITHOUT WARRANTIES OR REPRESENTATIONS OF 
  20:/home/hkh/git/eapidk-code-r76-trunk/apps/EeePProg/linux/../EeePDB.c ****  *I              ANY KIND, EITHER EXPRESS OR IMPLIED.
ARM GAS  /tmp/ccTXisr2.s 			page 2


  21:/home/hkh/git/eapidk-code-r76-trunk/apps/EeePProg/linux/../EeePDB.c ****  *I
  22:/home/hkh/git/eapidk-code-r76-trunk/apps/EeePProg/linux/../EeePDB.c ****  *I Description: Auto Created for EApiValidateAPI.c
  23:/home/hkh/git/eapidk-code-r76-trunk/apps/EeePProg/linux/../EeePDB.c ****  *I
  24:/home/hkh/git/eapidk-code-r76-trunk/apps/EeePProg/linux/../EeePDB.c ****  *+-------------------------------------------------------------------------
  25:/home/hkh/git/eapidk-code-r76-trunk/apps/EeePProg/linux/../EeePDB.c ****  *I
  26:/home/hkh/git/eapidk-code-r76-trunk/apps/EeePProg/linux/../EeePDB.c ****  *I  File Name            : EeePDB.c
  27:/home/hkh/git/eapidk-code-r76-trunk/apps/EeePProg/linux/../EeePDB.c ****  *I  File Location        : apps\EeePProg
  28:/home/hkh/git/eapidk-code-r76-trunk/apps/EeePProg/linux/../EeePDB.c ****  *I  Last committed       : $Revision: 75 $
  29:/home/hkh/git/eapidk-code-r76-trunk/apps/EeePProg/linux/../EeePDB.c ****  *I  Last changed by      : $Author: dethrophes $
  30:/home/hkh/git/eapidk-code-r76-trunk/apps/EeePProg/linux/../EeePDB.c ****  *I  Last changed date    : $Date: 2010-06-28 23:50:38 +0000 (Mon, 28 Jun 2010) $
  31:/home/hkh/git/eapidk-code-r76-trunk/apps/EeePProg/linux/../EeePDB.c ****  *I  ID                   : $Id: EeePDB.c 75 2010-06-28 23:50:38Z dethrophes $
  32:/home/hkh/git/eapidk-code-r76-trunk/apps/EeePProg/linux/../EeePDB.c ****  *I
  33:/home/hkh/git/eapidk-code-r76-trunk/apps/EeePProg/linux/../EeePDB.c ****  *+=========================================================================
  34:/home/hkh/git/eapidk-code-r76-trunk/apps/EeePProg/linux/../EeePDB.c ****  *</KHeader>
  35:/home/hkh/git/eapidk-code-r76-trunk/apps/EeePProg/linux/../EeePDB.c ****  */
  36:/home/hkh/git/eapidk-code-r76-trunk/apps/EeePProg/linux/../EeePDB.c ****   #include <EeePApp.h>
  37:/home/hkh/git/eapidk-code-r76-trunk/apps/EeePProg/linux/../EeePDB.c **** 
  38:/home/hkh/git/eapidk-code-r76-trunk/apps/EeePProg/linux/../EeePDB.c **** typedef struct StringLookup_s{
  39:/home/hkh/git/eapidk-code-r76-trunk/apps/EeePProg/linux/../EeePDB.c ****   char *szString;
  40:/home/hkh/git/eapidk-code-r76-trunk/apps/EeePProg/linux/../EeePDB.c ****   const unsigned int cuiValue;
  41:/home/hkh/git/eapidk-code-r76-trunk/apps/EeePProg/linux/../EeePDB.c **** }StringLookup_t;
  42:/home/hkh/git/eapidk-code-r76-trunk/apps/EeePProg/linux/../EeePDB.c **** 
  43:/home/hkh/git/eapidk-code-r76-trunk/apps/EeePProg/linux/../EeePDB.c **** StringLookup_t BlockIdLookup[]={
  44:/home/hkh/git/eapidk-code-r76-trunk/apps/EeePProg/linux/../EeePDB.c ****   { "EEEP_BLOCK_ID_UNUSED"          , EEEP_BLOCK_ID_UNUSED          },
  45:/home/hkh/git/eapidk-code-r76-trunk/apps/EeePProg/linux/../EeePDB.c ****   { "EEEP_BLOCK_ID_VENDOR_SPECIFIC" , EEEP_BLOCK_ID_VENDOR_SPECIFIC },
  46:/home/hkh/git/eapidk-code-r76-trunk/apps/EeePProg/linux/../EeePDB.c ****   { "EEEP_BLOCK_ID_EXP_EEPROM"      , EEEP_BLOCK_ID_EXP_EEPROM      },
  47:/home/hkh/git/eapidk-code-r76-trunk/apps/EeePProg/linux/../EeePDB.c ****   { "EEEP_BLOCK_ID_SMBIOS"          , EEEP_BLOCK_ID_SMBIOS          },
  48:/home/hkh/git/eapidk-code-r76-trunk/apps/EeePProg/linux/../EeePDB.c ****   { "EEEP_BLOCK_ID_LFP"             , EEEP_BLOCK_ID_LFP             },
  49:/home/hkh/git/eapidk-code-r76-trunk/apps/EeePProg/linux/../EeePDB.c ****   { "EEEP_BLOCK_ID_CRC_CHK"         , EEEP_BLOCK_ID_CRC_CHK         },
  50:/home/hkh/git/eapidk-code-r76-trunk/apps/EeePProg/linux/../EeePDB.c ****   { "EEEP_BLOCK_ID_IGNORE"          , EEEP_BLOCK_ID_IGNORE          },
  51:/home/hkh/git/eapidk-code-r76-trunk/apps/EeePProg/linux/../EeePDB.c **** 
  52:/home/hkh/git/eapidk-code-r76-trunk/apps/EeePProg/linux/../EeePDB.c ****   { "COM0R20_BLOCK_ID_EXP_CARD_DESC", COM0R20_BLOCK_ID_EXP_CARD_DESC},
  53:/home/hkh/git/eapidk-code-r76-trunk/apps/EeePProg/linux/../EeePDB.c ****   { "COM0R20_BLOCK_ID_SERIO_DESC"   , COM0R20_BLOCK_ID_SERIO_DESC   },
  54:/home/hkh/git/eapidk-code-r76-trunk/apps/EeePProg/linux/../EeePDB.c ****   { NULL                            , 0                             },
  55:/home/hkh/git/eapidk-code-r76-trunk/apps/EeePProg/linux/../EeePDB.c **** };
  56:/home/hkh/git/eapidk-code-r76-trunk/apps/EeePProg/linux/../EeePDB.c **** 
  57:/home/hkh/git/eapidk-code-r76-trunk/apps/EeePProg/linux/../EeePDB.c **** 
  58:/home/hkh/git/eapidk-code-r76-trunk/apps/EeePProg/linux/../EeePDB.c **** EApiStatus_t 
  59:/home/hkh/git/eapidk-code-r76-trunk/apps/EeePProg/linux/../EeePDB.c **** GetString(
  60:/home/hkh/git/eapidk-code-r76-trunk/apps/EeePProg/linux/../EeePDB.c ****     __IN  StringLookup_t *pStrTbl,
  61:/home/hkh/git/eapidk-code-r76-trunk/apps/EeePProg/linux/../EeePDB.c ****     __OUT TCHAR *        pszString,
  62:/home/hkh/git/eapidk-code-r76-trunk/apps/EeePProg/linux/../EeePDB.c ****     __IN  size_t         stArrayLen,
  63:/home/hkh/git/eapidk-code-r76-trunk/apps/EeePProg/linux/../EeePDB.c ****     __IN  unsigned int   uiValue
  64:/home/hkh/git/eapidk-code-r76-trunk/apps/EeePProg/linux/../EeePDB.c ****     )
  65:/home/hkh/git/eapidk-code-r76-trunk/apps/EeePProg/linux/../EeePDB.c **** {
  37              		.loc 1 65 1 view -0
  38              		.cfi_startproc
  39              		@ args = 0, pretend = 0, frame = 0
  40              		@ frame_needed = 0, uses_anonymous_args = 0
  66:/home/hkh/git/eapidk-code-r76-trunk/apps/EeePProg/linux/../EeePDB.c ****   EApiStatus_t StatusCode=EAPI_STATUS_SUCCESS;
  41              		.loc 1 66 3 view .LVU1
  67:/home/hkh/git/eapidk-code-r76-trunk/apps/EeePProg/linux/../EeePDB.c ****   for(;pStrTbl->szString!=NULL;pStrTbl++){
  42              		.loc 1 67 3 view .LVU2
  65:/home/hkh/git/eapidk-code-r76-trunk/apps/EeePProg/linux/../EeePDB.c ****   EApiStatus_t StatusCode=EAPI_STATUS_SUCCESS;
  43              		.loc 1 65 1 is_stmt 0 view .LVU3
  44 0000 10402DE9 		push	{r4, lr}
  45              		.cfi_def_cfa_offset 8
ARM GAS  /tmp/ccTXisr2.s 			page 3


  46              		.cfi_offset 4, -8
  47              		.cfi_offset 14, -4
  65:/home/hkh/git/eapidk-code-r76-trunk/apps/EeePProg/linux/../EeePDB.c ****   EApiStatus_t StatusCode=EAPI_STATUS_SUCCESS;
  48              		.loc 1 65 1 view .LVU4
  49 0004 00C0A0E1 		mov	ip, r0
  50              		.loc 1 67 25 is_stmt 1 view .LVU5
  51              		.loc 1 67 15 is_stmt 0 view .LVU6
  52 0008 00E090E5 		ldr	lr, [r0]
  65:/home/hkh/git/eapidk-code-r76-trunk/apps/EeePProg/linux/../EeePDB.c ****   EApiStatus_t StatusCode=EAPI_STATUS_SUCCESS;
  53              		.loc 1 65 1 view .LVU7
  54 000c 0100A0E1 		mov	r0, r1
  55              	.LVL1:
  65:/home/hkh/git/eapidk-code-r76-trunk/apps/EeePProg/linux/../EeePDB.c ****   EApiStatus_t StatusCode=EAPI_STATUS_SUCCESS;
  56              		.loc 1 65 1 view .LVU8
  57 0010 0210A0E1 		mov	r1, r2
  58              	.LVL2:
  59              		.loc 1 67 25 view .LVU9
  60 0014 00005EE3 		cmp	lr, #0
  61 0018 0300001A 		bne	.L5
  62 001c 0B0000EA 		b	.L2
  63              	.LVL3:
  64              	.L3:
  65              		.loc 1 67 15 view .LVU10
  66 0020 08E0BCE5 		ldr	lr, [ip, #8]!
  67              	.LVL4:
  68              		.loc 1 67 25 view .LVU11
  69 0024 00005EE3 		cmp	lr, #0
  70 0028 0800000A 		beq	.L2
  71              	.LVL5:
  72              	.L5:
  68:/home/hkh/git/eapidk-code-r76-trunk/apps/EeePProg/linux/../EeePDB.c ****     if(pStrTbl->cuiValue==uiValue){
  73              		.loc 1 68 5 is_stmt 1 view .LVU12
  67:/home/hkh/git/eapidk-code-r76-trunk/apps/EeePProg/linux/../EeePDB.c ****   for(;pStrTbl->szString!=NULL;pStrTbl++){
  74              		.loc 1 67 39 view .LVU13
  67:/home/hkh/git/eapidk-code-r76-trunk/apps/EeePProg/linux/../EeePDB.c ****   for(;pStrTbl->szString!=NULL;pStrTbl++){
  75              		.loc 1 67 25 view .LVU14
  76              		.loc 1 68 7 is_stmt 0 view .LVU15
  77 002c 04209CE5 		ldr	r2, [ip, #4]
  78 0030 030052E1 		cmp	r2, r3
  79 0034 F9FFFF1A 		bne	.L3
  69:/home/hkh/git/eapidk-code-r76-trunk/apps/EeePProg/linux/../EeePDB.c **** #if UNICODE
  70:/home/hkh/git/eapidk-code-r76-trunk/apps/EeePProg/linux/../EeePDB.c ****       EApiSprintf(pszString, stArrayLen, TEXT("%hs"), pStrTbl->szString);
  71:/home/hkh/git/eapidk-code-r76-trunk/apps/EeePProg/linux/../EeePDB.c **** #else
  72:/home/hkh/git/eapidk-code-r76-trunk/apps/EeePProg/linux/../EeePDB.c ****       EApiSprintf(pszString, stArrayLen, TEXT("%s"), pStrTbl->szString);
  80              		.loc 1 72 7 is_stmt 1 view .LVU16
  81 0038 24209FE5 		ldr	r2, .L12
  82 003c 0E30A0E1 		mov	r3, lr
  83              	.LVL6:
  84              		.loc 1 72 7 is_stmt 0 view .LVU17
  85              	.LPIC0:
  86 0040 02208FE0 		add	r2, pc, r2
  87 0044 FEFFFFEB 		bl	EApiSprintf(PLT)
  88              	.LVL7:
  73:/home/hkh/git/eapidk-code-r76-trunk/apps/EeePProg/linux/../EeePDB.c **** #endif
  74:/home/hkh/git/eapidk-code-r76-trunk/apps/EeePProg/linux/../EeePDB.c ****       goto ExitSuccess;
  89              		.loc 1 74 7 is_stmt 1 view .LVU18
  66:/home/hkh/git/eapidk-code-r76-trunk/apps/EeePProg/linux/../EeePDB.c ****   for(;pStrTbl->szString!=NULL;pStrTbl++){
ARM GAS  /tmp/ccTXisr2.s 			page 4


  90              		.loc 1 66 16 is_stmt 0 view .LVU19
  91 0048 0000A0E3 		mov	r0, #0
  92              		.loc 1 74 7 view .LVU20
  93 004c 1080BDE8 		pop	{r4, pc}
  94              	.LVL8:
  95              	.L2:
  96              	.L4:
  75:/home/hkh/git/eapidk-code-r76-trunk/apps/EeePProg/linux/../EeePDB.c ****     }
  76:/home/hkh/git/eapidk-code-r76-trunk/apps/EeePProg/linux/../EeePDB.c ****   }
  77:/home/hkh/git/eapidk-code-r76-trunk/apps/EeePProg/linux/../EeePDB.c ****   EApiSprintf(pszString, stArrayLen, TEXT("UNKNOWN ID"));
  97              		.loc 1 77 3 is_stmt 1 view .LVU21
  98 0050 10209FE5 		ldr	r2, .L12+4
  99              	.LPIC1:
 100 0054 02208FE0 		add	r2, pc, r2
 101 0058 FEFFFFEB 		bl	EApiSprintf(PLT)
 102              	.LVL9:
  78:/home/hkh/git/eapidk-code-r76-trunk/apps/EeePProg/linux/../EeePDB.c ****   StatusCode=EAPI_STATUS_ERROR;
 103              		.loc 1 78 3 view .LVU22
 104              		.loc 1 78 13 is_stmt 0 view .LVU23
 105 005c 0F0CE0E3 		mvn	r0, #3840
  79:/home/hkh/git/eapidk-code-r76-trunk/apps/EeePProg/linux/../EeePDB.c **** ExitSuccess:
  80:/home/hkh/git/eapidk-code-r76-trunk/apps/EeePProg/linux/../EeePDB.c ****   return StatusCode;
 106              		.loc 1 80 3 is_stmt 1 view .LVU24
  81:/home/hkh/git/eapidk-code-r76-trunk/apps/EeePProg/linux/../EeePDB.c **** }
 107              		.loc 1 81 1 is_stmt 0 view .LVU25
 108 0060 1080BDE8 		pop	{r4, pc}
 109              	.L13:
 110              		.align	2
 111              	.L12:
 112 0064 1C000000 		.word	.LC0-(.LPIC0+8)
 113 0068 0C000000 		.word	.LC1-(.LPIC1+8)
 114              		.cfi_endproc
 115              	.LFE1:
 117              		.align	2
 118              		.global	GetDBlckIdString
 119              		.syntax unified
 120              		.arm
 121              		.fpu vfpv3
 123              	GetDBlckIdString:
 124              	.LVL10:
 125              	.LFB2:
  82:/home/hkh/git/eapidk-code-r76-trunk/apps/EeePProg/linux/../EeePDB.c **** 
  83:/home/hkh/git/eapidk-code-r76-trunk/apps/EeePProg/linux/../EeePDB.c **** EApiStatus_t 
  84:/home/hkh/git/eapidk-code-r76-trunk/apps/EeePProg/linux/../EeePDB.c **** GetDBlckIdString(
  85:/home/hkh/git/eapidk-code-r76-trunk/apps/EeePProg/linux/../EeePDB.c ****     __OUT TCHAR *        pszString,
  86:/home/hkh/git/eapidk-code-r76-trunk/apps/EeePProg/linux/../EeePDB.c ****     __IN  size_t         stArrayLen,
  87:/home/hkh/git/eapidk-code-r76-trunk/apps/EeePProg/linux/../EeePDB.c ****     __IN  unsigned int   uiValue
  88:/home/hkh/git/eapidk-code-r76-trunk/apps/EeePProg/linux/../EeePDB.c ****     )
  89:/home/hkh/git/eapidk-code-r76-trunk/apps/EeePProg/linux/../EeePDB.c **** {
 126              		.loc 1 89 1 is_stmt 1 view -0
 127              		.cfi_startproc
 128              		@ args = 0, pretend = 0, frame = 0
 129              		@ frame_needed = 0, uses_anonymous_args = 0
  90:/home/hkh/git/eapidk-code-r76-trunk/apps/EeePProg/linux/../EeePDB.c ****   return GetString(BlockIdLookup, pszString, stArrayLen, uiValue);
 130              		.loc 1 90 3 view .LVU27
 131              	.LBB39:
 132              	.LBB40:
ARM GAS  /tmp/ccTXisr2.s 			page 5


  67:/home/hkh/git/eapidk-code-r76-trunk/apps/EeePProg/linux/../EeePDB.c ****     if(pStrTbl->cuiValue==uiValue){
 133              		.loc 1 67 15 is_stmt 0 view .LVU28
 134 006c 54C09FE5 		ldr	ip, .L24
 135              	.LBE40:
 136              	.LBE39:
  89:/home/hkh/git/eapidk-code-r76-trunk/apps/EeePProg/linux/../EeePDB.c ****   return GetString(BlockIdLookup, pszString, stArrayLen, uiValue);
 137              		.loc 1 89 1 view .LVU29
 138 0070 10402DE9 		push	{r4, lr}
 139              		.cfi_def_cfa_offset 8
 140              		.cfi_offset 4, -8
 141              		.cfi_offset 14, -4
 142              	.LBB43:
 143              	.LBB41:
  67:/home/hkh/git/eapidk-code-r76-trunk/apps/EeePProg/linux/../EeePDB.c ****     if(pStrTbl->cuiValue==uiValue){
 144              		.loc 1 67 15 view .LVU30
 145              	.LPIC2:
 146 0074 0CC08FE0 		add	ip, pc, ip
 147              	.LVL11:
  67:/home/hkh/git/eapidk-code-r76-trunk/apps/EeePProg/linux/../EeePDB.c ****     if(pStrTbl->cuiValue==uiValue){
 148              		.loc 1 67 15 view .LVU31
 149 0078 00309CE5 		ldr	r3, [ip]
 150              	.LVL12:
  67:/home/hkh/git/eapidk-code-r76-trunk/apps/EeePProg/linux/../EeePDB.c ****     if(pStrTbl->cuiValue==uiValue){
 151              		.loc 1 67 15 view .LVU32
 152              	.LBE41:
 153              	.LBI39:
  59:/home/hkh/git/eapidk-code-r76-trunk/apps/EeePProg/linux/../EeePDB.c ****     __IN  StringLookup_t *pStrTbl,
 154              		.loc 1 59 1 is_stmt 1 view .LVU33
 155              	.LBB42:
  67:/home/hkh/git/eapidk-code-r76-trunk/apps/EeePProg/linux/../EeePDB.c ****     if(pStrTbl->cuiValue==uiValue){
 156              		.loc 1 67 25 view .LVU34
 157 007c 000053E3 		cmp	r3, #0
 158 0080 0300001A 		bne	.L18
 159 0084 0A0000EA 		b	.L15
 160              	.LVL13:
 161              	.L16:
  67:/home/hkh/git/eapidk-code-r76-trunk/apps/EeePProg/linux/../EeePDB.c ****     if(pStrTbl->cuiValue==uiValue){
 162              		.loc 1 67 15 is_stmt 0 view .LVU35
 163 0088 0830BCE5 		ldr	r3, [ip, #8]!
 164              	.LVL14:
  67:/home/hkh/git/eapidk-code-r76-trunk/apps/EeePProg/linux/../EeePDB.c ****     if(pStrTbl->cuiValue==uiValue){
 165              		.loc 1 67 25 view .LVU36
 166 008c 000053E3 		cmp	r3, #0
 167 0090 0700000A 		beq	.L15
 168              	.LVL15:
 169              	.L18:
  68:/home/hkh/git/eapidk-code-r76-trunk/apps/EeePProg/linux/../EeePDB.c **** #if UNICODE
 170              		.loc 1 68 5 is_stmt 1 view .LVU37
  67:/home/hkh/git/eapidk-code-r76-trunk/apps/EeePProg/linux/../EeePDB.c ****     if(pStrTbl->cuiValue==uiValue){
 171              		.loc 1 67 39 view .LVU38
  67:/home/hkh/git/eapidk-code-r76-trunk/apps/EeePProg/linux/../EeePDB.c ****     if(pStrTbl->cuiValue==uiValue){
 172              		.loc 1 67 25 view .LVU39
  68:/home/hkh/git/eapidk-code-r76-trunk/apps/EeePProg/linux/../EeePDB.c **** #if UNICODE
 173              		.loc 1 68 7 is_stmt 0 view .LVU40
 174 0094 04E09CE5 		ldr	lr, [ip, #4]
 175 0098 0E0052E1 		cmp	r2, lr
 176 009c F9FFFF1A 		bne	.L16
ARM GAS  /tmp/ccTXisr2.s 			page 6


  72:/home/hkh/git/eapidk-code-r76-trunk/apps/EeePProg/linux/../EeePDB.c **** #endif
 177              		.loc 1 72 7 is_stmt 1 view .LVU41
 178 00a0 24209FE5 		ldr	r2, .L24+4
 179              	.LVL16:
  72:/home/hkh/git/eapidk-code-r76-trunk/apps/EeePProg/linux/../EeePDB.c **** #endif
 180              		.loc 1 72 7 is_stmt 0 view .LVU42
 181              	.LPIC4:
 182 00a4 02208FE0 		add	r2, pc, r2
 183 00a8 FEFFFFEB 		bl	EApiSprintf(PLT)
 184              	.LVL17:
  74:/home/hkh/git/eapidk-code-r76-trunk/apps/EeePProg/linux/../EeePDB.c ****     }
 185              		.loc 1 74 7 is_stmt 1 view .LVU43
  66:/home/hkh/git/eapidk-code-r76-trunk/apps/EeePProg/linux/../EeePDB.c ****   for(;pStrTbl->szString!=NULL;pStrTbl++){
 186              		.loc 1 66 16 is_stmt 0 view .LVU44
 187 00ac 0000A0E3 		mov	r0, #0
  74:/home/hkh/git/eapidk-code-r76-trunk/apps/EeePProg/linux/../EeePDB.c ****     }
 188              		.loc 1 74 7 view .LVU45
 189 00b0 1080BDE8 		pop	{r4, pc}
 190              	.LVL18:
 191              	.L15:
 192              	.L17:
  77:/home/hkh/git/eapidk-code-r76-trunk/apps/EeePProg/linux/../EeePDB.c ****   StatusCode=EAPI_STATUS_ERROR;
 193              		.loc 1 77 3 is_stmt 1 view .LVU46
 194 00b4 14209FE5 		ldr	r2, .L24+8
 195              	.LVL19:
  77:/home/hkh/git/eapidk-code-r76-trunk/apps/EeePProg/linux/../EeePDB.c ****   StatusCode=EAPI_STATUS_ERROR;
 196              		.loc 1 77 3 is_stmt 0 view .LVU47
 197              	.LPIC5:
 198 00b8 02208FE0 		add	r2, pc, r2
 199 00bc FEFFFFEB 		bl	EApiSprintf(PLT)
 200              	.LVL20:
  78:/home/hkh/git/eapidk-code-r76-trunk/apps/EeePProg/linux/../EeePDB.c **** ExitSuccess:
 201              		.loc 1 78 3 is_stmt 1 view .LVU48
  78:/home/hkh/git/eapidk-code-r76-trunk/apps/EeePProg/linux/../EeePDB.c **** ExitSuccess:
 202              		.loc 1 78 13 is_stmt 0 view .LVU49
 203 00c0 0F0CE0E3 		mvn	r0, #3840
  80:/home/hkh/git/eapidk-code-r76-trunk/apps/EeePProg/linux/../EeePDB.c **** }
 204              		.loc 1 80 3 is_stmt 1 view .LVU50
 205              	.LVL21:
  80:/home/hkh/git/eapidk-code-r76-trunk/apps/EeePProg/linux/../EeePDB.c **** }
 206              		.loc 1 80 3 is_stmt 0 view .LVU51
 207              	.LBE42:
 208              	.LBE43:
  91:/home/hkh/git/eapidk-code-r76-trunk/apps/EeePProg/linux/../EeePDB.c **** }
 209              		.loc 1 91 1 view .LVU52
 210 00c4 1080BDE8 		pop	{r4, pc}
 211              	.L25:
 212              		.align	2
 213              	.L24:
 214 00c8 4C000000 		.word	.LANCHOR0-(.LPIC2+8)
 215 00cc 20000000 		.word	.LC0-(.LPIC4+8)
 216 00d0 10000000 		.word	.LC1-(.LPIC5+8)
 217              		.cfi_endproc
 218              	.LFE2:
 220              		.align	2
 221              		.global	EeePAdjLength
 222              		.syntax unified
ARM GAS  /tmp/ccTXisr2.s 			page 7


 223              		.arm
 224              		.fpu vfpv3
 226              	EeePAdjLength:
 227              	.LVL22:
 228              	.LFB3:
  92:/home/hkh/git/eapidk-code-r76-trunk/apps/EeePProg/linux/../EeePDB.c **** size_t 
  93:/home/hkh/git/eapidk-code-r76-trunk/apps/EeePProg/linux/../EeePDB.c **** EeePAdjLength(
  94:/home/hkh/git/eapidk-code-r76-trunk/apps/EeePProg/linux/../EeePDB.c ****     size_t Length
  95:/home/hkh/git/eapidk-code-r76-trunk/apps/EeePProg/linux/../EeePDB.c ****     )
  96:/home/hkh/git/eapidk-code-r76-trunk/apps/EeePProg/linux/../EeePDB.c **** {
 229              		.loc 1 96 1 is_stmt 1 view -0
 230              		.cfi_startproc
 231              		@ args = 0, pretend = 0, frame = 0
 232              		@ frame_needed = 0, uses_anonymous_args = 0
 233              		@ link register save eliminated.
  97:/home/hkh/git/eapidk-code-r76-trunk/apps/EeePProg/linux/../EeePDB.c ****   return EEEP_DIVIDE_RU(Length, EEEP_SIZE_UNITS);
 234              		.loc 1 97 3 view .LVU54
 235              		.loc 1 97 10 is_stmt 0 view .LVU55
 236 00d4 010080E2 		add	r0, r0, #1
 237              	.LVL23:
  98:/home/hkh/git/eapidk-code-r76-trunk/apps/EeePProg/linux/../EeePDB.c **** }
 238              		.loc 1 98 1 view .LVU56
 239 00d8 A000A0E1 		lsr	r0, r0, #1
 240              	.LVL24:
 241              		.loc 1 98 1 view .LVU57
 242 00dc 1EFF2FE1 		bx	lr
 243              		.cfi_endproc
 244              	.LFE3:
 246              		.align	2
 247              		.global	EeePAlignLength
 248              		.syntax unified
 249              		.arm
 250              		.fpu vfpv3
 252              	EeePAlignLength:
 253              	.LVL25:
 254              	.LFB4:
  99:/home/hkh/git/eapidk-code-r76-trunk/apps/EeePProg/linux/../EeePDB.c **** size_t 
 100:/home/hkh/git/eapidk-code-r76-trunk/apps/EeePProg/linux/../EeePDB.c **** EeePAlignLength(
 101:/home/hkh/git/eapidk-code-r76-trunk/apps/EeePProg/linux/../EeePDB.c ****     size_t Length
 102:/home/hkh/git/eapidk-code-r76-trunk/apps/EeePProg/linux/../EeePDB.c ****     )
 103:/home/hkh/git/eapidk-code-r76-trunk/apps/EeePProg/linux/../EeePDB.c **** {
 255              		.loc 1 103 1 is_stmt 1 view -0
 256              		.cfi_startproc
 257              		@ args = 0, pretend = 0, frame = 0
 258              		@ frame_needed = 0, uses_anonymous_args = 0
 259              		@ link register save eliminated.
 104:/home/hkh/git/eapidk-code-r76-trunk/apps/EeePProg/linux/../EeePDB.c **** #if (EEEP_SIZE_UNITS&(EEEP_SIZE_UNITS-1))
 105:/home/hkh/git/eapidk-code-r76-trunk/apps/EeePProg/linux/../EeePDB.c ****   return EEEP_ALIGN_VALUE(Length, EEEP_SIZE_UNITS);
 106:/home/hkh/git/eapidk-code-r76-trunk/apps/EeePProg/linux/../EeePDB.c **** #else
 107:/home/hkh/git/eapidk-code-r76-trunk/apps/EeePProg/linux/../EeePDB.c ****   return EEEP_ALIGN_VALUE_B(Length, EEEP_SIZE_UNITS);
 260              		.loc 1 107 3 view .LVU59
 261              		.loc 1 107 10 is_stmt 0 view .LVU60
 262 00e0 010080E2 		add	r0, r0, #1
 263              	.LVL26:
 108:/home/hkh/git/eapidk-code-r76-trunk/apps/EeePProg/linux/../EeePDB.c **** #endif
 109:/home/hkh/git/eapidk-code-r76-trunk/apps/EeePProg/linux/../EeePDB.c **** }
 264              		.loc 1 109 1 view .LVU61
ARM GAS  /tmp/ccTXisr2.s 			page 8


 265 00e4 0100C0E3 		bic	r0, r0, #1
 266              	.LVL27:
 267              		.loc 1 109 1 view .LVU62
 268 00e8 1EFF2FE1 		bx	lr
 269              		.cfi_endproc
 270              	.LFE4:
 272              		.section	.rodata.str1.4
 273 000f 00       		.align	2
 274              	.LC2:
 275 0010 53657442 		.ascii	"SetBlockLength\000"
 275      6C6F636B 
 275      4C656E67 
 275      746800
 276 001f 00       		.align	2
 277              	.LC3:
 278 0020 2F686F6D 		.ascii	"/home/hkh/git/eapidk-code-r76-trunk/apps/EeePProg/l"
 278      652F686B 
 278      682F6769 
 278      742F6561 
 278      7069646B 
 279 0053 696E7578 		.ascii	"inux/../EeePDB.c\000"
 279      2F2E2E2F 
 279      45656550 
 279      44422E63 
 279      00
 280              		.align	2
 281              	.LC4:
 282 0064 28424861 		.ascii	"(BHandel==NULL)\000"
 282      6E64656C 
 282      3D3D4E55 
 282      4C4C2900 
 283              		.align	2
 284              	.LC5:
 285 0074 25730A00 		.ascii	"%s\012\000"
 286              		.align	2
 287              	.LC6:
 288 0078 28737442 		.ascii	"(stBlockLength%EEEP_SIZE_UNITS)\000"
 288      6C6F636B 
 288      4C656E67 
 288      74682545 
 288      4545505F 
 289              		.align	2
 290              	.LC7:
 291 0098 28737442 		.ascii	"(stBlockLength>(UINT16_MAX*EEEP_SIZE_UNITS))\000"
 291      6C6F636B 
 291      4C656E67 
 291      74683E28 
 291      55494E54 
 292              		.text
 293              		.align	2
 294              		.global	SetBlockLength
 295              		.syntax unified
 296              		.arm
 297              		.fpu vfpv3
 299              	SetBlockLength:
 300              	.LVL28:
 301              	.LFB5:
ARM GAS  /tmp/ccTXisr2.s 			page 9


 110:/home/hkh/git/eapidk-code-r76-trunk/apps/EeePProg/linux/../EeePDB.c **** 
 111:/home/hkh/git/eapidk-code-r76-trunk/apps/EeePProg/linux/../EeePDB.c **** EApiStatus_t
 112:/home/hkh/git/eapidk-code-r76-trunk/apps/EeePProg/linux/../EeePDB.c **** SetBlockLength(
 113:/home/hkh/git/eapidk-code-r76-trunk/apps/EeePProg/linux/../EeePDB.c ****     EeePHandel_t BHandel,
 114:/home/hkh/git/eapidk-code-r76-trunk/apps/EeePProg/linux/../EeePDB.c ****     size_t       stBlockLength
 115:/home/hkh/git/eapidk-code-r76-trunk/apps/EeePProg/linux/../EeePDB.c ****     )
 116:/home/hkh/git/eapidk-code-r76-trunk/apps/EeePProg/linux/../EeePDB.c **** {
 302              		.loc 1 116 1 is_stmt 1 view -0
 303              		.cfi_startproc
 304              		@ args = 0, pretend = 0, frame = 0
 305              		@ frame_needed = 0, uses_anonymous_args = 0
 117:/home/hkh/git/eapidk-code-r76-trunk/apps/EeePProg/linux/../EeePDB.c ****   EApiStatus_t StatusCode=EAPI_STATUS_SUCCESS;
 306              		.loc 1 117 3 view .LVU64
 118:/home/hkh/git/eapidk-code-r76-trunk/apps/EeePProg/linux/../EeePDB.c ****   EAPI_APP_ASSERT_PARAMATER_NULL(
 307              		.loc 1 118 3 view .LVU65
 308 00ec 000050E3 		cmp	r0, #0
 116:/home/hkh/git/eapidk-code-r76-trunk/apps/EeePProg/linux/../EeePDB.c ****   EApiStatus_t StatusCode=EAPI_STATUS_SUCCESS;
 309              		.loc 1 116 1 is_stmt 0 view .LVU66
 310 00f0 10402DE9 		push	{r4, lr}
 311              		.cfi_def_cfa_offset 8
 312              		.cfi_offset 4, -8
 313              		.cfi_offset 14, -4
 314 00f4 10D04DE2 		sub	sp, sp, #16
 315              		.cfi_def_cfa_offset 24
 316              		.loc 1 118 3 view .LVU67
 317 00f8 2700000A 		beq	.L35
 318              		.loc 1 118 3 is_stmt 1 discriminator 2 view .LVU68
 119:/home/hkh/git/eapidk-code-r76-trunk/apps/EeePProg/linux/../EeePDB.c ****       SetBlockLength,
 120:/home/hkh/git/eapidk-code-r76-trunk/apps/EeePProg/linux/../EeePDB.c ****       EAPI_STATUS_INVALID_PARAMETER,
 121:/home/hkh/git/eapidk-code-r76-trunk/apps/EeePProg/linux/../EeePDB.c ****       BHandel
 122:/home/hkh/git/eapidk-code-r76-trunk/apps/EeePProg/linux/../EeePDB.c ****     );
 319              		.loc 1 122 6 discriminator 2 view .LVU69
 123:/home/hkh/git/eapidk-code-r76-trunk/apps/EeePProg/linux/../EeePDB.c ****   EAPI_APP_ASSERT_PARAMATER_CHECK_S(
 320              		.loc 1 123 3 discriminator 2 view .LVU70
 321 00fc 014011E2 		ands	r4, r1, #1
 322 0100 1A00001A 		bne	.L36
 323              		.loc 1 123 3 discriminator 2 view .LVU71
 124:/home/hkh/git/eapidk-code-r76-trunk/apps/EeePProg/linux/../EeePDB.c ****       SetBlockLength,
 125:/home/hkh/git/eapidk-code-r76-trunk/apps/EeePProg/linux/../EeePDB.c ****       EAPI_STATUS_INVALID_PARAMETER,
 126:/home/hkh/git/eapidk-code-r76-trunk/apps/EeePProg/linux/../EeePDB.c ****       (stBlockLength%EEEP_SIZE_UNITS)
 127:/home/hkh/git/eapidk-code-r76-trunk/apps/EeePProg/linux/../EeePDB.c ****     );
 324              		.loc 1 127 6 discriminator 2 view .LVU72
 128:/home/hkh/git/eapidk-code-r76-trunk/apps/EeePProg/linux/../EeePDB.c ****   EAPI_APP_ASSERT_PARAMATER_CHECK_S(
 325              		.loc 1 128 3 discriminator 2 view .LVU73
 326 0104 FE3F0FE3 		movw	r3, #65534
 327 0108 013040E3 		movt	r3, 1
 328 010c 030051E1 		cmp	r1, r3
 329 0110 0500008A 		bhi	.L37
 330              	.L30:
 331              		.loc 1 128 3 discriminator 2 view .LVU74
 129:/home/hkh/git/eapidk-code-r76-trunk/apps/EeePProg/linux/../EeePDB.c ****       SetBlockLength, 
 130:/home/hkh/git/eapidk-code-r76-trunk/apps/EeePProg/linux/../EeePDB.c ****       EAPI_STATUS_INVALID_PARAMETER, 
 131:/home/hkh/git/eapidk-code-r76-trunk/apps/EeePProg/linux/../EeePDB.c ****       (stBlockLength>(UINT16_MAX*EEEP_SIZE_UNITS))
 132:/home/hkh/git/eapidk-code-r76-trunk/apps/EeePProg/linux/../EeePDB.c ****     );
 332              		.loc 1 132 6 discriminator 2 view .LVU75
 133:/home/hkh/git/eapidk-code-r76-trunk/apps/EeePProg/linux/../EeePDB.c **** 
 134:/home/hkh/git/eapidk-code-r76-trunk/apps/EeePProg/linux/../EeePDB.c ****   EeeP_Set16BitValue_BE(
ARM GAS  /tmp/ccTXisr2.s 			page 10


 333              		.loc 1 134 3 discriminator 2 view .LVU76
 334 0114 D110EFE7 		ubfx	r1, r1, #1, #16
 335              	.LVL29:
 336              		.loc 1 134 3 is_stmt 0 discriminator 2 view .LVU77
 337 0118 010080E2 		add	r0, r0, #1
 338              	.LVL30:
 339              		.loc 1 134 3 discriminator 2 view .LVU78
 340 011c FEFFFFEB 		bl	EeeP_Set16BitValue_BE(PLT)
 341              	.LVL31:
 135:/home/hkh/git/eapidk-code-r76-trunk/apps/EeePProg/linux/../EeePDB.c ****         ((DBlockIdHdr_t*)BHandel)->DBlockLength, 
 136:/home/hkh/git/eapidk-code-r76-trunk/apps/EeePProg/linux/../EeePDB.c ****         EEEP_LO_UINT16((stBlockLength)/EEEP_SIZE_UNITS)
 137:/home/hkh/git/eapidk-code-r76-trunk/apps/EeePProg/linux/../EeePDB.c ****       );
 138:/home/hkh/git/eapidk-code-r76-trunk/apps/EeePProg/linux/../EeePDB.c **** EAPI_APP_ASSERT_EXIT
 139:/home/hkh/git/eapidk-code-r76-trunk/apps/EeePProg/linux/../EeePDB.c ****   if(!EAPI_TEST_SUCCESS(StatusCode)){
 342              		.loc 1 139 3 is_stmt 1 discriminator 2 view .LVU79
 140:/home/hkh/git/eapidk-code-r76-trunk/apps/EeePProg/linux/../EeePDB.c ****   }
 343              		.loc 1 140 3 discriminator 2 view .LVU80
 141:/home/hkh/git/eapidk-code-r76-trunk/apps/EeePProg/linux/../EeePDB.c ****   return StatusCode;
 344              		.loc 1 141 3 discriminator 2 view .LVU81
 142:/home/hkh/git/eapidk-code-r76-trunk/apps/EeePProg/linux/../EeePDB.c **** }
 345              		.loc 1 142 1 is_stmt 0 discriminator 2 view .LVU82
 346 0120 0400A0E1 		mov	r0, r4
 347 0124 10D08DE2 		add	sp, sp, #16
 348              		.cfi_remember_state
 349              		.cfi_def_cfa_offset 8
 350              		@ sp needed
 351 0128 1080BDE8 		pop	{r4, pc}
 352              	.LVL32:
 353              	.L37:
 354              		.cfi_restore_state
 128:/home/hkh/git/eapidk-code-r76-trunk/apps/EeePProg/linux/../EeePDB.c ****       SetBlockLength, 
 355              		.loc 1 128 3 is_stmt 1 discriminator 1 view .LVU83
 128:/home/hkh/git/eapidk-code-r76-trunk/apps/EeePProg/linux/../EeePDB.c ****       SetBlockLength, 
 356              		.loc 1 128 3 discriminator 1 view .LVU84
 357 012c 94C09FE5 		ldr	ip, .L38
 358 0130 014CE0E3 		mvn	r4, #256
 359 0134 90009FE5 		ldr	r0, .L38+4
 360              	.LVL33:
 128:/home/hkh/git/eapidk-code-r76-trunk/apps/EeePProg/linux/../EeePDB.c ****       SetBlockLength, 
 361              		.loc 1 128 3 is_stmt 0 discriminator 1 view .LVU85
 362 0138 8030A0E3 		mov	r3, #128
 363 013c 8C209FE5 		ldr	r2, .L38+8
 364 0140 8C109FE5 		ldr	r1, .L38+12
 365              	.LVL34:
 128:/home/hkh/git/eapidk-code-r76-trunk/apps/EeePProg/linux/../EeePDB.c ****       SetBlockLength, 
 366              		.loc 1 128 3 discriminator 1 view .LVU86
 367              	.LPIC16:
 368 0144 0CC08FE0 		add	ip, pc, ip
 369              	.LPIC17:
 370 0148 00008FE0 		add	r0, pc, r0
 371              	.LPIC14:
 372 014c 02208FE0 		add	r2, pc, r2
 373              	.LPIC15:
 374 0150 01108FE0 		add	r1, pc, r1
 375              	.L34:
 376 0154 01108DE9 		stmib	sp, {r0, ip}
 377 0158 4500A0E3 		mov	r0, #69
ARM GAS  /tmp/ccTXisr2.s 			page 11


 378 015c 00408DE5 		str	r4, [sp]
 379 0160 FEFFFFEB 		bl	siFormattedMessage_SC(PLT)
 380              	.LVL35:
 128:/home/hkh/git/eapidk-code-r76-trunk/apps/EeePProg/linux/../EeePDB.c ****       SetBlockLength, 
 381              		.loc 1 128 3 is_stmt 1 discriminator 1 view .LVU87
 128:/home/hkh/git/eapidk-code-r76-trunk/apps/EeePProg/linux/../EeePDB.c ****       SetBlockLength, 
 382              		.loc 1 128 3 discriminator 1 view .LVU88
 128:/home/hkh/git/eapidk-code-r76-trunk/apps/EeePProg/linux/../EeePDB.c ****       SetBlockLength, 
 383              		.loc 1 128 3 discriminator 1 view .LVU89
 384              		.loc 1 142 1 is_stmt 0 discriminator 1 view .LVU90
 385 0164 0400A0E1 		mov	r0, r4
 386 0168 10D08DE2 		add	sp, sp, #16
 387              		.cfi_remember_state
 388              		.cfi_def_cfa_offset 8
 389              		@ sp needed
 390 016c 1080BDE8 		pop	{r4, pc}
 391              	.LVL36:
 392              	.L36:
 393              		.cfi_restore_state
 123:/home/hkh/git/eapidk-code-r76-trunk/apps/EeePProg/linux/../EeePDB.c ****       SetBlockLength,
 394              		.loc 1 123 3 is_stmt 1 discriminator 1 view .LVU91
 123:/home/hkh/git/eapidk-code-r76-trunk/apps/EeePProg/linux/../EeePDB.c ****       SetBlockLength,
 395              		.loc 1 123 3 discriminator 1 view .LVU92
 396 0170 60C09FE5 		ldr	ip, .L38+16
 397 0174 014CE0E3 		mvn	r4, #256
 398 0178 5C009FE5 		ldr	r0, .L38+20
 399              	.LVL37:
 123:/home/hkh/git/eapidk-code-r76-trunk/apps/EeePProg/linux/../EeePDB.c ****       SetBlockLength,
 400              		.loc 1 123 3 is_stmt 0 discriminator 1 view .LVU93
 401 017c 7B30A0E3 		mov	r3, #123
 402 0180 58209FE5 		ldr	r2, .L38+24
 403 0184 58109FE5 		ldr	r1, .L38+28
 404              	.LVL38:
 123:/home/hkh/git/eapidk-code-r76-trunk/apps/EeePProg/linux/../EeePDB.c ****       SetBlockLength,
 405              		.loc 1 123 3 discriminator 1 view .LVU94
 406              	.LPIC12:
 407 0188 0CC08FE0 		add	ip, pc, ip
 408              	.LPIC13:
 409 018c 00008FE0 		add	r0, pc, r0
 410              	.LPIC10:
 411 0190 02208FE0 		add	r2, pc, r2
 412              	.LPIC11:
 413 0194 01108FE0 		add	r1, pc, r1
 414 0198 EDFFFFEA 		b	.L34
 415              	.LVL39:
 416              	.L35:
 417              	.LBB46:
 418              	.LBI46:
 112:/home/hkh/git/eapidk-code-r76-trunk/apps/EeePProg/linux/../EeePDB.c ****     EeePHandel_t BHandel,
 419              		.loc 1 112 1 is_stmt 1 view .LVU95
 420              	.LBB47:
 118:/home/hkh/git/eapidk-code-r76-trunk/apps/EeePProg/linux/../EeePDB.c ****       SetBlockLength,
 421              		.loc 1 118 3 view .LVU96
 118:/home/hkh/git/eapidk-code-r76-trunk/apps/EeePProg/linux/../EeePDB.c ****       SetBlockLength,
 422              		.loc 1 118 3 view .LVU97
 423 019c 44C09FE5 		ldr	ip, .L38+32
 424 01a0 014CE0E3 		mvn	r4, #256
ARM GAS  /tmp/ccTXisr2.s 			page 12


 425 01a4 40009FE5 		ldr	r0, .L38+36
 426              	.LVL40:
 118:/home/hkh/git/eapidk-code-r76-trunk/apps/EeePProg/linux/../EeePDB.c ****       SetBlockLength,
 427              		.loc 1 118 3 is_stmt 0 view .LVU98
 428 01a8 7630A0E3 		mov	r3, #118
 429 01ac 3C209FE5 		ldr	r2, .L38+40
 430 01b0 3C109FE5 		ldr	r1, .L38+44
 431              	.LVL41:
 118:/home/hkh/git/eapidk-code-r76-trunk/apps/EeePProg/linux/../EeePDB.c ****       SetBlockLength,
 432              		.loc 1 118 3 view .LVU99
 433              	.LPIC8:
 434 01b4 0CC08FE0 		add	ip, pc, ip
 435              	.LPIC9:
 436 01b8 00008FE0 		add	r0, pc, r0
 437              	.LPIC6:
 438 01bc 02208FE0 		add	r2, pc, r2
 439              	.LPIC7:
 440 01c0 01108FE0 		add	r1, pc, r1
 441 01c4 E2FFFFEA 		b	.L34
 442              	.L39:
 443              		.align	2
 444              	.L38:
 445 01c8 7C000000 		.word	.LC7-(.LPIC16+8)
 446 01cc 7C000000 		.word	.LC5-(.LPIC17+8)
 447 01d0 7C000000 		.word	.LC2-(.LPIC14+8)
 448 01d4 7C000000 		.word	.LC3-(.LPIC15+8)
 449 01d8 48000000 		.word	.LC6-(.LPIC12+8)
 450 01dc 48000000 		.word	.LC5-(.LPIC13+8)
 451 01e0 48000000 		.word	.LC2-(.LPIC10+8)
 452 01e4 48000000 		.word	.LC3-(.LPIC11+8)
 453 01e8 2C000000 		.word	.LC4-(.LPIC8+8)
 454 01ec 2C000000 		.word	.LC5-(.LPIC9+8)
 455 01f0 2C000000 		.word	.LC2-(.LPIC6+8)
 456 01f4 2C000000 		.word	.LC3-(.LPIC7+8)
 457              	.LBE47:
 458              	.LBE46:
 459              		.cfi_endproc
 460              	.LFE5:
 462              		.align	2
 463              		.global	GetBlockLength
 464              		.syntax unified
 465              		.arm
 466              		.fpu vfpv3
 468              	GetBlockLength:
 469              	.LVL42:
 470              	.LFB6:
 143:/home/hkh/git/eapidk-code-r76-trunk/apps/EeePProg/linux/../EeePDB.c **** size_t 
 144:/home/hkh/git/eapidk-code-r76-trunk/apps/EeePProg/linux/../EeePDB.c **** GetBlockLength(
 145:/home/hkh/git/eapidk-code-r76-trunk/apps/EeePProg/linux/../EeePDB.c ****     const void * pcvBHandel
 146:/home/hkh/git/eapidk-code-r76-trunk/apps/EeePProg/linux/../EeePDB.c ****     )
 147:/home/hkh/git/eapidk-code-r76-trunk/apps/EeePProg/linux/../EeePDB.c **** {
 471              		.loc 1 147 1 is_stmt 1 view -0
 472              		.cfi_startproc
 473              		@ args = 0, pretend = 0, frame = 0
 474              		@ frame_needed = 0, uses_anonymous_args = 0
 148:/home/hkh/git/eapidk-code-r76-trunk/apps/EeePProg/linux/../EeePDB.c ****   size_t stBlockSize=EEEP_OFFSET_VALUE_EOL;
 475              		.loc 1 148 3 view .LVU101
ARM GAS  /tmp/ccTXisr2.s 			page 13


 149:/home/hkh/git/eapidk-code-r76-trunk/apps/EeePProg/linux/../EeePDB.c ****   if(!pcvBHandel) return stBlockSize;
 476              		.loc 1 149 3 view .LVU102
 477              		.loc 1 149 5 is_stmt 0 view .LVU103
 478 01f8 000050E3 		cmp	r0, #0
 479              		.loc 1 149 5 view .LVU104
 480 01fc 1EFF2F01 		bxeq	lr
 481              	.LVL43:
 482              	.LBB50:
 483              	.LBI50:
 144:/home/hkh/git/eapidk-code-r76-trunk/apps/EeePProg/linux/../EeePDB.c ****     const void * pcvBHandel
 484              		.loc 1 144 1 is_stmt 1 view .LVU105
 485              	.LBB51:
 150:/home/hkh/git/eapidk-code-r76-trunk/apps/EeePProg/linux/../EeePDB.c **** 
 151:/home/hkh/git/eapidk-code-r76-trunk/apps/EeePProg/linux/../EeePDB.c ****   stBlockSize=EeeP_Get16BitValue_BE(((DBlockIdHdr_t*)pcvBHandel)->DBlockLength )*EEEP_SIZE_UNITS;
 486              		.loc 1 151 3 view .LVU106
 487              	.LBE51:
 488              	.LBE50:
 147:/home/hkh/git/eapidk-code-r76-trunk/apps/EeePProg/linux/../EeePDB.c ****   size_t stBlockSize=EEEP_OFFSET_VALUE_EOL;
 489              		.loc 1 147 1 is_stmt 0 view .LVU107
 490 0200 10402DE9 		push	{r4, lr}
 491              		.cfi_def_cfa_offset 8
 492              		.cfi_offset 4, -8
 493              		.cfi_offset 14, -4
 494              	.LBB53:
 495              	.LBB52:
 496              		.loc 1 151 15 view .LVU108
 497 0204 010080E2 		add	r0, r0, #1
 498              	.LVL44:
 499              		.loc 1 151 15 view .LVU109
 500 0208 FEFFFFEB 		bl	EeeP_Get16BitValue_BE(PLT)
 501              	.LVL45:
 502              		.loc 1 151 81 view .LVU110
 503 020c 8000A0E1 		lsl	r0, r0, #1
 504              	.LVL46:
 152:/home/hkh/git/eapidk-code-r76-trunk/apps/EeePProg/linux/../EeePDB.c ****   return stBlockSize;
 505              		.loc 1 152 3 is_stmt 1 view .LVU111
 506              		.loc 1 152 3 is_stmt 0 view .LVU112
 507              	.LBE52:
 508              	.LBE53:
 153:/home/hkh/git/eapidk-code-r76-trunk/apps/EeePProg/linux/../EeePDB.c **** }
 509              		.loc 1 153 1 view .LVU113
 510 0210 1080BDE8 		pop	{r4, pc}
 511              		.cfi_endproc
 512              	.LFE6:
 514              		.section	.rodata.str1.4
 515 00c5 000000   		.align	2
 516              	.LC8:
 517 00c8 4765744E 		.ascii	"GetNextBlock\000"
 517      65787442 
 517      6C6F636B 
 517      00
 518 00d5 000000   		.align	2
 519              	.LC9:
 520 00d8 28704375 		.ascii	"(pCurBlock==NULL)\000"
 520      72426C6F 
 520      636B3D3D 
 520      4E554C4C 
ARM GAS  /tmp/ccTXisr2.s 			page 14


 520      2900
 521              		.text
 522              		.align	2
 523              		.global	GetNextBlock
 524              		.syntax unified
 525              		.arm
 526              		.fpu vfpv3
 528              	GetNextBlock:
 529              	.LVL47:
 530              	.LFB7:
 154:/home/hkh/git/eapidk-code-r76-trunk/apps/EeePProg/linux/../EeePDB.c **** DBlockIdHdr_t * 
 155:/home/hkh/git/eapidk-code-r76-trunk/apps/EeePProg/linux/../EeePDB.c **** GetNextBlock(
 156:/home/hkh/git/eapidk-code-r76-trunk/apps/EeePProg/linux/../EeePDB.c ****     DBlockIdHdr_t *pCurBlock
 157:/home/hkh/git/eapidk-code-r76-trunk/apps/EeePProg/linux/../EeePDB.c ****     )
 158:/home/hkh/git/eapidk-code-r76-trunk/apps/EeePProg/linux/../EeePDB.c **** {
 531              		.loc 1 158 1 is_stmt 1 view -0
 532              		.cfi_startproc
 533              		@ args = 0, pretend = 0, frame = 0
 534              		@ frame_needed = 0, uses_anonymous_args = 0
 159:/home/hkh/git/eapidk-code-r76-trunk/apps/EeePProg/linux/../EeePDB.c ****   DBlockIdHdr_t * StatusCode=EAPI_STATUS_SUCCESS;
 535              		.loc 1 159 3 view .LVU115
 160:/home/hkh/git/eapidk-code-r76-trunk/apps/EeePProg/linux/../EeePDB.c ****   size_t stBlockLength;
 536              		.loc 1 160 3 view .LVU116
 161:/home/hkh/git/eapidk-code-r76-trunk/apps/EeePProg/linux/../EeePDB.c ****   EAPI_APP_ASSERT_PARAMATER_NULL(
 537              		.loc 1 161 3 view .LVU117
 158:/home/hkh/git/eapidk-code-r76-trunk/apps/EeePProg/linux/../EeePDB.c ****   DBlockIdHdr_t * StatusCode=EAPI_STATUS_SUCCESS;
 538              		.loc 1 158 1 is_stmt 0 view .LVU118
 539 0214 10402DE9 		push	{r4, lr}
 540              		.cfi_def_cfa_offset 8
 541              		.cfi_offset 4, -8
 542              		.cfi_offset 14, -4
 543              		.loc 1 161 3 view .LVU119
 544 0218 004050E2 		subs	r4, r0, #0
 158:/home/hkh/git/eapidk-code-r76-trunk/apps/EeePProg/linux/../EeePDB.c ****   DBlockIdHdr_t * StatusCode=EAPI_STATUS_SUCCESS;
 545              		.loc 1 158 1 view .LVU120
 546 021c 10D04DE2 		sub	sp, sp, #16
 547              		.cfi_def_cfa_offset 24
 548              		.loc 1 161 3 view .LVU121
 549 0220 0A00000A 		beq	.L54
 550              		.loc 1 161 3 is_stmt 1 view .LVU122
 162:/home/hkh/git/eapidk-code-r76-trunk/apps/EeePProg/linux/../EeePDB.c ****       GetNextBlock,
 163:/home/hkh/git/eapidk-code-r76-trunk/apps/EeePProg/linux/../EeePDB.c ****       NULL,
 164:/home/hkh/git/eapidk-code-r76-trunk/apps/EeePProg/linux/../EeePDB.c ****       pCurBlock
 165:/home/hkh/git/eapidk-code-r76-trunk/apps/EeePProg/linux/../EeePDB.c ****     );
 551              		.loc 1 165 6 view .LVU123
 166:/home/hkh/git/eapidk-code-r76-trunk/apps/EeePProg/linux/../EeePDB.c ****   stBlockLength=GetBlockLength(pCurBlock);
 552              		.loc 1 166 3 view .LVU124
 553              	.LVL48:
 554              	.LBB64:
 555              	.LBI64:
 144:/home/hkh/git/eapidk-code-r76-trunk/apps/EeePProg/linux/../EeePDB.c ****     const void * pcvBHandel
 556              		.loc 1 144 1 view .LVU125
 557              	.LBB65:
 148:/home/hkh/git/eapidk-code-r76-trunk/apps/EeePProg/linux/../EeePDB.c ****   if(!pcvBHandel) return stBlockSize;
 558              		.loc 1 148 3 view .LVU126
 149:/home/hkh/git/eapidk-code-r76-trunk/apps/EeePProg/linux/../EeePDB.c **** 
 559              		.loc 1 149 3 view .LVU127
ARM GAS  /tmp/ccTXisr2.s 			page 15


 560              	.LBB66:
 561              	.LBI66:
 144:/home/hkh/git/eapidk-code-r76-trunk/apps/EeePProg/linux/../EeePDB.c ****     const void * pcvBHandel
 562              		.loc 1 144 1 view .LVU128
 563              	.LBB67:
 151:/home/hkh/git/eapidk-code-r76-trunk/apps/EeePProg/linux/../EeePDB.c ****   return stBlockSize;
 564              		.loc 1 151 3 view .LVU129
 151:/home/hkh/git/eapidk-code-r76-trunk/apps/EeePProg/linux/../EeePDB.c ****   return stBlockSize;
 565              		.loc 1 151 15 is_stmt 0 view .LVU130
 566 0224 010084E2 		add	r0, r4, #1
 567              	.LVL49:
 151:/home/hkh/git/eapidk-code-r76-trunk/apps/EeePProg/linux/../EeePDB.c ****   return stBlockSize;
 568              		.loc 1 151 15 view .LVU131
 569 0228 FEFFFFEB 		bl	EeeP_Get16BitValue_BE(PLT)
 570              	.LVL50:
 571              	.LBE67:
 572              	.LBE66:
 573              	.LBE65:
 574              	.LBE64:
 167:/home/hkh/git/eapidk-code-r76-trunk/apps/EeePProg/linux/../EeePDB.c ****   switch(stBlockLength){
 575              		.loc 1 167 3 view .LVU132
 576 022c 000050E3 		cmp	r0, #0
 577              	.LBB71:
 578              	.LBB70:
 579              	.LBB69:
 580              	.LBB68:
 151:/home/hkh/git/eapidk-code-r76-trunk/apps/EeePProg/linux/../EeePDB.c ****   return stBlockSize;
 581              		.loc 1 151 81 view .LVU133
 582 0230 8020A0E1 		lsl	r2, r0, #1
 583              	.LVL51:
 152:/home/hkh/git/eapidk-code-r76-trunk/apps/EeePProg/linux/../EeePDB.c **** }
 584              		.loc 1 152 3 is_stmt 1 view .LVU134
 152:/home/hkh/git/eapidk-code-r76-trunk/apps/EeePProg/linux/../EeePDB.c **** }
 585              		.loc 1 152 3 is_stmt 0 view .LVU135
 586              	.LBE68:
 587              	.LBE69:
 588              	.LBE70:
 589              	.LBE71:
 590              		.loc 1 167 3 is_stmt 1 view .LVU136
 591 0234 0300000A 		beq	.L47
 592 0238 FF3F0FE3 		movw	r3, #65535
 593 023c 030050E1 		cmp	r0, r3
 168:/home/hkh/git/eapidk-code-r76-trunk/apps/EeePProg/linux/../EeePDB.c ****     case EEEP_OFFSET_VALUE_EOL:
 169:/home/hkh/git/eapidk-code-r76-trunk/apps/EeePProg/linux/../EeePDB.c ****     case EEEP_OFFSET_VALUE_EOL_ALT*EEEP_SIZE_UNITS:
 170:/home/hkh/git/eapidk-code-r76-trunk/apps/EeePProg/linux/../EeePDB.c ****       goto ErrorExit;
 171:/home/hkh/git/eapidk-code-r76-trunk/apps/EeePProg/linux/../EeePDB.c ****       break;
 594              		.loc 1 171 7 view .LVU137
 172:/home/hkh/git/eapidk-code-r76-trunk/apps/EeePProg/linux/../EeePDB.c ****     default:
 173:/home/hkh/git/eapidk-code-r76-trunk/apps/EeePProg/linux/../EeePDB.c ****       StatusCode=EAPI_CREATE_PTR(
 595              		.loc 1 173 7 view .LVU138
 596              		.loc 1 173 17 is_stmt 0 view .LVU139
 597 0240 02008410 		addne	r0, r4, r2
 598              	.LVL52:
 174:/home/hkh/git/eapidk-code-r76-trunk/apps/EeePProg/linux/../EeePDB.c ****           pCurBlock         ,
 175:/home/hkh/git/eapidk-code-r76-trunk/apps/EeePProg/linux/../EeePDB.c ****           stBlockLength     ,
 176:/home/hkh/git/eapidk-code-r76-trunk/apps/EeePProg/linux/../EeePDB.c ****           DBlockIdHdr_t *
 177:/home/hkh/git/eapidk-code-r76-trunk/apps/EeePProg/linux/../EeePDB.c ****         );
ARM GAS  /tmp/ccTXisr2.s 			page 16


 178:/home/hkh/git/eapidk-code-r76-trunk/apps/EeePProg/linux/../EeePDB.c ****       break;
 599              		.loc 1 178 7 is_stmt 1 view .LVU140
 167:/home/hkh/git/eapidk-code-r76-trunk/apps/EeePProg/linux/../EeePDB.c ****     case EEEP_OFFSET_VALUE_EOL:
 600              		.loc 1 167 3 is_stmt 0 view .LVU141
 601 0244 0000A003 		moveq	r0, #0
 602              	.LVL53:
 179:/home/hkh/git/eapidk-code-r76-trunk/apps/EeePProg/linux/../EeePDB.c ****       }
 180:/home/hkh/git/eapidk-code-r76-trunk/apps/EeePProg/linux/../EeePDB.c **** ErrorExit:
 181:/home/hkh/git/eapidk-code-r76-trunk/apps/EeePProg/linux/../EeePDB.c **** EAPI_APP_ASSERT_EXIT
 182:/home/hkh/git/eapidk-code-r76-trunk/apps/EeePProg/linux/../EeePDB.c ****   return StatusCode;
 603              		.loc 1 182 3 is_stmt 1 view .LVU142
 604              	.L49:
 605              	.L50:
 606              	.L47:
 183:/home/hkh/git/eapidk-code-r76-trunk/apps/EeePProg/linux/../EeePDB.c **** }
 607              		.loc 1 183 1 is_stmt 0 view .LVU143
 608 0248 10D08DE2 		add	sp, sp, #16
 609              		.cfi_remember_state
 610              		.cfi_def_cfa_offset 8
 611              		@ sp needed
 612 024c 1080BDE8 		pop	{r4, pc}
 613              	.LVL54:
 614              	.L54:
 615              		.cfi_restore_state
 616              	.LBB72:
 617              	.LBI72:
 155:/home/hkh/git/eapidk-code-r76-trunk/apps/EeePProg/linux/../EeePDB.c ****     DBlockIdHdr_t *pCurBlock
 618              		.loc 1 155 1 is_stmt 1 view .LVU144
 619              	.LBB73:
 161:/home/hkh/git/eapidk-code-r76-trunk/apps/EeePProg/linux/../EeePDB.c ****       GetNextBlock,
 620              		.loc 1 161 3 view .LVU145
 161:/home/hkh/git/eapidk-code-r76-trunk/apps/EeePProg/linux/../EeePDB.c ****       GetNextBlock,
 621              		.loc 1 161 3 view .LVU146
 622 0250 34C09FE5 		ldr	ip, .L55
 623 0254 A130A0E3 		mov	r3, #161
 624 0258 30009FE5 		ldr	r0, .L55+4
 625              	.LVL55:
 161:/home/hkh/git/eapidk-code-r76-trunk/apps/EeePProg/linux/../EeePDB.c ****       GetNextBlock,
 626              		.loc 1 161 3 is_stmt 0 view .LVU147
 627 025c 30209FE5 		ldr	r2, .L55+8
 628 0260 30109FE5 		ldr	r1, .L55+12
 629              	.LPIC20:
 630 0264 0CC08FE0 		add	ip, pc, ip
 631              	.LPIC21:
 632 0268 00008FE0 		add	r0, pc, r0
 633 026c 00408DE5 		str	r4, [sp]
 634 0270 01108DE9 		stmib	sp, {r0, ip}
 635              	.LPIC18:
 636 0274 02208FE0 		add	r2, pc, r2
 637              	.LPIC19:
 638 0278 01108FE0 		add	r1, pc, r1
 639 027c 4500A0E3 		mov	r0, #69
 640 0280 FEFFFFEB 		bl	siFormattedMessage_SC(PLT)
 641              	.LVL56:
 161:/home/hkh/git/eapidk-code-r76-trunk/apps/EeePProg/linux/../EeePDB.c ****       GetNextBlock,
 642              		.loc 1 161 3 is_stmt 1 view .LVU148
 161:/home/hkh/git/eapidk-code-r76-trunk/apps/EeePProg/linux/../EeePDB.c ****       GetNextBlock,
ARM GAS  /tmp/ccTXisr2.s 			page 17


 643              		.loc 1 161 3 view .LVU149
 161:/home/hkh/git/eapidk-code-r76-trunk/apps/EeePProg/linux/../EeePDB.c ****       GetNextBlock,
 644              		.loc 1 161 3 view .LVU150
 645              	.LDL1:
 646              	.LDL2:
 182:/home/hkh/git/eapidk-code-r76-trunk/apps/EeePProg/linux/../EeePDB.c **** }
 647              		.loc 1 182 3 view .LVU151
 161:/home/hkh/git/eapidk-code-r76-trunk/apps/EeePProg/linux/../EeePDB.c ****       GetNextBlock,
 648              		.loc 1 161 3 is_stmt 0 view .LVU152
 649 0284 0400A0E1 		mov	r0, r4
 650 0288 EEFFFFEA 		b	.L47
 651              	.L56:
 652              		.align	2
 653              	.L55:
 654 028c 20000000 		.word	.LC9-(.LPIC20+8)
 655 0290 20000000 		.word	.LC5-(.LPIC21+8)
 656 0294 18000000 		.word	.LC8-(.LPIC18+8)
 657 0298 18000000 		.word	.LC3-(.LPIC19+8)
 658              	.LBE73:
 659              	.LBE72:
 660              		.cfi_endproc
 661              	.LFE7:
 663              		.section	.rodata.str1.4
 664 00ea 0000     		.align	2
 665              	.LC10:
 666 00ec 53657444 		.ascii	"SetDynBlockInfo\000"
 666      796E426C 
 666      6F636B49 
 666      6E666F00 
 667              		.text
 668              		.align	2
 669              		.global	SetDynBlockHeader
 670              		.syntax unified
 671              		.arm
 672              		.fpu vfpv3
 674              	SetDynBlockHeader:
 675              	.LVL57:
 676              	.LFB8:
 184:/home/hkh/git/eapidk-code-r76-trunk/apps/EeePProg/linux/../EeePDB.c **** EApiStatus_t
 185:/home/hkh/git/eapidk-code-r76-trunk/apps/EeePProg/linux/../EeePDB.c **** SetDynBlockHeader(
 186:/home/hkh/git/eapidk-code-r76-trunk/apps/EeePProg/linux/../EeePDB.c ****     void          *pCurBlock,
 187:/home/hkh/git/eapidk-code-r76-trunk/apps/EeePProg/linux/../EeePDB.c ****     uint8_t        u8BlockId,
 188:/home/hkh/git/eapidk-code-r76-trunk/apps/EeePProg/linux/../EeePDB.c ****     size_t         stBlockLength
 189:/home/hkh/git/eapidk-code-r76-trunk/apps/EeePProg/linux/../EeePDB.c ****     )
 190:/home/hkh/git/eapidk-code-r76-trunk/apps/EeePProg/linux/../EeePDB.c **** {
 677              		.loc 1 190 1 is_stmt 1 view -0
 678              		.cfi_startproc
 679              		@ args = 0, pretend = 0, frame = 0
 680              		@ frame_needed = 0, uses_anonymous_args = 0
 191:/home/hkh/git/eapidk-code-r76-trunk/apps/EeePProg/linux/../EeePDB.c ****   EApiStatus_t StatusCode=EAPI_STATUS_SUCCESS;
 192:/home/hkh/git/eapidk-code-r76-trunk/apps/EeePProg/linux/../EeePDB.c ****   EAPI_APP_ASSERT_PARAMATER_NULL(
 681              		.loc 1 192 3 is_stmt 0 view .LVU154
 682 029c 000050E3 		cmp	r0, #0
 191:/home/hkh/git/eapidk-code-r76-trunk/apps/EeePProg/linux/../EeePDB.c ****   EApiStatus_t StatusCode=EAPI_STATUS_SUCCESS;
 683              		.loc 1 191 3 is_stmt 1 view .LVU155
 684              	.LVL58:
 685              		.loc 1 192 3 view .LVU156
ARM GAS  /tmp/ccTXisr2.s 			page 18


 190:/home/hkh/git/eapidk-code-r76-trunk/apps/EeePProg/linux/../EeePDB.c ****   EApiStatus_t StatusCode=EAPI_STATUS_SUCCESS;
 686              		.loc 1 190 1 is_stmt 0 view .LVU157
 687 02a0 10402DE9 		push	{r4, lr}
 688              		.cfi_def_cfa_offset 8
 689              		.cfi_offset 4, -8
 690              		.cfi_offset 14, -4
 691 02a4 10D04DE2 		sub	sp, sp, #16
 692              		.cfi_def_cfa_offset 24
 693              		.loc 1 192 3 view .LVU158
 694 02a8 1D00000A 		beq	.L64
 695              		.loc 1 192 3 is_stmt 1 discriminator 2 view .LVU159
 193:/home/hkh/git/eapidk-code-r76-trunk/apps/EeePProg/linux/../EeePDB.c ****       SetDynBlockInfo,
 194:/home/hkh/git/eapidk-code-r76-trunk/apps/EeePProg/linux/../EeePDB.c ****       EAPI_STATUS_INVALID_PARAMETER,
 195:/home/hkh/git/eapidk-code-r76-trunk/apps/EeePProg/linux/../EeePDB.c ****       pCurBlock
 196:/home/hkh/git/eapidk-code-r76-trunk/apps/EeePProg/linux/../EeePDB.c ****     );
 696              		.loc 1 196 6 discriminator 2 view .LVU160
 197:/home/hkh/git/eapidk-code-r76-trunk/apps/EeePProg/linux/../EeePDB.c ****   ((DBlockIdHdr_t *)pCurBlock)->DBlockId=u8BlockId;
 697              		.loc 1 197 3 discriminator 2 view .LVU161
 698              	.LBB80:
 699              	.LBB81:
 123:/home/hkh/git/eapidk-code-r76-trunk/apps/EeePProg/linux/../EeePDB.c ****       SetBlockLength,
 700              		.loc 1 123 3 is_stmt 0 discriminator 2 view .LVU162
 701 02ac 014012E2 		ands	r4, r2, #1
 702              	.LBE81:
 703              	.LBE80:
 704              		.loc 1 197 41 discriminator 2 view .LVU163
 705 02b0 0010C0E5 		strb	r1, [r0]
 198:/home/hkh/git/eapidk-code-r76-trunk/apps/EeePProg/linux/../EeePDB.c ****   StatusCode=SetBlockLength(pCurBlock, stBlockLength);
 706              		.loc 1 198 3 is_stmt 1 discriminator 2 view .LVU164
 707              	.LVL59:
 708              	.LBB85:
 709              	.LBI80:
 112:/home/hkh/git/eapidk-code-r76-trunk/apps/EeePProg/linux/../EeePDB.c ****     EeePHandel_t BHandel,
 710              		.loc 1 112 1 discriminator 2 view .LVU165
 711              	.LBB82:
 117:/home/hkh/git/eapidk-code-r76-trunk/apps/EeePProg/linux/../EeePDB.c ****   EAPI_APP_ASSERT_PARAMATER_NULL(
 712              		.loc 1 117 3 discriminator 2 view .LVU166
 118:/home/hkh/git/eapidk-code-r76-trunk/apps/EeePProg/linux/../EeePDB.c ****       SetBlockLength,
 713              		.loc 1 118 3 discriminator 2 view .LVU167
 118:/home/hkh/git/eapidk-code-r76-trunk/apps/EeePProg/linux/../EeePDB.c ****       SetBlockLength,
 714              		.loc 1 118 3 discriminator 2 view .LVU168
 122:/home/hkh/git/eapidk-code-r76-trunk/apps/EeePProg/linux/../EeePDB.c ****   EAPI_APP_ASSERT_PARAMATER_CHECK_S(
 715              		.loc 1 122 6 discriminator 2 view .LVU169
 123:/home/hkh/git/eapidk-code-r76-trunk/apps/EeePProg/linux/../EeePDB.c ****       SetBlockLength,
 716              		.loc 1 123 3 discriminator 2 view .LVU170
 717 02b4 2500001A 		bne	.L65
 123:/home/hkh/git/eapidk-code-r76-trunk/apps/EeePProg/linux/../EeePDB.c ****       SetBlockLength,
 718              		.loc 1 123 3 view .LVU171
 127:/home/hkh/git/eapidk-code-r76-trunk/apps/EeePProg/linux/../EeePDB.c ****   EAPI_APP_ASSERT_PARAMATER_CHECK_S(
 719              		.loc 1 127 6 view .LVU172
 128:/home/hkh/git/eapidk-code-r76-trunk/apps/EeePProg/linux/../EeePDB.c ****       SetBlockLength, 
 720              		.loc 1 128 3 view .LVU173
 721 02b8 FE3F0FE3 		movw	r3, #65534
 722 02bc 013040E3 		movt	r3, 1
 723 02c0 030052E1 		cmp	r2, r3
 724 02c4 0500008A 		bhi	.L66
 725              	.L59:
ARM GAS  /tmp/ccTXisr2.s 			page 19


 128:/home/hkh/git/eapidk-code-r76-trunk/apps/EeePProg/linux/../EeePDB.c ****       SetBlockLength, 
 726              		.loc 1 128 3 view .LVU174
 132:/home/hkh/git/eapidk-code-r76-trunk/apps/EeePProg/linux/../EeePDB.c **** 
 727              		.loc 1 132 6 view .LVU175
 134:/home/hkh/git/eapidk-code-r76-trunk/apps/EeePProg/linux/../EeePDB.c ****         ((DBlockIdHdr_t*)BHandel)->DBlockLength, 
 728              		.loc 1 134 3 view .LVU176
 729 02c8 D210EFE7 		ubfx	r1, r2, #1, #16
 730              	.LVL60:
 134:/home/hkh/git/eapidk-code-r76-trunk/apps/EeePProg/linux/../EeePDB.c ****         ((DBlockIdHdr_t*)BHandel)->DBlockLength, 
 731              		.loc 1 134 3 is_stmt 0 view .LVU177
 732 02cc 010080E2 		add	r0, r0, #1
 733              	.LVL61:
 134:/home/hkh/git/eapidk-code-r76-trunk/apps/EeePProg/linux/../EeePDB.c ****         ((DBlockIdHdr_t*)BHandel)->DBlockLength, 
 734              		.loc 1 134 3 view .LVU178
 735 02d0 FEFFFFEB 		bl	EeeP_Set16BitValue_BE(PLT)
 736              	.LVL62:
 134:/home/hkh/git/eapidk-code-r76-trunk/apps/EeePProg/linux/../EeePDB.c ****         ((DBlockIdHdr_t*)BHandel)->DBlockLength, 
 737              		.loc 1 134 3 view .LVU179
 738              	.LBE82:
 739              	.LBE85:
 199:/home/hkh/git/eapidk-code-r76-trunk/apps/EeePProg/linux/../EeePDB.c **** EAPI_APP_ASSERT_EXIT
 200:/home/hkh/git/eapidk-code-r76-trunk/apps/EeePProg/linux/../EeePDB.c ****   if(!EAPI_TEST_SUCCESS(StatusCode)){
 740              		.loc 1 200 3 is_stmt 1 view .LVU180
 201:/home/hkh/git/eapidk-code-r76-trunk/apps/EeePProg/linux/../EeePDB.c ****   }
 741              		.loc 1 201 3 view .LVU181
 202:/home/hkh/git/eapidk-code-r76-trunk/apps/EeePProg/linux/../EeePDB.c ****   return StatusCode;
 742              		.loc 1 202 3 view .LVU182
 203:/home/hkh/git/eapidk-code-r76-trunk/apps/EeePProg/linux/../EeePDB.c **** }
 743              		.loc 1 203 1 is_stmt 0 view .LVU183
 744 02d4 0400A0E1 		mov	r0, r4
 745 02d8 10D08DE2 		add	sp, sp, #16
 746              		.cfi_remember_state
 747              		.cfi_def_cfa_offset 8
 748              		@ sp needed
 749 02dc 1080BDE8 		pop	{r4, pc}
 750              	.LVL63:
 751              	.L66:
 752              		.cfi_restore_state
 753              	.LBB86:
 754              	.LBB83:
 128:/home/hkh/git/eapidk-code-r76-trunk/apps/EeePProg/linux/../EeePDB.c ****       SetBlockLength, 
 755              		.loc 1 128 3 is_stmt 1 view .LVU184
 128:/home/hkh/git/eapidk-code-r76-trunk/apps/EeePProg/linux/../EeePDB.c ****       SetBlockLength, 
 756              		.loc 1 128 3 view .LVU185
 757 02e0 94C09FE5 		ldr	ip, .L67
 758 02e4 014CE0E3 		mvn	r4, #256
 759 02e8 90009FE5 		ldr	r0, .L67+4
 760              	.LVL64:
 128:/home/hkh/git/eapidk-code-r76-trunk/apps/EeePProg/linux/../EeePDB.c ****       SetBlockLength, 
 761              		.loc 1 128 3 is_stmt 0 view .LVU186
 762 02ec 8030A0E3 		mov	r3, #128
 763 02f0 8C209FE5 		ldr	r2, .L67+8
 764              	.LVL65:
 128:/home/hkh/git/eapidk-code-r76-trunk/apps/EeePProg/linux/../EeePDB.c ****       SetBlockLength, 
 765              		.loc 1 128 3 view .LVU187
 766 02f4 8C109FE5 		ldr	r1, .L67+12
 767              	.LVL66:
ARM GAS  /tmp/ccTXisr2.s 			page 20


 128:/home/hkh/git/eapidk-code-r76-trunk/apps/EeePProg/linux/../EeePDB.c ****       SetBlockLength, 
 768              		.loc 1 128 3 view .LVU188
 769              	.LPIC32:
 770 02f8 0CC08FE0 		add	ip, pc, ip
 771              	.LPIC33:
 772 02fc 00008FE0 		add	r0, pc, r0
 773              	.LPIC30:
 774 0300 02208FE0 		add	r2, pc, r2
 775              	.LPIC31:
 776 0304 01108FE0 		add	r1, pc, r1
 777              	.LVL67:
 778              	.L63:
 128:/home/hkh/git/eapidk-code-r76-trunk/apps/EeePProg/linux/../EeePDB.c ****       SetBlockLength, 
 779              		.loc 1 128 3 view .LVU189
 780 0308 01108DE9 		stmib	sp, {r0, ip}
 781 030c 4500A0E3 		mov	r0, #69
 782 0310 00408DE5 		str	r4, [sp]
 783 0314 FEFFFFEB 		bl	siFormattedMessage_SC(PLT)
 784              	.LVL68:
 128:/home/hkh/git/eapidk-code-r76-trunk/apps/EeePProg/linux/../EeePDB.c ****       SetBlockLength, 
 785              		.loc 1 128 3 is_stmt 1 view .LVU190
 128:/home/hkh/git/eapidk-code-r76-trunk/apps/EeePProg/linux/../EeePDB.c ****       SetBlockLength, 
 786              		.loc 1 128 3 view .LVU191
 128:/home/hkh/git/eapidk-code-r76-trunk/apps/EeePProg/linux/../EeePDB.c ****       SetBlockLength, 
 787              		.loc 1 128 3 view .LVU192
 788              	.LBE83:
 789              	.LBE86:
 790              		.loc 1 203 1 is_stmt 0 view .LVU193
 791 0318 0400A0E1 		mov	r0, r4
 792 031c 10D08DE2 		add	sp, sp, #16
 793              		.cfi_remember_state
 794              		.cfi_def_cfa_offset 8
 795              		@ sp needed
 796 0320 1080BDE8 		pop	{r4, pc}
 797              	.LVL69:
 798              	.L64:
 799              		.cfi_restore_state
 800              	.LBB87:
 801              	.LBI87:
 185:/home/hkh/git/eapidk-code-r76-trunk/apps/EeePProg/linux/../EeePDB.c ****     void          *pCurBlock,
 802              		.loc 1 185 1 is_stmt 1 view .LVU194
 803              	.LBB88:
 192:/home/hkh/git/eapidk-code-r76-trunk/apps/EeePProg/linux/../EeePDB.c ****       SetDynBlockInfo,
 804              		.loc 1 192 3 view .LVU195
 192:/home/hkh/git/eapidk-code-r76-trunk/apps/EeePProg/linux/../EeePDB.c ****       SetDynBlockInfo,
 805              		.loc 1 192 3 view .LVU196
 806 0324 60C09FE5 		ldr	ip, .L67+16
 807 0328 014CE0E3 		mvn	r4, #256
 808 032c 5C009FE5 		ldr	r0, .L67+20
 809              	.LVL70:
 192:/home/hkh/git/eapidk-code-r76-trunk/apps/EeePProg/linux/../EeePDB.c ****       SetDynBlockInfo,
 810              		.loc 1 192 3 is_stmt 0 view .LVU197
 811 0330 C030A0E3 		mov	r3, #192
 812 0334 58209FE5 		ldr	r2, .L67+24
 813              	.LVL71:
 192:/home/hkh/git/eapidk-code-r76-trunk/apps/EeePProg/linux/../EeePDB.c ****       SetDynBlockInfo,
 814              		.loc 1 192 3 view .LVU198
ARM GAS  /tmp/ccTXisr2.s 			page 21


 815 0338 58109FE5 		ldr	r1, .L67+28
 816              	.LVL72:
 192:/home/hkh/git/eapidk-code-r76-trunk/apps/EeePProg/linux/../EeePDB.c ****       SetDynBlockInfo,
 817              		.loc 1 192 3 view .LVU199
 818              	.LPIC24:
 819 033c 0CC08FE0 		add	ip, pc, ip
 820              	.LPIC25:
 821 0340 00008FE0 		add	r0, pc, r0
 822              	.LPIC22:
 823 0344 02208FE0 		add	r2, pc, r2
 824              	.LPIC23:
 825 0348 01108FE0 		add	r1, pc, r1
 826 034c EDFFFFEA 		b	.L63
 827              	.LVL73:
 828              	.L65:
 192:/home/hkh/git/eapidk-code-r76-trunk/apps/EeePProg/linux/../EeePDB.c ****       SetDynBlockInfo,
 829              		.loc 1 192 3 view .LVU200
 830              	.LBE88:
 831              	.LBE87:
 832              	.LBB89:
 833              	.LBB84:
 123:/home/hkh/git/eapidk-code-r76-trunk/apps/EeePProg/linux/../EeePDB.c ****       SetBlockLength,
 834              		.loc 1 123 3 is_stmt 1 view .LVU201
 123:/home/hkh/git/eapidk-code-r76-trunk/apps/EeePProg/linux/../EeePDB.c ****       SetBlockLength,
 835              		.loc 1 123 3 view .LVU202
 836 0350 44C09FE5 		ldr	ip, .L67+32
 837 0354 014CE0E3 		mvn	r4, #256
 838 0358 40009FE5 		ldr	r0, .L67+36
 839              	.LVL74:
 123:/home/hkh/git/eapidk-code-r76-trunk/apps/EeePProg/linux/../EeePDB.c ****       SetBlockLength,
 840              		.loc 1 123 3 is_stmt 0 view .LVU203
 841 035c 7B30A0E3 		mov	r3, #123
 842 0360 3C209FE5 		ldr	r2, .L67+40
 843              	.LVL75:
 123:/home/hkh/git/eapidk-code-r76-trunk/apps/EeePProg/linux/../EeePDB.c ****       SetBlockLength,
 844              		.loc 1 123 3 view .LVU204
 845 0364 3C109FE5 		ldr	r1, .L67+44
 846              	.LVL76:
 123:/home/hkh/git/eapidk-code-r76-trunk/apps/EeePProg/linux/../EeePDB.c ****       SetBlockLength,
 847              		.loc 1 123 3 view .LVU205
 848              	.LPIC28:
 849 0368 0CC08FE0 		add	ip, pc, ip
 850              	.LPIC29:
 851 036c 00008FE0 		add	r0, pc, r0
 852              	.LPIC26:
 853 0370 02208FE0 		add	r2, pc, r2
 854              	.LPIC27:
 855 0374 01108FE0 		add	r1, pc, r1
 856 0378 E2FFFFEA 		b	.L63
 857              	.L68:
 858              		.align	2
 859              	.L67:
 860 037c 7C000000 		.word	.LC7-(.LPIC32+8)
 861 0380 7C000000 		.word	.LC5-(.LPIC33+8)
 862 0384 7C000000 		.word	.LC2-(.LPIC30+8)
 863 0388 7C000000 		.word	.LC3-(.LPIC31+8)
 864 038c 48000000 		.word	.LC9-(.LPIC24+8)
ARM GAS  /tmp/ccTXisr2.s 			page 22


 865 0390 48000000 		.word	.LC5-(.LPIC25+8)
 866 0394 48000000 		.word	.LC10-(.LPIC22+8)
 867 0398 48000000 		.word	.LC3-(.LPIC23+8)
 868 039c 2C000000 		.word	.LC6-(.LPIC28+8)
 869 03a0 2C000000 		.word	.LC5-(.LPIC29+8)
 870 03a4 2C000000 		.word	.LC2-(.LPIC26+8)
 871 03a8 2C000000 		.word	.LC3-(.LPIC27+8)
 872              	.LBE84:
 873              	.LBE89:
 874              		.cfi_endproc
 875              	.LFE8:
 877              		.section	.rodata.str1.4
 878              		.align	2
 879              	.LC11:
 880 00fc 52656475 		.ascii	"ReduceBlockLength\000"
 880      6365426C 
 880      6F636B4C 
 880      656E6774 
 880      6800
 881 010e 0000     		.align	2
 882              	.LC12:
 883 0110 28707643 		.ascii	"(pvCurBlock==NULL)\000"
 883      7572426C 
 883      6F636B3D 
 883      3D4E554C 
 883      4C2900
 884 0123 00       		.align	2
 885              	.LC13:
 886 0124 282A7076 		.ascii	"(*pvCurBlock==NULL)\000"
 886      43757242 
 886      6C6F636B 
 886      3D3D4E55 
 886      4C4C2900 
 887              		.align	2
 888              	.LC14:
 889 0138 47657442 		.ascii	"GetBlockLength(*pvCurBlock)<(EeePAlignLength(stRedu"
 889      6C6F636B 
 889      4C656E67 
 889      7468282A 
 889      70764375 
 890 016b 63654279 		.ascii	"ceBy)+EEEP_MIN_BLOCK_LENGTH)\000"
 890      292B4545 
 890      45505F4D 
 890      494E5F42 
 890      4C4F434B 
 891              		.text
 892              		.align	2
 893              		.global	ReduceBlockLength
 894              		.syntax unified
 895              		.arm
 896              		.fpu vfpv3
 898              	ReduceBlockLength:
 899              	.LVL77:
 900              	.LFB9:
 204:/home/hkh/git/eapidk-code-r76-trunk/apps/EeePProg/linux/../EeePDB.c **** EApiStatus_t
 205:/home/hkh/git/eapidk-code-r76-trunk/apps/EeePProg/linux/../EeePDB.c **** ReduceBlockLength(
 206:/home/hkh/git/eapidk-code-r76-trunk/apps/EeePProg/linux/../EeePDB.c ****     __IN     DBlockIdHdr_t**pvCurBlock,
ARM GAS  /tmp/ccTXisr2.s 			page 23


 207:/home/hkh/git/eapidk-code-r76-trunk/apps/EeePProg/linux/../EeePDB.c ****     __IN     size_t         stReduceBy, 
 208:/home/hkh/git/eapidk-code-r76-trunk/apps/EeePProg/linux/../EeePDB.c ****     __OUTOPT DBlockIdHdr_t**pvNewBlock,
 209:/home/hkh/git/eapidk-code-r76-trunk/apps/EeePProg/linux/../EeePDB.c ****     __IN     unsigned int   uiFlags
 210:/home/hkh/git/eapidk-code-r76-trunk/apps/EeePProg/linux/../EeePDB.c ****     )
 211:/home/hkh/git/eapidk-code-r76-trunk/apps/EeePProg/linux/../EeePDB.c **** {
 901              		.loc 1 211 1 is_stmt 1 view -0
 902              		.cfi_startproc
 903              		@ args = 0, pretend = 0, frame = 0
 904              		@ frame_needed = 0, uses_anonymous_args = 0
 212:/home/hkh/git/eapidk-code-r76-trunk/apps/EeePProg/linux/../EeePDB.c ****   EApiStatus_t StatusCode=EAPI_STATUS_SUCCESS;
 905              		.loc 1 212 3 view .LVU207
 213:/home/hkh/git/eapidk-code-r76-trunk/apps/EeePProg/linux/../EeePDB.c ****   DBlockIdHdr_t    *pTmpBlock   ;
 906              		.loc 1 213 3 view .LVU208
 214:/home/hkh/git/eapidk-code-r76-trunk/apps/EeePProg/linux/../EeePDB.c ****   size_t NewLength;
 907              		.loc 1 214 3 view .LVU209
 215:/home/hkh/git/eapidk-code-r76-trunk/apps/EeePProg/linux/../EeePDB.c ****   if(pvNewBlock!=NULL) *pvNewBlock=NULL;
 908              		.loc 1 215 3 view .LVU210
 211:/home/hkh/git/eapidk-code-r76-trunk/apps/EeePProg/linux/../EeePDB.c ****   EApiStatus_t StatusCode=EAPI_STATUS_SUCCESS;
 909              		.loc 1 211 1 is_stmt 0 view .LVU211
 910 03ac F0432DE9 		push	{r4, r5, r6, r7, r8, r9, lr}
 911              		.cfi_def_cfa_offset 28
 912              		.cfi_offset 4, -28
 913              		.cfi_offset 5, -24
 914              		.cfi_offset 6, -20
 915              		.cfi_offset 7, -16
 916              		.cfi_offset 8, -12
 917              		.cfi_offset 9, -8
 918              		.cfi_offset 14, -4
 919              		.loc 1 215 5 view .LVU212
 920 03b0 006052E2 		subs	r6, r2, #0
 211:/home/hkh/git/eapidk-code-r76-trunk/apps/EeePProg/linux/../EeePDB.c ****   EApiStatus_t StatusCode=EAPI_STATUS_SUCCESS;
 921              		.loc 1 211 1 view .LVU213
 922 03b4 0390A0E1 		mov	r9, r3
 923              		.loc 1 215 24 is_stmt 1 view .LVU214
 924              		.loc 1 215 35 is_stmt 0 view .LVU215
 925 03b8 0030A013 		movne	r3, #0
 926              	.LVL78:
 211:/home/hkh/git/eapidk-code-r76-trunk/apps/EeePProg/linux/../EeePDB.c ****   EApiStatus_t StatusCode=EAPI_STATUS_SUCCESS;
 927              		.loc 1 211 1 view .LVU216
 928 03bc 14D04DE2 		sub	sp, sp, #20
 929              		.cfi_def_cfa_offset 48
 211:/home/hkh/git/eapidk-code-r76-trunk/apps/EeePProg/linux/../EeePDB.c ****   EApiStatus_t StatusCode=EAPI_STATUS_SUCCESS;
 930              		.loc 1 211 1 view .LVU217
 931 03c0 0050A0E1 		mov	r5, r0
 932              		.loc 1 215 35 view .LVU218
 933 03c4 00308615 		strne	r3, [r6]
 216:/home/hkh/git/eapidk-code-r76-trunk/apps/EeePProg/linux/../EeePDB.c **** 
 217:/home/hkh/git/eapidk-code-r76-trunk/apps/EeePProg/linux/../EeePDB.c ****   EAPI_APP_ASSERT_PARAMATER_NULL(
 934              		.loc 1 217 3 is_stmt 1 view .LVU219
 935 03c8 000050E3 		cmp	r0, #0
 211:/home/hkh/git/eapidk-code-r76-trunk/apps/EeePProg/linux/../EeePDB.c ****   EApiStatus_t StatusCode=EAPI_STATUS_SUCCESS;
 936              		.loc 1 211 1 is_stmt 0 view .LVU220
 937 03cc 0140A0E1 		mov	r4, r1
 938              		.loc 1 217 3 view .LVU221
 939 03d0 5500000A 		beq	.L91
 940              		.loc 1 217 3 is_stmt 1 discriminator 2 view .LVU222
 218:/home/hkh/git/eapidk-code-r76-trunk/apps/EeePProg/linux/../EeePDB.c ****       ReduceBlockLength             ,
ARM GAS  /tmp/ccTXisr2.s 			page 24


 219:/home/hkh/git/eapidk-code-r76-trunk/apps/EeePProg/linux/../EeePDB.c ****       EAPI_STATUS_INVALID_PARAMETER ,
 220:/home/hkh/git/eapidk-code-r76-trunk/apps/EeePProg/linux/../EeePDB.c ****       pvCurBlock
 221:/home/hkh/git/eapidk-code-r76-trunk/apps/EeePProg/linux/../EeePDB.c ****     );
 941              		.loc 1 221 6 discriminator 2 view .LVU223
 222:/home/hkh/git/eapidk-code-r76-trunk/apps/EeePProg/linux/../EeePDB.c ****   EAPI_APP_ASSERT_PARAMATER_NULL(
 942              		.loc 1 222 3 discriminator 2 view .LVU224
 943 03d4 000090E5 		ldr	r0, [r0]
 944              	.LVL79:
 945              		.loc 1 222 3 is_stmt 0 discriminator 2 view .LVU225
 946 03d8 000050E3 		cmp	r0, #0
 947 03dc 4700000A 		beq	.L92
 948              		.loc 1 222 3 is_stmt 1 view .LVU226
 223:/home/hkh/git/eapidk-code-r76-trunk/apps/EeePProg/linux/../EeePDB.c ****       ReduceBlockLength             ,
 224:/home/hkh/git/eapidk-code-r76-trunk/apps/EeePProg/linux/../EeePDB.c ****       EAPI_STATUS_INVALID_PARAMETER ,
 225:/home/hkh/git/eapidk-code-r76-trunk/apps/EeePProg/linux/../EeePDB.c ****       *pvCurBlock
 226:/home/hkh/git/eapidk-code-r76-trunk/apps/EeePProg/linux/../EeePDB.c ****     );
 949              		.loc 1 226 6 view .LVU227
 227:/home/hkh/git/eapidk-code-r76-trunk/apps/EeePProg/linux/../EeePDB.c **** #if TEST_EEEPDB
 228:/home/hkh/git/eapidk-code-r76-trunk/apps/EeePProg/linux/../EeePDB.c ****   EAPI_printf(TEXT("%08X, %08X, %08X\n"), GetBlockLength(*pvCurBlock), EeePAlignLength(stReduceBy),
 229:/home/hkh/git/eapidk-code-r76-trunk/apps/EeePProg/linux/../EeePDB.c **** #endif
 230:/home/hkh/git/eapidk-code-r76-trunk/apps/EeePProg/linux/../EeePDB.c ****   EAPI_APP_RETURN_ERROR_IF_S(
 950              		.loc 1 230 3 view .LVU228
 951              	.LVL80:
 952              	.LBB110:
 953              	.LBI110:
 144:/home/hkh/git/eapidk-code-r76-trunk/apps/EeePProg/linux/../EeePDB.c ****     const void * pcvBHandel
 954              		.loc 1 144 1 view .LVU229
 955              	.LBB111:
 148:/home/hkh/git/eapidk-code-r76-trunk/apps/EeePProg/linux/../EeePDB.c ****   if(!pcvBHandel) return stBlockSize;
 956              		.loc 1 148 3 view .LVU230
 149:/home/hkh/git/eapidk-code-r76-trunk/apps/EeePProg/linux/../EeePDB.c **** 
 957              		.loc 1 149 3 view .LVU231
 958              	.LBB112:
 959              	.LBI112:
 144:/home/hkh/git/eapidk-code-r76-trunk/apps/EeePProg/linux/../EeePDB.c ****     const void * pcvBHandel
 960              		.loc 1 144 1 view .LVU232
 961              	.LBB113:
 151:/home/hkh/git/eapidk-code-r76-trunk/apps/EeePProg/linux/../EeePDB.c ****   return stBlockSize;
 962              		.loc 1 151 3 view .LVU233
 963              	.LBE113:
 964              	.LBE112:
 965              	.LBE111:
 966              	.LBE110:
 967              	.LBB120:
 968              	.LBB121:
 107:/home/hkh/git/eapidk-code-r76-trunk/apps/EeePProg/linux/../EeePDB.c **** #endif
 969              		.loc 1 107 10 is_stmt 0 view .LVU234
 970 03e0 014084E2 		add	r4, r4, #1
 971              	.LBE121:
 972              	.LBE120:
 973              	.LBB124:
 974              	.LBB118:
 975              	.LBB116:
 976              	.LBB114:
 151:/home/hkh/git/eapidk-code-r76-trunk/apps/EeePProg/linux/../EeePDB.c ****   return stBlockSize;
 977              		.loc 1 151 15 view .LVU235
 978 03e4 010080E2 		add	r0, r0, #1
ARM GAS  /tmp/ccTXisr2.s 			page 25


 979              	.LVL81:
 151:/home/hkh/git/eapidk-code-r76-trunk/apps/EeePProg/linux/../EeePDB.c ****   return stBlockSize;
 980              		.loc 1 151 15 view .LVU236
 981              	.LBE114:
 982              	.LBE116:
 983              	.LBE118:
 984              	.LBE124:
 985              	.LBB125:
 986              	.LBB122:
 107:/home/hkh/git/eapidk-code-r76-trunk/apps/EeePProg/linux/../EeePDB.c **** #endif
 987              		.loc 1 107 10 view .LVU237
 988 03e8 0140C4E3 		bic	r4, r4, #1
 989              	.LBE122:
 990              	.LBE125:
 991              	.LBB126:
 992              	.LBB119:
 993              	.LBB117:
 994              	.LBB115:
 151:/home/hkh/git/eapidk-code-r76-trunk/apps/EeePProg/linux/../EeePDB.c ****   return stBlockSize;
 995              		.loc 1 151 15 view .LVU238
 996 03ec FEFFFFEB 		bl	EeeP_Get16BitValue_BE(PLT)
 997              	.LVL82:
 152:/home/hkh/git/eapidk-code-r76-trunk/apps/EeePProg/linux/../EeePDB.c **** }
 998              		.loc 1 152 3 is_stmt 1 view .LVU239
 152:/home/hkh/git/eapidk-code-r76-trunk/apps/EeePProg/linux/../EeePDB.c **** }
 999              		.loc 1 152 3 is_stmt 0 view .LVU240
 1000              	.LBE115:
 1001              	.LBE117:
 1002              	.LBE119:
 1003              	.LBE126:
 1004              	.LBB127:
 1005              	.LBI120:
 100:/home/hkh/git/eapidk-code-r76-trunk/apps/EeePProg/linux/../EeePDB.c ****     size_t Length
 1006              		.loc 1 100 1 is_stmt 1 view .LVU241
 1007              	.LBB123:
 107:/home/hkh/git/eapidk-code-r76-trunk/apps/EeePProg/linux/../EeePDB.c **** #endif
 1008              		.loc 1 107 3 view .LVU242
 1009              	.LBE123:
 1010              	.LBE127:
 1011              		.loc 1 230 3 is_stmt 0 view .LVU243
 1012 03f0 043084E2 		add	r3, r4, #4
 1013 03f4 800053E1 		cmp	r3, r0, lsl #1
 1014 03f8 2F00008A 		bhi	.L93
 1015              		.loc 1 230 3 is_stmt 1 discriminator 2 view .LVU244
 231:/home/hkh/git/eapidk-code-r76-trunk/apps/EeePProg/linux/../EeePDB.c ****       ReduceBlockLength                                                             ,
 232:/home/hkh/git/eapidk-code-r76-trunk/apps/EeePProg/linux/../EeePDB.c ****       GetBlockLength(*pvCurBlock)<(EeePAlignLength(stReduceBy)+EEEP_MIN_BLOCK_LENGTH),
 233:/home/hkh/git/eapidk-code-r76-trunk/apps/EeePProg/linux/../EeePDB.c ****       EAPI_STATUS_INVALID_PARAMETER
 234:/home/hkh/git/eapidk-code-r76-trunk/apps/EeePProg/linux/../EeePDB.c ****     );
 1016              		.loc 1 234 6 discriminator 2 view .LVU245
 235:/home/hkh/git/eapidk-code-r76-trunk/apps/EeePProg/linux/../EeePDB.c ****   NewLength=GetBlockLength(*pvCurBlock)- EeePAlignLength(stReduceBy);
 1017              		.loc 1 235 3 discriminator 2 view .LVU246
 1018              		.loc 1 235 13 is_stmt 0 discriminator 2 view .LVU247
 1019 03fc 007095E5 		ldr	r7, [r5]
 1020              	.LVL83:
 1021              	.LBB128:
 1022              	.LBI128:
 144:/home/hkh/git/eapidk-code-r76-trunk/apps/EeePProg/linux/../EeePDB.c ****     const void * pcvBHandel
ARM GAS  /tmp/ccTXisr2.s 			page 26


 1023              		.loc 1 144 1 is_stmt 1 discriminator 2 view .LVU248
 1024              	.LBB129:
 148:/home/hkh/git/eapidk-code-r76-trunk/apps/EeePProg/linux/../EeePDB.c ****   if(!pcvBHandel) return stBlockSize;
 1025              		.loc 1 148 3 discriminator 2 view .LVU249
 149:/home/hkh/git/eapidk-code-r76-trunk/apps/EeePProg/linux/../EeePDB.c **** 
 1026              		.loc 1 149 3 discriminator 2 view .LVU250
 149:/home/hkh/git/eapidk-code-r76-trunk/apps/EeePProg/linux/../EeePDB.c **** 
 1027              		.loc 1 149 5 is_stmt 0 discriminator 2 view .LVU251
 1028 0400 000057E3 		cmp	r7, #0
 149:/home/hkh/git/eapidk-code-r76-trunk/apps/EeePProg/linux/../EeePDB.c **** 
 1029              		.loc 1 149 26 discriminator 2 view .LVU252
 1030 0404 0780A001 		moveq	r8, r7
 149:/home/hkh/git/eapidk-code-r76-trunk/apps/EeePProg/linux/../EeePDB.c **** 
 1031              		.loc 1 149 5 discriminator 2 view .LVU253
 1032 0408 0300000A 		beq	.L75
 1033              	.LVL84:
 1034              	.LBB130:
 1035              	.LBI130:
 144:/home/hkh/git/eapidk-code-r76-trunk/apps/EeePProg/linux/../EeePDB.c ****     const void * pcvBHandel
 1036              		.loc 1 144 1 is_stmt 1 view .LVU254
 1037              	.LBB131:
 151:/home/hkh/git/eapidk-code-r76-trunk/apps/EeePProg/linux/../EeePDB.c ****   return stBlockSize;
 1038              		.loc 1 151 3 view .LVU255
 151:/home/hkh/git/eapidk-code-r76-trunk/apps/EeePProg/linux/../EeePDB.c ****   return stBlockSize;
 1039              		.loc 1 151 15 is_stmt 0 view .LVU256
 1040 040c 010087E2 		add	r0, r7, #1
 1041 0410 FEFFFFEB 		bl	EeeP_Get16BitValue_BE(PLT)
 1042              	.LVL85:
 1043              	.LBE131:
 1044              	.LBE130:
 1045              	.LBE129:
 1046              	.LBE128:
 236:/home/hkh/git/eapidk-code-r76-trunk/apps/EeePProg/linux/../EeePDB.c ****   if(uiFlags&EEEP_RBL_REDUCE_TOP_DOWN){
 237:/home/hkh/git/eapidk-code-r76-trunk/apps/EeePProg/linux/../EeePDB.c ****     pTmpBlock=*pvCurBlock;
 1047              		.loc 1 237 14 view .LVU257
 1048 0414 007095E5 		ldr	r7, [r5]
 1049              	.LVL86:
 1050              	.LBB135:
 1051              	.LBB134:
 1052              	.LBB133:
 1053              	.LBB132:
 151:/home/hkh/git/eapidk-code-r76-trunk/apps/EeePProg/linux/../EeePDB.c ****   return stBlockSize;
 1054              		.loc 1 151 81 view .LVU258
 1055 0418 8080A0E1 		lsl	r8, r0, #1
 1056              	.LVL87:
 152:/home/hkh/git/eapidk-code-r76-trunk/apps/EeePProg/linux/../EeePDB.c **** }
 1057              		.loc 1 152 3 is_stmt 1 view .LVU259
 1058              	.L75:
 152:/home/hkh/git/eapidk-code-r76-trunk/apps/EeePProg/linux/../EeePDB.c **** }
 1059              		.loc 1 152 3 is_stmt 0 view .LVU260
 1060              	.LBE132:
 1061              	.LBE133:
 1062              	.LBE134:
 1063              	.LBE135:
 236:/home/hkh/git/eapidk-code-r76-trunk/apps/EeePProg/linux/../EeePDB.c ****   if(uiFlags&EEEP_RBL_REDUCE_TOP_DOWN){
 1064              		.loc 1 236 5 view .LVU261
 1065 041c 010019E3 		tst	r9, #1
ARM GAS  /tmp/ccTXisr2.s 			page 27


 235:/home/hkh/git/eapidk-code-r76-trunk/apps/EeePProg/linux/../EeePDB.c ****   if(uiFlags&EEEP_RBL_REDUCE_TOP_DOWN){
 1066              		.loc 1 235 12 view .LVU262
 1067 0420 048048E0 		sub	r8, r8, r4
 1068              	.LVL88:
 236:/home/hkh/git/eapidk-code-r76-trunk/apps/EeePProg/linux/../EeePDB.c ****   if(uiFlags&EEEP_RBL_REDUCE_TOP_DOWN){
 1069              		.loc 1 236 3 is_stmt 1 view .LVU263
 236:/home/hkh/git/eapidk-code-r76-trunk/apps/EeePProg/linux/../EeePDB.c ****   if(uiFlags&EEEP_RBL_REDUCE_TOP_DOWN){
 1070              		.loc 1 236 5 is_stmt 0 view .LVU264
 1071 0424 1400000A 		beq	.L76
 1072              		.loc 1 237 5 is_stmt 1 view .LVU265
 1073              	.LVL89:
 238:/home/hkh/git/eapidk-code-r76-trunk/apps/EeePProg/linux/../EeePDB.c ****   }else{
 239:/home/hkh/git/eapidk-code-r76-trunk/apps/EeePProg/linux/../EeePDB.c ****     pTmpBlock=EAPI_CREATE_PTR(*pvCurBlock, EeePAlignLength(stReduceBy), DBlockIdHdr_t *);
 240:/home/hkh/git/eapidk-code-r76-trunk/apps/EeePProg/linux/../EeePDB.c ****     memmove(pTmpBlock, *pvCurBlock, NewLength);
 241:/home/hkh/git/eapidk-code-r76-trunk/apps/EeePProg/linux/../EeePDB.c ****   }
 242:/home/hkh/git/eapidk-code-r76-trunk/apps/EeePProg/linux/../EeePDB.c ****   StatusCode=SetBlockLength(
 1074              		.loc 1 242 3 view .LVU266
 1075              		.loc 1 242 14 is_stmt 0 view .LVU267
 1076 0428 0810A0E1 		mov	r1, r8
 1077 042c 0700A0E1 		mov	r0, r7
 1078 0430 FEFFFFEB 		bl	SetBlockLength(PLT)
 1079              	.LVL90:
 243:/home/hkh/git/eapidk-code-r76-trunk/apps/EeePProg/linux/../EeePDB.c ****         pTmpBlock, 
 244:/home/hkh/git/eapidk-code-r76-trunk/apps/EeePProg/linux/../EeePDB.c ****         NewLength
 245:/home/hkh/git/eapidk-code-r76-trunk/apps/EeePProg/linux/../EeePDB.c ****       );
 246:/home/hkh/git/eapidk-code-r76-trunk/apps/EeePProg/linux/../EeePDB.c ****   if(uiFlags&EEEP_RBL_REDUCE_TOP_DOWN){
 247:/home/hkh/git/eapidk-code-r76-trunk/apps/EeePProg/linux/../EeePDB.c ****     if(pvNewBlock!=NULL)
 1080              		.loc 1 247 7 view .LVU268
 1081 0434 000056E3 		cmp	r6, #0
 242:/home/hkh/git/eapidk-code-r76-trunk/apps/EeePProg/linux/../EeePDB.c ****         pTmpBlock, 
 1082              		.loc 1 242 14 view .LVU269
 1083 0438 0080A0E1 		mov	r8, r0
 1084              	.LVL91:
 246:/home/hkh/git/eapidk-code-r76-trunk/apps/EeePProg/linux/../EeePDB.c ****     if(pvNewBlock!=NULL)
 1085              		.loc 1 246 3 is_stmt 1 view .LVU270
 1086              		.loc 1 247 5 view .LVU271
 1087              		.loc 1 247 7 is_stmt 0 view .LVU272
 1088 043c 1B00000A 		beq	.L69
 248:/home/hkh/git/eapidk-code-r76-trunk/apps/EeePProg/linux/../EeePDB.c ****       *pvNewBlock=GetNextBlock(pTmpBlock);
 1089              		.loc 1 248 7 is_stmt 1 view .LVU273
 1090              	.LVL92:
 1091              	.LBB136:
 1092              	.LBI136:
 155:/home/hkh/git/eapidk-code-r76-trunk/apps/EeePProg/linux/../EeePDB.c ****     DBlockIdHdr_t *pCurBlock
 1093              		.loc 1 155 1 view .LVU274
 1094              	.LBB137:
 159:/home/hkh/git/eapidk-code-r76-trunk/apps/EeePProg/linux/../EeePDB.c ****   size_t stBlockLength;
 1095              		.loc 1 159 3 view .LVU275
 160:/home/hkh/git/eapidk-code-r76-trunk/apps/EeePProg/linux/../EeePDB.c ****   EAPI_APP_ASSERT_PARAMATER_NULL(
 1096              		.loc 1 160 3 view .LVU276
 161:/home/hkh/git/eapidk-code-r76-trunk/apps/EeePProg/linux/../EeePDB.c ****       GetNextBlock,
 1097              		.loc 1 161 3 view .LVU277
 1098 0440 000057E3 		cmp	r7, #0
 1099 0444 4300000A 		beq	.L94
 161:/home/hkh/git/eapidk-code-r76-trunk/apps/EeePProg/linux/../EeePDB.c ****       GetNextBlock,
 1100              		.loc 1 161 3 view .LVU278
 165:/home/hkh/git/eapidk-code-r76-trunk/apps/EeePProg/linux/../EeePDB.c ****   stBlockLength=GetBlockLength(pCurBlock);
ARM GAS  /tmp/ccTXisr2.s 			page 28


 1101              		.loc 1 165 6 view .LVU279
 166:/home/hkh/git/eapidk-code-r76-trunk/apps/EeePProg/linux/../EeePDB.c ****   switch(stBlockLength){
 1102              		.loc 1 166 3 view .LVU280
 1103              	.LVL93:
 1104              	.LBB138:
 1105              	.LBI138:
 144:/home/hkh/git/eapidk-code-r76-trunk/apps/EeePProg/linux/../EeePDB.c ****     const void * pcvBHandel
 1106              		.loc 1 144 1 view .LVU281
 1107              	.LBB139:
 148:/home/hkh/git/eapidk-code-r76-trunk/apps/EeePProg/linux/../EeePDB.c ****   if(!pcvBHandel) return stBlockSize;
 1108              		.loc 1 148 3 view .LVU282
 149:/home/hkh/git/eapidk-code-r76-trunk/apps/EeePProg/linux/../EeePDB.c **** 
 1109              		.loc 1 149 3 view .LVU283
 1110              	.LBB140:
 1111              	.LBI140:
 144:/home/hkh/git/eapidk-code-r76-trunk/apps/EeePProg/linux/../EeePDB.c ****     const void * pcvBHandel
 1112              		.loc 1 144 1 view .LVU284
 1113              	.LBB141:
 151:/home/hkh/git/eapidk-code-r76-trunk/apps/EeePProg/linux/../EeePDB.c ****   return stBlockSize;
 1114              		.loc 1 151 3 view .LVU285
 151:/home/hkh/git/eapidk-code-r76-trunk/apps/EeePProg/linux/../EeePDB.c ****   return stBlockSize;
 1115              		.loc 1 151 15 is_stmt 0 view .LVU286
 1116 0448 010087E2 		add	r0, r7, #1
 1117              	.LVL94:
 151:/home/hkh/git/eapidk-code-r76-trunk/apps/EeePProg/linux/../EeePDB.c ****   return stBlockSize;
 1118              		.loc 1 151 15 view .LVU287
 1119 044c FEFFFFEB 		bl	EeeP_Get16BitValue_BE(PLT)
 1120              	.LVL95:
 1121              	.LBE141:
 1122              	.LBE140:
 1123              	.LBE139:
 1124              	.LBE138:
 167:/home/hkh/git/eapidk-code-r76-trunk/apps/EeePProg/linux/../EeePDB.c ****     case EEEP_OFFSET_VALUE_EOL:
 1125              		.loc 1 167 3 view .LVU288
 1126 0450 000050E3 		cmp	r0, #0
 1127              	.LBB145:
 1128              	.LBB144:
 1129              	.LBB143:
 1130              	.LBB142:
 151:/home/hkh/git/eapidk-code-r76-trunk/apps/EeePProg/linux/../EeePDB.c ****   return stBlockSize;
 1131              		.loc 1 151 81 view .LVU289
 1132 0454 8020A0E1 		lsl	r2, r0, #1
 1133              	.LVL96:
 152:/home/hkh/git/eapidk-code-r76-trunk/apps/EeePProg/linux/../EeePDB.c **** }
 1134              		.loc 1 152 3 is_stmt 1 view .LVU290
 152:/home/hkh/git/eapidk-code-r76-trunk/apps/EeePProg/linux/../EeePDB.c **** }
 1135              		.loc 1 152 3 is_stmt 0 view .LVU291
 1136              	.LBE142:
 1137              	.LBE143:
 1138              	.LBE144:
 1139              	.LBE145:
 167:/home/hkh/git/eapidk-code-r76-trunk/apps/EeePProg/linux/../EeePDB.c ****     case EEEP_OFFSET_VALUE_EOL:
 1140              		.loc 1 167 3 is_stmt 1 view .LVU292
 1141 0458 4D00000A 		beq	.L85
 1142 045c FF3F0FE3 		movw	r3, #65535
 1143 0460 030050E1 		cmp	r0, r3
 1144 0464 4A00000A 		beq	.L85
ARM GAS  /tmp/ccTXisr2.s 			page 29


 171:/home/hkh/git/eapidk-code-r76-trunk/apps/EeePProg/linux/../EeePDB.c ****     default:
 1145              		.loc 1 171 7 view .LVU293
 173:/home/hkh/git/eapidk-code-r76-trunk/apps/EeePProg/linux/../EeePDB.c ****           pCurBlock         ,
 1146              		.loc 1 173 7 view .LVU294
 173:/home/hkh/git/eapidk-code-r76-trunk/apps/EeePProg/linux/../EeePDB.c ****           pCurBlock         ,
 1147              		.loc 1 173 17 is_stmt 0 view .LVU295
 1148 0468 027087E0 		add	r7, r7, r2
 1149              	.LVL97:
 178:/home/hkh/git/eapidk-code-r76-trunk/apps/EeePProg/linux/../EeePDB.c ****       }
 1150              		.loc 1 178 7 is_stmt 1 view .LVU296
 1151              	.L81:
 1152              	.L82:
 182:/home/hkh/git/eapidk-code-r76-trunk/apps/EeePProg/linux/../EeePDB.c **** }
 1153              		.loc 1 182 3 view .LVU297
 182:/home/hkh/git/eapidk-code-r76-trunk/apps/EeePProg/linux/../EeePDB.c **** }
 1154              		.loc 1 182 3 is_stmt 0 view .LVU298
 1155              	.LBE137:
 1156              	.LBE136:
 249:/home/hkh/git/eapidk-code-r76-trunk/apps/EeePProg/linux/../EeePDB.c ****   }else{
 250:/home/hkh/git/eapidk-code-r76-trunk/apps/EeePProg/linux/../EeePDB.c ****     if(pvNewBlock!=NULL)
 251:/home/hkh/git/eapidk-code-r76-trunk/apps/EeePProg/linux/../EeePDB.c ****       *pvNewBlock=*pvCurBlock;
 252:/home/hkh/git/eapidk-code-r76-trunk/apps/EeePProg/linux/../EeePDB.c ****     *pvCurBlock=pTmpBlock;
 253:/home/hkh/git/eapidk-code-r76-trunk/apps/EeePProg/linux/../EeePDB.c ****   }
 254:/home/hkh/git/eapidk-code-r76-trunk/apps/EeePProg/linux/../EeePDB.c **** EAPI_APP_ASSERT_EXIT
 255:/home/hkh/git/eapidk-code-r76-trunk/apps/EeePProg/linux/../EeePDB.c ****   if(!EAPI_TEST_SUCCESS(StatusCode)){
 256:/home/hkh/git/eapidk-code-r76-trunk/apps/EeePProg/linux/../EeePDB.c ****   }
 257:/home/hkh/git/eapidk-code-r76-trunk/apps/EeePProg/linux/../EeePDB.c ****   return StatusCode;
 258:/home/hkh/git/eapidk-code-r76-trunk/apps/EeePProg/linux/../EeePDB.c **** }
 1157              		.loc 1 258 1 view .LVU299
 1158 046c 0800A0E1 		mov	r0, r8
 248:/home/hkh/git/eapidk-code-r76-trunk/apps/EeePProg/linux/../EeePDB.c ****   }else{
 1159              		.loc 1 248 18 view .LVU300
 1160 0470 007086E5 		str	r7, [r6]
 1161              		.loc 1 258 1 view .LVU301
 1162 0474 14D08DE2 		add	sp, sp, #20
 1163              		.cfi_remember_state
 1164              		.cfi_def_cfa_offset 28
 1165              		@ sp needed
 1166 0478 F083BDE8 		pop	{r4, r5, r6, r7, r8, r9, pc}
 1167              	.LVL98:
 1168              	.L76:
 1169              		.cfi_restore_state
 239:/home/hkh/git/eapidk-code-r76-trunk/apps/EeePProg/linux/../EeePDB.c ****     memmove(pTmpBlock, *pvCurBlock, NewLength);
 1170              		.loc 1 239 5 is_stmt 1 view .LVU302
 239:/home/hkh/git/eapidk-code-r76-trunk/apps/EeePProg/linux/../EeePDB.c ****     memmove(pTmpBlock, *pvCurBlock, NewLength);
 1171              		.loc 1 239 14 is_stmt 0 view .LVU303
 1172 047c 044087E0 		add	r4, r7, r4
 1173              	.LVL99:
 240:/home/hkh/git/eapidk-code-r76-trunk/apps/EeePProg/linux/../EeePDB.c ****   }
 1174              		.loc 1 240 5 is_stmt 1 view .LVU304
 1175 0480 0820A0E1 		mov	r2, r8
 1176 0484 0710A0E1 		mov	r1, r7
 1177 0488 0400A0E1 		mov	r0, r4
 1178 048c FEFFFFEB 		bl	memmove(PLT)
 1179              	.LVL100:
 242:/home/hkh/git/eapidk-code-r76-trunk/apps/EeePProg/linux/../EeePDB.c ****         pTmpBlock, 
 1180              		.loc 1 242 3 view .LVU305
ARM GAS  /tmp/ccTXisr2.s 			page 30


 242:/home/hkh/git/eapidk-code-r76-trunk/apps/EeePProg/linux/../EeePDB.c ****         pTmpBlock, 
 1181              		.loc 1 242 14 is_stmt 0 view .LVU306
 1182 0490 0810A0E1 		mov	r1, r8
 1183 0494 0400A0E1 		mov	r0, r4
 1184 0498 FEFFFFEB 		bl	SetBlockLength(PLT)
 1185              	.LVL101:
 250:/home/hkh/git/eapidk-code-r76-trunk/apps/EeePProg/linux/../EeePDB.c ****       *pvNewBlock=*pvCurBlock;
 1186              		.loc 1 250 7 view .LVU307
 1187 049c 000056E3 		cmp	r6, #0
 242:/home/hkh/git/eapidk-code-r76-trunk/apps/EeePProg/linux/../EeePDB.c ****         pTmpBlock, 
 1188              		.loc 1 242 14 view .LVU308
 1189 04a0 0080A0E1 		mov	r8, r0
 1190              	.LVL102:
 246:/home/hkh/git/eapidk-code-r76-trunk/apps/EeePProg/linux/../EeePDB.c ****     if(pvNewBlock!=NULL)
 1191              		.loc 1 246 3 is_stmt 1 view .LVU309
 250:/home/hkh/git/eapidk-code-r76-trunk/apps/EeePProg/linux/../EeePDB.c ****       *pvNewBlock=*pvCurBlock;
 1192              		.loc 1 250 5 view .LVU310
 250:/home/hkh/git/eapidk-code-r76-trunk/apps/EeePProg/linux/../EeePDB.c ****       *pvNewBlock=*pvCurBlock;
 1193              		.loc 1 250 7 is_stmt 0 view .LVU311
 251:/home/hkh/git/eapidk-code-r76-trunk/apps/EeePProg/linux/../EeePDB.c ****     *pvCurBlock=pTmpBlock;
 1194              		.loc 1 251 7 is_stmt 1 view .LVU312
 251:/home/hkh/git/eapidk-code-r76-trunk/apps/EeePProg/linux/../EeePDB.c ****     *pvCurBlock=pTmpBlock;
 1195              		.loc 1 251 19 is_stmt 0 view .LVU313
 1196 04a4 00309515 		ldrne	r3, [r5]
 251:/home/hkh/git/eapidk-code-r76-trunk/apps/EeePProg/linux/../EeePDB.c ****     *pvCurBlock=pTmpBlock;
 1197              		.loc 1 251 18 view .LVU314
 1198 04a8 00308615 		strne	r3, [r6]
 1199              	.L79:
 252:/home/hkh/git/eapidk-code-r76-trunk/apps/EeePProg/linux/../EeePDB.c ****   }
 1200              		.loc 1 252 5 is_stmt 1 view .LVU315
 252:/home/hkh/git/eapidk-code-r76-trunk/apps/EeePProg/linux/../EeePDB.c ****   }
 1201              		.loc 1 252 16 is_stmt 0 view .LVU316
 1202 04ac 004085E5 		str	r4, [r5]
 255:/home/hkh/git/eapidk-code-r76-trunk/apps/EeePProg/linux/../EeePDB.c ****   }
 1203              		.loc 1 255 3 is_stmt 1 view .LVU317
 256:/home/hkh/git/eapidk-code-r76-trunk/apps/EeePProg/linux/../EeePDB.c ****   return StatusCode;
 1204              		.loc 1 256 3 view .LVU318
 257:/home/hkh/git/eapidk-code-r76-trunk/apps/EeePProg/linux/../EeePDB.c **** }
 1205              		.loc 1 257 3 view .LVU319
 1206              	.L72:
 1207              	.LVL103:
 1208              	.L69:
 1209              		.loc 1 258 1 is_stmt 0 view .LVU320
 1210 04b0 0800A0E1 		mov	r0, r8
 1211              	.LVL104:
 1212              		.loc 1 258 1 view .LVU321
 1213 04b4 14D08DE2 		add	sp, sp, #20
 1214              		.cfi_remember_state
 1215              		.cfi_def_cfa_offset 28
 1216              		@ sp needed
 1217 04b8 F083BDE8 		pop	{r4, r5, r6, r7, r8, r9, pc}
 1218              	.LVL105:
 1219              	.L93:
 1220              		.cfi_restore_state
 230:/home/hkh/git/eapidk-code-r76-trunk/apps/EeePProg/linux/../EeePDB.c ****       ReduceBlockLength                                                             ,
 1221              		.loc 1 230 3 is_stmt 1 discriminator 1 view .LVU322
 230:/home/hkh/git/eapidk-code-r76-trunk/apps/EeePProg/linux/../EeePDB.c ****       ReduceBlockLength                                                             ,
ARM GAS  /tmp/ccTXisr2.s 			page 31


 1222              		.loc 1 230 3 discriminator 1 view .LVU323
 1223 04bc D8C09FE5 		ldr	ip, .L95
 1224 04c0 018CE0E3 		mvn	r8, #256
 1225 04c4 D4009FE5 		ldr	r0, .L95+4
 1226 04c8 E630A0E3 		mov	r3, #230
 1227 04cc D0209FE5 		ldr	r2, .L95+8
 1228 04d0 D0109FE5 		ldr	r1, .L95+12
 1229              	.LPIC44:
 1230 04d4 0CC08FE0 		add	ip, pc, ip
 1231              	.LPIC45:
 1232 04d8 00008FE0 		add	r0, pc, r0
 1233              	.LPIC42:
 1234 04dc 02208FE0 		add	r2, pc, r2
 1235              	.LPIC43:
 1236 04e0 01108FE0 		add	r1, pc, r1
 1237              	.LVL106:
 1238              	.L90:
 222:/home/hkh/git/eapidk-code-r76-trunk/apps/EeePProg/linux/../EeePDB.c ****       ReduceBlockLength             ,
 1239              		.loc 1 222 3 is_stmt 0 discriminator 1 view .LVU324
 1240 04e4 01108DE9 		stmib	sp, {r0, ip}
 1241 04e8 4500A0E3 		mov	r0, #69
 1242 04ec 00808DE5 		str	r8, [sp]
 1243 04f0 FEFFFFEB 		bl	siFormattedMessage_SC(PLT)
 1244              	.LVL107:
 222:/home/hkh/git/eapidk-code-r76-trunk/apps/EeePProg/linux/../EeePDB.c ****       ReduceBlockLength             ,
 1245              		.loc 1 222 3 is_stmt 1 discriminator 1 view .LVU325
 222:/home/hkh/git/eapidk-code-r76-trunk/apps/EeePProg/linux/../EeePDB.c ****       ReduceBlockLength             ,
 1246              		.loc 1 222 3 discriminator 1 view .LVU326
 222:/home/hkh/git/eapidk-code-r76-trunk/apps/EeePProg/linux/../EeePDB.c ****       ReduceBlockLength             ,
 1247              		.loc 1 222 3 discriminator 1 view .LVU327
 1248              		.loc 1 258 1 is_stmt 0 discriminator 1 view .LVU328
 1249 04f4 0800A0E1 		mov	r0, r8
 1250 04f8 14D08DE2 		add	sp, sp, #20
 1251              		.cfi_remember_state
 1252              		.cfi_def_cfa_offset 28
 1253              		@ sp needed
 1254 04fc F083BDE8 		pop	{r4, r5, r6, r7, r8, r9, pc}
 1255              	.LVL108:
 1256              	.L92:
 1257              		.cfi_restore_state
 222:/home/hkh/git/eapidk-code-r76-trunk/apps/EeePProg/linux/../EeePDB.c ****       ReduceBlockLength             ,
 1258              		.loc 1 222 3 is_stmt 1 discriminator 1 view .LVU329
 222:/home/hkh/git/eapidk-code-r76-trunk/apps/EeePProg/linux/../EeePDB.c ****       ReduceBlockLength             ,
 1259              		.loc 1 222 3 discriminator 1 view .LVU330
 1260 0500 A4C09FE5 		ldr	ip, .L95+16
 1261 0504 018CE0E3 		mvn	r8, #256
 1262 0508 A0009FE5 		ldr	r0, .L95+20
 1263 050c DE30A0E3 		mov	r3, #222
 1264 0510 9C209FE5 		ldr	r2, .L95+24
 1265              	.LVL109:
 222:/home/hkh/git/eapidk-code-r76-trunk/apps/EeePProg/linux/../EeePDB.c ****       ReduceBlockLength             ,
 1266              		.loc 1 222 3 is_stmt 0 discriminator 1 view .LVU331
 1267 0514 9C109FE5 		ldr	r1, .L95+28
 1268              	.LVL110:
 222:/home/hkh/git/eapidk-code-r76-trunk/apps/EeePProg/linux/../EeePDB.c ****       ReduceBlockLength             ,
 1269              		.loc 1 222 3 discriminator 1 view .LVU332
 1270              	.LPIC40:
ARM GAS  /tmp/ccTXisr2.s 			page 32


 1271 0518 0CC08FE0 		add	ip, pc, ip
 1272              	.LPIC41:
 1273 051c 00008FE0 		add	r0, pc, r0
 1274              	.LPIC38:
 1275 0520 02208FE0 		add	r2, pc, r2
 1276              	.LPIC39:
 1277 0524 01108FE0 		add	r1, pc, r1
 1278 0528 EDFFFFEA 		b	.L90
 1279              	.LVL111:
 1280              	.L91:
 217:/home/hkh/git/eapidk-code-r76-trunk/apps/EeePProg/linux/../EeePDB.c ****       ReduceBlockLength             ,
 1281              		.loc 1 217 3 is_stmt 1 discriminator 1 view .LVU333
 217:/home/hkh/git/eapidk-code-r76-trunk/apps/EeePProg/linux/../EeePDB.c ****       ReduceBlockLength             ,
 1282              		.loc 1 217 3 discriminator 1 view .LVU334
 1283 052c 88C09FE5 		ldr	ip, .L95+32
 1284 0530 018CE0E3 		mvn	r8, #256
 1285 0534 84009FE5 		ldr	r0, .L95+36
 1286              	.LVL112:
 217:/home/hkh/git/eapidk-code-r76-trunk/apps/EeePProg/linux/../EeePDB.c ****       ReduceBlockLength             ,
 1287              		.loc 1 217 3 is_stmt 0 discriminator 1 view .LVU335
 1288 0538 D930A0E3 		mov	r3, #217
 1289 053c 80209FE5 		ldr	r2, .L95+40
 1290              	.LVL113:
 217:/home/hkh/git/eapidk-code-r76-trunk/apps/EeePProg/linux/../EeePDB.c ****       ReduceBlockLength             ,
 1291              		.loc 1 217 3 discriminator 1 view .LVU336
 1292 0540 80109FE5 		ldr	r1, .L95+44
 1293              	.LVL114:
 217:/home/hkh/git/eapidk-code-r76-trunk/apps/EeePProg/linux/../EeePDB.c ****       ReduceBlockLength             ,
 1294              		.loc 1 217 3 discriminator 1 view .LVU337
 1295              	.LPIC36:
 1296 0544 0CC08FE0 		add	ip, pc, ip
 1297              	.LPIC37:
 1298 0548 00008FE0 		add	r0, pc, r0
 1299              	.LPIC34:
 1300 054c 02208FE0 		add	r2, pc, r2
 1301              	.LPIC35:
 1302 0550 01108FE0 		add	r1, pc, r1
 1303 0554 E2FFFFEA 		b	.L90
 1304              	.LVL115:
 1305              	.L94:
 1306              	.LBB149:
 1307              	.LBB148:
 1308              	.LBB146:
 1309              	.LBI146:
 155:/home/hkh/git/eapidk-code-r76-trunk/apps/EeePProg/linux/../EeePDB.c ****     DBlockIdHdr_t *pCurBlock
 1310              		.loc 1 155 1 is_stmt 1 view .LVU338
 1311              	.LBB147:
 161:/home/hkh/git/eapidk-code-r76-trunk/apps/EeePProg/linux/../EeePDB.c ****       GetNextBlock,
 1312              		.loc 1 161 3 view .LVU339
 161:/home/hkh/git/eapidk-code-r76-trunk/apps/EeePProg/linux/../EeePDB.c ****       GetNextBlock,
 1313              		.loc 1 161 3 view .LVU340
 1314 0558 6C209FE5 		ldr	r2, .L95+48
 1315 055c 4500A0E3 		mov	r0, #69
 1316              	.LVL116:
 161:/home/hkh/git/eapidk-code-r76-trunk/apps/EeePProg/linux/../EeePDB.c ****       GetNextBlock,
 1317              		.loc 1 161 3 is_stmt 0 view .LVU341
 1318 0560 68309FE5 		ldr	r3, .L95+52
ARM GAS  /tmp/ccTXisr2.s 			page 33


 1319 0564 68109FE5 		ldr	r1, .L95+56
 1320              	.LPIC48:
 1321 0568 02208FE0 		add	r2, pc, r2
 1322 056c 00708DE5 		str	r7, [sp]
 1323 0570 08208DE5 		str	r2, [sp, #8]
 1324              	.LPIC49:
 1325 0574 03308FE0 		add	r3, pc, r3
 1326 0578 58209FE5 		ldr	r2, .L95+60
 1327              	.LPIC47:
 1328 057c 01108FE0 		add	r1, pc, r1
 1329 0580 04308DE5 		str	r3, [sp, #4]
 1330 0584 A130A0E3 		mov	r3, #161
 1331              	.LPIC46:
 1332 0588 02208FE0 		add	r2, pc, r2
 1333 058c FEFFFFEB 		bl	siFormattedMessage_SC(PLT)
 1334              	.LVL117:
 161:/home/hkh/git/eapidk-code-r76-trunk/apps/EeePProg/linux/../EeePDB.c ****       GetNextBlock,
 1335              		.loc 1 161 3 is_stmt 1 view .LVU342
 161:/home/hkh/git/eapidk-code-r76-trunk/apps/EeePProg/linux/../EeePDB.c ****       GetNextBlock,
 1336              		.loc 1 161 3 view .LVU343
 161:/home/hkh/git/eapidk-code-r76-trunk/apps/EeePProg/linux/../EeePDB.c ****       GetNextBlock,
 1337              		.loc 1 161 3 view .LVU344
 1338              	.LDL3:
 1339              	.LDL4:
 182:/home/hkh/git/eapidk-code-r76-trunk/apps/EeePProg/linux/../EeePDB.c **** }
 1340              		.loc 1 182 3 view .LVU345
 182:/home/hkh/git/eapidk-code-r76-trunk/apps/EeePProg/linux/../EeePDB.c **** }
 1341              		.loc 1 182 3 is_stmt 0 view .LVU346
 1342 0590 B5FFFFEA 		b	.L82
 1343              	.LVL118:
 1344              	.L85:
 182:/home/hkh/git/eapidk-code-r76-trunk/apps/EeePProg/linux/../EeePDB.c **** }
 1345              		.loc 1 182 3 view .LVU347
 1346              	.LBE147:
 1347              	.LBE146:
 167:/home/hkh/git/eapidk-code-r76-trunk/apps/EeePProg/linux/../EeePDB.c ****     case EEEP_OFFSET_VALUE_EOL:
 1348              		.loc 1 167 3 view .LVU348
 1349 0594 0070A0E3 		mov	r7, #0
 1350 0598 B3FFFFEA 		b	.L82
 1351              	.L96:
 1352              		.align	2
 1353              	.L95:
 1354 059c C0000000 		.word	.LC14-(.LPIC44+8)
 1355 05a0 C0000000 		.word	.LC5-(.LPIC45+8)
 1356 05a4 C0000000 		.word	.LC11-(.LPIC42+8)
 1357 05a8 C0000000 		.word	.LC3-(.LPIC43+8)
 1358 05ac 8C000000 		.word	.LC13-(.LPIC40+8)
 1359 05b0 8C000000 		.word	.LC5-(.LPIC41+8)
 1360 05b4 8C000000 		.word	.LC11-(.LPIC38+8)
 1361 05b8 8C000000 		.word	.LC3-(.LPIC39+8)
 1362 05bc 70000000 		.word	.LC12-(.LPIC36+8)
 1363 05c0 70000000 		.word	.LC5-(.LPIC37+8)
 1364 05c4 70000000 		.word	.LC11-(.LPIC34+8)
 1365 05c8 70000000 		.word	.LC3-(.LPIC35+8)
 1366 05cc 5C000000 		.word	.LC9-(.LPIC48+8)
 1367 05d0 54000000 		.word	.LC5-(.LPIC49+8)
 1368 05d4 50000000 		.word	.LC3-(.LPIC47+8)
ARM GAS  /tmp/ccTXisr2.s 			page 34


 1369 05d8 48000000 		.word	.LC8-(.LPIC46+8)
 1370              	.LBE148:
 1371              	.LBE149:
 1372              		.cfi_endproc
 1373              	.LFE9:
 1375              		.section	.rodata.str1.4
 1376              		.align	2
 1377              	.LC15:
 1378 0188 45656550 		.ascii	"EeePFreeBuffer\000"
 1378      46726565 
 1378      42756666 
 1378      657200
 1379 0197 00       		.align	2
 1380              	.LC16:
 1381 0198 28704248 		.ascii	"(pBHandel==NULL)\000"
 1381      616E6465 
 1381      6C3D3D4E 
 1381      554C4C29 
 1381      00
 1382              		.text
 1383              		.align	2
 1384              		.global	EeePFreeBuffer
 1385              		.syntax unified
 1386              		.arm
 1387              		.fpu vfpv3
 1389              	EeePFreeBuffer:
 1390              	.LVL119:
 1391              	.LFB11:
 259:/home/hkh/git/eapidk-code-r76-trunk/apps/EeePProg/linux/../EeePDB.c **** 
 260:/home/hkh/git/eapidk-code-r76-trunk/apps/EeePProg/linux/../EeePDB.c **** /*
 261:/home/hkh/git/eapidk-code-r76-trunk/apps/EeePProg/linux/../EeePDB.c ****  * Create and Handle Blocks 
 262:/home/hkh/git/eapidk-code-r76-trunk/apps/EeePProg/linux/../EeePDB.c ****  */
 263:/home/hkh/git/eapidk-code-r76-trunk/apps/EeePProg/linux/../EeePDB.c **** EApiStatus_t
 264:/home/hkh/git/eapidk-code-r76-trunk/apps/EeePProg/linux/../EeePDB.c **** EeePCreateNewBuffer(
 265:/home/hkh/git/eapidk-code-r76-trunk/apps/EeePProg/linux/../EeePDB.c ****     EeePHandel_t *pBHandel,
 266:/home/hkh/git/eapidk-code-r76-trunk/apps/EeePProg/linux/../EeePDB.c ****     size_t   stBufferSize ,
 267:/home/hkh/git/eapidk-code-r76-trunk/apps/EeePProg/linux/../EeePDB.c ****     size_t   stHeaderSize ,
 268:/home/hkh/git/eapidk-code-r76-trunk/apps/EeePProg/linux/../EeePDB.c ****     uint32_t u32Flags
 269:/home/hkh/git/eapidk-code-r76-trunk/apps/EeePProg/linux/../EeePDB.c ****     )
 270:/home/hkh/git/eapidk-code-r76-trunk/apps/EeePProg/linux/../EeePDB.c **** {
 271:/home/hkh/git/eapidk-code-r76-trunk/apps/EeePProg/linux/../EeePDB.c ****   EeePCmn_t     *pEeePCmnHdr; 
 272:/home/hkh/git/eapidk-code-r76-trunk/apps/EeePProg/linux/../EeePDB.c ****   DBlockIdHdr_t *pEeePEmptyBlock; 
 273:/home/hkh/git/eapidk-code-r76-trunk/apps/EeePProg/linux/../EeePDB.c ****   EApiStatus_t StatusCode=EAPI_STATUS_SUCCESS;
 274:/home/hkh/git/eapidk-code-r76-trunk/apps/EeePProg/linux/../EeePDB.c ****   DBlockIdHdr_t *pEeePTBlock; 
 275:/home/hkh/git/eapidk-code-r76-trunk/apps/EeePProg/linux/../EeePDB.c ****   
 276:/home/hkh/git/eapidk-code-r76-trunk/apps/EeePProg/linux/../EeePDB.c ****   EAPI_APP_ASSERT_PARAMATER_CHECK_S(
 277:/home/hkh/git/eapidk-code-r76-trunk/apps/EeePProg/linux/../EeePDB.c ****       EeePCreateNewBuffer, 
 278:/home/hkh/git/eapidk-code-r76-trunk/apps/EeePProg/linux/../EeePDB.c ****       EAPI_STATUS_INVALID_PARAMETER, 
 279:/home/hkh/git/eapidk-code-r76-trunk/apps/EeePProg/linux/../EeePDB.c ****       (stBufferSize<256)
 280:/home/hkh/git/eapidk-code-r76-trunk/apps/EeePProg/linux/../EeePDB.c ****     );
 281:/home/hkh/git/eapidk-code-r76-trunk/apps/EeePProg/linux/../EeePDB.c ****   EAPI_APP_ASSERT_PARAMATER_CHECK_S(
 282:/home/hkh/git/eapidk-code-r76-trunk/apps/EeePProg/linux/../EeePDB.c ****       EeePCreateNewBuffer, 
 283:/home/hkh/git/eapidk-code-r76-trunk/apps/EeePProg/linux/../EeePDB.c ****       EAPI_STATUS_INVALID_PARAMETER, 
 284:/home/hkh/git/eapidk-code-r76-trunk/apps/EeePProg/linux/../EeePDB.c ****       (stHeaderSize<sizeof(*pEeePCmnHdr))
 285:/home/hkh/git/eapidk-code-r76-trunk/apps/EeePProg/linux/../EeePDB.c ****     );
 286:/home/hkh/git/eapidk-code-r76-trunk/apps/EeePProg/linux/../EeePDB.c **** 
 287:/home/hkh/git/eapidk-code-r76-trunk/apps/EeePProg/linux/../EeePDB.c ****   pEeePCmnHdr=*pBHandel=(EeePHandel_t)malloc(stBufferSize);
ARM GAS  /tmp/ccTXisr2.s 			page 35


 288:/home/hkh/git/eapidk-code-r76-trunk/apps/EeePProg/linux/../EeePDB.c **** 
 289:/home/hkh/git/eapidk-code-r76-trunk/apps/EeePProg/linux/../EeePDB.c ****   EAPI_APP_ASSERT_PARAMATER_NULL(
 290:/home/hkh/git/eapidk-code-r76-trunk/apps/EeePProg/linux/../EeePDB.c ****       EeePCreateNewBuffer,
 291:/home/hkh/git/eapidk-code-r76-trunk/apps/EeePProg/linux/../EeePDB.c ****       EAPI_STATUS_ALLOC_ERROR,
 292:/home/hkh/git/eapidk-code-r76-trunk/apps/EeePProg/linux/../EeePDB.c ****       *pBHandel
 293:/home/hkh/git/eapidk-code-r76-trunk/apps/EeePProg/linux/../EeePDB.c ****     );
 294:/home/hkh/git/eapidk-code-r76-trunk/apps/EeePProg/linux/../EeePDB.c ****   memset(pEeePCmnHdr, 0x00, stBufferSize);
 295:/home/hkh/git/eapidk-code-r76-trunk/apps/EeePProg/linux/../EeePDB.c ****   /*
 296:/home/hkh/git/eapidk-code-r76-trunk/apps/EeePProg/linux/../EeePDB.c ****    * Initialize Header
 297:/home/hkh/git/eapidk-code-r76-trunk/apps/EeePProg/linux/../EeePDB.c ****    */
 298:/home/hkh/git/eapidk-code-r76-trunk/apps/EeePProg/linux/../EeePDB.c ****   pEeePCmnHdr->DontCareByte=0;
 299:/home/hkh/git/eapidk-code-r76-trunk/apps/EeePProg/linux/../EeePDB.c ****   memcpy(
 300:/home/hkh/git/eapidk-code-r76-trunk/apps/EeePProg/linux/../EeePDB.c ****       pEeePCmnHdr->EepId        ,
 301:/home/hkh/git/eapidk-code-r76-trunk/apps/EeePProg/linux/../EeePDB.c ****       EEEP_EEPROM_MARKER        ,
 302:/home/hkh/git/eapidk-code-r76-trunk/apps/EeePProg/linux/../EeePDB.c ****       sizeof(EEEP_EEPROM_MARKER)-1
 303:/home/hkh/git/eapidk-code-r76-trunk/apps/EeePProg/linux/../EeePDB.c ****     );
 304:/home/hkh/git/eapidk-code-r76-trunk/apps/EeePProg/linux/../EeePDB.c ****   pEeePCmnHdr->SpecRev=EEEP_VERSION;
 305:/home/hkh/git/eapidk-code-r76-trunk/apps/EeePProg/linux/../EeePDB.c ****   pEeePCmnHdr->BlkOffset=(uint8_t)EeePAdjLength(stHeaderSize);
 306:/home/hkh/git/eapidk-code-r76-trunk/apps/EeePProg/linux/../EeePDB.c ****   pEeePCmnHdr->DeviceDesc=0;
 307:/home/hkh/git/eapidk-code-r76-trunk/apps/EeePProg/linux/../EeePDB.c ****   /*
 308:/home/hkh/git/eapidk-code-r76-trunk/apps/EeePProg/linux/../EeePDB.c ****    * Initialize Free Block
 309:/home/hkh/git/eapidk-code-r76-trunk/apps/EeePProg/linux/../EeePDB.c ****    */
 310:/home/hkh/git/eapidk-code-r76-trunk/apps/EeePProg/linux/../EeePDB.c ****   DO(EeePGetFirstDB(*pBHandel, &pEeePEmptyBlock, NULL));
 311:/home/hkh/git/eapidk-code-r76-trunk/apps/EeePProg/linux/../EeePDB.c **** 
 312:/home/hkh/git/eapidk-code-r76-trunk/apps/EeePProg/linux/../EeePDB.c ****   DO(SetDynBlockHeader(
 313:/home/hkh/git/eapidk-code-r76-trunk/apps/EeePProg/linux/../EeePDB.c ****         pEeePEmptyBlock, 
 314:/home/hkh/git/eapidk-code-r76-trunk/apps/EeePProg/linux/../EeePDB.c ****         EEEP_BLOCK_ID_UNUSED, 
 315:/home/hkh/git/eapidk-code-r76-trunk/apps/EeePProg/linux/../EeePDB.c ****         stBufferSize - (pEeePCmnHdr->BlkOffset*EEEP_SIZE_UNITS)
 316:/home/hkh/git/eapidk-code-r76-trunk/apps/EeePProg/linux/../EeePDB.c ****       ));
 317:/home/hkh/git/eapidk-code-r76-trunk/apps/EeePProg/linux/../EeePDB.c ****   /*
 318:/home/hkh/git/eapidk-code-r76-trunk/apps/EeePProg/linux/../EeePDB.c ****    * Termination Block
 319:/home/hkh/git/eapidk-code-r76-trunk/apps/EeePProg/linux/../EeePDB.c ****    */
 320:/home/hkh/git/eapidk-code-r76-trunk/apps/EeePProg/linux/../EeePDB.c ****   DO(ReduceBlockLength(
 321:/home/hkh/git/eapidk-code-r76-trunk/apps/EeePProg/linux/../EeePDB.c ****         &pEeePEmptyBlock        ,
 322:/home/hkh/git/eapidk-code-r76-trunk/apps/EeePProg/linux/../EeePDB.c ****         sizeof(*pEeePTBlock)    ,
 323:/home/hkh/git/eapidk-code-r76-trunk/apps/EeePProg/linux/../EeePDB.c ****         &pEeePTBlock            , 
 324:/home/hkh/git/eapidk-code-r76-trunk/apps/EeePProg/linux/../EeePDB.c ****         EEEP_RBL_REDUCE_TOP_DOWN
 325:/home/hkh/git/eapidk-code-r76-trunk/apps/EeePProg/linux/../EeePDB.c ****       ));
 326:/home/hkh/git/eapidk-code-r76-trunk/apps/EeePProg/linux/../EeePDB.c **** 
 327:/home/hkh/git/eapidk-code-r76-trunk/apps/EeePProg/linux/../EeePDB.c ****   /*
 328:/home/hkh/git/eapidk-code-r76-trunk/apps/EeePProg/linux/../EeePDB.c ****    * Initialise Termination Block Values
 329:/home/hkh/git/eapidk-code-r76-trunk/apps/EeePProg/linux/../EeePDB.c ****    */
 330:/home/hkh/git/eapidk-code-r76-trunk/apps/EeePProg/linux/../EeePDB.c ****   DO(SetDynBlockHeader(
 331:/home/hkh/git/eapidk-code-r76-trunk/apps/EeePProg/linux/../EeePDB.c ****         pEeePTBlock, 
 332:/home/hkh/git/eapidk-code-r76-trunk/apps/EeePProg/linux/../EeePDB.c ****         EEEP_BLOCK_ID_UNUSED, 
 333:/home/hkh/git/eapidk-code-r76-trunk/apps/EeePProg/linux/../EeePDB.c ****         EEEP_OFFSET_VALUE_EOL
 334:/home/hkh/git/eapidk-code-r76-trunk/apps/EeePProg/linux/../EeePDB.c ****       ));
 335:/home/hkh/git/eapidk-code-r76-trunk/apps/EeePProg/linux/../EeePDB.c ****   /*
 336:/home/hkh/git/eapidk-code-r76-trunk/apps/EeePProg/linux/../EeePDB.c ****    * Optional Create CRC Block
 337:/home/hkh/git/eapidk-code-r76-trunk/apps/EeePProg/linux/../EeePDB.c ****    */
 338:/home/hkh/git/eapidk-code-r76-trunk/apps/EeePProg/linux/../EeePDB.c ****   if(u32Flags&EEEP_INIT_INCLUDE_CRC){
 339:/home/hkh/git/eapidk-code-r76-trunk/apps/EeePProg/linux/../EeePDB.c ****     DBlockIdHdr_t   *plclEeePBlock; 
 340:/home/hkh/git/eapidk-code-r76-trunk/apps/EeePProg/linux/../EeePDB.c ****     EeePCRC16ChkBlock_t *pEeePCRCBlock;
 341:/home/hkh/git/eapidk-code-r76-trunk/apps/EeePProg/linux/../EeePDB.c ****     /*
 342:/home/hkh/git/eapidk-code-r76-trunk/apps/EeePProg/linux/../EeePDB.c ****      * Allocate CRC BLOCK
 343:/home/hkh/git/eapidk-code-r76-trunk/apps/EeePProg/linux/../EeePDB.c ****      */
 344:/home/hkh/git/eapidk-code-r76-trunk/apps/EeePProg/linux/../EeePDB.c ****     DO(ReduceBlockLength(
ARM GAS  /tmp/ccTXisr2.s 			page 36


 345:/home/hkh/git/eapidk-code-r76-trunk/apps/EeePProg/linux/../EeePDB.c ****           &pEeePEmptyBlock      ,
 346:/home/hkh/git/eapidk-code-r76-trunk/apps/EeePProg/linux/../EeePDB.c ****           sizeof(*pEeePCRCBlock),
 347:/home/hkh/git/eapidk-code-r76-trunk/apps/EeePProg/linux/../EeePDB.c ****           &plclEeePBlock,
 348:/home/hkh/git/eapidk-code-r76-trunk/apps/EeePProg/linux/../EeePDB.c ****           0
 349:/home/hkh/git/eapidk-code-r76-trunk/apps/EeePProg/linux/../EeePDB.c ****         ));
 350:/home/hkh/git/eapidk-code-r76-trunk/apps/EeePProg/linux/../EeePDB.c ****    pEeePCRCBlock=(EeePCRC16ChkBlock_t*)plclEeePBlock;
 351:/home/hkh/git/eapidk-code-r76-trunk/apps/EeePProg/linux/../EeePDB.c **** 
 352:/home/hkh/git/eapidk-code-r76-trunk/apps/EeePProg/linux/../EeePDB.c ****     /*
 353:/home/hkh/git/eapidk-code-r76-trunk/apps/EeePProg/linux/../EeePDB.c ****      * Initialise CRC Block Values
 354:/home/hkh/git/eapidk-code-r76-trunk/apps/EeePProg/linux/../EeePDB.c ****      */
 355:/home/hkh/git/eapidk-code-r76-trunk/apps/EeePProg/linux/../EeePDB.c ****     DO(SetDynBlockHeader(
 356:/home/hkh/git/eapidk-code-r76-trunk/apps/EeePProg/linux/../EeePDB.c ****           pEeePCRCBlock         ,
 357:/home/hkh/git/eapidk-code-r76-trunk/apps/EeePProg/linux/../EeePDB.c ****           EEEP_BLOCK_ID_CRC_CHK ,
 358:/home/hkh/git/eapidk-code-r76-trunk/apps/EeePProg/linux/../EeePDB.c ****           sizeof(*pEeePCRCBlock)
 359:/home/hkh/git/eapidk-code-r76-trunk/apps/EeePProg/linux/../EeePDB.c ****         ));
 360:/home/hkh/git/eapidk-code-r76-trunk/apps/EeePProg/linux/../EeePDB.c ****     EeeP_Set16BitValue_BE( pEeePCRCBlock->CrC16, 0);
 361:/home/hkh/git/eapidk-code-r76-trunk/apps/EeePProg/linux/../EeePDB.c ****   }
 362:/home/hkh/git/eapidk-code-r76-trunk/apps/EeePProg/linux/../EeePDB.c **** EAPI_APP_ASSERT_EXIT
 363:/home/hkh/git/eapidk-code-r76-trunk/apps/EeePProg/linux/../EeePDB.c ****   return StatusCode;
 364:/home/hkh/git/eapidk-code-r76-trunk/apps/EeePProg/linux/../EeePDB.c **** }
 365:/home/hkh/git/eapidk-code-r76-trunk/apps/EeePProg/linux/../EeePDB.c **** EApiStatus_t
 366:/home/hkh/git/eapidk-code-r76-trunk/apps/EeePProg/linux/../EeePDB.c **** EeePFreeBuffer(
 367:/home/hkh/git/eapidk-code-r76-trunk/apps/EeePProg/linux/../EeePDB.c ****     EeePHandel_t *pBHandel
 368:/home/hkh/git/eapidk-code-r76-trunk/apps/EeePProg/linux/../EeePDB.c ****     )
 369:/home/hkh/git/eapidk-code-r76-trunk/apps/EeePProg/linux/../EeePDB.c **** {
 1392              		.loc 1 369 1 is_stmt 1 view -0
 1393              		.cfi_startproc
 1394              		@ args = 0, pretend = 0, frame = 0
 1395              		@ frame_needed = 0, uses_anonymous_args = 0
 370:/home/hkh/git/eapidk-code-r76-trunk/apps/EeePProg/linux/../EeePDB.c ****   EApiStatus_t StatusCode=EAPI_STATUS_SUCCESS;
 1396              		.loc 1 370 3 view .LVU350
 371:/home/hkh/git/eapidk-code-r76-trunk/apps/EeePProg/linux/../EeePDB.c ****   EAPI_APP_ASSERT_PARAMATER_NULL(
 1397              		.loc 1 371 3 view .LVU351
 369:/home/hkh/git/eapidk-code-r76-trunk/apps/EeePProg/linux/../EeePDB.c ****   EApiStatus_t StatusCode=EAPI_STATUS_SUCCESS;
 1398              		.loc 1 369 1 is_stmt 0 view .LVU352
 1399 05dc 10402DE9 		push	{r4, lr}
 1400              		.cfi_def_cfa_offset 8
 1401              		.cfi_offset 4, -8
 1402              		.cfi_offset 14, -4
 1403              		.loc 1 371 3 view .LVU353
 1404 05e0 004050E2 		subs	r4, r0, #0
 369:/home/hkh/git/eapidk-code-r76-trunk/apps/EeePProg/linux/../EeePDB.c ****   EApiStatus_t StatusCode=EAPI_STATUS_SUCCESS;
 1405              		.loc 1 369 1 view .LVU354
 1406 05e4 10D04DE2 		sub	sp, sp, #16
 1407              		.cfi_def_cfa_offset 24
 1408              		.loc 1 371 3 view .LVU355
 1409 05e8 0800000A 		beq	.L102
 1410              		.loc 1 371 3 is_stmt 1 discriminator 2 view .LVU356
 372:/home/hkh/git/eapidk-code-r76-trunk/apps/EeePProg/linux/../EeePDB.c ****       EeePFreeBuffer,
 373:/home/hkh/git/eapidk-code-r76-trunk/apps/EeePProg/linux/../EeePDB.c ****       EAPI_STATUS_INVALID_PARAMETER,
 374:/home/hkh/git/eapidk-code-r76-trunk/apps/EeePProg/linux/../EeePDB.c ****       pBHandel
 375:/home/hkh/git/eapidk-code-r76-trunk/apps/EeePProg/linux/../EeePDB.c ****     );
 1411              		.loc 1 375 6 discriminator 2 view .LVU357
 376:/home/hkh/git/eapidk-code-r76-trunk/apps/EeePProg/linux/../EeePDB.c **** 
 377:/home/hkh/git/eapidk-code-r76-trunk/apps/EeePProg/linux/../EeePDB.c ****   if(*pBHandel!=NULL){
 1412              		.loc 1 377 3 discriminator 2 view .LVU358
 1413              		.loc 1 377 6 is_stmt 0 discriminator 2 view .LVU359
ARM GAS  /tmp/ccTXisr2.s 			page 37


 1414 05ec 000094E5 		ldr	r0, [r4]
 1415              	.LVL120:
 1416              		.loc 1 377 5 discriminator 2 view .LVU360
 1417 05f0 000050E3 		cmp	r0, #0
 1418 05f4 0300000A 		beq	.L97
 378:/home/hkh/git/eapidk-code-r76-trunk/apps/EeePProg/linux/../EeePDB.c **** 		free(*pBHandel);
 1419              		.loc 1 378 3 is_stmt 1 view .LVU361
 1420 05f8 FEFFFFEB 		bl	free(PLT)
 1421              	.LVL121:
 379:/home/hkh/git/eapidk-code-r76-trunk/apps/EeePProg/linux/../EeePDB.c **** 		*pBHandel=NULL;
 1422              		.loc 1 379 3 view .LVU362
 1423              		.loc 1 379 12 is_stmt 0 view .LVU363
 1424 05fc 0030A0E3 		mov	r3, #0
 370:/home/hkh/git/eapidk-code-r76-trunk/apps/EeePProg/linux/../EeePDB.c ****   EAPI_APP_ASSERT_PARAMATER_NULL(
 1425              		.loc 1 370 16 view .LVU364
 1426 0600 0300A0E1 		mov	r0, r3
 1427              		.loc 1 379 12 view .LVU365
 1428 0604 003084E5 		str	r3, [r4]
 1429              	.L99:
 1430              	.LVL122:
 1431              	.L97:
 380:/home/hkh/git/eapidk-code-r76-trunk/apps/EeePProg/linux/../EeePDB.c ****   }
 381:/home/hkh/git/eapidk-code-r76-trunk/apps/EeePProg/linux/../EeePDB.c **** EAPI_APP_ASSERT_EXIT
 382:/home/hkh/git/eapidk-code-r76-trunk/apps/EeePProg/linux/../EeePDB.c ****   return StatusCode;
 383:/home/hkh/git/eapidk-code-r76-trunk/apps/EeePProg/linux/../EeePDB.c **** }
 1432              		.loc 1 383 1 view .LVU366
 1433 0608 10D08DE2 		add	sp, sp, #16
 1434              		.cfi_remember_state
 1435              		.cfi_def_cfa_offset 8
 1436              		@ sp needed
 1437 060c 1080BDE8 		pop	{r4, pc}
 1438              	.LVL123:
 1439              	.L102:
 1440              		.cfi_restore_state
 371:/home/hkh/git/eapidk-code-r76-trunk/apps/EeePProg/linux/../EeePDB.c ****       EeePFreeBuffer,
 1441              		.loc 1 371 3 is_stmt 1 discriminator 1 view .LVU367
 371:/home/hkh/git/eapidk-code-r76-trunk/apps/EeePProg/linux/../EeePDB.c ****       EeePFreeBuffer,
 1442              		.loc 1 371 3 discriminator 1 view .LVU368
 1443 0610 38C09FE5 		ldr	ip, .L103
 1444 0614 014CE0E3 		mvn	r4, #256
 1445 0618 34009FE5 		ldr	r0, .L103+4
 1446              	.LVL124:
 371:/home/hkh/git/eapidk-code-r76-trunk/apps/EeePProg/linux/../EeePDB.c ****       EeePFreeBuffer,
 1447              		.loc 1 371 3 is_stmt 0 discriminator 1 view .LVU369
 1448 061c 733100E3 		movw	r3, #371
 1449 0620 30209FE5 		ldr	r2, .L103+8
 1450 0624 30109FE5 		ldr	r1, .L103+12
 1451              	.LPIC52:
 1452 0628 0CC08FE0 		add	ip, pc, ip
 1453              	.LPIC53:
 1454 062c 00008FE0 		add	r0, pc, r0
 1455 0630 00408DE5 		str	r4, [sp]
 1456 0634 01108DE9 		stmib	sp, {r0, ip}
 1457              	.LPIC50:
 1458 0638 02208FE0 		add	r2, pc, r2
 1459              	.LPIC51:
 1460 063c 01108FE0 		add	r1, pc, r1
ARM GAS  /tmp/ccTXisr2.s 			page 38


 1461 0640 4500A0E3 		mov	r0, #69
 1462 0644 FEFFFFEB 		bl	siFormattedMessage_SC(PLT)
 1463              	.LVL125:
 371:/home/hkh/git/eapidk-code-r76-trunk/apps/EeePProg/linux/../EeePDB.c ****       EeePFreeBuffer,
 1464              		.loc 1 371 3 is_stmt 1 discriminator 1 view .LVU370
 371:/home/hkh/git/eapidk-code-r76-trunk/apps/EeePProg/linux/../EeePDB.c ****       EeePFreeBuffer,
 1465              		.loc 1 371 3 discriminator 1 view .LVU371
 371:/home/hkh/git/eapidk-code-r76-trunk/apps/EeePProg/linux/../EeePDB.c ****       EeePFreeBuffer,
 1466              		.loc 1 371 3 discriminator 1 view .LVU372
 1467 0648 0400A0E1 		mov	r0, r4
 1468 064c EDFFFFEA 		b	.L97
 1469              	.L104:
 1470              		.align	2
 1471              	.L103:
 1472 0650 20000000 		.word	.LC16-(.LPIC52+8)
 1473 0654 20000000 		.word	.LC5-(.LPIC53+8)
 1474 0658 18000000 		.word	.LC15-(.LPIC50+8)
 1475 065c 18000000 		.word	.LC3-(.LPIC51+8)
 1476              		.cfi_endproc
 1477              	.LFE11:
 1479              		.section	.rodata.str1.4
 1480 01a9 000000   		.align	2
 1481              	.LC17:
 1482 01ac 45656550 		.ascii	"EeePGetFirstDB\000"
 1482      47657446 
 1482      69727374 
 1482      444200
 1483 01bb 00       		.align	2
 1484              	.LC18:
 1485 01bc 28704669 		.ascii	"(pFirstDB==NULL)\000"
 1485      72737444 
 1485      423D3D4E 
 1485      554C4C29 
 1485      00
 1486 01cd 000000   		.align	2
 1487              	.LC19:
 1488 01d0 335000   		.ascii	"3P\000"
 1489 01d3 00       		.align	2
 1490              	.LC20:
 1491 01d4 496E7661 		.ascii	"Invalid EeeP Buffer\000"
 1491      6C696420 
 1491      45656550 
 1491      20427566 
 1491      66657200 
 1492              		.text
 1493              		.align	2
 1494              		.global	EeePGetFirstDB
 1495              		.syntax unified
 1496              		.arm
 1497              		.fpu vfpv3
 1499              	EeePGetFirstDB:
 1500              	.LVL126:
 1501              	.LFB12:
 384:/home/hkh/git/eapidk-code-r76-trunk/apps/EeePProg/linux/../EeePDB.c **** EApiStatus_t
 385:/home/hkh/git/eapidk-code-r76-trunk/apps/EeePProg/linux/../EeePDB.c **** EeePGetFirstDB(
 386:/home/hkh/git/eapidk-code-r76-trunk/apps/EeePProg/linux/../EeePDB.c ****     EeePHandel_t     BHandel,
 387:/home/hkh/git/eapidk-code-r76-trunk/apps/EeePProg/linux/../EeePDB.c ****     DBlockIdHdr_t ** pFirstDB, 
ARM GAS  /tmp/ccTXisr2.s 			page 39


 388:/home/hkh/git/eapidk-code-r76-trunk/apps/EeePProg/linux/../EeePDB.c ****     size_t          *pstImageMaxSize
 389:/home/hkh/git/eapidk-code-r76-trunk/apps/EeePProg/linux/../EeePDB.c ****     )
 390:/home/hkh/git/eapidk-code-r76-trunk/apps/EeePProg/linux/../EeePDB.c **** {
 1502              		.loc 1 390 1 view -0
 1503              		.cfi_startproc
 1504              		@ args = 0, pretend = 0, frame = 0
 1505              		@ frame_needed = 0, uses_anonymous_args = 0
 391:/home/hkh/git/eapidk-code-r76-trunk/apps/EeePProg/linux/../EeePDB.c ****   EApiStatus_t StatusCode=EAPI_STATUS_SUCCESS;
 1506              		.loc 1 391 3 view .LVU374
 392:/home/hkh/git/eapidk-code-r76-trunk/apps/EeePProg/linux/../EeePDB.c ****   EAPI_APP_ASSERT_PARAMATER_NULL(
 1507              		.loc 1 392 3 view .LVU375
 1508 0660 003050E2 		subs	r3, r0, #0
 390:/home/hkh/git/eapidk-code-r76-trunk/apps/EeePProg/linux/../EeePDB.c ****   EApiStatus_t StatusCode=EAPI_STATUS_SUCCESS;
 1509              		.loc 1 390 1 is_stmt 0 view .LVU376
 1510 0664 10402DE9 		push	{r4, lr}
 1511              		.cfi_def_cfa_offset 8
 1512              		.cfi_offset 4, -8
 1513              		.cfi_offset 14, -4
 1514 0668 10D04DE2 		sub	sp, sp, #16
 1515              		.cfi_def_cfa_offset 24
 1516              		.loc 1 392 3 view .LVU377
 1517 066c 2C00000A 		beq	.L119
 1518              		.loc 1 392 3 is_stmt 1 discriminator 2 view .LVU378
 393:/home/hkh/git/eapidk-code-r76-trunk/apps/EeePProg/linux/../EeePDB.c ****       EeePGetFirstDB,
 394:/home/hkh/git/eapidk-code-r76-trunk/apps/EeePProg/linux/../EeePDB.c ****       EAPI_STATUS_INVALID_PARAMETER,
 395:/home/hkh/git/eapidk-code-r76-trunk/apps/EeePProg/linux/../EeePDB.c ****       BHandel
 396:/home/hkh/git/eapidk-code-r76-trunk/apps/EeePProg/linux/../EeePDB.c ****     );
 1519              		.loc 1 396 6 discriminator 2 view .LVU379
 397:/home/hkh/git/eapidk-code-r76-trunk/apps/EeePProg/linux/../EeePDB.c ****   EAPI_APP_ASSERT_PARAMATER_NULL(
 1520              		.loc 1 397 3 discriminator 2 view .LVU380
 1521 0670 000051E3 		cmp	r1, #0
 1522 0674 3500000A 		beq	.L120
 1523              		.loc 1 397 3 discriminator 2 view .LVU381
 398:/home/hkh/git/eapidk-code-r76-trunk/apps/EeePProg/linux/../EeePDB.c ****       EeePGetFirstDB,
 399:/home/hkh/git/eapidk-code-r76-trunk/apps/EeePProg/linux/../EeePDB.c ****       EAPI_STATUS_INVALID_PARAMETER,
 400:/home/hkh/git/eapidk-code-r76-trunk/apps/EeePProg/linux/../EeePDB.c ****       pFirstDB
 401:/home/hkh/git/eapidk-code-r76-trunk/apps/EeePProg/linux/../EeePDB.c ****     );
 1524              		.loc 1 401 6 discriminator 2 view .LVU382
 402:/home/hkh/git/eapidk-code-r76-trunk/apps/EeePProg/linux/../EeePDB.c ****     
 403:/home/hkh/git/eapidk-code-r76-trunk/apps/EeePProg/linux/../EeePDB.c ****   *pFirstDB=NULL;
 1525              		.loc 1 403 3 discriminator 2 view .LVU383
 1526              		.loc 1 403 12 is_stmt 0 discriminator 2 view .LVU384
 1527 0678 0000A0E3 		mov	r0, #0
 1528              	.LVL127:
 404:/home/hkh/git/eapidk-code-r76-trunk/apps/EeePProg/linux/../EeePDB.c **** 
 405:/home/hkh/git/eapidk-code-r76-trunk/apps/EeePProg/linux/../EeePDB.c ****   EAPI_APP_RETURN_ERROR_IF(
 1529              		.loc 1 405 3 discriminator 2 view .LVU385
 1530 067c 01E083E2 		add	lr, r3, #1
 403:/home/hkh/git/eapidk-code-r76-trunk/apps/EeePProg/linux/../EeePDB.c **** 
 1531              		.loc 1 403 12 discriminator 2 view .LVU386
 1532 0680 000081E5 		str	r0, [r1]
 1533              		.loc 1 405 3 is_stmt 1 discriminator 2 view .LVU387
 1534 0684 01C0D3E5 		ldrb	ip, [r3, #1]	@ zero_extendqisi2
 1535 0688 33005CE3 		cmp	ip, #51
 1536 068c 1000000A 		beq	.L121
 1537              	.L109:
 1538              		.loc 1 405 3 discriminator 2 view .LVU388
ARM GAS  /tmp/ccTXisr2.s 			page 40


 1539              		.loc 1 405 3 discriminator 2 view .LVU389
 1540 0690 E4C09FE5 		ldr	ip, .L122
 1541 0694 0F4CE0E3 		mvn	r4, #3840
 1542 0698 E0009FE5 		ldr	r0, .L122+4
 1543 069c 953100E3 		movw	r3, #405
 1544              	.LVL128:
 1545              		.loc 1 405 3 is_stmt 0 discriminator 2 view .LVU390
 1546 06a0 DC209FE5 		ldr	r2, .L122+8
 1547              	.LVL129:
 1548              		.loc 1 405 3 discriminator 2 view .LVU391
 1549 06a4 DC109FE5 		ldr	r1, .L122+12
 1550              	.LVL130:
 1551              		.loc 1 405 3 discriminator 2 view .LVU392
 1552              	.LPIC65:
 1553 06a8 0CC08FE0 		add	ip, pc, ip
 1554              	.LPIC66:
 1555 06ac 00008FE0 		add	r0, pc, r0
 1556              	.LPIC63:
 1557 06b0 02208FE0 		add	r2, pc, r2
 1558              	.LPIC64:
 1559 06b4 01108FE0 		add	r1, pc, r1
 1560              	.LVL131:
 1561              	.L118:
 1562              		.loc 1 405 3 discriminator 2 view .LVU393
 1563 06b8 01108DE9 		stmib	sp, {r0, ip}
 1564 06bc 4500A0E3 		mov	r0, #69
 1565 06c0 00408DE5 		str	r4, [sp]
 1566 06c4 FEFFFFEB 		bl	siFormattedMessage_SC(PLT)
 1567              	.LVL132:
 1568              		.loc 1 405 3 is_stmt 1 discriminator 2 view .LVU394
 1569              		.loc 1 405 3 discriminator 2 view .LVU395
 1570              		.loc 1 405 3 discriminator 2 view .LVU396
 1571 06c8 0400A0E1 		mov	r0, r4
 406:/home/hkh/git/eapidk-code-r76-trunk/apps/EeePProg/linux/../EeePDB.c ****       EeePGetFirstDB,
 407:/home/hkh/git/eapidk-code-r76-trunk/apps/EeePProg/linux/../EeePDB.c ****       memcmp(
 408:/home/hkh/git/eapidk-code-r76-trunk/apps/EeePProg/linux/../EeePDB.c ****           ((EeePCmn_t*)BHandel)->EepId, 
 409:/home/hkh/git/eapidk-code-r76-trunk/apps/EeePProg/linux/../EeePDB.c ****           EEEP_EEPROM_MARKER, 
 410:/home/hkh/git/eapidk-code-r76-trunk/apps/EeePProg/linux/../EeePDB.c ****           sizeof(EEEP_EEPROM_MARKER)-1
 411:/home/hkh/git/eapidk-code-r76-trunk/apps/EeePProg/linux/../EeePDB.c ****         ),
 412:/home/hkh/git/eapidk-code-r76-trunk/apps/EeePProg/linux/../EeePDB.c ****       EAPI_STATUS_ERROR,
 413:/home/hkh/git/eapidk-code-r76-trunk/apps/EeePProg/linux/../EeePDB.c ****       TEXT("Invalid EeeP Buffer")
 414:/home/hkh/git/eapidk-code-r76-trunk/apps/EeePProg/linux/../EeePDB.c ****     );
 415:/home/hkh/git/eapidk-code-r76-trunk/apps/EeePProg/linux/../EeePDB.c **** 
 416:/home/hkh/git/eapidk-code-r76-trunk/apps/EeePProg/linux/../EeePDB.c **** 
 417:/home/hkh/git/eapidk-code-r76-trunk/apps/EeePProg/linux/../EeePDB.c ****   /*
 418:/home/hkh/git/eapidk-code-r76-trunk/apps/EeePProg/linux/../EeePDB.c ****    * Check If Dynamic Blocks Present
 419:/home/hkh/git/eapidk-code-r76-trunk/apps/EeePProg/linux/../EeePDB.c ****    */
 420:/home/hkh/git/eapidk-code-r76-trunk/apps/EeePProg/linux/../EeePDB.c ****   if(!((EeePCmn_t*)BHandel)->BlkOffset) 
 421:/home/hkh/git/eapidk-code-r76-trunk/apps/EeePProg/linux/../EeePDB.c ****     return EAPI_STATUS_SUCCESS;
 422:/home/hkh/git/eapidk-code-r76-trunk/apps/EeePProg/linux/../EeePDB.c **** 
 423:/home/hkh/git/eapidk-code-r76-trunk/apps/EeePProg/linux/../EeePDB.c ****   *pFirstDB=EAPI_CREATE_PTR(
 424:/home/hkh/git/eapidk-code-r76-trunk/apps/EeePProg/linux/../EeePDB.c ****         BHandel         ,
 425:/home/hkh/git/eapidk-code-r76-trunk/apps/EeePProg/linux/../EeePDB.c ****         (((EeePCmn_t*)BHandel)->BlkOffset*EEEP_SIZE_UNITS),
 426:/home/hkh/git/eapidk-code-r76-trunk/apps/EeePProg/linux/../EeePDB.c ****         void *
 427:/home/hkh/git/eapidk-code-r76-trunk/apps/EeePProg/linux/../EeePDB.c ****       );
 428:/home/hkh/git/eapidk-code-r76-trunk/apps/EeePProg/linux/../EeePDB.c ****   if(pstImageMaxSize!=NULL) *pstImageMaxSize=
 429:/home/hkh/git/eapidk-code-r76-trunk/apps/EeePProg/linux/../EeePDB.c ****         (size_t)(256<<(((EeePCmn_t*)BHandel)->DeviceDesc&EEEP_DEVICE_SIZE_MASK));
ARM GAS  /tmp/ccTXisr2.s 			page 41


 430:/home/hkh/git/eapidk-code-r76-trunk/apps/EeePProg/linux/../EeePDB.c **** EAPI_APP_ASSERT_EXIT
 431:/home/hkh/git/eapidk-code-r76-trunk/apps/EeePProg/linux/../EeePDB.c ****   return StatusCode;
 432:/home/hkh/git/eapidk-code-r76-trunk/apps/EeePProg/linux/../EeePDB.c **** }
 1572              		.loc 1 432 1 is_stmt 0 discriminator 2 view .LVU397
 1573 06cc 10D08DE2 		add	sp, sp, #16
 1574              		.cfi_remember_state
 1575              		.cfi_def_cfa_offset 8
 1576              		@ sp needed
 1577 06d0 1080BDE8 		pop	{r4, pc}
 1578              	.LVL133:
 1579              	.L121:
 1580              		.cfi_restore_state
 405:/home/hkh/git/eapidk-code-r76-trunk/apps/EeePProg/linux/../EeePDB.c ****       EeePGetFirstDB,
 1581              		.loc 1 405 3 discriminator 2 view .LVU398
 1582 06d4 02C0D3E5 		ldrb	ip, [r3, #2]	@ zero_extendqisi2
 1583 06d8 50005CE3 		cmp	ip, #80
 1584 06dc EBFFFF1A 		bne	.L109
 405:/home/hkh/git/eapidk-code-r76-trunk/apps/EeePProg/linux/../EeePDB.c ****       EeePGetFirstDB,
 1585              		.loc 1 405 3 is_stmt 1 discriminator 2 view .LVU399
 414:/home/hkh/git/eapidk-code-r76-trunk/apps/EeePProg/linux/../EeePDB.c **** 
 1586              		.loc 1 414 6 discriminator 2 view .LVU400
 420:/home/hkh/git/eapidk-code-r76-trunk/apps/EeePProg/linux/../EeePDB.c ****     return EAPI_STATUS_SUCCESS;
 1587              		.loc 1 420 3 discriminator 2 view .LVU401
 420:/home/hkh/git/eapidk-code-r76-trunk/apps/EeePProg/linux/../EeePDB.c ****     return EAPI_STATUS_SUCCESS;
 1588              		.loc 1 420 28 is_stmt 0 discriminator 2 view .LVU402
 1589 06e0 04C0D3E5 		ldrb	ip, [r3, #4]	@ zero_extendqisi2
 420:/home/hkh/git/eapidk-code-r76-trunk/apps/EeePProg/linux/../EeePDB.c ****     return EAPI_STATUS_SUCCESS;
 1590              		.loc 1 420 5 discriminator 2 view .LVU403
 1591 06e4 00005CE1 		cmp	ip, r0
 1592 06e8 0A00000A 		beq	.L113
 423:/home/hkh/git/eapidk-code-r76-trunk/apps/EeePProg/linux/../EeePDB.c ****         BHandel         ,
 1593              		.loc 1 423 3 is_stmt 1 view .LVU404
 423:/home/hkh/git/eapidk-code-r76-trunk/apps/EeePProg/linux/../EeePDB.c ****         BHandel         ,
 1594              		.loc 1 423 13 is_stmt 0 view .LVU405
 1595 06ec 8CC083E0 		add	ip, r3, ip, lsl #1
 428:/home/hkh/git/eapidk-code-r76-trunk/apps/EeePProg/linux/../EeePDB.c ****         (size_t)(256<<(((EeePCmn_t*)BHandel)->DeviceDesc&EEEP_DEVICE_SIZE_MASK));
 1596              		.loc 1 428 5 view .LVU406
 1597 06f0 000052E3 		cmp	r2, #0
 423:/home/hkh/git/eapidk-code-r76-trunk/apps/EeePProg/linux/../EeePDB.c ****         BHandel         ,
 1598              		.loc 1 423 12 view .LVU407
 1599 06f4 00C081E5 		str	ip, [r1]
 428:/home/hkh/git/eapidk-code-r76-trunk/apps/EeePProg/linux/../EeePDB.c ****         (size_t)(256<<(((EeePCmn_t*)BHandel)->DeviceDesc&EEEP_DEVICE_SIZE_MASK));
 1600              		.loc 1 428 3 is_stmt 1 view .LVU408
 428:/home/hkh/git/eapidk-code-r76-trunk/apps/EeePProg/linux/../EeePDB.c ****         (size_t)(256<<(((EeePCmn_t*)BHandel)->DeviceDesc&EEEP_DEVICE_SIZE_MASK));
 1601              		.loc 1 428 5 is_stmt 0 view .LVU409
 1602 06f8 0600000A 		beq	.L113
 428:/home/hkh/git/eapidk-code-r76-trunk/apps/EeePProg/linux/../EeePDB.c ****         (size_t)(256<<(((EeePCmn_t*)BHandel)->DeviceDesc&EEEP_DEVICE_SIZE_MASK));
 1603              		.loc 1 428 29 is_stmt 1 discriminator 1 view .LVU410
 429:/home/hkh/git/eapidk-code-r76-trunk/apps/EeePProg/linux/../EeePDB.c **** EAPI_APP_ASSERT_EXIT
 1604              		.loc 1 429 57 is_stmt 0 discriminator 1 view .LVU411
 1605 06fc 0510D3E5 		ldrb	r1, [r3, #5]	@ zero_extendqisi2
 1606              	.LVL134:
 429:/home/hkh/git/eapidk-code-r76-trunk/apps/EeePProg/linux/../EeePDB.c **** EAPI_APP_ASSERT_EXIT
 1607              		.loc 1 429 21 discriminator 1 view .LVU412
 1608 0700 013CA0E3 		mov	r3, #256
 1609              	.LVL135:
 429:/home/hkh/git/eapidk-code-r76-trunk/apps/EeePProg/linux/../EeePDB.c **** EAPI_APP_ASSERT_EXIT
ARM GAS  /tmp/ccTXisr2.s 			page 42


 1610              		.loc 1 429 57 discriminator 1 view .LVU413
 1611 0704 0F1001E2 		and	r1, r1, #15
 429:/home/hkh/git/eapidk-code-r76-trunk/apps/EeePProg/linux/../EeePDB.c **** EAPI_APP_ASSERT_EXIT
 1612              		.loc 1 429 21 discriminator 1 view .LVU414
 1613 0708 1331A0E1 		lsl	r3, r3, r1
 428:/home/hkh/git/eapidk-code-r76-trunk/apps/EeePProg/linux/../EeePDB.c ****         (size_t)(256<<(((EeePCmn_t*)BHandel)->DeviceDesc&EEEP_DEVICE_SIZE_MASK));
 1614              		.loc 1 428 45 discriminator 1 view .LVU415
 1615 070c 003082E5 		str	r3, [r2]
 1616              		.loc 1 432 1 discriminator 1 view .LVU416
 1617 0710 10D08DE2 		add	sp, sp, #16
 1618              		.cfi_remember_state
 1619              		.cfi_def_cfa_offset 8
 1620              		@ sp needed
 1621 0714 1080BDE8 		pop	{r4, pc}
 1622              	.LVL136:
 1623              	.L113:
 1624              		.cfi_restore_state
 421:/home/hkh/git/eapidk-code-r76-trunk/apps/EeePProg/linux/../EeePDB.c **** 
 1625              		.loc 1 421 12 view .LVU417
 1626 0718 0000A0E3 		mov	r0, #0
 1627              		.loc 1 432 1 view .LVU418
 1628 071c 10D08DE2 		add	sp, sp, #16
 1629              		.cfi_remember_state
 1630              		.cfi_def_cfa_offset 8
 1631              		@ sp needed
 1632 0720 1080BDE8 		pop	{r4, pc}
 1633              	.LVL137:
 1634              	.L119:
 1635              		.cfi_restore_state
 392:/home/hkh/git/eapidk-code-r76-trunk/apps/EeePProg/linux/../EeePDB.c ****       EeePGetFirstDB,
 1636              		.loc 1 392 3 is_stmt 1 discriminator 1 view .LVU419
 392:/home/hkh/git/eapidk-code-r76-trunk/apps/EeePProg/linux/../EeePDB.c ****       EeePGetFirstDB,
 1637              		.loc 1 392 3 discriminator 1 view .LVU420
 1638 0724 60C09FE5 		ldr	ip, .L122+16
 1639 0728 014CE0E3 		mvn	r4, #256
 1640 072c 5C009FE5 		ldr	r0, .L122+20
 1641              	.LVL138:
 392:/home/hkh/git/eapidk-code-r76-trunk/apps/EeePProg/linux/../EeePDB.c ****       EeePGetFirstDB,
 1642              		.loc 1 392 3 is_stmt 0 discriminator 1 view .LVU421
 1643 0730 623FA0E3 		mov	r3, #392
 1644              	.LVL139:
 392:/home/hkh/git/eapidk-code-r76-trunk/apps/EeePProg/linux/../EeePDB.c ****       EeePGetFirstDB,
 1645              		.loc 1 392 3 discriminator 1 view .LVU422
 1646 0734 58209FE5 		ldr	r2, .L122+24
 1647              	.LVL140:
 392:/home/hkh/git/eapidk-code-r76-trunk/apps/EeePProg/linux/../EeePDB.c ****       EeePGetFirstDB,
 1648              		.loc 1 392 3 discriminator 1 view .LVU423
 1649 0738 58109FE5 		ldr	r1, .L122+28
 1650              	.LVL141:
 392:/home/hkh/git/eapidk-code-r76-trunk/apps/EeePProg/linux/../EeePDB.c ****       EeePGetFirstDB,
 1651              		.loc 1 392 3 discriminator 1 view .LVU424
 1652              	.LPIC56:
 1653 073c 0CC08FE0 		add	ip, pc, ip
 1654              	.LPIC57:
 1655 0740 00008FE0 		add	r0, pc, r0
 1656              	.LPIC54:
 1657 0744 02208FE0 		add	r2, pc, r2
ARM GAS  /tmp/ccTXisr2.s 			page 43


 1658              	.LPIC55:
 1659 0748 01108FE0 		add	r1, pc, r1
 1660 074c D9FFFFEA 		b	.L118
 1661              	.LVL142:
 1662              	.L120:
 397:/home/hkh/git/eapidk-code-r76-trunk/apps/EeePProg/linux/../EeePDB.c ****       EeePGetFirstDB,
 1663              		.loc 1 397 3 is_stmt 1 discriminator 1 view .LVU425
 397:/home/hkh/git/eapidk-code-r76-trunk/apps/EeePProg/linux/../EeePDB.c ****       EeePGetFirstDB,
 1664              		.loc 1 397 3 discriminator 1 view .LVU426
 1665 0750 44C09FE5 		ldr	ip, .L122+32
 1666 0754 014CE0E3 		mvn	r4, #256
 1667 0758 40009FE5 		ldr	r0, .L122+36
 1668              	.LVL143:
 397:/home/hkh/git/eapidk-code-r76-trunk/apps/EeePProg/linux/../EeePDB.c ****       EeePGetFirstDB,
 1669              		.loc 1 397 3 is_stmt 0 discriminator 1 view .LVU427
 1670 075c 8D3100E3 		movw	r3, #397
 1671              	.LVL144:
 397:/home/hkh/git/eapidk-code-r76-trunk/apps/EeePProg/linux/../EeePDB.c ****       EeePGetFirstDB,
 1672              		.loc 1 397 3 discriminator 1 view .LVU428
 1673 0760 3C209FE5 		ldr	r2, .L122+40
 1674              	.LVL145:
 397:/home/hkh/git/eapidk-code-r76-trunk/apps/EeePProg/linux/../EeePDB.c ****       EeePGetFirstDB,
 1675              		.loc 1 397 3 discriminator 1 view .LVU429
 1676 0764 3C109FE5 		ldr	r1, .L122+44
 1677              	.LVL146:
 397:/home/hkh/git/eapidk-code-r76-trunk/apps/EeePProg/linux/../EeePDB.c ****       EeePGetFirstDB,
 1678              		.loc 1 397 3 discriminator 1 view .LVU430
 1679              	.LPIC60:
 1680 0768 0CC08FE0 		add	ip, pc, ip
 1681              	.LPIC61:
 1682 076c 00008FE0 		add	r0, pc, r0
 1683              	.LPIC58:
 1684 0770 02208FE0 		add	r2, pc, r2
 1685              	.LPIC59:
 1686 0774 01108FE0 		add	r1, pc, r1
 1687 0778 CEFFFFEA 		b	.L118
 1688              	.L123:
 1689              		.align	2
 1690              	.L122:
 1691 077c CC000000 		.word	.LC20-(.LPIC65+8)
 1692 0780 CC000000 		.word	.LC5-(.LPIC66+8)
 1693 0784 CC000000 		.word	.LC17-(.LPIC63+8)
 1694 0788 CC000000 		.word	.LC3-(.LPIC64+8)
 1695 078c 48000000 		.word	.LC4-(.LPIC56+8)
 1696 0790 48000000 		.word	.LC5-(.LPIC57+8)
 1697 0794 48000000 		.word	.LC17-(.LPIC54+8)
 1698 0798 48000000 		.word	.LC3-(.LPIC55+8)
 1699 079c 2C000000 		.word	.LC18-(.LPIC60+8)
 1700 07a0 2C000000 		.word	.LC5-(.LPIC61+8)
 1701 07a4 2C000000 		.word	.LC17-(.LPIC58+8)
 1702 07a8 2C000000 		.word	.LC3-(.LPIC59+8)
 1703              		.cfi_endproc
 1704              	.LFE12:
 1706              		.section	.rodata.str1.4
 1707              		.align	2
 1708              	.LC21:
 1709 01e8 45656550 		.ascii	"EeePCreateNewBuffer\000"
ARM GAS  /tmp/ccTXisr2.s 			page 44


 1709      43726561 
 1709      74654E65 
 1709      77427566 
 1709      66657200 
 1710              		.align	2
 1711              	.LC22:
 1712 01fc 28737442 		.ascii	"(stBufferSize<256)\000"
 1712      75666665 
 1712      7253697A 
 1712      653C3235 
 1712      362900
 1713 020f 00       		.align	2
 1714              	.LC23:
 1715 0210 28737448 		.ascii	"(stHeaderSize<sizeof(*pEeePCmnHdr))\000"
 1715      65616465 
 1715      7253697A 
 1715      653C7369 
 1715      7A656F66 
 1716              		.align	2
 1717              	.LC24:
 1718 0234 282A7042 		.ascii	"(*pBHandel==NULL)\000"
 1718      48616E64 
 1718      656C3D3D 
 1718      4E554C4C 
 1718      2900
 1719 0246 0000     		.align	2
 1720              	.LC25:
 1721 0248 54422000 		.ascii	"TB \000"
 1722              		.align	2
 1723              	.LC26:
 1724 024c 45656550 		.ascii	"EeePGetFirstDB(*pBHandel, &pEeePEmptyBlock, NULL)\000"
 1724      47657446 
 1724      69727374 
 1724      4442282A 
 1724      70424861 
 1725 027e 0000     		.align	2
 1726              	.LC27:
 1727 0280 53657444 		.ascii	"SetDynBlockHeader( pEeePEmptyBlock, EEEP_BLOCK_ID_U"
 1727      796E426C 
 1727      6F636B48 
 1727      65616465 
 1727      72282070 
 1728 02b3 4E555345 		.ascii	"NUSED, stBufferSize - (pEeePCmnHdr->BlkOffset*EEEP_"
 1728      442C2073 
 1728      74427566 
 1728      66657253 
 1728      697A6520 
 1729 02e6 53495A45 		.ascii	"SIZE_UNITS) )\000"
 1729      5F554E49 
 1729      54532920 
 1729      2900
 1730              		.align	2
 1731              	.LC28:
 1732 02f4 52656475 		.ascii	"ReduceBlockLength( &pEeePEmptyBlock , sizeof(*pEeeP"
 1732      6365426C 
 1732      6F636B4C 
 1732      656E6774 
ARM GAS  /tmp/ccTXisr2.s 			page 45


 1732      68282026 
 1733 0327 54426C6F 		.ascii	"TBlock) , &pEeePTBlock , EEEP_RBL_REDUCE_TOP_DOWN )"
 1733      636B2920 
 1733      2C202670 
 1733      45656550 
 1733      54426C6F 
 1734 035a 00       		.ascii	"\000"
 1735 035b 00       		.align	2
 1736              	.LC29:
 1737 035c 53657444 		.ascii	"SetDynBlockHeader( pEeePTBlock, EEEP_BLOCK_ID_UNUSE"
 1737      796E426C 
 1737      6F636B48 
 1737      65616465 
 1737      72282070 
 1738 038f 442C2045 		.ascii	"D, EEEP_OFFSET_VALUE_EOL )\000"
 1738      4545505F 
 1738      4F464653 
 1738      45545F56 
 1738      414C5545 
 1739 03aa 0000     		.align	2
 1740              	.LC30:
 1741 03ac 52656475 		.ascii	"ReduceBlockLength( &pEeePEmptyBlock , sizeof(*pEeeP"
 1741      6365426C 
 1741      6F636B4C 
 1741      656E6774 
 1741      68282026 
 1742 03df 43524342 		.ascii	"CRCBlock), &plclEeePBlock, 0 )\000"
 1742      6C6F636B 
 1742      292C2026 
 1742      706C636C 
 1742      45656550 
 1743 03fe 0000     		.align	2
 1744              	.LC31:
 1745 0400 53657444 		.ascii	"SetDynBlockHeader( pEeePCRCBlock , EEEP_BLOCK_ID_CR"
 1745      796E426C 
 1745      6F636B48 
 1745      65616465 
 1745      72282070 
 1746 0433 435F4348 		.ascii	"C_CHK , sizeof(*pEeePCRCBlock) )\000"
 1746      4B202C20 
 1746      73697A65 
 1746      6F66282A 
 1746      70456565 
 1747              		.text
 1748              		.align	2
 1749              		.global	EeePCreateNewBuffer
 1750              		.syntax unified
 1751              		.arm
 1752              		.fpu vfpv3
 1754              	EeePCreateNewBuffer:
 1755              	.LVL147:
 1756              	.LFB10:
 270:/home/hkh/git/eapidk-code-r76-trunk/apps/EeePProg/linux/../EeePDB.c ****   EeePCmn_t     *pEeePCmnHdr; 
 1757              		.loc 1 270 1 is_stmt 1 view -0
 1758              		.cfi_startproc
 1759              		@ args = 0, pretend = 0, frame = 16
 1760              		@ frame_needed = 0, uses_anonymous_args = 0
ARM GAS  /tmp/ccTXisr2.s 			page 46


 270:/home/hkh/git/eapidk-code-r76-trunk/apps/EeePProg/linux/../EeePDB.c ****   EeePCmn_t     *pEeePCmnHdr; 
 1761              		.loc 1 270 1 is_stmt 0 view .LVU432
 1762 07ac F0432DE9 		push	{r4, r5, r6, r7, r8, r9, lr}
 1763              		.cfi_def_cfa_offset 28
 1764              		.cfi_offset 4, -28
 1765              		.cfi_offset 5, -24
 1766              		.cfi_offset 6, -20
 1767              		.cfi_offset 7, -16
 1768              		.cfi_offset 8, -12
 1769              		.cfi_offset 9, -8
 1770              		.cfi_offset 14, -4
 1771 07b0 0240A0E1 		mov	r4, r2
 1772 07b4 B4239FE5 		ldr	r2, .L157
 1773              	.LVL148:
 270:/home/hkh/git/eapidk-code-r76-trunk/apps/EeePProg/linux/../EeePDB.c ****   EeePCmn_t     *pEeePCmnHdr; 
 1774              		.loc 1 270 1 view .LVU433
 1775 07b8 0370A0E1 		mov	r7, r3
 276:/home/hkh/git/eapidk-code-r76-trunk/apps/EeePProg/linux/../EeePDB.c ****       EeePCreateNewBuffer, 
 1776              		.loc 1 276 3 view .LVU434
 1777 07bc FF0051E3 		cmp	r1, #255
 270:/home/hkh/git/eapidk-code-r76-trunk/apps/EeePProg/linux/../EeePDB.c ****   EeePCmn_t     *pEeePCmnHdr; 
 1778              		.loc 1 270 1 view .LVU435
 1779 07c0 24D04DE2 		sub	sp, sp, #36
 1780              		.cfi_def_cfa_offset 64
 270:/home/hkh/git/eapidk-code-r76-trunk/apps/EeePProg/linux/../EeePDB.c ****   EeePCmn_t     *pEeePCmnHdr; 
 1781              		.loc 1 270 1 view .LVU436
 1782 07c4 A8339FE5 		ldr	r3, .L157+4
 1783              	.LVL149:
 270:/home/hkh/git/eapidk-code-r76-trunk/apps/EeePProg/linux/../EeePDB.c ****   EeePCmn_t     *pEeePCmnHdr; 
 1784              		.loc 1 270 1 view .LVU437
 1785              	.LPIC117:
 1786 07c8 02208FE0 		add	r2, pc, r2
 1787 07cc 033092E7 		ldr	r3, [r2, r3]
 1788 07d0 003093E5 		ldr	r3, [r3]
 1789 07d4 1C308DE5 		str	r3, [sp, #28]
 1790 07d8 0030A0E3 		mov	r3, #0
 271:/home/hkh/git/eapidk-code-r76-trunk/apps/EeePProg/linux/../EeePDB.c ****   DBlockIdHdr_t *pEeePEmptyBlock; 
 1791              		.loc 1 271 3 is_stmt 1 view .LVU438
 272:/home/hkh/git/eapidk-code-r76-trunk/apps/EeePProg/linux/../EeePDB.c ****   EApiStatus_t StatusCode=EAPI_STATUS_SUCCESS;
 1792              		.loc 1 272 3 view .LVU439
 273:/home/hkh/git/eapidk-code-r76-trunk/apps/EeePProg/linux/../EeePDB.c ****   DBlockIdHdr_t *pEeePTBlock; 
 1793              		.loc 1 273 3 view .LVU440
 1794              	.LVL150:
 274:/home/hkh/git/eapidk-code-r76-trunk/apps/EeePProg/linux/../EeePDB.c ****   
 1795              		.loc 1 274 3 view .LVU441
 276:/home/hkh/git/eapidk-code-r76-trunk/apps/EeePProg/linux/../EeePDB.c ****       EeePCreateNewBuffer, 
 1796              		.loc 1 276 3 view .LVU442
 1797 07dc 8800009A 		bls	.L146
 276:/home/hkh/git/eapidk-code-r76-trunk/apps/EeePProg/linux/../EeePDB.c ****       EeePCreateNewBuffer, 
 1798              		.loc 1 276 3 discriminator 2 view .LVU443
 280:/home/hkh/git/eapidk-code-r76-trunk/apps/EeePProg/linux/../EeePDB.c ****   EAPI_APP_ASSERT_PARAMATER_CHECK_S(
 1799              		.loc 1 280 6 discriminator 2 view .LVU444
 281:/home/hkh/git/eapidk-code-r76-trunk/apps/EeePProg/linux/../EeePDB.c ****       EeePCreateNewBuffer, 
 1800              		.loc 1 281 3 discriminator 2 view .LVU445
 1801 07e0 050054E3 		cmp	r4, #5
 1802 07e4 6D00009A 		bls	.L147
 1803 07e8 0160A0E1 		mov	r6, r1
ARM GAS  /tmp/ccTXisr2.s 			page 47


 1804 07ec 0080A0E1 		mov	r8, r0
 281:/home/hkh/git/eapidk-code-r76-trunk/apps/EeePProg/linux/../EeePDB.c ****       EeePCreateNewBuffer, 
 1805              		.loc 1 281 3 discriminator 2 view .LVU446
 285:/home/hkh/git/eapidk-code-r76-trunk/apps/EeePProg/linux/../EeePDB.c **** 
 1806              		.loc 1 285 6 discriminator 2 view .LVU447
 287:/home/hkh/git/eapidk-code-r76-trunk/apps/EeePProg/linux/../EeePDB.c **** 
 1807              		.loc 1 287 3 discriminator 2 view .LVU448
 287:/home/hkh/git/eapidk-code-r76-trunk/apps/EeePProg/linux/../EeePDB.c **** 
 1808              		.loc 1 287 25 is_stmt 0 discriminator 2 view .LVU449
 1809 07f0 0110A0E3 		mov	r1, #1
 1810              	.LVL151:
 287:/home/hkh/git/eapidk-code-r76-trunk/apps/EeePProg/linux/../EeePDB.c **** 
 1811              		.loc 1 287 25 discriminator 2 view .LVU450
 1812 07f4 0600A0E1 		mov	r0, r6
 1813              	.LVL152:
 287:/home/hkh/git/eapidk-code-r76-trunk/apps/EeePProg/linux/../EeePDB.c **** 
 1814              		.loc 1 287 25 discriminator 2 view .LVU451
 1815 07f8 FEFFFFEB 		bl	calloc(PLT)
 1816              	.LVL153:
 289:/home/hkh/git/eapidk-code-r76-trunk/apps/EeePProg/linux/../EeePDB.c ****       EeePCreateNewBuffer,
 1817              		.loc 1 289 3 discriminator 2 view .LVU452
 1818 07fc 000050E3 		cmp	r0, #0
 287:/home/hkh/git/eapidk-code-r76-trunk/apps/EeePProg/linux/../EeePDB.c **** 
 1819              		.loc 1 287 25 discriminator 2 view .LVU453
 1820 0800 0050A0E1 		mov	r5, r0
 287:/home/hkh/git/eapidk-code-r76-trunk/apps/EeePProg/linux/../EeePDB.c **** 
 1821              		.loc 1 287 24 discriminator 2 view .LVU454
 1822 0804 000088E5 		str	r0, [r8]
 1823              	.LVL154:
 289:/home/hkh/git/eapidk-code-r76-trunk/apps/EeePProg/linux/../EeePDB.c ****       EeePCreateNewBuffer,
 1824              		.loc 1 289 3 is_stmt 1 discriminator 2 view .LVU455
 1825 0808 CD00000A 		beq	.L148
 289:/home/hkh/git/eapidk-code-r76-trunk/apps/EeePProg/linux/../EeePDB.c ****       EeePCreateNewBuffer,
 1826              		.loc 1 289 3 discriminator 2 view .LVU456
 293:/home/hkh/git/eapidk-code-r76-trunk/apps/EeePProg/linux/../EeePDB.c ****   memset(pEeePCmnHdr, 0x00, stBufferSize);
 1827              		.loc 1 293 6 discriminator 2 view .LVU457
 294:/home/hkh/git/eapidk-code-r76-trunk/apps/EeePProg/linux/../EeePDB.c ****   /*
 1828              		.loc 1 294 3 discriminator 2 view .LVU458
 298:/home/hkh/git/eapidk-code-r76-trunk/apps/EeePProg/linux/../EeePDB.c ****   memcpy(
 1829              		.loc 1 298 3 discriminator 2 view .LVU459
 299:/home/hkh/git/eapidk-code-r76-trunk/apps/EeePProg/linux/../EeePDB.c ****       pEeePCmnHdr->EepId        ,
 1830              		.loc 1 299 3 is_stmt 0 discriminator 2 view .LVU460
 1831 080c 64339FE5 		ldr	r3, .L157+8
 1832              	.LBB173:
 1833              	.LBB174:
  97:/home/hkh/git/eapidk-code-r76-trunk/apps/EeePProg/linux/../EeePDB.c **** }
 1834              		.loc 1 97 10 discriminator 2 view .LVU461
 1835 0810 014084E2 		add	r4, r4, #1
 1836              	.LVL155:
  97:/home/hkh/git/eapidk-code-r76-trunk/apps/EeePProg/linux/../EeePDB.c **** }
 1837              		.loc 1 97 10 discriminator 2 view .LVU462
 1838 0814 A440A0E1 		lsr	r4, r4, #1
 1839              	.LVL156:
  97:/home/hkh/git/eapidk-code-r76-trunk/apps/EeePProg/linux/../EeePDB.c **** }
 1840              		.loc 1 97 10 discriminator 2 view .LVU463
 1841              	.LBE174:
 1842              	.LBE173:
ARM GAS  /tmp/ccTXisr2.s 			page 48


 298:/home/hkh/git/eapidk-code-r76-trunk/apps/EeePProg/linux/../EeePDB.c ****   memcpy(
 1843              		.loc 1 298 28 discriminator 2 view .LVU464
 1844 0818 0080A0E3 		mov	r8, #0
 1845              	.LVL157:
 310:/home/hkh/git/eapidk-code-r76-trunk/apps/EeePProg/linux/../EeePDB.c **** 
 1846              		.loc 1 310 3 discriminator 2 view .LVU465
 1847 081c 10908DE2 		add	r9, sp, #16
 298:/home/hkh/git/eapidk-code-r76-trunk/apps/EeePProg/linux/../EeePDB.c ****   memcpy(
 1848              		.loc 1 298 28 discriminator 2 view .LVU466
 1849 0820 0080C0E5 		strb	r8, [r0]
 299:/home/hkh/git/eapidk-code-r76-trunk/apps/EeePProg/linux/../EeePDB.c ****       pEeePCmnHdr->EepId        ,
 1850              		.loc 1 299 3 is_stmt 1 discriminator 2 view .LVU467
 304:/home/hkh/git/eapidk-code-r76-trunk/apps/EeePProg/linux/../EeePDB.c ****   pEeePCmnHdr->BlkOffset=(uint8_t)EeePAdjLength(stHeaderSize);
 1851              		.loc 1 304 3 discriminator 2 view .LVU468
 299:/home/hkh/git/eapidk-code-r76-trunk/apps/EeePProg/linux/../EeePDB.c ****       pEeePCmnHdr->EepId        ,
 1852              		.loc 1 299 3 is_stmt 0 discriminator 2 view .LVU469
 1853              	.LPIC79:
 1854 0824 03308FE0 		add	r3, pc, r3
 305:/home/hkh/git/eapidk-code-r76-trunk/apps/EeePProg/linux/../EeePDB.c ****   pEeePCmnHdr->DeviceDesc=0;
 1855              		.loc 1 305 26 discriminator 2 view .LVU470
 1856 0828 0440C0E5 		strb	r4, [r0, #4]
 299:/home/hkh/git/eapidk-code-r76-trunk/apps/EeePProg/linux/../EeePDB.c ****       pEeePCmnHdr->EepId        ,
 1857              		.loc 1 299 3 discriminator 2 view .LVU471
 1858 082c B030D3E1 		ldrh	r3, [r3]	@ unaligned
 310:/home/hkh/git/eapidk-code-r76-trunk/apps/EeePProg/linux/../EeePDB.c **** 
 1859              		.loc 1 310 3 discriminator 2 view .LVU472
 1860 0830 0820A0E1 		mov	r2, r8
 1861 0834 0910A0E1 		mov	r1, r9
 306:/home/hkh/git/eapidk-code-r76-trunk/apps/EeePProg/linux/../EeePDB.c ****   /*
 1862              		.loc 1 306 26 discriminator 2 view .LVU473
 1863 0838 0580C0E5 		strb	r8, [r0, #5]
 299:/home/hkh/git/eapidk-code-r76-trunk/apps/EeePProg/linux/../EeePDB.c ****       pEeePCmnHdr->EepId        ,
 1864              		.loc 1 299 3 discriminator 2 view .LVU474
 1865 083c B130C0E1 		strh	r3, [r0, #1]	@ unaligned
 304:/home/hkh/git/eapidk-code-r76-trunk/apps/EeePProg/linux/../EeePDB.c ****   pEeePCmnHdr->BlkOffset=(uint8_t)EeePAdjLength(stHeaderSize);
 1866              		.loc 1 304 23 discriminator 2 view .LVU475
 1867 0840 0530A0E3 		mov	r3, #5
 1868 0844 0330C0E5 		strb	r3, [r0, #3]
 305:/home/hkh/git/eapidk-code-r76-trunk/apps/EeePProg/linux/../EeePDB.c ****   pEeePCmnHdr->DeviceDesc=0;
 1869              		.loc 1 305 3 is_stmt 1 discriminator 2 view .LVU476
 1870              	.LVL158:
 1871              	.LBB176:
 1872              	.LBI173:
  93:/home/hkh/git/eapidk-code-r76-trunk/apps/EeePProg/linux/../EeePDB.c ****     size_t Length
 1873              		.loc 1 93 1 discriminator 2 view .LVU477
 1874              	.LBB175:
  97:/home/hkh/git/eapidk-code-r76-trunk/apps/EeePProg/linux/../EeePDB.c **** }
 1875              		.loc 1 97 3 discriminator 2 view .LVU478
  97:/home/hkh/git/eapidk-code-r76-trunk/apps/EeePProg/linux/../EeePDB.c **** }
 1876              		.loc 1 97 3 is_stmt 0 discriminator 2 view .LVU479
 1877              	.LBE175:
 1878              	.LBE176:
 306:/home/hkh/git/eapidk-code-r76-trunk/apps/EeePProg/linux/../EeePDB.c ****   /*
 1879              		.loc 1 306 3 is_stmt 1 discriminator 2 view .LVU480
 310:/home/hkh/git/eapidk-code-r76-trunk/apps/EeePProg/linux/../EeePDB.c **** 
 1880              		.loc 1 310 3 discriminator 2 view .LVU481
 310:/home/hkh/git/eapidk-code-r76-trunk/apps/EeePProg/linux/../EeePDB.c **** 
ARM GAS  /tmp/ccTXisr2.s 			page 49


 1881              		.loc 1 310 3 discriminator 2 view .LVU482
 1882 0848 FEFFFFEB 		bl	EeePGetFirstDB(PLT)
 1883              	.LVL159:
 310:/home/hkh/git/eapidk-code-r76-trunk/apps/EeePProg/linux/../EeePDB.c **** 
 1884              		.loc 1 310 3 discriminator 2 view .LVU483
 1885 084c 004050E2 		subs	r4, r0, #0
 1886 0850 6100001A 		bne	.L149
 310:/home/hkh/git/eapidk-code-r76-trunk/apps/EeePProg/linux/../EeePDB.c **** 
 1887              		.loc 1 310 3 discriminator 2 view .LVU484
 312:/home/hkh/git/eapidk-code-r76-trunk/apps/EeePProg/linux/../EeePDB.c ****         pEeePEmptyBlock, 
 1888              		.loc 1 312 3 discriminator 2 view .LVU485
 312:/home/hkh/git/eapidk-code-r76-trunk/apps/EeePProg/linux/../EeePDB.c ****         pEeePEmptyBlock, 
 1889              		.loc 1 312 3 discriminator 2 view .LVU486
 1890 0854 10009DE5 		ldr	r0, [sp, #16]
 1891              	.LVL160:
 312:/home/hkh/git/eapidk-code-r76-trunk/apps/EeePProg/linux/../EeePDB.c ****         pEeePEmptyBlock, 
 1892              		.loc 1 312 3 is_stmt 0 discriminator 2 view .LVU487
 1893 0858 0430D5E5 		ldrb	r3, [r5, #4]	@ zero_extendqisi2
 1894              	.LVL161:
 1895              	.LBB177:
 1896              	.LBI177:
 185:/home/hkh/git/eapidk-code-r76-trunk/apps/EeePProg/linux/../EeePDB.c ****     void          *pCurBlock,
 1897              		.loc 1 185 1 is_stmt 1 discriminator 2 view .LVU488
 1898              	.LBB178:
 191:/home/hkh/git/eapidk-code-r76-trunk/apps/EeePProg/linux/../EeePDB.c ****   EAPI_APP_ASSERT_PARAMATER_NULL(
 1899              		.loc 1 191 3 discriminator 2 view .LVU489
 192:/home/hkh/git/eapidk-code-r76-trunk/apps/EeePProg/linux/../EeePDB.c ****       SetDynBlockInfo,
 1900              		.loc 1 192 3 discriminator 2 view .LVU490
 1901 085c 000050E3 		cmp	r0, #0
 1902              	.LBE178:
 1903              	.LBE177:
 312:/home/hkh/git/eapidk-code-r76-trunk/apps/EeePProg/linux/../EeePDB.c ****         pEeePEmptyBlock, 
 1904              		.loc 1 312 3 is_stmt 0 discriminator 2 view .LVU491
 1905 0860 831046E0 		sub	r1, r6, r3, lsl #1
 1906              	.LVL162:
 1907              	.LBB183:
 1908              	.LBB181:
 192:/home/hkh/git/eapidk-code-r76-trunk/apps/EeePProg/linux/../EeePDB.c ****       SetDynBlockInfo,
 1909              		.loc 1 192 3 discriminator 2 view .LVU492
 1910 0864 3100000A 		beq	.L150
 192:/home/hkh/git/eapidk-code-r76-trunk/apps/EeePProg/linux/../EeePDB.c ****       SetDynBlockInfo,
 1911              		.loc 1 192 3 is_stmt 1 view .LVU493
 196:/home/hkh/git/eapidk-code-r76-trunk/apps/EeePProg/linux/../EeePDB.c ****   ((DBlockIdHdr_t *)pCurBlock)->DBlockId=u8BlockId;
 1912              		.loc 1 196 6 view .LVU494
 197:/home/hkh/git/eapidk-code-r76-trunk/apps/EeePProg/linux/../EeePDB.c ****   StatusCode=SetBlockLength(pCurBlock, stBlockLength);
 1913              		.loc 1 197 3 view .LVU495
 197:/home/hkh/git/eapidk-code-r76-trunk/apps/EeePProg/linux/../EeePDB.c ****   StatusCode=SetBlockLength(pCurBlock, stBlockLength);
 1914              		.loc 1 197 41 is_stmt 0 view .LVU496
 1915 0868 0040C0E5 		strb	r4, [r0]
 198:/home/hkh/git/eapidk-code-r76-trunk/apps/EeePProg/linux/../EeePDB.c **** EAPI_APP_ASSERT_EXIT
 1916              		.loc 1 198 3 is_stmt 1 view .LVU497
 198:/home/hkh/git/eapidk-code-r76-trunk/apps/EeePProg/linux/../EeePDB.c **** EAPI_APP_ASSERT_EXIT
 1917              		.loc 1 198 14 is_stmt 0 view .LVU498
 1918 086c FEFFFFEB 		bl	SetBlockLength(PLT)
 1919              	.LVL163:
 1920              	.LDL5:
 200:/home/hkh/git/eapidk-code-r76-trunk/apps/EeePProg/linux/../EeePDB.c ****   }
ARM GAS  /tmp/ccTXisr2.s 			page 50


 1921              		.loc 1 200 3 is_stmt 1 view .LVU499
 201:/home/hkh/git/eapidk-code-r76-trunk/apps/EeePProg/linux/../EeePDB.c ****   return StatusCode;
 1922              		.loc 1 201 3 view .LVU500
 202:/home/hkh/git/eapidk-code-r76-trunk/apps/EeePProg/linux/../EeePDB.c **** }
 1923              		.loc 1 202 3 view .LVU501
 202:/home/hkh/git/eapidk-code-r76-trunk/apps/EeePProg/linux/../EeePDB.c **** }
 1924              		.loc 1 202 3 is_stmt 0 view .LVU502
 1925              	.LBE181:
 1926              	.LBE183:
 312:/home/hkh/git/eapidk-code-r76-trunk/apps/EeePProg/linux/../EeePDB.c ****         pEeePEmptyBlock, 
 1927              		.loc 1 312 3 is_stmt 1 view .LVU503
 1928 0870 004050E2 		subs	r4, r0, #0
 1929 0874 3B00001A 		bne	.L131
 312:/home/hkh/git/eapidk-code-r76-trunk/apps/EeePProg/linux/../EeePDB.c ****         pEeePEmptyBlock, 
 1930              		.loc 1 312 3 discriminator 2 view .LVU504
 320:/home/hkh/git/eapidk-code-r76-trunk/apps/EeePProg/linux/../EeePDB.c ****         &pEeePEmptyBlock        ,
 1931              		.loc 1 320 3 discriminator 2 view .LVU505
 320:/home/hkh/git/eapidk-code-r76-trunk/apps/EeePProg/linux/../EeePDB.c ****         &pEeePEmptyBlock        ,
 1932              		.loc 1 320 3 discriminator 2 view .LVU506
 1933 0878 0130A0E3 		mov	r3, #1
 1934 087c 14208DE2 		add	r2, sp, #20
 1935 0880 0310A0E3 		mov	r1, #3
 1936 0884 0900A0E1 		mov	r0, r9
 1937 0888 FEFFFFEB 		bl	ReduceBlockLength(PLT)
 1938              	.LVL164:
 320:/home/hkh/git/eapidk-code-r76-trunk/apps/EeePProg/linux/../EeePDB.c ****         &pEeePEmptyBlock        ,
 1939              		.loc 1 320 3 discriminator 2 view .LVU507
 1940 088c 004050E2 		subs	r4, r0, #0
 1941 0890 6600001A 		bne	.L151
 320:/home/hkh/git/eapidk-code-r76-trunk/apps/EeePProg/linux/../EeePDB.c ****         &pEeePEmptyBlock        ,
 1942              		.loc 1 320 3 discriminator 2 view .LVU508
 330:/home/hkh/git/eapidk-code-r76-trunk/apps/EeePProg/linux/../EeePDB.c ****         pEeePTBlock, 
 1943              		.loc 1 330 3 discriminator 2 view .LVU509
 330:/home/hkh/git/eapidk-code-r76-trunk/apps/EeePProg/linux/../EeePDB.c ****         pEeePTBlock, 
 1944              		.loc 1 330 3 discriminator 2 view .LVU510
 1945 0894 14009DE5 		ldr	r0, [sp, #20]
 1946              	.LVL165:
 1947              	.LBB184:
 1948              	.LBI184:
 185:/home/hkh/git/eapidk-code-r76-trunk/apps/EeePProg/linux/../EeePDB.c ****     void          *pCurBlock,
 1949              		.loc 1 185 1 discriminator 2 view .LVU511
 1950              	.LBB185:
 191:/home/hkh/git/eapidk-code-r76-trunk/apps/EeePProg/linux/../EeePDB.c ****   EAPI_APP_ASSERT_PARAMATER_NULL(
 1951              		.loc 1 191 3 discriminator 2 view .LVU512
 192:/home/hkh/git/eapidk-code-r76-trunk/apps/EeePProg/linux/../EeePDB.c ****       SetDynBlockInfo,
 1952              		.loc 1 192 3 discriminator 2 view .LVU513
 1953 0898 000050E3 		cmp	r0, #0
 1954 089c 6D00000A 		beq	.L152
 192:/home/hkh/git/eapidk-code-r76-trunk/apps/EeePProg/linux/../EeePDB.c ****       SetDynBlockInfo,
 1955              		.loc 1 192 3 view .LVU514
 196:/home/hkh/git/eapidk-code-r76-trunk/apps/EeePProg/linux/../EeePDB.c ****   ((DBlockIdHdr_t *)pCurBlock)->DBlockId=u8BlockId;
 1956              		.loc 1 196 6 view .LVU515
 197:/home/hkh/git/eapidk-code-r76-trunk/apps/EeePProg/linux/../EeePDB.c ****   StatusCode=SetBlockLength(pCurBlock, stBlockLength);
 1957              		.loc 1 197 3 view .LVU516
 1958              	.LBB186:
 1959              	.LBB187:
 134:/home/hkh/git/eapidk-code-r76-trunk/apps/EeePProg/linux/../EeePDB.c ****         ((DBlockIdHdr_t*)BHandel)->DBlockLength, 
ARM GAS  /tmp/ccTXisr2.s 			page 51


 1960              		.loc 1 134 3 is_stmt 0 view .LVU517
 1961 08a0 0410A0E1 		mov	r1, r4
 1962              	.LBE187:
 1963              	.LBE186:
 197:/home/hkh/git/eapidk-code-r76-trunk/apps/EeePProg/linux/../EeePDB.c ****   StatusCode=SetBlockLength(pCurBlock, stBlockLength);
 1964              		.loc 1 197 41 view .LVU518
 1965 08a4 0140C0E4 		strb	r4, [r0], #1
 1966              	.LVL166:
 198:/home/hkh/git/eapidk-code-r76-trunk/apps/EeePProg/linux/../EeePDB.c **** EAPI_APP_ASSERT_EXIT
 1967              		.loc 1 198 3 is_stmt 1 view .LVU519
 1968              	.LBB189:
 1969              	.LBI186:
 112:/home/hkh/git/eapidk-code-r76-trunk/apps/EeePProg/linux/../EeePDB.c ****     EeePHandel_t BHandel,
 1970              		.loc 1 112 1 view .LVU520
 1971              	.LBB188:
 117:/home/hkh/git/eapidk-code-r76-trunk/apps/EeePProg/linux/../EeePDB.c ****   EAPI_APP_ASSERT_PARAMATER_NULL(
 1972              		.loc 1 117 3 view .LVU521
 118:/home/hkh/git/eapidk-code-r76-trunk/apps/EeePProg/linux/../EeePDB.c ****       SetBlockLength,
 1973              		.loc 1 118 3 view .LVU522
 118:/home/hkh/git/eapidk-code-r76-trunk/apps/EeePProg/linux/../EeePDB.c ****       SetBlockLength,
 1974              		.loc 1 118 3 view .LVU523
 122:/home/hkh/git/eapidk-code-r76-trunk/apps/EeePProg/linux/../EeePDB.c ****   EAPI_APP_ASSERT_PARAMATER_CHECK_S(
 1975              		.loc 1 122 6 view .LVU524
 123:/home/hkh/git/eapidk-code-r76-trunk/apps/EeePProg/linux/../EeePDB.c ****       SetBlockLength,
 1976              		.loc 1 123 3 view .LVU525
 123:/home/hkh/git/eapidk-code-r76-trunk/apps/EeePProg/linux/../EeePDB.c ****       SetBlockLength,
 1977              		.loc 1 123 3 view .LVU526
 127:/home/hkh/git/eapidk-code-r76-trunk/apps/EeePProg/linux/../EeePDB.c ****   EAPI_APP_ASSERT_PARAMATER_CHECK_S(
 1978              		.loc 1 127 6 view .LVU527
 128:/home/hkh/git/eapidk-code-r76-trunk/apps/EeePProg/linux/../EeePDB.c ****       SetBlockLength, 
 1979              		.loc 1 128 3 view .LVU528
 128:/home/hkh/git/eapidk-code-r76-trunk/apps/EeePProg/linux/../EeePDB.c ****       SetBlockLength, 
 1980              		.loc 1 128 3 view .LVU529
 132:/home/hkh/git/eapidk-code-r76-trunk/apps/EeePProg/linux/../EeePDB.c **** 
 1981              		.loc 1 132 6 view .LVU530
 134:/home/hkh/git/eapidk-code-r76-trunk/apps/EeePProg/linux/../EeePDB.c ****         ((DBlockIdHdr_t*)BHandel)->DBlockLength, 
 1982              		.loc 1 134 3 view .LVU531
 1983 08a8 FEFFFFEB 		bl	EeeP_Set16BitValue_BE(PLT)
 1984              	.LVL167:
 1985              	.LDL6:
 139:/home/hkh/git/eapidk-code-r76-trunk/apps/EeePProg/linux/../EeePDB.c ****   }
 1986              		.loc 1 139 3 view .LVU532
 140:/home/hkh/git/eapidk-code-r76-trunk/apps/EeePProg/linux/../EeePDB.c ****   return StatusCode;
 1987              		.loc 1 140 3 view .LVU533
 141:/home/hkh/git/eapidk-code-r76-trunk/apps/EeePProg/linux/../EeePDB.c **** }
 1988              		.loc 1 141 3 view .LVU534
 141:/home/hkh/git/eapidk-code-r76-trunk/apps/EeePProg/linux/../EeePDB.c **** }
 1989              		.loc 1 141 3 is_stmt 0 view .LVU535
 1990              	.LBE188:
 1991              	.LBE189:
 200:/home/hkh/git/eapidk-code-r76-trunk/apps/EeePProg/linux/../EeePDB.c ****   }
 1992              		.loc 1 200 3 is_stmt 1 view .LVU536
 201:/home/hkh/git/eapidk-code-r76-trunk/apps/EeePProg/linux/../EeePDB.c ****   return StatusCode;
 1993              		.loc 1 201 3 view .LVU537
 202:/home/hkh/git/eapidk-code-r76-trunk/apps/EeePProg/linux/../EeePDB.c **** }
 1994              		.loc 1 202 3 view .LVU538
 202:/home/hkh/git/eapidk-code-r76-trunk/apps/EeePProg/linux/../EeePDB.c **** }
ARM GAS  /tmp/ccTXisr2.s 			page 52


 1995              		.loc 1 202 3 is_stmt 0 view .LVU539
 1996              	.LBE185:
 1997              	.LBE184:
 330:/home/hkh/git/eapidk-code-r76-trunk/apps/EeePProg/linux/../EeePDB.c ****         pEeePTBlock, 
 1998              		.loc 1 330 3 is_stmt 1 view .LVU540
 330:/home/hkh/git/eapidk-code-r76-trunk/apps/EeePProg/linux/../EeePDB.c ****         pEeePTBlock, 
 1999              		.loc 1 330 3 view .LVU541
 338:/home/hkh/git/eapidk-code-r76-trunk/apps/EeePProg/linux/../EeePDB.c ****     DBlockIdHdr_t   *plclEeePBlock; 
 2000              		.loc 1 338 3 view .LVU542
 338:/home/hkh/git/eapidk-code-r76-trunk/apps/EeePProg/linux/../EeePDB.c ****     DBlockIdHdr_t   *plclEeePBlock; 
 2001              		.loc 1 338 5 is_stmt 0 view .LVU543
 2002 08ac 014017E2 		ands	r4, r7, #1
 2003 08b0 0B00001A 		bne	.L153
 2004              	.L126:
 2005              	.LVL168:
 2006              	.L124:
 270:/home/hkh/git/eapidk-code-r76-trunk/apps/EeePProg/linux/../EeePDB.c ****   EeePCmn_t     *pEeePCmnHdr; 
 2007              		.loc 1 270 1 view .LVU544
 2008 08b4 C0229FE5 		ldr	r2, .L157+12
 364:/home/hkh/git/eapidk-code-r76-trunk/apps/EeePProg/linux/../EeePDB.c **** EApiStatus_t
 2009              		.loc 1 364 1 view .LVU545
 2010 08b8 B4329FE5 		ldr	r3, .L157+4
 270:/home/hkh/git/eapidk-code-r76-trunk/apps/EeePProg/linux/../EeePDB.c ****   EeePCmn_t     *pEeePCmnHdr; 
 2011              		.loc 1 270 1 view .LVU546
 2012              	.LPIC116:
 2013 08bc 02208FE0 		add	r2, pc, r2
 364:/home/hkh/git/eapidk-code-r76-trunk/apps/EeePProg/linux/../EeePDB.c **** EApiStatus_t
 2014              		.loc 1 364 1 view .LVU547
 2015 08c0 033092E7 		ldr	r3, [r2, r3]
 2016 08c4 002093E5 		ldr	r2, [r3]
 2017 08c8 1C309DE5 		ldr	r3, [sp, #28]
 2018 08cc 022033E0 		eors	r2, r3, r2
 2019 08d0 0030A0E3 		mov	r3, #0
 2020 08d4 9900001A 		bne	.L154
 2021 08d8 0400A0E1 		mov	r0, r4
 2022 08dc 24D08DE2 		add	sp, sp, #36
 2023              		.cfi_remember_state
 2024              		.cfi_def_cfa_offset 28
 2025              		@ sp needed
 2026 08e0 F083BDE8 		pop	{r4, r5, r6, r7, r8, r9, pc}
 2027              	.LVL169:
 2028              	.L153:
 2029              		.cfi_restore_state
 2030              	.LBB193:
 339:/home/hkh/git/eapidk-code-r76-trunk/apps/EeePProg/linux/../EeePDB.c ****     EeePCRC16ChkBlock_t *pEeePCRCBlock;
 2031              		.loc 1 339 5 is_stmt 1 view .LVU548
 340:/home/hkh/git/eapidk-code-r76-trunk/apps/EeePProg/linux/../EeePDB.c ****     /*
 2032              		.loc 1 340 5 view .LVU549
 344:/home/hkh/git/eapidk-code-r76-trunk/apps/EeePProg/linux/../EeePDB.c ****           &pEeePEmptyBlock      ,
 2033              		.loc 1 344 5 view .LVU550
 344:/home/hkh/git/eapidk-code-r76-trunk/apps/EeePProg/linux/../EeePDB.c ****           &pEeePEmptyBlock      ,
 2034              		.loc 1 344 5 view .LVU551
 2035 08e4 0830A0E1 		mov	r3, r8
 2036 08e8 18208DE2 		add	r2, sp, #24
 2037 08ec 0610A0E3 		mov	r1, #6
 2038 08f0 0900A0E1 		mov	r0, r9
 2039 08f4 FEFFFFEB 		bl	ReduceBlockLength(PLT)
ARM GAS  /tmp/ccTXisr2.s 			page 53


 2040              	.LVL170:
 344:/home/hkh/git/eapidk-code-r76-trunk/apps/EeePProg/linux/../EeePDB.c ****           &pEeePEmptyBlock      ,
 2041              		.loc 1 344 5 view .LVU552
 2042 08f8 004050E2 		subs	r4, r0, #0
 2043 08fc 8500001A 		bne	.L155
 344:/home/hkh/git/eapidk-code-r76-trunk/apps/EeePProg/linux/../EeePDB.c ****           &pEeePEmptyBlock      ,
 2044              		.loc 1 344 5 discriminator 2 view .LVU553
 350:/home/hkh/git/eapidk-code-r76-trunk/apps/EeePProg/linux/../EeePDB.c **** 
 2045              		.loc 1 350 4 discriminator 2 view .LVU554
 350:/home/hkh/git/eapidk-code-r76-trunk/apps/EeePProg/linux/../EeePDB.c **** 
 2046              		.loc 1 350 17 is_stmt 0 discriminator 2 view .LVU555
 2047 0900 18509DE5 		ldr	r5, [sp, #24]
 2048              	.LVL171:
 355:/home/hkh/git/eapidk-code-r76-trunk/apps/EeePProg/linux/../EeePDB.c ****           pEeePCRCBlock         ,
 2049              		.loc 1 355 5 is_stmt 1 discriminator 2 view .LVU556
 355:/home/hkh/git/eapidk-code-r76-trunk/apps/EeePProg/linux/../EeePDB.c ****           pEeePCRCBlock         ,
 2050              		.loc 1 355 5 discriminator 2 view .LVU557
 2051              	.LBB194:
 2052              	.LBI194:
 185:/home/hkh/git/eapidk-code-r76-trunk/apps/EeePProg/linux/../EeePDB.c ****     void          *pCurBlock,
 2053              		.loc 1 185 1 discriminator 2 view .LVU558
 2054              	.LBB195:
 191:/home/hkh/git/eapidk-code-r76-trunk/apps/EeePProg/linux/../EeePDB.c ****   EAPI_APP_ASSERT_PARAMATER_NULL(
 2055              		.loc 1 191 3 discriminator 2 view .LVU559
 192:/home/hkh/git/eapidk-code-r76-trunk/apps/EeePProg/linux/../EeePDB.c ****       SetDynBlockInfo,
 2056              		.loc 1 192 3 discriminator 2 view .LVU560
 2057 0904 000055E3 		cmp	r5, #0
 2058 0908 6D00000A 		beq	.L156
 192:/home/hkh/git/eapidk-code-r76-trunk/apps/EeePProg/linux/../EeePDB.c ****       SetDynBlockInfo,
 2059              		.loc 1 192 3 view .LVU561
 196:/home/hkh/git/eapidk-code-r76-trunk/apps/EeePProg/linux/../EeePDB.c ****   ((DBlockIdHdr_t *)pCurBlock)->DBlockId=u8BlockId;
 2060              		.loc 1 196 6 view .LVU562
 197:/home/hkh/git/eapidk-code-r76-trunk/apps/EeePProg/linux/../EeePDB.c ****   StatusCode=SetBlockLength(pCurBlock, stBlockLength);
 2061              		.loc 1 197 3 view .LVU563
 197:/home/hkh/git/eapidk-code-r76-trunk/apps/EeePProg/linux/../EeePDB.c ****   StatusCode=SetBlockLength(pCurBlock, stBlockLength);
 2062              		.loc 1 197 41 is_stmt 0 view .LVU564
 2063 090c 0500A0E1 		mov	r0, r5
 2064              	.LVL172:
 197:/home/hkh/git/eapidk-code-r76-trunk/apps/EeePProg/linux/../EeePDB.c ****   StatusCode=SetBlockLength(pCurBlock, stBlockLength);
 2065              		.loc 1 197 41 view .LVU565
 2066 0910 0D30E0E3 		mvn	r3, #13
 2067 0914 0130C0E4 		strb	r3, [r0], #1
 198:/home/hkh/git/eapidk-code-r76-trunk/apps/EeePProg/linux/../EeePDB.c **** EAPI_APP_ASSERT_EXIT
 2068              		.loc 1 198 3 is_stmt 1 view .LVU566
 2069              	.LVL173:
 2070              	.LBB196:
 2071              	.LBI196:
 112:/home/hkh/git/eapidk-code-r76-trunk/apps/EeePProg/linux/../EeePDB.c ****     EeePHandel_t BHandel,
 2072              		.loc 1 112 1 view .LVU567
 2073              	.LBB197:
 117:/home/hkh/git/eapidk-code-r76-trunk/apps/EeePProg/linux/../EeePDB.c ****   EAPI_APP_ASSERT_PARAMATER_NULL(
 2074              		.loc 1 117 3 view .LVU568
 118:/home/hkh/git/eapidk-code-r76-trunk/apps/EeePProg/linux/../EeePDB.c ****       SetBlockLength,
 2075              		.loc 1 118 3 view .LVU569
 118:/home/hkh/git/eapidk-code-r76-trunk/apps/EeePProg/linux/../EeePDB.c ****       SetBlockLength,
 2076              		.loc 1 118 3 view .LVU570
 122:/home/hkh/git/eapidk-code-r76-trunk/apps/EeePProg/linux/../EeePDB.c ****   EAPI_APP_ASSERT_PARAMATER_CHECK_S(
ARM GAS  /tmp/ccTXisr2.s 			page 54


 2077              		.loc 1 122 6 view .LVU571
 123:/home/hkh/git/eapidk-code-r76-trunk/apps/EeePProg/linux/../EeePDB.c ****       SetBlockLength,
 2078              		.loc 1 123 3 view .LVU572
 123:/home/hkh/git/eapidk-code-r76-trunk/apps/EeePProg/linux/../EeePDB.c ****       SetBlockLength,
 2079              		.loc 1 123 3 view .LVU573
 127:/home/hkh/git/eapidk-code-r76-trunk/apps/EeePProg/linux/../EeePDB.c ****   EAPI_APP_ASSERT_PARAMATER_CHECK_S(
 2080              		.loc 1 127 6 view .LVU574
 128:/home/hkh/git/eapidk-code-r76-trunk/apps/EeePProg/linux/../EeePDB.c ****       SetBlockLength, 
 2081              		.loc 1 128 3 view .LVU575
 128:/home/hkh/git/eapidk-code-r76-trunk/apps/EeePProg/linux/../EeePDB.c ****       SetBlockLength, 
 2082              		.loc 1 128 3 view .LVU576
 132:/home/hkh/git/eapidk-code-r76-trunk/apps/EeePProg/linux/../EeePDB.c **** 
 2083              		.loc 1 132 6 view .LVU577
 134:/home/hkh/git/eapidk-code-r76-trunk/apps/EeePProg/linux/../EeePDB.c ****         ((DBlockIdHdr_t*)BHandel)->DBlockLength, 
 2084              		.loc 1 134 3 view .LVU578
 2085 0918 0310A0E3 		mov	r1, #3
 2086 091c FEFFFFEB 		bl	EeeP_Set16BitValue_BE(PLT)
 2087              	.LVL174:
 2088              	.LDL7:
 139:/home/hkh/git/eapidk-code-r76-trunk/apps/EeePProg/linux/../EeePDB.c ****   }
 2089              		.loc 1 139 3 view .LVU579
 140:/home/hkh/git/eapidk-code-r76-trunk/apps/EeePProg/linux/../EeePDB.c ****   return StatusCode;
 2090              		.loc 1 140 3 view .LVU580
 141:/home/hkh/git/eapidk-code-r76-trunk/apps/EeePProg/linux/../EeePDB.c **** }
 2091              		.loc 1 141 3 view .LVU581
 141:/home/hkh/git/eapidk-code-r76-trunk/apps/EeePProg/linux/../EeePDB.c **** }
 2092              		.loc 1 141 3 is_stmt 0 view .LVU582
 2093              	.LBE197:
 2094              	.LBE196:
 200:/home/hkh/git/eapidk-code-r76-trunk/apps/EeePProg/linux/../EeePDB.c ****   }
 2095              		.loc 1 200 3 is_stmt 1 view .LVU583
 201:/home/hkh/git/eapidk-code-r76-trunk/apps/EeePProg/linux/../EeePDB.c ****   return StatusCode;
 2096              		.loc 1 201 3 view .LVU584
 202:/home/hkh/git/eapidk-code-r76-trunk/apps/EeePProg/linux/../EeePDB.c **** }
 2097              		.loc 1 202 3 view .LVU585
 202:/home/hkh/git/eapidk-code-r76-trunk/apps/EeePProg/linux/../EeePDB.c **** }
 2098              		.loc 1 202 3 is_stmt 0 view .LVU586
 2099              	.LBE195:
 2100              	.LBE194:
 355:/home/hkh/git/eapidk-code-r76-trunk/apps/EeePProg/linux/../EeePDB.c ****           pEeePCRCBlock         ,
 2101              		.loc 1 355 5 is_stmt 1 view .LVU587
 355:/home/hkh/git/eapidk-code-r76-trunk/apps/EeePProg/linux/../EeePDB.c ****           pEeePCRCBlock         ,
 2102              		.loc 1 355 5 view .LVU588
 360:/home/hkh/git/eapidk-code-r76-trunk/apps/EeePProg/linux/../EeePDB.c ****   }
 2103              		.loc 1 360 5 view .LVU589
 2104 0920 0010A0E3 		mov	r1, #0
 2105 0924 030085E2 		add	r0, r5, #3
 2106 0928 FEFFFFEB 		bl	EeeP_Set16BitValue_BE(PLT)
 2107              	.LVL175:
 2108 092c E0FFFFEA 		b	.L124
 2109              	.LVL176:
 2110              	.L150:
 360:/home/hkh/git/eapidk-code-r76-trunk/apps/EeePProg/linux/../EeePDB.c ****   }
 2111              		.loc 1 360 5 is_stmt 0 view .LVU590
 2112              	.LBE193:
 2113              	.LBB202:
 2114              	.LBB182:
ARM GAS  /tmp/ccTXisr2.s 			page 55


 2115              	.LBB179:
 2116              	.LBI179:
 185:/home/hkh/git/eapidk-code-r76-trunk/apps/EeePProg/linux/../EeePDB.c ****     void          *pCurBlock,
 2117              		.loc 1 185 1 is_stmt 1 view .LVU591
 2118              	.LBB180:
 192:/home/hkh/git/eapidk-code-r76-trunk/apps/EeePProg/linux/../EeePDB.c ****       SetDynBlockInfo,
 2119              		.loc 1 192 3 view .LVU592
 192:/home/hkh/git/eapidk-code-r76-trunk/apps/EeePProg/linux/../EeePDB.c ****       SetDynBlockInfo,
 2120              		.loc 1 192 3 view .LVU593
 2121 0930 48C29FE5 		ldr	ip, .L157+16
 2122 0934 014CE0E3 		mvn	r4, #256
 2123              	.LVL177:
 192:/home/hkh/git/eapidk-code-r76-trunk/apps/EeePProg/linux/../EeePDB.c ****       SetDynBlockInfo,
 2124              		.loc 1 192 3 is_stmt 0 view .LVU594
 2125 0938 44029FE5 		ldr	r0, .L157+20
 2126              	.LVL178:
 192:/home/hkh/git/eapidk-code-r76-trunk/apps/EeePProg/linux/../EeePDB.c ****       SetDynBlockInfo,
 2127              		.loc 1 192 3 view .LVU595
 2128 093c C030A0E3 		mov	r3, #192
 2129 0940 40229FE5 		ldr	r2, .L157+24
 2130 0944 40129FE5 		ldr	r1, .L157+28
 2131              	.LVL179:
 192:/home/hkh/git/eapidk-code-r76-trunk/apps/EeePProg/linux/../EeePDB.c ****       SetDynBlockInfo,
 2132              		.loc 1 192 3 view .LVU596
 2133              	.LPIC86:
 2134 0948 0CC08FE0 		add	ip, pc, ip
 2135              	.LPIC87:
 2136 094c 00008FE0 		add	r0, pc, r0
 2137 0950 00408DE5 		str	r4, [sp]
 2138              	.LVL180:
 192:/home/hkh/git/eapidk-code-r76-trunk/apps/EeePProg/linux/../EeePDB.c ****       SetDynBlockInfo,
 2139              		.loc 1 192 3 view .LVU597
 2140 0954 01108DE9 		stmib	sp, {r0, ip}
 2141              	.LPIC84:
 2142 0958 02208FE0 		add	r2, pc, r2
 2143              	.LPIC85:
 2144 095c 01108FE0 		add	r1, pc, r1
 2145 0960 4500A0E3 		mov	r0, #69
 2146 0964 FEFFFFEB 		bl	siFormattedMessage_SC(PLT)
 2147              	.LVL181:
 192:/home/hkh/git/eapidk-code-r76-trunk/apps/EeePProg/linux/../EeePDB.c ****       SetDynBlockInfo,
 2148              		.loc 1 192 3 is_stmt 1 view .LVU598
 192:/home/hkh/git/eapidk-code-r76-trunk/apps/EeePProg/linux/../EeePDB.c ****       SetDynBlockInfo,
 2149              		.loc 1 192 3 view .LVU599
 192:/home/hkh/git/eapidk-code-r76-trunk/apps/EeePProg/linux/../EeePDB.c ****       SetDynBlockInfo,
 2150              		.loc 1 192 3 view .LVU600
 2151              	.LDL8:
 200:/home/hkh/git/eapidk-code-r76-trunk/apps/EeePProg/linux/../EeePDB.c ****   }
 2152              		.loc 1 200 3 view .LVU601
 201:/home/hkh/git/eapidk-code-r76-trunk/apps/EeePProg/linux/../EeePDB.c ****   return StatusCode;
 2153              		.loc 1 201 3 view .LVU602
 202:/home/hkh/git/eapidk-code-r76-trunk/apps/EeePProg/linux/../EeePDB.c **** }
 2154              		.loc 1 202 3 view .LVU603
 202:/home/hkh/git/eapidk-code-r76-trunk/apps/EeePProg/linux/../EeePDB.c **** }
 2155              		.loc 1 202 3 is_stmt 0 view .LVU604
 2156              	.LBE180:
 2157              	.LBE179:
ARM GAS  /tmp/ccTXisr2.s 			page 56


 200:/home/hkh/git/eapidk-code-r76-trunk/apps/EeePProg/linux/../EeePDB.c ****   }
 2158              		.loc 1 200 3 is_stmt 1 view .LVU605
 201:/home/hkh/git/eapidk-code-r76-trunk/apps/EeePProg/linux/../EeePDB.c ****   return StatusCode;
 2159              		.loc 1 201 3 view .LVU606
 202:/home/hkh/git/eapidk-code-r76-trunk/apps/EeePProg/linux/../EeePDB.c **** }
 2160              		.loc 1 202 3 view .LVU607
 202:/home/hkh/git/eapidk-code-r76-trunk/apps/EeePProg/linux/../EeePDB.c **** }
 2161              		.loc 1 202 3 is_stmt 0 view .LVU608
 2162              	.LBE182:
 2163              	.LBE202:
 312:/home/hkh/git/eapidk-code-r76-trunk/apps/EeePProg/linux/../EeePDB.c ****         pEeePEmptyBlock, 
 2164              		.loc 1 312 3 is_stmt 1 view .LVU609
 2165              	.L131:
 312:/home/hkh/git/eapidk-code-r76-trunk/apps/EeePProg/linux/../EeePDB.c ****         pEeePEmptyBlock, 
 2166              		.loc 1 312 3 discriminator 1 view .LVU610
 2167 0968 20C29FE5 		ldr	ip, .L157+32
 2168 096c 4E3FA0E3 		mov	r3, #312
 2169 0970 1C029FE5 		ldr	r0, .L157+36
 2170 0974 1C229FE5 		ldr	r2, .L157+40
 2171 0978 1C129FE5 		ldr	r1, .L157+44
 2172              	.LPIC90:
 2173 097c 0CC08FE0 		add	ip, pc, ip
 2174              	.LPIC91:
 2175 0980 00008FE0 		add	r0, pc, r0
 2176              	.LPIC88:
 2177 0984 02208FE0 		add	r2, pc, r2
 2178              	.LPIC89:
 2179 0988 01108FE0 		add	r1, pc, r1
 2180              	.L145:
 2181              	.LBB203:
 344:/home/hkh/git/eapidk-code-r76-trunk/apps/EeePProg/linux/../EeePDB.c ****           &pEeePEmptyBlock      ,
 2182              		.loc 1 344 5 is_stmt 0 discriminator 1 view .LVU611
 2183 098c 01108DE9 		stmib	sp, {r0, ip}
 2184 0990 4500A0E3 		mov	r0, #69
 2185 0994 00408DE5 		str	r4, [sp]
 2186 0998 FEFFFFEB 		bl	siFormattedMessage_SC(PLT)
 2187              	.LVL182:
 344:/home/hkh/git/eapidk-code-r76-trunk/apps/EeePProg/linux/../EeePDB.c ****           &pEeePEmptyBlock      ,
 2188              		.loc 1 344 5 is_stmt 1 discriminator 1 view .LVU612
 2189 099c C4FFFFEA 		b	.L124
 2190              	.LVL183:
 2191              	.L147:
 344:/home/hkh/git/eapidk-code-r76-trunk/apps/EeePProg/linux/../EeePDB.c ****           &pEeePEmptyBlock      ,
 2192              		.loc 1 344 5 is_stmt 0 discriminator 1 view .LVU613
 2193              	.LBE203:
 281:/home/hkh/git/eapidk-code-r76-trunk/apps/EeePProg/linux/../EeePDB.c ****       EeePCreateNewBuffer, 
 2194              		.loc 1 281 3 is_stmt 1 discriminator 1 view .LVU614
 281:/home/hkh/git/eapidk-code-r76-trunk/apps/EeePProg/linux/../EeePDB.c ****       EeePCreateNewBuffer, 
 2195              		.loc 1 281 3 discriminator 1 view .LVU615
 2196 09a0 F8C19FE5 		ldr	ip, .L157+48
 2197 09a4 014CE0E3 		mvn	r4, #256
 2198              	.LVL184:
 281:/home/hkh/git/eapidk-code-r76-trunk/apps/EeePProg/linux/../EeePDB.c ****       EeePCreateNewBuffer, 
 2199              		.loc 1 281 3 is_stmt 0 discriminator 1 view .LVU616
 2200 09a8 F4019FE5 		ldr	r0, .L157+52
 2201              	.LVL185:
 281:/home/hkh/git/eapidk-code-r76-trunk/apps/EeePProg/linux/../EeePDB.c ****       EeePCreateNewBuffer, 
ARM GAS  /tmp/ccTXisr2.s 			page 57


 2202              		.loc 1 281 3 discriminator 1 view .LVU617
 2203 09ac 193100E3 		movw	r3, #281
 2204 09b0 F0219FE5 		ldr	r2, .L157+56
 2205 09b4 F0119FE5 		ldr	r1, .L157+60
 2206              	.LVL186:
 281:/home/hkh/git/eapidk-code-r76-trunk/apps/EeePProg/linux/../EeePDB.c ****       EeePCreateNewBuffer, 
 2207              		.loc 1 281 3 discriminator 1 view .LVU618
 2208              	.LPIC73:
 2209 09b8 0CC08FE0 		add	ip, pc, ip
 2210              	.LPIC74:
 2211 09bc 00008FE0 		add	r0, pc, r0
 2212              	.LPIC71:
 2213 09c0 02208FE0 		add	r2, pc, r2
 2214              	.LPIC72:
 2215 09c4 01108FE0 		add	r1, pc, r1
 2216              	.L143:
 2217 09c8 01108DE9 		stmib	sp, {r0, ip}
 2218 09cc 4500A0E3 		mov	r0, #69
 2219 09d0 00408DE5 		str	r4, [sp]
 2220 09d4 FEFFFFEB 		bl	siFormattedMessage_SC(PLT)
 2221              	.LVL187:
 281:/home/hkh/git/eapidk-code-r76-trunk/apps/EeePProg/linux/../EeePDB.c ****       EeePCreateNewBuffer, 
 2222              		.loc 1 281 3 is_stmt 1 discriminator 1 view .LVU619
 281:/home/hkh/git/eapidk-code-r76-trunk/apps/EeePProg/linux/../EeePDB.c ****       EeePCreateNewBuffer, 
 2223              		.loc 1 281 3 discriminator 1 view .LVU620
 281:/home/hkh/git/eapidk-code-r76-trunk/apps/EeePProg/linux/../EeePDB.c ****       EeePCreateNewBuffer, 
 2224              		.loc 1 281 3 discriminator 1 view .LVU621
 2225 09d8 B5FFFFEA 		b	.L124
 2226              	.LVL188:
 2227              	.L149:
 310:/home/hkh/git/eapidk-code-r76-trunk/apps/EeePProg/linux/../EeePDB.c **** 
 2228              		.loc 1 310 3 discriminator 1 view .LVU622
 2229 09dc CCC19FE5 		ldr	ip, .L157+64
 2230 09e0 363100E3 		movw	r3, #310
 2231 09e4 C8019FE5 		ldr	r0, .L157+68
 2232              	.LVL189:
 310:/home/hkh/git/eapidk-code-r76-trunk/apps/EeePProg/linux/../EeePDB.c **** 
 2233              		.loc 1 310 3 is_stmt 0 discriminator 1 view .LVU623
 2234 09e8 C8219FE5 		ldr	r2, .L157+72
 2235 09ec C8119FE5 		ldr	r1, .L157+76
 2236              	.LPIC82:
 2237 09f0 0CC08FE0 		add	ip, pc, ip
 2238              	.LPIC83:
 2239 09f4 00008FE0 		add	r0, pc, r0
 2240              	.LPIC80:
 2241 09f8 02208FE0 		add	r2, pc, r2
 2242              	.LPIC81:
 2243 09fc 01108FE0 		add	r1, pc, r1
 2244 0a00 E1FFFFEA 		b	.L145
 2245              	.LVL190:
 2246              	.L146:
 276:/home/hkh/git/eapidk-code-r76-trunk/apps/EeePProg/linux/../EeePDB.c ****       EeePCreateNewBuffer, 
 2247              		.loc 1 276 3 is_stmt 1 discriminator 1 view .LVU624
 276:/home/hkh/git/eapidk-code-r76-trunk/apps/EeePProg/linux/../EeePDB.c ****       EeePCreateNewBuffer, 
 2248              		.loc 1 276 3 discriminator 1 view .LVU625
 2249 0a04 B4C19FE5 		ldr	ip, .L157+80
 2250 0a08 014CE0E3 		mvn	r4, #256
ARM GAS  /tmp/ccTXisr2.s 			page 58


 2251              	.LVL191:
 276:/home/hkh/git/eapidk-code-r76-trunk/apps/EeePProg/linux/../EeePDB.c ****       EeePCreateNewBuffer, 
 2252              		.loc 1 276 3 is_stmt 0 discriminator 1 view .LVU626
 2253 0a0c B0019FE5 		ldr	r0, .L157+84
 2254              	.LVL192:
 276:/home/hkh/git/eapidk-code-r76-trunk/apps/EeePProg/linux/../EeePDB.c ****       EeePCreateNewBuffer, 
 2255              		.loc 1 276 3 discriminator 1 view .LVU627
 2256 0a10 453FA0E3 		mov	r3, #276
 2257 0a14 AC219FE5 		ldr	r2, .L157+88
 2258 0a18 AC119FE5 		ldr	r1, .L157+92
 2259              	.LVL193:
 276:/home/hkh/git/eapidk-code-r76-trunk/apps/EeePProg/linux/../EeePDB.c ****       EeePCreateNewBuffer, 
 2260              		.loc 1 276 3 discriminator 1 view .LVU628
 2261              	.LPIC69:
 2262 0a1c 0CC08FE0 		add	ip, pc, ip
 2263              	.LPIC70:
 2264 0a20 00008FE0 		add	r0, pc, r0
 2265              	.LPIC67:
 2266 0a24 02208FE0 		add	r2, pc, r2
 2267              	.LPIC68:
 2268 0a28 01108FE0 		add	r1, pc, r1
 2269 0a2c E5FFFFEA 		b	.L143
 2270              	.LVL194:
 2271              	.L151:
 320:/home/hkh/git/eapidk-code-r76-trunk/apps/EeePProg/linux/../EeePDB.c ****         &pEeePEmptyBlock        ,
 2272              		.loc 1 320 3 is_stmt 1 discriminator 1 view .LVU629
 2273 0a30 98C19FE5 		ldr	ip, .L157+96
 2274 0a34 053DA0E3 		mov	r3, #320
 2275 0a38 94019FE5 		ldr	r0, .L157+100
 2276              	.LVL195:
 320:/home/hkh/git/eapidk-code-r76-trunk/apps/EeePProg/linux/../EeePDB.c ****         &pEeePEmptyBlock        ,
 2277              		.loc 1 320 3 is_stmt 0 discriminator 1 view .LVU630
 2278 0a3c 94219FE5 		ldr	r2, .L157+104
 2279 0a40 94119FE5 		ldr	r1, .L157+108
 2280              	.LPIC94:
 2281 0a44 0CC08FE0 		add	ip, pc, ip
 2282              	.LPIC95:
 2283 0a48 00008FE0 		add	r0, pc, r0
 2284              	.LPIC92:
 2285 0a4c 02208FE0 		add	r2, pc, r2
 2286              	.LPIC93:
 2287 0a50 01108FE0 		add	r1, pc, r1
 2288 0a54 CCFFFFEA 		b	.L145
 2289              	.LVL196:
 2290              	.L152:
 2291              	.LBB204:
 2292              	.LBB192:
 2293              	.LBB190:
 2294              	.LBI190:
 185:/home/hkh/git/eapidk-code-r76-trunk/apps/EeePProg/linux/../EeePDB.c ****     void          *pCurBlock,
 2295              		.loc 1 185 1 is_stmt 1 view .LVU631
 2296              	.LBB191:
 192:/home/hkh/git/eapidk-code-r76-trunk/apps/EeePProg/linux/../EeePDB.c ****       SetDynBlockInfo,
 2297              		.loc 1 192 3 view .LVU632
 192:/home/hkh/git/eapidk-code-r76-trunk/apps/EeePProg/linux/../EeePDB.c ****       SetDynBlockInfo,
 2298              		.loc 1 192 3 view .LVU633
 2299 0a58 80219FE5 		ldr	r2, .L157+112
ARM GAS  /tmp/ccTXisr2.s 			page 59


 2300 0a5c 014CE0E3 		mvn	r4, #256
 2301              	.LVL197:
 192:/home/hkh/git/eapidk-code-r76-trunk/apps/EeePProg/linux/../EeePDB.c ****       SetDynBlockInfo,
 2302              		.loc 1 192 3 is_stmt 0 view .LVU634
 2303 0a60 7C619FE5 		ldr	r6, .L157+116
 2304              	.LVL198:
 192:/home/hkh/git/eapidk-code-r76-trunk/apps/EeePProg/linux/../EeePDB.c ****       SetDynBlockInfo,
 2305              		.loc 1 192 3 view .LVU635
 2306 0a64 C030A0E3 		mov	r3, #192
 2307 0a68 78519FE5 		ldr	r5, .L157+120
 2308              	.LVL199:
 192:/home/hkh/git/eapidk-code-r76-trunk/apps/EeePProg/linux/../EeePDB.c ****       SetDynBlockInfo,
 2309              		.loc 1 192 3 view .LVU636
 2310 0a6c 4500A0E3 		mov	r0, #69
 2311              	.LVL200:
 192:/home/hkh/git/eapidk-code-r76-trunk/apps/EeePProg/linux/../EeePDB.c ****       SetDynBlockInfo,
 2312              		.loc 1 192 3 view .LVU637
 2313              	.LPIC98:
 2314 0a70 02208FE0 		add	r2, pc, r2
 2315 0a74 08208DE5 		str	r2, [sp, #8]
 2316              	.LPIC97:
 2317 0a78 06608FE0 		add	r6, pc, r6
 2318 0a7c 68219FE5 		ldr	r2, .L157+124
 2319              	.LPIC99:
 2320 0a80 05508FE0 		add	r5, pc, r5
 2321 0a84 0610A0E1 		mov	r1, r6
 2322 0a88 F040CDE1 		strd	r4, [sp]
 2323              	.LPIC96:
 2324 0a8c 02208FE0 		add	r2, pc, r2
 2325 0a90 FEFFFFEB 		bl	siFormattedMessage_SC(PLT)
 2326              	.LVL201:
 192:/home/hkh/git/eapidk-code-r76-trunk/apps/EeePProg/linux/../EeePDB.c ****       SetDynBlockInfo,
 2327              		.loc 1 192 3 is_stmt 1 view .LVU638
 192:/home/hkh/git/eapidk-code-r76-trunk/apps/EeePProg/linux/../EeePDB.c ****       SetDynBlockInfo,
 2328              		.loc 1 192 3 view .LVU639
 192:/home/hkh/git/eapidk-code-r76-trunk/apps/EeePProg/linux/../EeePDB.c ****       SetDynBlockInfo,
 2329              		.loc 1 192 3 view .LVU640
 2330              	.LDL9:
 200:/home/hkh/git/eapidk-code-r76-trunk/apps/EeePProg/linux/../EeePDB.c ****   }
 2331              		.loc 1 200 3 view .LVU641
 201:/home/hkh/git/eapidk-code-r76-trunk/apps/EeePProg/linux/../EeePDB.c ****   return StatusCode;
 2332              		.loc 1 201 3 view .LVU642
 202:/home/hkh/git/eapidk-code-r76-trunk/apps/EeePProg/linux/../EeePDB.c **** }
 2333              		.loc 1 202 3 view .LVU643
 202:/home/hkh/git/eapidk-code-r76-trunk/apps/EeePProg/linux/../EeePDB.c **** }
 2334              		.loc 1 202 3 is_stmt 0 view .LVU644
 2335              	.LBE191:
 2336              	.LBE190:
 200:/home/hkh/git/eapidk-code-r76-trunk/apps/EeePProg/linux/../EeePDB.c ****   }
 2337              		.loc 1 200 3 is_stmt 1 view .LVU645
 201:/home/hkh/git/eapidk-code-r76-trunk/apps/EeePProg/linux/../EeePDB.c ****   return StatusCode;
 2338              		.loc 1 201 3 view .LVU646
 202:/home/hkh/git/eapidk-code-r76-trunk/apps/EeePProg/linux/../EeePDB.c **** }
 2339              		.loc 1 202 3 view .LVU647
 202:/home/hkh/git/eapidk-code-r76-trunk/apps/EeePProg/linux/../EeePDB.c **** }
 2340              		.loc 1 202 3 is_stmt 0 view .LVU648
 2341              	.LBE192:
ARM GAS  /tmp/ccTXisr2.s 			page 60


 2342              	.LBE204:
 330:/home/hkh/git/eapidk-code-r76-trunk/apps/EeePProg/linux/../EeePDB.c ****         pEeePTBlock, 
 2343              		.loc 1 330 3 is_stmt 1 view .LVU649
 330:/home/hkh/git/eapidk-code-r76-trunk/apps/EeePProg/linux/../EeePDB.c ****         pEeePTBlock, 
 2344              		.loc 1 330 3 view .LVU650
 2345 0a94 54019FE5 		ldr	r0, .L157+128
 2346 0a98 4A3100E3 		movw	r3, #330
 2347 0a9c 50219FE5 		ldr	r2, .L157+132
 2348              	.LPIC102:
 2349 0aa0 00008FE0 		add	r0, pc, r0
 2350              	.LPIC100:
 2351 0aa4 02208FE0 		add	r2, pc, r2
 2352              	.L144:
 2353              	.LBB205:
 355:/home/hkh/git/eapidk-code-r76-trunk/apps/EeePProg/linux/../EeePDB.c ****           pEeePCRCBlock         ,
 2354              		.loc 1 355 5 is_stmt 0 view .LVU651
 2355 0aa8 08008DE5 		str	r0, [sp, #8]
 2356 0aac 0610A0E1 		mov	r1, r6
 2357 0ab0 04508DE5 		str	r5, [sp, #4]
 2358 0ab4 4500A0E3 		mov	r0, #69
 2359 0ab8 00408DE5 		str	r4, [sp]
 2360 0abc FEFFFFEB 		bl	siFormattedMessage_SC(PLT)
 2361              	.LVL202:
 355:/home/hkh/git/eapidk-code-r76-trunk/apps/EeePProg/linux/../EeePDB.c ****           pEeePCRCBlock         ,
 2362              		.loc 1 355 5 is_stmt 1 view .LVU652
 2363 0ac0 7BFFFFEA 		b	.L124
 2364              	.LVL203:
 2365              	.L156:
 2366              	.LBB201:
 2367              	.LBB200:
 2368              	.LBB198:
 2369              	.LBI198:
 185:/home/hkh/git/eapidk-code-r76-trunk/apps/EeePProg/linux/../EeePDB.c ****     void          *pCurBlock,
 2370              		.loc 1 185 1 view .LVU653
 2371              	.LBB199:
 192:/home/hkh/git/eapidk-code-r76-trunk/apps/EeePProg/linux/../EeePDB.c ****       SetDynBlockInfo,
 2372              		.loc 1 192 3 view .LVU654
 192:/home/hkh/git/eapidk-code-r76-trunk/apps/EeePProg/linux/../EeePDB.c ****       SetDynBlockInfo,
 2373              		.loc 1 192 3 view .LVU655
 2374 0ac4 2C219FE5 		ldr	r2, .L157+136
 2375 0ac8 014CE0E3 		mvn	r4, #256
 2376 0acc 28619FE5 		ldr	r6, .L157+140
 2377              	.LVL204:
 192:/home/hkh/git/eapidk-code-r76-trunk/apps/EeePProg/linux/../EeePDB.c ****       SetDynBlockInfo,
 2378              		.loc 1 192 3 is_stmt 0 view .LVU656
 2379 0ad0 C030A0E3 		mov	r3, #192
 2380 0ad4 24519FE5 		ldr	r5, .L157+144
 2381              	.LVL205:
 192:/home/hkh/git/eapidk-code-r76-trunk/apps/EeePProg/linux/../EeePDB.c ****       SetDynBlockInfo,
 2382              		.loc 1 192 3 view .LVU657
 2383 0ad8 4500A0E3 		mov	r0, #69
 2384              	.LVL206:
 192:/home/hkh/git/eapidk-code-r76-trunk/apps/EeePProg/linux/../EeePDB.c ****       SetDynBlockInfo,
 2385              		.loc 1 192 3 view .LVU658
 2386              	.LPIC110:
 2387 0adc 02208FE0 		add	r2, pc, r2
 2388 0ae0 08208DE5 		str	r2, [sp, #8]
ARM GAS  /tmp/ccTXisr2.s 			page 61


 2389              	.LPIC109:
 2390 0ae4 06608FE0 		add	r6, pc, r6
 2391 0ae8 14219FE5 		ldr	r2, .L157+148
 2392              	.LPIC111:
 2393 0aec 05508FE0 		add	r5, pc, r5
 2394 0af0 0610A0E1 		mov	r1, r6
 2395 0af4 F040CDE1 		strd	r4, [sp]
 2396              	.LPIC108:
 2397 0af8 02208FE0 		add	r2, pc, r2
 2398 0afc FEFFFFEB 		bl	siFormattedMessage_SC(PLT)
 2399              	.LVL207:
 192:/home/hkh/git/eapidk-code-r76-trunk/apps/EeePProg/linux/../EeePDB.c ****       SetDynBlockInfo,
 2400              		.loc 1 192 3 is_stmt 1 view .LVU659
 192:/home/hkh/git/eapidk-code-r76-trunk/apps/EeePProg/linux/../EeePDB.c ****       SetDynBlockInfo,
 2401              		.loc 1 192 3 view .LVU660
 192:/home/hkh/git/eapidk-code-r76-trunk/apps/EeePProg/linux/../EeePDB.c ****       SetDynBlockInfo,
 2402              		.loc 1 192 3 view .LVU661
 2403              	.LDL10:
 200:/home/hkh/git/eapidk-code-r76-trunk/apps/EeePProg/linux/../EeePDB.c ****   }
 2404              		.loc 1 200 3 view .LVU662
 201:/home/hkh/git/eapidk-code-r76-trunk/apps/EeePProg/linux/../EeePDB.c ****   return StatusCode;
 2405              		.loc 1 201 3 view .LVU663
 202:/home/hkh/git/eapidk-code-r76-trunk/apps/EeePProg/linux/../EeePDB.c **** }
 2406              		.loc 1 202 3 view .LVU664
 202:/home/hkh/git/eapidk-code-r76-trunk/apps/EeePProg/linux/../EeePDB.c **** }
 2407              		.loc 1 202 3 is_stmt 0 view .LVU665
 2408              	.LBE199:
 2409              	.LBE198:
 200:/home/hkh/git/eapidk-code-r76-trunk/apps/EeePProg/linux/../EeePDB.c ****   }
 2410              		.loc 1 200 3 is_stmt 1 view .LVU666
 201:/home/hkh/git/eapidk-code-r76-trunk/apps/EeePProg/linux/../EeePDB.c ****   return StatusCode;
 2411              		.loc 1 201 3 view .LVU667
 202:/home/hkh/git/eapidk-code-r76-trunk/apps/EeePProg/linux/../EeePDB.c **** }
 2412              		.loc 1 202 3 view .LVU668
 202:/home/hkh/git/eapidk-code-r76-trunk/apps/EeePProg/linux/../EeePDB.c **** }
 2413              		.loc 1 202 3 is_stmt 0 view .LVU669
 2414              	.LBE200:
 2415              	.LBE201:
 355:/home/hkh/git/eapidk-code-r76-trunk/apps/EeePProg/linux/../EeePDB.c ****           pEeePCRCBlock         ,
 2416              		.loc 1 355 5 is_stmt 1 view .LVU670
 355:/home/hkh/git/eapidk-code-r76-trunk/apps/EeePProg/linux/../EeePDB.c ****           pEeePCRCBlock         ,
 2417              		.loc 1 355 5 view .LVU671
 2418 0b00 00019FE5 		ldr	r0, .L157+152
 2419 0b04 633100E3 		movw	r3, #355
 2420 0b08 FC209FE5 		ldr	r2, .L157+156
 2421              	.LPIC114:
 2422 0b0c 00008FE0 		add	r0, pc, r0
 2423              	.LPIC112:
 2424 0b10 02208FE0 		add	r2, pc, r2
 2425 0b14 E3FFFFEA 		b	.L144
 2426              	.LVL208:
 2427              	.L155:
 344:/home/hkh/git/eapidk-code-r76-trunk/apps/EeePProg/linux/../EeePDB.c ****           &pEeePEmptyBlock      ,
 2428              		.loc 1 344 5 discriminator 1 view .LVU672
 2429 0b18 F0C09FE5 		ldr	ip, .L157+160
 2430 0b1c 563FA0E3 		mov	r3, #344
 2431 0b20 EC009FE5 		ldr	r0, .L157+164
ARM GAS  /tmp/ccTXisr2.s 			page 62


 2432              	.LVL209:
 344:/home/hkh/git/eapidk-code-r76-trunk/apps/EeePProg/linux/../EeePDB.c ****           &pEeePEmptyBlock      ,
 2433              		.loc 1 344 5 is_stmt 0 discriminator 1 view .LVU673
 2434 0b24 EC209FE5 		ldr	r2, .L157+168
 2435 0b28 EC109FE5 		ldr	r1, .L157+172
 2436              	.LPIC106:
 2437 0b2c 0CC08FE0 		add	ip, pc, ip
 2438              	.LPIC107:
 2439 0b30 00008FE0 		add	r0, pc, r0
 2440              	.LPIC104:
 2441 0b34 02208FE0 		add	r2, pc, r2
 2442              	.LPIC105:
 2443 0b38 01108FE0 		add	r1, pc, r1
 2444 0b3c 92FFFFEA 		b	.L145
 2445              	.LVL210:
 2446              	.L154:
 344:/home/hkh/git/eapidk-code-r76-trunk/apps/EeePProg/linux/../EeePDB.c ****           &pEeePEmptyBlock      ,
 2447              		.loc 1 344 5 discriminator 1 view .LVU674
 2448              	.LBE205:
 364:/home/hkh/git/eapidk-code-r76-trunk/apps/EeePProg/linux/../EeePDB.c **** EApiStatus_t
 2449              		.loc 1 364 1 view .LVU675
 2450 0b40 FEFFFFEB 		bl	__stack_chk_fail(PLT)
 2451              	.LVL211:
 2452              	.L148:
 289:/home/hkh/git/eapidk-code-r76-trunk/apps/EeePProg/linux/../EeePDB.c ****       EeePCreateNewBuffer,
 2453              		.loc 1 289 3 is_stmt 1 discriminator 1 view .LVU676
 289:/home/hkh/git/eapidk-code-r76-trunk/apps/EeePProg/linux/../EeePDB.c ****       EeePCreateNewBuffer,
 2454              		.loc 1 289 3 discriminator 1 view .LVU677
 2455 0b44 D4C09FE5 		ldr	ip, .L157+176
 2456 0b48 0240E0E3 		mvn	r4, #2
 2457              	.LVL212:
 289:/home/hkh/git/eapidk-code-r76-trunk/apps/EeePProg/linux/../EeePDB.c ****       EeePCreateNewBuffer,
 2458              		.loc 1 289 3 is_stmt 0 discriminator 1 view .LVU678
 2459 0b4c D0009FE5 		ldr	r0, .L157+180
 2460              	.LVL213:
 289:/home/hkh/git/eapidk-code-r76-trunk/apps/EeePProg/linux/../EeePDB.c ****       EeePCreateNewBuffer,
 2461              		.loc 1 289 3 discriminator 1 view .LVU679
 2462 0b50 213100E3 		movw	r3, #289
 2463 0b54 CC209FE5 		ldr	r2, .L157+184
 2464 0b58 CC109FE5 		ldr	r1, .L157+188
 2465              	.LPIC77:
 2466 0b5c 0CC08FE0 		add	ip, pc, ip
 2467              	.LPIC78:
 2468 0b60 00008FE0 		add	r0, pc, r0
 2469              	.LPIC75:
 2470 0b64 02208FE0 		add	r2, pc, r2
 2471              	.LPIC76:
 2472 0b68 01108FE0 		add	r1, pc, r1
 2473 0b6c 95FFFFEA 		b	.L143
 2474              	.L158:
 2475              		.align	2
 2476              	.L157:
 2477 0b70 A0030000 		.word	_GLOBAL_OFFSET_TABLE_-(.LPIC117+8)
 2478 0b74 00000000 		.word	__stack_chk_guard(GOT)
 2479 0b78 4C030000 		.word	.LC19-(.LPIC79+8)
 2480 0b7c B8020000 		.word	_GLOBAL_OFFSET_TABLE_-(.LPIC116+8)
 2481 0b80 30020000 		.word	.LC9-(.LPIC86+8)
ARM GAS  /tmp/ccTXisr2.s 			page 63


 2482 0b84 30020000 		.word	.LC5-(.LPIC87+8)
 2483 0b88 28020000 		.word	.LC10-(.LPIC84+8)
 2484 0b8c 28020000 		.word	.LC3-(.LPIC85+8)
 2485 0b90 0C020000 		.word	.LC27-(.LPIC90+8)
 2486 0b94 0C020000 		.word	.LC5-(.LPIC91+8)
 2487 0b98 0C020000 		.word	.LC25-(.LPIC88+8)
 2488 0b9c 0C020000 		.word	.LC3-(.LPIC89+8)
 2489 0ba0 E0010000 		.word	.LC23-(.LPIC73+8)
 2490 0ba4 E0010000 		.word	.LC5-(.LPIC74+8)
 2491 0ba8 E0010000 		.word	.LC21-(.LPIC71+8)
 2492 0bac E0010000 		.word	.LC3-(.LPIC72+8)
 2493 0bb0 B8010000 		.word	.LC26-(.LPIC82+8)
 2494 0bb4 B8010000 		.word	.LC5-(.LPIC83+8)
 2495 0bb8 B8010000 		.word	.LC25-(.LPIC80+8)
 2496 0bbc B8010000 		.word	.LC3-(.LPIC81+8)
 2497 0bc0 9C010000 		.word	.LC22-(.LPIC69+8)
 2498 0bc4 9C010000 		.word	.LC5-(.LPIC70+8)
 2499 0bc8 9C010000 		.word	.LC21-(.LPIC67+8)
 2500 0bcc 9C010000 		.word	.LC3-(.LPIC68+8)
 2501 0bd0 84010000 		.word	.LC28-(.LPIC94+8)
 2502 0bd4 84010000 		.word	.LC5-(.LPIC95+8)
 2503 0bd8 84010000 		.word	.LC25-(.LPIC92+8)
 2504 0bdc 84010000 		.word	.LC3-(.LPIC93+8)
 2505 0be0 68010000 		.word	.LC9-(.LPIC98+8)
 2506 0be4 64010000 		.word	.LC3-(.LPIC97+8)
 2507 0be8 60010000 		.word	.LC5-(.LPIC99+8)
 2508 0bec 58010000 		.word	.LC10-(.LPIC96+8)
 2509 0bf0 48010000 		.word	.LC29-(.LPIC102+8)
 2510 0bf4 48010000 		.word	.LC25-(.LPIC100+8)
 2511 0bf8 14010000 		.word	.LC9-(.LPIC110+8)
 2512 0bfc 10010000 		.word	.LC3-(.LPIC109+8)
 2513 0c00 0C010000 		.word	.LC5-(.LPIC111+8)
 2514 0c04 04010000 		.word	.LC10-(.LPIC108+8)
 2515 0c08 F4000000 		.word	.LC31-(.LPIC114+8)
 2516 0c0c F4000000 		.word	.LC25-(.LPIC112+8)
 2517 0c10 DC000000 		.word	.LC30-(.LPIC106+8)
 2518 0c14 DC000000 		.word	.LC5-(.LPIC107+8)
 2519 0c18 DC000000 		.word	.LC25-(.LPIC104+8)
 2520 0c1c DC000000 		.word	.LC3-(.LPIC105+8)
 2521 0c20 BC000000 		.word	.LC24-(.LPIC77+8)
 2522 0c24 BC000000 		.word	.LC5-(.LPIC78+8)
 2523 0c28 BC000000 		.word	.LC21-(.LPIC75+8)
 2524 0c2c BC000000 		.word	.LC3-(.LPIC76+8)
 2525              		.cfi_endproc
 2526              	.LFE10:
 2528              		.section	.rodata.str1.4
 2529              		.align	2
 2530              	.LC32:
 2531 0454 45656550 		.ascii	"EeePMapBuffer\000"
 2531      4D617042 
 2531      75666665 
 2531      7200
 2532 0462 0000     		.align	2
 2533              	.LC33:
 2534 0464 45656550 		.ascii	"EeePGetFirstDB(BHandel, &pCurBlock, &MaxDeviceLen)\000"
 2534      47657446 
 2534      69727374 
ARM GAS  /tmp/ccTXisr2.s 			page 64


 2534      44422842 
 2534      48616E64 
 2535 0497 00       		.align	2
 2536              	.LC34:
 2537 0498 28437572 		.ascii	"(CurOffset>MaxDeviceLen)\000"
 2537      4F666673 
 2537      65743E4D 
 2537      61784465 
 2537      76696365 
 2538 04b1 000000   		.align	2
 2539              	.LC35:
 2540 04b4 4D6F7265 		.ascii	"More than 1 Empty Block in CRC Not Supported\000"
 2540      20746861 
 2540      6E203120 
 2540      456D7074 
 2540      7920426C 
 2541 04e1 000000   		.align	2
 2542              	.LC36:
 2543 04e4 4D6F7265 		.ascii	"More than 1 CRC Block Not Supported\000"
 2543      20746861 
 2543      6E203120 
 2543      43524320 
 2543      426C6F63 
 2544              		.text
 2545              		.align	2
 2546              		.global	EeePMapBuffer
 2547              		.syntax unified
 2548              		.arm
 2549              		.fpu vfpv3
 2551              	EeePMapBuffer:
 2552              	.LVL214:
 2553              	.LFB13:
 433:/home/hkh/git/eapidk-code-r76-trunk/apps/EeePProg/linux/../EeePDB.c **** 
 434:/home/hkh/git/eapidk-code-r76-trunk/apps/EeePProg/linux/../EeePDB.c **** EApiStatus_t
 435:/home/hkh/git/eapidk-code-r76-trunk/apps/EeePProg/linux/../EeePDB.c **** EeePMapBuffer(
 436:/home/hkh/git/eapidk-code-r76-trunk/apps/EeePProg/linux/../EeePDB.c ****     EeePHandel_t     BHandel,
 437:/home/hkh/git/eapidk-code-r76-trunk/apps/EeePProg/linux/../EeePDB.c ****     EeePBufferMap_t *pBufMap
 438:/home/hkh/git/eapidk-code-r76-trunk/apps/EeePProg/linux/../EeePDB.c ****     )
 439:/home/hkh/git/eapidk-code-r76-trunk/apps/EeePProg/linux/../EeePDB.c **** {
 2554              		.loc 1 439 1 is_stmt 1 view -0
 2555              		.cfi_startproc
 2556              		@ args = 0, pretend = 0, frame = 16
 2557              		@ frame_needed = 0, uses_anonymous_args = 0
 2558              		.loc 1 439 1 is_stmt 0 view .LVU681
 2559 0c30 C4229FE5 		ldr	r2, .L199
 2560 0c34 C4329FE5 		ldr	r3, .L199+4
 2561 0c38 F0412DE9 		push	{r4, r5, r6, r7, r8, lr}
 2562              		.cfi_def_cfa_offset 24
 2563              		.cfi_offset 4, -24
 2564              		.cfi_offset 5, -20
 2565              		.cfi_offset 6, -16
 2566              		.cfi_offset 7, -12
 2567              		.cfi_offset 8, -8
 2568              		.cfi_offset 14, -4
 440:/home/hkh/git/eapidk-code-r76-trunk/apps/EeePProg/linux/../EeePDB.c ****   DBlockIdHdr_t    *pCurBlock       ;
 441:/home/hkh/git/eapidk-code-r76-trunk/apps/EeePProg/linux/../EeePDB.c ****   size_t         CurOffset, MaxDeviceLen;
 442:/home/hkh/git/eapidk-code-r76-trunk/apps/EeePProg/linux/../EeePDB.c ****   EApiStatus_t StatusCode=EAPI_STATUS_SUCCESS;
ARM GAS  /tmp/ccTXisr2.s 			page 65


 443:/home/hkh/git/eapidk-code-r76-trunk/apps/EeePProg/linux/../EeePDB.c **** 
 444:/home/hkh/git/eapidk-code-r76-trunk/apps/EeePProg/linux/../EeePDB.c **** 
 445:/home/hkh/git/eapidk-code-r76-trunk/apps/EeePProg/linux/../EeePDB.c **** 
 446:/home/hkh/git/eapidk-code-r76-trunk/apps/EeePProg/linux/../EeePDB.c ****   EAPI_APP_ASSERT_PARAMATER_NULL(
 2569              		.loc 1 446 3 view .LVU682
 2570 0c3c 004050E2 		subs	r4, r0, #0
 439:/home/hkh/git/eapidk-code-r76-trunk/apps/EeePProg/linux/../EeePDB.c ****   DBlockIdHdr_t    *pCurBlock       ;
 2571              		.loc 1 439 1 view .LVU683
 2572              	.LPIC148:
 2573 0c40 02208FE0 		add	r2, pc, r2
 2574 0c44 20D04DE2 		sub	sp, sp, #32
 2575              		.cfi_def_cfa_offset 56
 439:/home/hkh/git/eapidk-code-r76-trunk/apps/EeePProg/linux/../EeePDB.c ****   DBlockIdHdr_t    *pCurBlock       ;
 2576              		.loc 1 439 1 view .LVU684
 2577 0c48 033092E7 		ldr	r3, [r2, r3]
 2578 0c4c 003093E5 		ldr	r3, [r3]
 2579 0c50 1C308DE5 		str	r3, [sp, #28]
 2580 0c54 0030A0E3 		mov	r3, #0
 440:/home/hkh/git/eapidk-code-r76-trunk/apps/EeePProg/linux/../EeePDB.c ****   DBlockIdHdr_t    *pCurBlock       ;
 2581              		.loc 1 440 3 is_stmt 1 view .LVU685
 441:/home/hkh/git/eapidk-code-r76-trunk/apps/EeePProg/linux/../EeePDB.c ****   EApiStatus_t StatusCode=EAPI_STATUS_SUCCESS;
 2582              		.loc 1 441 3 view .LVU686
 442:/home/hkh/git/eapidk-code-r76-trunk/apps/EeePProg/linux/../EeePDB.c **** 
 2583              		.loc 1 442 3 view .LVU687
 2584              	.LVL215:
 2585              		.loc 1 446 3 view .LVU688
 2586 0c58 8500000A 		beq	.L191
 2587              		.loc 1 446 3 discriminator 2 view .LVU689
 447:/home/hkh/git/eapidk-code-r76-trunk/apps/EeePProg/linux/../EeePDB.c ****       EeePMapBuffer,
 448:/home/hkh/git/eapidk-code-r76-trunk/apps/EeePProg/linux/../EeePDB.c ****       EAPI_STATUS_INVALID_PARAMETER,
 449:/home/hkh/git/eapidk-code-r76-trunk/apps/EeePProg/linux/../EeePDB.c ****       BHandel
 450:/home/hkh/git/eapidk-code-r76-trunk/apps/EeePProg/linux/../EeePDB.c ****     );
 2588              		.loc 1 450 6 discriminator 2 view .LVU690
 451:/home/hkh/git/eapidk-code-r76-trunk/apps/EeePProg/linux/../EeePDB.c **** 
 452:/home/hkh/git/eapidk-code-r76-trunk/apps/EeePProg/linux/../EeePDB.c ****   memset(pBufMap, 0x00, sizeof(*pBufMap));
 2589              		.loc 1 452 3 discriminator 2 view .LVU691
 2590 0c5c 0030A0E3 		mov	r3, #0
 453:/home/hkh/git/eapidk-code-r76-trunk/apps/EeePProg/linux/../EeePDB.c **** 
 454:/home/hkh/git/eapidk-code-r76-trunk/apps/EeePProg/linux/../EeePDB.c ****   pBufMap->pCmnHdr=BHandel;
 2591              		.loc 1 454 19 is_stmt 0 discriminator 2 view .LVU692
 2592 0c60 004081E5 		str	r4, [r1]
 452:/home/hkh/git/eapidk-code-r76-trunk/apps/EeePProg/linux/../EeePDB.c **** 
 2593              		.loc 1 452 3 discriminator 2 view .LVU693
 2594 0c64 043081E5 		str	r3, [r1, #4]	@ unaligned
 2595 0c68 0150A0E1 		mov	r5, r1
 2596 0c6c 083081E5 		str	r3, [r1, #8]	@ unaligned
 2597              		.loc 1 454 3 is_stmt 1 discriminator 2 view .LVU694
 455:/home/hkh/git/eapidk-code-r76-trunk/apps/EeePProg/linux/../EeePDB.c **** 
 456:/home/hkh/git/eapidk-code-r76-trunk/apps/EeePProg/linux/../EeePDB.c ****   EAPI_APP_RETURN_ERROR_IF(
 2598              		.loc 1 456 3 discriminator 2 view .LVU695
 2599 0c70 0130D4E5 		ldrb	r3, [r4, #1]	@ zero_extendqisi2
 2600 0c74 330053E3 		cmp	r3, #51
 2601 0c78 1900000A 		beq	.L192
 2602              	.L162:
 2603              		.loc 1 456 3 discriminator 2 view .LVU696
 2604              		.loc 1 456 3 discriminator 2 view .LVU697
 2605 0c7c 80C29FE5 		ldr	ip, .L199+8
ARM GAS  /tmp/ccTXisr2.s 			page 66


 2606 0c80 0F7CE0E3 		mvn	r7, #3840
 2607 0c84 7C029FE5 		ldr	r0, .L199+12
 2608              	.LVL216:
 2609              		.loc 1 456 3 is_stmt 0 discriminator 2 view .LVU698
 2610 0c88 723FA0E3 		mov	r3, #456
 2611 0c8c 78229FE5 		ldr	r2, .L199+16
 2612 0c90 78129FE5 		ldr	r1, .L199+20
 2613              	.LVL217:
 2614              		.loc 1 456 3 discriminator 2 view .LVU699
 2615              	.LPIC125:
 2616 0c94 0CC08FE0 		add	ip, pc, ip
 2617              	.LPIC126:
 2618 0c98 00008FE0 		add	r0, pc, r0
 2619              	.LPIC123:
 2620 0c9c 02208FE0 		add	r2, pc, r2
 2621              	.LPIC124:
 2622 0ca0 01108FE0 		add	r1, pc, r1
 2623              	.LVL218:
 2624              	.L190:
 2625              		.loc 1 456 3 discriminator 2 view .LVU700
 2626 0ca4 01108DE9 		stmib	sp, {r0, ip}
 2627 0ca8 4500A0E3 		mov	r0, #69
 2628 0cac 00708DE5 		str	r7, [sp]
 2629 0cb0 FEFFFFEB 		bl	siFormattedMessage_SC(PLT)
 2630              	.LVL219:
 2631              		.loc 1 456 3 is_stmt 1 discriminator 2 view .LVU701
 2632              		.loc 1 456 3 discriminator 2 view .LVU702
 2633              		.loc 1 456 3 discriminator 2 view .LVU703
 2634              	.L167:
 2635              	.L161:
 2636              	.L159:
 439:/home/hkh/git/eapidk-code-r76-trunk/apps/EeePProg/linux/../EeePDB.c ****   DBlockIdHdr_t    *pCurBlock       ;
 2637              		.loc 1 439 1 is_stmt 0 view .LVU704
 2638 0cb4 58229FE5 		ldr	r2, .L199+24
 457:/home/hkh/git/eapidk-code-r76-trunk/apps/EeePProg/linux/../EeePDB.c ****       EeePMapBuffer,
 458:/home/hkh/git/eapidk-code-r76-trunk/apps/EeePProg/linux/../EeePDB.c ****       memcmp(
 459:/home/hkh/git/eapidk-code-r76-trunk/apps/EeePProg/linux/../EeePDB.c ****           pBufMap->pCmnHdr->EepId, 
 460:/home/hkh/git/eapidk-code-r76-trunk/apps/EeePProg/linux/../EeePDB.c ****           EEEP_EEPROM_MARKER, 
 461:/home/hkh/git/eapidk-code-r76-trunk/apps/EeePProg/linux/../EeePDB.c ****           STRLEN(EEEP_EEPROM_MARKER)
 462:/home/hkh/git/eapidk-code-r76-trunk/apps/EeePProg/linux/../EeePDB.c ****         ),
 463:/home/hkh/git/eapidk-code-r76-trunk/apps/EeePProg/linux/../EeePDB.c ****       EAPI_STATUS_ERROR,
 464:/home/hkh/git/eapidk-code-r76-trunk/apps/EeePProg/linux/../EeePDB.c ****       "Invalid EeeP Buffer"
 465:/home/hkh/git/eapidk-code-r76-trunk/apps/EeePProg/linux/../EeePDB.c ****     );
 466:/home/hkh/git/eapidk-code-r76-trunk/apps/EeePProg/linux/../EeePDB.c **** 
 467:/home/hkh/git/eapidk-code-r76-trunk/apps/EeePProg/linux/../EeePDB.c ****   DO(EeePGetFirstDB(BHandel, &pCurBlock, &MaxDeviceLen));
 468:/home/hkh/git/eapidk-code-r76-trunk/apps/EeePProg/linux/../EeePDB.c **** 
 469:/home/hkh/git/eapidk-code-r76-trunk/apps/EeePProg/linux/../EeePDB.c ****   for(;pCurBlock!=NULL;pCurBlock=GetNextBlock(pCurBlock))
 470:/home/hkh/git/eapidk-code-r76-trunk/apps/EeePProg/linux/../EeePDB.c ****   {
 471:/home/hkh/git/eapidk-code-r76-trunk/apps/EeePProg/linux/../EeePDB.c ****     CurOffset=EAPI_GET_PTR_OFFSET(pCurBlock, BHandel);
 472:/home/hkh/git/eapidk-code-r76-trunk/apps/EeePProg/linux/../EeePDB.c **** #if TEST_EEEPDB
 473:/home/hkh/git/eapidk-code-r76-trunk/apps/EeePProg/linux/../EeePDB.c ****     EAPI_MSG_OUT(
 474:/home/hkh/git/eapidk-code-r76-trunk/apps/EeePProg/linux/../EeePDB.c ****         TEXT("LOG: BLOCK ID  : 0x%02")TEXT(PRIX8)TEXT("\n")
 475:/home/hkh/git/eapidk-code-r76-trunk/apps/EeePProg/linux/../EeePDB.c ****         TEXT("LOG:   Length  : 0x%04lX\n")
 476:/home/hkh/git/eapidk-code-r76-trunk/apps/EeePProg/linux/../EeePDB.c ****         TEXT("LOG:   Offset  : 0x%08lX\n"),
 477:/home/hkh/git/eapidk-code-r76-trunk/apps/EeePProg/linux/../EeePDB.c ****         pCurBlock->DBlockId,
 478:/home/hkh/git/eapidk-code-r76-trunk/apps/EeePProg/linux/../EeePDB.c ****         (unsigned long)GetBlockLength(pCurBlock),
 479:/home/hkh/git/eapidk-code-r76-trunk/apps/EeePProg/linux/../EeePDB.c ****         (unsigned long)CurOffset
ARM GAS  /tmp/ccTXisr2.s 			page 67


 480:/home/hkh/git/eapidk-code-r76-trunk/apps/EeePProg/linux/../EeePDB.c ****       );
 481:/home/hkh/git/eapidk-code-r76-trunk/apps/EeePProg/linux/../EeePDB.c ****     PrintHexAsciiTable(pCurBlock, GetBlockLength(pCurBlock), BHandel, NULL);
 482:/home/hkh/git/eapidk-code-r76-trunk/apps/EeePProg/linux/../EeePDB.c **** #endif
 483:/home/hkh/git/eapidk-code-r76-trunk/apps/EeePProg/linux/../EeePDB.c ****     EAPI_APP_RETURN_ERROR_IF_S(
 484:/home/hkh/git/eapidk-code-r76-trunk/apps/EeePProg/linux/../EeePDB.c ****       EeePMapBuffer    ,
 485:/home/hkh/git/eapidk-code-r76-trunk/apps/EeePProg/linux/../EeePDB.c ****       (CurOffset>MaxDeviceLen),
 486:/home/hkh/git/eapidk-code-r76-trunk/apps/EeePProg/linux/../EeePDB.c ****       EAPI_STATUS_ERROR
 487:/home/hkh/git/eapidk-code-r76-trunk/apps/EeePProg/linux/../EeePDB.c ****       );
 488:/home/hkh/git/eapidk-code-r76-trunk/apps/EeePProg/linux/../EeePDB.c ****     switch(pCurBlock->DBlockId){
 489:/home/hkh/git/eapidk-code-r76-trunk/apps/EeePProg/linux/../EeePDB.c ****       case EEEP_BLOCK_ID_UNUSED:
 490:/home/hkh/git/eapidk-code-r76-trunk/apps/EeePProg/linux/../EeePDB.c ****         if(GetNextBlock(pCurBlock)==NULL) break;
 491:/home/hkh/git/eapidk-code-r76-trunk/apps/EeePProg/linux/../EeePDB.c ****         EAPI_APP_RETURN_ERROR_IF(
 492:/home/hkh/git/eapidk-code-r76-trunk/apps/EeePProg/linux/../EeePDB.c ****             EeePMapBuffer,
 493:/home/hkh/git/eapidk-code-r76-trunk/apps/EeePProg/linux/../EeePDB.c ****             pBufMap->pEmptyBlock!=NULL,
 494:/home/hkh/git/eapidk-code-r76-trunk/apps/EeePProg/linux/../EeePDB.c ****             EAPI_STATUS_ERROR,
 495:/home/hkh/git/eapidk-code-r76-trunk/apps/EeePProg/linux/../EeePDB.c ****             "More than 1 Empty Block in CRC Not Supported"
 496:/home/hkh/git/eapidk-code-r76-trunk/apps/EeePProg/linux/../EeePDB.c ****           );
 497:/home/hkh/git/eapidk-code-r76-trunk/apps/EeePProg/linux/../EeePDB.c ****         pBufMap->pEmptyBlock=pCurBlock;
 498:/home/hkh/git/eapidk-code-r76-trunk/apps/EeePProg/linux/../EeePDB.c ****         break;
 499:/home/hkh/git/eapidk-code-r76-trunk/apps/EeePProg/linux/../EeePDB.c ****       case EEEP_BLOCK_ID_CRC_CHK:
 500:/home/hkh/git/eapidk-code-r76-trunk/apps/EeePProg/linux/../EeePDB.c ****         EAPI_APP_RETURN_ERROR_IF(
 501:/home/hkh/git/eapidk-code-r76-trunk/apps/EeePProg/linux/../EeePDB.c ****             EeePMapBuffer,
 502:/home/hkh/git/eapidk-code-r76-trunk/apps/EeePProg/linux/../EeePDB.c ****             pBufMap->pEeePCRCBlock!=NULL,
 503:/home/hkh/git/eapidk-code-r76-trunk/apps/EeePProg/linux/../EeePDB.c ****             EAPI_STATUS_ERROR,
 504:/home/hkh/git/eapidk-code-r76-trunk/apps/EeePProg/linux/../EeePDB.c ****             "More than 1 CRC Block Not Supported"
 505:/home/hkh/git/eapidk-code-r76-trunk/apps/EeePProg/linux/../EeePDB.c ****           );
 506:/home/hkh/git/eapidk-code-r76-trunk/apps/EeePProg/linux/../EeePDB.c ****         pBufMap->pEeePCRCBlock=(EeePCRC16ChkBlock_t *)pCurBlock;
 507:/home/hkh/git/eapidk-code-r76-trunk/apps/EeePProg/linux/../EeePDB.c ****         break;
 508:/home/hkh/git/eapidk-code-r76-trunk/apps/EeePProg/linux/../EeePDB.c ****       case EEEP_BLOCK_ID_IGNORE:
 509:/home/hkh/git/eapidk-code-r76-trunk/apps/EeePProg/linux/../EeePDB.c ****         pCurBlock=NULL;
 510:/home/hkh/git/eapidk-code-r76-trunk/apps/EeePProg/linux/../EeePDB.c ****         break;
 511:/home/hkh/git/eapidk-code-r76-trunk/apps/EeePProg/linux/../EeePDB.c ****       default:
 512:/home/hkh/git/eapidk-code-r76-trunk/apps/EeePProg/linux/../EeePDB.c ****         break;
 513:/home/hkh/git/eapidk-code-r76-trunk/apps/EeePProg/linux/../EeePDB.c ****     }
 514:/home/hkh/git/eapidk-code-r76-trunk/apps/EeePProg/linux/../EeePDB.c ****   }
 515:/home/hkh/git/eapidk-code-r76-trunk/apps/EeePProg/linux/../EeePDB.c **** 
 516:/home/hkh/git/eapidk-code-r76-trunk/apps/EeePProg/linux/../EeePDB.c **** EAPI_APP_ASSERT_EXIT
 517:/home/hkh/git/eapidk-code-r76-trunk/apps/EeePProg/linux/../EeePDB.c ****   return StatusCode;
 518:/home/hkh/git/eapidk-code-r76-trunk/apps/EeePProg/linux/../EeePDB.c **** }
 2639              		.loc 1 518 1 view .LVU705
 2640 0cb8 40329FE5 		ldr	r3, .L199+4
 439:/home/hkh/git/eapidk-code-r76-trunk/apps/EeePProg/linux/../EeePDB.c ****   DBlockIdHdr_t    *pCurBlock       ;
 2641              		.loc 1 439 1 view .LVU706
 2642              	.LPIC147:
 2643 0cbc 02208FE0 		add	r2, pc, r2
 2644              		.loc 1 518 1 view .LVU707
 2645 0cc0 033092E7 		ldr	r3, [r2, r3]
 2646 0cc4 002093E5 		ldr	r2, [r3]
 2647 0cc8 1C309DE5 		ldr	r3, [sp, #28]
 2648 0ccc 022033E0 		eors	r2, r3, r2
 2649 0cd0 0030A0E3 		mov	r3, #0
 2650 0cd4 8700001A 		bne	.L193
 2651 0cd8 0700A0E1 		mov	r0, r7
 2652 0cdc 20D08DE2 		add	sp, sp, #32
 2653              		.cfi_remember_state
 2654              		.cfi_def_cfa_offset 24
 2655              		@ sp needed
ARM GAS  /tmp/ccTXisr2.s 			page 68


 2656 0ce0 F081BDE8 		pop	{r4, r5, r6, r7, r8, pc}
 2657              	.LVL220:
 2658              	.L192:
 2659              		.cfi_restore_state
 456:/home/hkh/git/eapidk-code-r76-trunk/apps/EeePProg/linux/../EeePDB.c ****       EeePMapBuffer,
 2660              		.loc 1 456 3 discriminator 2 view .LVU708
 2661 0ce4 0230D4E5 		ldrb	r3, [r4, #2]	@ zero_extendqisi2
 2662 0ce8 500053E3 		cmp	r3, #80
 2663 0cec E2FFFF1A 		bne	.L162
 2664              	.LVL221:
 2665              	.LBB228:
 2666              	.LBI228:
 435:/home/hkh/git/eapidk-code-r76-trunk/apps/EeePProg/linux/../EeePDB.c ****     EeePHandel_t     BHandel,
 2667              		.loc 1 435 1 is_stmt 1 discriminator 2 view .LVU709
 2668              	.LBB229:
 456:/home/hkh/git/eapidk-code-r76-trunk/apps/EeePProg/linux/../EeePDB.c ****       EeePMapBuffer,
 2669              		.loc 1 456 3 discriminator 2 view .LVU710
 465:/home/hkh/git/eapidk-code-r76-trunk/apps/EeePProg/linux/../EeePDB.c **** 
 2670              		.loc 1 465 6 discriminator 2 view .LVU711
 467:/home/hkh/git/eapidk-code-r76-trunk/apps/EeePProg/linux/../EeePDB.c **** 
 2671              		.loc 1 467 3 discriminator 2 view .LVU712
 467:/home/hkh/git/eapidk-code-r76-trunk/apps/EeePProg/linux/../EeePDB.c **** 
 2672              		.loc 1 467 3 discriminator 2 view .LVU713
 2673 0cf0 18208DE2 		add	r2, sp, #24
 2674 0cf4 14108DE2 		add	r1, sp, #20
 2675 0cf8 FEFFFFEB 		bl	EeePGetFirstDB(PLT)
 2676              	.LVL222:
 467:/home/hkh/git/eapidk-code-r76-trunk/apps/EeePProg/linux/../EeePDB.c **** 
 2677              		.loc 1 467 3 discriminator 2 view .LVU714
 2678 0cfc 007050E2 		subs	r7, r0, #0
 2679 0d00 4D00001A 		bne	.L194
 469:/home/hkh/git/eapidk-code-r76-trunk/apps/EeePProg/linux/../EeePDB.c ****   {
 2680              		.loc 1 469 17 view .LVU715
 2681 0d04 14009DE5 		ldr	r0, [sp, #20]
 2682              	.LVL223:
 469:/home/hkh/git/eapidk-code-r76-trunk/apps/EeePProg/linux/../EeePDB.c ****   {
 2683              		.loc 1 469 17 is_stmt 0 view .LVU716
 2684 0d08 000050E3 		cmp	r0, #0
 2685 0d0c E8FFFF0A 		beq	.L159
 483:/home/hkh/git/eapidk-code-r76-trunk/apps/EeePProg/linux/../EeePDB.c ****       EeePMapBuffer    ,
 2686              		.loc 1 483 5 view .LVU717
 2687 0d10 18309DE5 		ldr	r3, [sp, #24]
 471:/home/hkh/git/eapidk-code-r76-trunk/apps/EeePProg/linux/../EeePDB.c **** #if TEST_EEEPDB
 2688              		.loc 1 471 15 view .LVU718
 2689 0d14 042040E0 		sub	r2, r0, r4
 2690              	.LBB230:
 2691              	.LBB231:
 167:/home/hkh/git/eapidk-code-r76-trunk/apps/EeePProg/linux/../EeePDB.c ****     case EEEP_OFFSET_VALUE_EOL:
 2692              		.loc 1 167 3 view .LVU719
 2693 0d18 FF6F0FE3 		movw	r6, #65535
 2694              	.LBE231:
 2695              	.LBE230:
 471:/home/hkh/git/eapidk-code-r76-trunk/apps/EeePProg/linux/../EeePDB.c **** #if TEST_EEEPDB
 2696              		.loc 1 471 5 is_stmt 1 view .LVU720
 2697              	.LVL224:
 483:/home/hkh/git/eapidk-code-r76-trunk/apps/EeePProg/linux/../EeePDB.c ****       EeePMapBuffer    ,
 2698              		.loc 1 483 5 view .LVU721
ARM GAS  /tmp/ccTXisr2.s 			page 69


 2699 0d1c 030052E1 		cmp	r2, r3
 2700 0d20 1600008A 		bhi	.L195
 2701              	.LVL225:
 2702              	.L168:
 483:/home/hkh/git/eapidk-code-r76-trunk/apps/EeePProg/linux/../EeePDB.c ****       EeePMapBuffer    ,
 2703              		.loc 1 483 5 view .LVU722
 487:/home/hkh/git/eapidk-code-r76-trunk/apps/EeePProg/linux/../EeePDB.c ****     switch(pCurBlock->DBlockId){
 2704              		.loc 1 487 8 view .LVU723
 488:/home/hkh/git/eapidk-code-r76-trunk/apps/EeePProg/linux/../EeePDB.c ****       case EEEP_BLOCK_ID_UNUSED:
 2705              		.loc 1 488 5 view .LVU724
 488:/home/hkh/git/eapidk-code-r76-trunk/apps/EeePProg/linux/../EeePDB.c ****       case EEEP_BLOCK_ID_UNUSED:
 2706              		.loc 1 488 21 is_stmt 0 view .LVU725
 2707 0d24 0030D0E5 		ldrb	r3, [r0]	@ zero_extendqisi2
 488:/home/hkh/git/eapidk-code-r76-trunk/apps/EeePProg/linux/../EeePDB.c ****       case EEEP_BLOCK_ID_UNUSED:
 2708              		.loc 1 488 5 view .LVU726
 2709 0d28 F20053E3 		cmp	r3, #242
 2710 0d2c 3000000A 		beq	.L169
 2711 0d30 FF0053E3 		cmp	r3, #255
 2712 0d34 1C00000A 		beq	.L170
 2713 0d38 000053E3 		cmp	r3, #0
 2714 0d3c 3200000A 		beq	.L196
 2715              	.L171:
 469:/home/hkh/git/eapidk-code-r76-trunk/apps/EeePProg/linux/../EeePDB.c ****   {
 2716              		.loc 1 469 34 view .LVU727
 2717 0d40 14809DE5 		ldr	r8, [sp, #20]
 2718              	.L174:
 469:/home/hkh/git/eapidk-code-r76-trunk/apps/EeePProg/linux/../EeePDB.c ****   {
 2719              		.loc 1 469 33 is_stmt 1 view .LVU728
 2720              	.LVL226:
 2721              	.LBB237:
 2722              	.LBI237:
 155:/home/hkh/git/eapidk-code-r76-trunk/apps/EeePProg/linux/../EeePDB.c ****     DBlockIdHdr_t *pCurBlock
 2723              		.loc 1 155 1 view .LVU729
 2724              	.LBB238:
 159:/home/hkh/git/eapidk-code-r76-trunk/apps/EeePProg/linux/../EeePDB.c ****   size_t stBlockLength;
 2725              		.loc 1 159 3 view .LVU730
 160:/home/hkh/git/eapidk-code-r76-trunk/apps/EeePProg/linux/../EeePDB.c ****   EAPI_APP_ASSERT_PARAMATER_NULL(
 2726              		.loc 1 160 3 view .LVU731
 161:/home/hkh/git/eapidk-code-r76-trunk/apps/EeePProg/linux/../EeePDB.c ****       GetNextBlock,
 2727              		.loc 1 161 3 view .LVU732
 2728 0d44 000058E3 		cmp	r8, #0
 2729 0d48 1900000A 		beq	.L177
 161:/home/hkh/git/eapidk-code-r76-trunk/apps/EeePProg/linux/../EeePDB.c ****       GetNextBlock,
 2730              		.loc 1 161 3 view .LVU733
 165:/home/hkh/git/eapidk-code-r76-trunk/apps/EeePProg/linux/../EeePDB.c ****   stBlockLength=GetBlockLength(pCurBlock);
 2731              		.loc 1 165 6 view .LVU734
 166:/home/hkh/git/eapidk-code-r76-trunk/apps/EeePProg/linux/../EeePDB.c ****   switch(stBlockLength){
 2732              		.loc 1 166 3 view .LVU735
 2733              	.LVL227:
 2734              	.LBB239:
 2735              	.LBI239:
 144:/home/hkh/git/eapidk-code-r76-trunk/apps/EeePProg/linux/../EeePDB.c ****     const void * pcvBHandel
 2736              		.loc 1 144 1 view .LVU736
 2737              	.LBB240:
 148:/home/hkh/git/eapidk-code-r76-trunk/apps/EeePProg/linux/../EeePDB.c ****   if(!pcvBHandel) return stBlockSize;
 2738              		.loc 1 148 3 view .LVU737
 149:/home/hkh/git/eapidk-code-r76-trunk/apps/EeePProg/linux/../EeePDB.c **** 
ARM GAS  /tmp/ccTXisr2.s 			page 70


 2739              		.loc 1 149 3 view .LVU738
 2740              	.LBB241:
 2741              	.LBI241:
 144:/home/hkh/git/eapidk-code-r76-trunk/apps/EeePProg/linux/../EeePDB.c ****     const void * pcvBHandel
 2742              		.loc 1 144 1 view .LVU739
 2743              	.LBB242:
 151:/home/hkh/git/eapidk-code-r76-trunk/apps/EeePProg/linux/../EeePDB.c ****   return stBlockSize;
 2744              		.loc 1 151 3 view .LVU740
 151:/home/hkh/git/eapidk-code-r76-trunk/apps/EeePProg/linux/../EeePDB.c ****   return stBlockSize;
 2745              		.loc 1 151 15 is_stmt 0 view .LVU741
 2746 0d4c 010088E2 		add	r0, r8, #1
 2747 0d50 FEFFFFEB 		bl	EeeP_Get16BitValue_BE(PLT)
 2748              	.LVL228:
 151:/home/hkh/git/eapidk-code-r76-trunk/apps/EeePProg/linux/../EeePDB.c ****   return stBlockSize;
 2749              		.loc 1 151 15 view .LVU742
 2750              	.LBE242:
 2751              	.LBE241:
 2752              	.LBE240:
 2753              	.LBE239:
 167:/home/hkh/git/eapidk-code-r76-trunk/apps/EeePProg/linux/../EeePDB.c ****     case EEEP_OFFSET_VALUE_EOL:
 2754              		.loc 1 167 3 view .LVU743
 2755 0d54 000050E3 		cmp	r0, #0
 2756              	.LBB246:
 2757              	.LBB245:
 2758              	.LBB244:
 2759              	.LBB243:
 151:/home/hkh/git/eapidk-code-r76-trunk/apps/EeePProg/linux/../EeePDB.c ****   return stBlockSize;
 2760              		.loc 1 151 81 view .LVU744
 2761 0d58 8030A0E1 		lsl	r3, r0, #1
 2762              	.LVL229:
 152:/home/hkh/git/eapidk-code-r76-trunk/apps/EeePProg/linux/../EeePDB.c **** }
 2763              		.loc 1 152 3 is_stmt 1 view .LVU745
 152:/home/hkh/git/eapidk-code-r76-trunk/apps/EeePProg/linux/../EeePDB.c **** }
 2764              		.loc 1 152 3 is_stmt 0 view .LVU746
 2765              	.LBE243:
 2766              	.LBE244:
 2767              	.LBE245:
 2768              	.LBE246:
 167:/home/hkh/git/eapidk-code-r76-trunk/apps/EeePProg/linux/../EeePDB.c ****     case EEEP_OFFSET_VALUE_EOL:
 2769              		.loc 1 167 3 is_stmt 1 view .LVU747
 2770 0d5c D4FFFF0A 		beq	.L159
 2771 0d60 060050E1 		cmp	r0, r6
 2772 0d64 D2FFFF0A 		beq	.L159
 171:/home/hkh/git/eapidk-code-r76-trunk/apps/EeePProg/linux/../EeePDB.c ****     default:
 2773              		.loc 1 171 7 view .LVU748
 173:/home/hkh/git/eapidk-code-r76-trunk/apps/EeePProg/linux/../EeePDB.c ****           pCurBlock         ,
 2774              		.loc 1 173 7 view .LVU749
 173:/home/hkh/git/eapidk-code-r76-trunk/apps/EeePProg/linux/../EeePDB.c ****           pCurBlock         ,
 2775              		.loc 1 173 17 is_stmt 0 view .LVU750
 2776 0d68 030088E0 		add	r0, r8, r3
 2777              	.LVL230:
 178:/home/hkh/git/eapidk-code-r76-trunk/apps/EeePProg/linux/../EeePDB.c ****       }
 2778              		.loc 1 178 7 is_stmt 1 view .LVU751
 2779              	.LDL11:
 2780              	.LDL12:
 182:/home/hkh/git/eapidk-code-r76-trunk/apps/EeePProg/linux/../EeePDB.c **** }
 2781              		.loc 1 182 3 view .LVU752
ARM GAS  /tmp/ccTXisr2.s 			page 71


 182:/home/hkh/git/eapidk-code-r76-trunk/apps/EeePProg/linux/../EeePDB.c **** }
 2782              		.loc 1 182 3 is_stmt 0 view .LVU753
 2783              	.LBE238:
 2784              	.LBE237:
 483:/home/hkh/git/eapidk-code-r76-trunk/apps/EeePProg/linux/../EeePDB.c ****       EeePMapBuffer    ,
 2785              		.loc 1 483 5 view .LVU754
 2786 0d6c 18309DE5 		ldr	r3, [sp, #24]
 2787              	.LVL231:
 471:/home/hkh/git/eapidk-code-r76-trunk/apps/EeePProg/linux/../EeePDB.c **** #if TEST_EEEPDB
 2788              		.loc 1 471 15 view .LVU755
 2789 0d70 042040E0 		sub	r2, r0, r4
 469:/home/hkh/git/eapidk-code-r76-trunk/apps/EeePProg/linux/../EeePDB.c ****   {
 2790              		.loc 1 469 33 view .LVU756
 2791 0d74 14008DE5 		str	r0, [sp, #20]
 469:/home/hkh/git/eapidk-code-r76-trunk/apps/EeePProg/linux/../EeePDB.c ****   {
 2792              		.loc 1 469 17 is_stmt 1 view .LVU757
 471:/home/hkh/git/eapidk-code-r76-trunk/apps/EeePProg/linux/../EeePDB.c **** #if TEST_EEEPDB
 2793              		.loc 1 471 5 view .LVU758
 2794              	.LVL232:
 483:/home/hkh/git/eapidk-code-r76-trunk/apps/EeePProg/linux/../EeePDB.c ****       EeePMapBuffer    ,
 2795              		.loc 1 483 5 view .LVU759
 2796 0d78 030052E1 		cmp	r2, r3
 2797 0d7c E8FFFF9A 		bls	.L168
 2798              	.LVL233:
 2799              	.L195:
 483:/home/hkh/git/eapidk-code-r76-trunk/apps/EeePProg/linux/../EeePDB.c ****       EeePMapBuffer    ,
 2800              		.loc 1 483 5 view .LVU760
 483:/home/hkh/git/eapidk-code-r76-trunk/apps/EeePProg/linux/../EeePDB.c ****       EeePMapBuffer    ,
 2801              		.loc 1 483 5 view .LVU761
 2802 0d80 90C19FE5 		ldr	ip, .L199+28
 2803 0d84 0F7CE0E3 		mvn	r7, #3840
 2804              	.LVL234:
 483:/home/hkh/git/eapidk-code-r76-trunk/apps/EeePProg/linux/../EeePDB.c ****       EeePMapBuffer    ,
 2805              		.loc 1 483 5 is_stmt 0 view .LVU762
 2806 0d88 8C019FE5 		ldr	r0, .L199+32
 2807 0d8c E33100E3 		movw	r3, #483
 2808 0d90 88219FE5 		ldr	r2, .L199+36
 2809 0d94 88119FE5 		ldr	r1, .L199+40
 2810              	.LPIC133:
 2811 0d98 0CC08FE0 		add	ip, pc, ip
 2812              	.LPIC134:
 2813 0d9c 00008FE0 		add	r0, pc, r0
 2814              	.LPIC131:
 2815 0da0 02208FE0 		add	r2, pc, r2
 2816              	.LPIC132:
 2817 0da4 01108FE0 		add	r1, pc, r1
 2818 0da8 BDFFFFEA 		b	.L190
 2819              	.LVL235:
 2820              	.L170:
 509:/home/hkh/git/eapidk-code-r76-trunk/apps/EeePProg/linux/../EeePDB.c ****         break;
 2821              		.loc 1 509 9 is_stmt 1 view .LVU763
 509:/home/hkh/git/eapidk-code-r76-trunk/apps/EeePProg/linux/../EeePDB.c ****         break;
 2822              		.loc 1 509 18 is_stmt 0 view .LVU764
 2823 0dac 0030A0E3 		mov	r3, #0
 2824 0db0 14308DE5 		str	r3, [sp, #20]
 510:/home/hkh/git/eapidk-code-r76-trunk/apps/EeePProg/linux/../EeePDB.c ****       default:
 2825              		.loc 1 510 9 is_stmt 1 view .LVU765
ARM GAS  /tmp/ccTXisr2.s 			page 72


 469:/home/hkh/git/eapidk-code-r76-trunk/apps/EeePProg/linux/../EeePDB.c ****   {
 2826              		.loc 1 469 33 view .LVU766
 2827              	.LVL236:
 2828              	.LBB250:
 155:/home/hkh/git/eapidk-code-r76-trunk/apps/EeePProg/linux/../EeePDB.c ****     DBlockIdHdr_t *pCurBlock
 2829              		.loc 1 155 1 view .LVU767
 2830              	.LBB249:
 159:/home/hkh/git/eapidk-code-r76-trunk/apps/EeePProg/linux/../EeePDB.c ****   size_t stBlockLength;
 2831              		.loc 1 159 3 view .LVU768
 160:/home/hkh/git/eapidk-code-r76-trunk/apps/EeePProg/linux/../EeePDB.c ****   EAPI_APP_ASSERT_PARAMATER_NULL(
 2832              		.loc 1 160 3 view .LVU769
 161:/home/hkh/git/eapidk-code-r76-trunk/apps/EeePProg/linux/../EeePDB.c ****       GetNextBlock,
 2833              		.loc 1 161 3 view .LVU770
 2834              	.L177:
 2835              	.LBB247:
 2836              	.LBI247:
 155:/home/hkh/git/eapidk-code-r76-trunk/apps/EeePProg/linux/../EeePDB.c ****     DBlockIdHdr_t *pCurBlock
 2837              		.loc 1 155 1 view .LVU771
 2838              	.LBB248:
 161:/home/hkh/git/eapidk-code-r76-trunk/apps/EeePProg/linux/../EeePDB.c ****       GetNextBlock,
 2839              		.loc 1 161 3 view .LVU772
 161:/home/hkh/git/eapidk-code-r76-trunk/apps/EeePProg/linux/../EeePDB.c ****       GetNextBlock,
 2840              		.loc 1 161 3 view .LVU773
 2841 0db4 6C119FE5 		ldr	r1, .L199+44
 2842 0db8 00C0A0E3 		mov	ip, #0
 2843 0dbc 68019FE5 		ldr	r0, .L199+48
 2844 0dc0 A130A0E3 		mov	r3, #161
 2845 0dc4 64219FE5 		ldr	r2, .L199+52
 2846              	.LPIC146:
 2847 0dc8 01108FE0 		add	r1, pc, r1
 2848 0dcc 00C08DE5 		str	ip, [sp]
 2849 0dd0 04108DE5 		str	r1, [sp, #4]
 2850              	.LPIC145:
 2851 0dd4 00008FE0 		add	r0, pc, r0
 2852 0dd8 54119FE5 		ldr	r1, .L199+56
 2853              	.LPIC143:
 2854 0ddc 02208FE0 		add	r2, pc, r2
 2855 0de0 08008DE5 		str	r0, [sp, #8]
 2856 0de4 4500A0E3 		mov	r0, #69
 2857              	.LPIC144:
 2858 0de8 01108FE0 		add	r1, pc, r1
 2859 0dec FEFFFFEB 		bl	siFormattedMessage_SC(PLT)
 2860              	.LVL237:
 161:/home/hkh/git/eapidk-code-r76-trunk/apps/EeePProg/linux/../EeePDB.c ****       GetNextBlock,
 2861              		.loc 1 161 3 view .LVU774
 161:/home/hkh/git/eapidk-code-r76-trunk/apps/EeePProg/linux/../EeePDB.c ****       GetNextBlock,
 2862              		.loc 1 161 3 view .LVU775
 161:/home/hkh/git/eapidk-code-r76-trunk/apps/EeePProg/linux/../EeePDB.c ****       GetNextBlock,
 2863              		.loc 1 161 3 view .LVU776
 2864              	.LDL13:
 2865              	.LDL14:
 182:/home/hkh/git/eapidk-code-r76-trunk/apps/EeePProg/linux/../EeePDB.c **** }
 2866              		.loc 1 182 3 view .LVU777
 182:/home/hkh/git/eapidk-code-r76-trunk/apps/EeePProg/linux/../EeePDB.c **** }
 2867              		.loc 1 182 3 is_stmt 0 view .LVU778
 2868              	.LBE248:
 2869              	.LBE247:
ARM GAS  /tmp/ccTXisr2.s 			page 73


 182:/home/hkh/git/eapidk-code-r76-trunk/apps/EeePProg/linux/../EeePDB.c **** }
 2870              		.loc 1 182 3 is_stmt 1 view .LVU779
 182:/home/hkh/git/eapidk-code-r76-trunk/apps/EeePProg/linux/../EeePDB.c **** }
 2871              		.loc 1 182 3 is_stmt 0 view .LVU780
 2872              	.LBE249:
 2873              	.LBE250:
 469:/home/hkh/git/eapidk-code-r76-trunk/apps/EeePProg/linux/../EeePDB.c ****   {
 2874              		.loc 1 469 17 is_stmt 1 view .LVU781
 2875 0df0 AFFFFFEA 		b	.L159
 2876              	.L169:
 500:/home/hkh/git/eapidk-code-r76-trunk/apps/EeePProg/linux/../EeePDB.c ****             EeePMapBuffer,
 2877              		.loc 1 500 9 view .LVU782
 2878 0df4 083095E5 		ldr	r3, [r5, #8]
 2879 0df8 000053E3 		cmp	r3, #0
 2880 0dfc 2700001A 		bne	.L197
 500:/home/hkh/git/eapidk-code-r76-trunk/apps/EeePProg/linux/../EeePDB.c ****             EeePMapBuffer,
 2881              		.loc 1 500 9 view .LVU783
 505:/home/hkh/git/eapidk-code-r76-trunk/apps/EeePProg/linux/../EeePDB.c ****         pBufMap->pEeePCRCBlock=(EeePCRC16ChkBlock_t *)pCurBlock;
 2882              		.loc 1 505 12 view .LVU784
 506:/home/hkh/git/eapidk-code-r76-trunk/apps/EeePProg/linux/../EeePDB.c ****         break;
 2883              		.loc 1 506 9 view .LVU785
 469:/home/hkh/git/eapidk-code-r76-trunk/apps/EeePProg/linux/../EeePDB.c ****   {
 2884              		.loc 1 469 34 is_stmt 0 view .LVU786
 2885 0e00 14809DE5 		ldr	r8, [sp, #20]
 506:/home/hkh/git/eapidk-code-r76-trunk/apps/EeePProg/linux/../EeePDB.c ****         break;
 2886              		.loc 1 506 31 view .LVU787
 2887 0e04 080085E5 		str	r0, [r5, #8]
 507:/home/hkh/git/eapidk-code-r76-trunk/apps/EeePProg/linux/../EeePDB.c ****       case EEEP_BLOCK_ID_IGNORE:
 2888              		.loc 1 507 9 is_stmt 1 view .LVU788
 2889 0e08 CDFFFFEA 		b	.L174
 2890              	.L196:
 490:/home/hkh/git/eapidk-code-r76-trunk/apps/EeePProg/linux/../EeePDB.c ****         EAPI_APP_RETURN_ERROR_IF(
 2891              		.loc 1 490 9 view .LVU789
 2892              	.LVL238:
 2893              	.LBB251:
 2894              	.LBI230:
 155:/home/hkh/git/eapidk-code-r76-trunk/apps/EeePProg/linux/../EeePDB.c ****     DBlockIdHdr_t *pCurBlock
 2895              		.loc 1 155 1 view .LVU790
 2896              	.LBB236:
 159:/home/hkh/git/eapidk-code-r76-trunk/apps/EeePProg/linux/../EeePDB.c ****   size_t stBlockLength;
 2897              		.loc 1 159 3 view .LVU791
 160:/home/hkh/git/eapidk-code-r76-trunk/apps/EeePProg/linux/../EeePDB.c ****   EAPI_APP_ASSERT_PARAMATER_NULL(
 2898              		.loc 1 160 3 view .LVU792
 161:/home/hkh/git/eapidk-code-r76-trunk/apps/EeePProg/linux/../EeePDB.c ****       GetNextBlock,
 2899              		.loc 1 161 3 view .LVU793
 161:/home/hkh/git/eapidk-code-r76-trunk/apps/EeePProg/linux/../EeePDB.c ****       GetNextBlock,
 2900              		.loc 1 161 3 view .LVU794
 165:/home/hkh/git/eapidk-code-r76-trunk/apps/EeePProg/linux/../EeePDB.c ****   stBlockLength=GetBlockLength(pCurBlock);
 2901              		.loc 1 165 6 view .LVU795
 166:/home/hkh/git/eapidk-code-r76-trunk/apps/EeePProg/linux/../EeePDB.c ****   switch(stBlockLength){
 2902              		.loc 1 166 3 view .LVU796
 2903              	.LBB232:
 2904              	.LBI232:
 144:/home/hkh/git/eapidk-code-r76-trunk/apps/EeePProg/linux/../EeePDB.c ****     const void * pcvBHandel
 2905              		.loc 1 144 1 view .LVU797
 2906              	.LBB233:
 148:/home/hkh/git/eapidk-code-r76-trunk/apps/EeePProg/linux/../EeePDB.c ****   if(!pcvBHandel) return stBlockSize;
ARM GAS  /tmp/ccTXisr2.s 			page 74


 2907              		.loc 1 148 3 view .LVU798
 149:/home/hkh/git/eapidk-code-r76-trunk/apps/EeePProg/linux/../EeePDB.c **** 
 2908              		.loc 1 149 3 view .LVU799
 2909              	.LBB234:
 2910              	.LBI234:
 144:/home/hkh/git/eapidk-code-r76-trunk/apps/EeePProg/linux/../EeePDB.c ****     const void * pcvBHandel
 2911              		.loc 1 144 1 view .LVU800
 2912              	.LBB235:
 151:/home/hkh/git/eapidk-code-r76-trunk/apps/EeePProg/linux/../EeePDB.c ****   return stBlockSize;
 2913              		.loc 1 151 3 view .LVU801
 151:/home/hkh/git/eapidk-code-r76-trunk/apps/EeePProg/linux/../EeePDB.c ****   return stBlockSize;
 2914              		.loc 1 151 15 is_stmt 0 view .LVU802
 2915 0e0c 010080E2 		add	r0, r0, #1
 2916              	.LVL239:
 151:/home/hkh/git/eapidk-code-r76-trunk/apps/EeePProg/linux/../EeePDB.c ****   return stBlockSize;
 2917              		.loc 1 151 15 view .LVU803
 2918 0e10 FEFFFFEB 		bl	EeeP_Get16BitValue_BE(PLT)
 2919              	.LVL240:
 152:/home/hkh/git/eapidk-code-r76-trunk/apps/EeePProg/linux/../EeePDB.c **** }
 2920              		.loc 1 152 3 is_stmt 1 view .LVU804
 152:/home/hkh/git/eapidk-code-r76-trunk/apps/EeePProg/linux/../EeePDB.c **** }
 2921              		.loc 1 152 3 is_stmt 0 view .LVU805
 2922              	.LBE235:
 2923              	.LBE234:
 2924              	.LBE233:
 2925              	.LBE232:
 167:/home/hkh/git/eapidk-code-r76-trunk/apps/EeePProg/linux/../EeePDB.c ****     case EEEP_OFFSET_VALUE_EOL:
 2926              		.loc 1 167 3 is_stmt 1 view .LVU806
 2927 0e14 000050E3 		cmp	r0, #0
 2928              	.LVL241:
 167:/home/hkh/git/eapidk-code-r76-trunk/apps/EeePProg/linux/../EeePDB.c ****     case EEEP_OFFSET_VALUE_EOL:
 2929              		.loc 1 167 3 is_stmt 0 view .LVU807
 2930 0e18 C8FFFF0A 		beq	.L171
 2931 0e1c 060050E1 		cmp	r0, r6
 2932 0e20 C6FFFF0A 		beq	.L171
 171:/home/hkh/git/eapidk-code-r76-trunk/apps/EeePProg/linux/../EeePDB.c ****     default:
 2933              		.loc 1 171 7 is_stmt 1 view .LVU808
 173:/home/hkh/git/eapidk-code-r76-trunk/apps/EeePProg/linux/../EeePDB.c ****           pCurBlock         ,
 2934              		.loc 1 173 7 view .LVU809
 2935              	.LVL242:
 178:/home/hkh/git/eapidk-code-r76-trunk/apps/EeePProg/linux/../EeePDB.c ****       }
 2936              		.loc 1 178 7 view .LVU810
 2937              	.LDL15:
 2938              	.LDL16:
 182:/home/hkh/git/eapidk-code-r76-trunk/apps/EeePProg/linux/../EeePDB.c **** }
 2939              		.loc 1 182 3 view .LVU811
 182:/home/hkh/git/eapidk-code-r76-trunk/apps/EeePProg/linux/../EeePDB.c **** }
 2940              		.loc 1 182 3 is_stmt 0 view .LVU812
 2941              	.LBE236:
 2942              	.LBE251:
 491:/home/hkh/git/eapidk-code-r76-trunk/apps/EeePProg/linux/../EeePDB.c ****             EeePMapBuffer,
 2943              		.loc 1 491 9 is_stmt 1 view .LVU813
 2944 0e24 043095E5 		ldr	r3, [r5, #4]
 2945 0e28 000053E3 		cmp	r3, #0
 2946 0e2c 2600001A 		bne	.L198
 491:/home/hkh/git/eapidk-code-r76-trunk/apps/EeePProg/linux/../EeePDB.c ****             EeePMapBuffer,
 2947              		.loc 1 491 9 view .LVU814
ARM GAS  /tmp/ccTXisr2.s 			page 75


 496:/home/hkh/git/eapidk-code-r76-trunk/apps/EeePProg/linux/../EeePDB.c ****         pBufMap->pEmptyBlock=pCurBlock;
 2948              		.loc 1 496 12 view .LVU815
 497:/home/hkh/git/eapidk-code-r76-trunk/apps/EeePProg/linux/../EeePDB.c ****         break;
 2949              		.loc 1 497 9 view .LVU816
 497:/home/hkh/git/eapidk-code-r76-trunk/apps/EeePProg/linux/../EeePDB.c ****         break;
 2950              		.loc 1 497 29 is_stmt 0 view .LVU817
 2951 0e30 14809DE5 		ldr	r8, [sp, #20]
 2952 0e34 048085E5 		str	r8, [r5, #4]
 498:/home/hkh/git/eapidk-code-r76-trunk/apps/EeePProg/linux/../EeePDB.c ****       case EEEP_BLOCK_ID_CRC_CHK:
 2953              		.loc 1 498 9 is_stmt 1 view .LVU818
 2954 0e38 C1FFFFEA 		b	.L174
 2955              	.LVL243:
 2956              	.L194:
 467:/home/hkh/git/eapidk-code-r76-trunk/apps/EeePProg/linux/../EeePDB.c **** 
 2957              		.loc 1 467 3 view .LVU819
 2958 0e3c F4C09FE5 		ldr	ip, .L199+60
 2959 0e40 D33100E3 		movw	r3, #467
 2960 0e44 F0009FE5 		ldr	r0, .L199+64
 2961              	.LVL244:
 467:/home/hkh/git/eapidk-code-r76-trunk/apps/EeePProg/linux/../EeePDB.c **** 
 2962              		.loc 1 467 3 is_stmt 0 view .LVU820
 2963 0e48 F0209FE5 		ldr	r2, .L199+68
 2964 0e4c F0109FE5 		ldr	r1, .L199+72
 2965              	.LPIC129:
 2966 0e50 0CC08FE0 		add	ip, pc, ip
 2967              	.LPIC130:
 2968 0e54 00008FE0 		add	r0, pc, r0
 2969 0e58 00708DE5 		str	r7, [sp]
 2970 0e5c 01108DE9 		stmib	sp, {r0, ip}
 2971              	.LPIC127:
 2972 0e60 02208FE0 		add	r2, pc, r2
 2973              	.LPIC128:
 2974 0e64 01108FE0 		add	r1, pc, r1
 2975 0e68 4500A0E3 		mov	r0, #69
 2976 0e6c FEFFFFEB 		bl	siFormattedMessage_SC(PLT)
 2977              	.LVL245:
 467:/home/hkh/git/eapidk-code-r76-trunk/apps/EeePProg/linux/../EeePDB.c **** 
 2978              		.loc 1 467 3 is_stmt 1 view .LVU821
 2979 0e70 8FFFFFEA 		b	.L159
 2980              	.LVL246:
 2981              	.L191:
 467:/home/hkh/git/eapidk-code-r76-trunk/apps/EeePProg/linux/../EeePDB.c **** 
 2982              		.loc 1 467 3 is_stmt 0 view .LVU822
 2983              	.LBE229:
 2984              	.LBE228:
 446:/home/hkh/git/eapidk-code-r76-trunk/apps/EeePProg/linux/../EeePDB.c ****       EeePMapBuffer,
 2985              		.loc 1 446 3 is_stmt 1 discriminator 1 view .LVU823
 446:/home/hkh/git/eapidk-code-r76-trunk/apps/EeePProg/linux/../EeePDB.c ****       EeePMapBuffer,
 2986              		.loc 1 446 3 discriminator 1 view .LVU824
 2987 0e74 CCC09FE5 		ldr	ip, .L199+76
 2988 0e78 017CE0E3 		mvn	r7, #256
 2989 0e7c C8009FE5 		ldr	r0, .L199+80
 2990              	.LVL247:
 446:/home/hkh/git/eapidk-code-r76-trunk/apps/EeePProg/linux/../EeePDB.c ****       EeePMapBuffer,
 2991              		.loc 1 446 3 is_stmt 0 discriminator 1 view .LVU825
 2992 0e80 BE3100E3 		movw	r3, #446
 2993 0e84 C4209FE5 		ldr	r2, .L199+84
ARM GAS  /tmp/ccTXisr2.s 			page 76


 2994 0e88 C4109FE5 		ldr	r1, .L199+88
 2995              	.LVL248:
 446:/home/hkh/git/eapidk-code-r76-trunk/apps/EeePProg/linux/../EeePDB.c ****       EeePMapBuffer,
 2996              		.loc 1 446 3 discriminator 1 view .LVU826
 2997              	.LPIC120:
 2998 0e8c 0CC08FE0 		add	ip, pc, ip
 2999              	.LPIC121:
 3000 0e90 00008FE0 		add	r0, pc, r0
 3001              	.LPIC118:
 3002 0e94 02208FE0 		add	r2, pc, r2
 3003              	.LPIC119:
 3004 0e98 01108FE0 		add	r1, pc, r1
 3005 0e9c 80FFFFEA 		b	.L190
 3006              	.LVL249:
 3007              	.L197:
 3008              	.LBB253:
 3009              	.LBB252:
 500:/home/hkh/git/eapidk-code-r76-trunk/apps/EeePProg/linux/../EeePDB.c ****             EeePMapBuffer,
 3010              		.loc 1 500 9 is_stmt 1 view .LVU827
 500:/home/hkh/git/eapidk-code-r76-trunk/apps/EeePProg/linux/../EeePDB.c ****             EeePMapBuffer,
 3011              		.loc 1 500 9 view .LVU828
 3012 0ea0 B0C09FE5 		ldr	ip, .L199+92
 3013 0ea4 0F7CE0E3 		mvn	r7, #3840
 3014              	.LVL250:
 500:/home/hkh/git/eapidk-code-r76-trunk/apps/EeePProg/linux/../EeePDB.c ****             EeePMapBuffer,
 3015              		.loc 1 500 9 is_stmt 0 view .LVU829
 3016 0ea8 AC009FE5 		ldr	r0, .L199+96
 3017 0eac 7D3FA0E3 		mov	r3, #500
 3018 0eb0 A8209FE5 		ldr	r2, .L199+100
 3019 0eb4 A8109FE5 		ldr	r1, .L199+104
 3020              	.LPIC141:
 3021 0eb8 0CC08FE0 		add	ip, pc, ip
 3022              	.LPIC142:
 3023 0ebc 00008FE0 		add	r0, pc, r0
 3024              	.LPIC139:
 3025 0ec0 02208FE0 		add	r2, pc, r2
 3026              	.LPIC140:
 3027 0ec4 01108FE0 		add	r1, pc, r1
 3028 0ec8 75FFFFEA 		b	.L190
 3029              	.LVL251:
 3030              	.L198:
 491:/home/hkh/git/eapidk-code-r76-trunk/apps/EeePProg/linux/../EeePDB.c ****             EeePMapBuffer,
 3031              		.loc 1 491 9 is_stmt 1 view .LVU830
 491:/home/hkh/git/eapidk-code-r76-trunk/apps/EeePProg/linux/../EeePDB.c ****             EeePMapBuffer,
 3032              		.loc 1 491 9 view .LVU831
 3033 0ecc 94C09FE5 		ldr	ip, .L199+108
 3034 0ed0 0F7CE0E3 		mvn	r7, #3840
 3035              	.LVL252:
 491:/home/hkh/git/eapidk-code-r76-trunk/apps/EeePProg/linux/../EeePDB.c ****             EeePMapBuffer,
 3036              		.loc 1 491 9 is_stmt 0 view .LVU832
 3037 0ed4 90009FE5 		ldr	r0, .L199+112
 3038 0ed8 EB3100E3 		movw	r3, #491
 3039 0edc 8C209FE5 		ldr	r2, .L199+116
 3040 0ee0 8C109FE5 		ldr	r1, .L199+120
 3041              	.LPIC137:
 3042 0ee4 0CC08FE0 		add	ip, pc, ip
 3043              	.LPIC138:
ARM GAS  /tmp/ccTXisr2.s 			page 77


 3044 0ee8 00008FE0 		add	r0, pc, r0
 3045              	.LPIC135:
 3046 0eec 02208FE0 		add	r2, pc, r2
 3047              	.LPIC136:
 3048 0ef0 01108FE0 		add	r1, pc, r1
 3049 0ef4 6AFFFFEA 		b	.L190
 3050              	.LVL253:
 3051              	.L193:
 491:/home/hkh/git/eapidk-code-r76-trunk/apps/EeePProg/linux/../EeePDB.c ****             EeePMapBuffer,
 3052              		.loc 1 491 9 view .LVU833
 3053              	.LBE252:
 3054              	.LBE253:
 3055              		.loc 1 518 1 view .LVU834
 3056 0ef8 FEFFFFEB 		bl	__stack_chk_fail(PLT)
 3057              	.LVL254:
 3058              	.L200:
 3059              		.align	2
 3060              	.L199:
 3061 0efc B4020000 		.word	_GLOBAL_OFFSET_TABLE_-(.LPIC148+8)
 3062 0f00 00000000 		.word	__stack_chk_guard(GOT)
 3063 0f04 68020000 		.word	.LC20-(.LPIC125+8)
 3064 0f08 68020000 		.word	.LC5-(.LPIC126+8)
 3065 0f0c 68020000 		.word	.LC32-(.LPIC123+8)
 3066 0f10 68020000 		.word	.LC3-(.LPIC124+8)
 3067 0f14 50020000 		.word	_GLOBAL_OFFSET_TABLE_-(.LPIC147+8)
 3068 0f18 78010000 		.word	.LC34-(.LPIC133+8)
 3069 0f1c 78010000 		.word	.LC5-(.LPIC134+8)
 3070 0f20 78010000 		.word	.LC32-(.LPIC131+8)
 3071 0f24 78010000 		.word	.LC3-(.LPIC132+8)
 3072 0f28 58010000 		.word	.LC5-(.LPIC146+8)
 3073 0f2c 50010000 		.word	.LC9-(.LPIC145+8)
 3074 0f30 4C010000 		.word	.LC8-(.LPIC143+8)
 3075 0f34 44010000 		.word	.LC3-(.LPIC144+8)
 3076 0f38 E0000000 		.word	.LC33-(.LPIC129+8)
 3077 0f3c E0000000 		.word	.LC5-(.LPIC130+8)
 3078 0f40 D8000000 		.word	.LC25-(.LPIC127+8)
 3079 0f44 D8000000 		.word	.LC3-(.LPIC128+8)
 3080 0f48 B4000000 		.word	.LC4-(.LPIC120+8)
 3081 0f4c B4000000 		.word	.LC5-(.LPIC121+8)
 3082 0f50 B4000000 		.word	.LC32-(.LPIC118+8)
 3083 0f54 B4000000 		.word	.LC3-(.LPIC119+8)
 3084 0f58 98000000 		.word	.LC36-(.LPIC141+8)
 3085 0f5c 98000000 		.word	.LC5-(.LPIC142+8)
 3086 0f60 98000000 		.word	.LC32-(.LPIC139+8)
 3087 0f64 98000000 		.word	.LC3-(.LPIC140+8)
 3088 0f68 7C000000 		.word	.LC35-(.LPIC137+8)
 3089 0f6c 7C000000 		.word	.LC5-(.LPIC138+8)
 3090 0f70 7C000000 		.word	.LC32-(.LPIC135+8)
 3091 0f74 7C000000 		.word	.LC3-(.LPIC136+8)
 3092              		.cfi_endproc
 3093              	.LFE13:
 3095              		.section	.rodata.str1.4
 3096              		.align	2
 3097              	.LC37:
 3098 0508 45656550 		.ascii	"EeePListBlocks\000"
 3098      4C697374 
 3098      426C6F63 
ARM GAS  /tmp/ccTXisr2.s 			page 78


 3098      6B7300
 3099 0517 00       		.align	2
 3100              	.LC38:
 3101 0518 4C4F473A 		.ascii	"LOG: Header Size: 0x%02lX\012\000"
 3101      20486561 
 3101      64657220 
 3101      53697A65 
 3101      3A203078 
 3102 0533 00       		.align	2
 3103              	.LC39:
 3104 0534 45656550 		.ascii	"EeeP Common Header\000"
 3104      20436F6D 
 3104      6D6F6E20 
 3104      48656164 
 3104      657200
 3105 0547 00       		.align	2
 3106              	.LC40:
 3107 0548 45656550 		.ascii	"EeeP Extended Header\000"
 3107      20457874 
 3107      656E6465 
 3107      64204865 
 3107      61646572 
 3108 055d 000000   		.align	2
 3109              	.LC41:
 3110 0560 0A4C4F47 		.ascii	"\012LOG: BLOCK ID  : %s(0x%02X)\012LOG:   Length  :"
 3110      3A20424C 
 3110      4F434B20 
 3110      49442020 
 3110      3A202573 
 3111 058d 20307825 		.ascii	" 0x%04lX\012LOG:   Offset  : 0x%08lX\012\000"
 3111      30346C58 
 3111      0A4C4F47 
 3111      3A202020 
 3111      4F666673 
 3112              		.align	2
 3113              	.LC42:
 3114 05b0 28437572 		.ascii	"(CurOffset+BlockLen>MaxDeviceLen)\000"
 3114      4F666673 
 3114      65742B42 
 3114      6C6F636B 
 3114      4C656E3E 
 3115              		.text
 3116              		.align	2
 3117              		.global	EeePListBlocks
 3118              		.syntax unified
 3119              		.arm
 3120              		.fpu vfpv3
 3122              	EeePListBlocks:
 3123              	.LVL255:
 3124              	.LFB14:
 519:/home/hkh/git/eapidk-code-r76-trunk/apps/EeePProg/linux/../EeePDB.c **** 
 520:/home/hkh/git/eapidk-code-r76-trunk/apps/EeePProg/linux/../EeePDB.c **** EApiStatus_t
 521:/home/hkh/git/eapidk-code-r76-trunk/apps/EeePProg/linux/../EeePDB.c **** EeePListBlocks(
 522:/home/hkh/git/eapidk-code-r76-trunk/apps/EeePProg/linux/../EeePDB.c ****     EeePHandel_t BHandel,
 523:/home/hkh/git/eapidk-code-r76-trunk/apps/EeePProg/linux/../EeePDB.c ****     unsigned int uiFlags
 524:/home/hkh/git/eapidk-code-r76-trunk/apps/EeePProg/linux/../EeePDB.c ****   )
 525:/home/hkh/git/eapidk-code-r76-trunk/apps/EeePProg/linux/../EeePDB.c **** {
ARM GAS  /tmp/ccTXisr2.s 			page 79


 3125              		.loc 1 525 1 is_stmt 1 view -0
 3126              		.cfi_startproc
 3127              		@ args = 0, pretend = 0, frame = 96
 3128              		@ frame_needed = 0, uses_anonymous_args = 0
 3129              		.loc 1 525 1 is_stmt 0 view .LVU836
 3130 0f78 98139FE5 		ldr	r1, .L244
 3131              	.LVL256:
 526:/home/hkh/git/eapidk-code-r76-trunk/apps/EeePProg/linux/../EeePDB.c ****   TCHAR BlockName[80];
 527:/home/hkh/git/eapidk-code-r76-trunk/apps/EeePProg/linux/../EeePDB.c ****   EeePCmn_t     *pEeePCmnHdr; 
 528:/home/hkh/git/eapidk-code-r76-trunk/apps/EeePProg/linux/../EeePDB.c ****   size_t         CurOffset, BlockLen, MaxDeviceLen=0;
 3132              		.loc 1 528 39 view .LVU837
 3133 0f7c 0030A0E3 		mov	r3, #0
 525:/home/hkh/git/eapidk-code-r76-trunk/apps/EeePProg/linux/../EeePDB.c ****   TCHAR BlockName[80];
 3134              		.loc 1 525 1 view .LVU838
 3135 0f80 94239FE5 		ldr	r2, .L244+4
 3136 0f84 F04F2DE9 		push	{r4, r5, r6, r7, r8, r9, r10, fp, lr}
 3137              		.cfi_def_cfa_offset 36
 3138              		.cfi_offset 4, -36
 3139              		.cfi_offset 5, -32
 3140              		.cfi_offset 6, -28
 3141              		.cfi_offset 7, -24
 3142              		.cfi_offset 8, -20
 3143              		.cfi_offset 9, -16
 3144              		.cfi_offset 10, -12
 3145              		.cfi_offset 11, -8
 3146              		.cfi_offset 14, -4
 529:/home/hkh/git/eapidk-code-r76-trunk/apps/EeePProg/linux/../EeePDB.c ****   DBlockIdHdr_t    *pCurBlock       ;
 530:/home/hkh/git/eapidk-code-r76-trunk/apps/EeePProg/linux/../EeePDB.c ****   EApiStatus_t StatusCode=EAPI_STATUS_SUCCESS;
 531:/home/hkh/git/eapidk-code-r76-trunk/apps/EeePProg/linux/../EeePDB.c ****   uiFlags=uiFlags;
 532:/home/hkh/git/eapidk-code-r76-trunk/apps/EeePProg/linux/../EeePDB.c ****   EAPI_APP_ASSERT_PARAMATER_NULL(
 3147              		.loc 1 532 3 view .LVU839
 3148 0f88 006050E2 		subs	r6, r0, #0
 525:/home/hkh/git/eapidk-code-r76-trunk/apps/EeePProg/linux/../EeePDB.c ****   TCHAR BlockName[80];
 3149              		.loc 1 525 1 view .LVU840
 3150              	.LPIC187:
 3151 0f8c 01108FE0 		add	r1, pc, r1
 3152 0f90 74D04DE2 		sub	sp, sp, #116
 3153              		.cfi_def_cfa_offset 152
 525:/home/hkh/git/eapidk-code-r76-trunk/apps/EeePProg/linux/../EeePDB.c ****   TCHAR BlockName[80];
 3154              		.loc 1 525 1 view .LVU841
 3155 0f94 022091E7 		ldr	r2, [r1, r2]
 3156 0f98 002092E5 		ldr	r2, [r2]
 3157 0f9c 6C208DE5 		str	r2, [sp, #108]
 3158 0fa0 0020A0E3 		mov	r2, #0
 526:/home/hkh/git/eapidk-code-r76-trunk/apps/EeePProg/linux/../EeePDB.c ****   EeePCmn_t     *pEeePCmnHdr; 
 3159              		.loc 1 526 3 is_stmt 1 view .LVU842
 527:/home/hkh/git/eapidk-code-r76-trunk/apps/EeePProg/linux/../EeePDB.c ****   size_t         CurOffset, BlockLen, MaxDeviceLen=0;
 3160              		.loc 1 527 3 view .LVU843
 528:/home/hkh/git/eapidk-code-r76-trunk/apps/EeePProg/linux/../EeePDB.c ****   DBlockIdHdr_t    *pCurBlock       ;
 3161              		.loc 1 528 3 view .LVU844
 528:/home/hkh/git/eapidk-code-r76-trunk/apps/EeePProg/linux/../EeePDB.c ****   DBlockIdHdr_t    *pCurBlock       ;
 3162              		.loc 1 528 39 is_stmt 0 view .LVU845
 3163 0fa4 14308DE5 		str	r3, [sp, #20]
 529:/home/hkh/git/eapidk-code-r76-trunk/apps/EeePProg/linux/../EeePDB.c ****   EApiStatus_t StatusCode=EAPI_STATUS_SUCCESS;
 3164              		.loc 1 529 3 is_stmt 1 view .LVU846
 530:/home/hkh/git/eapidk-code-r76-trunk/apps/EeePProg/linux/../EeePDB.c ****   uiFlags=uiFlags;
 3165              		.loc 1 530 3 view .LVU847
ARM GAS  /tmp/ccTXisr2.s 			page 80


 3166              	.LVL257:
 531:/home/hkh/git/eapidk-code-r76-trunk/apps/EeePProg/linux/../EeePDB.c ****   EAPI_APP_ASSERT_PARAMATER_NULL(
 3167              		.loc 1 531 3 view .LVU848
 3168              		.loc 1 532 3 view .LVU849
 3169 0fa8 CE00000A 		beq	.L235
 3170              		.loc 1 532 3 discriminator 2 view .LVU850
 533:/home/hkh/git/eapidk-code-r76-trunk/apps/EeePProg/linux/../EeePDB.c ****       EeePListBlocks,
 534:/home/hkh/git/eapidk-code-r76-trunk/apps/EeePProg/linux/../EeePDB.c ****       EAPI_STATUS_INVALID_PARAMETER,
 535:/home/hkh/git/eapidk-code-r76-trunk/apps/EeePProg/linux/../EeePDB.c ****       BHandel
 536:/home/hkh/git/eapidk-code-r76-trunk/apps/EeePProg/linux/../EeePDB.c ****     );
 3171              		.loc 1 536 6 discriminator 2 view .LVU851
 537:/home/hkh/git/eapidk-code-r76-trunk/apps/EeePProg/linux/../EeePDB.c ****   pEeePCmnHdr=BHandel;
 3172              		.loc 1 537 3 discriminator 2 view .LVU852
 3173              	.LVL258:
 538:/home/hkh/git/eapidk-code-r76-trunk/apps/EeePProg/linux/../EeePDB.c **** 
 539:/home/hkh/git/eapidk-code-r76-trunk/apps/EeePProg/linux/../EeePDB.c **** 
 540:/home/hkh/git/eapidk-code-r76-trunk/apps/EeePProg/linux/../EeePDB.c ****   EAPI_APP_RETURN_ERROR_IF(
 3174              		.loc 1 540 3 discriminator 2 view .LVU853
 3175 0fac 0130D6E5 		ldrb	r3, [r6, #1]	@ zero_extendqisi2
 3176 0fb0 330053E3 		cmp	r3, #51
 3177 0fb4 1900000A 		beq	.L236
 3178              	.L204:
 3179              		.loc 1 540 3 discriminator 2 view .LVU854
 3180              		.loc 1 540 3 discriminator 2 view .LVU855
 3181 0fb8 60C39FE5 		ldr	ip, .L244+8
 3182 0fbc 0F9CE0E3 		mvn	r9, #3840
 3183 0fc0 5C039FE5 		ldr	r0, .L244+12
 3184              	.LVL259:
 3185              		.loc 1 540 3 is_stmt 0 discriminator 2 view .LVU856
 3186 0fc4 873FA0E3 		mov	r3, #540
 3187 0fc8 58239FE5 		ldr	r2, .L244+16
 3188 0fcc 58139FE5 		ldr	r1, .L244+20
 3189              	.LPIC156:
 3190 0fd0 0CC08FE0 		add	ip, pc, ip
 3191              	.LPIC157:
 3192 0fd4 00008FE0 		add	r0, pc, r0
 3193              	.LPIC154:
 3194 0fd8 02208FE0 		add	r2, pc, r2
 3195              	.LPIC155:
 3196 0fdc 01108FE0 		add	r1, pc, r1
 3197              	.LVL260:
 3198              	.L234:
 3199              		.loc 1 540 3 discriminator 2 view .LVU857
 3200 0fe0 01108DE9 		stmib	sp, {r0, ip}
 3201 0fe4 4500A0E3 		mov	r0, #69
 3202 0fe8 00908DE5 		str	r9, [sp]
 3203 0fec FEFFFFEB 		bl	siFormattedMessage_SC(PLT)
 3204              	.LVL261:
 3205              		.loc 1 540 3 is_stmt 1 discriminator 2 view .LVU858
 3206              		.loc 1 540 3 discriminator 2 view .LVU859
 3207              		.loc 1 540 3 discriminator 2 view .LVU860
 3208              	.L203:
 3209              	.L201:
 525:/home/hkh/git/eapidk-code-r76-trunk/apps/EeePProg/linux/../EeePDB.c ****   TCHAR BlockName[80];
 3210              		.loc 1 525 1 is_stmt 0 view .LVU861
 3211 0ff0 38239FE5 		ldr	r2, .L244+24
 541:/home/hkh/git/eapidk-code-r76-trunk/apps/EeePProg/linux/../EeePDB.c ****       EeePListBlocks,
ARM GAS  /tmp/ccTXisr2.s 			page 81


 542:/home/hkh/git/eapidk-code-r76-trunk/apps/EeePProg/linux/../EeePDB.c ****       memcmp(
 543:/home/hkh/git/eapidk-code-r76-trunk/apps/EeePProg/linux/../EeePDB.c ****           pEeePCmnHdr->EepId, 
 544:/home/hkh/git/eapidk-code-r76-trunk/apps/EeePProg/linux/../EeePDB.c ****           EEEP_EEPROM_MARKER, 
 545:/home/hkh/git/eapidk-code-r76-trunk/apps/EeePProg/linux/../EeePDB.c ****           sizeof(EEEP_EEPROM_MARKER)-1
 546:/home/hkh/git/eapidk-code-r76-trunk/apps/EeePProg/linux/../EeePDB.c ****         ),
 547:/home/hkh/git/eapidk-code-r76-trunk/apps/EeePProg/linux/../EeePDB.c ****       EAPI_STATUS_ERROR,
 548:/home/hkh/git/eapidk-code-r76-trunk/apps/EeePProg/linux/../EeePDB.c ****       "Invalid EeeP Buffer"
 549:/home/hkh/git/eapidk-code-r76-trunk/apps/EeePProg/linux/../EeePDB.c ****     );
 550:/home/hkh/git/eapidk-code-r76-trunk/apps/EeePProg/linux/../EeePDB.c **** 
 551:/home/hkh/git/eapidk-code-r76-trunk/apps/EeePProg/linux/../EeePDB.c ****   DO(EeePGetFirstDB(BHandel, &pCurBlock, &MaxDeviceLen));
 552:/home/hkh/git/eapidk-code-r76-trunk/apps/EeePProg/linux/../EeePDB.c ****   EAPI_MSG_OUT(
 553:/home/hkh/git/eapidk-code-r76-trunk/apps/EeePProg/linux/../EeePDB.c ****       TEXT("LOG: Header Size: 0x%02lX\n"),
 554:/home/hkh/git/eapidk-code-r76-trunk/apps/EeePProg/linux/../EeePDB.c ****       EAPI_GET_PTR_OFFSET(pCurBlock, BHandel)
 555:/home/hkh/git/eapidk-code-r76-trunk/apps/EeePProg/linux/../EeePDB.c ****       );
 556:/home/hkh/git/eapidk-code-r76-trunk/apps/EeePProg/linux/../EeePDB.c ****   PrintHexAsciiTable(
 557:/home/hkh/git/eapidk-code-r76-trunk/apps/EeePProg/linux/../EeePDB.c ****         BHandel, 
 558:/home/hkh/git/eapidk-code-r76-trunk/apps/EeePProg/linux/../EeePDB.c ****         sizeof(*pEeePCmnHdr), 
 559:/home/hkh/git/eapidk-code-r76-trunk/apps/EeePProg/linux/../EeePDB.c ****         BHandel, 
 560:/home/hkh/git/eapidk-code-r76-trunk/apps/EeePProg/linux/../EeePDB.c ****         TEXT("EeeP Common Header")
 561:/home/hkh/git/eapidk-code-r76-trunk/apps/EeePProg/linux/../EeePDB.c ****       );
 562:/home/hkh/git/eapidk-code-r76-trunk/apps/EeePProg/linux/../EeePDB.c **** 
 563:/home/hkh/git/eapidk-code-r76-trunk/apps/EeePProg/linux/../EeePDB.c ****   if(EAPI_GET_PTR_OFFSET(pCurBlock, BHandel) > sizeof(*pEeePCmnHdr)){
 564:/home/hkh/git/eapidk-code-r76-trunk/apps/EeePProg/linux/../EeePDB.c ****     PrintHexAsciiTable(
 565:/home/hkh/git/eapidk-code-r76-trunk/apps/EeePProg/linux/../EeePDB.c ****         EAPI_CREATE_PTR(BHandel, sizeof(*pEeePCmnHdr), void *), 
 566:/home/hkh/git/eapidk-code-r76-trunk/apps/EeePProg/linux/../EeePDB.c ****         EAPI_GET_PTR_OFFSET(pCurBlock, BHandel) - sizeof(*pEeePCmnHdr), 
 567:/home/hkh/git/eapidk-code-r76-trunk/apps/EeePProg/linux/../EeePDB.c ****         BHandel, 
 568:/home/hkh/git/eapidk-code-r76-trunk/apps/EeePProg/linux/../EeePDB.c ****         TEXT("EeeP Extended Header")
 569:/home/hkh/git/eapidk-code-r76-trunk/apps/EeePProg/linux/../EeePDB.c ****       );
 570:/home/hkh/git/eapidk-code-r76-trunk/apps/EeePProg/linux/../EeePDB.c ****   }
 571:/home/hkh/git/eapidk-code-r76-trunk/apps/EeePProg/linux/../EeePDB.c **** 
 572:/home/hkh/git/eapidk-code-r76-trunk/apps/EeePProg/linux/../EeePDB.c ****   for(;pCurBlock!=NULL;pCurBlock=GetNextBlock(pCurBlock))
 573:/home/hkh/git/eapidk-code-r76-trunk/apps/EeePProg/linux/../EeePDB.c ****   {
 574:/home/hkh/git/eapidk-code-r76-trunk/apps/EeePProg/linux/../EeePDB.c ****     CurOffset=EAPI_GET_PTR_OFFSET(pCurBlock, BHandel);
 575:/home/hkh/git/eapidk-code-r76-trunk/apps/EeePProg/linux/../EeePDB.c ****     BlockLen=GetBlockLength(pCurBlock);
 576:/home/hkh/git/eapidk-code-r76-trunk/apps/EeePProg/linux/../EeePDB.c ****     GetDBlckIdString(BlockName, ARRAY_SIZE(BlockName), pCurBlock->DBlockId);
 577:/home/hkh/git/eapidk-code-r76-trunk/apps/EeePProg/linux/../EeePDB.c ****     EAPI_MSG_OUT(
 578:/home/hkh/git/eapidk-code-r76-trunk/apps/EeePProg/linux/../EeePDB.c ****         TEXT("\n")
 579:/home/hkh/git/eapidk-code-r76-trunk/apps/EeePProg/linux/../EeePDB.c **** #ifdef _UNICODE
 580:/home/hkh/git/eapidk-code-r76-trunk/apps/EeePProg/linux/../EeePDB.c ****         TEXT("LOG: BLOCK ID  : %ls(0x%02")TEXT(PRIX8)TEXT(")\n")
 581:/home/hkh/git/eapidk-code-r76-trunk/apps/EeePProg/linux/../EeePDB.c **** #else
 582:/home/hkh/git/eapidk-code-r76-trunk/apps/EeePProg/linux/../EeePDB.c ****         TEXT("LOG: BLOCK ID  : %s(0x%02")TEXT(PRIX8)TEXT(")\n")
 583:/home/hkh/git/eapidk-code-r76-trunk/apps/EeePProg/linux/../EeePDB.c **** #endif
 584:/home/hkh/git/eapidk-code-r76-trunk/apps/EeePProg/linux/../EeePDB.c ****         TEXT("LOG:   Length  : 0x%04lX\n")
 585:/home/hkh/git/eapidk-code-r76-trunk/apps/EeePProg/linux/../EeePDB.c ****         TEXT("LOG:   Offset  : 0x%08lX\n"),
 586:/home/hkh/git/eapidk-code-r76-trunk/apps/EeePProg/linux/../EeePDB.c ****         BlockName,
 587:/home/hkh/git/eapidk-code-r76-trunk/apps/EeePProg/linux/../EeePDB.c ****         pCurBlock->DBlockId,
 588:/home/hkh/git/eapidk-code-r76-trunk/apps/EeePProg/linux/../EeePDB.c ****         (unsigned long)BlockLen,
 589:/home/hkh/git/eapidk-code-r76-trunk/apps/EeePProg/linux/../EeePDB.c ****         (unsigned long)CurOffset 
 590:/home/hkh/git/eapidk-code-r76-trunk/apps/EeePProg/linux/../EeePDB.c ****       );
 591:/home/hkh/git/eapidk-code-r76-trunk/apps/EeePProg/linux/../EeePDB.c ****     EAPI_APP_RETURN_ERROR_IF_S(
 592:/home/hkh/git/eapidk-code-r76-trunk/apps/EeePProg/linux/../EeePDB.c ****       EeePListBlocks    ,
 593:/home/hkh/git/eapidk-code-r76-trunk/apps/EeePProg/linux/../EeePDB.c ****       (CurOffset>MaxDeviceLen),
 594:/home/hkh/git/eapidk-code-r76-trunk/apps/EeePProg/linux/../EeePDB.c ****       EAPI_STATUS_ERROR
 595:/home/hkh/git/eapidk-code-r76-trunk/apps/EeePProg/linux/../EeePDB.c ****       );
 596:/home/hkh/git/eapidk-code-r76-trunk/apps/EeePProg/linux/../EeePDB.c ****     EAPI_APP_RETURN_ERROR_IF_S(
 597:/home/hkh/git/eapidk-code-r76-trunk/apps/EeePProg/linux/../EeePDB.c ****       EeePListBlocks    ,
 598:/home/hkh/git/eapidk-code-r76-trunk/apps/EeePProg/linux/../EeePDB.c ****       (CurOffset+BlockLen>MaxDeviceLen),
ARM GAS  /tmp/ccTXisr2.s 			page 82


 599:/home/hkh/git/eapidk-code-r76-trunk/apps/EeePProg/linux/../EeePDB.c ****       EAPI_STATUS_ERROR
 600:/home/hkh/git/eapidk-code-r76-trunk/apps/EeePProg/linux/../EeePDB.c ****       );
 601:/home/hkh/git/eapidk-code-r76-trunk/apps/EeePProg/linux/../EeePDB.c ****     if(GetNextBlock(pCurBlock)!=NULL){
 602:/home/hkh/git/eapidk-code-r76-trunk/apps/EeePProg/linux/../EeePDB.c ****       PrintHexAsciiTable(
 603:/home/hkh/git/eapidk-code-r76-trunk/apps/EeePProg/linux/../EeePDB.c ****             EAPI_CREATE_PTR(pCurBlock, sizeof(*pCurBlock), void *), 
 604:/home/hkh/git/eapidk-code-r76-trunk/apps/EeePProg/linux/../EeePDB.c ****             BlockLen - sizeof(*pCurBlock), 
 605:/home/hkh/git/eapidk-code-r76-trunk/apps/EeePProg/linux/../EeePDB.c ****             BHandel, 
 606:/home/hkh/git/eapidk-code-r76-trunk/apps/EeePProg/linux/../EeePDB.c ****             NULL
 607:/home/hkh/git/eapidk-code-r76-trunk/apps/EeePProg/linux/../EeePDB.c ****         );
 608:/home/hkh/git/eapidk-code-r76-trunk/apps/EeePProg/linux/../EeePDB.c ****     }
 609:/home/hkh/git/eapidk-code-r76-trunk/apps/EeePProg/linux/../EeePDB.c ****   }
 610:/home/hkh/git/eapidk-code-r76-trunk/apps/EeePProg/linux/../EeePDB.c **** 
 611:/home/hkh/git/eapidk-code-r76-trunk/apps/EeePProg/linux/../EeePDB.c **** EAPI_APP_ASSERT_EXIT
 612:/home/hkh/git/eapidk-code-r76-trunk/apps/EeePProg/linux/../EeePDB.c ****   return StatusCode;
 613:/home/hkh/git/eapidk-code-r76-trunk/apps/EeePProg/linux/../EeePDB.c **** }
 3212              		.loc 1 613 1 view .LVU862
 3213 0ff4 20339FE5 		ldr	r3, .L244+4
 525:/home/hkh/git/eapidk-code-r76-trunk/apps/EeePProg/linux/../EeePDB.c ****   TCHAR BlockName[80];
 3214              		.loc 1 525 1 view .LVU863
 3215              	.LPIC186:
 3216 0ff8 02208FE0 		add	r2, pc, r2
 3217              		.loc 1 613 1 view .LVU864
 3218 0ffc 033092E7 		ldr	r3, [r2, r3]
 3219 1000 002093E5 		ldr	r2, [r3]
 3220 1004 6C309DE5 		ldr	r3, [sp, #108]
 3221 1008 022033E0 		eors	r2, r3, r2
 3222 100c 0030A0E3 		mov	r3, #0
 3223 1010 BF00001A 		bne	.L237
 3224 1014 0900A0E1 		mov	r0, r9
 3225 1018 74D08DE2 		add	sp, sp, #116
 3226              		.cfi_remember_state
 3227              		.cfi_def_cfa_offset 36
 3228              		@ sp needed
 3229 101c F08FBDE8 		pop	{r4, r5, r6, r7, r8, r9, r10, fp, pc}
 3230              	.LVL262:
 3231              	.L236:
 3232              		.cfi_restore_state
 540:/home/hkh/git/eapidk-code-r76-trunk/apps/EeePProg/linux/../EeePDB.c ****       EeePListBlocks,
 3233              		.loc 1 540 3 discriminator 2 view .LVU865
 3234 1020 0230D6E5 		ldrb	r3, [r6, #2]	@ zero_extendqisi2
 3235 1024 500053E3 		cmp	r3, #80
 3236 1028 E2FFFF1A 		bne	.L204
 540:/home/hkh/git/eapidk-code-r76-trunk/apps/EeePProg/linux/../EeePDB.c ****       EeePListBlocks,
 3237              		.loc 1 540 3 is_stmt 1 discriminator 2 view .LVU866
 549:/home/hkh/git/eapidk-code-r76-trunk/apps/EeePProg/linux/../EeePDB.c **** 
 3238              		.loc 1 549 6 discriminator 2 view .LVU867
 551:/home/hkh/git/eapidk-code-r76-trunk/apps/EeePProg/linux/../EeePDB.c ****   EAPI_MSG_OUT(
 3239              		.loc 1 551 3 discriminator 2 view .LVU868
 551:/home/hkh/git/eapidk-code-r76-trunk/apps/EeePProg/linux/../EeePDB.c ****   EAPI_MSG_OUT(
 3240              		.loc 1 551 3 discriminator 2 view .LVU869
 3241 102c 14208DE2 		add	r2, sp, #20
 3242 1030 18108DE2 		add	r1, sp, #24
 3243 1034 FEFFFFEB 		bl	EeePGetFirstDB(PLT)
 3244              	.LVL263:
 551:/home/hkh/git/eapidk-code-r76-trunk/apps/EeePProg/linux/../EeePDB.c ****   EAPI_MSG_OUT(
 3245              		.loc 1 551 3 discriminator 2 view .LVU870
 3246 1038 009050E2 		subs	r9, r0, #0
ARM GAS  /tmp/ccTXisr2.s 			page 83


 3247 103c 7D00001A 		bne	.L238
 551:/home/hkh/git/eapidk-code-r76-trunk/apps/EeePProg/linux/../EeePDB.c ****   EAPI_MSG_OUT(
 3248              		.loc 1 551 3 discriminator 2 view .LVU871
 552:/home/hkh/git/eapidk-code-r76-trunk/apps/EeePProg/linux/../EeePDB.c ****       TEXT("LOG: Header Size: 0x%02lX\n"),
 3249              		.loc 1 552 3 discriminator 2 view .LVU872
 554:/home/hkh/git/eapidk-code-r76-trunk/apps/EeePProg/linux/../EeePDB.c ****       );
 3250              		.loc 1 554 7 is_stmt 0 discriminator 2 view .LVU873
 3251 1040 18109DE5 		ldr	r1, [sp, #24]
 552:/home/hkh/git/eapidk-code-r76-trunk/apps/EeePProg/linux/../EeePDB.c ****       TEXT("LOG: Header Size: 0x%02lX\n"),
 3252              		.loc 1 552 3 discriminator 2 view .LVU874
 3253 1044 E8029FE5 		ldr	r0, .L244+28
 3254              	.LVL264:
 552:/home/hkh/git/eapidk-code-r76-trunk/apps/EeePProg/linux/../EeePDB.c ****       TEXT("LOG: Header Size: 0x%02lX\n"),
 3255              		.loc 1 552 3 discriminator 2 view .LVU875
 3256 1048 061041E0 		sub	r1, r1, r6
 3257              	.LPIC162:
 3258 104c 00008FE0 		add	r0, pc, r0
 3259 1050 FEFFFFEB 		bl	printf(PLT)
 3260              	.LVL265:
 556:/home/hkh/git/eapidk-code-r76-trunk/apps/EeePProg/linux/../EeePDB.c ****         BHandel, 
 3261              		.loc 1 556 3 is_stmt 1 discriminator 2 view .LVU876
 3262 1054 DC329FE5 		ldr	r3, .L244+32
 3263 1058 0610A0E3 		mov	r1, #6
 3264 105c 0620A0E1 		mov	r2, r6
 3265 1060 0600A0E1 		mov	r0, r6
 3266              	.LPIC163:
 3267 1064 03308FE0 		add	r3, pc, r3
 3268 1068 FEFFFFEB 		bl	PrintHexAsciiTable(PLT)
 3269              	.LVL266:
 563:/home/hkh/git/eapidk-code-r76-trunk/apps/EeePProg/linux/../EeePDB.c ****     PrintHexAsciiTable(
 3270              		.loc 1 563 3 discriminator 2 view .LVU877
 563:/home/hkh/git/eapidk-code-r76-trunk/apps/EeePProg/linux/../EeePDB.c ****     PrintHexAsciiTable(
 3271              		.loc 1 563 6 is_stmt 0 discriminator 2 view .LVU878
 3272 106c 18409DE5 		ldr	r4, [sp, #24]
 3273 1070 061044E0 		sub	r1, r4, r6
 563:/home/hkh/git/eapidk-code-r76-trunk/apps/EeePProg/linux/../EeePDB.c ****     PrintHexAsciiTable(
 3274              		.loc 1 563 5 discriminator 2 view .LVU879
 3275 1074 060051E3 		cmp	r1, #6
 3276 1078 7C00008A 		bhi	.L239
 3277              	.L208:
 572:/home/hkh/git/eapidk-code-r76-trunk/apps/EeePProg/linux/../EeePDB.c ****   {
 3278              		.loc 1 572 17 is_stmt 1 discriminator 1 view .LVU880
 3279 107c 000054E3 		cmp	r4, #0
 3280 1080 DAFFFF0A 		beq	.L201
 3281              	.LBB282:
 3282              	.LBB283:
 3283              	.LBB284:
 3284              	.LBB285:
  67:/home/hkh/git/eapidk-code-r76-trunk/apps/EeePProg/linux/../EeePDB.c ****     if(pStrTbl->cuiValue==uiValue){
 3285              		.loc 1 67 15 is_stmt 0 view .LVU881
 3286 1084 B0829FE5 		ldr	r8, .L244+36
 3287 1088 1C708DE2 		add	r7, sp, #28
  77:/home/hkh/git/eapidk-code-r76-trunk/apps/EeePProg/linux/../EeePDB.c ****   StatusCode=EAPI_STATUS_ERROR;
 3288              		.loc 1 77 3 view .LVU882
 3289 108c ACA29FE5 		ldr	r10, .L244+40
  72:/home/hkh/git/eapidk-code-r76-trunk/apps/EeePProg/linux/../EeePDB.c **** #endif
 3290              		.loc 1 72 7 view .LVU883
ARM GAS  /tmp/ccTXisr2.s 			page 84


 3291 1090 ACB29FE5 		ldr	fp, .L244+44
  67:/home/hkh/git/eapidk-code-r76-trunk/apps/EeePProg/linux/../EeePDB.c ****     if(pStrTbl->cuiValue==uiValue){
 3292              		.loc 1 67 15 view .LVU884
 3293              	.LPIC165:
 3294 1094 08808FE0 		add	r8, pc, r8
  77:/home/hkh/git/eapidk-code-r76-trunk/apps/EeePProg/linux/../EeePDB.c ****   StatusCode=EAPI_STATUS_ERROR;
 3295              		.loc 1 77 3 view .LVU885
 3296              	.LPIC168:
 3297 1098 0AA08FE0 		add	r10, pc, r10
  72:/home/hkh/git/eapidk-code-r76-trunk/apps/EeePProg/linux/../EeePDB.c **** #endif
 3298              		.loc 1 72 7 view .LVU886
 3299              	.LPIC167:
 3300 109c 0BB08FE0 		add	fp, pc, fp
 3301              	.L209:
 3302              	.LBE285:
 3303              	.LBE284:
 3304              	.LBE283:
 3305              	.LBE282:
 574:/home/hkh/git/eapidk-code-r76-trunk/apps/EeePProg/linux/../EeePDB.c ****     BlockLen=GetBlockLength(pCurBlock);
 3306              		.loc 1 574 5 is_stmt 1 view .LVU887
 3307              	.LBB298:
 3308              	.LBB299:
 3309              	.LBB300:
 3310              	.LBB301:
 151:/home/hkh/git/eapidk-code-r76-trunk/apps/EeePProg/linux/../EeePDB.c ****   return stBlockSize;
 3311              		.loc 1 151 15 is_stmt 0 view .LVU888
 3312 10a0 010084E2 		add	r0, r4, #1
 3313              	.LBE301:
 3314              	.LBE300:
 3315              	.LBE299:
 3316              	.LBE298:
 574:/home/hkh/git/eapidk-code-r76-trunk/apps/EeePProg/linux/../EeePDB.c ****     BlockLen=GetBlockLength(pCurBlock);
 3317              		.loc 1 574 15 view .LVU889
 3318 10a4 064044E0 		sub	r4, r4, r6
 3319              	.LVL267:
 575:/home/hkh/git/eapidk-code-r76-trunk/apps/EeePProg/linux/../EeePDB.c ****     GetDBlckIdString(BlockName, ARRAY_SIZE(BlockName), pCurBlock->DBlockId);
 3320              		.loc 1 575 5 is_stmt 1 view .LVU890
 3321              	.LBB308:
 3322              	.LBI298:
 144:/home/hkh/git/eapidk-code-r76-trunk/apps/EeePProg/linux/../EeePDB.c ****     const void * pcvBHandel
 3323              		.loc 1 144 1 view .LVU891
 3324              	.LBB306:
 148:/home/hkh/git/eapidk-code-r76-trunk/apps/EeePProg/linux/../EeePDB.c ****   if(!pcvBHandel) return stBlockSize;
 3325              		.loc 1 148 3 view .LVU892
 149:/home/hkh/git/eapidk-code-r76-trunk/apps/EeePProg/linux/../EeePDB.c **** 
 3326              		.loc 1 149 3 view .LVU893
 3327              	.LBB304:
 3328              	.LBI300:
 144:/home/hkh/git/eapidk-code-r76-trunk/apps/EeePProg/linux/../EeePDB.c ****     const void * pcvBHandel
 3329              		.loc 1 144 1 view .LVU894
 3330              	.LBB302:
 151:/home/hkh/git/eapidk-code-r76-trunk/apps/EeePProg/linux/../EeePDB.c ****   return stBlockSize;
 3331              		.loc 1 151 3 view .LVU895
 151:/home/hkh/git/eapidk-code-r76-trunk/apps/EeePProg/linux/../EeePDB.c ****   return stBlockSize;
 3332              		.loc 1 151 15 is_stmt 0 view .LVU896
 3333 10a8 FEFFFFEB 		bl	EeeP_Get16BitValue_BE(PLT)
 3334              	.LVL268:
ARM GAS  /tmp/ccTXisr2.s 			page 85


 151:/home/hkh/git/eapidk-code-r76-trunk/apps/EeePProg/linux/../EeePDB.c ****   return stBlockSize;
 3335              		.loc 1 151 15 view .LVU897
 3336              	.LBE302:
 3337              	.LBE304:
 3338              	.LBE306:
 3339              	.LBE308:
 3340              	.LBB309:
 3341              	.LBB294:
 3342              	.LBB290:
 3343              	.LBB286:
  67:/home/hkh/git/eapidk-code-r76-trunk/apps/EeePProg/linux/../EeePDB.c ****     if(pStrTbl->cuiValue==uiValue){
 3344              		.loc 1 67 15 view .LVU898
 3345 10ac 003098E5 		ldr	r3, [r8]
 3346              	.LBE286:
 3347              	.LBE290:
 3348              	.LBE294:
 3349              	.LBE309:
 3350              	.LBB310:
 3351              	.LBB307:
 3352              	.LBB305:
 3353              	.LBB303:
 151:/home/hkh/git/eapidk-code-r76-trunk/apps/EeePProg/linux/../EeePDB.c ****   return stBlockSize;
 3354              		.loc 1 151 81 view .LVU899
 3355 10b0 8050A0E1 		lsl	r5, r0, #1
 3356              	.LVL269:
 152:/home/hkh/git/eapidk-code-r76-trunk/apps/EeePProg/linux/../EeePDB.c **** }
 3357              		.loc 1 152 3 is_stmt 1 view .LVU900
 152:/home/hkh/git/eapidk-code-r76-trunk/apps/EeePProg/linux/../EeePDB.c **** }
 3358              		.loc 1 152 3 is_stmt 0 view .LVU901
 3359              	.LBE303:
 3360              	.LBE305:
 3361              	.LBE307:
 3362              	.LBE310:
 576:/home/hkh/git/eapidk-code-r76-trunk/apps/EeePProg/linux/../EeePDB.c ****     EAPI_MSG_OUT(
 3363              		.loc 1 576 5 is_stmt 1 view .LVU902
 576:/home/hkh/git/eapidk-code-r76-trunk/apps/EeePProg/linux/../EeePDB.c ****     EAPI_MSG_OUT(
 3364              		.loc 1 576 65 is_stmt 0 view .LVU903
 3365 10b4 18209DE5 		ldr	r2, [sp, #24]
 3366              	.LBB311:
 3367              	.LBB295:
 3368              	.LBB291:
 3369              	.LBB287:
  67:/home/hkh/git/eapidk-code-r76-trunk/apps/EeePProg/linux/../EeePDB.c ****     if(pStrTbl->cuiValue==uiValue){
 3370              		.loc 1 67 25 view .LVU904
 3371 10b8 000053E3 		cmp	r3, #0
 3372              	.LBE287:
 3373              	.LBE291:
 3374              	.LBE295:
 3375              	.LBE311:
 576:/home/hkh/git/eapidk-code-r76-trunk/apps/EeePProg/linux/../EeePDB.c ****     EAPI_MSG_OUT(
 3376              		.loc 1 576 5 view .LVU905
 3377 10bc 0000D2E5 		ldrb	r0, [r2]	@ zero_extendqisi2
 3378              	.LVL270:
 3379              	.LBB312:
 3380              	.LBI282:
  84:/home/hkh/git/eapidk-code-r76-trunk/apps/EeePProg/linux/../EeePDB.c ****     __OUT TCHAR *        pszString,
 3381              		.loc 1 84 1 is_stmt 1 view .LVU906
ARM GAS  /tmp/ccTXisr2.s 			page 86


 3382              	.LBB296:
  90:/home/hkh/git/eapidk-code-r76-trunk/apps/EeePProg/linux/../EeePDB.c **** }
 3383              		.loc 1 90 3 view .LVU907
 3384              	.LBB292:
 3385              	.LBI284:
  59:/home/hkh/git/eapidk-code-r76-trunk/apps/EeePProg/linux/../EeePDB.c ****     __IN  StringLookup_t *pStrTbl,
 3386              		.loc 1 59 1 view .LVU908
 3387              	.LBB288:
  67:/home/hkh/git/eapidk-code-r76-trunk/apps/EeePProg/linux/../EeePDB.c ****     if(pStrTbl->cuiValue==uiValue){
 3388              		.loc 1 67 25 view .LVU909
 3389 10c0 3700000A 		beq	.L210
 3390 10c4 0820A0E1 		mov	r2, r8
 3391 10c8 020000EA 		b	.L213
 3392              	.LVL271:
 3393              	.L211:
  67:/home/hkh/git/eapidk-code-r76-trunk/apps/EeePProg/linux/../EeePDB.c ****     if(pStrTbl->cuiValue==uiValue){
 3394              		.loc 1 67 39 view .LVU910
  67:/home/hkh/git/eapidk-code-r76-trunk/apps/EeePProg/linux/../EeePDB.c ****     if(pStrTbl->cuiValue==uiValue){
 3395              		.loc 1 67 25 view .LVU911
  67:/home/hkh/git/eapidk-code-r76-trunk/apps/EeePProg/linux/../EeePDB.c ****     if(pStrTbl->cuiValue==uiValue){
 3396              		.loc 1 67 15 is_stmt 0 view .LVU912
 3397 10cc 0830B2E5 		ldr	r3, [r2, #8]!
 3398              	.LVL272:
  67:/home/hkh/git/eapidk-code-r76-trunk/apps/EeePProg/linux/../EeePDB.c ****     if(pStrTbl->cuiValue==uiValue){
 3399              		.loc 1 67 25 view .LVU913
 3400 10d0 000053E3 		cmp	r3, #0
 3401 10d4 3200000A 		beq	.L210
 3402              	.LVL273:
 3403              	.L213:
  68:/home/hkh/git/eapidk-code-r76-trunk/apps/EeePProg/linux/../EeePDB.c **** #if UNICODE
 3404              		.loc 1 68 5 is_stmt 1 view .LVU914
  68:/home/hkh/git/eapidk-code-r76-trunk/apps/EeePProg/linux/../EeePDB.c **** #if UNICODE
 3405              		.loc 1 68 7 is_stmt 0 view .LVU915
 3406 10d8 041092E5 		ldr	r1, [r2, #4]
 3407 10dc 010050E1 		cmp	r0, r1
 3408 10e0 F9FFFF1A 		bne	.L211
  72:/home/hkh/git/eapidk-code-r76-trunk/apps/EeePProg/linux/../EeePDB.c **** #endif
 3409              		.loc 1 72 7 is_stmt 1 view .LVU916
 3410 10e4 0B20A0E1 		mov	r2, fp
 3411              	.LVL274:
  72:/home/hkh/git/eapidk-code-r76-trunk/apps/EeePProg/linux/../EeePDB.c **** #endif
 3412              		.loc 1 72 7 is_stmt 0 view .LVU917
 3413 10e8 5010A0E3 		mov	r1, #80
 3414 10ec 0700A0E1 		mov	r0, r7
 3415              	.LVL275:
  72:/home/hkh/git/eapidk-code-r76-trunk/apps/EeePProg/linux/../EeePDB.c **** #endif
 3416              		.loc 1 72 7 view .LVU918
 3417 10f0 FEFFFFEB 		bl	EApiSprintf(PLT)
 3418              	.LVL276:
  74:/home/hkh/git/eapidk-code-r76-trunk/apps/EeePProg/linux/../EeePDB.c ****     }
 3419              		.loc 1 74 7 is_stmt 1 view .LVU919
 3420              	.L212:
  80:/home/hkh/git/eapidk-code-r76-trunk/apps/EeePProg/linux/../EeePDB.c **** }
 3421              		.loc 1 80 3 view .LVU920
  80:/home/hkh/git/eapidk-code-r76-trunk/apps/EeePProg/linux/../EeePDB.c **** }
 3422              		.loc 1 80 3 is_stmt 0 view .LVU921
 3423              	.LBE288:
ARM GAS  /tmp/ccTXisr2.s 			page 87


 3424              	.LBE292:
 3425              	.LBE296:
 3426              	.LBE312:
 577:/home/hkh/git/eapidk-code-r76-trunk/apps/EeePProg/linux/../EeePDB.c ****         TEXT("\n")
 3427              		.loc 1 577 5 is_stmt 1 view .LVU922
 587:/home/hkh/git/eapidk-code-r76-trunk/apps/EeePProg/linux/../EeePDB.c ****         (unsigned long)BlockLen,
 3428              		.loc 1 587 18 is_stmt 0 view .LVU923
 3429 10f4 18209DE5 		ldr	r2, [sp, #24]
 577:/home/hkh/git/eapidk-code-r76-trunk/apps/EeePProg/linux/../EeePDB.c ****         TEXT("\n")
 3430              		.loc 1 577 5 view .LVU924
 3431 10f8 0530A0E1 		mov	r3, r5
 3432 10fc 44029FE5 		ldr	r0, .L244+48
 3433 1100 0710A0E1 		mov	r1, r7
 3434 1104 0020D2E5 		ldrb	r2, [r2]	@ zero_extendqisi2
 3435              	.LPIC169:
 3436 1108 00008FE0 		add	r0, pc, r0
 3437 110c 00408DE5 		str	r4, [sp]
 3438 1110 FEFFFFEB 		bl	printf(PLT)
 3439              	.LVL277:
 591:/home/hkh/git/eapidk-code-r76-trunk/apps/EeePProg/linux/../EeePDB.c ****       EeePListBlocks    ,
 3440              		.loc 1 591 5 is_stmt 1 view .LVU925
 3441 1114 14309DE5 		ldr	r3, [sp, #20]
 3442 1118 040053E1 		cmp	r3, r4
 3443 111c 5B00003A 		bcc	.L240
 591:/home/hkh/git/eapidk-code-r76-trunk/apps/EeePProg/linux/../EeePDB.c ****       EeePListBlocks    ,
 3444              		.loc 1 591 5 discriminator 2 view .LVU926
 595:/home/hkh/git/eapidk-code-r76-trunk/apps/EeePProg/linux/../EeePDB.c ****     EAPI_APP_RETURN_ERROR_IF_S(
 3445              		.loc 1 595 8 discriminator 2 view .LVU927
 596:/home/hkh/git/eapidk-code-r76-trunk/apps/EeePProg/linux/../EeePDB.c ****       EeePListBlocks    ,
 3446              		.loc 1 596 5 discriminator 2 view .LVU928
 3447 1120 054084E0 		add	r4, r4, r5
 3448              	.LVL278:
 596:/home/hkh/git/eapidk-code-r76-trunk/apps/EeePProg/linux/../EeePDB.c ****       EeePListBlocks    ,
 3449              		.loc 1 596 5 is_stmt 0 discriminator 2 view .LVU929
 3450 1124 040053E1 		cmp	r3, r4
 3451 1128 6300003A 		bcc	.L241
 596:/home/hkh/git/eapidk-code-r76-trunk/apps/EeePProg/linux/../EeePDB.c ****       EeePListBlocks    ,
 3452              		.loc 1 596 5 is_stmt 1 discriminator 2 view .LVU930
 600:/home/hkh/git/eapidk-code-r76-trunk/apps/EeePProg/linux/../EeePDB.c ****     if(GetNextBlock(pCurBlock)!=NULL){
 3453              		.loc 1 600 8 discriminator 2 view .LVU931
 601:/home/hkh/git/eapidk-code-r76-trunk/apps/EeePProg/linux/../EeePDB.c ****       PrintHexAsciiTable(
 3454              		.loc 1 601 5 discriminator 2 view .LVU932
 601:/home/hkh/git/eapidk-code-r76-trunk/apps/EeePProg/linux/../EeePDB.c ****       PrintHexAsciiTable(
 3455              		.loc 1 601 8 is_stmt 0 discriminator 2 view .LVU933
 3456 112c 18009DE5 		ldr	r0, [sp, #24]
 3457              	.LVL279:
 3458              	.LBB313:
 3459              	.LBI313:
 155:/home/hkh/git/eapidk-code-r76-trunk/apps/EeePProg/linux/../EeePDB.c ****     DBlockIdHdr_t *pCurBlock
 3460              		.loc 1 155 1 is_stmt 1 discriminator 2 view .LVU934
 3461              	.LBB314:
 159:/home/hkh/git/eapidk-code-r76-trunk/apps/EeePProg/linux/../EeePDB.c ****   size_t stBlockLength;
 3462              		.loc 1 159 3 discriminator 2 view .LVU935
 160:/home/hkh/git/eapidk-code-r76-trunk/apps/EeePProg/linux/../EeePDB.c ****   EAPI_APP_ASSERT_PARAMATER_NULL(
 3463              		.loc 1 160 3 discriminator 2 view .LVU936
 161:/home/hkh/git/eapidk-code-r76-trunk/apps/EeePProg/linux/../EeePDB.c ****       GetNextBlock,
 3464              		.loc 1 161 3 discriminator 2 view .LVU937
ARM GAS  /tmp/ccTXisr2.s 			page 88


 3465 1130 000050E3 		cmp	r0, #0
 3466 1134 1F00000A 		beq	.L242
 161:/home/hkh/git/eapidk-code-r76-trunk/apps/EeePProg/linux/../EeePDB.c ****       GetNextBlock,
 3467              		.loc 1 161 3 view .LVU938
 165:/home/hkh/git/eapidk-code-r76-trunk/apps/EeePProg/linux/../EeePDB.c ****   stBlockLength=GetBlockLength(pCurBlock);
 3468              		.loc 1 165 6 view .LVU939
 166:/home/hkh/git/eapidk-code-r76-trunk/apps/EeePProg/linux/../EeePDB.c ****   switch(stBlockLength){
 3469              		.loc 1 166 3 view .LVU940
 3470              	.LVL280:
 3471              	.LBB315:
 3472              	.LBI315:
 144:/home/hkh/git/eapidk-code-r76-trunk/apps/EeePProg/linux/../EeePDB.c ****     const void * pcvBHandel
 3473              		.loc 1 144 1 view .LVU941
 3474              	.LBB316:
 148:/home/hkh/git/eapidk-code-r76-trunk/apps/EeePProg/linux/../EeePDB.c ****   if(!pcvBHandel) return stBlockSize;
 3475              		.loc 1 148 3 view .LVU942
 149:/home/hkh/git/eapidk-code-r76-trunk/apps/EeePProg/linux/../EeePDB.c **** 
 3476              		.loc 1 149 3 view .LVU943
 3477              	.LBB317:
 3478              	.LBI317:
 144:/home/hkh/git/eapidk-code-r76-trunk/apps/EeePProg/linux/../EeePDB.c ****     const void * pcvBHandel
 3479              		.loc 1 144 1 view .LVU944
 3480              	.LBB318:
 151:/home/hkh/git/eapidk-code-r76-trunk/apps/EeePProg/linux/../EeePDB.c ****   return stBlockSize;
 3481              		.loc 1 151 3 view .LVU945
 151:/home/hkh/git/eapidk-code-r76-trunk/apps/EeePProg/linux/../EeePDB.c ****   return stBlockSize;
 3482              		.loc 1 151 15 is_stmt 0 view .LVU946
 3483 1138 010080E2 		add	r0, r0, #1
 3484              	.LVL281:
 151:/home/hkh/git/eapidk-code-r76-trunk/apps/EeePProg/linux/../EeePDB.c ****   return stBlockSize;
 3485              		.loc 1 151 15 view .LVU947
 3486 113c FEFFFFEB 		bl	EeeP_Get16BitValue_BE(PLT)
 3487              	.LVL282:
 152:/home/hkh/git/eapidk-code-r76-trunk/apps/EeePProg/linux/../EeePDB.c **** }
 3488              		.loc 1 152 3 is_stmt 1 view .LVU948
 152:/home/hkh/git/eapidk-code-r76-trunk/apps/EeePProg/linux/../EeePDB.c **** }
 3489              		.loc 1 152 3 is_stmt 0 view .LVU949
 3490              	.LBE318:
 3491              	.LBE317:
 3492              	.LBE316:
 3493              	.LBE315:
 167:/home/hkh/git/eapidk-code-r76-trunk/apps/EeePProg/linux/../EeePDB.c ****     case EEEP_OFFSET_VALUE_EOL:
 3494              		.loc 1 167 3 is_stmt 1 view .LVU950
 3495 1140 000050E3 		cmp	r0, #0
 3496              	.LVL283:
 167:/home/hkh/git/eapidk-code-r76-trunk/apps/EeePProg/linux/../EeePDB.c ****     case EEEP_OFFSET_VALUE_EOL:
 3497              		.loc 1 167 3 is_stmt 0 view .LVU951
 3498 1144 0800000A 		beq	.L217
 3499 1148 FF3F0FE3 		movw	r3, #65535
 3500 114c 030050E1 		cmp	r0, r3
 3501 1150 0500000A 		beq	.L217
 171:/home/hkh/git/eapidk-code-r76-trunk/apps/EeePProg/linux/../EeePDB.c ****     default:
 3502              		.loc 1 171 7 is_stmt 1 view .LVU952
 173:/home/hkh/git/eapidk-code-r76-trunk/apps/EeePProg/linux/../EeePDB.c ****           pCurBlock         ,
 3503              		.loc 1 173 7 view .LVU953
 3504              	.LVL284:
 178:/home/hkh/git/eapidk-code-r76-trunk/apps/EeePProg/linux/../EeePDB.c ****       }
ARM GAS  /tmp/ccTXisr2.s 			page 89


 3505              		.loc 1 178 7 view .LVU954
 3506              	.LDL17:
 3507              	.LDL18:
 182:/home/hkh/git/eapidk-code-r76-trunk/apps/EeePProg/linux/../EeePDB.c **** }
 3508              		.loc 1 182 3 view .LVU955
 182:/home/hkh/git/eapidk-code-r76-trunk/apps/EeePProg/linux/../EeePDB.c **** }
 3509              		.loc 1 182 3 is_stmt 0 view .LVU956
 3510              	.LBE314:
 3511              	.LBE313:
 602:/home/hkh/git/eapidk-code-r76-trunk/apps/EeePProg/linux/../EeePDB.c ****             EAPI_CREATE_PTR(pCurBlock, sizeof(*pCurBlock), void *), 
 3512              		.loc 1 602 7 is_stmt 1 view .LVU957
 3513 1154 18009DE5 		ldr	r0, [sp, #24]
 3514 1158 0030A0E3 		mov	r3, #0
 3515 115c 0620A0E1 		mov	r2, r6
 3516 1160 031045E2 		sub	r1, r5, #3
 3517 1164 030080E2 		add	r0, r0, #3
 3518 1168 FEFFFFEB 		bl	PrintHexAsciiTable(PLT)
 3519              	.LVL285:
 3520              	.L217:
 572:/home/hkh/git/eapidk-code-r76-trunk/apps/EeePProg/linux/../EeePDB.c ****   {
 3521              		.loc 1 572 33 view .LVU958
 572:/home/hkh/git/eapidk-code-r76-trunk/apps/EeePProg/linux/../EeePDB.c ****   {
 3522              		.loc 1 572 34 is_stmt 0 view .LVU959
 3523 116c 18509DE5 		ldr	r5, [sp, #24]
 3524              	.LVL286:
 3525              	.LBB322:
 3526              	.LBI322:
 155:/home/hkh/git/eapidk-code-r76-trunk/apps/EeePProg/linux/../EeePDB.c ****     DBlockIdHdr_t *pCurBlock
 3527              		.loc 1 155 1 is_stmt 1 view .LVU960
 3528              	.LBB323:
 159:/home/hkh/git/eapidk-code-r76-trunk/apps/EeePProg/linux/../EeePDB.c ****   size_t stBlockLength;
 3529              		.loc 1 159 3 view .LVU961
 160:/home/hkh/git/eapidk-code-r76-trunk/apps/EeePProg/linux/../EeePDB.c ****   EAPI_APP_ASSERT_PARAMATER_NULL(
 3530              		.loc 1 160 3 view .LVU962
 161:/home/hkh/git/eapidk-code-r76-trunk/apps/EeePProg/linux/../EeePDB.c ****       GetNextBlock,
 3531              		.loc 1 161 3 view .LVU963
 3532 1170 000055E3 		cmp	r5, #0
 3533 1174 2000000A 		beq	.L243
 3534              	.LVL287:
 3535              	.L218:
 161:/home/hkh/git/eapidk-code-r76-trunk/apps/EeePProg/linux/../EeePDB.c ****       GetNextBlock,
 3536              		.loc 1 161 3 view .LVU964
 165:/home/hkh/git/eapidk-code-r76-trunk/apps/EeePProg/linux/../EeePDB.c ****   stBlockLength=GetBlockLength(pCurBlock);
 3537              		.loc 1 165 6 view .LVU965
 166:/home/hkh/git/eapidk-code-r76-trunk/apps/EeePProg/linux/../EeePDB.c ****   switch(stBlockLength){
 3538              		.loc 1 166 3 view .LVU966
 3539              	.LBB324:
 3540              	.LBI324:
 144:/home/hkh/git/eapidk-code-r76-trunk/apps/EeePProg/linux/../EeePDB.c ****     const void * pcvBHandel
 3541              		.loc 1 144 1 view .LVU967
 3542              	.LBB325:
 148:/home/hkh/git/eapidk-code-r76-trunk/apps/EeePProg/linux/../EeePDB.c ****   if(!pcvBHandel) return stBlockSize;
 3543              		.loc 1 148 3 view .LVU968
 149:/home/hkh/git/eapidk-code-r76-trunk/apps/EeePProg/linux/../EeePDB.c **** 
 3544              		.loc 1 149 3 view .LVU969
 3545              	.LBB326:
 3546              	.LBI326:
ARM GAS  /tmp/ccTXisr2.s 			page 90


 144:/home/hkh/git/eapidk-code-r76-trunk/apps/EeePProg/linux/../EeePDB.c ****     const void * pcvBHandel
 3547              		.loc 1 144 1 view .LVU970
 3548              	.LBB327:
 151:/home/hkh/git/eapidk-code-r76-trunk/apps/EeePProg/linux/../EeePDB.c ****   return stBlockSize;
 3549              		.loc 1 151 3 view .LVU971
 151:/home/hkh/git/eapidk-code-r76-trunk/apps/EeePProg/linux/../EeePDB.c ****   return stBlockSize;
 3550              		.loc 1 151 15 is_stmt 0 view .LVU972
 3551 1178 010085E2 		add	r0, r5, #1
 3552 117c FEFFFFEB 		bl	EeeP_Get16BitValue_BE(PLT)
 3553              	.LVL288:
 3554              	.LBE327:
 3555              	.LBE326:
 3556              	.LBE325:
 3557              	.LBE324:
 167:/home/hkh/git/eapidk-code-r76-trunk/apps/EeePProg/linux/../EeePDB.c ****     case EEEP_OFFSET_VALUE_EOL:
 3558              		.loc 1 167 3 view .LVU973
 3559 1180 000050E3 		cmp	r0, #0
 3560              	.LBB331:
 3561              	.LBB330:
 3562              	.LBB329:
 3563              	.LBB328:
 151:/home/hkh/git/eapidk-code-r76-trunk/apps/EeePProg/linux/../EeePDB.c ****   return stBlockSize;
 3564              		.loc 1 151 81 view .LVU974
 3565 1184 8040A0E1 		lsl	r4, r0, #1
 3566              	.LVL289:
 152:/home/hkh/git/eapidk-code-r76-trunk/apps/EeePProg/linux/../EeePDB.c **** }
 3567              		.loc 1 152 3 is_stmt 1 view .LVU975
 152:/home/hkh/git/eapidk-code-r76-trunk/apps/EeePProg/linux/../EeePDB.c **** }
 3568              		.loc 1 152 3 is_stmt 0 view .LVU976
 3569              	.LBE328:
 3570              	.LBE329:
 3571              	.LBE330:
 3572              	.LBE331:
 167:/home/hkh/git/eapidk-code-r76-trunk/apps/EeePProg/linux/../EeePDB.c ****     case EEEP_OFFSET_VALUE_EOL:
 3573              		.loc 1 167 3 is_stmt 1 view .LVU977
 3574 1188 98FFFF0A 		beq	.L201
 167:/home/hkh/git/eapidk-code-r76-trunk/apps/EeePProg/linux/../EeePDB.c ****     case EEEP_OFFSET_VALUE_EOL:
 3575              		.loc 1 167 3 is_stmt 0 view .LVU978
 3576 118c FF3F0FE3 		movw	r3, #65535
 3577 1190 030050E1 		cmp	r0, r3
 3578 1194 95FFFF0A 		beq	.L201
 171:/home/hkh/git/eapidk-code-r76-trunk/apps/EeePProg/linux/../EeePDB.c ****     default:
 3579              		.loc 1 171 7 is_stmt 1 view .LVU979
 173:/home/hkh/git/eapidk-code-r76-trunk/apps/EeePProg/linux/../EeePDB.c ****           pCurBlock         ,
 3580              		.loc 1 173 7 view .LVU980
 173:/home/hkh/git/eapidk-code-r76-trunk/apps/EeePProg/linux/../EeePDB.c ****           pCurBlock         ,
 3581              		.loc 1 173 17 is_stmt 0 view .LVU981
 3582 1198 044085E0 		add	r4, r5, r4
 3583              	.LVL290:
 178:/home/hkh/git/eapidk-code-r76-trunk/apps/EeePProg/linux/../EeePDB.c ****       }
 3584              		.loc 1 178 7 is_stmt 1 view .LVU982
 3585              	.LDL19:
 3586              	.LDL20:
 182:/home/hkh/git/eapidk-code-r76-trunk/apps/EeePProg/linux/../EeePDB.c **** }
 3587              		.loc 1 182 3 view .LVU983
 182:/home/hkh/git/eapidk-code-r76-trunk/apps/EeePProg/linux/../EeePDB.c **** }
 3588              		.loc 1 182 3 is_stmt 0 view .LVU984
ARM GAS  /tmp/ccTXisr2.s 			page 91


 3589              	.LBE323:
 3590              	.LBE322:
 572:/home/hkh/git/eapidk-code-r76-trunk/apps/EeePProg/linux/../EeePDB.c ****   {
 3591              		.loc 1 572 33 view .LVU985
 3592 119c 18408DE5 		str	r4, [sp, #24]
 572:/home/hkh/git/eapidk-code-r76-trunk/apps/EeePProg/linux/../EeePDB.c ****   {
 3593              		.loc 1 572 17 is_stmt 1 view .LVU986
 3594 11a0 BEFFFFEA 		b	.L209
 3595              	.LVL291:
 3596              	.L210:
 3597              	.LBB335:
 3598              	.LBB297:
 3599              	.LBB293:
 3600              	.LBB289:
  77:/home/hkh/git/eapidk-code-r76-trunk/apps/EeePProg/linux/../EeePDB.c ****   StatusCode=EAPI_STATUS_ERROR;
 3601              		.loc 1 77 3 view .LVU987
 3602 11a4 0A20A0E1 		mov	r2, r10
 3603 11a8 5010A0E3 		mov	r1, #80
 3604 11ac 0700A0E1 		mov	r0, r7
 3605              	.LVL292:
  77:/home/hkh/git/eapidk-code-r76-trunk/apps/EeePProg/linux/../EeePDB.c ****   StatusCode=EAPI_STATUS_ERROR;
 3606              		.loc 1 77 3 is_stmt 0 view .LVU988
 3607 11b0 FEFFFFEB 		bl	EApiSprintf(PLT)
 3608              	.LVL293:
  78:/home/hkh/git/eapidk-code-r76-trunk/apps/EeePProg/linux/../EeePDB.c **** ExitSuccess:
 3609              		.loc 1 78 3 is_stmt 1 view .LVU989
  78:/home/hkh/git/eapidk-code-r76-trunk/apps/EeePProg/linux/../EeePDB.c **** ExitSuccess:
 3610              		.loc 1 78 3 is_stmt 0 view .LVU990
 3611 11b4 CEFFFFEA 		b	.L212
 3612              	.LVL294:
 3613              	.L242:
  78:/home/hkh/git/eapidk-code-r76-trunk/apps/EeePProg/linux/../EeePDB.c **** ExitSuccess:
 3614              		.loc 1 78 3 view .LVU991
 3615              	.LBE289:
 3616              	.LBE293:
 3617              	.LBE297:
 3618              	.LBE335:
 3619              	.LBB336:
 3620              	.LBB321:
 3621              	.LBB319:
 3622              	.LBI319:
 155:/home/hkh/git/eapidk-code-r76-trunk/apps/EeePProg/linux/../EeePDB.c ****     DBlockIdHdr_t *pCurBlock
 3623              		.loc 1 155 1 is_stmt 1 view .LVU992
 3624              	.LBB320:
 161:/home/hkh/git/eapidk-code-r76-trunk/apps/EeePProg/linux/../EeePDB.c ****       GetNextBlock,
 3625              		.loc 1 161 3 view .LVU993
 161:/home/hkh/git/eapidk-code-r76-trunk/apps/EeePProg/linux/../EeePDB.c ****       GetNextBlock,
 3626              		.loc 1 161 3 view .LVU994
 3627 11b8 8C319FE5 		ldr	r3, .L244+52
 3628 11bc 8C219FE5 		ldr	r2, .L244+56
 3629 11c0 8C119FE5 		ldr	r1, .L244+60
 3630              	.LPIC180:
 3631 11c4 03308FE0 		add	r3, pc, r3
 3632 11c8 00008DE5 		str	r0, [sp]
 3633 11cc 08308DE5 		str	r3, [sp, #8]
 3634              	.LPIC178:
 3635 11d0 02208FE0 		add	r2, pc, r2
ARM GAS  /tmp/ccTXisr2.s 			page 92


 3636 11d4 7C319FE5 		ldr	r3, .L244+64
 3637              	.LPIC179:
 3638 11d8 01108FE0 		add	r1, pc, r1
 3639 11dc 4500A0E3 		mov	r0, #69
 3640              	.LVL295:
 161:/home/hkh/git/eapidk-code-r76-trunk/apps/EeePProg/linux/../EeePDB.c ****       GetNextBlock,
 3641              		.loc 1 161 3 is_stmt 0 view .LVU995
 3642              	.LPIC181:
 3643 11e0 03308FE0 		add	r3, pc, r3
 3644 11e4 04308DE5 		str	r3, [sp, #4]
 3645 11e8 A130A0E3 		mov	r3, #161
 3646 11ec FEFFFFEB 		bl	siFormattedMessage_SC(PLT)
 3647              	.LVL296:
 161:/home/hkh/git/eapidk-code-r76-trunk/apps/EeePProg/linux/../EeePDB.c ****       GetNextBlock,
 3648              		.loc 1 161 3 is_stmt 1 view .LVU996
 161:/home/hkh/git/eapidk-code-r76-trunk/apps/EeePProg/linux/../EeePDB.c ****       GetNextBlock,
 3649              		.loc 1 161 3 view .LVU997
 161:/home/hkh/git/eapidk-code-r76-trunk/apps/EeePProg/linux/../EeePDB.c ****       GetNextBlock,
 3650              		.loc 1 161 3 view .LVU998
 3651              	.LDL21:
 3652              	.LDL22:
 182:/home/hkh/git/eapidk-code-r76-trunk/apps/EeePProg/linux/../EeePDB.c **** }
 3653              		.loc 1 182 3 view .LVU999
 182:/home/hkh/git/eapidk-code-r76-trunk/apps/EeePProg/linux/../EeePDB.c **** }
 3654              		.loc 1 182 3 is_stmt 0 view .LVU1000
 3655              	.LBE320:
 3656              	.LBE319:
 182:/home/hkh/git/eapidk-code-r76-trunk/apps/EeePProg/linux/../EeePDB.c **** }
 3657              		.loc 1 182 3 is_stmt 1 view .LVU1001
 182:/home/hkh/git/eapidk-code-r76-trunk/apps/EeePProg/linux/../EeePDB.c **** }
 3658              		.loc 1 182 3 is_stmt 0 view .LVU1002
 3659              	.LBE321:
 3660              	.LBE336:
 572:/home/hkh/git/eapidk-code-r76-trunk/apps/EeePProg/linux/../EeePDB.c ****   {
 3661              		.loc 1 572 33 is_stmt 1 view .LVU1003
 572:/home/hkh/git/eapidk-code-r76-trunk/apps/EeePProg/linux/../EeePDB.c ****   {
 3662              		.loc 1 572 34 is_stmt 0 view .LVU1004
 3663 11f0 18509DE5 		ldr	r5, [sp, #24]
 3664              	.LVL297:
 3665              	.LBB337:
 155:/home/hkh/git/eapidk-code-r76-trunk/apps/EeePProg/linux/../EeePDB.c ****     DBlockIdHdr_t *pCurBlock
 3666              		.loc 1 155 1 is_stmt 1 view .LVU1005
 3667              	.LBB334:
 159:/home/hkh/git/eapidk-code-r76-trunk/apps/EeePProg/linux/../EeePDB.c ****   size_t stBlockLength;
 3668              		.loc 1 159 3 view .LVU1006
 160:/home/hkh/git/eapidk-code-r76-trunk/apps/EeePProg/linux/../EeePDB.c ****   EAPI_APP_ASSERT_PARAMATER_NULL(
 3669              		.loc 1 160 3 view .LVU1007
 161:/home/hkh/git/eapidk-code-r76-trunk/apps/EeePProg/linux/../EeePDB.c ****       GetNextBlock,
 3670              		.loc 1 161 3 view .LVU1008
 3671 11f4 000055E3 		cmp	r5, #0
 3672 11f8 DEFFFF1A 		bne	.L218
 3673              	.L243:
 3674              	.LBB332:
 3675              	.LBI332:
 155:/home/hkh/git/eapidk-code-r76-trunk/apps/EeePProg/linux/../EeePDB.c ****     DBlockIdHdr_t *pCurBlock
 3676              		.loc 1 155 1 view .LVU1009
 3677              	.LVL298:
ARM GAS  /tmp/ccTXisr2.s 			page 93


 3678              	.LBB333:
 161:/home/hkh/git/eapidk-code-r76-trunk/apps/EeePProg/linux/../EeePDB.c ****       GetNextBlock,
 3679              		.loc 1 161 3 view .LVU1010
 161:/home/hkh/git/eapidk-code-r76-trunk/apps/EeePProg/linux/../EeePDB.c ****       GetNextBlock,
 3680              		.loc 1 161 3 view .LVU1011
 3681 11fc 58119FE5 		ldr	r1, .L244+68
 3682 1200 A130A0E3 		mov	r3, #161
 3683 1204 54019FE5 		ldr	r0, .L244+72
 3684 1208 54219FE5 		ldr	r2, .L244+76
 3685              	.LPIC185:
 3686 120c 01108FE0 		add	r1, pc, r1
 3687 1210 00508DE5 		str	r5, [sp]
 3688 1214 04108DE5 		str	r1, [sp, #4]
 3689              	.LPIC184:
 3690 1218 00008FE0 		add	r0, pc, r0
 3691 121c 44119FE5 		ldr	r1, .L244+80
 3692              	.LPIC182:
 3693 1220 02208FE0 		add	r2, pc, r2
 3694 1224 08008DE5 		str	r0, [sp, #8]
 3695 1228 4500A0E3 		mov	r0, #69
 3696              	.LPIC183:
 3697 122c 01108FE0 		add	r1, pc, r1
 3698 1230 FEFFFFEB 		bl	siFormattedMessage_SC(PLT)
 3699              	.LVL299:
 161:/home/hkh/git/eapidk-code-r76-trunk/apps/EeePProg/linux/../EeePDB.c ****       GetNextBlock,
 3700              		.loc 1 161 3 view .LVU1012
 161:/home/hkh/git/eapidk-code-r76-trunk/apps/EeePProg/linux/../EeePDB.c ****       GetNextBlock,
 3701              		.loc 1 161 3 view .LVU1013
 161:/home/hkh/git/eapidk-code-r76-trunk/apps/EeePProg/linux/../EeePDB.c ****       GetNextBlock,
 3702              		.loc 1 161 3 view .LVU1014
 3703              	.LDL23:
 3704              	.LDL24:
 182:/home/hkh/git/eapidk-code-r76-trunk/apps/EeePProg/linux/../EeePDB.c **** }
 3705              		.loc 1 182 3 view .LVU1015
 182:/home/hkh/git/eapidk-code-r76-trunk/apps/EeePProg/linux/../EeePDB.c **** }
 3706              		.loc 1 182 3 is_stmt 0 view .LVU1016
 3707              	.LBE333:
 3708              	.LBE332:
 182:/home/hkh/git/eapidk-code-r76-trunk/apps/EeePProg/linux/../EeePDB.c **** }
 3709              		.loc 1 182 3 is_stmt 1 view .LVU1017
 182:/home/hkh/git/eapidk-code-r76-trunk/apps/EeePProg/linux/../EeePDB.c **** }
 3710              		.loc 1 182 3 is_stmt 0 view .LVU1018
 3711              	.LBE334:
 3712              	.LBE337:
 572:/home/hkh/git/eapidk-code-r76-trunk/apps/EeePProg/linux/../EeePDB.c ****   {
 3713              		.loc 1 572 17 is_stmt 1 view .LVU1019
 3714 1234 6DFFFFEA 		b	.L201
 3715              	.LVL300:
 3716              	.L238:
 551:/home/hkh/git/eapidk-code-r76-trunk/apps/EeePProg/linux/../EeePDB.c ****   EAPI_MSG_OUT(
 3717              		.loc 1 551 3 discriminator 1 view .LVU1020
 3718 1238 2CC19FE5 		ldr	ip, .L244+84
 3719 123c 273200E3 		movw	r3, #551
 3720 1240 28019FE5 		ldr	r0, .L244+88
 3721              	.LVL301:
 551:/home/hkh/git/eapidk-code-r76-trunk/apps/EeePProg/linux/../EeePDB.c ****   EAPI_MSG_OUT(
 3722              		.loc 1 551 3 is_stmt 0 discriminator 1 view .LVU1021
ARM GAS  /tmp/ccTXisr2.s 			page 94


 3723 1244 28219FE5 		ldr	r2, .L244+92
 3724 1248 28119FE5 		ldr	r1, .L244+96
 3725              	.LPIC160:
 3726 124c 0CC08FE0 		add	ip, pc, ip
 3727              	.LPIC161:
 3728 1250 00008FE0 		add	r0, pc, r0
 3729 1254 00908DE5 		str	r9, [sp]
 3730 1258 01108DE9 		stmib	sp, {r0, ip}
 3731              	.LPIC158:
 3732 125c 02208FE0 		add	r2, pc, r2
 3733              	.LPIC159:
 3734 1260 01108FE0 		add	r1, pc, r1
 3735 1264 4500A0E3 		mov	r0, #69
 3736 1268 FEFFFFEB 		bl	siFormattedMessage_SC(PLT)
 3737              	.LVL302:
 551:/home/hkh/git/eapidk-code-r76-trunk/apps/EeePProg/linux/../EeePDB.c ****   EAPI_MSG_OUT(
 3738              		.loc 1 551 3 is_stmt 1 discriminator 1 view .LVU1022
 3739 126c 5FFFFFEA 		b	.L201
 3740              	.L239:
 564:/home/hkh/git/eapidk-code-r76-trunk/apps/EeePProg/linux/../EeePDB.c ****         EAPI_CREATE_PTR(BHandel, sizeof(*pEeePCmnHdr), void *), 
 3741              		.loc 1 564 5 view .LVU1023
 3742 1270 04319FE5 		ldr	r3, .L244+100
 3743 1274 0620A0E1 		mov	r2, r6
 3744 1278 061041E2 		sub	r1, r1, #6
 3745 127c 060086E2 		add	r0, r6, #6
 3746              	.LPIC164:
 3747 1280 03308FE0 		add	r3, pc, r3
 3748 1284 FEFFFFEB 		bl	PrintHexAsciiTable(PLT)
 3749              	.LVL303:
 572:/home/hkh/git/eapidk-code-r76-trunk/apps/EeePProg/linux/../EeePDB.c ****   {
 3750              		.loc 1 572 17 is_stmt 0 view .LVU1024
 3751 1288 18409DE5 		ldr	r4, [sp, #24]
 3752 128c 7AFFFFEA 		b	.L208
 3753              	.LVL304:
 3754              	.L240:
 591:/home/hkh/git/eapidk-code-r76-trunk/apps/EeePProg/linux/../EeePDB.c ****       EeePListBlocks    ,
 3755              		.loc 1 591 5 is_stmt 1 discriminator 1 view .LVU1025
 591:/home/hkh/git/eapidk-code-r76-trunk/apps/EeePProg/linux/../EeePDB.c ****       EeePListBlocks    ,
 3756              		.loc 1 591 5 discriminator 1 view .LVU1026
 3757 1290 E8C09FE5 		ldr	ip, .L244+104
 3758 1294 0F9CE0E3 		mvn	r9, #3840
 3759              	.LVL305:
 591:/home/hkh/git/eapidk-code-r76-trunk/apps/EeePProg/linux/../EeePDB.c ****       EeePListBlocks    ,
 3760              		.loc 1 591 5 is_stmt 0 discriminator 1 view .LVU1027
 3761 1298 E4009FE5 		ldr	r0, .L244+108
 3762 129c 4F3200E3 		movw	r3, #591
 3763 12a0 E0209FE5 		ldr	r2, .L244+112
 3764 12a4 E0109FE5 		ldr	r1, .L244+116
 3765              	.LPIC172:
 3766 12a8 0CC08FE0 		add	ip, pc, ip
 3767              	.LPIC173:
 3768 12ac 00008FE0 		add	r0, pc, r0
 3769              	.LPIC170:
 3770 12b0 02208FE0 		add	r2, pc, r2
 3771              	.LPIC171:
 3772 12b4 01108FE0 		add	r1, pc, r1
 3773 12b8 48FFFFEA 		b	.L234
ARM GAS  /tmp/ccTXisr2.s 			page 95


 3774              	.LVL306:
 3775              	.L241:
 596:/home/hkh/git/eapidk-code-r76-trunk/apps/EeePProg/linux/../EeePDB.c ****       EeePListBlocks    ,
 3776              		.loc 1 596 5 is_stmt 1 discriminator 1 view .LVU1028
 596:/home/hkh/git/eapidk-code-r76-trunk/apps/EeePProg/linux/../EeePDB.c ****       EeePListBlocks    ,
 3777              		.loc 1 596 5 discriminator 1 view .LVU1029
 3778 12bc CCC09FE5 		ldr	ip, .L244+120
 3779 12c0 0F9CE0E3 		mvn	r9, #3840
 3780              	.LVL307:
 596:/home/hkh/git/eapidk-code-r76-trunk/apps/EeePProg/linux/../EeePDB.c ****       EeePListBlocks    ,
 3781              		.loc 1 596 5 is_stmt 0 discriminator 1 view .LVU1030
 3782 12c4 C8009FE5 		ldr	r0, .L244+124
 3783 12c8 953FA0E3 		mov	r3, #596
 3784 12cc C4209FE5 		ldr	r2, .L244+128
 3785 12d0 C4109FE5 		ldr	r1, .L244+132
 3786              	.LPIC176:
 3787 12d4 0CC08FE0 		add	ip, pc, ip
 3788              	.LPIC177:
 3789 12d8 00008FE0 		add	r0, pc, r0
 3790              	.LPIC174:
 3791 12dc 02208FE0 		add	r2, pc, r2
 3792              	.LPIC175:
 3793 12e0 01108FE0 		add	r1, pc, r1
 3794 12e4 3DFFFFEA 		b	.L234
 3795              	.LVL308:
 3796              	.L235:
 532:/home/hkh/git/eapidk-code-r76-trunk/apps/EeePProg/linux/../EeePDB.c ****       EeePListBlocks,
 3797              		.loc 1 532 3 is_stmt 1 discriminator 1 view .LVU1031
 532:/home/hkh/git/eapidk-code-r76-trunk/apps/EeePProg/linux/../EeePDB.c ****       EeePListBlocks,
 3798              		.loc 1 532 3 discriminator 1 view .LVU1032
 3799 12e8 B0C09FE5 		ldr	ip, .L244+136
 3800 12ec 019CE0E3 		mvn	r9, #256
 3801 12f0 AC009FE5 		ldr	r0, .L244+140
 3802              	.LVL309:
 532:/home/hkh/git/eapidk-code-r76-trunk/apps/EeePProg/linux/../EeePDB.c ****       EeePListBlocks,
 3803              		.loc 1 532 3 is_stmt 0 discriminator 1 view .LVU1033
 3804 12f4 853FA0E3 		mov	r3, #532
 3805 12f8 A8209FE5 		ldr	r2, .L244+144
 3806 12fc A8109FE5 		ldr	r1, .L244+148
 3807              	.LPIC151:
 3808 1300 0CC08FE0 		add	ip, pc, ip
 3809              	.LPIC152:
 3810 1304 00008FE0 		add	r0, pc, r0
 3811              	.LPIC149:
 3812 1308 02208FE0 		add	r2, pc, r2
 3813              	.LPIC150:
 3814 130c 01108FE0 		add	r1, pc, r1
 3815 1310 32FFFFEA 		b	.L234
 3816              	.LVL310:
 3817              	.L237:
 3818              		.loc 1 613 1 view .LVU1034
 3819 1314 FEFFFFEB 		bl	__stack_chk_fail(PLT)
 3820              	.LVL311:
 3821              	.L245:
 3822              		.align	2
 3823              	.L244:
 3824 1318 84030000 		.word	_GLOBAL_OFFSET_TABLE_-(.LPIC187+8)
ARM GAS  /tmp/ccTXisr2.s 			page 96


 3825 131c 00000000 		.word	__stack_chk_guard(GOT)
 3826 1320 48030000 		.word	.LC20-(.LPIC156+8)
 3827 1324 48030000 		.word	.LC5-(.LPIC157+8)
 3828 1328 48030000 		.word	.LC37-(.LPIC154+8)
 3829 132c 48030000 		.word	.LC3-(.LPIC155+8)
 3830 1330 30030000 		.word	_GLOBAL_OFFSET_TABLE_-(.LPIC186+8)
 3831 1334 E0020000 		.word	.LC38-(.LPIC162+8)
 3832 1338 CC020000 		.word	.LC39-(.LPIC163+8)
 3833 133c A0020000 		.word	.LANCHOR0-(.LPIC165+8)
 3834 1340 A0020000 		.word	.LC1-(.LPIC168+8)
 3835 1344 A0020000 		.word	.LC0-(.LPIC167+8)
 3836 1348 38020000 		.word	.LC41-(.LPIC169+8)
 3837 134c 80010000 		.word	.LC9-(.LPIC180+8)
 3838 1350 78010000 		.word	.LC8-(.LPIC178+8)
 3839 1354 74010000 		.word	.LC3-(.LPIC179+8)
 3840 1358 70010000 		.word	.LC5-(.LPIC181+8)
 3841 135c 48010000 		.word	.LC5-(.LPIC185+8)
 3842 1360 40010000 		.word	.LC9-(.LPIC184+8)
 3843 1364 3C010000 		.word	.LC8-(.LPIC182+8)
 3844 1368 34010000 		.word	.LC3-(.LPIC183+8)
 3845 136c 18010000 		.word	.LC33-(.LPIC160+8)
 3846 1370 18010000 		.word	.LC5-(.LPIC161+8)
 3847 1374 10010000 		.word	.LC25-(.LPIC158+8)
 3848 1378 10010000 		.word	.LC3-(.LPIC159+8)
 3849 137c F4000000 		.word	.LC40-(.LPIC164+8)
 3850 1380 D0000000 		.word	.LC34-(.LPIC172+8)
 3851 1384 D0000000 		.word	.LC5-(.LPIC173+8)
 3852 1388 D0000000 		.word	.LC37-(.LPIC170+8)
 3853 138c D0000000 		.word	.LC3-(.LPIC171+8)
 3854 1390 B4000000 		.word	.LC42-(.LPIC176+8)
 3855 1394 B4000000 		.word	.LC5-(.LPIC177+8)
 3856 1398 B4000000 		.word	.LC37-(.LPIC174+8)
 3857 139c B4000000 		.word	.LC3-(.LPIC175+8)
 3858 13a0 98000000 		.word	.LC4-(.LPIC151+8)
 3859 13a4 98000000 		.word	.LC5-(.LPIC152+8)
 3860 13a8 98000000 		.word	.LC37-(.LPIC149+8)
 3861 13ac 98000000 		.word	.LC3-(.LPIC150+8)
 3862              		.cfi_endproc
 3863              	.LFE14:
 3865              		.section	.rodata.str1.4
 3866 05d2 0000     		.align	2
 3867              	.LC43:
 3868 05d4 45656550 		.ascii	"EeePSetCRC\000"
 3868      53657443 
 3868      524300
 3869 05df 00       		.align	2
 3870              	.LC44:
 3871 05e0 45656550 		.ascii	"EeePMapBuffer(BHandel, &BufferMap)\000"
 3871      4D617042 
 3871      75666665 
 3871      72284248 
 3871      616E6465 
 3872 0603 00       		.align	2
 3873              	.LC45:
 3874 0604 4E6F2043 		.ascii	"No CRC Block Present\000"
 3874      52432042 
 3874      6C6F636B 
ARM GAS  /tmp/ccTXisr2.s 			page 97


 3874      20507265 
 3874      73656E74 
 3875 0619 000000   		.align	2
 3876              	.LC46:
 3877 061c 4352435F 		.ascii	"CRC_CCITT.init(&pContext)\000"
 3877      43434954 
 3877      542E696E 
 3877      69742826 
 3877      70436F6E 
 3878 0636 0000     		.align	2
 3879              	.LC47:
 3880 0638 4352435F 		.ascii	"CRC_CCITT.bytes( pContext, BufferMap.pCmnHdr, EAPI_"
 3880      43434954 
 3880      542E6279 
 3880      74657328 
 3880      2070436F 
 3881 066b 4745545F 		.ascii	"GET_PTR_OFFSET(BufferMap.pEeePCRCBlock->CrC16, Buff"
 3881      5054525F 
 3881      4F464653 
 3881      45542842 
 3881      75666665 
 3882 069e 65724D61 		.ascii	"erMap.pCmnHdr) )\000"
 3882      702E7043 
 3882      6D6E4864 
 3882      72292029 
 3882      00
 3883 06af 00       		.align	2
 3884              	.LC48:
 3885 06b0 4352435F 		.ascii	"CRC_CCITT.fini(&pContext, BufferMap.pEeePCRCBlock->"
 3885      43434954 
 3885      542E6669 
 3885      6E692826 
 3885      70436F6E 
 3886 06e3 43724331 		.ascii	"CrC16)\000"
 3886      362900
 3887              		.text
 3888              		.align	2
 3889              		.global	EeePSetCRC
 3890              		.syntax unified
 3891              		.arm
 3892              		.fpu vfpv3
 3894              	EeePSetCRC:
 3895              	.LVL312:
 3896              	.LFB15:
 614:/home/hkh/git/eapidk-code-r76-trunk/apps/EeePProg/linux/../EeePDB.c **** 
 615:/home/hkh/git/eapidk-code-r76-trunk/apps/EeePProg/linux/../EeePDB.c **** EApiStatus_t
 616:/home/hkh/git/eapidk-code-r76-trunk/apps/EeePProg/linux/../EeePDB.c **** EeePSetCRC(
 617:/home/hkh/git/eapidk-code-r76-trunk/apps/EeePProg/linux/../EeePDB.c ****     EeePHandel_t BHandel
 618:/home/hkh/git/eapidk-code-r76-trunk/apps/EeePProg/linux/../EeePDB.c ****     )
 619:/home/hkh/git/eapidk-code-r76-trunk/apps/EeePProg/linux/../EeePDB.c **** {
 3897              		.loc 1 619 1 is_stmt 1 view -0
 3898              		.cfi_startproc
 3899              		@ args = 0, pretend = 0, frame = 24
 3900              		@ frame_needed = 0, uses_anonymous_args = 0
 3901              		.loc 1 619 1 is_stmt 0 view .LVU1036
 3902 13b0 F4219FE5 		ldr	r2, .L267
 620:/home/hkh/git/eapidk-code-r76-trunk/apps/EeePProg/linux/../EeePDB.c ****   EeePBufferMap_t BufferMap;
ARM GAS  /tmp/ccTXisr2.s 			page 98


 621:/home/hkh/git/eapidk-code-r76-trunk/apps/EeePProg/linux/../EeePDB.c ****   EApiStatus_t StatusCode=EAPI_STATUS_SUCCESS;
 622:/home/hkh/git/eapidk-code-r76-trunk/apps/EeePProg/linux/../EeePDB.c ****   void *pContext;
 623:/home/hkh/git/eapidk-code-r76-trunk/apps/EeePProg/linux/../EeePDB.c **** 
 624:/home/hkh/git/eapidk-code-r76-trunk/apps/EeePProg/linux/../EeePDB.c ****   EAPI_APP_ASSERT_PARAMATER_NULL(
 3903              		.loc 1 624 3 view .LVU1037
 3904 13b4 000050E3 		cmp	r0, #0
 619:/home/hkh/git/eapidk-code-r76-trunk/apps/EeePProg/linux/../EeePDB.c ****   EeePBufferMap_t BufferMap;
 3905              		.loc 1 619 1 view .LVU1038
 3906 13b8 F0319FE5 		ldr	r3, .L267+4
 3907 13bc 70402DE9 		push	{r4, r5, r6, lr}
 3908              		.cfi_def_cfa_offset 16
 3909              		.cfi_offset 4, -16
 3910              		.cfi_offset 5, -12
 3911              		.cfi_offset 6, -8
 3912              		.cfi_offset 14, -4
 3913 13c0 28D04DE2 		sub	sp, sp, #40
 3914              		.cfi_def_cfa_offset 56
 619:/home/hkh/git/eapidk-code-r76-trunk/apps/EeePProg/linux/../EeePDB.c ****   EeePBufferMap_t BufferMap;
 3915              		.loc 1 619 1 view .LVU1039
 3916              	.LPIC214:
 3917 13c4 02208FE0 		add	r2, pc, r2
 3918 13c8 E4519FE5 		ldr	r5, .L267+8
 3919 13cc 033092E7 		ldr	r3, [r2, r3]
 3920              	.LPIC200:
 3921 13d0 05508FE0 		add	r5, pc, r5
 3922 13d4 003093E5 		ldr	r3, [r3]
 3923 13d8 24308DE5 		str	r3, [sp, #36]
 3924 13dc 0030A0E3 		mov	r3, #0
 620:/home/hkh/git/eapidk-code-r76-trunk/apps/EeePProg/linux/../EeePDB.c ****   EeePBufferMap_t BufferMap;
 3925              		.loc 1 620 3 is_stmt 1 view .LVU1040
 621:/home/hkh/git/eapidk-code-r76-trunk/apps/EeePProg/linux/../EeePDB.c ****   void *pContext;
 3926              		.loc 1 621 3 view .LVU1041
 3927              	.LVL313:
 622:/home/hkh/git/eapidk-code-r76-trunk/apps/EeePProg/linux/../EeePDB.c **** 
 3928              		.loc 1 622 3 view .LVU1042
 3929              		.loc 1 624 3 view .LVU1043
 3930 13e0 4C00000A 		beq	.L260
 3931              		.loc 1 624 3 discriminator 2 view .LVU1044
 625:/home/hkh/git/eapidk-code-r76-trunk/apps/EeePProg/linux/../EeePDB.c ****       EeePSetCRC,
 626:/home/hkh/git/eapidk-code-r76-trunk/apps/EeePProg/linux/../EeePDB.c ****       EAPI_STATUS_INVALID_PARAMETER,
 627:/home/hkh/git/eapidk-code-r76-trunk/apps/EeePProg/linux/../EeePDB.c ****       BHandel
 628:/home/hkh/git/eapidk-code-r76-trunk/apps/EeePProg/linux/../EeePDB.c ****     );
 3932              		.loc 1 628 6 discriminator 2 view .LVU1045
 629:/home/hkh/git/eapidk-code-r76-trunk/apps/EeePProg/linux/../EeePDB.c ****   DO(EeePMapBuffer(BHandel, &BufferMap));
 3933              		.loc 1 629 3 discriminator 2 view .LVU1046
 3934              		.loc 1 629 3 discriminator 2 view .LVU1047
 3935 13e4 18108DE2 		add	r1, sp, #24
 3936 13e8 FEFFFFEB 		bl	EeePMapBuffer(PLT)
 3937              	.LVL314:
 3938              		.loc 1 629 3 discriminator 2 view .LVU1048
 3939 13ec 004050E2 		subs	r4, r0, #0
 3940 13f0 3400001A 		bne	.L261
 3941              		.loc 1 629 3 discriminator 2 view .LVU1049
 630:/home/hkh/git/eapidk-code-r76-trunk/apps/EeePProg/linux/../EeePDB.c **** 
 631:/home/hkh/git/eapidk-code-r76-trunk/apps/EeePProg/linux/../EeePDB.c ****   EAPI_APP_RETURN_ERROR_IF(
 3942              		.loc 1 631 3 discriminator 2 view .LVU1050
 3943 13f4 20309DE5 		ldr	r3, [sp, #32]
ARM GAS  /tmp/ccTXisr2.s 			page 99


 3944 13f8 000053E3 		cmp	r3, #0
 3945 13fc 5E00000A 		beq	.L262
 3946              		.loc 1 631 3 discriminator 2 view .LVU1051
 632:/home/hkh/git/eapidk-code-r76-trunk/apps/EeePProg/linux/../EeePDB.c ****       EeePSetCRC,
 633:/home/hkh/git/eapidk-code-r76-trunk/apps/EeePProg/linux/../EeePDB.c ****       BufferMap.pEeePCRCBlock==NULL,
 634:/home/hkh/git/eapidk-code-r76-trunk/apps/EeePProg/linux/../EeePDB.c ****       EAPI_STATUS_ERROR,
 635:/home/hkh/git/eapidk-code-r76-trunk/apps/EeePProg/linux/../EeePDB.c ****       "No CRC Block Present"
 636:/home/hkh/git/eapidk-code-r76-trunk/apps/EeePProg/linux/../EeePDB.c ****     );
 3947              		.loc 1 636 6 discriminator 2 view .LVU1052
 637:/home/hkh/git/eapidk-code-r76-trunk/apps/EeePProg/linux/../EeePDB.c ****     DO(CRC_CCITT.init(&pContext));
 3948              		.loc 1 637 5 discriminator 2 view .LVU1053
 3949              		.loc 1 637 5 discriminator 2 view .LVU1054
 3950 1400 B0319FE5 		ldr	r3, .L267+12
 3951 1404 14608DE2 		add	r6, sp, #20
 3952 1408 0600A0E1 		mov	r0, r6
 3953 140c 035095E7 		ldr	r5, [r5, r3]
 3954 1410 003095E5 		ldr	r3, [r5]
 3955 1414 33FF2FE1 		blx	r3
 3956              	.LVL315:
 3957              		.loc 1 637 5 discriminator 2 view .LVU1055
 3958 1418 004050E2 		subs	r4, r0, #0
 3959 141c 3300001A 		bne	.L263
 3960              		.loc 1 637 5 discriminator 2 view .LVU1056
 638:/home/hkh/git/eapidk-code-r76-trunk/apps/EeePProg/linux/../EeePDB.c ****     DO(CRC_CCITT.bytes(
 3961              		.loc 1 638 5 discriminator 2 view .LVU1057
 3962              		.loc 1 638 5 discriminator 2 view .LVU1058
 3963 1420 20209DE5 		ldr	r2, [sp, #32]
 3964 1424 18109DE5 		ldr	r1, [sp, #24]
 3965 1428 043095E5 		ldr	r3, [r5, #4]
 3966 142c 032082E2 		add	r2, r2, #3
 3967 1430 14009DE5 		ldr	r0, [sp, #20]
 3968              	.LVL316:
 3969              		.loc 1 638 5 is_stmt 0 discriminator 2 view .LVU1059
 3970 1434 012042E0 		sub	r2, r2, r1
 3971 1438 33FF2FE1 		blx	r3
 3972              	.LVL317:
 3973              		.loc 1 638 5 is_stmt 1 discriminator 2 view .LVU1060
 3974 143c 004050E2 		subs	r4, r0, #0
 3975 1440 1200001A 		bne	.L264
 3976              		.loc 1 638 5 discriminator 2 view .LVU1061
 639:/home/hkh/git/eapidk-code-r76-trunk/apps/EeePProg/linux/../EeePDB.c ****                 pContext, 
 640:/home/hkh/git/eapidk-code-r76-trunk/apps/EeePProg/linux/../EeePDB.c ****                 BufferMap.pCmnHdr, 
 641:/home/hkh/git/eapidk-code-r76-trunk/apps/EeePProg/linux/../EeePDB.c ****         EAPI_GET_PTR_OFFSET(BufferMap.pEeePCRCBlock->CrC16, BufferMap.pCmnHdr)
 642:/home/hkh/git/eapidk-code-r76-trunk/apps/EeePProg/linux/../EeePDB.c ****         ));
 643:/home/hkh/git/eapidk-code-r76-trunk/apps/EeePProg/linux/../EeePDB.c ****     DO(CRC_CCITT.fini(&pContext, BufferMap.pEeePCRCBlock->CrC16));
 3977              		.loc 1 643 5 discriminator 2 view .LVU1062
 3978              		.loc 1 643 5 discriminator 2 view .LVU1063
 3979 1444 20109DE5 		ldr	r1, [sp, #32]
 3980 1448 0600A0E1 		mov	r0, r6
 3981 144c 083095E5 		ldr	r3, [r5, #8]
 3982 1450 031081E2 		add	r1, r1, #3
 3983 1454 33FF2FE1 		blx	r3
 3984              	.LVL318:
 3985              		.loc 1 643 5 discriminator 2 view .LVU1064
 3986 1458 004050E2 		subs	r4, r0, #0
 3987 145c 3C00001A 		bne	.L265
 3988              	.LVL319:
ARM GAS  /tmp/ccTXisr2.s 			page 100


 3989              	.L246:
 619:/home/hkh/git/eapidk-code-r76-trunk/apps/EeePProg/linux/../EeePDB.c ****   EeePBufferMap_t BufferMap;
 3990              		.loc 1 619 1 is_stmt 0 view .LVU1065
 3991 1460 54219FE5 		ldr	r2, .L267+16
 644:/home/hkh/git/eapidk-code-r76-trunk/apps/EeePProg/linux/../EeePDB.c **** 
 645:/home/hkh/git/eapidk-code-r76-trunk/apps/EeePProg/linux/../EeePDB.c **** 
 646:/home/hkh/git/eapidk-code-r76-trunk/apps/EeePProg/linux/../EeePDB.c **** EAPI_APP_ASSERT_EXIT
 647:/home/hkh/git/eapidk-code-r76-trunk/apps/EeePProg/linux/../EeePDB.c ****   return StatusCode;
 648:/home/hkh/git/eapidk-code-r76-trunk/apps/EeePProg/linux/../EeePDB.c **** }
 3992              		.loc 1 648 1 view .LVU1066
 3993 1464 44319FE5 		ldr	r3, .L267+4
 619:/home/hkh/git/eapidk-code-r76-trunk/apps/EeePProg/linux/../EeePDB.c ****   EeePBufferMap_t BufferMap;
 3994              		.loc 1 619 1 view .LVU1067
 3995              	.LPIC213:
 3996 1468 02208FE0 		add	r2, pc, r2
 3997              		.loc 1 648 1 view .LVU1068
 3998 146c 033092E7 		ldr	r3, [r2, r3]
 3999 1470 002093E5 		ldr	r2, [r3]
 4000 1474 24309DE5 		ldr	r3, [sp, #36]
 4001 1478 022033E0 		eors	r2, r3, r2
 4002 147c 0030A0E3 		mov	r3, #0
 4003 1480 4800001A 		bne	.L266
 4004 1484 0400A0E1 		mov	r0, r4
 4005 1488 28D08DE2 		add	sp, sp, #40
 4006              		.cfi_remember_state
 4007              		.cfi_def_cfa_offset 16
 4008              		@ sp needed
 4009 148c 7080BDE8 		pop	{r4, r5, r6, pc}
 4010              	.LVL320:
 4011              	.L264:
 4012              		.cfi_restore_state
 638:/home/hkh/git/eapidk-code-r76-trunk/apps/EeePProg/linux/../EeePDB.c ****                 pContext, 
 4013              		.loc 1 638 5 is_stmt 1 discriminator 1 view .LVU1069
 4014 1490 28C19FE5 		ldr	ip, .L267+20
 4015 1494 7E3200E3 		movw	r3, #638
 4016 1498 24019FE5 		ldr	r0, .L267+24
 4017              	.LVL321:
 638:/home/hkh/git/eapidk-code-r76-trunk/apps/EeePProg/linux/../EeePDB.c ****                 pContext, 
 4018              		.loc 1 638 5 is_stmt 0 discriminator 1 view .LVU1070
 4019 149c 24219FE5 		ldr	r2, .L267+28
 4020 14a0 24119FE5 		ldr	r1, .L267+32
 4021              	.LPIC207:
 4022 14a4 0CC08FE0 		add	ip, pc, ip
 4023              	.LPIC208:
 4024 14a8 00008FE0 		add	r0, pc, r0
 4025              	.LPIC205:
 4026 14ac 02208FE0 		add	r2, pc, r2
 4027              	.LPIC206:
 4028 14b0 01108FE0 		add	r1, pc, r1
 4029              	.L259:
 4030              	.L248:
 643:/home/hkh/git/eapidk-code-r76-trunk/apps/EeePProg/linux/../EeePDB.c **** 
 4031              		.loc 1 643 5 discriminator 1 view .LVU1071
 4032 14b4 01108DE9 		stmib	sp, {r0, ip}
 4033 14b8 4500A0E3 		mov	r0, #69
 4034 14bc 00408DE5 		str	r4, [sp]
 4035 14c0 FEFFFFEB 		bl	siFormattedMessage_SC(PLT)
ARM GAS  /tmp/ccTXisr2.s 			page 101


 4036              	.LVL322:
 643:/home/hkh/git/eapidk-code-r76-trunk/apps/EeePProg/linux/../EeePDB.c **** 
 4037              		.loc 1 643 5 is_stmt 1 discriminator 1 view .LVU1072
 643:/home/hkh/git/eapidk-code-r76-trunk/apps/EeePProg/linux/../EeePDB.c **** 
 4038              		.loc 1 643 5 discriminator 1 view .LVU1073
 647:/home/hkh/git/eapidk-code-r76-trunk/apps/EeePProg/linux/../EeePDB.c **** }
 4039              		.loc 1 647 3 discriminator 1 view .LVU1074
 647:/home/hkh/git/eapidk-code-r76-trunk/apps/EeePProg/linux/../EeePDB.c **** }
 4040              		.loc 1 647 10 is_stmt 0 discriminator 1 view .LVU1075
 4041 14c4 E5FFFFEA 		b	.L246
 4042              	.LVL323:
 4043              	.L261:
 629:/home/hkh/git/eapidk-code-r76-trunk/apps/EeePProg/linux/../EeePDB.c **** 
 4044              		.loc 1 629 3 is_stmt 1 discriminator 1 view .LVU1076
 4045 14c8 00C19FE5 		ldr	ip, .L267+36
 4046 14cc 753200E3 		movw	r3, #629
 4047 14d0 FC009FE5 		ldr	r0, .L267+40
 4048              	.LVL324:
 629:/home/hkh/git/eapidk-code-r76-trunk/apps/EeePProg/linux/../EeePDB.c **** 
 4049              		.loc 1 629 3 is_stmt 0 discriminator 1 view .LVU1077
 4050 14d4 FC209FE5 		ldr	r2, .L267+44
 4051 14d8 FC109FE5 		ldr	r1, .L267+48
 4052              	.LPIC194:
 4053 14dc 0CC08FE0 		add	ip, pc, ip
 4054              	.LPIC195:
 4055 14e0 00008FE0 		add	r0, pc, r0
 4056              	.LPIC192:
 4057 14e4 02208FE0 		add	r2, pc, r2
 4058              	.LPIC193:
 4059 14e8 01108FE0 		add	r1, pc, r1
 4060 14ec F0FFFFEA 		b	.L259
 4061              	.LVL325:
 4062              	.L263:
 637:/home/hkh/git/eapidk-code-r76-trunk/apps/EeePProg/linux/../EeePDB.c ****     DO(CRC_CCITT.bytes(
 4063              		.loc 1 637 5 is_stmt 1 discriminator 1 view .LVU1078
 4064 14f0 E8C09FE5 		ldr	ip, .L267+52
 4065 14f4 7D3200E3 		movw	r3, #637
 4066 14f8 E4009FE5 		ldr	r0, .L267+56
 4067              	.LVL326:
 637:/home/hkh/git/eapidk-code-r76-trunk/apps/EeePProg/linux/../EeePDB.c ****     DO(CRC_CCITT.bytes(
 4068              		.loc 1 637 5 is_stmt 0 discriminator 1 view .LVU1079
 4069 14fc E4209FE5 		ldr	r2, .L267+60
 4070 1500 E4109FE5 		ldr	r1, .L267+64
 4071              	.LPIC203:
 4072 1504 0CC08FE0 		add	ip, pc, ip
 4073              	.LPIC204:
 4074 1508 00008FE0 		add	r0, pc, r0
 4075              	.LPIC201:
 4076 150c 02208FE0 		add	r2, pc, r2
 4077              	.LPIC202:
 4078 1510 01108FE0 		add	r1, pc, r1
 4079 1514 E6FFFFEA 		b	.L259
 4080              	.LVL327:
 4081              	.L260:
 624:/home/hkh/git/eapidk-code-r76-trunk/apps/EeePProg/linux/../EeePDB.c ****       EeePSetCRC,
 4082              		.loc 1 624 3 is_stmt 1 discriminator 1 view .LVU1080
 624:/home/hkh/git/eapidk-code-r76-trunk/apps/EeePProg/linux/../EeePDB.c ****       EeePSetCRC,
ARM GAS  /tmp/ccTXisr2.s 			page 102


 4083              		.loc 1 624 3 discriminator 1 view .LVU1081
 4084 1518 D0C09FE5 		ldr	ip, .L267+68
 4085 151c 014CE0E3 		mvn	r4, #256
 4086 1520 CC009FE5 		ldr	r0, .L267+72
 4087              	.LVL328:
 624:/home/hkh/git/eapidk-code-r76-trunk/apps/EeePProg/linux/../EeePDB.c ****       EeePSetCRC,
 4088              		.loc 1 624 3 is_stmt 0 discriminator 1 view .LVU1082
 4089 1524 273EA0E3 		mov	r3, #624
 4090 1528 C8209FE5 		ldr	r2, .L267+76
 4091 152c C8109FE5 		ldr	r1, .L267+80
 4092              	.LPIC190:
 4093 1530 0CC08FE0 		add	ip, pc, ip
 4094              	.LPIC191:
 4095 1534 00008FE0 		add	r0, pc, r0
 4096              	.LPIC188:
 4097 1538 02208FE0 		add	r2, pc, r2
 4098              	.LPIC189:
 4099 153c 01108FE0 		add	r1, pc, r1
 4100              	.LVL329:
 4101              	.L258:
 631:/home/hkh/git/eapidk-code-r76-trunk/apps/EeePProg/linux/../EeePDB.c ****       EeePSetCRC,
 4102              		.loc 1 631 3 discriminator 1 view .LVU1083
 4103 1540 01108DE9 		stmib	sp, {r0, ip}
 4104 1544 4500A0E3 		mov	r0, #69
 4105 1548 00408DE5 		str	r4, [sp]
 4106 154c FEFFFFEB 		bl	siFormattedMessage_SC(PLT)
 4107              	.LVL330:
 631:/home/hkh/git/eapidk-code-r76-trunk/apps/EeePProg/linux/../EeePDB.c ****       EeePSetCRC,
 4108              		.loc 1 631 3 is_stmt 1 discriminator 1 view .LVU1084
 631:/home/hkh/git/eapidk-code-r76-trunk/apps/EeePProg/linux/../EeePDB.c ****       EeePSetCRC,
 4109              		.loc 1 631 3 discriminator 1 view .LVU1085
 631:/home/hkh/git/eapidk-code-r76-trunk/apps/EeePProg/linux/../EeePDB.c ****       EeePSetCRC,
 4110              		.loc 1 631 3 discriminator 1 view .LVU1086
 4111 1550 C2FFFFEA 		b	.L246
 4112              	.LVL331:
 4113              	.L265:
 643:/home/hkh/git/eapidk-code-r76-trunk/apps/EeePProg/linux/../EeePDB.c **** 
 4114              		.loc 1 643 5 discriminator 1 view .LVU1087
 4115 1554 A4C09FE5 		ldr	ip, .L267+84
 4116 1558 833200E3 		movw	r3, #643
 4117 155c A0009FE5 		ldr	r0, .L267+88
 4118              	.LVL332:
 643:/home/hkh/git/eapidk-code-r76-trunk/apps/EeePProg/linux/../EeePDB.c **** 
 4119              		.loc 1 643 5 is_stmt 0 discriminator 1 view .LVU1088
 4120 1560 A0209FE5 		ldr	r2, .L267+92
 4121 1564 A0109FE5 		ldr	r1, .L267+96
 4122              	.LPIC211:
 4123 1568 0CC08FE0 		add	ip, pc, ip
 4124              	.LPIC212:
 4125 156c 00008FE0 		add	r0, pc, r0
 4126              	.LPIC209:
 4127 1570 02208FE0 		add	r2, pc, r2
 4128              	.LPIC210:
 4129 1574 01108FE0 		add	r1, pc, r1
 4130 1578 CDFFFFEA 		b	.L259
 4131              	.LVL333:
 4132              	.L262:
ARM GAS  /tmp/ccTXisr2.s 			page 103


 631:/home/hkh/git/eapidk-code-r76-trunk/apps/EeePProg/linux/../EeePDB.c ****       EeePSetCRC,
 4133              		.loc 1 631 3 is_stmt 1 discriminator 1 view .LVU1089
 631:/home/hkh/git/eapidk-code-r76-trunk/apps/EeePProg/linux/../EeePDB.c ****       EeePSetCRC,
 4134              		.loc 1 631 3 discriminator 1 view .LVU1090
 4135 157c 8CC09FE5 		ldr	ip, .L267+100
 4136 1580 0F4CE0E3 		mvn	r4, #3840
 4137 1584 88009FE5 		ldr	r0, .L267+104
 4138              	.LVL334:
 631:/home/hkh/git/eapidk-code-r76-trunk/apps/EeePProg/linux/../EeePDB.c ****       EeePSetCRC,
 4139              		.loc 1 631 3 is_stmt 0 discriminator 1 view .LVU1091
 4140 1588 773200E3 		movw	r3, #631
 4141 158c 84209FE5 		ldr	r2, .L267+108
 4142 1590 84109FE5 		ldr	r1, .L267+112
 4143              	.LPIC198:
 4144 1594 0CC08FE0 		add	ip, pc, ip
 4145              	.LPIC199:
 4146 1598 00008FE0 		add	r0, pc, r0
 4147              	.LPIC196:
 4148 159c 02208FE0 		add	r2, pc, r2
 4149              	.LPIC197:
 4150 15a0 01108FE0 		add	r1, pc, r1
 4151 15a4 E5FFFFEA 		b	.L258
 4152              	.L266:
 4153              		.loc 1 648 1 view .LVU1092
 4154 15a8 FEFFFFEB 		bl	__stack_chk_fail(PLT)
 4155              	.LVL335:
 4156              	.L268:
 4157              		.align	2
 4158              	.L267:
 4159 15ac E0010000 		.word	_GLOBAL_OFFSET_TABLE_-(.LPIC214+8)
 4160 15b0 00000000 		.word	__stack_chk_guard(GOT)
 4161 15b4 DC010000 		.word	_GLOBAL_OFFSET_TABLE_-(.LPIC200+8)
 4162 15b8 00000000 		.word	CRC_CCITT(GOT)
 4163 15bc 4C010000 		.word	_GLOBAL_OFFSET_TABLE_-(.LPIC213+8)
 4164 15c0 14010000 		.word	.LC47-(.LPIC207+8)
 4165 15c4 14010000 		.word	.LC5-(.LPIC208+8)
 4166 15c8 14010000 		.word	.LC25-(.LPIC205+8)
 4167 15cc 14010000 		.word	.LC3-(.LPIC206+8)
 4168 15d0 EC000000 		.word	.LC44-(.LPIC194+8)
 4169 15d4 EC000000 		.word	.LC5-(.LPIC195+8)
 4170 15d8 EC000000 		.word	.LC25-(.LPIC192+8)
 4171 15dc EC000000 		.word	.LC3-(.LPIC193+8)
 4172 15e0 D4000000 		.word	.LC46-(.LPIC203+8)
 4173 15e4 D4000000 		.word	.LC5-(.LPIC204+8)
 4174 15e8 D4000000 		.word	.LC25-(.LPIC201+8)
 4175 15ec D4000000 		.word	.LC3-(.LPIC202+8)
 4176 15f0 B8000000 		.word	.LC4-(.LPIC190+8)
 4177 15f4 B8000000 		.word	.LC5-(.LPIC191+8)
 4178 15f8 B8000000 		.word	.LC43-(.LPIC188+8)
 4179 15fc B8000000 		.word	.LC3-(.LPIC189+8)
 4180 1600 90000000 		.word	.LC48-(.LPIC211+8)
 4181 1604 90000000 		.word	.LC5-(.LPIC212+8)
 4182 1608 90000000 		.word	.LC25-(.LPIC209+8)
 4183 160c 90000000 		.word	.LC3-(.LPIC210+8)
 4184 1610 74000000 		.word	.LC45-(.LPIC198+8)
 4185 1614 74000000 		.word	.LC5-(.LPIC199+8)
 4186 1618 74000000 		.word	.LC43-(.LPIC196+8)
ARM GAS  /tmp/ccTXisr2.s 			page 104


 4187 161c 74000000 		.word	.LC3-(.LPIC197+8)
 4188              		.cfi_endproc
 4189              	.LFE15:
 4191              		.section	.rodata.str1.4
 4192 06ea 0000     		.align	2
 4193              	.LC49:
 4194 06ec 45656550 		.ascii	"EeePCheckCRC\000"
 4194      43686563 
 4194      6B435243 
 4194      00
 4195 06f9 000000   		.align	2
 4196              	.LC50:
 4197 06fc 4352435F 		.ascii	"CRC_CCITT.verify(&pContext, BufferMap.pEeePCRCBlock"
 4197      43434954 
 4197      542E7665 
 4197      72696679 
 4197      28267043 
 4198 072f 2D3E4372 		.ascii	"->CrC16)\000"
 4198      43313629 
 4198      00
 4199              		.text
 4200              		.align	2
 4201              		.global	EeePCheckCRC
 4202              		.syntax unified
 4203              		.arm
 4204              		.fpu vfpv3
 4206              	EeePCheckCRC:
 4207              	.LVL336:
 4208              	.LFB16:
 649:/home/hkh/git/eapidk-code-r76-trunk/apps/EeePProg/linux/../EeePDB.c **** EApiStatus_t
 650:/home/hkh/git/eapidk-code-r76-trunk/apps/EeePProg/linux/../EeePDB.c **** EeePCheckCRC(
 651:/home/hkh/git/eapidk-code-r76-trunk/apps/EeePProg/linux/../EeePDB.c ****     EeePHandel_t BHandel
 652:/home/hkh/git/eapidk-code-r76-trunk/apps/EeePProg/linux/../EeePDB.c ****     )
 653:/home/hkh/git/eapidk-code-r76-trunk/apps/EeePProg/linux/../EeePDB.c **** {
 4209              		.loc 1 653 1 is_stmt 1 view -0
 4210              		.cfi_startproc
 4211              		@ args = 0, pretend = 0, frame = 24
 4212              		@ frame_needed = 0, uses_anonymous_args = 0
 4213              		.loc 1 653 1 is_stmt 0 view .LVU1094
 4214 1620 FC219FE5 		ldr	r2, .L290
 654:/home/hkh/git/eapidk-code-r76-trunk/apps/EeePProg/linux/../EeePDB.c ****   EeePBufferMap_t BufferMap;
 655:/home/hkh/git/eapidk-code-r76-trunk/apps/EeePProg/linux/../EeePDB.c ****   EApiStatus_t StatusCode=EAPI_STATUS_SUCCESS;
 656:/home/hkh/git/eapidk-code-r76-trunk/apps/EeePProg/linux/../EeePDB.c ****   void *pContext;
 657:/home/hkh/git/eapidk-code-r76-trunk/apps/EeePProg/linux/../EeePDB.c **** 
 658:/home/hkh/git/eapidk-code-r76-trunk/apps/EeePProg/linux/../EeePDB.c ****   EAPI_APP_ASSERT_PARAMATER_NULL(
 4215              		.loc 1 658 3 view .LVU1095
 4216 1624 000050E3 		cmp	r0, #0
 653:/home/hkh/git/eapidk-code-r76-trunk/apps/EeePProg/linux/../EeePDB.c ****   EeePBufferMap_t BufferMap;
 4217              		.loc 1 653 1 view .LVU1096
 4218 1628 F8319FE5 		ldr	r3, .L290+4
 4219 162c 70402DE9 		push	{r4, r5, r6, lr}
 4220              		.cfi_def_cfa_offset 16
 4221              		.cfi_offset 4, -16
 4222              		.cfi_offset 5, -12
 4223              		.cfi_offset 6, -8
 4224              		.cfi_offset 14, -4
 4225 1630 28D04DE2 		sub	sp, sp, #40
ARM GAS  /tmp/ccTXisr2.s 			page 105


 4226              		.cfi_def_cfa_offset 56
 653:/home/hkh/git/eapidk-code-r76-trunk/apps/EeePProg/linux/../EeePDB.c ****   EeePBufferMap_t BufferMap;
 4227              		.loc 1 653 1 view .LVU1097
 4228              	.LPIC241:
 4229 1634 02208FE0 		add	r2, pc, r2
 4230 1638 EC519FE5 		ldr	r5, .L290+8
 4231 163c 033092E7 		ldr	r3, [r2, r3]
 4232              	.LPIC227:
 4233 1640 05508FE0 		add	r5, pc, r5
 4234 1644 003093E5 		ldr	r3, [r3]
 4235 1648 24308DE5 		str	r3, [sp, #36]
 4236 164c 0030A0E3 		mov	r3, #0
 654:/home/hkh/git/eapidk-code-r76-trunk/apps/EeePProg/linux/../EeePDB.c ****   EeePBufferMap_t BufferMap;
 4237              		.loc 1 654 3 is_stmt 1 view .LVU1098
 655:/home/hkh/git/eapidk-code-r76-trunk/apps/EeePProg/linux/../EeePDB.c ****   void *pContext;
 4238              		.loc 1 655 3 view .LVU1099
 4239              	.LVL337:
 656:/home/hkh/git/eapidk-code-r76-trunk/apps/EeePProg/linux/../EeePDB.c **** 
 4240              		.loc 1 656 3 view .LVU1100
 4241              		.loc 1 658 3 view .LVU1101
 4242 1650 4E00000A 		beq	.L283
 4243              		.loc 1 658 3 discriminator 2 view .LVU1102
 659:/home/hkh/git/eapidk-code-r76-trunk/apps/EeePProg/linux/../EeePDB.c ****       EeePCheckCRC,
 660:/home/hkh/git/eapidk-code-r76-trunk/apps/EeePProg/linux/../EeePDB.c ****       EAPI_STATUS_INVALID_PARAMETER,
 661:/home/hkh/git/eapidk-code-r76-trunk/apps/EeePProg/linux/../EeePDB.c ****       BHandel
 662:/home/hkh/git/eapidk-code-r76-trunk/apps/EeePProg/linux/../EeePDB.c ****     );
 4244              		.loc 1 662 6 discriminator 2 view .LVU1103
 663:/home/hkh/git/eapidk-code-r76-trunk/apps/EeePProg/linux/../EeePDB.c ****   DO(EeePMapBuffer(BHandel, &BufferMap));
 4245              		.loc 1 663 3 discriminator 2 view .LVU1104
 4246              		.loc 1 663 3 discriminator 2 view .LVU1105
 4247 1654 18108DE2 		add	r1, sp, #24
 4248 1658 FEFFFFEB 		bl	EeePMapBuffer(PLT)
 4249              	.LVL338:
 4250              		.loc 1 663 3 discriminator 2 view .LVU1106
 4251 165c 004050E2 		subs	r4, r0, #0
 4252 1660 3600001A 		bne	.L284
 4253              		.loc 1 663 3 discriminator 2 view .LVU1107
 664:/home/hkh/git/eapidk-code-r76-trunk/apps/EeePProg/linux/../EeePDB.c **** 
 665:/home/hkh/git/eapidk-code-r76-trunk/apps/EeePProg/linux/../EeePDB.c ****   EAPI_APP_RETURN_ERROR_IF(
 4254              		.loc 1 665 3 discriminator 2 view .LVU1108
 4255 1664 20309DE5 		ldr	r3, [sp, #32]
 4256 1668 000053E3 		cmp	r3, #0
 4257 166c 6000000A 		beq	.L285
 4258              		.loc 1 665 3 discriminator 2 view .LVU1109
 666:/home/hkh/git/eapidk-code-r76-trunk/apps/EeePProg/linux/../EeePDB.c ****       EeePCheckCRC,
 667:/home/hkh/git/eapidk-code-r76-trunk/apps/EeePProg/linux/../EeePDB.c ****       BufferMap.pEeePCRCBlock==NULL,
 668:/home/hkh/git/eapidk-code-r76-trunk/apps/EeePProg/linux/../EeePDB.c ****       EAPI_STATUS_ERROR,
 669:/home/hkh/git/eapidk-code-r76-trunk/apps/EeePProg/linux/../EeePDB.c ****       "No CRC Block Present"
 670:/home/hkh/git/eapidk-code-r76-trunk/apps/EeePProg/linux/../EeePDB.c ****     );
 4259              		.loc 1 670 6 discriminator 2 view .LVU1110
 671:/home/hkh/git/eapidk-code-r76-trunk/apps/EeePProg/linux/../EeePDB.c ****   BufferMap.pCmnHdr->DontCareByte=0;
 4260              		.loc 1 671 3 discriminator 2 view .LVU1111
 4261              		.loc 1 671 34 is_stmt 0 discriminator 2 view .LVU1112
 4262 1670 18209DE5 		ldr	r2, [sp, #24]
 672:/home/hkh/git/eapidk-code-r76-trunk/apps/EeePProg/linux/../EeePDB.c ****   DO(CRC_CCITT.init(&pContext));
 4263              		.loc 1 672 3 discriminator 2 view .LVU1113
 4264 1674 14608DE2 		add	r6, sp, #20
ARM GAS  /tmp/ccTXisr2.s 			page 106


 4265 1678 B0319FE5 		ldr	r3, .L290+12
 4266 167c 0600A0E1 		mov	r0, r6
 671:/home/hkh/git/eapidk-code-r76-trunk/apps/EeePProg/linux/../EeePDB.c ****   BufferMap.pCmnHdr->DontCareByte=0;
 4267              		.loc 1 671 34 discriminator 2 view .LVU1114
 4268 1680 0040C2E5 		strb	r4, [r2]
 4269              		.loc 1 672 3 is_stmt 1 discriminator 2 view .LVU1115
 4270              		.loc 1 672 3 discriminator 2 view .LVU1116
 4271 1684 035095E7 		ldr	r5, [r5, r3]
 4272 1688 003095E5 		ldr	r3, [r5]
 4273 168c 33FF2FE1 		blx	r3
 4274              	.LVL339:
 4275              		.loc 1 672 3 discriminator 2 view .LVU1117
 4276 1690 004050E2 		subs	r4, r0, #0
 4277 1694 3300001A 		bne	.L286
 4278              		.loc 1 672 3 discriminator 2 view .LVU1118
 673:/home/hkh/git/eapidk-code-r76-trunk/apps/EeePProg/linux/../EeePDB.c ****   DO(CRC_CCITT.bytes(
 4279              		.loc 1 673 3 discriminator 2 view .LVU1119
 4280              		.loc 1 673 3 discriminator 2 view .LVU1120
 4281 1698 20209DE5 		ldr	r2, [sp, #32]
 4282 169c 18109DE5 		ldr	r1, [sp, #24]
 4283 16a0 043095E5 		ldr	r3, [r5, #4]
 4284 16a4 032082E2 		add	r2, r2, #3
 4285 16a8 14009DE5 		ldr	r0, [sp, #20]
 4286              	.LVL340:
 4287              		.loc 1 673 3 is_stmt 0 discriminator 2 view .LVU1121
 4288 16ac 012042E0 		sub	r2, r2, r1
 4289 16b0 33FF2FE1 		blx	r3
 4290              	.LVL341:
 4291              		.loc 1 673 3 is_stmt 1 discriminator 2 view .LVU1122
 4292 16b4 004050E2 		subs	r4, r0, #0
 4293 16b8 1200001A 		bne	.L287
 4294              		.loc 1 673 3 discriminator 2 view .LVU1123
 674:/home/hkh/git/eapidk-code-r76-trunk/apps/EeePProg/linux/../EeePDB.c ****                 pContext, 
 675:/home/hkh/git/eapidk-code-r76-trunk/apps/EeePProg/linux/../EeePDB.c ****                 BufferMap.pCmnHdr, 
 676:/home/hkh/git/eapidk-code-r76-trunk/apps/EeePProg/linux/../EeePDB.c ****                 EAPI_GET_PTR_OFFSET(BufferMap.pEeePCRCBlock->CrC16, BufferMap.pCmnHdr)
 677:/home/hkh/git/eapidk-code-r76-trunk/apps/EeePProg/linux/../EeePDB.c ****         ));
 678:/home/hkh/git/eapidk-code-r76-trunk/apps/EeePProg/linux/../EeePDB.c ****   DO(CRC_CCITT.verify(&pContext, BufferMap.pEeePCRCBlock->CrC16));
 4295              		.loc 1 678 3 discriminator 2 view .LVU1124
 4296              		.loc 1 678 3 discriminator 2 view .LVU1125
 4297 16bc 20109DE5 		ldr	r1, [sp, #32]
 4298 16c0 0600A0E1 		mov	r0, r6
 4299 16c4 0C3095E5 		ldr	r3, [r5, #12]
 4300 16c8 031081E2 		add	r1, r1, #3
 4301 16cc 33FF2FE1 		blx	r3
 4302              	.LVL342:
 4303              		.loc 1 678 3 discriminator 2 view .LVU1126
 4304 16d0 004050E2 		subs	r4, r0, #0
 4305 16d4 3C00001A 		bne	.L288
 4306              	.LVL343:
 4307              	.L269:
 653:/home/hkh/git/eapidk-code-r76-trunk/apps/EeePProg/linux/../EeePDB.c ****   EeePBufferMap_t BufferMap;
 4308              		.loc 1 653 1 is_stmt 0 view .LVU1127
 4309 16d8 54219FE5 		ldr	r2, .L290+16
 679:/home/hkh/git/eapidk-code-r76-trunk/apps/EeePProg/linux/../EeePDB.c **** 
 680:/home/hkh/git/eapidk-code-r76-trunk/apps/EeePProg/linux/../EeePDB.c **** EAPI_APP_ASSERT_EXIT
 681:/home/hkh/git/eapidk-code-r76-trunk/apps/EeePProg/linux/../EeePDB.c ****   return StatusCode;
 682:/home/hkh/git/eapidk-code-r76-trunk/apps/EeePProg/linux/../EeePDB.c **** }
ARM GAS  /tmp/ccTXisr2.s 			page 107


 4310              		.loc 1 682 1 view .LVU1128
 4311 16dc 44319FE5 		ldr	r3, .L290+4
 653:/home/hkh/git/eapidk-code-r76-trunk/apps/EeePProg/linux/../EeePDB.c ****   EeePBufferMap_t BufferMap;
 4312              		.loc 1 653 1 view .LVU1129
 4313              	.LPIC240:
 4314 16e0 02208FE0 		add	r2, pc, r2
 4315              		.loc 1 682 1 view .LVU1130
 4316 16e4 033092E7 		ldr	r3, [r2, r3]
 4317 16e8 002093E5 		ldr	r2, [r3]
 4318 16ec 24309DE5 		ldr	r3, [sp, #36]
 4319 16f0 022033E0 		eors	r2, r3, r2
 4320 16f4 0030A0E3 		mov	r3, #0
 4321 16f8 4800001A 		bne	.L289
 4322 16fc 0400A0E1 		mov	r0, r4
 4323 1700 28D08DE2 		add	sp, sp, #40
 4324              		.cfi_remember_state
 4325              		.cfi_def_cfa_offset 16
 4326              		@ sp needed
 4327 1704 7080BDE8 		pop	{r4, r5, r6, pc}
 4328              	.LVL344:
 4329              	.L287:
 4330              		.cfi_restore_state
 673:/home/hkh/git/eapidk-code-r76-trunk/apps/EeePProg/linux/../EeePDB.c ****                 pContext, 
 4331              		.loc 1 673 3 is_stmt 1 discriminator 1 view .LVU1131
 4332 1708 28C19FE5 		ldr	ip, .L290+20
 4333 170c A13200E3 		movw	r3, #673
 4334 1710 24019FE5 		ldr	r0, .L290+24
 4335              	.LVL345:
 673:/home/hkh/git/eapidk-code-r76-trunk/apps/EeePProg/linux/../EeePDB.c ****                 pContext, 
 4336              		.loc 1 673 3 is_stmt 0 discriminator 1 view .LVU1132
 4337 1714 24219FE5 		ldr	r2, .L290+28
 4338 1718 24119FE5 		ldr	r1, .L290+32
 4339              	.LPIC234:
 4340 171c 0CC08FE0 		add	ip, pc, ip
 4341              	.LPIC235:
 4342 1720 00008FE0 		add	r0, pc, r0
 4343              	.LPIC232:
 4344 1724 02208FE0 		add	r2, pc, r2
 4345              	.LPIC233:
 4346 1728 01108FE0 		add	r1, pc, r1
 4347              	.L282:
 4348              	.L271:
 678:/home/hkh/git/eapidk-code-r76-trunk/apps/EeePProg/linux/../EeePDB.c **** 
 4349              		.loc 1 678 3 discriminator 1 view .LVU1133
 4350 172c 01108DE9 		stmib	sp, {r0, ip}
 4351 1730 4500A0E3 		mov	r0, #69
 4352 1734 00408DE5 		str	r4, [sp]
 4353 1738 FEFFFFEB 		bl	siFormattedMessage_SC(PLT)
 4354              	.LVL346:
 678:/home/hkh/git/eapidk-code-r76-trunk/apps/EeePProg/linux/../EeePDB.c **** 
 4355              		.loc 1 678 3 is_stmt 1 discriminator 1 view .LVU1134
 678:/home/hkh/git/eapidk-code-r76-trunk/apps/EeePProg/linux/../EeePDB.c **** 
 4356              		.loc 1 678 3 discriminator 1 view .LVU1135
 681:/home/hkh/git/eapidk-code-r76-trunk/apps/EeePProg/linux/../EeePDB.c **** }
 4357              		.loc 1 681 3 discriminator 1 view .LVU1136
 681:/home/hkh/git/eapidk-code-r76-trunk/apps/EeePProg/linux/../EeePDB.c **** }
 4358              		.loc 1 681 10 is_stmt 0 discriminator 1 view .LVU1137
ARM GAS  /tmp/ccTXisr2.s 			page 108


 4359 173c E5FFFFEA 		b	.L269
 4360              	.LVL347:
 4361              	.L284:
 663:/home/hkh/git/eapidk-code-r76-trunk/apps/EeePProg/linux/../EeePDB.c **** 
 4362              		.loc 1 663 3 is_stmt 1 discriminator 1 view .LVU1138
 4363 1740 00C19FE5 		ldr	ip, .L290+36
 4364 1744 973200E3 		movw	r3, #663
 4365 1748 FC009FE5 		ldr	r0, .L290+40
 4366              	.LVL348:
 663:/home/hkh/git/eapidk-code-r76-trunk/apps/EeePProg/linux/../EeePDB.c **** 
 4367              		.loc 1 663 3 is_stmt 0 discriminator 1 view .LVU1139
 4368 174c FC209FE5 		ldr	r2, .L290+44
 4369 1750 FC109FE5 		ldr	r1, .L290+48
 4370              	.LPIC221:
 4371 1754 0CC08FE0 		add	ip, pc, ip
 4372              	.LPIC222:
 4373 1758 00008FE0 		add	r0, pc, r0
 4374              	.LPIC219:
 4375 175c 02208FE0 		add	r2, pc, r2
 4376              	.LPIC220:
 4377 1760 01108FE0 		add	r1, pc, r1
 4378 1764 F0FFFFEA 		b	.L282
 4379              	.LVL349:
 4380              	.L286:
 672:/home/hkh/git/eapidk-code-r76-trunk/apps/EeePProg/linux/../EeePDB.c ****   DO(CRC_CCITT.bytes(
 4381              		.loc 1 672 3 is_stmt 1 discriminator 1 view .LVU1140
 4382 1768 E8C09FE5 		ldr	ip, .L290+52
 4383 176c 2A3EA0E3 		mov	r3, #672
 4384 1770 E4009FE5 		ldr	r0, .L290+56
 4385              	.LVL350:
 672:/home/hkh/git/eapidk-code-r76-trunk/apps/EeePProg/linux/../EeePDB.c ****   DO(CRC_CCITT.bytes(
 4386              		.loc 1 672 3 is_stmt 0 discriminator 1 view .LVU1141
 4387 1774 E4209FE5 		ldr	r2, .L290+60
 4388 1778 E4109FE5 		ldr	r1, .L290+64
 4389              	.LPIC230:
 4390 177c 0CC08FE0 		add	ip, pc, ip
 4391              	.LPIC231:
 4392 1780 00008FE0 		add	r0, pc, r0
 4393              	.LPIC228:
 4394 1784 02208FE0 		add	r2, pc, r2
 4395              	.LPIC229:
 4396 1788 01108FE0 		add	r1, pc, r1
 4397 178c E6FFFFEA 		b	.L282
 4398              	.LVL351:
 4399              	.L283:
 658:/home/hkh/git/eapidk-code-r76-trunk/apps/EeePProg/linux/../EeePDB.c ****       EeePCheckCRC,
 4400              		.loc 1 658 3 is_stmt 1 discriminator 1 view .LVU1142
 658:/home/hkh/git/eapidk-code-r76-trunk/apps/EeePProg/linux/../EeePDB.c ****       EeePCheckCRC,
 4401              		.loc 1 658 3 discriminator 1 view .LVU1143
 4402 1790 D0C09FE5 		ldr	ip, .L290+68
 4403 1794 014CE0E3 		mvn	r4, #256
 4404 1798 CC009FE5 		ldr	r0, .L290+72
 4405              	.LVL352:
 658:/home/hkh/git/eapidk-code-r76-trunk/apps/EeePProg/linux/../EeePDB.c ****       EeePCheckCRC,
 4406              		.loc 1 658 3 is_stmt 0 discriminator 1 view .LVU1144
 4407 179c 923200E3 		movw	r3, #658
 4408 17a0 C8209FE5 		ldr	r2, .L290+76
ARM GAS  /tmp/ccTXisr2.s 			page 109


 4409 17a4 C8109FE5 		ldr	r1, .L290+80
 4410              	.LPIC217:
 4411 17a8 0CC08FE0 		add	ip, pc, ip
 4412              	.LPIC218:
 4413 17ac 00008FE0 		add	r0, pc, r0
 4414              	.LPIC215:
 4415 17b0 02208FE0 		add	r2, pc, r2
 4416              	.LPIC216:
 4417 17b4 01108FE0 		add	r1, pc, r1
 4418              	.LVL353:
 4419              	.L281:
 665:/home/hkh/git/eapidk-code-r76-trunk/apps/EeePProg/linux/../EeePDB.c ****       EeePCheckCRC,
 4420              		.loc 1 665 3 discriminator 1 view .LVU1145
 4421 17b8 01108DE9 		stmib	sp, {r0, ip}
 4422 17bc 4500A0E3 		mov	r0, #69
 4423 17c0 00408DE5 		str	r4, [sp]
 4424 17c4 FEFFFFEB 		bl	siFormattedMessage_SC(PLT)
 4425              	.LVL354:
 665:/home/hkh/git/eapidk-code-r76-trunk/apps/EeePProg/linux/../EeePDB.c ****       EeePCheckCRC,
 4426              		.loc 1 665 3 is_stmt 1 discriminator 1 view .LVU1146
 665:/home/hkh/git/eapidk-code-r76-trunk/apps/EeePProg/linux/../EeePDB.c ****       EeePCheckCRC,
 4427              		.loc 1 665 3 discriminator 1 view .LVU1147
 665:/home/hkh/git/eapidk-code-r76-trunk/apps/EeePProg/linux/../EeePDB.c ****       EeePCheckCRC,
 4428              		.loc 1 665 3 discriminator 1 view .LVU1148
 4429 17c8 C2FFFFEA 		b	.L269
 4430              	.LVL355:
 4431              	.L288:
 678:/home/hkh/git/eapidk-code-r76-trunk/apps/EeePProg/linux/../EeePDB.c **** 
 4432              		.loc 1 678 3 discriminator 1 view .LVU1149
 4433 17cc A4C09FE5 		ldr	ip, .L290+84
 4434 17d0 A63200E3 		movw	r3, #678
 4435 17d4 A0009FE5 		ldr	r0, .L290+88
 4436              	.LVL356:
 678:/home/hkh/git/eapidk-code-r76-trunk/apps/EeePProg/linux/../EeePDB.c **** 
 4437              		.loc 1 678 3 is_stmt 0 discriminator 1 view .LVU1150
 4438 17d8 A0209FE5 		ldr	r2, .L290+92
 4439 17dc A0109FE5 		ldr	r1, .L290+96
 4440              	.LPIC238:
 4441 17e0 0CC08FE0 		add	ip, pc, ip
 4442              	.LPIC239:
 4443 17e4 00008FE0 		add	r0, pc, r0
 4444              	.LPIC236:
 4445 17e8 02208FE0 		add	r2, pc, r2
 4446              	.LPIC237:
 4447 17ec 01108FE0 		add	r1, pc, r1
 4448 17f0 CDFFFFEA 		b	.L282
 4449              	.LVL357:
 4450              	.L285:
 665:/home/hkh/git/eapidk-code-r76-trunk/apps/EeePProg/linux/../EeePDB.c ****       EeePCheckCRC,
 4451              		.loc 1 665 3 is_stmt 1 discriminator 1 view .LVU1151
 665:/home/hkh/git/eapidk-code-r76-trunk/apps/EeePProg/linux/../EeePDB.c ****       EeePCheckCRC,
 4452              		.loc 1 665 3 discriminator 1 view .LVU1152
 4453 17f4 8CC09FE5 		ldr	ip, .L290+100
 4454 17f8 0F4CE0E3 		mvn	r4, #3840
 4455 17fc 88009FE5 		ldr	r0, .L290+104
 4456              	.LVL358:
 665:/home/hkh/git/eapidk-code-r76-trunk/apps/EeePProg/linux/../EeePDB.c ****       EeePCheckCRC,
ARM GAS  /tmp/ccTXisr2.s 			page 110


 4457              		.loc 1 665 3 is_stmt 0 discriminator 1 view .LVU1153
 4458 1800 993200E3 		movw	r3, #665
 4459 1804 84209FE5 		ldr	r2, .L290+108
 4460 1808 84109FE5 		ldr	r1, .L290+112
 4461              	.LPIC225:
 4462 180c 0CC08FE0 		add	ip, pc, ip
 4463              	.LPIC226:
 4464 1810 00008FE0 		add	r0, pc, r0
 4465              	.LPIC223:
 4466 1814 02208FE0 		add	r2, pc, r2
 4467              	.LPIC224:
 4468 1818 01108FE0 		add	r1, pc, r1
 4469 181c E5FFFFEA 		b	.L281
 4470              	.L289:
 4471              		.loc 1 682 1 view .LVU1154
 4472 1820 FEFFFFEB 		bl	__stack_chk_fail(PLT)
 4473              	.LVL359:
 4474              	.L291:
 4475              		.align	2
 4476              	.L290:
 4477 1824 E8010000 		.word	_GLOBAL_OFFSET_TABLE_-(.LPIC241+8)
 4478 1828 00000000 		.word	__stack_chk_guard(GOT)
 4479 182c E4010000 		.word	_GLOBAL_OFFSET_TABLE_-(.LPIC227+8)
 4480 1830 00000000 		.word	CRC_CCITT(GOT)
 4481 1834 4C010000 		.word	_GLOBAL_OFFSET_TABLE_-(.LPIC240+8)
 4482 1838 14010000 		.word	.LC47-(.LPIC234+8)
 4483 183c 14010000 		.word	.LC5-(.LPIC235+8)
 4484 1840 14010000 		.word	.LC25-(.LPIC232+8)
 4485 1844 14010000 		.word	.LC3-(.LPIC233+8)
 4486 1848 EC000000 		.word	.LC44-(.LPIC221+8)
 4487 184c EC000000 		.word	.LC5-(.LPIC222+8)
 4488 1850 EC000000 		.word	.LC25-(.LPIC219+8)
 4489 1854 EC000000 		.word	.LC3-(.LPIC220+8)
 4490 1858 D4000000 		.word	.LC46-(.LPIC230+8)
 4491 185c D4000000 		.word	.LC5-(.LPIC231+8)
 4492 1860 D4000000 		.word	.LC25-(.LPIC228+8)
 4493 1864 D4000000 		.word	.LC3-(.LPIC229+8)
 4494 1868 B8000000 		.word	.LC4-(.LPIC217+8)
 4495 186c B8000000 		.word	.LC5-(.LPIC218+8)
 4496 1870 B8000000 		.word	.LC49-(.LPIC215+8)
 4497 1874 B8000000 		.word	.LC3-(.LPIC216+8)
 4498 1878 90000000 		.word	.LC50-(.LPIC238+8)
 4499 187c 90000000 		.word	.LC5-(.LPIC239+8)
 4500 1880 90000000 		.word	.LC25-(.LPIC236+8)
 4501 1884 90000000 		.word	.LC3-(.LPIC237+8)
 4502 1888 74000000 		.word	.LC45-(.LPIC225+8)
 4503 188c 74000000 		.word	.LC5-(.LPIC226+8)
 4504 1890 74000000 		.word	.LC49-(.LPIC223+8)
 4505 1894 74000000 		.word	.LC3-(.LPIC224+8)
 4506              		.cfi_endproc
 4507              	.LFE16:
 4509              		.section	.rodata.str1.4
 4510              		.align	2
 4511              	.LC51:
 4512 0738 45656550 		.ascii	"EeePAddBlock\000"
 4512      41646442 
 4512      6C6F636B 
ARM GAS  /tmp/ccTXisr2.s 			page 111


 4512      00
 4513 0745 000000   		.align	2
 4514              	.LC52:
 4515 0748 28706376 		.ascii	"(pcvBlock==NULL)\000"
 4515      426C6F63 
 4515      6B3D3D4E 
 4515      554C4C29 
 4515      00
 4516 0759 000000   		.align	2
 4517              	.LC53:
 4518 075c 4E6F2045 		.ascii	"No Empty Block Present\000"
 4518      6D707479 
 4518      20426C6F 
 4518      636B2050 
 4518      72657365 
 4519 0773 00       		.align	2
 4520              	.LC54:
 4521 0774 28526571 		.ascii	"(RequestBlockSize+EEEP_MIN_BLOCK_LENGTH>(GetBlockLe"
 4521      75657374 
 4521      426C6F63 
 4521      6B53697A 
 4521      652B4545 
 4522 07a7 6E677468 		.ascii	"ngth(BufferMap.pEmptyBlock)))\000"
 4522      28427566 
 4522      6665724D 
 4522      61702E70 
 4522      456D7074 
 4523 07c5 000000   		.align	2
 4524              	.LC55:
 4525 07c8 28637569 		.ascii	"(cuiFlags&EEEP_ADDBLK_IN_CRC)&&(BufferMap.pEeePCRCB"
 4525      466C6167 
 4525      73264545 
 4525      45505F41 
 4525      4444424C 
 4526 07fb 6C6F636B 		.ascii	"lock==NULL)\000"
 4526      3D3D4E55 
 4526      4C4C2900 
 4527 0807 00       		.align	2
 4528              	.LC56:
 4529 0808 52656475 		.ascii	"ReduceBlockLength(&BufferMap.pEmptyBlock, RequestBl"
 4529      6365426C 
 4529      6F636B4C 
 4529      656E6774 
 4529      68282642 
 4530 083b 6F636B53 		.ascii	"ockSize, NULL, 0)\000"
 4530      697A652C 
 4530      204E554C 
 4530      4C2C2030 
 4530      2900
 4531 084d 000000   		.align	2
 4532              	.LC57:
 4533 0850 52656475 		.ascii	"ReduceBlockLength(&BufferMap.pEmptyBlock, RequestBl"
 4533      6365426C 
 4533      6F636B4C 
 4533      656E6774 
 4533      68282642 
 4534 0883 6F636B53 		.ascii	"ockSize, &pvTmpBlock, EEEP_RBL_REDUCE_TOP_DOWN)\000"
ARM GAS  /tmp/ccTXisr2.s 			page 112


 4534      697A652C 
 4534      20267076 
 4534      546D7042 
 4534      6C6F636B 
 4535              		.text
 4536              		.align	2
 4537              		.global	EeePAddBlock
 4538              		.syntax unified
 4539              		.arm
 4540              		.fpu vfpv3
 4542              	EeePAddBlock:
 4543              	.LVL360:
 4544              	.LFB17:
 683:/home/hkh/git/eapidk-code-r76-trunk/apps/EeePProg/linux/../EeePDB.c **** 
 684:/home/hkh/git/eapidk-code-r76-trunk/apps/EeePProg/linux/../EeePDB.c **** EApiStatus_t
 685:/home/hkh/git/eapidk-code-r76-trunk/apps/EeePProg/linux/../EeePDB.c **** EeePAddBlock(
 686:/home/hkh/git/eapidk-code-r76-trunk/apps/EeePProg/linux/../EeePDB.c ****     EeePHandel_t   BHandel ,
 687:/home/hkh/git/eapidk-code-r76-trunk/apps/EeePProg/linux/../EeePDB.c ****     const void    *pcvBlock , 
 688:/home/hkh/git/eapidk-code-r76-trunk/apps/EeePProg/linux/../EeePDB.c ****           void   **pvIBlock , 
 689:/home/hkh/git/eapidk-code-r76-trunk/apps/EeePProg/linux/../EeePDB.c ****     const unsigned cuiFlags    
 690:/home/hkh/git/eapidk-code-r76-trunk/apps/EeePProg/linux/../EeePDB.c ****     )
 691:/home/hkh/git/eapidk-code-r76-trunk/apps/EeePProg/linux/../EeePDB.c **** {
 4545              		.loc 1 691 1 is_stmt 1 view -0
 4546              		.cfi_startproc
 4547              		@ args = 0, pretend = 0, frame = 24
 4548              		@ frame_needed = 0, uses_anonymous_args = 0
 4549              		.loc 1 691 1 is_stmt 0 view .LVU1156
 4550 1898 F0472DE9 		push	{r4, r5, r6, r7, r8, r9, r10, lr}
 4551              		.cfi_def_cfa_offset 32
 4552              		.cfi_offset 4, -32
 4553              		.cfi_offset 5, -28
 4554              		.cfi_offset 6, -24
 4555              		.cfi_offset 7, -20
 4556              		.cfi_offset 8, -16
 4557              		.cfi_offset 9, -12
 4558              		.cfi_offset 10, -8
 4559              		.cfi_offset 14, -4
 4560 189c 0270A0E1 		mov	r7, r2
 4561 18a0 14239FE5 		ldr	r2, .L333
 4562              	.LVL361:
 4563              		.loc 1 691 1 view .LVU1157
 4564 18a4 0380A0E1 		mov	r8, r3
 692:/home/hkh/git/eapidk-code-r76-trunk/apps/EeePProg/linux/../EeePDB.c ****   EeePBufferMap_t BufferMap;
 693:/home/hkh/git/eapidk-code-r76-trunk/apps/EeePProg/linux/../EeePDB.c ****   EApiStatus_t StatusCode=EAPI_STATUS_SUCCESS;
 694:/home/hkh/git/eapidk-code-r76-trunk/apps/EeePProg/linux/../EeePDB.c ****   size_t RequestBlockSize;
 695:/home/hkh/git/eapidk-code-r76-trunk/apps/EeePProg/linux/../EeePDB.c ****   DBlockIdHdr_t    *pTmpBlock   ;
 696:/home/hkh/git/eapidk-code-r76-trunk/apps/EeePProg/linux/../EeePDB.c ****   DBlockIdHdr_t    *pvTmpBlock; 
 697:/home/hkh/git/eapidk-code-r76-trunk/apps/EeePProg/linux/../EeePDB.c **** 
 698:/home/hkh/git/eapidk-code-r76-trunk/apps/EeePProg/linux/../EeePDB.c ****   EAPI_APP_ASSERT_PARAMATER_NULL(
 4565              		.loc 1 698 3 view .LVU1158
 4566 18a8 004050E2 		subs	r4, r0, #0
 691:/home/hkh/git/eapidk-code-r76-trunk/apps/EeePProg/linux/../EeePDB.c ****   EeePBufferMap_t BufferMap;
 4567              		.loc 1 691 1 view .LVU1159
 4568 18ac 28D04DE2 		sub	sp, sp, #40
 4569              		.cfi_def_cfa_offset 72
 691:/home/hkh/git/eapidk-code-r76-trunk/apps/EeePProg/linux/../EeePDB.c ****   EeePBufferMap_t BufferMap;
 4570              		.loc 1 691 1 view .LVU1160
ARM GAS  /tmp/ccTXisr2.s 			page 113


 4571 18b0 08339FE5 		ldr	r3, .L333+4
 4572              	.LVL362:
 691:/home/hkh/git/eapidk-code-r76-trunk/apps/EeePProg/linux/../EeePDB.c ****   EeePBufferMap_t BufferMap;
 4573              		.loc 1 691 1 view .LVU1161
 4574              	.LPIC275:
 4575 18b4 02208FE0 		add	r2, pc, r2
 4576 18b8 033092E7 		ldr	r3, [r2, r3]
 4577 18bc 003093E5 		ldr	r3, [r3]
 4578 18c0 24308DE5 		str	r3, [sp, #36]
 4579 18c4 0030A0E3 		mov	r3, #0
 692:/home/hkh/git/eapidk-code-r76-trunk/apps/EeePProg/linux/../EeePDB.c ****   EeePBufferMap_t BufferMap;
 4580              		.loc 1 692 3 is_stmt 1 view .LVU1162
 693:/home/hkh/git/eapidk-code-r76-trunk/apps/EeePProg/linux/../EeePDB.c ****   size_t RequestBlockSize;
 4581              		.loc 1 693 3 view .LVU1163
 4582              	.LVL363:
 694:/home/hkh/git/eapidk-code-r76-trunk/apps/EeePProg/linux/../EeePDB.c ****   DBlockIdHdr_t    *pTmpBlock   ;
 4583              		.loc 1 694 3 view .LVU1164
 695:/home/hkh/git/eapidk-code-r76-trunk/apps/EeePProg/linux/../EeePDB.c ****   DBlockIdHdr_t    *pvTmpBlock; 
 4584              		.loc 1 695 3 view .LVU1165
 696:/home/hkh/git/eapidk-code-r76-trunk/apps/EeePProg/linux/../EeePDB.c **** 
 4585              		.loc 1 696 3 view .LVU1166
 4586              		.loc 1 698 3 view .LVU1167
 4587 18c8 7B00000A 		beq	.L323
 699:/home/hkh/git/eapidk-code-r76-trunk/apps/EeePProg/linux/../EeePDB.c ****       EeePAddBlock,
 700:/home/hkh/git/eapidk-code-r76-trunk/apps/EeePProg/linux/../EeePDB.c ****       EAPI_STATUS_INVALID_PARAMETER,
 701:/home/hkh/git/eapidk-code-r76-trunk/apps/EeePProg/linux/../EeePDB.c ****       BHandel
 702:/home/hkh/git/eapidk-code-r76-trunk/apps/EeePProg/linux/../EeePDB.c ****     );
 703:/home/hkh/git/eapidk-code-r76-trunk/apps/EeePProg/linux/../EeePDB.c ****   EAPI_APP_ASSERT_PARAMATER_NULL(
 4588              		.loc 1 703 3 is_stmt 0 discriminator 2 view .LVU1168
 4589 18cc 000051E3 		cmp	r1, #0
 4590 18d0 0160A0E1 		mov	r6, r1
 698:/home/hkh/git/eapidk-code-r76-trunk/apps/EeePProg/linux/../EeePDB.c ****       EeePAddBlock,
 4591              		.loc 1 698 3 is_stmt 1 discriminator 2 view .LVU1169
 702:/home/hkh/git/eapidk-code-r76-trunk/apps/EeePProg/linux/../EeePDB.c ****   EAPI_APP_ASSERT_PARAMATER_NULL(
 4592              		.loc 1 702 6 discriminator 2 view .LVU1170
 4593              		.loc 1 703 3 discriminator 2 view .LVU1171
 4594 18d4 A100000A 		beq	.L324
 4595              		.loc 1 703 3 discriminator 2 view .LVU1172
 704:/home/hkh/git/eapidk-code-r76-trunk/apps/EeePProg/linux/../EeePDB.c ****       EeePAddBlock,
 705:/home/hkh/git/eapidk-code-r76-trunk/apps/EeePProg/linux/../EeePDB.c ****       EAPI_STATUS_INVALID_PARAMETER,
 706:/home/hkh/git/eapidk-code-r76-trunk/apps/EeePProg/linux/../EeePDB.c ****       pcvBlock
 707:/home/hkh/git/eapidk-code-r76-trunk/apps/EeePProg/linux/../EeePDB.c ****     );
 4596              		.loc 1 707 6 discriminator 2 view .LVU1173
 708:/home/hkh/git/eapidk-code-r76-trunk/apps/EeePProg/linux/../EeePDB.c ****   if(pvIBlock!=NULL) *pvIBlock=NULL;
 4597              		.loc 1 708 3 discriminator 2 view .LVU1174
 4598              		.loc 1 708 5 is_stmt 0 discriminator 2 view .LVU1175
 4599 18d8 000057E3 		cmp	r7, #0
 4600              		.loc 1 708 22 is_stmt 1 discriminator 2 view .LVU1176
 709:/home/hkh/git/eapidk-code-r76-trunk/apps/EeePProg/linux/../EeePDB.c ****   RequestBlockSize=GetBlockLength(pcvBlock);
 4601              		.loc 1 709 3 discriminator 2 view .LVU1177
 4602              	.LVL364:
 4603              	.LBB354:
 4604              	.LBI354:
 144:/home/hkh/git/eapidk-code-r76-trunk/apps/EeePProg/linux/../EeePDB.c ****     const void * pcvBHandel
 4605              		.loc 1 144 1 discriminator 2 view .LVU1178
 4606              	.LBB355:
 148:/home/hkh/git/eapidk-code-r76-trunk/apps/EeePProg/linux/../EeePDB.c ****   if(!pcvBHandel) return stBlockSize;
ARM GAS  /tmp/ccTXisr2.s 			page 114


 4607              		.loc 1 148 3 discriminator 2 view .LVU1179
 149:/home/hkh/git/eapidk-code-r76-trunk/apps/EeePProg/linux/../EeePDB.c **** 
 4608              		.loc 1 149 3 discriminator 2 view .LVU1180
 4609              	.LBB356:
 4610              	.LBI356:
 144:/home/hkh/git/eapidk-code-r76-trunk/apps/EeePProg/linux/../EeePDB.c ****     const void * pcvBHandel
 4611              		.loc 1 144 1 discriminator 2 view .LVU1181
 4612              	.LBB357:
 151:/home/hkh/git/eapidk-code-r76-trunk/apps/EeePProg/linux/../EeePDB.c ****   return stBlockSize;
 4613              		.loc 1 151 3 discriminator 2 view .LVU1182
 151:/home/hkh/git/eapidk-code-r76-trunk/apps/EeePProg/linux/../EeePDB.c ****   return stBlockSize;
 4614              		.loc 1 151 15 is_stmt 0 discriminator 2 view .LVU1183
 4615 18dc 010081E2 		add	r0, r1, #1
 4616              	.LVL365:
 151:/home/hkh/git/eapidk-code-r76-trunk/apps/EeePProg/linux/../EeePDB.c ****   return stBlockSize;
 4617              		.loc 1 151 15 discriminator 2 view .LVU1184
 4618              	.LBE357:
 4619              	.LBE356:
 4620              	.LBE355:
 4621              	.LBE354:
 708:/home/hkh/git/eapidk-code-r76-trunk/apps/EeePProg/linux/../EeePDB.c ****   RequestBlockSize=GetBlockLength(pcvBlock);
 4622              		.loc 1 708 31 discriminator 2 view .LVU1185
 4623 18e0 0030A013 		movne	r3, #0
 4624 18e4 00308715 		strne	r3, [r7]
 4625              	.LBB370:
 4626              	.LBB366:
 4627              	.LBB362:
 4628              	.LBB358:
 151:/home/hkh/git/eapidk-code-r76-trunk/apps/EeePProg/linux/../EeePDB.c ****   return stBlockSize;
 4629              		.loc 1 151 15 discriminator 2 view .LVU1186
 4630 18e8 FEFFFFEB 		bl	EeeP_Get16BitValue_BE(PLT)
 4631              	.LVL366:
 151:/home/hkh/git/eapidk-code-r76-trunk/apps/EeePProg/linux/../EeePDB.c ****   return stBlockSize;
 4632              		.loc 1 151 15 discriminator 2 view .LVU1187
 4633              	.LBE358:
 4634              	.LBE362:
 4635              	.LBE366:
 4636              	.LBE370:
 710:/home/hkh/git/eapidk-code-r76-trunk/apps/EeePProg/linux/../EeePDB.c ****   DO(EeePMapBuffer(BHandel, &BufferMap));
 4637              		.loc 1 710 3 discriminator 2 view .LVU1188
 4638 18ec 18108DE2 		add	r1, sp, #24
 4639              	.LBB371:
 4640              	.LBB367:
 4641              	.LBB363:
 4642              	.LBB359:
 151:/home/hkh/git/eapidk-code-r76-trunk/apps/EeePProg/linux/../EeePDB.c ****   return stBlockSize;
 4643              		.loc 1 151 15 discriminator 2 view .LVU1189
 4644 18f0 0050A0E1 		mov	r5, r0
 4645              	.LBE359:
 4646              	.LBE363:
 4647              	.LBE367:
 4648              	.LBE371:
 4649              		.loc 1 710 3 discriminator 2 view .LVU1190
 4650 18f4 0400A0E1 		mov	r0, r4
 4651              	.LVL367:
 4652              	.LBB372:
 4653              	.LBB368:
ARM GAS  /tmp/ccTXisr2.s 			page 115


 4654              	.LBB364:
 4655              	.LBB360:
 152:/home/hkh/git/eapidk-code-r76-trunk/apps/EeePProg/linux/../EeePDB.c **** }
 4656              		.loc 1 152 3 is_stmt 1 discriminator 2 view .LVU1191
 152:/home/hkh/git/eapidk-code-r76-trunk/apps/EeePProg/linux/../EeePDB.c **** }
 4657              		.loc 1 152 3 is_stmt 0 discriminator 2 view .LVU1192
 4658              	.LBE360:
 4659              	.LBE364:
 4660              	.LBE368:
 4661              	.LBE372:
 4662              		.loc 1 710 3 is_stmt 1 discriminator 2 view .LVU1193
 4663              		.loc 1 710 3 discriminator 2 view .LVU1194
 4664 18f8 FEFFFFEB 		bl	EeePMapBuffer(PLT)
 4665              	.LVL368:
 4666              		.loc 1 710 3 discriminator 2 view .LVU1195
 4667 18fc 004050E2 		subs	r4, r0, #0
 4668              	.LVL369:
 4669              		.loc 1 710 3 is_stmt 0 discriminator 2 view .LVU1196
 4670 1900 4500001A 		bne	.L325
 4671              		.loc 1 710 3 is_stmt 1 discriminator 2 view .LVU1197
 711:/home/hkh/git/eapidk-code-r76-trunk/apps/EeePProg/linux/../EeePDB.c **** 
 712:/home/hkh/git/eapidk-code-r76-trunk/apps/EeePProg/linux/../EeePDB.c ****   EAPI_APP_RETURN_ERROR_IF(
 4672              		.loc 1 712 3 discriminator 2 view .LVU1198
 4673 1904 1C009DE5 		ldr	r0, [sp, #28]
 4674              	.LVL370:
 4675              		.loc 1 712 3 is_stmt 0 discriminator 2 view .LVU1199
 4676 1908 000050E3 		cmp	r0, #0
 4677 190c 5F00000A 		beq	.L326
 4678              	.LBB373:
 4679              	.LBB369:
 4680              	.LBB365:
 4681              	.LBB361:
 151:/home/hkh/git/eapidk-code-r76-trunk/apps/EeePProg/linux/../EeePDB.c ****   return stBlockSize;
 4682              		.loc 1 151 81 discriminator 2 view .LVU1200
 4683 1910 8550A0E1 		lsl	r5, r5, #1
 4684              	.LVL371:
 151:/home/hkh/git/eapidk-code-r76-trunk/apps/EeePProg/linux/../EeePDB.c ****   return stBlockSize;
 4685              		.loc 1 151 81 discriminator 2 view .LVU1201
 4686              	.LBE361:
 4687              	.LBE365:
 4688              	.LBE369:
 4689              	.LBE373:
 4690              		.loc 1 712 3 is_stmt 1 discriminator 2 view .LVU1202
 713:/home/hkh/git/eapidk-code-r76-trunk/apps/EeePProg/linux/../EeePDB.c ****       EeePAddBlock,
 714:/home/hkh/git/eapidk-code-r76-trunk/apps/EeePProg/linux/../EeePDB.c ****       (BufferMap.pEmptyBlock==NULL),
 715:/home/hkh/git/eapidk-code-r76-trunk/apps/EeePProg/linux/../EeePDB.c ****       EAPI_STATUS_ERROR,
 716:/home/hkh/git/eapidk-code-r76-trunk/apps/EeePProg/linux/../EeePDB.c ****       "No Empty Block Present"
 717:/home/hkh/git/eapidk-code-r76-trunk/apps/EeePProg/linux/../EeePDB.c ****     );
 4691              		.loc 1 717 6 discriminator 2 view .LVU1203
 718:/home/hkh/git/eapidk-code-r76-trunk/apps/EeePProg/linux/../EeePDB.c ****   EAPI_APP_RETURN_ERROR_IF_S(
 4692              		.loc 1 718 3 discriminator 2 view .LVU1204
 4693              	.LBB374:
 4694              	.LBI374:
 144:/home/hkh/git/eapidk-code-r76-trunk/apps/EeePProg/linux/../EeePDB.c ****     const void * pcvBHandel
 4695              		.loc 1 144 1 discriminator 2 view .LVU1205
 4696              	.LBB375:
 148:/home/hkh/git/eapidk-code-r76-trunk/apps/EeePProg/linux/../EeePDB.c ****   if(!pcvBHandel) return stBlockSize;
ARM GAS  /tmp/ccTXisr2.s 			page 116


 4697              		.loc 1 148 3 discriminator 2 view .LVU1206
 149:/home/hkh/git/eapidk-code-r76-trunk/apps/EeePProg/linux/../EeePDB.c **** 
 4698              		.loc 1 149 3 discriminator 2 view .LVU1207
 4699              	.LBB376:
 4700              	.LBI376:
 144:/home/hkh/git/eapidk-code-r76-trunk/apps/EeePProg/linux/../EeePDB.c ****     const void * pcvBHandel
 4701              		.loc 1 144 1 discriminator 2 view .LVU1208
 4702              	.LBB377:
 151:/home/hkh/git/eapidk-code-r76-trunk/apps/EeePProg/linux/../EeePDB.c ****   return stBlockSize;
 4703              		.loc 1 151 3 discriminator 2 view .LVU1209
 151:/home/hkh/git/eapidk-code-r76-trunk/apps/EeePProg/linux/../EeePDB.c ****   return stBlockSize;
 4704              		.loc 1 151 15 is_stmt 0 discriminator 2 view .LVU1210
 4705 1914 010080E2 		add	r0, r0, #1
 4706              	.LVL372:
 151:/home/hkh/git/eapidk-code-r76-trunk/apps/EeePProg/linux/../EeePDB.c ****   return stBlockSize;
 4707              		.loc 1 151 15 discriminator 2 view .LVU1211
 4708 1918 FEFFFFEB 		bl	EeeP_Get16BitValue_BE(PLT)
 4709              	.LVL373:
 152:/home/hkh/git/eapidk-code-r76-trunk/apps/EeePProg/linux/../EeePDB.c **** }
 4710              		.loc 1 152 3 is_stmt 1 discriminator 2 view .LVU1212
 152:/home/hkh/git/eapidk-code-r76-trunk/apps/EeePProg/linux/../EeePDB.c **** }
 4711              		.loc 1 152 3 is_stmt 0 discriminator 2 view .LVU1213
 4712              	.LBE377:
 4713              	.LBE376:
 4714              	.LBE375:
 4715              	.LBE374:
 4716              		.loc 1 718 3 discriminator 2 view .LVU1214
 4717 191c 043085E2 		add	r3, r5, #4
 4718 1920 800053E1 		cmp	r3, r0, lsl #1
 4719 1924 4A00008A 		bhi	.L327
 4720              		.loc 1 718 3 is_stmt 1 discriminator 2 view .LVU1215
 719:/home/hkh/git/eapidk-code-r76-trunk/apps/EeePProg/linux/../EeePDB.c ****       EeePAddBlock,
 720:/home/hkh/git/eapidk-code-r76-trunk/apps/EeePProg/linux/../EeePDB.c ****       (RequestBlockSize+EEEP_MIN_BLOCK_LENGTH>(GetBlockLength(BufferMap.pEmptyBlock))),
 721:/home/hkh/git/eapidk-code-r76-trunk/apps/EeePProg/linux/../EeePDB.c ****       EAPI_STATUS_ERROR
 722:/home/hkh/git/eapidk-code-r76-trunk/apps/EeePProg/linux/../EeePDB.c ****     );
 4721              		.loc 1 722 6 discriminator 2 view .LVU1216
 723:/home/hkh/git/eapidk-code-r76-trunk/apps/EeePProg/linux/../EeePDB.c ****   EAPI_APP_RETURN_ERROR_IF_S(
 4722              		.loc 1 723 3 discriminator 2 view .LVU1217
 4723 1928 010018E3 		tst	r8, #1
 4724 192c 1900001A 		bne	.L328
 4725              		.loc 1 723 3 view .LVU1218
 724:/home/hkh/git/eapidk-code-r76-trunk/apps/EeePProg/linux/../EeePDB.c ****       EeePAddBlock,
 725:/home/hkh/git/eapidk-code-r76-trunk/apps/EeePProg/linux/../EeePDB.c ****       (cuiFlags&EEEP_ADDBLK_IN_CRC)&&(BufferMap.pEeePCRCBlock==NULL),
 726:/home/hkh/git/eapidk-code-r76-trunk/apps/EeePProg/linux/../EeePDB.c ****       EAPI_STATUS_ERROR
 727:/home/hkh/git/eapidk-code-r76-trunk/apps/EeePProg/linux/../EeePDB.c ****     );
 4726              		.loc 1 727 6 view .LVU1219
 728:/home/hkh/git/eapidk-code-r76-trunk/apps/EeePProg/linux/../EeePDB.c **** 
 729:/home/hkh/git/eapidk-code-r76-trunk/apps/EeePProg/linux/../EeePDB.c ****   if(cuiFlags&EEEP_ADDBLK_IN_CRC){
 4727              		.loc 1 729 3 view .LVU1220
 730:/home/hkh/git/eapidk-code-r76-trunk/apps/EeePProg/linux/../EeePDB.c ****     /*
 731:/home/hkh/git/eapidk-code-r76-trunk/apps/EeePProg/linux/../EeePDB.c ****      * Adjust Empty Block length
 732:/home/hkh/git/eapidk-code-r76-trunk/apps/EeePProg/linux/../EeePDB.c ****      */
 733:/home/hkh/git/eapidk-code-r76-trunk/apps/EeePProg/linux/../EeePDB.c ****     pvTmpBlock=(DBlockIdHdr_t*)BufferMap.pEeePCRCBlock;
 734:/home/hkh/git/eapidk-code-r76-trunk/apps/EeePProg/linux/../EeePDB.c ****     DO(ReduceBlockLength(&BufferMap.pEmptyBlock, RequestBlockSize, NULL, 0));
 735:/home/hkh/git/eapidk-code-r76-trunk/apps/EeePProg/linux/../EeePDB.c ****     /*
 736:/home/hkh/git/eapidk-code-r76-trunk/apps/EeePProg/linux/../EeePDB.c ****      * Move CRC Up
 737:/home/hkh/git/eapidk-code-r76-trunk/apps/EeePProg/linux/../EeePDB.c ****      */
ARM GAS  /tmp/ccTXisr2.s 			page 117


 738:/home/hkh/git/eapidk-code-r76-trunk/apps/EeePProg/linux/../EeePDB.c ****     pTmpBlock=EAPI_CREATE_PTR(BufferMap.pEmptyBlock, -(signed)GetBlockLength(BufferMap.pEeePCRCBloc
 739:/home/hkh/git/eapidk-code-r76-trunk/apps/EeePProg/linux/../EeePDB.c **** #if TEST_EEEPDB
 740:/home/hkh/git/eapidk-code-r76-trunk/apps/EeePProg/linux/../EeePDB.c ****     EAPI_printf(TEXT("%08X - %08X - %08X - %08x \n")  ,
 741:/home/hkh/git/eapidk-code-r76-trunk/apps/EeePProg/linux/../EeePDB.c ****         EAPI_GET_PTR_OFFSET(BufferMap.pEmptyBlock   , BHandel), 
 742:/home/hkh/git/eapidk-code-r76-trunk/apps/EeePProg/linux/../EeePDB.c ****         EAPI_GET_PTR_OFFSET(pTmpBlock               , BHandel), 
 743:/home/hkh/git/eapidk-code-r76-trunk/apps/EeePProg/linux/../EeePDB.c ****         EAPI_GET_PTR_OFFSET(BufferMap.pEeePCRCBlock , BHandel), 
 744:/home/hkh/git/eapidk-code-r76-trunk/apps/EeePProg/linux/../EeePDB.c ****         GetBlockLength(BufferMap.pEeePCRCBlock)
 745:/home/hkh/git/eapidk-code-r76-trunk/apps/EeePProg/linux/../EeePDB.c ****       );
 746:/home/hkh/git/eapidk-code-r76-trunk/apps/EeePProg/linux/../EeePDB.c **** #endif
 747:/home/hkh/git/eapidk-code-r76-trunk/apps/EeePProg/linux/../EeePDB.c ****     memmove(pTmpBlock, BufferMap.pEeePCRCBlock, GetBlockLength(BufferMap.pEeePCRCBlock));
 748:/home/hkh/git/eapidk-code-r76-trunk/apps/EeePProg/linux/../EeePDB.c ****     memset(pvTmpBlock, 0x00, RequestBlockSize);
 749:/home/hkh/git/eapidk-code-r76-trunk/apps/EeePProg/linux/../EeePDB.c ****     /*
 750:/home/hkh/git/eapidk-code-r76-trunk/apps/EeePProg/linux/../EeePDB.c ****      * Reset CRC Pointer
 751:/home/hkh/git/eapidk-code-r76-trunk/apps/EeePProg/linux/../EeePDB.c ****      */
 752:/home/hkh/git/eapidk-code-r76-trunk/apps/EeePProg/linux/../EeePDB.c ****     BufferMap.pEmptyBlock=pTmpBlock;
 753:/home/hkh/git/eapidk-code-r76-trunk/apps/EeePProg/linux/../EeePDB.c **** 
 754:/home/hkh/git/eapidk-code-r76-trunk/apps/EeePProg/linux/../EeePDB.c ****   }else{
 755:/home/hkh/git/eapidk-code-r76-trunk/apps/EeePProg/linux/../EeePDB.c ****     DO(ReduceBlockLength(&BufferMap.pEmptyBlock, RequestBlockSize, &pvTmpBlock, EEEP_RBL_REDUCE_TOP
 4728              		.loc 1 755 5 view .LVU1221
 4729              		.loc 1 755 5 view .LVU1222
 4730 1930 0130A0E3 		mov	r3, #1
 4731 1934 14208DE2 		add	r2, sp, #20
 4732 1938 0510A0E1 		mov	r1, r5
 4733 193c 1C008DE2 		add	r0, sp, #28
 4734 1940 FEFFFFEB 		bl	ReduceBlockLength(PLT)
 4735              	.LVL374:
 4736              		.loc 1 755 5 view .LVU1223
 4737 1944 00C050E2 		subs	ip, r0, #0
 4738 1948 7500001A 		bne	.L329
 4739              	.LVL375:
 4740              	.L304:
 4741              		.loc 1 755 5 discriminator 2 view .LVU1224
 756:/home/hkh/git/eapidk-code-r76-trunk/apps/EeePProg/linux/../EeePDB.c ****   }
 757:/home/hkh/git/eapidk-code-r76-trunk/apps/EeePProg/linux/../EeePDB.c ****   /*
 758:/home/hkh/git/eapidk-code-r76-trunk/apps/EeePProg/linux/../EeePDB.c ****    * Copy Content
 759:/home/hkh/git/eapidk-code-r76-trunk/apps/EeePProg/linux/../EeePDB.c ****    */
 760:/home/hkh/git/eapidk-code-r76-trunk/apps/EeePProg/linux/../EeePDB.c ****   memcpy(pvTmpBlock, pcvBlock, RequestBlockSize);
 4742              		.loc 1 760 3 discriminator 2 view .LVU1225
 4743 194c 14009DE5 		ldr	r0, [sp, #20]
 4744 1950 0520A0E1 		mov	r2, r5
 4745 1954 0610A0E1 		mov	r1, r6
 4746 1958 FEFFFFEB 		bl	memcpy(PLT)
 4747              	.LVL376:
 761:/home/hkh/git/eapidk-code-r76-trunk/apps/EeePProg/linux/../EeePDB.c ****   if(pvIBlock!=NULL) *pvIBlock=pvTmpBlock;
 4748              		.loc 1 761 3 discriminator 2 view .LVU1226
 4749              		.loc 1 761 5 is_stmt 0 discriminator 2 view .LVU1227
 4750 195c 000057E3 		cmp	r7, #0
 4751              		.loc 1 761 22 is_stmt 1 discriminator 2 view .LVU1228
 4752              		.loc 1 761 31 is_stmt 0 discriminator 2 view .LVU1229
 4753 1960 14309D15 		ldrne	r3, [sp, #20]
 4754 1964 00308715 		strne	r3, [r7]
 4755              	.LVL377:
 762:/home/hkh/git/eapidk-code-r76-trunk/apps/EeePProg/linux/../EeePDB.c **** 
 763:/home/hkh/git/eapidk-code-r76-trunk/apps/EeePProg/linux/../EeePDB.c **** EAPI_APP_ASSERT_EXIT
 764:/home/hkh/git/eapidk-code-r76-trunk/apps/EeePProg/linux/../EeePDB.c ****   return StatusCode;
 4756              		.loc 1 764 3 is_stmt 1 discriminator 2 view .LVU1230
 4757              	.L294:
ARM GAS  /tmp/ccTXisr2.s 			page 118


 4758              	.L292:
 691:/home/hkh/git/eapidk-code-r76-trunk/apps/EeePProg/linux/../EeePDB.c ****   EeePBufferMap_t BufferMap;
 4759              		.loc 1 691 1 is_stmt 0 view .LVU1231
 4760 1968 54229FE5 		ldr	r2, .L333+8
 765:/home/hkh/git/eapidk-code-r76-trunk/apps/EeePProg/linux/../EeePDB.c **** }
 4761              		.loc 1 765 1 view .LVU1232
 4762 196c 4C329FE5 		ldr	r3, .L333+4
 691:/home/hkh/git/eapidk-code-r76-trunk/apps/EeePProg/linux/../EeePDB.c ****   EeePBufferMap_t BufferMap;
 4763              		.loc 1 691 1 view .LVU1233
 4764              	.LPIC274:
 4765 1970 02208FE0 		add	r2, pc, r2
 4766              		.loc 1 765 1 view .LVU1234
 4767 1974 033092E7 		ldr	r3, [r2, r3]
 4768 1978 002093E5 		ldr	r2, [r3]
 4769 197c 24309DE5 		ldr	r3, [sp, #36]
 4770 1980 022033E0 		eors	r2, r3, r2
 4771 1984 0030A0E3 		mov	r3, #0
 4772 1988 8A00001A 		bne	.L330
 4773 198c 0400A0E1 		mov	r0, r4
 4774 1990 28D08DE2 		add	sp, sp, #40
 4775              		.cfi_remember_state
 4776              		.cfi_def_cfa_offset 32
 4777              		@ sp needed
 4778 1994 F087BDE8 		pop	{r4, r5, r6, r7, r8, r9, r10, pc}
 4779              	.LVL378:
 4780              	.L328:
 4781              		.cfi_restore_state
 723:/home/hkh/git/eapidk-code-r76-trunk/apps/EeePProg/linux/../EeePDB.c ****       EeePAddBlock,
 4782              		.loc 1 723 3 discriminator 1 view .LVU1235
 4783 1998 20309DE5 		ldr	r3, [sp, #32]
 4784 199c 000053E3 		cmp	r3, #0
 4785 19a0 7900000A 		beq	.L331
 723:/home/hkh/git/eapidk-code-r76-trunk/apps/EeePProg/linux/../EeePDB.c ****       EeePAddBlock,
 4786              		.loc 1 723 3 is_stmt 1 view .LVU1236
 727:/home/hkh/git/eapidk-code-r76-trunk/apps/EeePProg/linux/../EeePDB.c **** 
 4787              		.loc 1 727 6 view .LVU1237
 729:/home/hkh/git/eapidk-code-r76-trunk/apps/EeePProg/linux/../EeePDB.c ****     /*
 4788              		.loc 1 729 3 view .LVU1238
 733:/home/hkh/git/eapidk-code-r76-trunk/apps/EeePProg/linux/../EeePDB.c ****     DO(ReduceBlockLength(&BufferMap.pEmptyBlock, RequestBlockSize, NULL, 0));
 4789              		.loc 1 733 5 view .LVU1239
 733:/home/hkh/git/eapidk-code-r76-trunk/apps/EeePProg/linux/../EeePDB.c ****     DO(ReduceBlockLength(&BufferMap.pEmptyBlock, RequestBlockSize, NULL, 0));
 4790              		.loc 1 733 15 is_stmt 0 view .LVU1240
 4791 19a4 14308DE5 		str	r3, [sp, #20]
 734:/home/hkh/git/eapidk-code-r76-trunk/apps/EeePProg/linux/../EeePDB.c ****     /*
 4792              		.loc 1 734 5 is_stmt 1 view .LVU1241
 734:/home/hkh/git/eapidk-code-r76-trunk/apps/EeePProg/linux/../EeePDB.c ****     /*
 4793              		.loc 1 734 5 view .LVU1242
 4794 19a8 0420A0E1 		mov	r2, r4
 4795 19ac 0430A0E1 		mov	r3, r4
 4796 19b0 0510A0E1 		mov	r1, r5
 4797 19b4 1C008DE2 		add	r0, sp, #28
 4798 19b8 FEFFFFEB 		bl	ReduceBlockLength(PLT)
 4799              	.LVL379:
 734:/home/hkh/git/eapidk-code-r76-trunk/apps/EeePProg/linux/../EeePDB.c ****     /*
 4800              		.loc 1 734 5 view .LVU1243
 4801 19bc 009050E2 		subs	r9, r0, #0
 4802 19c0 4800001A 		bne	.L332
ARM GAS  /tmp/ccTXisr2.s 			page 119


 734:/home/hkh/git/eapidk-code-r76-trunk/apps/EeePProg/linux/../EeePDB.c ****     /*
 4803              		.loc 1 734 5 discriminator 2 view .LVU1244
 738:/home/hkh/git/eapidk-code-r76-trunk/apps/EeePProg/linux/../EeePDB.c **** #if TEST_EEEPDB
 4804              		.loc 1 738 5 discriminator 2 view .LVU1245
 738:/home/hkh/git/eapidk-code-r76-trunk/apps/EeePProg/linux/../EeePDB.c **** #if TEST_EEEPDB
 4805              		.loc 1 738 15 is_stmt 0 discriminator 2 view .LVU1246
 4806 19c4 20809DE5 		ldr	r8, [sp, #32]
 4807              	.LVL380:
 4808              	.LBB378:
 4809              	.LBI378:
 144:/home/hkh/git/eapidk-code-r76-trunk/apps/EeePProg/linux/../EeePDB.c ****     const void * pcvBHandel
 4810              		.loc 1 144 1 is_stmt 1 discriminator 2 view .LVU1247
 4811              	.LBB379:
 148:/home/hkh/git/eapidk-code-r76-trunk/apps/EeePProg/linux/../EeePDB.c ****   if(!pcvBHandel) return stBlockSize;
 4812              		.loc 1 148 3 discriminator 2 view .LVU1248
 149:/home/hkh/git/eapidk-code-r76-trunk/apps/EeePProg/linux/../EeePDB.c **** 
 4813              		.loc 1 149 3 discriminator 2 view .LVU1249
 4814              	.LBE379:
 4815              	.LBE378:
 738:/home/hkh/git/eapidk-code-r76-trunk/apps/EeePProg/linux/../EeePDB.c **** #if TEST_EEEPDB
 4816              		.loc 1 738 15 is_stmt 0 discriminator 2 view .LVU1250
 4817 19c8 1CA09DE5 		ldr	r10, [sp, #28]
 4818              	.LBB383:
 4819              	.LBB382:
 149:/home/hkh/git/eapidk-code-r76-trunk/apps/EeePProg/linux/../EeePDB.c **** 
 4820              		.loc 1 149 5 discriminator 2 view .LVU1251
 4821 19cc 000058E3 		cmp	r8, #0
 4822 19d0 0800000A 		beq	.L303
 4823              	.LVL381:
 4824              	.LBB380:
 4825              	.LBI380:
 144:/home/hkh/git/eapidk-code-r76-trunk/apps/EeePProg/linux/../EeePDB.c ****     const void * pcvBHandel
 4826              		.loc 1 144 1 is_stmt 1 view .LVU1252
 4827              	.LBB381:
 151:/home/hkh/git/eapidk-code-r76-trunk/apps/EeePProg/linux/../EeePDB.c ****   return stBlockSize;
 4828              		.loc 1 151 3 view .LVU1253
 151:/home/hkh/git/eapidk-code-r76-trunk/apps/EeePProg/linux/../EeePDB.c ****   return stBlockSize;
 4829              		.loc 1 151 15 is_stmt 0 view .LVU1254
 4830 19d4 010088E2 		add	r0, r8, #1
 4831              	.LVL382:
 151:/home/hkh/git/eapidk-code-r76-trunk/apps/EeePProg/linux/../EeePDB.c ****   return stBlockSize;
 4832              		.loc 1 151 15 view .LVU1255
 4833 19d8 FEFFFFEB 		bl	EeeP_Get16BitValue_BE(PLT)
 4834              	.LVL383:
 152:/home/hkh/git/eapidk-code-r76-trunk/apps/EeePProg/linux/../EeePDB.c **** }
 4835              		.loc 1 152 3 is_stmt 1 view .LVU1256
 152:/home/hkh/git/eapidk-code-r76-trunk/apps/EeePProg/linux/../EeePDB.c **** }
 4836              		.loc 1 152 3 is_stmt 0 view .LVU1257
 4837              	.LBE381:
 4838              	.LBE380:
 4839              	.LBE382:
 4840              	.LBE383:
 747:/home/hkh/git/eapidk-code-r76-trunk/apps/EeePProg/linux/../EeePDB.c ****     memset(pvTmpBlock, 0x00, RequestBlockSize);
 4841              		.loc 1 747 33 view .LVU1258
 4842 19dc 20809DE5 		ldr	r8, [sp, #32]
 738:/home/hkh/git/eapidk-code-r76-trunk/apps/EeePProg/linux/../EeePDB.c **** #if TEST_EEEPDB
 4843              		.loc 1 738 14 view .LVU1259
ARM GAS  /tmp/ccTXisr2.s 			page 120


 4844 19e0 80A04AE0 		sub	r10, r10, r0, lsl #1
 4845              	.LVL384:
 747:/home/hkh/git/eapidk-code-r76-trunk/apps/EeePProg/linux/../EeePDB.c ****     memset(pvTmpBlock, 0x00, RequestBlockSize);
 4846              		.loc 1 747 5 is_stmt 1 view .LVU1260
 4847              	.LBB384:
 4848              	.LBI384:
 144:/home/hkh/git/eapidk-code-r76-trunk/apps/EeePProg/linux/../EeePDB.c ****     const void * pcvBHandel
 4849              		.loc 1 144 1 view .LVU1261
 4850              	.LBB385:
 148:/home/hkh/git/eapidk-code-r76-trunk/apps/EeePProg/linux/../EeePDB.c ****   if(!pcvBHandel) return stBlockSize;
 4851              		.loc 1 148 3 view .LVU1262
 149:/home/hkh/git/eapidk-code-r76-trunk/apps/EeePProg/linux/../EeePDB.c **** 
 4852              		.loc 1 149 3 view .LVU1263
 149:/home/hkh/git/eapidk-code-r76-trunk/apps/EeePProg/linux/../EeePDB.c **** 
 4853              		.loc 1 149 5 is_stmt 0 view .LVU1264
 4854 19e4 000058E3 		cmp	r8, #0
 4855 19e8 0200000A 		beq	.L303
 4856              	.LVL385:
 4857              	.LBB386:
 4858              	.LBI386:
 144:/home/hkh/git/eapidk-code-r76-trunk/apps/EeePProg/linux/../EeePDB.c ****     const void * pcvBHandel
 4859              		.loc 1 144 1 is_stmt 1 view .LVU1265
 4860              	.LBB387:
 151:/home/hkh/git/eapidk-code-r76-trunk/apps/EeePProg/linux/../EeePDB.c ****   return stBlockSize;
 4861              		.loc 1 151 3 view .LVU1266
 151:/home/hkh/git/eapidk-code-r76-trunk/apps/EeePProg/linux/../EeePDB.c ****   return stBlockSize;
 4862              		.loc 1 151 15 is_stmt 0 view .LVU1267
 4863 19ec 010088E2 		add	r0, r8, #1
 4864 19f0 FEFFFFEB 		bl	EeeP_Get16BitValue_BE(PLT)
 4865              	.LVL386:
 151:/home/hkh/git/eapidk-code-r76-trunk/apps/EeePProg/linux/../EeePDB.c ****   return stBlockSize;
 4866              		.loc 1 151 81 view .LVU1268
 4867 19f4 8090A0E1 		lsl	r9, r0, #1
 4868              	.LVL387:
 152:/home/hkh/git/eapidk-code-r76-trunk/apps/EeePProg/linux/../EeePDB.c **** }
 4869              		.loc 1 152 3 is_stmt 1 view .LVU1269
 4870              	.L303:
 152:/home/hkh/git/eapidk-code-r76-trunk/apps/EeePProg/linux/../EeePDB.c **** }
 4871              		.loc 1 152 3 is_stmt 0 view .LVU1270
 4872              	.LBE387:
 4873              	.LBE386:
 4874              	.LBE385:
 4875              	.LBE384:
 747:/home/hkh/git/eapidk-code-r76-trunk/apps/EeePProg/linux/../EeePDB.c ****     memset(pvTmpBlock, 0x00, RequestBlockSize);
 4876              		.loc 1 747 5 view .LVU1271
 4877 19f8 0810A0E1 		mov	r1, r8
 4878 19fc 0920A0E1 		mov	r2, r9
 4879 1a00 0A00A0E1 		mov	r0, r10
 4880 1a04 FEFFFFEB 		bl	memmove(PLT)
 4881              	.LVL388:
 748:/home/hkh/git/eapidk-code-r76-trunk/apps/EeePProg/linux/../EeePDB.c ****     /*
 4882              		.loc 1 748 5 is_stmt 1 view .LVU1272
 4883 1a08 14009DE5 		ldr	r0, [sp, #20]
 4884 1a0c 0520A0E1 		mov	r2, r5
 4885 1a10 0010A0E3 		mov	r1, #0
 4886 1a14 FEFFFFEB 		bl	memset(PLT)
 4887              	.LVL389:
ARM GAS  /tmp/ccTXisr2.s 			page 121


 752:/home/hkh/git/eapidk-code-r76-trunk/apps/EeePProg/linux/../EeePDB.c **** 
 4888              		.loc 1 752 5 view .LVU1273
 4889 1a18 CBFFFFEA 		b	.L304
 4890              	.LVL390:
 4891              	.L325:
 710:/home/hkh/git/eapidk-code-r76-trunk/apps/EeePProg/linux/../EeePDB.c **** 
 4892              		.loc 1 710 3 discriminator 1 view .LVU1274
 4893 1a1c A4C19FE5 		ldr	ip, .L333+12
 4894 1a20 C63200E3 		movw	r3, #710
 4895 1a24 A0019FE5 		ldr	r0, .L333+16
 4896              	.LVL391:
 710:/home/hkh/git/eapidk-code-r76-trunk/apps/EeePProg/linux/../EeePDB.c **** 
 4897              		.loc 1 710 3 is_stmt 0 discriminator 1 view .LVU1275
 4898 1a28 A0219FE5 		ldr	r2, .L333+20
 4899 1a2c A0119FE5 		ldr	r1, .L333+24
 4900              	.LPIC252:
 4901 1a30 0CC08FE0 		add	ip, pc, ip
 4902              	.LPIC253:
 4903 1a34 00008FE0 		add	r0, pc, r0
 4904 1a38 00408DE5 		str	r4, [sp]
 4905 1a3c 01108DE9 		stmib	sp, {r0, ip}
 4906              	.LPIC250:
 4907 1a40 02208FE0 		add	r2, pc, r2
 4908              	.LPIC251:
 4909 1a44 01108FE0 		add	r1, pc, r1
 4910 1a48 4500A0E3 		mov	r0, #69
 4911 1a4c FEFFFFEB 		bl	siFormattedMessage_SC(PLT)
 4912              	.LVL392:
 710:/home/hkh/git/eapidk-code-r76-trunk/apps/EeePProg/linux/../EeePDB.c **** 
 4913              		.loc 1 710 3 is_stmt 1 discriminator 1 view .LVU1276
 4914 1a50 C4FFFFEA 		b	.L292
 4915              	.LVL393:
 4916              	.L327:
 718:/home/hkh/git/eapidk-code-r76-trunk/apps/EeePProg/linux/../EeePDB.c ****       EeePAddBlock,
 4917              		.loc 1 718 3 discriminator 1 view .LVU1277
 718:/home/hkh/git/eapidk-code-r76-trunk/apps/EeePProg/linux/../EeePDB.c ****       EeePAddBlock,
 4918              		.loc 1 718 3 discriminator 1 view .LVU1278
 4919 1a54 7CC19FE5 		ldr	ip, .L333+28
 4920 1a58 0F4CE0E3 		mvn	r4, #3840
 4921              	.LVL394:
 718:/home/hkh/git/eapidk-code-r76-trunk/apps/EeePProg/linux/../EeePDB.c ****       EeePAddBlock,
 4922              		.loc 1 718 3 is_stmt 0 discriminator 1 view .LVU1279
 4923 1a5c 78019FE5 		ldr	r0, .L333+32
 4924 1a60 CE3200E3 		movw	r3, #718
 4925 1a64 74219FE5 		ldr	r2, .L333+36
 4926 1a68 74119FE5 		ldr	r1, .L333+40
 4927              	.LPIC260:
 4928 1a6c 0CC08FE0 		add	ip, pc, ip
 4929              	.LPIC261:
 4930 1a70 00008FE0 		add	r0, pc, r0
 4931              	.LPIC258:
 4932 1a74 02208FE0 		add	r2, pc, r2
 4933              	.LPIC259:
 4934 1a78 01108FE0 		add	r1, pc, r1
 4935              	.LVL395:
 4936              	.L322:
 703:/home/hkh/git/eapidk-code-r76-trunk/apps/EeePProg/linux/../EeePDB.c ****       EeePAddBlock,
ARM GAS  /tmp/ccTXisr2.s 			page 122


 4937              		.loc 1 703 3 discriminator 1 view .LVU1280
 4938 1a7c 01108DE9 		stmib	sp, {r0, ip}
 4939 1a80 4500A0E3 		mov	r0, #69
 4940 1a84 00408DE5 		str	r4, [sp]
 4941 1a88 FEFFFFEB 		bl	siFormattedMessage_SC(PLT)
 4942              	.LVL396:
 703:/home/hkh/git/eapidk-code-r76-trunk/apps/EeePProg/linux/../EeePDB.c ****       EeePAddBlock,
 4943              		.loc 1 703 3 is_stmt 1 discriminator 1 view .LVU1281
 703:/home/hkh/git/eapidk-code-r76-trunk/apps/EeePProg/linux/../EeePDB.c ****       EeePAddBlock,
 4944              		.loc 1 703 3 discriminator 1 view .LVU1282
 703:/home/hkh/git/eapidk-code-r76-trunk/apps/EeePProg/linux/../EeePDB.c ****       EeePAddBlock,
 4945              		.loc 1 703 3 discriminator 1 view .LVU1283
 4946 1a8c B5FFFFEA 		b	.L292
 4947              	.LVL397:
 4948              	.L326:
 712:/home/hkh/git/eapidk-code-r76-trunk/apps/EeePProg/linux/../EeePDB.c ****       EeePAddBlock,
 4949              		.loc 1 712 3 discriminator 1 view .LVU1284
 712:/home/hkh/git/eapidk-code-r76-trunk/apps/EeePProg/linux/../EeePDB.c ****       EeePAddBlock,
 4950              		.loc 1 712 3 discriminator 1 view .LVU1285
 4951 1a90 50C19FE5 		ldr	ip, .L333+44
 4952 1a94 0F4CE0E3 		mvn	r4, #3840
 4953              	.LVL398:
 712:/home/hkh/git/eapidk-code-r76-trunk/apps/EeePProg/linux/../EeePDB.c ****       EeePAddBlock,
 4954              		.loc 1 712 3 is_stmt 0 discriminator 1 view .LVU1286
 4955 1a98 4C019FE5 		ldr	r0, .L333+48
 4956 1a9c B23FA0E3 		mov	r3, #712
 4957 1aa0 48219FE5 		ldr	r2, .L333+52
 4958 1aa4 48119FE5 		ldr	r1, .L333+56
 4959              	.LPIC256:
 4960 1aa8 0CC08FE0 		add	ip, pc, ip
 4961              	.LPIC257:
 4962 1aac 00008FE0 		add	r0, pc, r0
 4963              	.LPIC254:
 4964 1ab0 02208FE0 		add	r2, pc, r2
 4965              	.LPIC255:
 4966 1ab4 01108FE0 		add	r1, pc, r1
 4967 1ab8 EFFFFFEA 		b	.L322
 4968              	.LVL399:
 4969              	.L323:
 698:/home/hkh/git/eapidk-code-r76-trunk/apps/EeePProg/linux/../EeePDB.c ****       EeePAddBlock,
 4970              		.loc 1 698 3 is_stmt 1 discriminator 1 view .LVU1287
 698:/home/hkh/git/eapidk-code-r76-trunk/apps/EeePProg/linux/../EeePDB.c ****       EeePAddBlock,
 4971              		.loc 1 698 3 discriminator 1 view .LVU1288
 4972 1abc 34C19FE5 		ldr	ip, .L333+60
 4973 1ac0 014CE0E3 		mvn	r4, #256
 4974 1ac4 30019FE5 		ldr	r0, .L333+64
 4975              	.LVL400:
 698:/home/hkh/git/eapidk-code-r76-trunk/apps/EeePProg/linux/../EeePDB.c ****       EeePAddBlock,
 4976              		.loc 1 698 3 is_stmt 0 discriminator 1 view .LVU1289
 4977 1ac8 BA3200E3 		movw	r3, #698
 4978 1acc 2C219FE5 		ldr	r2, .L333+68
 4979 1ad0 2C119FE5 		ldr	r1, .L333+72
 4980              	.LVL401:
 698:/home/hkh/git/eapidk-code-r76-trunk/apps/EeePProg/linux/../EeePDB.c ****       EeePAddBlock,
 4981              		.loc 1 698 3 discriminator 1 view .LVU1290
 4982              	.LPIC244:
 4983 1ad4 0CC08FE0 		add	ip, pc, ip
ARM GAS  /tmp/ccTXisr2.s 			page 123


 4984              	.LPIC245:
 4985 1ad8 00008FE0 		add	r0, pc, r0
 4986              	.LPIC242:
 4987 1adc 02208FE0 		add	r2, pc, r2
 4988              	.LPIC243:
 4989 1ae0 01108FE0 		add	r1, pc, r1
 4990 1ae4 E4FFFFEA 		b	.L322
 4991              	.LVL402:
 4992              	.L332:
 734:/home/hkh/git/eapidk-code-r76-trunk/apps/EeePProg/linux/../EeePDB.c ****     /*
 4993              		.loc 1 734 5 is_stmt 1 discriminator 1 view .LVU1291
 4994 1ae8 18C19FE5 		ldr	ip, .L333+76
 4995 1aec DE3200E3 		movw	r3, #734
 4996 1af0 14019FE5 		ldr	r0, .L333+80
 4997              	.LVL403:
 734:/home/hkh/git/eapidk-code-r76-trunk/apps/EeePProg/linux/../EeePDB.c ****     /*
 4998              		.loc 1 734 5 is_stmt 0 discriminator 1 view .LVU1292
 4999 1af4 0940A0E1 		mov	r4, r9
 5000 1af8 10219FE5 		ldr	r2, .L333+84
 5001 1afc 10119FE5 		ldr	r1, .L333+88
 5002              	.LPIC268:
 5003 1b00 0CC08FE0 		add	ip, pc, ip
 5004              	.LPIC269:
 5005 1b04 00008FE0 		add	r0, pc, r0
 5006 1b08 00908DE5 		str	r9, [sp]
 5007 1b0c 01108DE9 		stmib	sp, {r0, ip}
 5008              	.LPIC266:
 5009 1b10 02208FE0 		add	r2, pc, r2
 5010              	.LPIC267:
 5011 1b14 01108FE0 		add	r1, pc, r1
 5012 1b18 4500A0E3 		mov	r0, #69
 5013 1b1c FEFFFFEB 		bl	siFormattedMessage_SC(PLT)
 5014              	.LVL404:
 734:/home/hkh/git/eapidk-code-r76-trunk/apps/EeePProg/linux/../EeePDB.c ****     /*
 5015              		.loc 1 734 5 is_stmt 1 discriminator 1 view .LVU1293
 5016 1b20 90FFFFEA 		b	.L292
 5017              	.LVL405:
 5018              	.L329:
 755:/home/hkh/git/eapidk-code-r76-trunk/apps/EeePProg/linux/../EeePDB.c ****   }
 5019              		.loc 1 755 5 discriminator 1 view .LVU1294
 5020 1b24 ECE09FE5 		ldr	lr, .L333+92
 5021 1b28 F33200E3 		movw	r3, #755
 5022 1b2c E8009FE5 		ldr	r0, .L333+96
 5023              	.LVL406:
 755:/home/hkh/git/eapidk-code-r76-trunk/apps/EeePProg/linux/../EeePDB.c ****   }
 5024              		.loc 1 755 5 is_stmt 0 discriminator 1 view .LVU1295
 5025 1b30 0C40A0E1 		mov	r4, ip
 5026 1b34 E4209FE5 		ldr	r2, .L333+100
 5027 1b38 E4109FE5 		ldr	r1, .L333+104
 5028              	.LPIC272:
 5029 1b3c 0EE08FE0 		add	lr, pc, lr
 5030              	.LPIC273:
 5031 1b40 00008FE0 		add	r0, pc, r0
 5032 1b44 00C08DE5 		str	ip, [sp]
 5033 1b48 01408DE9 		stmib	sp, {r0, lr}
 5034              	.LPIC270:
 5035 1b4c 02208FE0 		add	r2, pc, r2
ARM GAS  /tmp/ccTXisr2.s 			page 124


 5036              	.LPIC271:
 5037 1b50 01108FE0 		add	r1, pc, r1
 5038 1b54 4500A0E3 		mov	r0, #69
 5039 1b58 FEFFFFEB 		bl	siFormattedMessage_SC(PLT)
 5040              	.LVL407:
 755:/home/hkh/git/eapidk-code-r76-trunk/apps/EeePProg/linux/../EeePDB.c ****   }
 5041              		.loc 1 755 5 is_stmt 1 discriminator 1 view .LVU1296
 5042 1b5c 81FFFFEA 		b	.L292
 5043              	.LVL408:
 5044              	.L324:
 703:/home/hkh/git/eapidk-code-r76-trunk/apps/EeePProg/linux/../EeePDB.c ****       EeePAddBlock,
 5045              		.loc 1 703 3 discriminator 1 view .LVU1297
 703:/home/hkh/git/eapidk-code-r76-trunk/apps/EeePProg/linux/../EeePDB.c ****       EeePAddBlock,
 5046              		.loc 1 703 3 discriminator 1 view .LVU1298
 5047 1b60 C0C09FE5 		ldr	ip, .L333+108
 5048 1b64 014CE0E3 		mvn	r4, #256
 5049 1b68 BC009FE5 		ldr	r0, .L333+112
 5050              	.LVL409:
 703:/home/hkh/git/eapidk-code-r76-trunk/apps/EeePProg/linux/../EeePDB.c ****       EeePAddBlock,
 5051              		.loc 1 703 3 is_stmt 0 discriminator 1 view .LVU1299
 5052 1b6c BF3200E3 		movw	r3, #703
 5053 1b70 B8209FE5 		ldr	r2, .L333+116
 5054 1b74 B8109FE5 		ldr	r1, .L333+120
 5055              	.LVL410:
 703:/home/hkh/git/eapidk-code-r76-trunk/apps/EeePProg/linux/../EeePDB.c ****       EeePAddBlock,
 5056              		.loc 1 703 3 discriminator 1 view .LVU1300
 5057              	.LPIC248:
 5058 1b78 0CC08FE0 		add	ip, pc, ip
 5059              	.LPIC249:
 5060 1b7c 00008FE0 		add	r0, pc, r0
 5061              	.LPIC246:
 5062 1b80 02208FE0 		add	r2, pc, r2
 5063              	.LPIC247:
 5064 1b84 01108FE0 		add	r1, pc, r1
 5065 1b88 BBFFFFEA 		b	.L322
 5066              	.LVL411:
 5067              	.L331:
 723:/home/hkh/git/eapidk-code-r76-trunk/apps/EeePProg/linux/../EeePDB.c ****       EeePAddBlock,
 5068              		.loc 1 723 3 is_stmt 1 discriminator 3 view .LVU1301
 723:/home/hkh/git/eapidk-code-r76-trunk/apps/EeePProg/linux/../EeePDB.c ****       EeePAddBlock,
 5069              		.loc 1 723 3 discriminator 3 view .LVU1302
 5070 1b8c A4C09FE5 		ldr	ip, .L333+124
 5071 1b90 0F4CE0E3 		mvn	r4, #3840
 5072              	.LVL412:
 723:/home/hkh/git/eapidk-code-r76-trunk/apps/EeePProg/linux/../EeePDB.c ****       EeePAddBlock,
 5073              		.loc 1 723 3 is_stmt 0 discriminator 3 view .LVU1303
 5074 1b94 A0009FE5 		ldr	r0, .L333+128
 5075 1b98 D33200E3 		movw	r3, #723
 5076 1b9c 9C209FE5 		ldr	r2, .L333+132
 5077 1ba0 9C109FE5 		ldr	r1, .L333+136
 5078              	.LPIC264:
 5079 1ba4 0CC08FE0 		add	ip, pc, ip
 5080              	.LPIC265:
 5081 1ba8 00008FE0 		add	r0, pc, r0
 5082              	.LPIC262:
 5083 1bac 02208FE0 		add	r2, pc, r2
 5084              	.LPIC263:
ARM GAS  /tmp/ccTXisr2.s 			page 125


 5085 1bb0 01108FE0 		add	r1, pc, r1
 5086 1bb4 B0FFFFEA 		b	.L322
 5087              	.LVL413:
 5088              	.L330:
 5089              		.loc 1 765 1 view .LVU1304
 5090 1bb8 FEFFFFEB 		bl	__stack_chk_fail(PLT)
 5091              	.LVL414:
 5092              	.L334:
 5093              		.align	2
 5094              	.L333:
 5095 1bbc 00030000 		.word	_GLOBAL_OFFSET_TABLE_-(.LPIC275+8)
 5096 1bc0 00000000 		.word	__stack_chk_guard(GOT)
 5097 1bc4 4C020000 		.word	_GLOBAL_OFFSET_TABLE_-(.LPIC274+8)
 5098 1bc8 90010000 		.word	.LC44-(.LPIC252+8)
 5099 1bcc 90010000 		.word	.LC5-(.LPIC253+8)
 5100 1bd0 88010000 		.word	.LC25-(.LPIC250+8)
 5101 1bd4 88010000 		.word	.LC3-(.LPIC251+8)
 5102 1bd8 64010000 		.word	.LC54-(.LPIC260+8)
 5103 1bdc 64010000 		.word	.LC5-(.LPIC261+8)
 5104 1be0 64010000 		.word	.LC51-(.LPIC258+8)
 5105 1be4 64010000 		.word	.LC3-(.LPIC259+8)
 5106 1be8 38010000 		.word	.LC53-(.LPIC256+8)
 5107 1bec 38010000 		.word	.LC5-(.LPIC257+8)
 5108 1bf0 38010000 		.word	.LC51-(.LPIC254+8)
 5109 1bf4 38010000 		.word	.LC3-(.LPIC255+8)
 5110 1bf8 1C010000 		.word	.LC4-(.LPIC244+8)
 5111 1bfc 1C010000 		.word	.LC5-(.LPIC245+8)
 5112 1c00 1C010000 		.word	.LC51-(.LPIC242+8)
 5113 1c04 1C010000 		.word	.LC3-(.LPIC243+8)
 5114 1c08 00010000 		.word	.LC56-(.LPIC268+8)
 5115 1c0c 00010000 		.word	.LC5-(.LPIC269+8)
 5116 1c10 F8000000 		.word	.LC25-(.LPIC266+8)
 5117 1c14 F8000000 		.word	.LC3-(.LPIC267+8)
 5118 1c18 D4000000 		.word	.LC57-(.LPIC272+8)
 5119 1c1c D4000000 		.word	.LC5-(.LPIC273+8)
 5120 1c20 CC000000 		.word	.LC25-(.LPIC270+8)
 5121 1c24 CC000000 		.word	.LC3-(.LPIC271+8)
 5122 1c28 A8000000 		.word	.LC52-(.LPIC248+8)
 5123 1c2c A8000000 		.word	.LC5-(.LPIC249+8)
 5124 1c30 A8000000 		.word	.LC51-(.LPIC246+8)
 5125 1c34 A8000000 		.word	.LC3-(.LPIC247+8)
 5126 1c38 8C000000 		.word	.LC55-(.LPIC264+8)
 5127 1c3c 8C000000 		.word	.LC5-(.LPIC265+8)
 5128 1c40 8C000000 		.word	.LC51-(.LPIC262+8)
 5129 1c44 8C000000 		.word	.LC3-(.LPIC263+8)
 5130              		.cfi_endproc
 5131              	.LFE17:
 5133              		.section	.rodata.str1.4
 5134 08b3 00       		.align	2
 5135              	.LC58:
 5136 08b4 45656550 		.ascii	"EeePFindBlock\000"
 5136      46696E64 
 5136      426C6F63 
 5136      6B00
 5137 08c2 0000     		.align	2
 5138              	.LC59:
 5139 08c4 28707646 		.ascii	"(pvFBlock==NULL)\000"
ARM GAS  /tmp/ccTXisr2.s 			page 126


 5139      426C6F63 
 5139      6B3D3D4E 
 5139      554C4C29 
 5139      00
 5140 08d5 000000   		.align	2
 5141              	.LC60:
 5142 08d8 28496E73 		.ascii	"(Instance==0)\000"
 5142      74616E63 
 5142      653D3D30 
 5142      2900
 5143 08e6 0000     		.align	2
 5144              	.LC61:
 5145 08e8 426C6F63 		.ascii	"Block Not Found\000"
 5145      6B204E6F 
 5145      7420466F 
 5145      756E6400 
 5146              		.text
 5147              		.align	2
 5148              		.global	EeePFindBlock
 5149              		.syntax unified
 5150              		.arm
 5151              		.fpu vfpv3
 5153              	EeePFindBlock:
 5154              	.LVL415:
 5155              	.LFB18:
 766:/home/hkh/git/eapidk-code-r76-trunk/apps/EeePProg/linux/../EeePDB.c **** 
 767:/home/hkh/git/eapidk-code-r76-trunk/apps/EeePProg/linux/../EeePDB.c **** EApiStatus_t
 768:/home/hkh/git/eapidk-code-r76-trunk/apps/EeePProg/linux/../EeePDB.c **** EeePFindBlock(
 769:/home/hkh/git/eapidk-code-r76-trunk/apps/EeePProg/linux/../EeePDB.c ****     __IN  EeePHandel_t   BHandel,
 770:/home/hkh/git/eapidk-code-r76-trunk/apps/EeePProg/linux/../EeePDB.c ****     __IN  uint8_t        BlockId,
 771:/home/hkh/git/eapidk-code-r76-trunk/apps/EeePProg/linux/../EeePDB.c ****     __IN  signed int     Instance,
 772:/home/hkh/git/eapidk-code-r76-trunk/apps/EeePProg/linux/../EeePDB.c ****     __OUT void         **pvFBlock
 773:/home/hkh/git/eapidk-code-r76-trunk/apps/EeePProg/linux/../EeePDB.c ****     )
 774:/home/hkh/git/eapidk-code-r76-trunk/apps/EeePProg/linux/../EeePDB.c **** {
 5156              		.loc 1 774 1 is_stmt 1 view -0
 5157              		.cfi_startproc
 5158              		@ args = 0, pretend = 0, frame = 16
 5159              		@ frame_needed = 0, uses_anonymous_args = 0
 5160              		.loc 1 774 1 is_stmt 0 view .LVU1306
 5161 1c48 F0472DE9 		push	{r4, r5, r6, r7, r8, r9, r10, lr}
 5162              		.cfi_def_cfa_offset 32
 5163              		.cfi_offset 4, -32
 5164              		.cfi_offset 5, -28
 5165              		.cfi_offset 6, -24
 5166              		.cfi_offset 7, -20
 5167              		.cfi_offset 8, -16
 5168              		.cfi_offset 9, -12
 5169              		.cfi_offset 10, -8
 5170              		.cfi_offset 14, -4
 5171 1c4c 0250A0E1 		mov	r5, r2
 5172 1c50 34229FE5 		ldr	r2, .L367
 5173              	.LVL416:
 5174              		.loc 1 774 1 view .LVU1307
 5175 1c54 03A0A0E1 		mov	r10, r3
 775:/home/hkh/git/eapidk-code-r76-trunk/apps/EeePProg/linux/../EeePDB.c ****   DBlockIdHdr_t    *pCurBlock;
 776:/home/hkh/git/eapidk-code-r76-trunk/apps/EeePProg/linux/../EeePDB.c ****   EApiStatus_t StatusCode=EAPI_STATUS_SUCCESS;
 777:/home/hkh/git/eapidk-code-r76-trunk/apps/EeePProg/linux/../EeePDB.c ****   size_t         CurOffset, MaxDeviceLen;
ARM GAS  /tmp/ccTXisr2.s 			page 127


 778:/home/hkh/git/eapidk-code-r76-trunk/apps/EeePProg/linux/../EeePDB.c **** 
 779:/home/hkh/git/eapidk-code-r76-trunk/apps/EeePProg/linux/../EeePDB.c ****   EAPI_APP_ASSERT_PARAMATER_NULL(
 5176              		.loc 1 779 3 view .LVU1308
 5177 1c58 006050E2 		subs	r6, r0, #0
 774:/home/hkh/git/eapidk-code-r76-trunk/apps/EeePProg/linux/../EeePDB.c ****   DBlockIdHdr_t    *pCurBlock;
 5178              		.loc 1 774 1 view .LVU1309
 5179 1c5c 20D04DE2 		sub	sp, sp, #32
 5180              		.cfi_def_cfa_offset 64
 774:/home/hkh/git/eapidk-code-r76-trunk/apps/EeePProg/linux/../EeePDB.c ****   DBlockIdHdr_t    *pCurBlock;
 5181              		.loc 1 774 1 view .LVU1310
 5182 1c60 28329FE5 		ldr	r3, .L367+4
 5183              	.LVL417:
 774:/home/hkh/git/eapidk-code-r76-trunk/apps/EeePProg/linux/../EeePDB.c ****   DBlockIdHdr_t    *pCurBlock;
 5184              		.loc 1 774 1 view .LVU1311
 5185              	.LPIC301:
 5186 1c64 02208FE0 		add	r2, pc, r2
 5187 1c68 033092E7 		ldr	r3, [r2, r3]
 5188 1c6c 003093E5 		ldr	r3, [r3]
 5189 1c70 1C308DE5 		str	r3, [sp, #28]
 5190 1c74 0030A0E3 		mov	r3, #0
 775:/home/hkh/git/eapidk-code-r76-trunk/apps/EeePProg/linux/../EeePDB.c ****   DBlockIdHdr_t    *pCurBlock;
 5191              		.loc 1 775 3 is_stmt 1 view .LVU1312
 776:/home/hkh/git/eapidk-code-r76-trunk/apps/EeePProg/linux/../EeePDB.c ****   size_t         CurOffset, MaxDeviceLen;
 5192              		.loc 1 776 3 view .LVU1313
 5193              	.LVL418:
 777:/home/hkh/git/eapidk-code-r76-trunk/apps/EeePProg/linux/../EeePDB.c **** 
 5194              		.loc 1 777 3 view .LVU1314
 5195              		.loc 1 779 3 view .LVU1315
 5196 1c78 6C00000A 		beq	.L360
 5197              		.loc 1 779 3 discriminator 2 view .LVU1316
 780:/home/hkh/git/eapidk-code-r76-trunk/apps/EeePProg/linux/../EeePDB.c ****       EeePFindBlock,
 781:/home/hkh/git/eapidk-code-r76-trunk/apps/EeePProg/linux/../EeePDB.c ****       EAPI_STATUS_INVALID_PARAMETER,
 782:/home/hkh/git/eapidk-code-r76-trunk/apps/EeePProg/linux/../EeePDB.c ****       BHandel
 783:/home/hkh/git/eapidk-code-r76-trunk/apps/EeePProg/linux/../EeePDB.c ****     );
 5198              		.loc 1 783 6 discriminator 2 view .LVU1317
 784:/home/hkh/git/eapidk-code-r76-trunk/apps/EeePProg/linux/../EeePDB.c ****   EAPI_APP_ASSERT_PARAMATER_NULL(
 5199              		.loc 1 784 3 discriminator 2 view .LVU1318
 5200 1c7c 00005AE3 		cmp	r10, #0
 5201 1c80 7500000A 		beq	.L361
 5202              		.loc 1 784 3 discriminator 2 view .LVU1319
 785:/home/hkh/git/eapidk-code-r76-trunk/apps/EeePProg/linux/../EeePDB.c ****       EeePFindBlock,
 786:/home/hkh/git/eapidk-code-r76-trunk/apps/EeePProg/linux/../EeePDB.c ****       EAPI_STATUS_INVALID_PARAMETER,
 787:/home/hkh/git/eapidk-code-r76-trunk/apps/EeePProg/linux/../EeePDB.c ****       pvFBlock
 788:/home/hkh/git/eapidk-code-r76-trunk/apps/EeePProg/linux/../EeePDB.c ****     );
 5203              		.loc 1 788 6 discriminator 2 view .LVU1320
 789:/home/hkh/git/eapidk-code-r76-trunk/apps/EeePProg/linux/../EeePDB.c ****   EAPI_APP_ASSERT_PARAMATER_ZERO(
 5204              		.loc 1 789 3 discriminator 2 view .LVU1321
 5205 1c84 000055E3 		cmp	r5, #0
 5206 1c88 4D00000A 		beq	.L362
 5207              		.loc 1 789 3 discriminator 2 view .LVU1322
 790:/home/hkh/git/eapidk-code-r76-trunk/apps/EeePProg/linux/../EeePDB.c ****       EeePFindBlock,
 791:/home/hkh/git/eapidk-code-r76-trunk/apps/EeePProg/linux/../EeePDB.c ****       EAPI_STATUS_INVALID_PARAMETER,
 792:/home/hkh/git/eapidk-code-r76-trunk/apps/EeePProg/linux/../EeePDB.c ****       Instance
 793:/home/hkh/git/eapidk-code-r76-trunk/apps/EeePProg/linux/../EeePDB.c ****     );
 5208              		.loc 1 793 6 discriminator 2 view .LVU1323
 794:/home/hkh/git/eapidk-code-r76-trunk/apps/EeePProg/linux/../EeePDB.c **** 
 795:/home/hkh/git/eapidk-code-r76-trunk/apps/EeePProg/linux/../EeePDB.c ****   DO(EeePGetFirstDB(BHandel, &pCurBlock, &MaxDeviceLen));
ARM GAS  /tmp/ccTXisr2.s 			page 128


 5209              		.loc 1 795 3 discriminator 2 view .LVU1324
 5210              		.loc 1 795 3 discriminator 2 view .LVU1325
 5211 1c8c 0170A0E1 		mov	r7, r1
 5212 1c90 18208DE2 		add	r2, sp, #24
 5213 1c94 14108DE2 		add	r1, sp, #20
 5214 1c98 FEFFFFEB 		bl	EeePGetFirstDB(PLT)
 5215              	.LVL419:
 5216              		.loc 1 795 3 discriminator 2 view .LVU1326
 5217 1c9c 008050E2 		subs	r8, r0, #0
 5218 1ca0 5200001A 		bne	.L340
 5219              	.LVL420:
 796:/home/hkh/git/eapidk-code-r76-trunk/apps/EeePProg/linux/../EeePDB.c ****   for(;pCurBlock!=NULL;pCurBlock=GetNextBlock(pCurBlock)){
 5220              		.loc 1 796 17 view .LVU1327
 5221 1ca4 14409DE5 		ldr	r4, [sp, #20]
 5222 1ca8 000054E3 		cmp	r4, #0
 5223 1cac 3700000A 		beq	.L348
 797:/home/hkh/git/eapidk-code-r76-trunk/apps/EeePProg/linux/../EeePDB.c ****     CurOffset=EAPI_GET_PTR_OFFSET(pCurBlock, BHandel);
 798:/home/hkh/git/eapidk-code-r76-trunk/apps/EeePProg/linux/../EeePDB.c ****     EAPI_APP_RETURN_ERROR_IF_S(
 5224              		.loc 1 798 5 is_stmt 0 view .LVU1328
 5225 1cb0 18209DE5 		ldr	r2, [sp, #24]
 797:/home/hkh/git/eapidk-code-r76-trunk/apps/EeePProg/linux/../EeePDB.c ****     CurOffset=EAPI_GET_PTR_OFFSET(pCurBlock, BHandel);
 5226              		.loc 1 797 15 view .LVU1329
 5227 1cb4 063044E0 		sub	r3, r4, r6
 5228              	.LBB398:
 5229              	.LBB399:
 167:/home/hkh/git/eapidk-code-r76-trunk/apps/EeePProg/linux/../EeePDB.c ****     case EEEP_OFFSET_VALUE_EOL:
 5230              		.loc 1 167 3 view .LVU1330
 5231 1cb8 FF9F0FE3 		movw	r9, #65535
 167:/home/hkh/git/eapidk-code-r76-trunk/apps/EeePProg/linux/../EeePDB.c ****     case EEEP_OFFSET_VALUE_EOL:
 5232              		.loc 1 167 3 view .LVU1331
 5233              	.LBE399:
 5234              	.LBE398:
 797:/home/hkh/git/eapidk-code-r76-trunk/apps/EeePProg/linux/../EeePDB.c ****     CurOffset=EAPI_GET_PTR_OFFSET(pCurBlock, BHandel);
 5235              		.loc 1 797 5 is_stmt 1 view .LVU1332
 5236              	.LVL421:
 5237              		.loc 1 798 5 view .LVU1333
 5238 1cbc 030052E1 		cmp	r2, r3
 5239 1cc0 1100003A 		bcc	.L363
 5240              	.LVL422:
 5241              	.L343:
 5242              		.loc 1 798 5 discriminator 2 view .LVU1334
 799:/home/hkh/git/eapidk-code-r76-trunk/apps/EeePProg/linux/../EeePDB.c ****       EeePFindBlock    ,
 800:/home/hkh/git/eapidk-code-r76-trunk/apps/EeePProg/linux/../EeePDB.c ****       (CurOffset>MaxDeviceLen),
 801:/home/hkh/git/eapidk-code-r76-trunk/apps/EeePProg/linux/../EeePDB.c ****       EAPI_STATUS_ERROR
 802:/home/hkh/git/eapidk-code-r76-trunk/apps/EeePProg/linux/../EeePDB.c ****       );
 5243              		.loc 1 802 8 discriminator 2 view .LVU1335
 803:/home/hkh/git/eapidk-code-r76-trunk/apps/EeePProg/linux/../EeePDB.c ****     if(pCurBlock->DBlockId==BlockId){
 5244              		.loc 1 803 5 discriminator 2 view .LVU1336
 5245              		.loc 1 803 7 is_stmt 0 discriminator 2 view .LVU1337
 5246 1cc4 0030D4E5 		ldrb	r3, [r4]	@ zero_extendqisi2
 5247              	.LVL423:
 5248              		.loc 1 803 7 discriminator 2 view .LVU1338
 5249 1cc8 070053E1 		cmp	r3, r7
 5250 1ccc 2800001A 		bne	.L344
 804:/home/hkh/git/eapidk-code-r76-trunk/apps/EeePProg/linux/../EeePDB.c ****       if(!-- Instance){
 5251              		.loc 1 804 7 is_stmt 1 view .LVU1339
 5252              	.LVL424:
ARM GAS  /tmp/ccTXisr2.s 			page 129


 5253              		.loc 1 804 9 is_stmt 0 view .LVU1340
 5254 1cd0 015055E2 		subs	r5, r5, #1
 5255              	.LVL425:
 5256              		.loc 1 804 9 view .LVU1341
 5257 1cd4 5300000A 		beq	.L364
 796:/home/hkh/git/eapidk-code-r76-trunk/apps/EeePProg/linux/../EeePDB.c ****     CurOffset=EAPI_GET_PTR_OFFSET(pCurBlock, BHandel);
 5258              		.loc 1 796 33 is_stmt 1 view .LVU1342
 5259              	.LVL426:
 5260              	.LBB420:
 5261              	.LBI398:
 155:/home/hkh/git/eapidk-code-r76-trunk/apps/EeePProg/linux/../EeePDB.c ****     DBlockIdHdr_t *pCurBlock
 5262              		.loc 1 155 1 view .LVU1343
 5263              	.LBB416:
 159:/home/hkh/git/eapidk-code-r76-trunk/apps/EeePProg/linux/../EeePDB.c ****   size_t stBlockLength;
 5264              		.loc 1 159 3 view .LVU1344
 160:/home/hkh/git/eapidk-code-r76-trunk/apps/EeePProg/linux/../EeePDB.c ****   EAPI_APP_ASSERT_PARAMATER_NULL(
 5265              		.loc 1 160 3 view .LVU1345
 161:/home/hkh/git/eapidk-code-r76-trunk/apps/EeePProg/linux/../EeePDB.c ****       GetNextBlock,
 5266              		.loc 1 161 3 view .LVU1346
 161:/home/hkh/git/eapidk-code-r76-trunk/apps/EeePProg/linux/../EeePDB.c ****       GetNextBlock,
 5267              		.loc 1 161 3 view .LVU1347
 165:/home/hkh/git/eapidk-code-r76-trunk/apps/EeePProg/linux/../EeePDB.c ****   stBlockLength=GetBlockLength(pCurBlock);
 5268              		.loc 1 165 6 view .LVU1348
 166:/home/hkh/git/eapidk-code-r76-trunk/apps/EeePProg/linux/../EeePDB.c ****   switch(stBlockLength){
 5269              		.loc 1 166 3 view .LVU1349
 5270              	.LBB400:
 5271              	.LBI400:
 144:/home/hkh/git/eapidk-code-r76-trunk/apps/EeePProg/linux/../EeePDB.c ****     const void * pcvBHandel
 5272              		.loc 1 144 1 view .LVU1350
 5273              	.LBB401:
 148:/home/hkh/git/eapidk-code-r76-trunk/apps/EeePProg/linux/../EeePDB.c ****   if(!pcvBHandel) return stBlockSize;
 5274              		.loc 1 148 3 view .LVU1351
 149:/home/hkh/git/eapidk-code-r76-trunk/apps/EeePProg/linux/../EeePDB.c **** 
 5275              		.loc 1 149 3 view .LVU1352
 5276              	.LBB402:
 5277              	.LBI402:
 144:/home/hkh/git/eapidk-code-r76-trunk/apps/EeePProg/linux/../EeePDB.c ****     const void * pcvBHandel
 5278              		.loc 1 144 1 view .LVU1353
 5279              	.LBB403:
 151:/home/hkh/git/eapidk-code-r76-trunk/apps/EeePProg/linux/../EeePDB.c ****   return stBlockSize;
 5280              		.loc 1 151 3 view .LVU1354
 151:/home/hkh/git/eapidk-code-r76-trunk/apps/EeePProg/linux/../EeePDB.c ****   return stBlockSize;
 5281              		.loc 1 151 15 is_stmt 0 view .LVU1355
 5282 1cd8 010084E2 		add	r0, r4, #1
 5283 1cdc FEFFFFEB 		bl	EeeP_Get16BitValue_BE(PLT)
 5284              	.LVL427:
 5285              	.LBE403:
 5286              	.LBE402:
 5287              	.LBE401:
 5288              	.LBE400:
 167:/home/hkh/git/eapidk-code-r76-trunk/apps/EeePProg/linux/../EeePDB.c ****     case EEEP_OFFSET_VALUE_EOL:
 5289              		.loc 1 167 3 view .LVU1356
 5290 1ce0 000050E3 		cmp	r0, #0
 5291              	.LBB413:
 5292              	.LBB410:
 5293              	.LBB407:
 5294              	.LBB404:
ARM GAS  /tmp/ccTXisr2.s 			page 130


 151:/home/hkh/git/eapidk-code-r76-trunk/apps/EeePProg/linux/../EeePDB.c ****   return stBlockSize;
 5295              		.loc 1 151 81 view .LVU1357
 5296 1ce4 8030A0E1 		lsl	r3, r0, #1
 5297              	.LVL428:
 152:/home/hkh/git/eapidk-code-r76-trunk/apps/EeePProg/linux/../EeePDB.c **** }
 5298              		.loc 1 152 3 is_stmt 1 view .LVU1358
 152:/home/hkh/git/eapidk-code-r76-trunk/apps/EeePProg/linux/../EeePDB.c **** }
 5299              		.loc 1 152 3 is_stmt 0 view .LVU1359
 5300              	.LBE404:
 5301              	.LBE407:
 5302              	.LBE410:
 5303              	.LBE413:
 167:/home/hkh/git/eapidk-code-r76-trunk/apps/EeePProg/linux/../EeePDB.c ****     case EEEP_OFFSET_VALUE_EOL:
 5304              		.loc 1 167 3 is_stmt 1 view .LVU1360
 5305 1ce8 3300000A 		beq	.L365
 5306              	.LVL429:
 5307              	.L358:
 167:/home/hkh/git/eapidk-code-r76-trunk/apps/EeePProg/linux/../EeePDB.c ****     case EEEP_OFFSET_VALUE_EOL:
 5308              		.loc 1 167 3 is_stmt 0 view .LVU1361
 5309 1cec 090050E1 		cmp	r0, r9
 5310 1cf0 2400000A 		beq	.L349
 171:/home/hkh/git/eapidk-code-r76-trunk/apps/EeePProg/linux/../EeePDB.c ****     default:
 5311              		.loc 1 171 7 is_stmt 1 view .LVU1362
 173:/home/hkh/git/eapidk-code-r76-trunk/apps/EeePProg/linux/../EeePDB.c ****           pCurBlock         ,
 5312              		.loc 1 173 7 view .LVU1363
 5313              	.LBE416:
 5314              	.LBE420:
 798:/home/hkh/git/eapidk-code-r76-trunk/apps/EeePProg/linux/../EeePDB.c ****       EeePFindBlock    ,
 5315              		.loc 1 798 5 is_stmt 0 view .LVU1364
 5316 1cf4 18209DE5 		ldr	r2, [sp, #24]
 5317              	.LBB421:
 5318              	.LBB417:
 173:/home/hkh/git/eapidk-code-r76-trunk/apps/EeePProg/linux/../EeePDB.c ****           pCurBlock         ,
 5319              		.loc 1 173 17 view .LVU1365
 5320 1cf8 034084E0 		add	r4, r4, r3
 5321              	.LVL430:
 178:/home/hkh/git/eapidk-code-r76-trunk/apps/EeePProg/linux/../EeePDB.c ****       }
 5322              		.loc 1 178 7 is_stmt 1 view .LVU1366
 5323              	.LDL25:
 5324              	.LDL26:
 182:/home/hkh/git/eapidk-code-r76-trunk/apps/EeePProg/linux/../EeePDB.c **** }
 5325              		.loc 1 182 3 view .LVU1367
 182:/home/hkh/git/eapidk-code-r76-trunk/apps/EeePProg/linux/../EeePDB.c **** }
 5326              		.loc 1 182 3 is_stmt 0 view .LVU1368
 5327              	.LBE417:
 5328              	.LBE421:
 797:/home/hkh/git/eapidk-code-r76-trunk/apps/EeePProg/linux/../EeePDB.c ****     EAPI_APP_RETURN_ERROR_IF_S(
 5329              		.loc 1 797 15 view .LVU1369
 5330 1cfc 063044E0 		sub	r3, r4, r6
 796:/home/hkh/git/eapidk-code-r76-trunk/apps/EeePProg/linux/../EeePDB.c ****     CurOffset=EAPI_GET_PTR_OFFSET(pCurBlock, BHandel);
 5331              		.loc 1 796 33 view .LVU1370
 5332 1d00 14408DE5 		str	r4, [sp, #20]
 796:/home/hkh/git/eapidk-code-r76-trunk/apps/EeePProg/linux/../EeePDB.c ****     CurOffset=EAPI_GET_PTR_OFFSET(pCurBlock, BHandel);
 5333              		.loc 1 796 17 is_stmt 1 view .LVU1371
 797:/home/hkh/git/eapidk-code-r76-trunk/apps/EeePProg/linux/../EeePDB.c ****     EAPI_APP_RETURN_ERROR_IF_S(
 5334              		.loc 1 797 5 view .LVU1372
 5335              	.LVL431:
ARM GAS  /tmp/ccTXisr2.s 			page 131


 798:/home/hkh/git/eapidk-code-r76-trunk/apps/EeePProg/linux/../EeePDB.c ****       EeePFindBlock    ,
 5336              		.loc 1 798 5 view .LVU1373
 5337 1d04 030052E1 		cmp	r2, r3
 5338 1d08 EDFFFF2A 		bcs	.L343
 5339              	.LVL432:
 5340              	.L363:
 798:/home/hkh/git/eapidk-code-r76-trunk/apps/EeePProg/linux/../EeePDB.c ****       EeePFindBlock    ,
 5341              		.loc 1 798 5 discriminator 1 view .LVU1374
 798:/home/hkh/git/eapidk-code-r76-trunk/apps/EeePProg/linux/../EeePDB.c ****       EeePFindBlock    ,
 5342              		.loc 1 798 5 discriminator 1 view .LVU1375
 5343 1d0c 80C19FE5 		ldr	ip, .L367+8
 5344 1d10 0F8CE0E3 		mvn	r8, #3840
 5345              	.LVL433:
 798:/home/hkh/git/eapidk-code-r76-trunk/apps/EeePProg/linux/../EeePDB.c ****       EeePFindBlock    ,
 5346              		.loc 1 798 5 is_stmt 0 discriminator 1 view .LVU1376
 5347 1d14 7C019FE5 		ldr	r0, .L367+12
 5348 1d18 1E3300E3 		movw	r3, #798
 5349              	.LVL434:
 798:/home/hkh/git/eapidk-code-r76-trunk/apps/EeePProg/linux/../EeePDB.c ****       EeePFindBlock    ,
 5350              		.loc 1 798 5 discriminator 1 view .LVU1377
 5351 1d1c 78219FE5 		ldr	r2, .L367+16
 5352 1d20 78119FE5 		ldr	r1, .L367+20
 5353              	.LPIC294:
 5354 1d24 0CC08FE0 		add	ip, pc, ip
 5355              	.LPIC295:
 5356 1d28 00008FE0 		add	r0, pc, r0
 5357              	.LPIC292:
 5358 1d2c 02208FE0 		add	r2, pc, r2
 5359              	.LPIC293:
 5360 1d30 01108FE0 		add	r1, pc, r1
 5361              	.L359:
 805:/home/hkh/git/eapidk-code-r76-trunk/apps/EeePProg/linux/../EeePDB.c ****         *pvFBlock=pCurBlock;
 806:/home/hkh/git/eapidk-code-r76-trunk/apps/EeePProg/linux/../EeePDB.c ****         return EAPI_STATUS_SUCCESS;
 807:/home/hkh/git/eapidk-code-r76-trunk/apps/EeePProg/linux/../EeePDB.c ****       }
 808:/home/hkh/git/eapidk-code-r76-trunk/apps/EeePProg/linux/../EeePDB.c ****     }
 809:/home/hkh/git/eapidk-code-r76-trunk/apps/EeePProg/linux/../EeePDB.c ****   }
 810:/home/hkh/git/eapidk-code-r76-trunk/apps/EeePProg/linux/../EeePDB.c ****   EAPI_APP_RETURN_ERROR(
 5362              		.loc 1 810 3 view .LVU1378
 5363 1d34 01108DE9 		stmib	sp, {r0, ip}
 5364 1d38 4500A0E3 		mov	r0, #69
 5365 1d3c 00808DE5 		str	r8, [sp]
 5366 1d40 FEFFFFEB 		bl	siFormattedMessage_SC(PLT)
 5367              	.LVL435:
 5368              		.loc 1 810 3 is_stmt 1 view .LVU1379
 5369              		.loc 1 810 3 view .LVU1380
 5370              		.loc 1 810 3 view .LVU1381
 5371              	.L335:
 774:/home/hkh/git/eapidk-code-r76-trunk/apps/EeePProg/linux/../EeePDB.c ****   DBlockIdHdr_t    *pCurBlock;
 5372              		.loc 1 774 1 is_stmt 0 view .LVU1382
 5373 1d44 58219FE5 		ldr	r2, .L367+24
 811:/home/hkh/git/eapidk-code-r76-trunk/apps/EeePProg/linux/../EeePDB.c ****       EeePFindBlock,
 812:/home/hkh/git/eapidk-code-r76-trunk/apps/EeePProg/linux/../EeePDB.c ****       EAPI_STATUS_ERROR,
 813:/home/hkh/git/eapidk-code-r76-trunk/apps/EeePProg/linux/../EeePDB.c ****       "Block Not Found"
 814:/home/hkh/git/eapidk-code-r76-trunk/apps/EeePProg/linux/../EeePDB.c ****     );
 815:/home/hkh/git/eapidk-code-r76-trunk/apps/EeePProg/linux/../EeePDB.c **** EAPI_APP_ASSERT_EXIT
 816:/home/hkh/git/eapidk-code-r76-trunk/apps/EeePProg/linux/../EeePDB.c ****   return StatusCode;
 817:/home/hkh/git/eapidk-code-r76-trunk/apps/EeePProg/linux/../EeePDB.c **** }
ARM GAS  /tmp/ccTXisr2.s 			page 132


 5374              		.loc 1 817 1 view .LVU1383
 5375 1d48 40319FE5 		ldr	r3, .L367+4
 774:/home/hkh/git/eapidk-code-r76-trunk/apps/EeePProg/linux/../EeePDB.c ****   DBlockIdHdr_t    *pCurBlock;
 5376              		.loc 1 774 1 view .LVU1384
 5377              	.LPIC300:
 5378 1d4c 02208FE0 		add	r2, pc, r2
 5379              		.loc 1 817 1 view .LVU1385
 5380 1d50 033092E7 		ldr	r3, [r2, r3]
 5381 1d54 002093E5 		ldr	r2, [r3]
 5382 1d58 1C309DE5 		ldr	r3, [sp, #28]
 5383 1d5c 022033E0 		eors	r2, r3, r2
 5384 1d60 0030A0E3 		mov	r3, #0
 5385 1d64 4700001A 		bne	.L366
 5386 1d68 0800A0E1 		mov	r0, r8
 5387 1d6c 20D08DE2 		add	sp, sp, #32
 5388              		.cfi_remember_state
 5389              		.cfi_def_cfa_offset 32
 5390              		@ sp needed
 5391 1d70 F087BDE8 		pop	{r4, r5, r6, r7, r8, r9, r10, pc}
 5392              	.LVL436:
 5393              	.L344:
 5394              		.cfi_restore_state
 796:/home/hkh/git/eapidk-code-r76-trunk/apps/EeePProg/linux/../EeePDB.c ****     CurOffset=EAPI_GET_PTR_OFFSET(pCurBlock, BHandel);
 5395              		.loc 1 796 33 is_stmt 1 view .LVU1386
 5396              	.LBB422:
 155:/home/hkh/git/eapidk-code-r76-trunk/apps/EeePProg/linux/../EeePDB.c ****     DBlockIdHdr_t *pCurBlock
 5397              		.loc 1 155 1 view .LVU1387
 5398              	.LBB418:
 159:/home/hkh/git/eapidk-code-r76-trunk/apps/EeePProg/linux/../EeePDB.c ****   size_t stBlockLength;
 5399              		.loc 1 159 3 view .LVU1388
 160:/home/hkh/git/eapidk-code-r76-trunk/apps/EeePProg/linux/../EeePDB.c ****   EAPI_APP_ASSERT_PARAMATER_NULL(
 5400              		.loc 1 160 3 view .LVU1389
 161:/home/hkh/git/eapidk-code-r76-trunk/apps/EeePProg/linux/../EeePDB.c ****       GetNextBlock,
 5401              		.loc 1 161 3 view .LVU1390
 161:/home/hkh/git/eapidk-code-r76-trunk/apps/EeePProg/linux/../EeePDB.c ****       GetNextBlock,
 5402              		.loc 1 161 3 view .LVU1391
 165:/home/hkh/git/eapidk-code-r76-trunk/apps/EeePProg/linux/../EeePDB.c ****   stBlockLength=GetBlockLength(pCurBlock);
 5403              		.loc 1 165 6 view .LVU1392
 166:/home/hkh/git/eapidk-code-r76-trunk/apps/EeePProg/linux/../EeePDB.c ****   switch(stBlockLength){
 5404              		.loc 1 166 3 view .LVU1393
 5405              	.LBB414:
 144:/home/hkh/git/eapidk-code-r76-trunk/apps/EeePProg/linux/../EeePDB.c ****     const void * pcvBHandel
 5406              		.loc 1 144 1 view .LVU1394
 5407              	.LBB411:
 148:/home/hkh/git/eapidk-code-r76-trunk/apps/EeePProg/linux/../EeePDB.c ****   if(!pcvBHandel) return stBlockSize;
 5408              		.loc 1 148 3 view .LVU1395
 149:/home/hkh/git/eapidk-code-r76-trunk/apps/EeePProg/linux/../EeePDB.c **** 
 5409              		.loc 1 149 3 view .LVU1396
 5410              	.LBB408:
 144:/home/hkh/git/eapidk-code-r76-trunk/apps/EeePProg/linux/../EeePDB.c ****     const void * pcvBHandel
 5411              		.loc 1 144 1 view .LVU1397
 5412              	.LBB405:
 151:/home/hkh/git/eapidk-code-r76-trunk/apps/EeePProg/linux/../EeePDB.c ****   return stBlockSize;
 5413              		.loc 1 151 3 view .LVU1398
 151:/home/hkh/git/eapidk-code-r76-trunk/apps/EeePProg/linux/../EeePDB.c ****   return stBlockSize;
 5414              		.loc 1 151 15 is_stmt 0 view .LVU1399
 5415 1d74 010084E2 		add	r0, r4, #1
ARM GAS  /tmp/ccTXisr2.s 			page 133


 5416 1d78 FEFFFFEB 		bl	EeeP_Get16BitValue_BE(PLT)
 5417              	.LVL437:
 5418              	.LBE405:
 5419              	.LBE408:
 5420              	.LBE411:
 5421              	.LBE414:
 167:/home/hkh/git/eapidk-code-r76-trunk/apps/EeePProg/linux/../EeePDB.c ****     case EEEP_OFFSET_VALUE_EOL:
 5422              		.loc 1 167 3 view .LVU1400
 5423 1d7c 000050E3 		cmp	r0, #0
 5424              	.LBB415:
 5425              	.LBB412:
 5426              	.LBB409:
 5427              	.LBB406:
 151:/home/hkh/git/eapidk-code-r76-trunk/apps/EeePProg/linux/../EeePDB.c ****   return stBlockSize;
 5428              		.loc 1 151 81 view .LVU1401
 5429 1d80 8030A0E1 		lsl	r3, r0, #1
 5430              	.LVL438:
 152:/home/hkh/git/eapidk-code-r76-trunk/apps/EeePProg/linux/../EeePDB.c **** }
 5431              		.loc 1 152 3 is_stmt 1 view .LVU1402
 152:/home/hkh/git/eapidk-code-r76-trunk/apps/EeePProg/linux/../EeePDB.c **** }
 5432              		.loc 1 152 3 is_stmt 0 view .LVU1403
 5433              	.LBE406:
 5434              	.LBE409:
 5435              	.LBE412:
 5436              	.LBE415:
 167:/home/hkh/git/eapidk-code-r76-trunk/apps/EeePProg/linux/../EeePDB.c ****     case EEEP_OFFSET_VALUE_EOL:
 5437              		.loc 1 167 3 is_stmt 1 view .LVU1404
 5438 1d84 D8FFFF1A 		bne	.L358
 5439              	.LVL439:
 5440              	.L349:
 182:/home/hkh/git/eapidk-code-r76-trunk/apps/EeePProg/linux/../EeePDB.c **** }
 5441              		.loc 1 182 3 view .LVU1405
 182:/home/hkh/git/eapidk-code-r76-trunk/apps/EeePProg/linux/../EeePDB.c **** }
 5442              		.loc 1 182 3 is_stmt 0 view .LVU1406
 5443              	.LBE418:
 5444              	.LBE422:
 796:/home/hkh/git/eapidk-code-r76-trunk/apps/EeePProg/linux/../EeePDB.c ****     CurOffset=EAPI_GET_PTR_OFFSET(pCurBlock, BHandel);
 5445              		.loc 1 796 33 view .LVU1407
 5446 1d88 0030A0E3 		mov	r3, #0
 5447 1d8c 14308DE5 		str	r3, [sp, #20]
 796:/home/hkh/git/eapidk-code-r76-trunk/apps/EeePProg/linux/../EeePDB.c ****     CurOffset=EAPI_GET_PTR_OFFSET(pCurBlock, BHandel);
 5448              		.loc 1 796 17 is_stmt 1 view .LVU1408
 5449              	.LVL440:
 5450              	.L348:
 810:/home/hkh/git/eapidk-code-r76-trunk/apps/EeePProg/linux/../EeePDB.c ****       EeePFindBlock,
 5451              		.loc 1 810 3 view .LVU1409
 810:/home/hkh/git/eapidk-code-r76-trunk/apps/EeePProg/linux/../EeePDB.c ****       EeePFindBlock,
 5452              		.loc 1 810 3 view .LVU1410
 5453 1d90 10C19FE5 		ldr	ip, .L367+28
 5454 1d94 0F8CE0E3 		mvn	r8, #3840
 5455              	.LVL441:
 810:/home/hkh/git/eapidk-code-r76-trunk/apps/EeePProg/linux/../EeePDB.c ****       EeePFindBlock,
 5456              		.loc 1 810 3 is_stmt 0 view .LVU1411
 5457 1d98 0C019FE5 		ldr	r0, .L367+32
 5458 1d9c 2A3300E3 		movw	r3, #810
 5459 1da0 08219FE5 		ldr	r2, .L367+36
 5460 1da4 08119FE5 		ldr	r1, .L367+40
ARM GAS  /tmp/ccTXisr2.s 			page 134


 5461              	.LPIC298:
 5462 1da8 0CC08FE0 		add	ip, pc, ip
 5463              	.LPIC299:
 5464 1dac 00008FE0 		add	r0, pc, r0
 5465              	.LPIC296:
 5466 1db0 02208FE0 		add	r2, pc, r2
 5467              	.LPIC297:
 5468 1db4 01108FE0 		add	r1, pc, r1
 5469 1db8 DDFFFFEA 		b	.L359
 5470              	.LVL442:
 5471              	.L365:
 5472              	.LBB423:
 5473              	.LBB419:
 182:/home/hkh/git/eapidk-code-r76-trunk/apps/EeePProg/linux/../EeePDB.c **** }
 5474              		.loc 1 182 3 is_stmt 1 view .LVU1412
 182:/home/hkh/git/eapidk-code-r76-trunk/apps/EeePProg/linux/../EeePDB.c **** }
 5475              		.loc 1 182 3 is_stmt 0 view .LVU1413
 5476              	.LBE419:
 5477              	.LBE423:
 796:/home/hkh/git/eapidk-code-r76-trunk/apps/EeePProg/linux/../EeePDB.c ****     CurOffset=EAPI_GET_PTR_OFFSET(pCurBlock, BHandel);
 5478              		.loc 1 796 33 view .LVU1414
 5479 1dbc 14008DE5 		str	r0, [sp, #20]
 796:/home/hkh/git/eapidk-code-r76-trunk/apps/EeePProg/linux/../EeePDB.c ****     CurOffset=EAPI_GET_PTR_OFFSET(pCurBlock, BHandel);
 5480              		.loc 1 796 17 is_stmt 1 view .LVU1415
 5481 1dc0 F2FFFFEA 		b	.L348
 5482              	.LVL443:
 5483              	.L362:
 789:/home/hkh/git/eapidk-code-r76-trunk/apps/EeePProg/linux/../EeePDB.c ****       EeePFindBlock,
 5484              		.loc 1 789 3 discriminator 1 view .LVU1416
 789:/home/hkh/git/eapidk-code-r76-trunk/apps/EeePProg/linux/../EeePDB.c ****       EeePFindBlock,
 5485              		.loc 1 789 3 discriminator 1 view .LVU1417
 5486 1dc4 ECC09FE5 		ldr	ip, .L367+44
 5487 1dc8 018CE0E3 		mvn	r8, #256
 5488 1dcc E8009FE5 		ldr	r0, .L367+48
 5489              	.LVL444:
 789:/home/hkh/git/eapidk-code-r76-trunk/apps/EeePProg/linux/../EeePDB.c ****       EeePFindBlock,
 5490              		.loc 1 789 3 is_stmt 0 discriminator 1 view .LVU1418
 5491 1dd0 153300E3 		movw	r3, #789
 5492 1dd4 E4209FE5 		ldr	r2, .L367+52
 5493 1dd8 E4109FE5 		ldr	r1, .L367+56
 5494              	.LVL445:
 789:/home/hkh/git/eapidk-code-r76-trunk/apps/EeePProg/linux/../EeePDB.c ****       EeePFindBlock,
 5495              		.loc 1 789 3 discriminator 1 view .LVU1419
 5496              	.LPIC286:
 5497 1ddc 0CC08FE0 		add	ip, pc, ip
 5498              	.LPIC287:
 5499 1de0 00008FE0 		add	r0, pc, r0
 5500              	.LPIC284:
 5501 1de4 02208FE0 		add	r2, pc, r2
 5502              	.LPIC285:
 5503 1de8 01108FE0 		add	r1, pc, r1
 5504 1dec D0FFFFEA 		b	.L359
 5505              	.LVL446:
 5506              	.L340:
 795:/home/hkh/git/eapidk-code-r76-trunk/apps/EeePProg/linux/../EeePDB.c ****   for(;pCurBlock!=NULL;pCurBlock=GetNextBlock(pCurBlock)){
 5507              		.loc 1 795 3 is_stmt 1 discriminator 1 view .LVU1420
 5508 1df0 D0C09FE5 		ldr	ip, .L367+60
ARM GAS  /tmp/ccTXisr2.s 			page 135


 5509 1df4 1B3300E3 		movw	r3, #795
 5510 1df8 CC009FE5 		ldr	r0, .L367+64
 5511              	.LVL447:
 795:/home/hkh/git/eapidk-code-r76-trunk/apps/EeePProg/linux/../EeePDB.c ****   for(;pCurBlock!=NULL;pCurBlock=GetNextBlock(pCurBlock)){
 5512              		.loc 1 795 3 is_stmt 0 discriminator 1 view .LVU1421
 5513 1dfc CC209FE5 		ldr	r2, .L367+68
 5514 1e00 CC109FE5 		ldr	r1, .L367+72
 5515              	.LPIC290:
 5516 1e04 0CC08FE0 		add	ip, pc, ip
 5517              	.LPIC291:
 5518 1e08 00008FE0 		add	r0, pc, r0
 5519 1e0c 00808DE5 		str	r8, [sp]
 5520 1e10 01108DE9 		stmib	sp, {r0, ip}
 5521              	.LPIC288:
 5522 1e14 02208FE0 		add	r2, pc, r2
 5523              	.LPIC289:
 5524 1e18 01108FE0 		add	r1, pc, r1
 5525 1e1c 4500A0E3 		mov	r0, #69
 5526 1e20 FEFFFFEB 		bl	siFormattedMessage_SC(PLT)
 5527              	.LVL448:
 795:/home/hkh/git/eapidk-code-r76-trunk/apps/EeePProg/linux/../EeePDB.c ****   for(;pCurBlock!=NULL;pCurBlock=GetNextBlock(pCurBlock)){
 5528              		.loc 1 795 3 is_stmt 1 discriminator 1 view .LVU1422
 5529 1e24 C6FFFFEA 		b	.L335
 5530              	.L364:
 805:/home/hkh/git/eapidk-code-r76-trunk/apps/EeePProg/linux/../EeePDB.c ****         return EAPI_STATUS_SUCCESS;
 5531              		.loc 1 805 9 view .LVU1423
 805:/home/hkh/git/eapidk-code-r76-trunk/apps/EeePProg/linux/../EeePDB.c ****         return EAPI_STATUS_SUCCESS;
 5532              		.loc 1 805 18 is_stmt 0 view .LVU1424
 5533 1e28 00408AE5 		str	r4, [r10]
 806:/home/hkh/git/eapidk-code-r76-trunk/apps/EeePProg/linux/../EeePDB.c ****       }
 5534              		.loc 1 806 9 is_stmt 1 view .LVU1425
 806:/home/hkh/git/eapidk-code-r76-trunk/apps/EeePProg/linux/../EeePDB.c ****       }
 5535              		.loc 1 806 16 is_stmt 0 view .LVU1426
 5536 1e2c C4FFFFEA 		b	.L335
 5537              	.LVL449:
 5538              	.L360:
 779:/home/hkh/git/eapidk-code-r76-trunk/apps/EeePProg/linux/../EeePDB.c ****       EeePFindBlock,
 5539              		.loc 1 779 3 is_stmt 1 discriminator 1 view .LVU1427
 779:/home/hkh/git/eapidk-code-r76-trunk/apps/EeePProg/linux/../EeePDB.c ****       EeePFindBlock,
 5540              		.loc 1 779 3 discriminator 1 view .LVU1428
 5541 1e30 A0C09FE5 		ldr	ip, .L367+76
 5542 1e34 018CE0E3 		mvn	r8, #256
 5543 1e38 9C009FE5 		ldr	r0, .L367+80
 5544              	.LVL450:
 779:/home/hkh/git/eapidk-code-r76-trunk/apps/EeePProg/linux/../EeePDB.c ****       EeePFindBlock,
 5545              		.loc 1 779 3 is_stmt 0 discriminator 1 view .LVU1429
 5546 1e3c 0B3300E3 		movw	r3, #779
 5547 1e40 98209FE5 		ldr	r2, .L367+84
 5548 1e44 98109FE5 		ldr	r1, .L367+88
 5549              	.LVL451:
 779:/home/hkh/git/eapidk-code-r76-trunk/apps/EeePProg/linux/../EeePDB.c ****       EeePFindBlock,
 5550              		.loc 1 779 3 discriminator 1 view .LVU1430
 5551              	.LPIC278:
 5552 1e48 0CC08FE0 		add	ip, pc, ip
 5553              	.LPIC279:
 5554 1e4c 00008FE0 		add	r0, pc, r0
 5555              	.LPIC276:
ARM GAS  /tmp/ccTXisr2.s 			page 136


 5556 1e50 02208FE0 		add	r2, pc, r2
 5557              	.LPIC277:
 5558 1e54 01108FE0 		add	r1, pc, r1
 5559 1e58 B5FFFFEA 		b	.L359
 5560              	.LVL452:
 5561              	.L361:
 784:/home/hkh/git/eapidk-code-r76-trunk/apps/EeePProg/linux/../EeePDB.c ****       EeePFindBlock,
 5562              		.loc 1 784 3 is_stmt 1 discriminator 1 view .LVU1431
 784:/home/hkh/git/eapidk-code-r76-trunk/apps/EeePProg/linux/../EeePDB.c ****       EeePFindBlock,
 5563              		.loc 1 784 3 discriminator 1 view .LVU1432
 5564 1e5c 84C09FE5 		ldr	ip, .L367+92
 5565 1e60 018CE0E3 		mvn	r8, #256
 5566 1e64 80009FE5 		ldr	r0, .L367+96
 5567              	.LVL453:
 784:/home/hkh/git/eapidk-code-r76-trunk/apps/EeePProg/linux/../EeePDB.c ****       EeePFindBlock,
 5568              		.loc 1 784 3 is_stmt 0 discriminator 1 view .LVU1433
 5569 1e68 313EA0E3 		mov	r3, #784
 5570 1e6c 7C209FE5 		ldr	r2, .L367+100
 5571 1e70 7C109FE5 		ldr	r1, .L367+104
 5572              	.LVL454:
 784:/home/hkh/git/eapidk-code-r76-trunk/apps/EeePProg/linux/../EeePDB.c ****       EeePFindBlock,
 5573              		.loc 1 784 3 discriminator 1 view .LVU1434
 5574              	.LPIC282:
 5575 1e74 0CC08FE0 		add	ip, pc, ip
 5576              	.LPIC283:
 5577 1e78 00008FE0 		add	r0, pc, r0
 5578              	.LPIC280:
 5579 1e7c 02208FE0 		add	r2, pc, r2
 5580              	.LPIC281:
 5581 1e80 01108FE0 		add	r1, pc, r1
 5582 1e84 AAFFFFEA 		b	.L359
 5583              	.LVL455:
 5584              	.L366:
 5585              		.loc 1 817 1 view .LVU1435
 5586 1e88 FEFFFFEB 		bl	__stack_chk_fail(PLT)
 5587              	.LVL456:
 5588              	.L368:
 5589              		.align	2
 5590              	.L367:
 5591 1e8c 20020000 		.word	_GLOBAL_OFFSET_TABLE_-(.LPIC301+8)
 5592 1e90 00000000 		.word	__stack_chk_guard(GOT)
 5593 1e94 68010000 		.word	.LC34-(.LPIC294+8)
 5594 1e98 68010000 		.word	.LC5-(.LPIC295+8)
 5595 1e9c 68010000 		.word	.LC58-(.LPIC292+8)
 5596 1ea0 68010000 		.word	.LC3-(.LPIC293+8)
 5597 1ea4 50010000 		.word	_GLOBAL_OFFSET_TABLE_-(.LPIC300+8)
 5598 1ea8 F8000000 		.word	.LC61-(.LPIC298+8)
 5599 1eac F8000000 		.word	.LC5-(.LPIC299+8)
 5600 1eb0 F8000000 		.word	.LC58-(.LPIC296+8)
 5601 1eb4 F8000000 		.word	.LC3-(.LPIC297+8)
 5602 1eb8 D4000000 		.word	.LC60-(.LPIC286+8)
 5603 1ebc D4000000 		.word	.LC5-(.LPIC287+8)
 5604 1ec0 D4000000 		.word	.LC58-(.LPIC284+8)
 5605 1ec4 D4000000 		.word	.LC3-(.LPIC285+8)
 5606 1ec8 BC000000 		.word	.LC33-(.LPIC290+8)
 5607 1ecc BC000000 		.word	.LC5-(.LPIC291+8)
 5608 1ed0 B4000000 		.word	.LC25-(.LPIC288+8)
ARM GAS  /tmp/ccTXisr2.s 			page 137


 5609 1ed4 B4000000 		.word	.LC3-(.LPIC289+8)
 5610 1ed8 88000000 		.word	.LC4-(.LPIC278+8)
 5611 1edc 88000000 		.word	.LC5-(.LPIC279+8)
 5612 1ee0 88000000 		.word	.LC58-(.LPIC276+8)
 5613 1ee4 88000000 		.word	.LC3-(.LPIC277+8)
 5614 1ee8 6C000000 		.word	.LC59-(.LPIC282+8)
 5615 1eec 6C000000 		.word	.LC5-(.LPIC283+8)
 5616 1ef0 6C000000 		.word	.LC58-(.LPIC280+8)
 5617 1ef4 6C000000 		.word	.LC3-(.LPIC281+8)
 5618              		.cfi_endproc
 5619              	.LFE18:
 5621              		.section	.rodata.str1.4
 5622              		.align	2
 5623              	.LC62:
 5624 08f8 45656550 		.ascii	"EeePFindVendorBlock\000"
 5624      46696E64 
 5624      56656E64 
 5624      6F72426C 
 5624      6F636B00 
 5625              		.text
 5626              		.align	2
 5627              		.global	EeePFindVendorBlock
 5628              		.syntax unified
 5629              		.arm
 5630              		.fpu vfpv3
 5632              	EeePFindVendorBlock:
 5633              	.LVL457:
 5634              	.LFB19:
 818:/home/hkh/git/eapidk-code-r76-trunk/apps/EeePProg/linux/../EeePDB.c **** EApiStatus_t
 819:/home/hkh/git/eapidk-code-r76-trunk/apps/EeePProg/linux/../EeePDB.c **** EeePFindVendorBlock(
 820:/home/hkh/git/eapidk-code-r76-trunk/apps/EeePProg/linux/../EeePDB.c ****     __IN  EeePHandel_t   BHandel,
 821:/home/hkh/git/eapidk-code-r76-trunk/apps/EeePProg/linux/../EeePDB.c ****     __IN  uint16_t       VendorId,
 822:/home/hkh/git/eapidk-code-r76-trunk/apps/EeePProg/linux/../EeePDB.c ****     __IN  uint8_t        VendorBlockId,
 823:/home/hkh/git/eapidk-code-r76-trunk/apps/EeePProg/linux/../EeePDB.c ****     __IN  signed int     Instance,
 824:/home/hkh/git/eapidk-code-r76-trunk/apps/EeePProg/linux/../EeePDB.c ****     __OUT void         **pvFBlock
 825:/home/hkh/git/eapidk-code-r76-trunk/apps/EeePProg/linux/../EeePDB.c ****     )
 826:/home/hkh/git/eapidk-code-r76-trunk/apps/EeePProg/linux/../EeePDB.c **** {
 5635              		.loc 1 826 1 is_stmt 1 view -0
 5636              		.cfi_startproc
 5637              		@ args = 4, pretend = 0, frame = 16
 5638              		@ frame_needed = 0, uses_anonymous_args = 0
 5639              		.loc 1 826 1 is_stmt 0 view .LVU1437
 5640 1ef8 F04F2DE9 		push	{r4, r5, r6, r7, r8, r9, r10, fp, lr}
 5641              		.cfi_def_cfa_offset 36
 5642              		.cfi_offset 4, -36
 5643              		.cfi_offset 5, -32
 5644              		.cfi_offset 6, -28
 5645              		.cfi_offset 7, -24
 5646              		.cfi_offset 8, -20
 5647              		.cfi_offset 9, -16
 5648              		.cfi_offset 10, -12
 5649              		.cfi_offset 11, -8
 5650              		.cfi_offset 14, -4
 5651 1efc 0280A0E1 		mov	r8, r2
 5652 1f00 8C229FE5 		ldr	r2, .L395
 5653              	.LVL458:
 5654              		.loc 1 826 1 view .LVU1438
ARM GAS  /tmp/ccTXisr2.s 			page 138


 5655 1f04 0390A0E1 		mov	r9, r3
 827:/home/hkh/git/eapidk-code-r76-trunk/apps/EeePProg/linux/../EeePDB.c ****   DBlockIdHdr_t   *pCurBlock;
 828:/home/hkh/git/eapidk-code-r76-trunk/apps/EeePProg/linux/../EeePDB.c ****   size_t         CurOffset, MaxDeviceLen;
 829:/home/hkh/git/eapidk-code-r76-trunk/apps/EeePProg/linux/../EeePDB.c ****   EApiStatus_t StatusCode=EAPI_STATUS_SUCCESS;
 830:/home/hkh/git/eapidk-code-r76-trunk/apps/EeePProg/linux/../EeePDB.c **** 
 831:/home/hkh/git/eapidk-code-r76-trunk/apps/EeePProg/linux/../EeePDB.c ****   EAPI_APP_ASSERT_PARAMATER_NULL(
 5656              		.loc 1 831 3 view .LVU1439
 5657 1f08 005050E2 		subs	r5, r0, #0
 826:/home/hkh/git/eapidk-code-r76-trunk/apps/EeePProg/linux/../EeePDB.c ****   DBlockIdHdr_t   *pCurBlock;
 5658              		.loc 1 826 1 view .LVU1440
 5659 1f0c 24D04DE2 		sub	sp, sp, #36
 5660              		.cfi_def_cfa_offset 72
 826:/home/hkh/git/eapidk-code-r76-trunk/apps/EeePProg/linux/../EeePDB.c ****   DBlockIdHdr_t   *pCurBlock;
 5661              		.loc 1 826 1 view .LVU1441
 5662 1f10 80329FE5 		ldr	r3, .L395+4
 5663              	.LVL459:
 826:/home/hkh/git/eapidk-code-r76-trunk/apps/EeePProg/linux/../EeePDB.c ****   DBlockIdHdr_t   *pCurBlock;
 5664              		.loc 1 826 1 view .LVU1442
 5665              	.LPIC331:
 5666 1f14 02208FE0 		add	r2, pc, r2
 5667 1f18 48B09DE5 		ldr	fp, [sp, #72]
 5668 1f1c 033092E7 		ldr	r3, [r2, r3]
 5669 1f20 003093E5 		ldr	r3, [r3]
 5670 1f24 1C308DE5 		str	r3, [sp, #28]
 5671 1f28 0030A0E3 		mov	r3, #0
 827:/home/hkh/git/eapidk-code-r76-trunk/apps/EeePProg/linux/../EeePDB.c ****   DBlockIdHdr_t   *pCurBlock;
 5672              		.loc 1 827 3 is_stmt 1 view .LVU1443
 828:/home/hkh/git/eapidk-code-r76-trunk/apps/EeePProg/linux/../EeePDB.c ****   EApiStatus_t StatusCode=EAPI_STATUS_SUCCESS;
 5673              		.loc 1 828 3 view .LVU1444
 829:/home/hkh/git/eapidk-code-r76-trunk/apps/EeePProg/linux/../EeePDB.c **** 
 5674              		.loc 1 829 3 view .LVU1445
 5675              	.LVL460:
 5676              		.loc 1 831 3 view .LVU1446
 5677 1f2c 8100000A 		beq	.L387
 5678              		.loc 1 831 3 discriminator 2 view .LVU1447
 832:/home/hkh/git/eapidk-code-r76-trunk/apps/EeePProg/linux/../EeePDB.c ****       EeePFindVendorBlock,
 833:/home/hkh/git/eapidk-code-r76-trunk/apps/EeePProg/linux/../EeePDB.c ****       EAPI_STATUS_INVALID_PARAMETER,
 834:/home/hkh/git/eapidk-code-r76-trunk/apps/EeePProg/linux/../EeePDB.c ****       BHandel
 835:/home/hkh/git/eapidk-code-r76-trunk/apps/EeePProg/linux/../EeePDB.c ****     );
 5679              		.loc 1 835 6 discriminator 2 view .LVU1448
 836:/home/hkh/git/eapidk-code-r76-trunk/apps/EeePProg/linux/../EeePDB.c ****   EAPI_APP_ASSERT_PARAMATER_NULL(
 5680              		.loc 1 836 3 discriminator 2 view .LVU1449
 5681 1f30 00005BE3 		cmp	fp, #0
 5682 1f34 8A00000A 		beq	.L388
 5683              		.loc 1 836 3 discriminator 2 view .LVU1450
 837:/home/hkh/git/eapidk-code-r76-trunk/apps/EeePProg/linux/../EeePDB.c ****       EeePFindVendorBlock,
 838:/home/hkh/git/eapidk-code-r76-trunk/apps/EeePProg/linux/../EeePDB.c ****       EAPI_STATUS_INVALID_PARAMETER,
 839:/home/hkh/git/eapidk-code-r76-trunk/apps/EeePProg/linux/../EeePDB.c ****       pvFBlock
 840:/home/hkh/git/eapidk-code-r76-trunk/apps/EeePProg/linux/../EeePDB.c ****     );
 5684              		.loc 1 840 6 discriminator 2 view .LVU1451
 841:/home/hkh/git/eapidk-code-r76-trunk/apps/EeePProg/linux/../EeePDB.c ****   EAPI_APP_ASSERT_PARAMATER_ZERO(
 5685              		.loc 1 841 3 discriminator 2 view .LVU1452
 5686 1f38 000059E3 		cmp	r9, #0
 5687 1f3c 6400000A 		beq	.L389
 5688              		.loc 1 841 3 discriminator 2 view .LVU1453
 842:/home/hkh/git/eapidk-code-r76-trunk/apps/EeePProg/linux/../EeePDB.c ****       EeePFindVendorBlock,
 843:/home/hkh/git/eapidk-code-r76-trunk/apps/EeePProg/linux/../EeePDB.c ****       EAPI_STATUS_INVALID_PARAMETER,
ARM GAS  /tmp/ccTXisr2.s 			page 139


 844:/home/hkh/git/eapidk-code-r76-trunk/apps/EeePProg/linux/../EeePDB.c ****       Instance
 845:/home/hkh/git/eapidk-code-r76-trunk/apps/EeePProg/linux/../EeePDB.c ****     );
 5689              		.loc 1 845 6 discriminator 2 view .LVU1454
 846:/home/hkh/git/eapidk-code-r76-trunk/apps/EeePProg/linux/../EeePDB.c **** 
 847:/home/hkh/git/eapidk-code-r76-trunk/apps/EeePProg/linux/../EeePDB.c ****   DO(EeePGetFirstDB(BHandel, &pCurBlock, &MaxDeviceLen));
 5690              		.loc 1 847 3 discriminator 2 view .LVU1455
 5691              		.loc 1 847 3 discriminator 2 view .LVU1456
 5692 1f40 01A0A0E1 		mov	r10, r1
 5693 1f44 18208DE2 		add	r2, sp, #24
 5694 1f48 14108DE2 		add	r1, sp, #20
 5695 1f4c FEFFFFEB 		bl	EeePGetFirstDB(PLT)
 5696              	.LVL461:
 5697              		.loc 1 847 3 discriminator 2 view .LVU1457
 5698 1f50 006050E2 		subs	r6, r0, #0
 5699 1f54 6900001A 		bne	.L374
 848:/home/hkh/git/eapidk-code-r76-trunk/apps/EeePProg/linux/../EeePDB.c ****   for(;pCurBlock!=NULL;pCurBlock=GetNextBlock(pCurBlock)){
 5700              		.loc 1 848 17 view .LVU1458
 5701 1f58 14409DE5 		ldr	r4, [sp, #20]
 5702 1f5c 000054E3 		cmp	r4, #0
 5703 1f60 4900000A 		beq	.L380
 849:/home/hkh/git/eapidk-code-r76-trunk/apps/EeePProg/linux/../EeePDB.c ****     CurOffset=EAPI_GET_PTR_OFFSET(pCurBlock, BHandel);
 850:/home/hkh/git/eapidk-code-r76-trunk/apps/EeePProg/linux/../EeePDB.c ****     EAPI_APP_RETURN_ERROR_IF_S(
 5704              		.loc 1 850 5 is_stmt 0 view .LVU1459
 5705 1f64 18209DE5 		ldr	r2, [sp, #24]
 849:/home/hkh/git/eapidk-code-r76-trunk/apps/EeePProg/linux/../EeePDB.c ****     CurOffset=EAPI_GET_PTR_OFFSET(pCurBlock, BHandel);
 5706              		.loc 1 849 15 view .LVU1460
 5707 1f68 053044E0 		sub	r3, r4, r5
 5708              	.LBB434:
 5709              	.LBB435:
 167:/home/hkh/git/eapidk-code-r76-trunk/apps/EeePProg/linux/../EeePDB.c ****     case EEEP_OFFSET_VALUE_EOL:
 5710              		.loc 1 167 3 view .LVU1461
 5711 1f6c FF7F0FE3 		movw	r7, #65535
 167:/home/hkh/git/eapidk-code-r76-trunk/apps/EeePProg/linux/../EeePDB.c ****     case EEEP_OFFSET_VALUE_EOL:
 5712              		.loc 1 167 3 view .LVU1462
 5713              	.LBE435:
 5714              	.LBE434:
 849:/home/hkh/git/eapidk-code-r76-trunk/apps/EeePProg/linux/../EeePDB.c ****     CurOffset=EAPI_GET_PTR_OFFSET(pCurBlock, BHandel);
 5715              		.loc 1 849 5 is_stmt 1 view .LVU1463
 5716              	.LVL462:
 5717              		.loc 1 850 5 view .LVU1464
 5718 1f70 030052E1 		cmp	r2, r3
 5719 1f74 1200003A 		bcc	.L390
 5720              	.LVL463:
 5721              	.L376:
 5722              		.loc 1 850 5 discriminator 2 view .LVU1465
 851:/home/hkh/git/eapidk-code-r76-trunk/apps/EeePProg/linux/../EeePDB.c ****       EeePFindVendorBlock    ,
 852:/home/hkh/git/eapidk-code-r76-trunk/apps/EeePProg/linux/../EeePDB.c ****       (CurOffset>MaxDeviceLen),
 853:/home/hkh/git/eapidk-code-r76-trunk/apps/EeePProg/linux/../EeePDB.c ****       EAPI_STATUS_ERROR
 854:/home/hkh/git/eapidk-code-r76-trunk/apps/EeePProg/linux/../EeePDB.c ****       );
 5723              		.loc 1 854 8 discriminator 2 view .LVU1466
 855:/home/hkh/git/eapidk-code-r76-trunk/apps/EeePProg/linux/../EeePDB.c ****     if(pCurBlock->DBlockId==EEEP_BLOCK_ID_VENDOR_SPECIFIC&&
 5724              		.loc 1 855 5 discriminator 2 view .LVU1467
 5725              		.loc 1 855 7 is_stmt 0 discriminator 2 view .LVU1468
 5726 1f78 0030D4E5 		ldrb	r3, [r4]	@ zero_extendqisi2
 5727              	.LVL464:
 5728              		.loc 1 855 7 discriminator 2 view .LVU1469
 5729 1f7c F00053E3 		cmp	r3, #240
ARM GAS  /tmp/ccTXisr2.s 			page 140


 5730 1f80 0200001A 		bne	.L377
 5731              		.loc 1 855 58 discriminator 1 view .LVU1470
 5732 1f84 0530D4E5 		ldrb	r3, [r4, #5]	@ zero_extendqisi2
 5733 1f88 080053E1 		cmp	r3, r8
 5734 1f8c 2600000A 		beq	.L391
 5735              	.L377:
 5736              	.LVL465:
 5737              	.LBB451:
 5738              	.LBB446:
 161:/home/hkh/git/eapidk-code-r76-trunk/apps/EeePProg/linux/../EeePDB.c ****       GetNextBlock,
 5739              		.loc 1 161 3 is_stmt 1 view .LVU1471
 165:/home/hkh/git/eapidk-code-r76-trunk/apps/EeePProg/linux/../EeePDB.c ****   stBlockLength=GetBlockLength(pCurBlock);
 5740              		.loc 1 165 6 view .LVU1472
 166:/home/hkh/git/eapidk-code-r76-trunk/apps/EeePProg/linux/../EeePDB.c ****   switch(stBlockLength){
 5741              		.loc 1 166 3 view .LVU1473
 5742              	.LBB436:
 5743              	.LBI436:
 144:/home/hkh/git/eapidk-code-r76-trunk/apps/EeePProg/linux/../EeePDB.c ****     const void * pcvBHandel
 5744              		.loc 1 144 1 view .LVU1474
 5745              	.LBB437:
 148:/home/hkh/git/eapidk-code-r76-trunk/apps/EeePProg/linux/../EeePDB.c ****   if(!pcvBHandel) return stBlockSize;
 5746              		.loc 1 148 3 view .LVU1475
 149:/home/hkh/git/eapidk-code-r76-trunk/apps/EeePProg/linux/../EeePDB.c **** 
 5747              		.loc 1 149 3 view .LVU1476
 5748              	.LBB438:
 5749              	.LBI438:
 144:/home/hkh/git/eapidk-code-r76-trunk/apps/EeePProg/linux/../EeePDB.c ****     const void * pcvBHandel
 5750              		.loc 1 144 1 view .LVU1477
 5751              	.LBB439:
 151:/home/hkh/git/eapidk-code-r76-trunk/apps/EeePProg/linux/../EeePDB.c ****   return stBlockSize;
 5752              		.loc 1 151 3 view .LVU1478
 151:/home/hkh/git/eapidk-code-r76-trunk/apps/EeePProg/linux/../EeePDB.c ****   return stBlockSize;
 5753              		.loc 1 151 15 is_stmt 0 view .LVU1479
 5754 1f90 010084E2 		add	r0, r4, #1
 5755 1f94 FEFFFFEB 		bl	EeeP_Get16BitValue_BE(PLT)
 5756              	.LVL466:
 151:/home/hkh/git/eapidk-code-r76-trunk/apps/EeePProg/linux/../EeePDB.c ****   return stBlockSize;
 5757              		.loc 1 151 15 view .LVU1480
 5758              	.LBE439:
 5759              	.LBE438:
 5760              	.LBE437:
 5761              	.LBE436:
 167:/home/hkh/git/eapidk-code-r76-trunk/apps/EeePProg/linux/../EeePDB.c ****     case EEEP_OFFSET_VALUE_EOL:
 5762              		.loc 1 167 3 view .LVU1481
 5763 1f98 000050E3 		cmp	r0, #0
 5764              	.LBB443:
 5765              	.LBB442:
 5766              	.LBB441:
 5767              	.LBB440:
 151:/home/hkh/git/eapidk-code-r76-trunk/apps/EeePProg/linux/../EeePDB.c ****   return stBlockSize;
 5768              		.loc 1 151 81 view .LVU1482
 5769 1f9c 8030A0E1 		lsl	r3, r0, #1
 5770              	.LVL467:
 152:/home/hkh/git/eapidk-code-r76-trunk/apps/EeePProg/linux/../EeePDB.c **** }
 5771              		.loc 1 152 3 is_stmt 1 view .LVU1483
 152:/home/hkh/git/eapidk-code-r76-trunk/apps/EeePProg/linux/../EeePDB.c **** }
 5772              		.loc 1 152 3 is_stmt 0 view .LVU1484
ARM GAS  /tmp/ccTXisr2.s 			page 141


 5773              	.LBE440:
 5774              	.LBE441:
 5775              	.LBE442:
 5776              	.LBE443:
 167:/home/hkh/git/eapidk-code-r76-trunk/apps/EeePProg/linux/../EeePDB.c ****     case EEEP_OFFSET_VALUE_EOL:
 5777              		.loc 1 167 3 is_stmt 1 view .LVU1485
 5778 1fa0 4400000A 		beq	.L392
 5779 1fa4 070050E1 		cmp	r0, r7
 5780 1fa8 3500000A 		beq	.L393
 171:/home/hkh/git/eapidk-code-r76-trunk/apps/EeePProg/linux/../EeePDB.c ****     default:
 5781              		.loc 1 171 7 view .LVU1486
 173:/home/hkh/git/eapidk-code-r76-trunk/apps/EeePProg/linux/../EeePDB.c ****           pCurBlock         ,
 5782              		.loc 1 173 7 view .LVU1487
 5783              	.LBE446:
 5784              	.LBE451:
 850:/home/hkh/git/eapidk-code-r76-trunk/apps/EeePProg/linux/../EeePDB.c ****       EeePFindVendorBlock    ,
 5785              		.loc 1 850 5 is_stmt 0 view .LVU1488
 5786 1fac 18209DE5 		ldr	r2, [sp, #24]
 5787              	.LBB452:
 5788              	.LBB447:
 173:/home/hkh/git/eapidk-code-r76-trunk/apps/EeePProg/linux/../EeePDB.c ****           pCurBlock         ,
 5789              		.loc 1 173 17 view .LVU1489
 5790 1fb0 034084E0 		add	r4, r4, r3
 5791              	.LVL468:
 178:/home/hkh/git/eapidk-code-r76-trunk/apps/EeePProg/linux/../EeePDB.c ****       }
 5792              		.loc 1 178 7 is_stmt 1 view .LVU1490
 5793              	.LDL27:
 5794              	.LDL28:
 182:/home/hkh/git/eapidk-code-r76-trunk/apps/EeePProg/linux/../EeePDB.c **** }
 5795              		.loc 1 182 3 view .LVU1491
 182:/home/hkh/git/eapidk-code-r76-trunk/apps/EeePProg/linux/../EeePDB.c **** }
 5796              		.loc 1 182 3 is_stmt 0 view .LVU1492
 5797              	.LBE447:
 5798              	.LBE452:
 849:/home/hkh/git/eapidk-code-r76-trunk/apps/EeePProg/linux/../EeePDB.c ****     EAPI_APP_RETURN_ERROR_IF_S(
 5799              		.loc 1 849 15 view .LVU1493
 5800 1fb4 053044E0 		sub	r3, r4, r5
 5801              	.LVL469:
 848:/home/hkh/git/eapidk-code-r76-trunk/apps/EeePProg/linux/../EeePDB.c ****     CurOffset=EAPI_GET_PTR_OFFSET(pCurBlock, BHandel);
 5802              		.loc 1 848 33 view .LVU1494
 5803 1fb8 14408DE5 		str	r4, [sp, #20]
 848:/home/hkh/git/eapidk-code-r76-trunk/apps/EeePProg/linux/../EeePDB.c ****     CurOffset=EAPI_GET_PTR_OFFSET(pCurBlock, BHandel);
 5804              		.loc 1 848 17 is_stmt 1 view .LVU1495
 849:/home/hkh/git/eapidk-code-r76-trunk/apps/EeePProg/linux/../EeePDB.c ****     EAPI_APP_RETURN_ERROR_IF_S(
 5805              		.loc 1 849 5 view .LVU1496
 5806              	.LVL470:
 850:/home/hkh/git/eapidk-code-r76-trunk/apps/EeePProg/linux/../EeePDB.c ****       EeePFindVendorBlock    ,
 5807              		.loc 1 850 5 view .LVU1497
 5808 1fbc 030052E1 		cmp	r2, r3
 5809 1fc0 ECFFFF2A 		bcs	.L376
 5810              	.LVL471:
 5811              	.L390:
 850:/home/hkh/git/eapidk-code-r76-trunk/apps/EeePProg/linux/../EeePDB.c ****       EeePFindVendorBlock    ,
 5812              		.loc 1 850 5 discriminator 1 view .LVU1498
 850:/home/hkh/git/eapidk-code-r76-trunk/apps/EeePProg/linux/../EeePDB.c ****       EeePFindVendorBlock    ,
 5813              		.loc 1 850 5 discriminator 1 view .LVU1499
 5814 1fc4 D0C19FE5 		ldr	ip, .L395+8
ARM GAS  /tmp/ccTXisr2.s 			page 142


 5815 1fc8 0F6CE0E3 		mvn	r6, #3840
 5816              	.LVL472:
 850:/home/hkh/git/eapidk-code-r76-trunk/apps/EeePProg/linux/../EeePDB.c ****       EeePFindVendorBlock    ,
 5817              		.loc 1 850 5 is_stmt 0 discriminator 1 view .LVU1500
 5818 1fcc CC019FE5 		ldr	r0, .L395+12
 5819 1fd0 523300E3 		movw	r3, #850
 5820              	.LVL473:
 850:/home/hkh/git/eapidk-code-r76-trunk/apps/EeePProg/linux/../EeePDB.c ****       EeePFindVendorBlock    ,
 5821              		.loc 1 850 5 discriminator 1 view .LVU1501
 5822 1fd4 C8219FE5 		ldr	r2, .L395+16
 5823 1fd8 C8119FE5 		ldr	r1, .L395+20
 5824              	.LPIC324:
 5825 1fdc 0CC08FE0 		add	ip, pc, ip
 5826              	.LPIC325:
 5827 1fe0 00008FE0 		add	r0, pc, r0
 5828              	.LPIC322:
 5829 1fe4 02208FE0 		add	r2, pc, r2
 5830              	.LPIC323:
 5831 1fe8 01108FE0 		add	r1, pc, r1
 5832              	.L386:
 850:/home/hkh/git/eapidk-code-r76-trunk/apps/EeePProg/linux/../EeePDB.c ****       EeePFindVendorBlock    ,
 5833              		.loc 1 850 5 discriminator 1 view .LVU1502
 5834 1fec 01108DE9 		stmib	sp, {r0, ip}
 5835 1ff0 4500A0E3 		mov	r0, #69
 5836 1ff4 00608DE5 		str	r6, [sp]
 5837 1ff8 FEFFFFEB 		bl	siFormattedMessage_SC(PLT)
 5838              	.LVL474:
 850:/home/hkh/git/eapidk-code-r76-trunk/apps/EeePProg/linux/../EeePDB.c ****       EeePFindVendorBlock    ,
 5839              		.loc 1 850 5 is_stmt 1 discriminator 1 view .LVU1503
 850:/home/hkh/git/eapidk-code-r76-trunk/apps/EeePProg/linux/../EeePDB.c ****       EeePFindVendorBlock    ,
 5840              		.loc 1 850 5 discriminator 1 view .LVU1504
 850:/home/hkh/git/eapidk-code-r76-trunk/apps/EeePProg/linux/../EeePDB.c ****       EeePFindVendorBlock    ,
 5841              		.loc 1 850 5 discriminator 1 view .LVU1505
 5842              	.L369:
 826:/home/hkh/git/eapidk-code-r76-trunk/apps/EeePProg/linux/../EeePDB.c ****   DBlockIdHdr_t   *pCurBlock;
 5843              		.loc 1 826 1 is_stmt 0 view .LVU1506
 5844 1ffc A8219FE5 		ldr	r2, .L395+24
 856:/home/hkh/git/eapidk-code-r76-trunk/apps/EeePProg/linux/../EeePDB.c ****        ((EeePVendBlockHdr_t*)pCurBlock)->VendBlockId==VendorBlockId&&
 857:/home/hkh/git/eapidk-code-r76-trunk/apps/EeePProg/linux/../EeePDB.c ****        EeeP_Get16BitValue_BE(((EeePVendBlockHdr_t*)pCurBlock)->VendId)==VendorId
 858:/home/hkh/git/eapidk-code-r76-trunk/apps/EeePProg/linux/../EeePDB.c ****       )
 859:/home/hkh/git/eapidk-code-r76-trunk/apps/EeePProg/linux/../EeePDB.c ****     {
 860:/home/hkh/git/eapidk-code-r76-trunk/apps/EeePProg/linux/../EeePDB.c ****       if(!-- Instance){
 861:/home/hkh/git/eapidk-code-r76-trunk/apps/EeePProg/linux/../EeePDB.c ****         *pvFBlock=pCurBlock;
 862:/home/hkh/git/eapidk-code-r76-trunk/apps/EeePProg/linux/../EeePDB.c ****         return EAPI_STATUS_SUCCESS;
 863:/home/hkh/git/eapidk-code-r76-trunk/apps/EeePProg/linux/../EeePDB.c ****       }
 864:/home/hkh/git/eapidk-code-r76-trunk/apps/EeePProg/linux/../EeePDB.c ****     }
 865:/home/hkh/git/eapidk-code-r76-trunk/apps/EeePProg/linux/../EeePDB.c ****   }
 866:/home/hkh/git/eapidk-code-r76-trunk/apps/EeePProg/linux/../EeePDB.c ****   EAPI_APP_RETURN_ERROR(
 867:/home/hkh/git/eapidk-code-r76-trunk/apps/EeePProg/linux/../EeePDB.c ****       EeePFindVendorBlock,
 868:/home/hkh/git/eapidk-code-r76-trunk/apps/EeePProg/linux/../EeePDB.c ****       EAPI_STATUS_ERROR,
 869:/home/hkh/git/eapidk-code-r76-trunk/apps/EeePProg/linux/../EeePDB.c ****       "Block Not Found"
 870:/home/hkh/git/eapidk-code-r76-trunk/apps/EeePProg/linux/../EeePDB.c ****     );
 871:/home/hkh/git/eapidk-code-r76-trunk/apps/EeePProg/linux/../EeePDB.c **** EAPI_APP_ASSERT_EXIT
 872:/home/hkh/git/eapidk-code-r76-trunk/apps/EeePProg/linux/../EeePDB.c ****   return StatusCode;
 873:/home/hkh/git/eapidk-code-r76-trunk/apps/EeePProg/linux/../EeePDB.c **** }
 5845              		.loc 1 873 1 view .LVU1507
 5846 2000 90319FE5 		ldr	r3, .L395+4
ARM GAS  /tmp/ccTXisr2.s 			page 143


 826:/home/hkh/git/eapidk-code-r76-trunk/apps/EeePProg/linux/../EeePDB.c ****   DBlockIdHdr_t   *pCurBlock;
 5847              		.loc 1 826 1 view .LVU1508
 5848              	.LPIC330:
 5849 2004 02208FE0 		add	r2, pc, r2
 5850              		.loc 1 873 1 view .LVU1509
 5851 2008 033092E7 		ldr	r3, [r2, r3]
 5852 200c 002093E5 		ldr	r2, [r3]
 5853 2010 1C309DE5 		ldr	r3, [sp, #28]
 5854 2014 022033E0 		eors	r2, r3, r2
 5855 2018 0030A0E3 		mov	r3, #0
 5856 201c 5B00001A 		bne	.L394
 5857 2020 0600A0E1 		mov	r0, r6
 5858 2024 24D08DE2 		add	sp, sp, #36
 5859              		.cfi_remember_state
 5860              		.cfi_def_cfa_offset 36
 5861              		@ sp needed
 5862 2028 F08FBDE8 		pop	{r4, r5, r6, r7, r8, r9, r10, fp, pc}
 5863              	.LVL475:
 5864              	.L391:
 5865              		.cfi_restore_state
 857:/home/hkh/git/eapidk-code-r76-trunk/apps/EeePProg/linux/../EeePDB.c ****       )
 5866              		.loc 1 857 8 view .LVU1510
 5867 202c 030084E2 		add	r0, r4, #3
 5868 2030 FEFFFFEB 		bl	EeeP_Get16BitValue_BE(PLT)
 5869              	.LVL476:
 856:/home/hkh/git/eapidk-code-r76-trunk/apps/EeePProg/linux/../EeePDB.c ****        ((EeePVendBlockHdr_t*)pCurBlock)->VendBlockId==VendorBlockId&&
 5870              		.loc 1 856 68 view .LVU1511
 5871 2034 0A0050E1 		cmp	r0, r10
 5872 2038 2000000A 		beq	.L378
 861:/home/hkh/git/eapidk-code-r76-trunk/apps/EeePProg/linux/../EeePDB.c ****         return EAPI_STATUS_SUCCESS;
 5873              		.loc 1 861 18 view .LVU1512
 5874 203c 14409DE5 		ldr	r4, [sp, #20]
 5875              	.L379:
 848:/home/hkh/git/eapidk-code-r76-trunk/apps/EeePProg/linux/../EeePDB.c ****     CurOffset=EAPI_GET_PTR_OFFSET(pCurBlock, BHandel);
 5876              		.loc 1 848 33 is_stmt 1 view .LVU1513
 5877              	.LVL477:
 5878              	.LBB453:
 5879              	.LBI434:
 155:/home/hkh/git/eapidk-code-r76-trunk/apps/EeePProg/linux/../EeePDB.c ****     DBlockIdHdr_t *pCurBlock
 5880              		.loc 1 155 1 view .LVU1514
 5881              	.LBB448:
 159:/home/hkh/git/eapidk-code-r76-trunk/apps/EeePProg/linux/../EeePDB.c ****   size_t stBlockLength;
 5882              		.loc 1 159 3 view .LVU1515
 160:/home/hkh/git/eapidk-code-r76-trunk/apps/EeePProg/linux/../EeePDB.c ****   EAPI_APP_ASSERT_PARAMATER_NULL(
 5883              		.loc 1 160 3 view .LVU1516
 161:/home/hkh/git/eapidk-code-r76-trunk/apps/EeePProg/linux/../EeePDB.c ****       GetNextBlock,
 5884              		.loc 1 161 3 view .LVU1517
 5885 2040 000054E3 		cmp	r4, #0
 5886 2044 D1FFFF1A 		bne	.L377
 5887              	.LBB444:
 5888              	.LBI444:
 155:/home/hkh/git/eapidk-code-r76-trunk/apps/EeePProg/linux/../EeePDB.c ****     DBlockIdHdr_t *pCurBlock
 5889              		.loc 1 155 1 view .LVU1518
 5890              	.LVL478:
 5891              	.LBB445:
 161:/home/hkh/git/eapidk-code-r76-trunk/apps/EeePProg/linux/../EeePDB.c ****       GetNextBlock,
 5892              		.loc 1 161 3 view .LVU1519
ARM GAS  /tmp/ccTXisr2.s 			page 144


 161:/home/hkh/git/eapidk-code-r76-trunk/apps/EeePProg/linux/../EeePDB.c ****       GetNextBlock,
 5893              		.loc 1 161 3 view .LVU1520
 5894 2048 60C19FE5 		ldr	ip, .L395+28
 5895 204c A130A0E3 		mov	r3, #161
 5896 2050 5C019FE5 		ldr	r0, .L395+32
 5897 2054 5C219FE5 		ldr	r2, .L395+36
 5898 2058 5C119FE5 		ldr	r1, .L395+40
 5899              	.LPIC328:
 5900 205c 0CC08FE0 		add	ip, pc, ip
 5901              	.LPIC329:
 5902 2060 00008FE0 		add	r0, pc, r0
 5903 2064 00408DE5 		str	r4, [sp]
 5904 2068 01108DE9 		stmib	sp, {r0, ip}
 5905              	.LPIC326:
 5906 206c 02208FE0 		add	r2, pc, r2
 5907              	.LPIC327:
 5908 2070 01108FE0 		add	r1, pc, r1
 5909 2074 4500A0E3 		mov	r0, #69
 5910 2078 FEFFFFEB 		bl	siFormattedMessage_SC(PLT)
 5911              	.LVL479:
 161:/home/hkh/git/eapidk-code-r76-trunk/apps/EeePProg/linux/../EeePDB.c ****       GetNextBlock,
 5912              		.loc 1 161 3 view .LVU1521
 161:/home/hkh/git/eapidk-code-r76-trunk/apps/EeePProg/linux/../EeePDB.c ****       GetNextBlock,
 5913              		.loc 1 161 3 view .LVU1522
 161:/home/hkh/git/eapidk-code-r76-trunk/apps/EeePProg/linux/../EeePDB.c ****       GetNextBlock,
 5914              		.loc 1 161 3 view .LVU1523
 5915              	.LDL29:
 5916              	.LDL30:
 182:/home/hkh/git/eapidk-code-r76-trunk/apps/EeePProg/linux/../EeePDB.c **** }
 5917              		.loc 1 182 3 view .LVU1524
 182:/home/hkh/git/eapidk-code-r76-trunk/apps/EeePProg/linux/../EeePDB.c **** }
 5918              		.loc 1 182 3 is_stmt 0 view .LVU1525
 5919              	.LBE445:
 5920              	.LBE444:
 182:/home/hkh/git/eapidk-code-r76-trunk/apps/EeePProg/linux/../EeePDB.c **** }
 5921              		.loc 1 182 3 is_stmt 1 view .LVU1526
 182:/home/hkh/git/eapidk-code-r76-trunk/apps/EeePProg/linux/../EeePDB.c **** }
 5922              		.loc 1 182 3 is_stmt 0 view .LVU1527
 5923              	.LBE448:
 5924              	.LBE453:
 848:/home/hkh/git/eapidk-code-r76-trunk/apps/EeePProg/linux/../EeePDB.c ****     CurOffset=EAPI_GET_PTR_OFFSET(pCurBlock, BHandel);
 5925              		.loc 1 848 33 view .LVU1528
 5926 207c 14408DE5 		str	r4, [sp, #20]
 848:/home/hkh/git/eapidk-code-r76-trunk/apps/EeePProg/linux/../EeePDB.c ****     CurOffset=EAPI_GET_PTR_OFFSET(pCurBlock, BHandel);
 5927              		.loc 1 848 17 is_stmt 1 view .LVU1529
 5928 2080 010000EA 		b	.L380
 5929              	.LVL480:
 5930              	.L393:
 5931              	.LBB454:
 5932              	.LBB449:
 182:/home/hkh/git/eapidk-code-r76-trunk/apps/EeePProg/linux/../EeePDB.c **** }
 5933              		.loc 1 182 3 view .LVU1530
 182:/home/hkh/git/eapidk-code-r76-trunk/apps/EeePProg/linux/../EeePDB.c **** }
 5934              		.loc 1 182 3 is_stmt 0 view .LVU1531
 5935              	.LBE449:
 5936              	.LBE454:
 848:/home/hkh/git/eapidk-code-r76-trunk/apps/EeePProg/linux/../EeePDB.c ****     CurOffset=EAPI_GET_PTR_OFFSET(pCurBlock, BHandel);
ARM GAS  /tmp/ccTXisr2.s 			page 145


 5937              		.loc 1 848 33 view .LVU1532
 5938 2084 0030A0E3 		mov	r3, #0
 5939              	.LVL481:
 848:/home/hkh/git/eapidk-code-r76-trunk/apps/EeePProg/linux/../EeePDB.c ****     CurOffset=EAPI_GET_PTR_OFFSET(pCurBlock, BHandel);
 5940              		.loc 1 848 33 view .LVU1533
 5941 2088 14308DE5 		str	r3, [sp, #20]
 848:/home/hkh/git/eapidk-code-r76-trunk/apps/EeePProg/linux/../EeePDB.c ****     CurOffset=EAPI_GET_PTR_OFFSET(pCurBlock, BHandel);
 5942              		.loc 1 848 17 is_stmt 1 view .LVU1534
 5943              	.LVL482:
 5944              	.L380:
 866:/home/hkh/git/eapidk-code-r76-trunk/apps/EeePProg/linux/../EeePDB.c ****       EeePFindVendorBlock,
 5945              		.loc 1 866 3 view .LVU1535
 866:/home/hkh/git/eapidk-code-r76-trunk/apps/EeePProg/linux/../EeePDB.c ****       EeePFindVendorBlock,
 5946              		.loc 1 866 3 view .LVU1536
 5947 208c 2CC19FE5 		ldr	ip, .L395+44
 5948 2090 0F6CE0E3 		mvn	r6, #3840
 5949              	.LVL483:
 866:/home/hkh/git/eapidk-code-r76-trunk/apps/EeePProg/linux/../EeePDB.c ****       EeePFindVendorBlock,
 5950              		.loc 1 866 3 is_stmt 0 view .LVU1537
 5951 2094 28019FE5 		ldr	r0, .L395+48
 5952 2098 623300E3 		movw	r3, #866
 5953 209c 24219FE5 		ldr	r2, .L395+52
 5954 20a0 24119FE5 		ldr	r1, .L395+56
 5955              	.LPIC316:
 5956 20a4 0CC08FE0 		add	ip, pc, ip
 5957              	.LPIC317:
 5958 20a8 00008FE0 		add	r0, pc, r0
 5959              	.LPIC314:
 5960 20ac 02208FE0 		add	r2, pc, r2
 5961              	.LPIC315:
 5962 20b0 01108FE0 		add	r1, pc, r1
 5963 20b4 CCFFFFEA 		b	.L386
 5964              	.LVL484:
 5965              	.L392:
 5966              	.LBB455:
 5967              	.LBB450:
 182:/home/hkh/git/eapidk-code-r76-trunk/apps/EeePProg/linux/../EeePDB.c **** }
 5968              		.loc 1 182 3 is_stmt 1 view .LVU1538
 182:/home/hkh/git/eapidk-code-r76-trunk/apps/EeePProg/linux/../EeePDB.c **** }
 5969              		.loc 1 182 3 is_stmt 0 view .LVU1539
 5970              	.LBE450:
 5971              	.LBE455:
 848:/home/hkh/git/eapidk-code-r76-trunk/apps/EeePProg/linux/../EeePDB.c ****     CurOffset=EAPI_GET_PTR_OFFSET(pCurBlock, BHandel);
 5972              		.loc 1 848 33 view .LVU1540
 5973 20b8 14008DE5 		str	r0, [sp, #20]
 848:/home/hkh/git/eapidk-code-r76-trunk/apps/EeePProg/linux/../EeePDB.c ****     CurOffset=EAPI_GET_PTR_OFFSET(pCurBlock, BHandel);
 5974              		.loc 1 848 17 is_stmt 1 view .LVU1541
 5975 20bc F2FFFFEA 		b	.L380
 5976              	.LVL485:
 5977              	.L378:
 860:/home/hkh/git/eapidk-code-r76-trunk/apps/EeePProg/linux/../EeePDB.c ****         *pvFBlock=pCurBlock;
 5978              		.loc 1 860 7 view .LVU1542
 860:/home/hkh/git/eapidk-code-r76-trunk/apps/EeePProg/linux/../EeePDB.c ****         *pvFBlock=pCurBlock;
 5979              		.loc 1 860 9 is_stmt 0 view .LVU1543
 5980 20c0 019059E2 		subs	r9, r9, #1
 5981              	.LVL486:
 861:/home/hkh/git/eapidk-code-r76-trunk/apps/EeePProg/linux/../EeePDB.c ****         return EAPI_STATUS_SUCCESS;
ARM GAS  /tmp/ccTXisr2.s 			page 146


 5982              		.loc 1 861 18 view .LVU1544
 5983 20c4 14409DE5 		ldr	r4, [sp, #20]
 860:/home/hkh/git/eapidk-code-r76-trunk/apps/EeePProg/linux/../EeePDB.c ****         *pvFBlock=pCurBlock;
 5984              		.loc 1 860 9 view .LVU1545
 5985 20c8 DCFFFF1A 		bne	.L379
 861:/home/hkh/git/eapidk-code-r76-trunk/apps/EeePProg/linux/../EeePDB.c ****         return EAPI_STATUS_SUCCESS;
 5986              		.loc 1 861 9 is_stmt 1 view .LVU1546
 861:/home/hkh/git/eapidk-code-r76-trunk/apps/EeePProg/linux/../EeePDB.c ****         return EAPI_STATUS_SUCCESS;
 5987              		.loc 1 861 18 is_stmt 0 view .LVU1547
 5988 20cc 00408BE5 		str	r4, [fp]
 862:/home/hkh/git/eapidk-code-r76-trunk/apps/EeePProg/linux/../EeePDB.c ****       }
 5989              		.loc 1 862 9 is_stmt 1 view .LVU1548
 862:/home/hkh/git/eapidk-code-r76-trunk/apps/EeePProg/linux/../EeePDB.c ****       }
 5990              		.loc 1 862 16 is_stmt 0 view .LVU1549
 5991 20d0 C9FFFFEA 		b	.L369
 5992              	.LVL487:
 5993              	.L389:
 841:/home/hkh/git/eapidk-code-r76-trunk/apps/EeePProg/linux/../EeePDB.c ****       EeePFindVendorBlock,
 5994              		.loc 1 841 3 is_stmt 1 discriminator 1 view .LVU1550
 841:/home/hkh/git/eapidk-code-r76-trunk/apps/EeePProg/linux/../EeePDB.c ****       EeePFindVendorBlock,
 5995              		.loc 1 841 3 discriminator 1 view .LVU1551
 5996 20d4 F4C09FE5 		ldr	ip, .L395+60
 5997 20d8 016CE0E3 		mvn	r6, #256
 5998 20dc F0009FE5 		ldr	r0, .L395+64
 5999              	.LVL488:
 841:/home/hkh/git/eapidk-code-r76-trunk/apps/EeePProg/linux/../EeePDB.c ****       EeePFindVendorBlock,
 6000              		.loc 1 841 3 is_stmt 0 discriminator 1 view .LVU1552
 6001 20e0 493300E3 		movw	r3, #841
 6002 20e4 EC209FE5 		ldr	r2, .L395+68
 6003 20e8 EC109FE5 		ldr	r1, .L395+72
 6004              	.LVL489:
 841:/home/hkh/git/eapidk-code-r76-trunk/apps/EeePProg/linux/../EeePDB.c ****       EeePFindVendorBlock,
 6005              		.loc 1 841 3 discriminator 1 view .LVU1553
 6006              	.LPIC312:
 6007 20ec 0CC08FE0 		add	ip, pc, ip
 6008              	.LPIC313:
 6009 20f0 00008FE0 		add	r0, pc, r0
 6010              	.LPIC310:
 6011 20f4 02208FE0 		add	r2, pc, r2
 6012              	.LPIC311:
 6013 20f8 01108FE0 		add	r1, pc, r1
 6014 20fc BAFFFFEA 		b	.L386
 6015              	.LVL490:
 6016              	.L374:
 847:/home/hkh/git/eapidk-code-r76-trunk/apps/EeePProg/linux/../EeePDB.c ****   for(;pCurBlock!=NULL;pCurBlock=GetNextBlock(pCurBlock)){
 6017              		.loc 1 847 3 is_stmt 1 discriminator 1 view .LVU1554
 6018 2100 D8C09FE5 		ldr	ip, .L395+76
 6019 2104 4F3300E3 		movw	r3, #847
 6020 2108 D4009FE5 		ldr	r0, .L395+80
 6021              	.LVL491:
 847:/home/hkh/git/eapidk-code-r76-trunk/apps/EeePProg/linux/../EeePDB.c ****   for(;pCurBlock!=NULL;pCurBlock=GetNextBlock(pCurBlock)){
 6022              		.loc 1 847 3 is_stmt 0 discriminator 1 view .LVU1555
 6023 210c D4209FE5 		ldr	r2, .L395+84
 6024 2110 D4109FE5 		ldr	r1, .L395+88
 6025              	.LPIC320:
 6026 2114 0CC08FE0 		add	ip, pc, ip
 6027              	.LPIC321:
ARM GAS  /tmp/ccTXisr2.s 			page 147


 6028 2118 00008FE0 		add	r0, pc, r0
 6029 211c 00608DE5 		str	r6, [sp]
 6030 2120 01108DE9 		stmib	sp, {r0, ip}
 6031              	.LPIC318:
 6032 2124 02208FE0 		add	r2, pc, r2
 6033              	.LPIC319:
 6034 2128 01108FE0 		add	r1, pc, r1
 6035 212c 4500A0E3 		mov	r0, #69
 6036 2130 FEFFFFEB 		bl	siFormattedMessage_SC(PLT)
 6037              	.LVL492:
 847:/home/hkh/git/eapidk-code-r76-trunk/apps/EeePProg/linux/../EeePDB.c ****   for(;pCurBlock!=NULL;pCurBlock=GetNextBlock(pCurBlock)){
 6038              		.loc 1 847 3 is_stmt 1 discriminator 1 view .LVU1556
 6039 2134 B0FFFFEA 		b	.L369
 6040              	.LVL493:
 6041              	.L387:
 831:/home/hkh/git/eapidk-code-r76-trunk/apps/EeePProg/linux/../EeePDB.c ****       EeePFindVendorBlock,
 6042              		.loc 1 831 3 discriminator 1 view .LVU1557
 831:/home/hkh/git/eapidk-code-r76-trunk/apps/EeePProg/linux/../EeePDB.c ****       EeePFindVendorBlock,
 6043              		.loc 1 831 3 discriminator 1 view .LVU1558
 6044 2138 B0C09FE5 		ldr	ip, .L395+92
 6045 213c 016CE0E3 		mvn	r6, #256
 6046 2140 AC009FE5 		ldr	r0, .L395+96
 6047              	.LVL494:
 831:/home/hkh/git/eapidk-code-r76-trunk/apps/EeePProg/linux/../EeePDB.c ****       EeePFindVendorBlock,
 6048              		.loc 1 831 3 is_stmt 0 discriminator 1 view .LVU1559
 6049 2144 3F3300E3 		movw	r3, #831
 6050 2148 A8209FE5 		ldr	r2, .L395+100
 6051 214c A8109FE5 		ldr	r1, .L395+104
 6052              	.LVL495:
 831:/home/hkh/git/eapidk-code-r76-trunk/apps/EeePProg/linux/../EeePDB.c ****       EeePFindVendorBlock,
 6053              		.loc 1 831 3 discriminator 1 view .LVU1560
 6054              	.LPIC304:
 6055 2150 0CC08FE0 		add	ip, pc, ip
 6056              	.LPIC305:
 6057 2154 00008FE0 		add	r0, pc, r0
 6058              	.LPIC302:
 6059 2158 02208FE0 		add	r2, pc, r2
 6060              	.LPIC303:
 6061 215c 01108FE0 		add	r1, pc, r1
 6062 2160 A1FFFFEA 		b	.L386
 6063              	.LVL496:
 6064              	.L388:
 836:/home/hkh/git/eapidk-code-r76-trunk/apps/EeePProg/linux/../EeePDB.c ****       EeePFindVendorBlock,
 6065              		.loc 1 836 3 is_stmt 1 discriminator 1 view .LVU1561
 836:/home/hkh/git/eapidk-code-r76-trunk/apps/EeePProg/linux/../EeePDB.c ****       EeePFindVendorBlock,
 6066              		.loc 1 836 3 discriminator 1 view .LVU1562
 6067 2164 94C09FE5 		ldr	ip, .L395+108
 6068 2168 016CE0E3 		mvn	r6, #256
 6069 216c 90009FE5 		ldr	r0, .L395+112
 6070              	.LVL497:
 836:/home/hkh/git/eapidk-code-r76-trunk/apps/EeePProg/linux/../EeePDB.c ****       EeePFindVendorBlock,
 6071              		.loc 1 836 3 is_stmt 0 discriminator 1 view .LVU1563
 6072 2170 D13FA0E3 		mov	r3, #836
 6073 2174 8C209FE5 		ldr	r2, .L395+116
 6074 2178 8C109FE5 		ldr	r1, .L395+120
 6075              	.LVL498:
 836:/home/hkh/git/eapidk-code-r76-trunk/apps/EeePProg/linux/../EeePDB.c ****       EeePFindVendorBlock,
ARM GAS  /tmp/ccTXisr2.s 			page 148


 6076              		.loc 1 836 3 discriminator 1 view .LVU1564
 6077              	.LPIC308:
 6078 217c 0CC08FE0 		add	ip, pc, ip
 6079              	.LPIC309:
 6080 2180 00008FE0 		add	r0, pc, r0
 6081              	.LPIC306:
 6082 2184 02208FE0 		add	r2, pc, r2
 6083              	.LPIC307:
 6084 2188 01108FE0 		add	r1, pc, r1
 6085 218c 96FFFFEA 		b	.L386
 6086              	.LVL499:
 6087              	.L394:
 6088              		.loc 1 873 1 view .LVU1565
 6089 2190 FEFFFFEB 		bl	__stack_chk_fail(PLT)
 6090              	.LVL500:
 6091              	.L396:
 6092              		.align	2
 6093              	.L395:
 6094 2194 78020000 		.word	_GLOBAL_OFFSET_TABLE_-(.LPIC331+8)
 6095 2198 00000000 		.word	__stack_chk_guard(GOT)
 6096 219c B8010000 		.word	.LC34-(.LPIC324+8)
 6097 21a0 B8010000 		.word	.LC5-(.LPIC325+8)
 6098 21a4 B8010000 		.word	.LC62-(.LPIC322+8)
 6099 21a8 B8010000 		.word	.LC3-(.LPIC323+8)
 6100 21ac A0010000 		.word	_GLOBAL_OFFSET_TABLE_-(.LPIC330+8)
 6101 21b0 4C010000 		.word	.LC9-(.LPIC328+8)
 6102 21b4 4C010000 		.word	.LC5-(.LPIC329+8)
 6103 21b8 44010000 		.word	.LC8-(.LPIC326+8)
 6104 21bc 44010000 		.word	.LC3-(.LPIC327+8)
 6105 21c0 14010000 		.word	.LC61-(.LPIC316+8)
 6106 21c4 14010000 		.word	.LC5-(.LPIC317+8)
 6107 21c8 14010000 		.word	.LC62-(.LPIC314+8)
 6108 21cc 14010000 		.word	.LC3-(.LPIC315+8)
 6109 21d0 DC000000 		.word	.LC60-(.LPIC312+8)
 6110 21d4 DC000000 		.word	.LC5-(.LPIC313+8)
 6111 21d8 DC000000 		.word	.LC62-(.LPIC310+8)
 6112 21dc DC000000 		.word	.LC3-(.LPIC311+8)
 6113 21e0 C4000000 		.word	.LC33-(.LPIC320+8)
 6114 21e4 C4000000 		.word	.LC5-(.LPIC321+8)
 6115 21e8 BC000000 		.word	.LC25-(.LPIC318+8)
 6116 21ec BC000000 		.word	.LC3-(.LPIC319+8)
 6117 21f0 98000000 		.word	.LC4-(.LPIC304+8)
 6118 21f4 98000000 		.word	.LC5-(.LPIC305+8)
 6119 21f8 98000000 		.word	.LC62-(.LPIC302+8)
 6120 21fc 98000000 		.word	.LC3-(.LPIC303+8)
 6121 2200 7C000000 		.word	.LC59-(.LPIC308+8)
 6122 2204 7C000000 		.word	.LC5-(.LPIC309+8)
 6123 2208 7C000000 		.word	.LC62-(.LPIC306+8)
 6124 220c 7C000000 		.word	.LC3-(.LPIC307+8)
 6125              		.cfi_endproc
 6126              	.LFE19:
 6128              		.section	.rodata.str1.4
 6129              		.align	2
 6130              	.LC63:
 6131 090c 45656550 		.ascii	"EeePFindSmbiosBlock\000"
 6131      46696E64 
 6131      536D6269 
ARM GAS  /tmp/ccTXisr2.s 			page 149


 6131      6F73426C 
 6131      6F636B00 
 6132              		.text
 6133              		.align	2
 6134              		.global	EeePFindSmbiosBlock
 6135              		.syntax unified
 6136              		.arm
 6137              		.fpu vfpv3
 6139              	EeePFindSmbiosBlock:
 6140              	.LVL501:
 6141              	.LFB20:
 874:/home/hkh/git/eapidk-code-r76-trunk/apps/EeePProg/linux/../EeePDB.c **** EApiStatus_t
 875:/home/hkh/git/eapidk-code-r76-trunk/apps/EeePProg/linux/../EeePDB.c **** EeePFindSmbiosBlock(
 876:/home/hkh/git/eapidk-code-r76-trunk/apps/EeePProg/linux/../EeePDB.c ****     __IN  EeePHandel_t   BHandel,
 877:/home/hkh/git/eapidk-code-r76-trunk/apps/EeePProg/linux/../EeePDB.c ****     __IN  SMBIOS_BlockId_t Type,
 878:/home/hkh/git/eapidk-code-r76-trunk/apps/EeePProg/linux/../EeePDB.c ****     __IN  uint16_t       Handle,
 879:/home/hkh/git/eapidk-code-r76-trunk/apps/EeePProg/linux/../EeePDB.c ****     __OUT void         **pvFBlock
 880:/home/hkh/git/eapidk-code-r76-trunk/apps/EeePProg/linux/../EeePDB.c ****     )
 881:/home/hkh/git/eapidk-code-r76-trunk/apps/EeePProg/linux/../EeePDB.c **** {
 6142              		.loc 1 881 1 is_stmt 1 view -0
 6143              		.cfi_startproc
 6144              		@ args = 0, pretend = 0, frame = 16
 6145              		@ frame_needed = 0, uses_anonymous_args = 0
 6146              		.loc 1 881 1 is_stmt 0 view .LVU1567
 6147 2210 F0472DE9 		push	{r4, r5, r6, r7, r8, r9, r10, lr}
 6148              		.cfi_def_cfa_offset 32
 6149              		.cfi_offset 4, -32
 6150              		.cfi_offset 5, -28
 6151              		.cfi_offset 6, -24
 6152              		.cfi_offset 7, -20
 6153              		.cfi_offset 8, -16
 6154              		.cfi_offset 9, -12
 6155              		.cfi_offset 10, -8
 6156              		.cfi_offset 14, -4
 6157 2214 02A0A0E1 		mov	r10, r2
 6158 2218 4C229FE5 		ldr	r2, .L421
 6159              	.LVL502:
 6160              		.loc 1 881 1 view .LVU1568
 6161 221c 0390A0E1 		mov	r9, r3
 882:/home/hkh/git/eapidk-code-r76-trunk/apps/EeePProg/linux/../EeePDB.c ****   DBlockIdHdr_t   *pCurBlock;
 883:/home/hkh/git/eapidk-code-r76-trunk/apps/EeePProg/linux/../EeePDB.c ****   size_t           CurOffset, MaxDeviceLen;
 884:/home/hkh/git/eapidk-code-r76-trunk/apps/EeePProg/linux/../EeePDB.c ****   EApiStatus_t StatusCode=EAPI_STATUS_SUCCESS;
 885:/home/hkh/git/eapidk-code-r76-trunk/apps/EeePProg/linux/../EeePDB.c **** 
 886:/home/hkh/git/eapidk-code-r76-trunk/apps/EeePProg/linux/../EeePDB.c ****   EAPI_APP_ASSERT_PARAMATER_NULL(
 6162              		.loc 1 886 3 view .LVU1569
 6163 2220 005050E2 		subs	r5, r0, #0
 881:/home/hkh/git/eapidk-code-r76-trunk/apps/EeePProg/linux/../EeePDB.c ****   DBlockIdHdr_t   *pCurBlock;
 6164              		.loc 1 881 1 view .LVU1570
 6165 2224 20D04DE2 		sub	sp, sp, #32
 6166              		.cfi_def_cfa_offset 64
 881:/home/hkh/git/eapidk-code-r76-trunk/apps/EeePProg/linux/../EeePDB.c ****   DBlockIdHdr_t   *pCurBlock;
 6167              		.loc 1 881 1 view .LVU1571
 6168 2228 40329FE5 		ldr	r3, .L421+4
 6169              	.LVL503:
 881:/home/hkh/git/eapidk-code-r76-trunk/apps/EeePProg/linux/../EeePDB.c ****   DBlockIdHdr_t   *pCurBlock;
 6170              		.loc 1 881 1 view .LVU1572
 6171              	.LPIC357:
ARM GAS  /tmp/ccTXisr2.s 			page 150


 6172 222c 02208FE0 		add	r2, pc, r2
 6173 2230 033092E7 		ldr	r3, [r2, r3]
 6174 2234 003093E5 		ldr	r3, [r3]
 6175 2238 1C308DE5 		str	r3, [sp, #28]
 6176 223c 0030A0E3 		mov	r3, #0
 882:/home/hkh/git/eapidk-code-r76-trunk/apps/EeePProg/linux/../EeePDB.c ****   DBlockIdHdr_t   *pCurBlock;
 6177              		.loc 1 882 3 is_stmt 1 view .LVU1573
 883:/home/hkh/git/eapidk-code-r76-trunk/apps/EeePProg/linux/../EeePDB.c ****   EApiStatus_t StatusCode=EAPI_STATUS_SUCCESS;
 6178              		.loc 1 883 3 view .LVU1574
 884:/home/hkh/git/eapidk-code-r76-trunk/apps/EeePProg/linux/../EeePDB.c **** 
 6179              		.loc 1 884 3 view .LVU1575
 6180              	.LVL504:
 6181              		.loc 1 886 3 view .LVU1576
 6182 2240 7A00000A 		beq	.L414
 6183              		.loc 1 886 3 discriminator 2 view .LVU1577
 887:/home/hkh/git/eapidk-code-r76-trunk/apps/EeePProg/linux/../EeePDB.c ****       EeePFindSmbiosBlock,
 888:/home/hkh/git/eapidk-code-r76-trunk/apps/EeePProg/linux/../EeePDB.c ****       EAPI_STATUS_INVALID_PARAMETER,
 889:/home/hkh/git/eapidk-code-r76-trunk/apps/EeePProg/linux/../EeePDB.c ****       BHandel
 890:/home/hkh/git/eapidk-code-r76-trunk/apps/EeePProg/linux/../EeePDB.c ****     );
 6184              		.loc 1 890 6 discriminator 2 view .LVU1578
 891:/home/hkh/git/eapidk-code-r76-trunk/apps/EeePProg/linux/../EeePDB.c ****   EAPI_APP_ASSERT_PARAMATER_NULL(
 6185              		.loc 1 891 3 discriminator 2 view .LVU1579
 6186 2244 000059E3 		cmp	r9, #0
 6187 2248 6D00000A 		beq	.L415
 6188              		.loc 1 891 3 discriminator 2 view .LVU1580
 892:/home/hkh/git/eapidk-code-r76-trunk/apps/EeePProg/linux/../EeePDB.c ****       EeePFindSmbiosBlock,
 893:/home/hkh/git/eapidk-code-r76-trunk/apps/EeePProg/linux/../EeePDB.c ****       EAPI_STATUS_INVALID_PARAMETER,
 894:/home/hkh/git/eapidk-code-r76-trunk/apps/EeePProg/linux/../EeePDB.c ****       pvFBlock
 895:/home/hkh/git/eapidk-code-r76-trunk/apps/EeePProg/linux/../EeePDB.c ****     );
 6189              		.loc 1 895 6 discriminator 2 view .LVU1581
 896:/home/hkh/git/eapidk-code-r76-trunk/apps/EeePProg/linux/../EeePDB.c **** 
 897:/home/hkh/git/eapidk-code-r76-trunk/apps/EeePProg/linux/../EeePDB.c ****   DO(EeePGetFirstDB(BHandel, &pCurBlock, &MaxDeviceLen));
 6190              		.loc 1 897 3 discriminator 2 view .LVU1582
 6191              		.loc 1 897 3 discriminator 2 view .LVU1583
 6192 224c 0180A0E1 		mov	r8, r1
 6193 2250 18208DE2 		add	r2, sp, #24
 6194 2254 14108DE2 		add	r1, sp, #20
 6195 2258 FEFFFFEB 		bl	EeePGetFirstDB(PLT)
 6196              	.LVL505:
 6197              		.loc 1 897 3 discriminator 2 view .LVU1584
 6198 225c 007050E2 		subs	r7, r0, #0
 6199 2260 5900001A 		bne	.L401
 898:/home/hkh/git/eapidk-code-r76-trunk/apps/EeePProg/linux/../EeePDB.c ****   for(;pCurBlock!=NULL;pCurBlock=GetNextBlock(pCurBlock)){
 6200              		.loc 1 898 17 view .LVU1585
 6201 2264 14409DE5 		ldr	r4, [sp, #20]
 6202 2268 000054E3 		cmp	r4, #0
 6203 226c 4600000A 		beq	.L407
 899:/home/hkh/git/eapidk-code-r76-trunk/apps/EeePProg/linux/../EeePDB.c ****     CurOffset=EAPI_GET_PTR_OFFSET(pCurBlock, BHandel);
 900:/home/hkh/git/eapidk-code-r76-trunk/apps/EeePProg/linux/../EeePDB.c ****     EAPI_APP_RETURN_ERROR_IF_S(
 6204              		.loc 1 900 5 is_stmt 0 view .LVU1586
 6205 2270 18209DE5 		ldr	r2, [sp, #24]
 899:/home/hkh/git/eapidk-code-r76-trunk/apps/EeePProg/linux/../EeePDB.c ****     CurOffset=EAPI_GET_PTR_OFFSET(pCurBlock, BHandel);
 6206              		.loc 1 899 15 view .LVU1587
 6207 2274 053044E0 		sub	r3, r4, r5
 6208              	.LBB466:
 6209              	.LBB467:
 167:/home/hkh/git/eapidk-code-r76-trunk/apps/EeePProg/linux/../EeePDB.c ****     case EEEP_OFFSET_VALUE_EOL:
ARM GAS  /tmp/ccTXisr2.s 			page 151


 6210              		.loc 1 167 3 view .LVU1588
 6211 2278 FF6F0FE3 		movw	r6, #65535
 6212              	.LBE467:
 6213              	.LBE466:
 899:/home/hkh/git/eapidk-code-r76-trunk/apps/EeePProg/linux/../EeePDB.c ****     CurOffset=EAPI_GET_PTR_OFFSET(pCurBlock, BHandel);
 6214              		.loc 1 899 5 is_stmt 1 view .LVU1589
 6215              	.LVL506:
 6216              		.loc 1 900 5 view .LVU1590
 6217 227c 030052E1 		cmp	r2, r3
 6218 2280 1200003A 		bcc	.L416
 6219              	.LVL507:
 6220              	.L403:
 6221              		.loc 1 900 5 discriminator 2 view .LVU1591
 901:/home/hkh/git/eapidk-code-r76-trunk/apps/EeePProg/linux/../EeePDB.c ****       EeePFindSmbiosBlock    ,
 902:/home/hkh/git/eapidk-code-r76-trunk/apps/EeePProg/linux/../EeePDB.c ****       (CurOffset>MaxDeviceLen),
 903:/home/hkh/git/eapidk-code-r76-trunk/apps/EeePProg/linux/../EeePDB.c ****       EAPI_STATUS_ERROR
 904:/home/hkh/git/eapidk-code-r76-trunk/apps/EeePProg/linux/../EeePDB.c ****       );
 6222              		.loc 1 904 8 discriminator 2 view .LVU1592
 905:/home/hkh/git/eapidk-code-r76-trunk/apps/EeePProg/linux/../EeePDB.c ****     if(pCurBlock->DBlockId==EEEP_BLOCK_ID_SMBIOS&&
 6223              		.loc 1 905 5 discriminator 2 view .LVU1593
 6224              		.loc 1 905 7 is_stmt 0 discriminator 2 view .LVU1594
 6225 2284 0030D4E5 		ldrb	r3, [r4]	@ zero_extendqisi2
 6226              	.LVL508:
 6227              		.loc 1 905 7 discriminator 2 view .LVU1595
 6228 2288 D00053E3 		cmp	r3, #208
 6229 228c 0200001A 		bne	.L404
 6230              		.loc 1 905 49 discriminator 1 view .LVU1596
 6231 2290 0330D4E5 		ldrb	r3, [r4, #3]	@ zero_extendqisi2
 6232 2294 080053E1 		cmp	r3, r8
 6233 2298 2600000A 		beq	.L417
 6234              	.L404:
 6235              	.LVL509:
 6236              	.LBB483:
 6237              	.LBB478:
 161:/home/hkh/git/eapidk-code-r76-trunk/apps/EeePProg/linux/../EeePDB.c ****       GetNextBlock,
 6238              		.loc 1 161 3 is_stmt 1 view .LVU1597
 165:/home/hkh/git/eapidk-code-r76-trunk/apps/EeePProg/linux/../EeePDB.c ****   stBlockLength=GetBlockLength(pCurBlock);
 6239              		.loc 1 165 6 view .LVU1598
 166:/home/hkh/git/eapidk-code-r76-trunk/apps/EeePProg/linux/../EeePDB.c ****   switch(stBlockLength){
 6240              		.loc 1 166 3 view .LVU1599
 6241              	.LBB468:
 6242              	.LBI468:
 144:/home/hkh/git/eapidk-code-r76-trunk/apps/EeePProg/linux/../EeePDB.c ****     const void * pcvBHandel
 6243              		.loc 1 144 1 view .LVU1600
 6244              	.LBB469:
 148:/home/hkh/git/eapidk-code-r76-trunk/apps/EeePProg/linux/../EeePDB.c ****   if(!pcvBHandel) return stBlockSize;
 6245              		.loc 1 148 3 view .LVU1601
 149:/home/hkh/git/eapidk-code-r76-trunk/apps/EeePProg/linux/../EeePDB.c **** 
 6246              		.loc 1 149 3 view .LVU1602
 6247              	.LBB470:
 6248              	.LBI470:
 144:/home/hkh/git/eapidk-code-r76-trunk/apps/EeePProg/linux/../EeePDB.c ****     const void * pcvBHandel
 6249              		.loc 1 144 1 view .LVU1603
 6250              	.LBB471:
 151:/home/hkh/git/eapidk-code-r76-trunk/apps/EeePProg/linux/../EeePDB.c ****   return stBlockSize;
 6251              		.loc 1 151 3 view .LVU1604
 151:/home/hkh/git/eapidk-code-r76-trunk/apps/EeePProg/linux/../EeePDB.c ****   return stBlockSize;
ARM GAS  /tmp/ccTXisr2.s 			page 152


 6252              		.loc 1 151 15 is_stmt 0 view .LVU1605
 6253 229c 010084E2 		add	r0, r4, #1
 6254 22a0 FEFFFFEB 		bl	EeeP_Get16BitValue_BE(PLT)
 6255              	.LVL510:
 151:/home/hkh/git/eapidk-code-r76-trunk/apps/EeePProg/linux/../EeePDB.c ****   return stBlockSize;
 6256              		.loc 1 151 15 view .LVU1606
 6257              	.LBE471:
 6258              	.LBE470:
 6259              	.LBE469:
 6260              	.LBE468:
 167:/home/hkh/git/eapidk-code-r76-trunk/apps/EeePProg/linux/../EeePDB.c ****     case EEEP_OFFSET_VALUE_EOL:
 6261              		.loc 1 167 3 view .LVU1607
 6262 22a4 000050E3 		cmp	r0, #0
 6263              	.LBB475:
 6264              	.LBB474:
 6265              	.LBB473:
 6266              	.LBB472:
 151:/home/hkh/git/eapidk-code-r76-trunk/apps/EeePProg/linux/../EeePDB.c ****   return stBlockSize;
 6267              		.loc 1 151 81 view .LVU1608
 6268 22a8 8030A0E1 		lsl	r3, r0, #1
 6269              	.LVL511:
 152:/home/hkh/git/eapidk-code-r76-trunk/apps/EeePProg/linux/../EeePDB.c **** }
 6270              		.loc 1 152 3 is_stmt 1 view .LVU1609
 152:/home/hkh/git/eapidk-code-r76-trunk/apps/EeePProg/linux/../EeePDB.c **** }
 6271              		.loc 1 152 3 is_stmt 0 view .LVU1610
 6272              	.LBE472:
 6273              	.LBE473:
 6274              	.LBE474:
 6275              	.LBE475:
 167:/home/hkh/git/eapidk-code-r76-trunk/apps/EeePProg/linux/../EeePDB.c ****     case EEEP_OFFSET_VALUE_EOL:
 6276              		.loc 1 167 3 is_stmt 1 view .LVU1611
 6277 22ac 4400000A 		beq	.L418
 6278 22b0 060050E1 		cmp	r0, r6
 6279 22b4 3F00000A 		beq	.L419
 171:/home/hkh/git/eapidk-code-r76-trunk/apps/EeePProg/linux/../EeePDB.c ****     default:
 6280              		.loc 1 171 7 view .LVU1612
 173:/home/hkh/git/eapidk-code-r76-trunk/apps/EeePProg/linux/../EeePDB.c ****           pCurBlock         ,
 6281              		.loc 1 173 7 view .LVU1613
 6282              	.LBE478:
 6283              	.LBE483:
 900:/home/hkh/git/eapidk-code-r76-trunk/apps/EeePProg/linux/../EeePDB.c ****       EeePFindSmbiosBlock    ,
 6284              		.loc 1 900 5 is_stmt 0 view .LVU1614
 6285 22b8 18209DE5 		ldr	r2, [sp, #24]
 6286              	.LBB484:
 6287              	.LBB479:
 173:/home/hkh/git/eapidk-code-r76-trunk/apps/EeePProg/linux/../EeePDB.c ****           pCurBlock         ,
 6288              		.loc 1 173 17 view .LVU1615
 6289 22bc 034084E0 		add	r4, r4, r3
 6290              	.LVL512:
 178:/home/hkh/git/eapidk-code-r76-trunk/apps/EeePProg/linux/../EeePDB.c ****       }
 6291              		.loc 1 178 7 is_stmt 1 view .LVU1616
 6292              	.LDL31:
 6293              	.LDL32:
 182:/home/hkh/git/eapidk-code-r76-trunk/apps/EeePProg/linux/../EeePDB.c **** }
 6294              		.loc 1 182 3 view .LVU1617
 182:/home/hkh/git/eapidk-code-r76-trunk/apps/EeePProg/linux/../EeePDB.c **** }
 6295              		.loc 1 182 3 is_stmt 0 view .LVU1618
ARM GAS  /tmp/ccTXisr2.s 			page 153


 6296              	.LBE479:
 6297              	.LBE484:
 899:/home/hkh/git/eapidk-code-r76-trunk/apps/EeePProg/linux/../EeePDB.c ****     EAPI_APP_RETURN_ERROR_IF_S(
 6298              		.loc 1 899 15 view .LVU1619
 6299 22c0 053044E0 		sub	r3, r4, r5
 6300              	.LVL513:
 898:/home/hkh/git/eapidk-code-r76-trunk/apps/EeePProg/linux/../EeePDB.c ****     CurOffset=EAPI_GET_PTR_OFFSET(pCurBlock, BHandel);
 6301              		.loc 1 898 33 view .LVU1620
 6302 22c4 14408DE5 		str	r4, [sp, #20]
 898:/home/hkh/git/eapidk-code-r76-trunk/apps/EeePProg/linux/../EeePDB.c ****     CurOffset=EAPI_GET_PTR_OFFSET(pCurBlock, BHandel);
 6303              		.loc 1 898 17 is_stmt 1 view .LVU1621
 899:/home/hkh/git/eapidk-code-r76-trunk/apps/EeePProg/linux/../EeePDB.c ****     EAPI_APP_RETURN_ERROR_IF_S(
 6304              		.loc 1 899 5 view .LVU1622
 6305              	.LVL514:
 900:/home/hkh/git/eapidk-code-r76-trunk/apps/EeePProg/linux/../EeePDB.c ****       EeePFindSmbiosBlock    ,
 6306              		.loc 1 900 5 view .LVU1623
 6307 22c8 030052E1 		cmp	r2, r3
 6308 22cc ECFFFF2A 		bcs	.L403
 6309              	.LVL515:
 6310              	.L416:
 900:/home/hkh/git/eapidk-code-r76-trunk/apps/EeePProg/linux/../EeePDB.c ****       EeePFindSmbiosBlock    ,
 6311              		.loc 1 900 5 discriminator 1 view .LVU1624
 900:/home/hkh/git/eapidk-code-r76-trunk/apps/EeePProg/linux/../EeePDB.c ****       EeePFindSmbiosBlock    ,
 6312              		.loc 1 900 5 discriminator 1 view .LVU1625
 6313 22d0 9CC19FE5 		ldr	ip, .L421+8
 6314 22d4 0F7CE0E3 		mvn	r7, #3840
 6315              	.LVL516:
 900:/home/hkh/git/eapidk-code-r76-trunk/apps/EeePProg/linux/../EeePDB.c ****       EeePFindSmbiosBlock    ,
 6316              		.loc 1 900 5 is_stmt 0 discriminator 1 view .LVU1626
 6317 22d8 98019FE5 		ldr	r0, .L421+12
 6318 22dc E13FA0E3 		mov	r3, #900
 6319              	.LVL517:
 900:/home/hkh/git/eapidk-code-r76-trunk/apps/EeePProg/linux/../EeePDB.c ****       EeePFindSmbiosBlock    ,
 6320              		.loc 1 900 5 discriminator 1 view .LVU1627
 6321 22e0 94219FE5 		ldr	r2, .L421+16
 6322 22e4 94119FE5 		ldr	r1, .L421+20
 6323              	.LPIC350:
 6324 22e8 0CC08FE0 		add	ip, pc, ip
 6325              	.LPIC351:
 6326 22ec 00008FE0 		add	r0, pc, r0
 6327              	.LPIC348:
 6328 22f0 02208FE0 		add	r2, pc, r2
 6329              	.LPIC349:
 6330 22f4 01108FE0 		add	r1, pc, r1
 6331              	.L413:
 900:/home/hkh/git/eapidk-code-r76-trunk/apps/EeePProg/linux/../EeePDB.c ****       EeePFindSmbiosBlock    ,
 6332              		.loc 1 900 5 discriminator 1 view .LVU1628
 6333 22f8 01108DE9 		stmib	sp, {r0, ip}
 6334 22fc 4500A0E3 		mov	r0, #69
 6335 2300 00708DE5 		str	r7, [sp]
 6336 2304 FEFFFFEB 		bl	siFormattedMessage_SC(PLT)
 6337              	.LVL518:
 900:/home/hkh/git/eapidk-code-r76-trunk/apps/EeePProg/linux/../EeePDB.c ****       EeePFindSmbiosBlock    ,
 6338              		.loc 1 900 5 is_stmt 1 discriminator 1 view .LVU1629
 900:/home/hkh/git/eapidk-code-r76-trunk/apps/EeePProg/linux/../EeePDB.c ****       EeePFindSmbiosBlock    ,
 6339              		.loc 1 900 5 discriminator 1 view .LVU1630
 900:/home/hkh/git/eapidk-code-r76-trunk/apps/EeePProg/linux/../EeePDB.c ****       EeePFindSmbiosBlock    ,
ARM GAS  /tmp/ccTXisr2.s 			page 154


 6340              		.loc 1 900 5 discriminator 1 view .LVU1631
 6341              	.L397:
 881:/home/hkh/git/eapidk-code-r76-trunk/apps/EeePProg/linux/../EeePDB.c ****   DBlockIdHdr_t   *pCurBlock;
 6342              		.loc 1 881 1 is_stmt 0 view .LVU1632
 6343 2308 74219FE5 		ldr	r2, .L421+24
 906:/home/hkh/git/eapidk-code-r76-trunk/apps/EeePProg/linux/../EeePDB.c ****        ((EeePSmbiosHdr_t*)pCurBlock)->Type==Type&&
 907:/home/hkh/git/eapidk-code-r76-trunk/apps/EeePProg/linux/../EeePDB.c ****        EeeP_Get16BitValue_BE(((EeePSmbiosHdr_t*)pCurBlock)->Handle.b)==Handle
 908:/home/hkh/git/eapidk-code-r76-trunk/apps/EeePProg/linux/../EeePDB.c ****       )
 909:/home/hkh/git/eapidk-code-r76-trunk/apps/EeePProg/linux/../EeePDB.c ****     {
 910:/home/hkh/git/eapidk-code-r76-trunk/apps/EeePProg/linux/../EeePDB.c ****       *pvFBlock=pCurBlock;
 911:/home/hkh/git/eapidk-code-r76-trunk/apps/EeePProg/linux/../EeePDB.c ****       return EAPI_STATUS_SUCCESS;
 912:/home/hkh/git/eapidk-code-r76-trunk/apps/EeePProg/linux/../EeePDB.c ****     }
 913:/home/hkh/git/eapidk-code-r76-trunk/apps/EeePProg/linux/../EeePDB.c ****   }
 914:/home/hkh/git/eapidk-code-r76-trunk/apps/EeePProg/linux/../EeePDB.c ****   EAPI_APP_RETURN_ERROR(
 915:/home/hkh/git/eapidk-code-r76-trunk/apps/EeePProg/linux/../EeePDB.c ****       EeePFindSmbiosBlock,
 916:/home/hkh/git/eapidk-code-r76-trunk/apps/EeePProg/linux/../EeePDB.c ****       EAPI_STATUS_ERROR,
 917:/home/hkh/git/eapidk-code-r76-trunk/apps/EeePProg/linux/../EeePDB.c ****       "Block Not Found"
 918:/home/hkh/git/eapidk-code-r76-trunk/apps/EeePProg/linux/../EeePDB.c ****     );
 919:/home/hkh/git/eapidk-code-r76-trunk/apps/EeePProg/linux/../EeePDB.c **** EAPI_APP_ASSERT_EXIT
 920:/home/hkh/git/eapidk-code-r76-trunk/apps/EeePProg/linux/../EeePDB.c ****   return StatusCode;
 921:/home/hkh/git/eapidk-code-r76-trunk/apps/EeePProg/linux/../EeePDB.c **** }
 6344              		.loc 1 921 1 view .LVU1633
 6345 230c 5C319FE5 		ldr	r3, .L421+4
 881:/home/hkh/git/eapidk-code-r76-trunk/apps/EeePProg/linux/../EeePDB.c ****   DBlockIdHdr_t   *pCurBlock;
 6346              		.loc 1 881 1 view .LVU1634
 6347              	.LPIC356:
 6348 2310 02208FE0 		add	r2, pc, r2
 6349              		.loc 1 921 1 view .LVU1635
 6350 2314 033092E7 		ldr	r3, [r2, r3]
 6351 2318 002093E5 		ldr	r2, [r3]
 6352 231c 1C309DE5 		ldr	r3, [sp, #28]
 6353 2320 022033E0 		eors	r2, r3, r2
 6354 2324 0030A0E3 		mov	r3, #0
 6355 2328 4E00001A 		bne	.L420
 6356 232c 0700A0E1 		mov	r0, r7
 6357 2330 20D08DE2 		add	sp, sp, #32
 6358              		.cfi_remember_state
 6359              		.cfi_def_cfa_offset 32
 6360              		@ sp needed
 6361 2334 F087BDE8 		pop	{r4, r5, r6, r7, r8, r9, r10, pc}
 6362              	.LVL519:
 6363              	.L417:
 6364              		.cfi_restore_state
 907:/home/hkh/git/eapidk-code-r76-trunk/apps/EeePProg/linux/../EeePDB.c ****       )
 6365              		.loc 1 907 8 view .LVU1636
 6366 2338 050084E2 		add	r0, r4, #5
 6367 233c FEFFFFEB 		bl	EeeP_Get16BitValue_BE(PLT)
 6368              	.LVL520:
 906:/home/hkh/git/eapidk-code-r76-trunk/apps/EeePProg/linux/../EeePDB.c ****        ((EeePSmbiosHdr_t*)pCurBlock)->Type==Type&&
 6369              		.loc 1 906 49 view .LVU1637
 6370 2340 0A0050E1 		cmp	r0, r10
 6371 2344 4400000A 		beq	.L405
 910:/home/hkh/git/eapidk-code-r76-trunk/apps/EeePProg/linux/../EeePDB.c ****       return EAPI_STATUS_SUCCESS;
 6372              		.loc 1 910 16 view .LVU1638
 6373 2348 14409DE5 		ldr	r4, [sp, #20]
 898:/home/hkh/git/eapidk-code-r76-trunk/apps/EeePProg/linux/../EeePDB.c ****     CurOffset=EAPI_GET_PTR_OFFSET(pCurBlock, BHandel);
 6374              		.loc 1 898 33 is_stmt 1 view .LVU1639
ARM GAS  /tmp/ccTXisr2.s 			page 155


 6375              	.LVL521:
 6376              	.LBB485:
 6377              	.LBI466:
 155:/home/hkh/git/eapidk-code-r76-trunk/apps/EeePProg/linux/../EeePDB.c ****     DBlockIdHdr_t *pCurBlock
 6378              		.loc 1 155 1 view .LVU1640
 6379              	.LBB480:
 159:/home/hkh/git/eapidk-code-r76-trunk/apps/EeePProg/linux/../EeePDB.c ****   size_t stBlockLength;
 6380              		.loc 1 159 3 view .LVU1641
 160:/home/hkh/git/eapidk-code-r76-trunk/apps/EeePProg/linux/../EeePDB.c ****   EAPI_APP_ASSERT_PARAMATER_NULL(
 6381              		.loc 1 160 3 view .LVU1642
 161:/home/hkh/git/eapidk-code-r76-trunk/apps/EeePProg/linux/../EeePDB.c ****       GetNextBlock,
 6382              		.loc 1 161 3 view .LVU1643
 6383 234c 000054E3 		cmp	r4, #0
 6384 2350 D1FFFF1A 		bne	.L404
 6385              	.LBB476:
 6386              	.LBI476:
 155:/home/hkh/git/eapidk-code-r76-trunk/apps/EeePProg/linux/../EeePDB.c ****     DBlockIdHdr_t *pCurBlock
 6387              		.loc 1 155 1 view .LVU1644
 6388              	.LVL522:
 6389              	.LBB477:
 161:/home/hkh/git/eapidk-code-r76-trunk/apps/EeePProg/linux/../EeePDB.c ****       GetNextBlock,
 6390              		.loc 1 161 3 view .LVU1645
 161:/home/hkh/git/eapidk-code-r76-trunk/apps/EeePProg/linux/../EeePDB.c ****       GetNextBlock,
 6391              		.loc 1 161 3 view .LVU1646
 6392 2354 2CC19FE5 		ldr	ip, .L421+28
 6393 2358 A130A0E3 		mov	r3, #161
 6394 235c 28019FE5 		ldr	r0, .L421+32
 6395 2360 28219FE5 		ldr	r2, .L421+36
 6396 2364 28119FE5 		ldr	r1, .L421+40
 6397              	.LPIC354:
 6398 2368 0CC08FE0 		add	ip, pc, ip
 6399              	.LPIC355:
 6400 236c 00008FE0 		add	r0, pc, r0
 6401 2370 00408DE5 		str	r4, [sp]
 6402 2374 01108DE9 		stmib	sp, {r0, ip}
 6403              	.LPIC352:
 6404 2378 02208FE0 		add	r2, pc, r2
 6405              	.LPIC353:
 6406 237c 01108FE0 		add	r1, pc, r1
 6407 2380 4500A0E3 		mov	r0, #69
 6408 2384 FEFFFFEB 		bl	siFormattedMessage_SC(PLT)
 6409              	.LVL523:
 161:/home/hkh/git/eapidk-code-r76-trunk/apps/EeePProg/linux/../EeePDB.c ****       GetNextBlock,
 6410              		.loc 1 161 3 view .LVU1647
 161:/home/hkh/git/eapidk-code-r76-trunk/apps/EeePProg/linux/../EeePDB.c ****       GetNextBlock,
 6411              		.loc 1 161 3 view .LVU1648
 161:/home/hkh/git/eapidk-code-r76-trunk/apps/EeePProg/linux/../EeePDB.c ****       GetNextBlock,
 6412              		.loc 1 161 3 view .LVU1649
 6413              	.LDL33:
 6414              	.LDL34:
 182:/home/hkh/git/eapidk-code-r76-trunk/apps/EeePProg/linux/../EeePDB.c **** }
 6415              		.loc 1 182 3 view .LVU1650
 182:/home/hkh/git/eapidk-code-r76-trunk/apps/EeePProg/linux/../EeePDB.c **** }
 6416              		.loc 1 182 3 is_stmt 0 view .LVU1651
 6417              	.LBE477:
 6418              	.LBE476:
 182:/home/hkh/git/eapidk-code-r76-trunk/apps/EeePProg/linux/../EeePDB.c **** }
ARM GAS  /tmp/ccTXisr2.s 			page 156


 6419              		.loc 1 182 3 is_stmt 1 view .LVU1652
 182:/home/hkh/git/eapidk-code-r76-trunk/apps/EeePProg/linux/../EeePDB.c **** }
 6420              		.loc 1 182 3 is_stmt 0 view .LVU1653
 6421              	.LBE480:
 6422              	.LBE485:
 898:/home/hkh/git/eapidk-code-r76-trunk/apps/EeePProg/linux/../EeePDB.c ****     CurOffset=EAPI_GET_PTR_OFFSET(pCurBlock, BHandel);
 6423              		.loc 1 898 33 view .LVU1654
 6424 2388 14408DE5 		str	r4, [sp, #20]
 898:/home/hkh/git/eapidk-code-r76-trunk/apps/EeePProg/linux/../EeePDB.c ****     CurOffset=EAPI_GET_PTR_OFFSET(pCurBlock, BHandel);
 6425              		.loc 1 898 17 is_stmt 1 view .LVU1655
 6426              	.L407:
 914:/home/hkh/git/eapidk-code-r76-trunk/apps/EeePProg/linux/../EeePDB.c ****       EeePFindSmbiosBlock,
 6427              		.loc 1 914 3 view .LVU1656
 914:/home/hkh/git/eapidk-code-r76-trunk/apps/EeePProg/linux/../EeePDB.c ****       EeePFindSmbiosBlock,
 6428              		.loc 1 914 3 view .LVU1657
 6429 238c 04C19FE5 		ldr	ip, .L421+44
 6430 2390 0F7CE0E3 		mvn	r7, #3840
 6431              	.LVL524:
 914:/home/hkh/git/eapidk-code-r76-trunk/apps/EeePProg/linux/../EeePDB.c ****       EeePFindSmbiosBlock,
 6432              		.loc 1 914 3 is_stmt 0 view .LVU1658
 6433 2394 00019FE5 		ldr	r0, .L421+48
 6434 2398 923300E3 		movw	r3, #914
 6435 239c FC209FE5 		ldr	r2, .L421+52
 6436 23a0 FC109FE5 		ldr	r1, .L421+56
 6437              	.LPIC342:
 6438 23a4 0CC08FE0 		add	ip, pc, ip
 6439              	.LPIC343:
 6440 23a8 00008FE0 		add	r0, pc, r0
 6441              	.LPIC340:
 6442 23ac 02208FE0 		add	r2, pc, r2
 6443              	.LPIC341:
 6444 23b0 01108FE0 		add	r1, pc, r1
 6445 23b4 CFFFFFEA 		b	.L413
 6446              	.LVL525:
 6447              	.L419:
 6448              	.LBB486:
 6449              	.LBB481:
 182:/home/hkh/git/eapidk-code-r76-trunk/apps/EeePProg/linux/../EeePDB.c **** }
 6450              		.loc 1 182 3 is_stmt 1 view .LVU1659
 182:/home/hkh/git/eapidk-code-r76-trunk/apps/EeePProg/linux/../EeePDB.c **** }
 6451              		.loc 1 182 3 is_stmt 0 view .LVU1660
 6452              	.LBE481:
 6453              	.LBE486:
 898:/home/hkh/git/eapidk-code-r76-trunk/apps/EeePProg/linux/../EeePDB.c ****     CurOffset=EAPI_GET_PTR_OFFSET(pCurBlock, BHandel);
 6454              		.loc 1 898 33 view .LVU1661
 6455 23b8 0030A0E3 		mov	r3, #0
 6456              	.LVL526:
 898:/home/hkh/git/eapidk-code-r76-trunk/apps/EeePProg/linux/../EeePDB.c ****     CurOffset=EAPI_GET_PTR_OFFSET(pCurBlock, BHandel);
 6457              		.loc 1 898 33 view .LVU1662
 6458 23bc 14308DE5 		str	r3, [sp, #20]
 898:/home/hkh/git/eapidk-code-r76-trunk/apps/EeePProg/linux/../EeePDB.c ****     CurOffset=EAPI_GET_PTR_OFFSET(pCurBlock, BHandel);
 6459              		.loc 1 898 17 is_stmt 1 view .LVU1663
 6460 23c0 F1FFFFEA 		b	.L407
 6461              	.LVL527:
 6462              	.L418:
 6463              	.LBB487:
 6464              	.LBB482:
ARM GAS  /tmp/ccTXisr2.s 			page 157


 182:/home/hkh/git/eapidk-code-r76-trunk/apps/EeePProg/linux/../EeePDB.c **** }
 6465              		.loc 1 182 3 view .LVU1664
 182:/home/hkh/git/eapidk-code-r76-trunk/apps/EeePProg/linux/../EeePDB.c **** }
 6466              		.loc 1 182 3 is_stmt 0 view .LVU1665
 6467              	.LBE482:
 6468              	.LBE487:
 898:/home/hkh/git/eapidk-code-r76-trunk/apps/EeePProg/linux/../EeePDB.c ****     CurOffset=EAPI_GET_PTR_OFFSET(pCurBlock, BHandel);
 6469              		.loc 1 898 33 view .LVU1666
 6470 23c4 14008DE5 		str	r0, [sp, #20]
 898:/home/hkh/git/eapidk-code-r76-trunk/apps/EeePProg/linux/../EeePDB.c ****     CurOffset=EAPI_GET_PTR_OFFSET(pCurBlock, BHandel);
 6471              		.loc 1 898 17 is_stmt 1 view .LVU1667
 6472 23c8 EFFFFFEA 		b	.L407
 6473              	.LVL528:
 6474              	.L401:
 897:/home/hkh/git/eapidk-code-r76-trunk/apps/EeePProg/linux/../EeePDB.c ****   for(;pCurBlock!=NULL;pCurBlock=GetNextBlock(pCurBlock)){
 6475              		.loc 1 897 3 discriminator 1 view .LVU1668
 6476 23cc D4C09FE5 		ldr	ip, .L421+60
 6477 23d0 813300E3 		movw	r3, #897
 6478 23d4 D0009FE5 		ldr	r0, .L421+64
 6479              	.LVL529:
 897:/home/hkh/git/eapidk-code-r76-trunk/apps/EeePProg/linux/../EeePDB.c ****   for(;pCurBlock!=NULL;pCurBlock=GetNextBlock(pCurBlock)){
 6480              		.loc 1 897 3 is_stmt 0 discriminator 1 view .LVU1669
 6481 23d8 D0209FE5 		ldr	r2, .L421+68
 6482 23dc D0109FE5 		ldr	r1, .L421+72
 6483              	.LPIC346:
 6484 23e0 0CC08FE0 		add	ip, pc, ip
 6485              	.LPIC347:
 6486 23e4 00008FE0 		add	r0, pc, r0
 6487 23e8 00708DE5 		str	r7, [sp]
 6488 23ec 01108DE9 		stmib	sp, {r0, ip}
 6489              	.LPIC344:
 6490 23f0 02208FE0 		add	r2, pc, r2
 6491              	.LPIC345:
 6492 23f4 01108FE0 		add	r1, pc, r1
 6493 23f8 4500A0E3 		mov	r0, #69
 6494 23fc FEFFFFEB 		bl	siFormattedMessage_SC(PLT)
 6495              	.LVL530:
 897:/home/hkh/git/eapidk-code-r76-trunk/apps/EeePProg/linux/../EeePDB.c ****   for(;pCurBlock!=NULL;pCurBlock=GetNextBlock(pCurBlock)){
 6496              		.loc 1 897 3 is_stmt 1 discriminator 1 view .LVU1670
 6497 2400 C0FFFFEA 		b	.L397
 6498              	.LVL531:
 6499              	.L415:
 891:/home/hkh/git/eapidk-code-r76-trunk/apps/EeePProg/linux/../EeePDB.c ****       EeePFindSmbiosBlock,
 6500              		.loc 1 891 3 discriminator 1 view .LVU1671
 891:/home/hkh/git/eapidk-code-r76-trunk/apps/EeePProg/linux/../EeePDB.c ****       EeePFindSmbiosBlock,
 6501              		.loc 1 891 3 discriminator 1 view .LVU1672
 6502 2404 ACC09FE5 		ldr	ip, .L421+76
 6503 2408 017CE0E3 		mvn	r7, #256
 6504 240c A8009FE5 		ldr	r0, .L421+80
 6505              	.LVL532:
 891:/home/hkh/git/eapidk-code-r76-trunk/apps/EeePProg/linux/../EeePDB.c ****       EeePFindSmbiosBlock,
 6506              		.loc 1 891 3 is_stmt 0 discriminator 1 view .LVU1673
 6507 2410 7B3300E3 		movw	r3, #891
 6508 2414 A4209FE5 		ldr	r2, .L421+84
 6509 2418 A4109FE5 		ldr	r1, .L421+88
 6510              	.LVL533:
 891:/home/hkh/git/eapidk-code-r76-trunk/apps/EeePProg/linux/../EeePDB.c ****       EeePFindSmbiosBlock,
ARM GAS  /tmp/ccTXisr2.s 			page 158


 6511              		.loc 1 891 3 discriminator 1 view .LVU1674
 6512              	.LPIC338:
 6513 241c 0CC08FE0 		add	ip, pc, ip
 6514              	.LPIC339:
 6515 2420 00008FE0 		add	r0, pc, r0
 6516              	.LPIC336:
 6517 2424 02208FE0 		add	r2, pc, r2
 6518              	.LPIC337:
 6519 2428 01108FE0 		add	r1, pc, r1
 6520 242c B1FFFFEA 		b	.L413
 6521              	.LVL534:
 6522              	.L414:
 886:/home/hkh/git/eapidk-code-r76-trunk/apps/EeePProg/linux/../EeePDB.c ****       EeePFindSmbiosBlock,
 6523              		.loc 1 886 3 is_stmt 1 discriminator 1 view .LVU1675
 886:/home/hkh/git/eapidk-code-r76-trunk/apps/EeePProg/linux/../EeePDB.c ****       EeePFindSmbiosBlock,
 6524              		.loc 1 886 3 discriminator 1 view .LVU1676
 6525 2430 90C09FE5 		ldr	ip, .L421+92
 6526 2434 017CE0E3 		mvn	r7, #256
 6527 2438 8C009FE5 		ldr	r0, .L421+96
 6528              	.LVL535:
 886:/home/hkh/git/eapidk-code-r76-trunk/apps/EeePProg/linux/../EeePDB.c ****       EeePFindSmbiosBlock,
 6529              		.loc 1 886 3 is_stmt 0 discriminator 1 view .LVU1677
 6530 243c 763300E3 		movw	r3, #886
 6531 2440 88209FE5 		ldr	r2, .L421+100
 6532 2444 88109FE5 		ldr	r1, .L421+104
 6533              	.LVL536:
 886:/home/hkh/git/eapidk-code-r76-trunk/apps/EeePProg/linux/../EeePDB.c ****       EeePFindSmbiosBlock,
 6534              		.loc 1 886 3 discriminator 1 view .LVU1678
 6535              	.LPIC334:
 6536 2448 0CC08FE0 		add	ip, pc, ip
 6537              	.LPIC335:
 6538 244c 00008FE0 		add	r0, pc, r0
 6539              	.LPIC332:
 6540 2450 02208FE0 		add	r2, pc, r2
 6541              	.LPIC333:
 6542 2454 01108FE0 		add	r1, pc, r1
 6543 2458 A6FFFFEA 		b	.L413
 6544              	.LVL537:
 6545              	.L405:
 910:/home/hkh/git/eapidk-code-r76-trunk/apps/EeePProg/linux/../EeePDB.c ****       return EAPI_STATUS_SUCCESS;
 6546              		.loc 1 910 7 is_stmt 1 view .LVU1679
 910:/home/hkh/git/eapidk-code-r76-trunk/apps/EeePProg/linux/../EeePDB.c ****       return EAPI_STATUS_SUCCESS;
 6547              		.loc 1 910 16 is_stmt 0 view .LVU1680
 6548 245c 14309DE5 		ldr	r3, [sp, #20]
 6549 2460 003089E5 		str	r3, [r9]
 911:/home/hkh/git/eapidk-code-r76-trunk/apps/EeePProg/linux/../EeePDB.c ****     }
 6550              		.loc 1 911 7 is_stmt 1 view .LVU1681
 911:/home/hkh/git/eapidk-code-r76-trunk/apps/EeePProg/linux/../EeePDB.c ****     }
 6551              		.loc 1 911 14 is_stmt 0 view .LVU1682
 6552 2464 A7FFFFEA 		b	.L397
 6553              	.LVL538:
 6554              	.L420:
 6555              		.loc 1 921 1 view .LVU1683
 6556 2468 FEFFFFEB 		bl	__stack_chk_fail(PLT)
 6557              	.LVL539:
 6558              	.L422:
 6559              		.align	2
ARM GAS  /tmp/ccTXisr2.s 			page 159


 6560              	.L421:
 6561 246c 38020000 		.word	_GLOBAL_OFFSET_TABLE_-(.LPIC357+8)
 6562 2470 00000000 		.word	__stack_chk_guard(GOT)
 6563 2474 84010000 		.word	.LC34-(.LPIC350+8)
 6564 2478 84010000 		.word	.LC5-(.LPIC351+8)
 6565 247c 84010000 		.word	.LC63-(.LPIC348+8)
 6566 2480 84010000 		.word	.LC3-(.LPIC349+8)
 6567 2484 6C010000 		.word	_GLOBAL_OFFSET_TABLE_-(.LPIC356+8)
 6568 2488 18010000 		.word	.LC9-(.LPIC354+8)
 6569 248c 18010000 		.word	.LC5-(.LPIC355+8)
 6570 2490 10010000 		.word	.LC8-(.LPIC352+8)
 6571 2494 10010000 		.word	.LC3-(.LPIC353+8)
 6572 2498 EC000000 		.word	.LC61-(.LPIC342+8)
 6573 249c EC000000 		.word	.LC5-(.LPIC343+8)
 6574 24a0 EC000000 		.word	.LC63-(.LPIC340+8)
 6575 24a4 EC000000 		.word	.LC3-(.LPIC341+8)
 6576 24a8 C0000000 		.word	.LC33-(.LPIC346+8)
 6577 24ac C0000000 		.word	.LC5-(.LPIC347+8)
 6578 24b0 B8000000 		.word	.LC25-(.LPIC344+8)
 6579 24b4 B8000000 		.word	.LC3-(.LPIC345+8)
 6580 24b8 94000000 		.word	.LC59-(.LPIC338+8)
 6581 24bc 94000000 		.word	.LC5-(.LPIC339+8)
 6582 24c0 94000000 		.word	.LC63-(.LPIC336+8)
 6583 24c4 94000000 		.word	.LC3-(.LPIC337+8)
 6584 24c8 78000000 		.word	.LC4-(.LPIC334+8)
 6585 24cc 78000000 		.word	.LC5-(.LPIC335+8)
 6586 24d0 78000000 		.word	.LC63-(.LPIC332+8)
 6587 24d4 78000000 		.word	.LC3-(.LPIC333+8)
 6588              		.cfi_endproc
 6589              	.LFE20:
 6591              		.section	.rodata.str1.4
 6592              		.align	2
 6593              	.LC64:
 6594 0920 45656550 		.ascii	"EeePWriteBufferToFile\000"
 6594      57726974 
 6594      65427566 
 6594      66657254 
 6594      6F46696C 
 6595 0936 0000     		.align	2
 6596              	.LC65:
 6597 0938 2870737A 		.ascii	"(pszFilename==NULL)\000"
 6597      46696C65 
 6597      6E616D65 
 6597      3D3D4E55 
 6597      4C4C2900 
 6598              		.text
 6599              		.align	2
 6600              		.global	EeePWriteBufferToFile
 6601              		.syntax unified
 6602              		.arm
 6603              		.fpu vfpv3
 6605              	EeePWriteBufferToFile:
 6606              	.LVL540:
 6607              	.LFB21:
 922:/home/hkh/git/eapidk-code-r76-trunk/apps/EeePProg/linux/../EeePDB.c **** 
 923:/home/hkh/git/eapidk-code-r76-trunk/apps/EeePProg/linux/../EeePDB.c **** 
 924:/home/hkh/git/eapidk-code-r76-trunk/apps/EeePProg/linux/../EeePDB.c **** EApiStatus_t
ARM GAS  /tmp/ccTXisr2.s 			page 160


 925:/home/hkh/git/eapidk-code-r76-trunk/apps/EeePProg/linux/../EeePDB.c **** EeePWriteBufferToFile(
 926:/home/hkh/git/eapidk-code-r76-trunk/apps/EeePProg/linux/../EeePDB.c ****     __IN  EeePHandel_t   BHandel,
 927:/home/hkh/git/eapidk-code-r76-trunk/apps/EeePProg/linux/../EeePDB.c ****     __IN  char          *pszFilename
 928:/home/hkh/git/eapidk-code-r76-trunk/apps/EeePProg/linux/../EeePDB.c ****     )
 929:/home/hkh/git/eapidk-code-r76-trunk/apps/EeePProg/linux/../EeePDB.c **** {
 6608              		.loc 1 929 1 is_stmt 1 view -0
 6609              		.cfi_startproc
 6610              		@ args = 0, pretend = 0, frame = 0
 6611              		@ frame_needed = 0, uses_anonymous_args = 0
 930:/home/hkh/git/eapidk-code-r76-trunk/apps/EeePProg/linux/../EeePDB.c ****   EApiStatus_t StatusCode=EAPI_STATUS_SUCCESS;
 6612              		.loc 1 930 3 view .LVU1685
 931:/home/hkh/git/eapidk-code-r76-trunk/apps/EeePProg/linux/../EeePDB.c ****   EAPI_APP_ASSERT_PARAMATER_NULL(
 6613              		.loc 1 931 3 view .LVU1686
 6614 24d8 003050E2 		subs	r3, r0, #0
 929:/home/hkh/git/eapidk-code-r76-trunk/apps/EeePProg/linux/../EeePDB.c ****   EApiStatus_t StatusCode=EAPI_STATUS_SUCCESS;
 6615              		.loc 1 929 1 is_stmt 0 view .LVU1687
 6616 24dc 10402DE9 		push	{r4, lr}
 6617              		.cfi_def_cfa_offset 8
 6618              		.cfi_offset 4, -8
 6619              		.cfi_offset 14, -4
 6620 24e0 10D04DE2 		sub	sp, sp, #16
 6621              		.cfi_def_cfa_offset 24
 6622              		.loc 1 931 3 view .LVU1688
 6623 24e4 2100000A 		beq	.L432
 932:/home/hkh/git/eapidk-code-r76-trunk/apps/EeePProg/linux/../EeePDB.c ****       EeePWriteBufferToFile,
 933:/home/hkh/git/eapidk-code-r76-trunk/apps/EeePProg/linux/../EeePDB.c ****       EAPI_STATUS_INVALID_PARAMETER,
 934:/home/hkh/git/eapidk-code-r76-trunk/apps/EeePProg/linux/../EeePDB.c ****       BHandel
 935:/home/hkh/git/eapidk-code-r76-trunk/apps/EeePProg/linux/../EeePDB.c ****     );
 936:/home/hkh/git/eapidk-code-r76-trunk/apps/EeePProg/linux/../EeePDB.c ****   EAPI_APP_ASSERT_PARAMATER_NULL(
 6624              		.loc 1 936 3 discriminator 2 view .LVU1689
 6625 24e8 000051E3 		cmp	r1, #0
 6626 24ec 0100A0E1 		mov	r0, r1
 6627              	.LVL541:
 931:/home/hkh/git/eapidk-code-r76-trunk/apps/EeePProg/linux/../EeePDB.c ****       EeePWriteBufferToFile,
 6628              		.loc 1 931 3 is_stmt 1 discriminator 2 view .LVU1690
 935:/home/hkh/git/eapidk-code-r76-trunk/apps/EeePProg/linux/../EeePDB.c ****   EAPI_APP_ASSERT_PARAMATER_NULL(
 6629              		.loc 1 935 6 discriminator 2 view .LVU1691
 6630              		.loc 1 936 3 discriminator 2 view .LVU1692
 6631 24f0 2900000A 		beq	.L433
 6632              		.loc 1 936 3 discriminator 2 view .LVU1693
 937:/home/hkh/git/eapidk-code-r76-trunk/apps/EeePProg/linux/../EeePDB.c ****       EeePWriteBufferToFile,
 938:/home/hkh/git/eapidk-code-r76-trunk/apps/EeePProg/linux/../EeePDB.c ****       EAPI_STATUS_INVALID_PARAMETER,
 939:/home/hkh/git/eapidk-code-r76-trunk/apps/EeePProg/linux/../EeePDB.c ****       pszFilename
 940:/home/hkh/git/eapidk-code-r76-trunk/apps/EeePProg/linux/../EeePDB.c ****     );
 6633              		.loc 1 940 6 discriminator 2 view .LVU1694
 941:/home/hkh/git/eapidk-code-r76-trunk/apps/EeePProg/linux/../EeePDB.c ****   EAPI_APP_RETURN_ERROR_IF(
 6634              		.loc 1 941 3 discriminator 2 view .LVU1695
 6635 24f4 0120D3E5 		ldrb	r2, [r3, #1]	@ zero_extendqisi2
 6636 24f8 330052E3 		cmp	r2, #51
 6637 24fc 1000000A 		beq	.L434
 6638              	.L427:
 6639              		.loc 1 941 3 discriminator 2 view .LVU1696
 6640              		.loc 1 941 3 discriminator 2 view .LVU1697
 6641 2500 C0C09FE5 		ldr	ip, .L435
 6642 2504 0F4CE0E3 		mvn	r4, #3840
 6643 2508 BC009FE5 		ldr	r0, .L435+4
 6644 250c AD3300E3 		movw	r3, #941
ARM GAS  /tmp/ccTXisr2.s 			page 161


 6645              	.LVL542:
 6646              		.loc 1 941 3 is_stmt 0 discriminator 2 view .LVU1698
 6647 2510 B8209FE5 		ldr	r2, .L435+8
 6648 2514 B8109FE5 		ldr	r1, .L435+12
 6649              	.LVL543:
 6650              		.loc 1 941 3 discriminator 2 view .LVU1699
 6651              	.LPIC369:
 6652 2518 0CC08FE0 		add	ip, pc, ip
 6653              	.LPIC370:
 6654 251c 00008FE0 		add	r0, pc, r0
 6655              	.LPIC367:
 6656 2520 02208FE0 		add	r2, pc, r2
 6657              	.LPIC368:
 6658 2524 01108FE0 		add	r1, pc, r1
 6659              	.L431:
 6660              	.L425:
 6661 2528 01108DE9 		stmib	sp, {r0, ip}
 6662 252c 4500A0E3 		mov	r0, #69
 6663 2530 00408DE5 		str	r4, [sp]
 6664 2534 FEFFFFEB 		bl	siFormattedMessage_SC(PLT)
 6665              	.LVL544:
 6666              		.loc 1 941 3 is_stmt 1 discriminator 2 view .LVU1700
 6667              		.loc 1 941 3 discriminator 2 view .LVU1701
 6668              		.loc 1 941 3 discriminator 2 view .LVU1702
 942:/home/hkh/git/eapidk-code-r76-trunk/apps/EeePProg/linux/../EeePDB.c ****       EeePWriteBufferToFile,
 943:/home/hkh/git/eapidk-code-r76-trunk/apps/EeePProg/linux/../EeePDB.c ****       memcmp(
 944:/home/hkh/git/eapidk-code-r76-trunk/apps/EeePProg/linux/../EeePDB.c ****           ((EeePCmn_t*)BHandel)->EepId, 
 945:/home/hkh/git/eapidk-code-r76-trunk/apps/EeePProg/linux/../EeePDB.c ****           EEEP_EEPROM_MARKER, 
 946:/home/hkh/git/eapidk-code-r76-trunk/apps/EeePProg/linux/../EeePDB.c ****           sizeof(EEEP_EEPROM_MARKER)-1
 947:/home/hkh/git/eapidk-code-r76-trunk/apps/EeePProg/linux/../EeePDB.c ****         ),
 948:/home/hkh/git/eapidk-code-r76-trunk/apps/EeePProg/linux/../EeePDB.c ****       EAPI_STATUS_ERROR,
 949:/home/hkh/git/eapidk-code-r76-trunk/apps/EeePProg/linux/../EeePDB.c ****       "Invalid EeeP Buffer"
 950:/home/hkh/git/eapidk-code-r76-trunk/apps/EeePProg/linux/../EeePDB.c ****     );
 951:/home/hkh/git/eapidk-code-r76-trunk/apps/EeePProg/linux/../EeePDB.c **** 
 952:/home/hkh/git/eapidk-code-r76-trunk/apps/EeePProg/linux/../EeePDB.c ****   StatusCode=WriteBinaryFile(
 953:/home/hkh/git/eapidk-code-r76-trunk/apps/EeePProg/linux/../EeePDB.c ****           pszFilename, 
 954:/home/hkh/git/eapidk-code-r76-trunk/apps/EeePProg/linux/../EeePDB.c ****           BHandel, 
 955:/home/hkh/git/eapidk-code-r76-trunk/apps/EeePProg/linux/../EeePDB.c ****           256<<(((EeePCmn_t*)BHandel)->DeviceDesc&EEEP_DEVICE_SIZE_MASK)
 956:/home/hkh/git/eapidk-code-r76-trunk/apps/EeePProg/linux/../EeePDB.c ****       );
 957:/home/hkh/git/eapidk-code-r76-trunk/apps/EeePProg/linux/../EeePDB.c **** EAPI_APP_ASSERT_EXIT
 958:/home/hkh/git/eapidk-code-r76-trunk/apps/EeePProg/linux/../EeePDB.c ****   return StatusCode;
 959:/home/hkh/git/eapidk-code-r76-trunk/apps/EeePProg/linux/../EeePDB.c **** }
 6669              		.loc 1 959 1 is_stmt 0 discriminator 2 view .LVU1703
 6670 2538 0400A0E1 		mov	r0, r4
 6671 253c 10D08DE2 		add	sp, sp, #16
 6672              		.cfi_remember_state
 6673              		.cfi_def_cfa_offset 8
 6674              		@ sp needed
 6675 2540 1080BDE8 		pop	{r4, pc}
 6676              	.LVL545:
 6677              	.L434:
 6678              		.cfi_restore_state
 941:/home/hkh/git/eapidk-code-r76-trunk/apps/EeePProg/linux/../EeePDB.c ****   EAPI_APP_RETURN_ERROR_IF(
 6679              		.loc 1 941 3 discriminator 2 view .LVU1704
 6680 2544 0220D3E5 		ldrb	r2, [r3, #2]	@ zero_extendqisi2
 6681 2548 500052E3 		cmp	r2, #80
 6682 254c EBFFFF1A 		bne	.L427
ARM GAS  /tmp/ccTXisr2.s 			page 162


 941:/home/hkh/git/eapidk-code-r76-trunk/apps/EeePProg/linux/../EeePDB.c ****   EAPI_APP_RETURN_ERROR_IF(
 6683              		.loc 1 941 3 is_stmt 1 discriminator 2 view .LVU1705
 950:/home/hkh/git/eapidk-code-r76-trunk/apps/EeePProg/linux/../EeePDB.c **** 
 6684              		.loc 1 950 6 discriminator 2 view .LVU1706
 952:/home/hkh/git/eapidk-code-r76-trunk/apps/EeePProg/linux/../EeePDB.c ****           pszFilename, 
 6685              		.loc 1 952 3 discriminator 2 view .LVU1707
 955:/home/hkh/git/eapidk-code-r76-trunk/apps/EeePProg/linux/../EeePDB.c ****       );
 6686              		.loc 1 955 50 is_stmt 0 discriminator 2 view .LVU1708
 6687 2550 05C0D3E5 		ldrb	ip, [r3, #5]	@ zero_extendqisi2
 955:/home/hkh/git/eapidk-code-r76-trunk/apps/EeePProg/linux/../EeePDB.c ****       );
 6688              		.loc 1 955 14 discriminator 2 view .LVU1709
 6689 2554 012CA0E3 		mov	r2, #256
 952:/home/hkh/git/eapidk-code-r76-trunk/apps/EeePProg/linux/../EeePDB.c ****           pszFilename, 
 6690              		.loc 1 952 14 discriminator 2 view .LVU1710
 6691 2558 0310A0E1 		mov	r1, r3
 955:/home/hkh/git/eapidk-code-r76-trunk/apps/EeePProg/linux/../EeePDB.c ****       );
 6692              		.loc 1 955 50 discriminator 2 view .LVU1711
 6693 255c 0FC00CE2 		and	ip, ip, #15
 952:/home/hkh/git/eapidk-code-r76-trunk/apps/EeePProg/linux/../EeePDB.c ****           pszFilename, 
 6694              		.loc 1 952 14 discriminator 2 view .LVU1712
 6695 2560 122CA0E1 		lsl	r2, r2, ip
 6696              		.loc 1 959 1 discriminator 2 view .LVU1713
 6697 2564 10D08DE2 		add	sp, sp, #16
 6698              		.cfi_remember_state
 6699              		.cfi_def_cfa_offset 8
 6700              		@ sp needed
 6701 2568 1040BDE8 		pop	{r4, lr}
 6702              		.cfi_restore 14
 6703              		.cfi_restore 4
 6704              		.cfi_def_cfa_offset 0
 952:/home/hkh/git/eapidk-code-r76-trunk/apps/EeePProg/linux/../EeePDB.c ****           pszFilename, 
 6705              		.loc 1 952 14 discriminator 2 view .LVU1714
 6706 256c FEFFFFEA 		b	WriteBinaryFile(PLT)
 6707              	.LVL546:
 6708              	.L432:
 6709              		.cfi_restore_state
 931:/home/hkh/git/eapidk-code-r76-trunk/apps/EeePProg/linux/../EeePDB.c ****       EeePWriteBufferToFile,
 6710              		.loc 1 931 3 is_stmt 1 discriminator 1 view .LVU1715
 931:/home/hkh/git/eapidk-code-r76-trunk/apps/EeePProg/linux/../EeePDB.c ****       EeePWriteBufferToFile,
 6711              		.loc 1 931 3 discriminator 1 view .LVU1716
 6712 2570 60C09FE5 		ldr	ip, .L435+16
 6713 2574 014CE0E3 		mvn	r4, #256
 6714 2578 5C009FE5 		ldr	r0, .L435+20
 6715              	.LVL547:
 931:/home/hkh/git/eapidk-code-r76-trunk/apps/EeePProg/linux/../EeePDB.c ****       EeePWriteBufferToFile,
 6716              		.loc 1 931 3 is_stmt 0 discriminator 1 view .LVU1717
 6717 257c A33300E3 		movw	r3, #931
 6718              	.LVL548:
 931:/home/hkh/git/eapidk-code-r76-trunk/apps/EeePProg/linux/../EeePDB.c ****       EeePWriteBufferToFile,
 6719              		.loc 1 931 3 discriminator 1 view .LVU1718
 6720 2580 58209FE5 		ldr	r2, .L435+24
 6721 2584 58109FE5 		ldr	r1, .L435+28
 6722              	.LVL549:
 931:/home/hkh/git/eapidk-code-r76-trunk/apps/EeePProg/linux/../EeePDB.c ****       EeePWriteBufferToFile,
 6723              		.loc 1 931 3 discriminator 1 view .LVU1719
 6724              	.LPIC360:
 6725 2588 0CC08FE0 		add	ip, pc, ip
ARM GAS  /tmp/ccTXisr2.s 			page 163


 6726              	.LPIC361:
 6727 258c 00008FE0 		add	r0, pc, r0
 6728              	.LPIC358:
 6729 2590 02208FE0 		add	r2, pc, r2
 6730              	.LPIC359:
 6731 2594 01108FE0 		add	r1, pc, r1
 6732 2598 E2FFFFEA 		b	.L431
 6733              	.LVL550:
 6734              	.L433:
 936:/home/hkh/git/eapidk-code-r76-trunk/apps/EeePProg/linux/../EeePDB.c ****       EeePWriteBufferToFile,
 6735              		.loc 1 936 3 is_stmt 1 discriminator 1 view .LVU1720
 936:/home/hkh/git/eapidk-code-r76-trunk/apps/EeePProg/linux/../EeePDB.c ****       EeePWriteBufferToFile,
 6736              		.loc 1 936 3 discriminator 1 view .LVU1721
 6737 259c 44C09FE5 		ldr	ip, .L435+32
 6738 25a0 014CE0E3 		mvn	r4, #256
 6739 25a4 40009FE5 		ldr	r0, .L435+36
 6740              	.LVL551:
 936:/home/hkh/git/eapidk-code-r76-trunk/apps/EeePProg/linux/../EeePDB.c ****       EeePWriteBufferToFile,
 6741              		.loc 1 936 3 is_stmt 0 discriminator 1 view .LVU1722
 6742 25a8 EA3FA0E3 		mov	r3, #936
 6743              	.LVL552:
 936:/home/hkh/git/eapidk-code-r76-trunk/apps/EeePProg/linux/../EeePDB.c ****       EeePWriteBufferToFile,
 6744              		.loc 1 936 3 discriminator 1 view .LVU1723
 6745 25ac 3C209FE5 		ldr	r2, .L435+40
 6746 25b0 3C109FE5 		ldr	r1, .L435+44
 6747              	.LVL553:
 936:/home/hkh/git/eapidk-code-r76-trunk/apps/EeePProg/linux/../EeePDB.c ****       EeePWriteBufferToFile,
 6748              		.loc 1 936 3 discriminator 1 view .LVU1724
 6749              	.LPIC364:
 6750 25b4 0CC08FE0 		add	ip, pc, ip
 6751              	.LPIC365:
 6752 25b8 00008FE0 		add	r0, pc, r0
 6753              	.LPIC362:
 6754 25bc 02208FE0 		add	r2, pc, r2
 6755              	.LPIC363:
 6756 25c0 01108FE0 		add	r1, pc, r1
 6757 25c4 D7FFFFEA 		b	.L431
 6758              	.L436:
 6759              		.align	2
 6760              	.L435:
 6761 25c8 A8000000 		.word	.LC20-(.LPIC369+8)
 6762 25cc A8000000 		.word	.LC5-(.LPIC370+8)
 6763 25d0 A8000000 		.word	.LC64-(.LPIC367+8)
 6764 25d4 A8000000 		.word	.LC3-(.LPIC368+8)
 6765 25d8 48000000 		.word	.LC4-(.LPIC360+8)
 6766 25dc 48000000 		.word	.LC5-(.LPIC361+8)
 6767 25e0 48000000 		.word	.LC64-(.LPIC358+8)
 6768 25e4 48000000 		.word	.LC3-(.LPIC359+8)
 6769 25e8 2C000000 		.word	.LC65-(.LPIC364+8)
 6770 25ec 2C000000 		.word	.LC5-(.LPIC365+8)
 6771 25f0 2C000000 		.word	.LC64-(.LPIC362+8)
 6772 25f4 2C000000 		.word	.LC3-(.LPIC363+8)
 6773              		.cfi_endproc
 6774              	.LFE21:
 6776              		.section	.rodata.str1.4
 6777              		.align	2
 6778              	.LC66:
ARM GAS  /tmp/ccTXisr2.s 			page 164


 6779 094c 45656550 		.ascii	"EeePReadBufferFromFile\000"
 6779      52656164 
 6779      42756666 
 6779      65724672 
 6779      6F6D4669 
 6780 0963 00       		.align	2
 6781              	.LC67:
 6782 0964 52656164 		.ascii	"ReadBinaryFile( pszFilename, pBHandel, &stFileSize "
 6782      42696E61 
 6782      72794669 
 6782      6C652820 
 6782      70737A46 
 6783 0997 2900     		.ascii	")\000"
 6784 0999 000000   		.align	2
 6785              	.LC68:
 6786 099c 28737446 		.ascii	"(stFileSize!=(size_t)(256<<(((EeePCmn_t*)*pBHandel)"
 6786      696C6553 
 6786      697A6521 
 6786      3D287369 
 6786      7A655F74 
 6787 09cf 2D3E4465 		.ascii	"->DeviceDesc&EEEP_DEVICE_SIZE_MASK)))\000"
 6787      76696365 
 6787      44657363 
 6787      26454545 
 6787      505F4445 
 6788              		.text
 6789              		.align	2
 6790              		.global	EeePReadBufferFromFile
 6791              		.syntax unified
 6792              		.arm
 6793              		.fpu vfpv3
 6795              	EeePReadBufferFromFile:
 6796              	.LVL554:
 6797              	.LFB22:
 960:/home/hkh/git/eapidk-code-r76-trunk/apps/EeePProg/linux/../EeePDB.c **** 
 961:/home/hkh/git/eapidk-code-r76-trunk/apps/EeePProg/linux/../EeePDB.c **** 
 962:/home/hkh/git/eapidk-code-r76-trunk/apps/EeePProg/linux/../EeePDB.c **** EApiStatus_t
 963:/home/hkh/git/eapidk-code-r76-trunk/apps/EeePProg/linux/../EeePDB.c **** EeePReadBufferFromFile(
 964:/home/hkh/git/eapidk-code-r76-trunk/apps/EeePProg/linux/../EeePDB.c ****     __OUT EeePHandel_t  *pBHandel,
 965:/home/hkh/git/eapidk-code-r76-trunk/apps/EeePProg/linux/../EeePDB.c ****     __IN  char          *pszFilename
 966:/home/hkh/git/eapidk-code-r76-trunk/apps/EeePProg/linux/../EeePDB.c ****     )
 967:/home/hkh/git/eapidk-code-r76-trunk/apps/EeePProg/linux/../EeePDB.c **** {
 6798              		.loc 1 967 1 is_stmt 1 view -0
 6799              		.cfi_startproc
 6800              		@ args = 0, pretend = 0, frame = 8
 6801              		@ frame_needed = 0, uses_anonymous_args = 0
 6802              		.loc 1 967 1 is_stmt 0 view .LVU1726
 6803 25f8 A8219FE5 		ldr	r2, .L455
 6804 25fc A8319FE5 		ldr	r3, .L455+4
 6805 2600 30402DE9 		push	{r4, r5, lr}
 6806              		.cfi_def_cfa_offset 12
 6807              		.cfi_offset 4, -12
 6808              		.cfi_offset 5, -8
 6809              		.cfi_offset 14, -4
 968:/home/hkh/git/eapidk-code-r76-trunk/apps/EeePProg/linux/../EeePDB.c ****   EApiStatus_t StatusCode=EAPI_STATUS_SUCCESS;
 969:/home/hkh/git/eapidk-code-r76-trunk/apps/EeePProg/linux/../EeePDB.c ****   size_t stFileSize;
 970:/home/hkh/git/eapidk-code-r76-trunk/apps/EeePProg/linux/../EeePDB.c ****   EAPI_APP_ASSERT_PARAMATER_NULL(
ARM GAS  /tmp/ccTXisr2.s 			page 165


 6810              		.loc 1 970 3 view .LVU1727
 6811 2604 005050E2 		subs	r5, r0, #0
 967:/home/hkh/git/eapidk-code-r76-trunk/apps/EeePProg/linux/../EeePDB.c ****   EApiStatus_t StatusCode=EAPI_STATUS_SUCCESS;
 6812              		.loc 1 967 1 view .LVU1728
 6813              	.LPIC393:
 6814 2608 02208FE0 		add	r2, pc, r2
 6815 260c 1CD04DE2 		sub	sp, sp, #28
 6816              		.cfi_def_cfa_offset 40
 967:/home/hkh/git/eapidk-code-r76-trunk/apps/EeePProg/linux/../EeePDB.c ****   EApiStatus_t StatusCode=EAPI_STATUS_SUCCESS;
 6817              		.loc 1 967 1 view .LVU1729
 6818 2610 033092E7 		ldr	r3, [r2, r3]
 6819 2614 003093E5 		ldr	r3, [r3]
 6820 2618 14308DE5 		str	r3, [sp, #20]
 6821 261c 0030A0E3 		mov	r3, #0
 968:/home/hkh/git/eapidk-code-r76-trunk/apps/EeePProg/linux/../EeePDB.c ****   EApiStatus_t StatusCode=EAPI_STATUS_SUCCESS;
 6822              		.loc 1 968 3 is_stmt 1 view .LVU1730
 6823              	.LVL555:
 969:/home/hkh/git/eapidk-code-r76-trunk/apps/EeePProg/linux/../EeePDB.c ****   EAPI_APP_ASSERT_PARAMATER_NULL(
 6824              		.loc 1 969 3 view .LVU1731
 6825              		.loc 1 970 3 view .LVU1732
 6826 2620 5400000A 		beq	.L449
 971:/home/hkh/git/eapidk-code-r76-trunk/apps/EeePProg/linux/../EeePDB.c ****       EeePReadBufferFromFile,
 972:/home/hkh/git/eapidk-code-r76-trunk/apps/EeePProg/linux/../EeePDB.c ****       EAPI_STATUS_INVALID_PARAMETER,
 973:/home/hkh/git/eapidk-code-r76-trunk/apps/EeePProg/linux/../EeePDB.c ****       pBHandel
 974:/home/hkh/git/eapidk-code-r76-trunk/apps/EeePProg/linux/../EeePDB.c ****     );
 975:/home/hkh/git/eapidk-code-r76-trunk/apps/EeePProg/linux/../EeePDB.c ****   EAPI_APP_ASSERT_PARAMATER_NULL(
 6827              		.loc 1 975 3 is_stmt 0 discriminator 2 view .LVU1733
 6828 2624 000051E3 		cmp	r1, #0
 6829 2628 0100A0E1 		mov	r0, r1
 6830              	.LVL556:
 970:/home/hkh/git/eapidk-code-r76-trunk/apps/EeePProg/linux/../EeePDB.c ****       EeePReadBufferFromFile,
 6831              		.loc 1 970 3 is_stmt 1 discriminator 2 view .LVU1734
 974:/home/hkh/git/eapidk-code-r76-trunk/apps/EeePProg/linux/../EeePDB.c ****   EAPI_APP_ASSERT_PARAMATER_NULL(
 6832              		.loc 1 974 6 discriminator 2 view .LVU1735
 6833              		.loc 1 975 3 discriminator 2 view .LVU1736
 6834 262c 4600000A 		beq	.L450
 6835              		.loc 1 975 3 discriminator 2 view .LVU1737
 976:/home/hkh/git/eapidk-code-r76-trunk/apps/EeePProg/linux/../EeePDB.c ****       EeePReadBufferFromFile,
 977:/home/hkh/git/eapidk-code-r76-trunk/apps/EeePProg/linux/../EeePDB.c ****       EAPI_STATUS_INVALID_PARAMETER,
 978:/home/hkh/git/eapidk-code-r76-trunk/apps/EeePProg/linux/../EeePDB.c ****       pszFilename
 979:/home/hkh/git/eapidk-code-r76-trunk/apps/EeePProg/linux/../EeePDB.c ****     );
 6836              		.loc 1 979 6 discriminator 2 view .LVU1738
 980:/home/hkh/git/eapidk-code-r76-trunk/apps/EeePProg/linux/../EeePDB.c ****   DO(ReadBinaryFile(
 6837              		.loc 1 980 3 discriminator 2 view .LVU1739
 6838              		.loc 1 980 3 discriminator 2 view .LVU1740
 6839 2630 10208DE2 		add	r2, sp, #16
 6840 2634 0510A0E1 		mov	r1, r5
 6841              	.LVL557:
 6842              		.loc 1 980 3 is_stmt 0 discriminator 2 view .LVU1741
 6843 2638 FEFFFFEB 		bl	ReadBinaryFile(PLT)
 6844              	.LVL558:
 6845              		.loc 1 980 3 is_stmt 1 discriminator 2 view .LVU1742
 6846 263c 004050E2 		subs	r4, r0, #0
 6847 2640 2800001A 		bne	.L451
 6848              		.loc 1 980 3 discriminator 2 view .LVU1743
 981:/home/hkh/git/eapidk-code-r76-trunk/apps/EeePProg/linux/../EeePDB.c ****           pszFilename, 
 982:/home/hkh/git/eapidk-code-r76-trunk/apps/EeePProg/linux/../EeePDB.c ****           pBHandel, 
ARM GAS  /tmp/ccTXisr2.s 			page 166


 983:/home/hkh/git/eapidk-code-r76-trunk/apps/EeePProg/linux/../EeePDB.c ****           &stFileSize
 984:/home/hkh/git/eapidk-code-r76-trunk/apps/EeePProg/linux/../EeePDB.c ****       ));
 985:/home/hkh/git/eapidk-code-r76-trunk/apps/EeePProg/linux/../EeePDB.c **** 
 986:/home/hkh/git/eapidk-code-r76-trunk/apps/EeePProg/linux/../EeePDB.c ****     EAPI_APP_RETURN_ERROR_IF_S(
 6849              		.loc 1 986 5 discriminator 2 view .LVU1744
 6850 2644 003095E5 		ldr	r3, [r5]
 6851 2648 010CA0E3 		mov	r0, #256
 6852              	.LVL559:
 6853              		.loc 1 986 5 is_stmt 0 discriminator 2 view .LVU1745
 6854 264c 10109DE5 		ldr	r1, [sp, #16]
 6855 2650 0520D3E5 		ldrb	r2, [r3, #5]	@ zero_extendqisi2
 6856 2654 0F2002E2 		and	r2, r2, #15
 6857 2658 100251E1 		cmp	r1, r0, lsl r2
 6858 265c 2F00001A 		bne	.L452
 6859              		.loc 1 986 5 is_stmt 1 discriminator 2 view .LVU1746
 987:/home/hkh/git/eapidk-code-r76-trunk/apps/EeePProg/linux/../EeePDB.c ****         EeePReadBufferFromFile,
 988:/home/hkh/git/eapidk-code-r76-trunk/apps/EeePProg/linux/../EeePDB.c ****         (stFileSize!=(size_t)(256<<(((EeePCmn_t*)*pBHandel)->DeviceDesc&EEEP_DEVICE_SIZE_MASK))),
 989:/home/hkh/git/eapidk-code-r76-trunk/apps/EeePProg/linux/../EeePDB.c ****         EAPI_STATUS_ERROR
 990:/home/hkh/git/eapidk-code-r76-trunk/apps/EeePProg/linux/../EeePDB.c ****       );
 6860              		.loc 1 990 8 discriminator 2 view .LVU1747
 991:/home/hkh/git/eapidk-code-r76-trunk/apps/EeePProg/linux/../EeePDB.c ****   if(memcmp(
 6861              		.loc 1 991 3 discriminator 2 view .LVU1748
 6862              		.loc 1 991 6 is_stmt 0 discriminator 2 view .LVU1749
 6863 2660 0120D3E5 		ldrb	r2, [r3, #1]	@ zero_extendqisi2
 6864 2664 013083E2 		add	r3, r3, #1
 6865 2668 330052E3 		cmp	r2, #51
 6866 266c 1900000A 		beq	.L453
 6867              	.L443:
 992:/home/hkh/git/eapidk-code-r76-trunk/apps/EeePProg/linux/../EeePDB.c ****           ((EeePCmn_t*)*pBHandel)->EepId, 
 993:/home/hkh/git/eapidk-code-r76-trunk/apps/EeePProg/linux/../EeePDB.c ****           EEEP_EEPROM_MARKER, 
 994:/home/hkh/git/eapidk-code-r76-trunk/apps/EeePProg/linux/../EeePDB.c ****           sizeof(EEEP_EEPROM_MARKER)-1
 995:/home/hkh/git/eapidk-code-r76-trunk/apps/EeePProg/linux/../EeePDB.c ****         ))
 996:/home/hkh/git/eapidk-code-r76-trunk/apps/EeePProg/linux/../EeePDB.c ****   {
 997:/home/hkh/git/eapidk-code-r76-trunk/apps/EeePProg/linux/../EeePDB.c ****     EAPI_APP_RETURN_ERROR(
 6868              		.loc 1 997 5 is_stmt 1 discriminator 2 view .LVU1750
 6869              		.loc 1 997 5 discriminator 2 view .LVU1751
 6870 2670 38C19FE5 		ldr	ip, .L455+8
 6871 2674 0F4CE0E3 		mvn	r4, #3840
 6872              	.LVL560:
 6873              		.loc 1 997 5 is_stmt 0 discriminator 2 view .LVU1752
 6874 2678 34019FE5 		ldr	r0, .L455+12
 6875 267c E53300E3 		movw	r3, #997
 6876 2680 30219FE5 		ldr	r2, .L455+16
 6877 2684 30119FE5 		ldr	r1, .L455+20
 6878              	.LPIC390:
 6879 2688 0CC08FE0 		add	ip, pc, ip
 6880              	.LPIC391:
 6881 268c 00008FE0 		add	r0, pc, r0
 6882              	.LPIC388:
 6883 2690 02208FE0 		add	r2, pc, r2
 6884              	.LPIC389:
 6885 2694 01108FE0 		add	r1, pc, r1
 6886              	.L448:
 6887              		.loc 1 997 5 discriminator 2 view .LVU1753
 6888 2698 01108DE9 		stmib	sp, {r0, ip}
 6889 269c 4500A0E3 		mov	r0, #69
 6890 26a0 00408DE5 		str	r4, [sp]
ARM GAS  /tmp/ccTXisr2.s 			page 167


 6891 26a4 FEFFFFEB 		bl	siFormattedMessage_SC(PLT)
 6892              	.LVL561:
 6893              		.loc 1 997 5 is_stmt 1 discriminator 2 view .LVU1754
 6894              		.loc 1 997 5 discriminator 2 view .LVU1755
 6895              		.loc 1 997 5 discriminator 2 view .LVU1756
 6896              		.loc 1 997 5 discriminator 2 view .LVU1757
 998:/home/hkh/git/eapidk-code-r76-trunk/apps/EeePProg/linux/../EeePDB.c ****         EeePReadBufferFromFile,
 999:/home/hkh/git/eapidk-code-r76-trunk/apps/EeePProg/linux/../EeePDB.c ****         EAPI_STATUS_ERROR,
1000:/home/hkh/git/eapidk-code-r76-trunk/apps/EeePProg/linux/../EeePDB.c ****         "Invalid EeeP Buffer"
1001:/home/hkh/git/eapidk-code-r76-trunk/apps/EeePProg/linux/../EeePDB.c ****       );
1002:/home/hkh/git/eapidk-code-r76-trunk/apps/EeePProg/linux/../EeePDB.c ****   }
1003:/home/hkh/git/eapidk-code-r76-trunk/apps/EeePProg/linux/../EeePDB.c **** 
1004:/home/hkh/git/eapidk-code-r76-trunk/apps/EeePProg/linux/../EeePDB.c **** EAPI_APP_ASSERT_EXIT
1005:/home/hkh/git/eapidk-code-r76-trunk/apps/EeePProg/linux/../EeePDB.c ****   return StatusCode;
 6897              		.loc 1 1005 3 discriminator 2 view .LVU1758
 6898              	.L439:
 6899              	.L437:
 967:/home/hkh/git/eapidk-code-r76-trunk/apps/EeePProg/linux/../EeePDB.c ****   EApiStatus_t StatusCode=EAPI_STATUS_SUCCESS;
 6900              		.loc 1 967 1 is_stmt 0 view .LVU1759
 6901 26a8 10219FE5 		ldr	r2, .L455+24
1006:/home/hkh/git/eapidk-code-r76-trunk/apps/EeePProg/linux/../EeePDB.c **** }
 6902              		.loc 1 1006 1 view .LVU1760
 6903 26ac F8309FE5 		ldr	r3, .L455+4
 967:/home/hkh/git/eapidk-code-r76-trunk/apps/EeePProg/linux/../EeePDB.c ****   EApiStatus_t StatusCode=EAPI_STATUS_SUCCESS;
 6904              		.loc 1 967 1 view .LVU1761
 6905              	.LPIC392:
 6906 26b0 02208FE0 		add	r2, pc, r2
 6907              		.loc 1 1006 1 view .LVU1762
 6908 26b4 033092E7 		ldr	r3, [r2, r3]
 6909 26b8 002093E5 		ldr	r2, [r3]
 6910 26bc 14309DE5 		ldr	r3, [sp, #20]
 6911 26c0 022033E0 		eors	r2, r3, r2
 6912 26c4 0030A0E3 		mov	r3, #0
 6913 26c8 3500001A 		bne	.L454
 6914 26cc 0400A0E1 		mov	r0, r4
 6915 26d0 1CD08DE2 		add	sp, sp, #28
 6916              		.cfi_remember_state
 6917              		.cfi_def_cfa_offset 12
 6918              		@ sp needed
 6919 26d4 3080BDE8 		pop	{r4, r5, pc}
 6920              	.LVL562:
 6921              	.L453:
 6922              		.cfi_restore_state
 991:/home/hkh/git/eapidk-code-r76-trunk/apps/EeePProg/linux/../EeePDB.c ****           ((EeePCmn_t*)*pBHandel)->EepId, 
 6923              		.loc 1 991 6 discriminator 2 view .LVU1763
 6924 26d8 0130D3E5 		ldrb	r3, [r3, #1]	@ zero_extendqisi2
 6925 26dc 500053E3 		cmp	r3, #80
 6926 26e0 E2FFFF1A 		bne	.L443
 6927 26e4 EFFFFFEA 		b	.L437
 6928              	.LVL563:
 6929              	.L451:
 980:/home/hkh/git/eapidk-code-r76-trunk/apps/EeePProg/linux/../EeePDB.c ****           pszFilename, 
 6930              		.loc 1 980 3 is_stmt 1 discriminator 1 view .LVU1764
 6931 26e8 D4C09FE5 		ldr	ip, .L455+28
 6932 26ec F53FA0E3 		mov	r3, #980
 6933 26f0 D0009FE5 		ldr	r0, .L455+32
 6934              	.LVL564:
ARM GAS  /tmp/ccTXisr2.s 			page 168


 980:/home/hkh/git/eapidk-code-r76-trunk/apps/EeePProg/linux/../EeePDB.c ****           pszFilename, 
 6935              		.loc 1 980 3 is_stmt 0 discriminator 1 view .LVU1765
 6936 26f4 D0209FE5 		ldr	r2, .L455+36
 6937 26f8 D0109FE5 		ldr	r1, .L455+40
 6938              	.LPIC381:
 6939 26fc 0CC08FE0 		add	ip, pc, ip
 6940              	.LPIC382:
 6941 2700 00008FE0 		add	r0, pc, r0
 6942 2704 00408DE5 		str	r4, [sp]
 6943 2708 01108DE9 		stmib	sp, {r0, ip}
 6944              	.LPIC379:
 6945 270c 02208FE0 		add	r2, pc, r2
 6946              	.LPIC380:
 6947 2710 01108FE0 		add	r1, pc, r1
 6948 2714 4500A0E3 		mov	r0, #69
 6949 2718 FEFFFFEB 		bl	siFormattedMessage_SC(PLT)
 6950              	.LVL565:
 980:/home/hkh/git/eapidk-code-r76-trunk/apps/EeePProg/linux/../EeePDB.c ****           pszFilename, 
 6951              		.loc 1 980 3 is_stmt 1 discriminator 1 view .LVU1766
 6952 271c E1FFFFEA 		b	.L437
 6953              	.L452:
 986:/home/hkh/git/eapidk-code-r76-trunk/apps/EeePProg/linux/../EeePDB.c ****         EeePReadBufferFromFile,
 6954              		.loc 1 986 5 discriminator 1 view .LVU1767
 986:/home/hkh/git/eapidk-code-r76-trunk/apps/EeePProg/linux/../EeePDB.c ****         EeePReadBufferFromFile,
 6955              		.loc 1 986 5 discriminator 1 view .LVU1768
 6956 2720 ACC09FE5 		ldr	ip, .L455+44
 6957 2724 0F4CE0E3 		mvn	r4, #3840
 6958              	.LVL566:
 986:/home/hkh/git/eapidk-code-r76-trunk/apps/EeePProg/linux/../EeePDB.c ****         EeePReadBufferFromFile,
 6959              		.loc 1 986 5 is_stmt 0 discriminator 1 view .LVU1769
 6960 2728 A8009FE5 		ldr	r0, .L455+48
 6961 272c DA3300E3 		movw	r3, #986
 6962 2730 A4209FE5 		ldr	r2, .L455+52
 6963 2734 A4109FE5 		ldr	r1, .L455+56
 6964              	.LPIC385:
 6965 2738 0CC08FE0 		add	ip, pc, ip
 6966              	.LPIC386:
 6967 273c 00008FE0 		add	r0, pc, r0
 6968              	.LPIC383:
 6969 2740 02208FE0 		add	r2, pc, r2
 6970              	.LPIC384:
 6971 2744 01108FE0 		add	r1, pc, r1
 6972 2748 D2FFFFEA 		b	.L448
 6973              	.LVL567:
 6974              	.L450:
 975:/home/hkh/git/eapidk-code-r76-trunk/apps/EeePProg/linux/../EeePDB.c ****       EeePReadBufferFromFile,
 6975              		.loc 1 975 3 is_stmt 1 discriminator 1 view .LVU1770
 975:/home/hkh/git/eapidk-code-r76-trunk/apps/EeePProg/linux/../EeePDB.c ****       EeePReadBufferFromFile,
 6976              		.loc 1 975 3 discriminator 1 view .LVU1771
 6977 274c 90C09FE5 		ldr	ip, .L455+60
 6978 2750 014CE0E3 		mvn	r4, #256
 6979 2754 8C009FE5 		ldr	r0, .L455+64
 6980              	.LVL568:
 975:/home/hkh/git/eapidk-code-r76-trunk/apps/EeePProg/linux/../EeePDB.c ****       EeePReadBufferFromFile,
 6981              		.loc 1 975 3 is_stmt 0 discriminator 1 view .LVU1772
 6982 2758 CF3300E3 		movw	r3, #975
 6983 275c 88209FE5 		ldr	r2, .L455+68
ARM GAS  /tmp/ccTXisr2.s 			page 169


 6984 2760 88109FE5 		ldr	r1, .L455+72
 6985              	.LVL569:
 975:/home/hkh/git/eapidk-code-r76-trunk/apps/EeePProg/linux/../EeePDB.c ****       EeePReadBufferFromFile,
 6986              		.loc 1 975 3 discriminator 1 view .LVU1773
 6987              	.LPIC377:
 6988 2764 0CC08FE0 		add	ip, pc, ip
 6989              	.LPIC378:
 6990 2768 00008FE0 		add	r0, pc, r0
 6991              	.LPIC375:
 6992 276c 02208FE0 		add	r2, pc, r2
 6993              	.LPIC376:
 6994 2770 01108FE0 		add	r1, pc, r1
 6995 2774 C7FFFFEA 		b	.L448
 6996              	.LVL570:
 6997              	.L449:
 970:/home/hkh/git/eapidk-code-r76-trunk/apps/EeePProg/linux/../EeePDB.c ****       EeePReadBufferFromFile,
 6998              		.loc 1 970 3 is_stmt 1 discriminator 1 view .LVU1774
 970:/home/hkh/git/eapidk-code-r76-trunk/apps/EeePProg/linux/../EeePDB.c ****       EeePReadBufferFromFile,
 6999              		.loc 1 970 3 discriminator 1 view .LVU1775
 7000 2778 74C09FE5 		ldr	ip, .L455+76
 7001 277c 014CE0E3 		mvn	r4, #256
 7002 2780 70009FE5 		ldr	r0, .L455+80
 7003              	.LVL571:
 970:/home/hkh/git/eapidk-code-r76-trunk/apps/EeePProg/linux/../EeePDB.c ****       EeePReadBufferFromFile,
 7004              		.loc 1 970 3 is_stmt 0 discriminator 1 view .LVU1776
 7005 2784 CA3300E3 		movw	r3, #970
 7006 2788 6C209FE5 		ldr	r2, .L455+84
 7007 278c 6C109FE5 		ldr	r1, .L455+88
 7008              	.LVL572:
 970:/home/hkh/git/eapidk-code-r76-trunk/apps/EeePProg/linux/../EeePDB.c ****       EeePReadBufferFromFile,
 7009              		.loc 1 970 3 discriminator 1 view .LVU1777
 7010              	.LPIC373:
 7011 2790 0CC08FE0 		add	ip, pc, ip
 7012              	.LPIC374:
 7013 2794 00008FE0 		add	r0, pc, r0
 7014              	.LPIC371:
 7015 2798 02208FE0 		add	r2, pc, r2
 7016              	.LPIC372:
 7017 279c 01108FE0 		add	r1, pc, r1
 7018 27a0 BCFFFFEA 		b	.L448
 7019              	.LVL573:
 7020              	.L454:
 7021              		.loc 1 1006 1 view .LVU1778
 7022 27a4 FEFFFFEB 		bl	__stack_chk_fail(PLT)
 7023              	.LVL574:
 7024              	.L456:
 7025              		.align	2
 7026              	.L455:
 7027 27a8 98010000 		.word	_GLOBAL_OFFSET_TABLE_-(.LPIC393+8)
 7028 27ac 00000000 		.word	__stack_chk_guard(GOT)
 7029 27b0 20010000 		.word	.LC20-(.LPIC390+8)
 7030 27b4 20010000 		.word	.LC5-(.LPIC391+8)
 7031 27b8 20010000 		.word	.LC66-(.LPIC388+8)
 7032 27bc 20010000 		.word	.LC3-(.LPIC389+8)
 7033 27c0 08010000 		.word	_GLOBAL_OFFSET_TABLE_-(.LPIC392+8)
 7034 27c4 C0000000 		.word	.LC67-(.LPIC381+8)
 7035 27c8 C0000000 		.word	.LC5-(.LPIC382+8)
ARM GAS  /tmp/ccTXisr2.s 			page 170


 7036 27cc B8000000 		.word	.LC25-(.LPIC379+8)
 7037 27d0 B8000000 		.word	.LC3-(.LPIC380+8)
 7038 27d4 94000000 		.word	.LC68-(.LPIC385+8)
 7039 27d8 94000000 		.word	.LC5-(.LPIC386+8)
 7040 27dc 94000000 		.word	.LC66-(.LPIC383+8)
 7041 27e0 94000000 		.word	.LC3-(.LPIC384+8)
 7042 27e4 78000000 		.word	.LC65-(.LPIC377+8)
 7043 27e8 78000000 		.word	.LC5-(.LPIC378+8)
 7044 27ec 78000000 		.word	.LC66-(.LPIC375+8)
 7045 27f0 78000000 		.word	.LC3-(.LPIC376+8)
 7046 27f4 5C000000 		.word	.LC16-(.LPIC373+8)
 7047 27f8 5C000000 		.word	.LC5-(.LPIC374+8)
 7048 27fc 5C000000 		.word	.LC66-(.LPIC371+8)
 7049 2800 5C000000 		.word	.LC3-(.LPIC372+8)
 7050              		.cfi_endproc
 7051              	.LFE22:
 7053              		.section	.rodata.str1.4
 7054 09f5 000000   		.align	2
 7055              	.LC69:
 7056 09f8 45656550 		.ascii	"EeePWriteBufferToEEP\000"
 7056      57726974 
 7056      65427566 
 7056      66657254 
 7056      6F454550 
 7057              		.text
 7058              		.align	2
 7059              		.global	EeePSetI2CDeviceDesc
 7060              		.syntax unified
 7061              		.arm
 7062              		.fpu vfpv3
 7064              	EeePSetI2CDeviceDesc:
 7065              	.LVL575:
 7066              	.LFB23:
1007:/home/hkh/git/eapidk-code-r76-trunk/apps/EeePProg/linux/../EeePDB.c **** 
1008:/home/hkh/git/eapidk-code-r76-trunk/apps/EeePProg/linux/../EeePDB.c **** unsigned WriteSizes[]={ 1,8,16,32,64,128,256,512 };
1009:/home/hkh/git/eapidk-code-r76-trunk/apps/EeePProg/linux/../EeePDB.c **** EApiStatus_t
1010:/home/hkh/git/eapidk-code-r76-trunk/apps/EeePProg/linux/../EeePDB.c **** EeePSetI2CDeviceDesc(
1011:/home/hkh/git/eapidk-code-r76-trunk/apps/EeePProg/linux/../EeePDB.c ****     __OUT I2CDeviceDesc_t *pDDesc,
1012:/home/hkh/git/eapidk-code-r76-trunk/apps/EeePProg/linux/../EeePDB.c ****     __IN  EeePHandel_t     BHandel,
1013:/home/hkh/git/eapidk-code-r76-trunk/apps/EeePProg/linux/../EeePDB.c ****     __IN  uint16_t         WRecTimems ,
1014:/home/hkh/git/eapidk-code-r76-trunk/apps/EeePProg/linux/../EeePDB.c ****     __IN  uint16_t         u16DeviceAddr
1015:/home/hkh/git/eapidk-code-r76-trunk/apps/EeePProg/linux/../EeePDB.c ****     )
1016:/home/hkh/git/eapidk-code-r76-trunk/apps/EeePProg/linux/../EeePDB.c **** {
 7067              		.loc 1 1016 1 is_stmt 1 view -0
 7068              		.cfi_startproc
 7069              		@ args = 0, pretend = 0, frame = 0
 7070              		@ frame_needed = 0, uses_anonymous_args = 0
1017:/home/hkh/git/eapidk-code-r76-trunk/apps/EeePProg/linux/../EeePDB.c ****   EApiStatus_t StatusCode=EAPI_STATUS_SUCCESS;
1018:/home/hkh/git/eapidk-code-r76-trunk/apps/EeePProg/linux/../EeePDB.c ****   EAPI_APP_ASSERT_PARAMATER_NULL(
 7071              		.loc 1 1018 3 is_stmt 0 view .LVU1780
 7072 2804 000051E3 		cmp	r1, #0
1017:/home/hkh/git/eapidk-code-r76-trunk/apps/EeePProg/linux/../EeePDB.c ****   EApiStatus_t StatusCode=EAPI_STATUS_SUCCESS;
 7073              		.loc 1 1017 3 is_stmt 1 view .LVU1781
 7074              	.LVL576:
 7075              		.loc 1 1018 3 view .LVU1782
1016:/home/hkh/git/eapidk-code-r76-trunk/apps/EeePProg/linux/../EeePDB.c ****   EApiStatus_t StatusCode=EAPI_STATUS_SUCCESS;
 7076              		.loc 1 1016 1 is_stmt 0 view .LVU1783
ARM GAS  /tmp/ccTXisr2.s 			page 171


 7077 2808 10402DE9 		push	{r4, lr}
 7078              		.cfi_def_cfa_offset 8
 7079              		.cfi_offset 4, -8
 7080              		.cfi_offset 14, -4
 7081 280c 10D04DE2 		sub	sp, sp, #16
 7082              		.cfi_def_cfa_offset 24
 7083              		.loc 1 1018 3 view .LVU1784
 7084 2810 2A00000A 		beq	.L467
 7085 2814 00C0A0E1 		mov	ip, r0
 7086              		.loc 1 1018 3 is_stmt 1 discriminator 2 view .LVU1785
1019:/home/hkh/git/eapidk-code-r76-trunk/apps/EeePProg/linux/../EeePDB.c ****       EeePWriteBufferToEEP,
1020:/home/hkh/git/eapidk-code-r76-trunk/apps/EeePProg/linux/../EeePDB.c ****       EAPI_STATUS_INVALID_PARAMETER,
1021:/home/hkh/git/eapidk-code-r76-trunk/apps/EeePProg/linux/../EeePDB.c ****       BHandel
1022:/home/hkh/git/eapidk-code-r76-trunk/apps/EeePProg/linux/../EeePDB.c ****     );
 7087              		.loc 1 1022 6 discriminator 2 view .LVU1786
1023:/home/hkh/git/eapidk-code-r76-trunk/apps/EeePProg/linux/../EeePDB.c ****   EAPI_APP_RETURN_ERROR_IF(
 7088              		.loc 1 1023 3 discriminator 2 view .LVU1787
 7089 2818 0100D1E5 		ldrb	r0, [r1, #1]	@ zero_extendqisi2
 7090              	.LVL577:
 7091              		.loc 1 1023 3 is_stmt 0 discriminator 2 view .LVU1788
 7092 281c 330050E3 		cmp	r0, #51
 7093 2820 1000000A 		beq	.L468
 7094              	.L460:
 7095              		.loc 1 1023 3 is_stmt 1 discriminator 2 view .LVU1789
 7096              		.loc 1 1023 3 discriminator 2 view .LVU1790
 7097 2824 C0C09FE5 		ldr	ip, .L469
 7098              	.LVL578:
 7099              		.loc 1 1023 3 is_stmt 0 discriminator 2 view .LVU1791
 7100 2828 0F4CE0E3 		mvn	r4, #3840
 7101 282c BC009FE5 		ldr	r0, .L469+4
 7102 2830 FF3300E3 		movw	r3, #1023
 7103              	.LVL579:
 7104              		.loc 1 1023 3 discriminator 2 view .LVU1792
 7105 2834 B8209FE5 		ldr	r2, .L469+8
 7106              	.LVL580:
 7107              		.loc 1 1023 3 discriminator 2 view .LVU1793
 7108 2838 B8109FE5 		ldr	r1, .L469+12
 7109              	.LVL581:
 7110              		.loc 1 1023 3 discriminator 2 view .LVU1794
 7111              	.LPIC401:
 7112 283c 0CC08FE0 		add	ip, pc, ip
 7113              	.LPIC402:
 7114 2840 00008FE0 		add	r0, pc, r0
 7115              	.LPIC399:
 7116 2844 02208FE0 		add	r2, pc, r2
 7117              	.LPIC400:
 7118 2848 01108FE0 		add	r1, pc, r1
 7119              	.L466:
 7120 284c 01108DE9 		stmib	sp, {r0, ip}
 7121 2850 4500A0E3 		mov	r0, #69
 7122 2854 00408DE5 		str	r4, [sp]
 7123 2858 FEFFFFEB 		bl	siFormattedMessage_SC(PLT)
 7124              	.LVL582:
 7125              		.loc 1 1023 3 is_stmt 1 discriminator 2 view .LVU1795
 7126              		.loc 1 1023 3 discriminator 2 view .LVU1796
 7127              		.loc 1 1023 3 discriminator 2 view .LVU1797
 7128 285c 0400A0E1 		mov	r0, r4
ARM GAS  /tmp/ccTXisr2.s 			page 172


1024:/home/hkh/git/eapidk-code-r76-trunk/apps/EeePProg/linux/../EeePDB.c ****       EeePWriteBufferToEEP,
1025:/home/hkh/git/eapidk-code-r76-trunk/apps/EeePProg/linux/../EeePDB.c ****       memcmp(
1026:/home/hkh/git/eapidk-code-r76-trunk/apps/EeePProg/linux/../EeePDB.c ****           ((EeePCmn_t*)BHandel)->EepId, 
1027:/home/hkh/git/eapidk-code-r76-trunk/apps/EeePProg/linux/../EeePDB.c ****           EEEP_EEPROM_MARKER, 
1028:/home/hkh/git/eapidk-code-r76-trunk/apps/EeePProg/linux/../EeePDB.c ****           sizeof(EEEP_EEPROM_MARKER)-1
1029:/home/hkh/git/eapidk-code-r76-trunk/apps/EeePProg/linux/../EeePDB.c ****         ),
1030:/home/hkh/git/eapidk-code-r76-trunk/apps/EeePProg/linux/../EeePDB.c ****       EAPI_STATUS_ERROR,
1031:/home/hkh/git/eapidk-code-r76-trunk/apps/EeePProg/linux/../EeePDB.c ****       "Invalid EeeP Buffer"
1032:/home/hkh/git/eapidk-code-r76-trunk/apps/EeePProg/linux/../EeePDB.c ****     );
1033:/home/hkh/git/eapidk-code-r76-trunk/apps/EeePProg/linux/../EeePDB.c ****   pDDesc->DeviceAddr=u16DeviceAddr;
1034:/home/hkh/git/eapidk-code-r76-trunk/apps/EeePProg/linux/../EeePDB.c ****   pDDesc->WRecTimems=WRecTimems;
1035:/home/hkh/git/eapidk-code-r76-trunk/apps/EeePProg/linux/../EeePDB.c ****   pDDesc->PageSize  =(uint16_t)WriteSizes[(((EeePCmn_t*)BHandel)->DeviceDesc>>EEEP_DEVICE_WRITE_LEN
1036:/home/hkh/git/eapidk-code-r76-trunk/apps/EeePProg/linux/../EeePDB.c ****   pDDesc->ExtIndx   =(uint16_t)((((EeePCmn_t*)BHandel)->DeviceDesc&EEEP_DEVICE_EXT_INDEX)?EApiAPI2C
1037:/home/hkh/git/eapidk-code-r76-trunk/apps/EeePProg/linux/../EeePDB.c ****   pDDesc->DevSize   =256<<(((EeePCmn_t*)BHandel)->DeviceDesc&EEEP_DEVICE_SIZE_MASK);
1038:/home/hkh/git/eapidk-code-r76-trunk/apps/EeePProg/linux/../EeePDB.c **** 
1039:/home/hkh/git/eapidk-code-r76-trunk/apps/EeePProg/linux/../EeePDB.c **** EAPI_APP_ASSERT_EXIT
1040:/home/hkh/git/eapidk-code-r76-trunk/apps/EeePProg/linux/../EeePDB.c ****   return StatusCode;
1041:/home/hkh/git/eapidk-code-r76-trunk/apps/EeePProg/linux/../EeePDB.c **** }
 7129              		.loc 1 1041 1 is_stmt 0 discriminator 2 view .LVU1798
 7130 2860 10D08DE2 		add	sp, sp, #16
 7131              		.cfi_remember_state
 7132              		.cfi_def_cfa_offset 8
 7133              		@ sp needed
 7134 2864 1080BDE8 		pop	{r4, pc}
 7135              	.LVL583:
 7136              	.L468:
 7137              		.cfi_restore_state
1023:/home/hkh/git/eapidk-code-r76-trunk/apps/EeePProg/linux/../EeePDB.c ****   EAPI_APP_RETURN_ERROR_IF(
 7138              		.loc 1 1023 3 discriminator 2 view .LVU1799
 7139 2868 0200D1E5 		ldrb	r0, [r1, #2]	@ zero_extendqisi2
 7140 286c 500050E3 		cmp	r0, #80
 7141 2870 EBFFFF1A 		bne	.L460
 7142              	.L459:
1023:/home/hkh/git/eapidk-code-r76-trunk/apps/EeePProg/linux/../EeePDB.c ****   EAPI_APP_RETURN_ERROR_IF(
 7143              		.loc 1 1023 3 is_stmt 1 discriminator 2 view .LVU1800
1032:/home/hkh/git/eapidk-code-r76-trunk/apps/EeePProg/linux/../EeePDB.c ****   pDDesc->DeviceAddr=u16DeviceAddr;
 7144              		.loc 1 1032 6 discriminator 2 view .LVU1801
1033:/home/hkh/git/eapidk-code-r76-trunk/apps/EeePProg/linux/../EeePDB.c ****   pDDesc->WRecTimems=WRecTimems;
 7145              		.loc 1 1033 3 discriminator 2 view .LVU1802
1033:/home/hkh/git/eapidk-code-r76-trunk/apps/EeePProg/linux/../EeePDB.c ****   pDDesc->WRecTimems=WRecTimems;
 7146              		.loc 1 1033 21 is_stmt 0 discriminator 2 view .LVU1803
 7147 2874 B030CCE1 		strh	r3, [ip]	@ movhi
1034:/home/hkh/git/eapidk-code-r76-trunk/apps/EeePProg/linux/../EeePDB.c ****   pDDesc->PageSize  =(uint16_t)WriteSizes[(((EeePCmn_t*)BHandel)->DeviceDesc>>EEEP_DEVICE_WRITE_LEN
 7148              		.loc 1 1034 3 is_stmt 1 discriminator 2 view .LVU1804
1037:/home/hkh/git/eapidk-code-r76-trunk/apps/EeePProg/linux/../EeePDB.c **** 
 7149              		.loc 1 1037 25 is_stmt 0 discriminator 2 view .LVU1805
 7150 2878 013CA0E3 		mov	r3, #256
 7151              	.LVL584:
1034:/home/hkh/git/eapidk-code-r76-trunk/apps/EeePProg/linux/../EeePDB.c ****   pDDesc->PageSize  =(uint16_t)WriteSizes[(((EeePCmn_t*)BHandel)->DeviceDesc>>EEEP_DEVICE_WRITE_LEN
 7152              		.loc 1 1034 21 discriminator 2 view .LVU1806
 7153 287c B620CCE1 		strh	r2, [ip, #6]	@ movhi
1035:/home/hkh/git/eapidk-code-r76-trunk/apps/EeePProg/linux/../EeePDB.c ****   pDDesc->ExtIndx   =(uint16_t)((((EeePCmn_t*)BHandel)->DeviceDesc&EEEP_DEVICE_EXT_INDEX)?EApiAPI2C
 7154              		.loc 1 1035 3 is_stmt 1 discriminator 2 view .LVU1807
1017:/home/hkh/git/eapidk-code-r76-trunk/apps/EeePProg/linux/../EeePDB.c ****   EAPI_APP_ASSERT_PARAMATER_NULL(
 7155              		.loc 1 1017 16 is_stmt 0 discriminator 2 view .LVU1808
 7156 2880 0000A0E3 		mov	r0, #0
1035:/home/hkh/git/eapidk-code-r76-trunk/apps/EeePProg/linux/../EeePDB.c ****   pDDesc->ExtIndx   =(uint16_t)((((EeePCmn_t*)BHandel)->DeviceDesc&EEEP_DEVICE_EXT_INDEX)?EApiAPI2C
ARM GAS  /tmp/ccTXisr2.s 			page 173


 7157              		.loc 1 1035 65 discriminator 2 view .LVU1809
 7158 2884 0510D1E5 		ldrb	r1, [r1, #5]	@ zero_extendqisi2
 7159              	.LVL585:
1035:/home/hkh/git/eapidk-code-r76-trunk/apps/EeePProg/linux/../EeePDB.c ****   pDDesc->ExtIndx   =(uint16_t)((((EeePCmn_t*)BHandel)->DeviceDesc&EEEP_DEVICE_EXT_INDEX)?EApiAPI2C
 7160              		.loc 1 1035 42 discriminator 2 view .LVU1810
 7161 2888 6C209FE5 		ldr	r2, .L469+16
 7162              	.LVL586:
1037:/home/hkh/git/eapidk-code-r76-trunk/apps/EeePProg/linux/../EeePDB.c **** 
 7163              		.loc 1 1037 61 discriminator 2 view .LVU1811
 7164 288c 0FE001E2 		and	lr, r1, #15
1036:/home/hkh/git/eapidk-code-r76-trunk/apps/EeePProg/linux/../EeePDB.c ****   pDDesc->DevSize   =256<<(((EeePCmn_t*)BHandel)->DeviceDesc&EEEP_DEVICE_SIZE_MASK);
 7165              		.loc 1 1036 22 discriminator 2 view .LVU1812
 7166 2890 100011E3 		tst	r1, #16
1037:/home/hkh/git/eapidk-code-r76-trunk/apps/EeePProg/linux/../EeePDB.c **** 
 7167              		.loc 1 1037 25 discriminator 2 view .LVU1813
 7168 2894 133EA0E1 		lsl	r3, r3, lr
1035:/home/hkh/git/eapidk-code-r76-trunk/apps/EeePProg/linux/../EeePDB.c ****   pDDesc->ExtIndx   =(uint16_t)((((EeePCmn_t*)BHandel)->DeviceDesc&EEEP_DEVICE_EXT_INDEX)?EApiAPI2C
 7169              		.loc 1 1035 77 discriminator 2 view .LVU1814
 7170 2898 A1E2A0E1 		lsr	lr, r1, #5
1035:/home/hkh/git/eapidk-code-r76-trunk/apps/EeePProg/linux/../EeePDB.c ****   pDDesc->ExtIndx   =(uint16_t)((((EeePCmn_t*)BHandel)->DeviceDesc&EEEP_DEVICE_EXT_INDEX)?EApiAPI2C
 7171              		.loc 1 1035 42 discriminator 2 view .LVU1815
 7172              	.LPIC403:
 7173 289c 02208FE0 		add	r2, pc, r2
1036:/home/hkh/git/eapidk-code-r76-trunk/apps/EeePProg/linux/../EeePDB.c ****   pDDesc->DevSize   =256<<(((EeePCmn_t*)BHandel)->DeviceDesc&EEEP_DEVICE_SIZE_MASK);
 7174              		.loc 1 1036 22 discriminator 2 view .LVU1816
 7175 28a0 0210A013 		movne	r1, #2
1035:/home/hkh/git/eapidk-code-r76-trunk/apps/EeePProg/linux/../EeePDB.c ****   pDDesc->ExtIndx   =(uint16_t)((((EeePCmn_t*)BHandel)->DeviceDesc&EEEP_DEVICE_EXT_INDEX)?EApiAPI2C
 7176              		.loc 1 1035 22 discriminator 2 view .LVU1817
 7177 28a4 0E2192E7 		ldr	r2, [r2, lr, lsl #2]
1036:/home/hkh/git/eapidk-code-r76-trunk/apps/EeePProg/linux/../EeePDB.c ****   pDDesc->DevSize   =256<<(((EeePCmn_t*)BHandel)->DeviceDesc&EEEP_DEVICE_SIZE_MASK);
 7178              		.loc 1 1036 22 discriminator 2 view .LVU1818
 7179 28a8 0110A003 		moveq	r1, #1
1037:/home/hkh/git/eapidk-code-r76-trunk/apps/EeePProg/linux/../EeePDB.c **** 
 7180              		.loc 1 1037 21 discriminator 2 view .LVU1819
 7181 28ac 08308CE5 		str	r3, [ip, #8]
1036:/home/hkh/git/eapidk-code-r76-trunk/apps/EeePProg/linux/../EeePDB.c ****   pDDesc->DevSize   =256<<(((EeePCmn_t*)BHandel)->DeviceDesc&EEEP_DEVICE_SIZE_MASK);
 7182              		.loc 1 1036 21 discriminator 2 view .LVU1820
 7183 28b0 B410CCE1 		strh	r1, [ip, #4]	@ movhi
1035:/home/hkh/git/eapidk-code-r76-trunk/apps/EeePProg/linux/../EeePDB.c ****   pDDesc->ExtIndx   =(uint16_t)((((EeePCmn_t*)BHandel)->DeviceDesc&EEEP_DEVICE_EXT_INDEX)?EApiAPI2C
 7184              		.loc 1 1035 22 discriminator 2 view .LVU1821
 7185 28b4 B220CCE1 		strh	r2, [ip, #2]	@ movhi
1036:/home/hkh/git/eapidk-code-r76-trunk/apps/EeePProg/linux/../EeePDB.c ****   pDDesc->DevSize   =256<<(((EeePCmn_t*)BHandel)->DeviceDesc&EEEP_DEVICE_SIZE_MASK);
 7186              		.loc 1 1036 3 is_stmt 1 discriminator 2 view .LVU1822
1037:/home/hkh/git/eapidk-code-r76-trunk/apps/EeePProg/linux/../EeePDB.c **** 
 7187              		.loc 1 1037 3 discriminator 2 view .LVU1823
1040:/home/hkh/git/eapidk-code-r76-trunk/apps/EeePProg/linux/../EeePDB.c **** }
 7188              		.loc 1 1040 3 discriminator 2 view .LVU1824
 7189              		.loc 1 1041 1 is_stmt 0 discriminator 2 view .LVU1825
 7190 28b8 10D08DE2 		add	sp, sp, #16
 7191              		.cfi_remember_state
 7192              		.cfi_def_cfa_offset 8
 7193              		@ sp needed
 7194 28bc 1080BDE8 		pop	{r4, pc}
 7195              	.LVL587:
 7196              	.L467:
 7197              		.cfi_restore_state
 7198              	.LBB490:
ARM GAS  /tmp/ccTXisr2.s 			page 174


 7199              	.LBI490:
1010:/home/hkh/git/eapidk-code-r76-trunk/apps/EeePProg/linux/../EeePDB.c ****     __OUT I2CDeviceDesc_t *pDDesc,
 7200              		.loc 1 1010 1 is_stmt 1 view .LVU1826
 7201              	.LBB491:
1018:/home/hkh/git/eapidk-code-r76-trunk/apps/EeePProg/linux/../EeePDB.c ****       EeePWriteBufferToEEP,
 7202              		.loc 1 1018 3 view .LVU1827
1018:/home/hkh/git/eapidk-code-r76-trunk/apps/EeePProg/linux/../EeePDB.c ****       EeePWriteBufferToEEP,
 7203              		.loc 1 1018 3 view .LVU1828
 7204 28c0 38C09FE5 		ldr	ip, .L469+20
 7205 28c4 014CE0E3 		mvn	r4, #256
 7206 28c8 34009FE5 		ldr	r0, .L469+24
 7207              	.LVL588:
1018:/home/hkh/git/eapidk-code-r76-trunk/apps/EeePProg/linux/../EeePDB.c ****       EeePWriteBufferToEEP,
 7208              		.loc 1 1018 3 is_stmt 0 view .LVU1829
 7209 28cc FA3300E3 		movw	r3, #1018
 7210              	.LVL589:
1018:/home/hkh/git/eapidk-code-r76-trunk/apps/EeePProg/linux/../EeePDB.c ****       EeePWriteBufferToEEP,
 7211              		.loc 1 1018 3 view .LVU1830
 7212 28d0 30209FE5 		ldr	r2, .L469+28
 7213              	.LVL590:
1018:/home/hkh/git/eapidk-code-r76-trunk/apps/EeePProg/linux/../EeePDB.c ****       EeePWriteBufferToEEP,
 7214              		.loc 1 1018 3 view .LVU1831
 7215 28d4 30109FE5 		ldr	r1, .L469+32
 7216              	.LVL591:
1018:/home/hkh/git/eapidk-code-r76-trunk/apps/EeePProg/linux/../EeePDB.c ****       EeePWriteBufferToEEP,
 7217              		.loc 1 1018 3 view .LVU1832
 7218              	.LPIC396:
 7219 28d8 0CC08FE0 		add	ip, pc, ip
 7220              	.LPIC397:
 7221 28dc 00008FE0 		add	r0, pc, r0
 7222              	.LPIC394:
 7223 28e0 02208FE0 		add	r2, pc, r2
 7224              	.LPIC395:
 7225 28e4 01108FE0 		add	r1, pc, r1
 7226 28e8 D7FFFFEA 		b	.L466
 7227              	.L470:
 7228              		.align	2
 7229              	.L469:
 7230 28ec A8000000 		.word	.LC20-(.LPIC401+8)
 7231 28f0 A8000000 		.word	.LC5-(.LPIC402+8)
 7232 28f4 A8000000 		.word	.LC69-(.LPIC399+8)
 7233 28f8 A8000000 		.word	.LC3-(.LPIC400+8)
 7234 28fc 58000000 		.word	.LANCHOR1-(.LPIC403+8)
 7235 2900 20000000 		.word	.LC4-(.LPIC396+8)
 7236 2904 20000000 		.word	.LC5-(.LPIC397+8)
 7237 2908 20000000 		.word	.LC69-(.LPIC394+8)
 7238 290c 20000000 		.word	.LC3-(.LPIC395+8)
 7239              	.LBE491:
 7240              	.LBE490:
 7241              		.cfi_endproc
 7242              	.LFE23:
 7244              		.section	.rodata.str1.4
 7245 0a0d 000000   		.align	2
 7246              	.LC70:
 7247 0a10 45656550 		.ascii	"EeePSetI2CDeviceDesc(&DDesc, BHandel, 5, u16DeviceA"
 7247      53657449 
 7247      32434465 
ARM GAS  /tmp/ccTXisr2.s 			page 175


 7247      76696365 
 7247      44657363 
 7248 0a43 64647229 		.ascii	"ddr)\000"
 7248      00
 7249              		.text
 7250              		.align	2
 7251              		.global	EeePWriteBufferToEEP
 7252              		.syntax unified
 7253              		.arm
 7254              		.fpu vfpv3
 7256              	EeePWriteBufferToEEP:
 7257              	.LVL592:
 7258              	.LFB24:
1042:/home/hkh/git/eapidk-code-r76-trunk/apps/EeePProg/linux/../EeePDB.c **** EApiStatus_t
1043:/home/hkh/git/eapidk-code-r76-trunk/apps/EeePProg/linux/../EeePDB.c **** EeePWriteBufferToEEP(
1044:/home/hkh/git/eapidk-code-r76-trunk/apps/EeePProg/linux/../EeePDB.c ****     __IN  EeePHandel_t   BHandel,
1045:/home/hkh/git/eapidk-code-r76-trunk/apps/EeePProg/linux/../EeePDB.c ****     __IN  unsigned       DeviceBus ,
1046:/home/hkh/git/eapidk-code-r76-trunk/apps/EeePProg/linux/../EeePDB.c ****     __IN  uint16_t       u16DeviceAddr 
1047:/home/hkh/git/eapidk-code-r76-trunk/apps/EeePProg/linux/../EeePDB.c ****     )
1048:/home/hkh/git/eapidk-code-r76-trunk/apps/EeePProg/linux/../EeePDB.c **** {
 7259              		.loc 1 1048 1 is_stmt 1 view -0
 7260              		.cfi_startproc
 7261              		@ args = 0, pretend = 0, frame = 16
 7262              		@ frame_needed = 0, uses_anonymous_args = 0
 7263              		.loc 1 1048 1 is_stmt 0 view .LVU1834
 7264 2910 6CC19FE5 		ldr	ip, .L486
 7265              	.LBB496:
 7266              	.LBB497:
1018:/home/hkh/git/eapidk-code-r76-trunk/apps/EeePProg/linux/../EeePDB.c ****       EeePWriteBufferToEEP,
 7267              		.loc 1 1018 3 view .LVU1835
 7268 2914 003050E2 		subs	r3, r0, #0
 7269              	.LBE497:
 7270              	.LBE496:
 7271              		.loc 1 1048 1 view .LVU1836
 7272 2918 68019FE5 		ldr	r0, .L486+4
 7273              	.LVL593:
 7274              		.loc 1 1048 1 view .LVU1837
 7275 291c 10402DE9 		push	{r4, lr}
 7276              		.cfi_def_cfa_offset 8
 7277              		.cfi_offset 4, -8
 7278              		.cfi_offset 14, -4
 7279 2920 20D04DE2 		sub	sp, sp, #32
 7280              		.cfi_def_cfa_offset 40
 7281              		.loc 1 1048 1 view .LVU1838
 7282              	.LPIC419:
 7283 2924 0CC08FE0 		add	ip, pc, ip
 7284 2928 00009CE7 		ldr	r0, [ip, r0]
 7285 292c 000090E5 		ldr	r0, [r0]
 7286 2930 1C008DE5 		str	r0, [sp, #28]
 7287 2934 0000A0E3 		mov	r0, #0
1049:/home/hkh/git/eapidk-code-r76-trunk/apps/EeePProg/linux/../EeePDB.c ****   EApiStatus_t StatusCode=EAPI_STATUS_SUCCESS;
 7288              		.loc 1 1049 3 is_stmt 1 view .LVU1839
 7289              	.LVL594:
1050:/home/hkh/git/eapidk-code-r76-trunk/apps/EeePProg/linux/../EeePDB.c ****   I2CDeviceDesc_t DDesc;
 7290              		.loc 1 1050 3 view .LVU1840
1051:/home/hkh/git/eapidk-code-r76-trunk/apps/EeePProg/linux/../EeePDB.c ****   DO(EeePSetI2CDeviceDesc(&DDesc, BHandel, 5, u16DeviceAddr));
 7291              		.loc 1 1051 3 view .LVU1841
ARM GAS  /tmp/ccTXisr2.s 			page 176


 7292              		.loc 1 1051 3 view .LVU1842
 7293              	.LBB507:
 7294              	.LBI496:
1010:/home/hkh/git/eapidk-code-r76-trunk/apps/EeePProg/linux/../EeePDB.c ****     __OUT I2CDeviceDesc_t *pDDesc,
 7295              		.loc 1 1010 1 view .LVU1843
 7296              	.LBB500:
1017:/home/hkh/git/eapidk-code-r76-trunk/apps/EeePProg/linux/../EeePDB.c ****   EAPI_APP_ASSERT_PARAMATER_NULL(
 7297              		.loc 1 1017 3 view .LVU1844
1018:/home/hkh/git/eapidk-code-r76-trunk/apps/EeePProg/linux/../EeePDB.c ****       EeePWriteBufferToEEP,
 7298              		.loc 1 1018 3 view .LVU1845
 7299 2938 4500000A 		beq	.L483
1018:/home/hkh/git/eapidk-code-r76-trunk/apps/EeePProg/linux/../EeePDB.c ****       EeePWriteBufferToEEP,
 7300              		.loc 1 1018 3 view .LVU1846
1022:/home/hkh/git/eapidk-code-r76-trunk/apps/EeePProg/linux/../EeePDB.c ****   EAPI_APP_RETURN_ERROR_IF(
 7301              		.loc 1 1022 6 view .LVU1847
1023:/home/hkh/git/eapidk-code-r76-trunk/apps/EeePProg/linux/../EeePDB.c ****       EeePWriteBufferToEEP,
 7302              		.loc 1 1023 3 view .LVU1848
 7303 293c 0100D3E5 		ldrb	r0, [r3, #1]	@ zero_extendqisi2
 7304 2940 330050E3 		cmp	r0, #51
 7305 2944 2700000A 		beq	.L484
 7306              	.L474:
1023:/home/hkh/git/eapidk-code-r76-trunk/apps/EeePProg/linux/../EeePDB.c ****       EeePWriteBufferToEEP,
 7307              		.loc 1 1023 3 view .LVU1849
1023:/home/hkh/git/eapidk-code-r76-trunk/apps/EeePProg/linux/../EeePDB.c ****       EeePWriteBufferToEEP,
 7308              		.loc 1 1023 3 view .LVU1850
 7309 2948 3CE19FE5 		ldr	lr, .L486+8
 7310 294c 0FCCE0E3 		mvn	ip, #3840
 7311 2950 38019FE5 		ldr	r0, .L486+12
 7312 2954 FF3300E3 		movw	r3, #1023
 7313              	.LVL595:
1023:/home/hkh/git/eapidk-code-r76-trunk/apps/EeePProg/linux/../EeePDB.c ****       EeePWriteBufferToEEP,
 7314              		.loc 1 1023 3 is_stmt 0 view .LVU1851
 7315 2958 34219FE5 		ldr	r2, .L486+16
 7316              	.LVL596:
1023:/home/hkh/git/eapidk-code-r76-trunk/apps/EeePProg/linux/../EeePDB.c ****       EeePWriteBufferToEEP,
 7317              		.loc 1 1023 3 view .LVU1852
 7318 295c 34119FE5 		ldr	r1, .L486+20
 7319              	.LVL597:
1023:/home/hkh/git/eapidk-code-r76-trunk/apps/EeePProg/linux/../EeePDB.c ****       EeePWriteBufferToEEP,
 7320              		.loc 1 1023 3 view .LVU1853
 7321              	.LPIC411:
 7322 2960 0EE08FE0 		add	lr, pc, lr
 7323              	.LPIC412:
 7324 2964 00008FE0 		add	r0, pc, r0
 7325              	.LPIC409:
 7326 2968 02208FE0 		add	r2, pc, r2
 7327              	.LPIC410:
 7328 296c 01108FE0 		add	r1, pc, r1
 7329              	.L482:
 7330 2970 01408DE9 		stmib	sp, {r0, lr}
 7331 2974 4500A0E3 		mov	r0, #69
 7332 2978 00C08DE5 		str	ip, [sp]
 7333 297c 0C40A0E1 		mov	r4, ip
 7334 2980 FEFFFFEB 		bl	siFormattedMessage_SC(PLT)
 7335              	.LVL598:
1023:/home/hkh/git/eapidk-code-r76-trunk/apps/EeePProg/linux/../EeePDB.c ****       EeePWriteBufferToEEP,
 7336              		.loc 1 1023 3 is_stmt 1 view .LVU1854
ARM GAS  /tmp/ccTXisr2.s 			page 177


1023:/home/hkh/git/eapidk-code-r76-trunk/apps/EeePProg/linux/../EeePDB.c ****       EeePWriteBufferToEEP,
 7337              		.loc 1 1023 3 view .LVU1855
1023:/home/hkh/git/eapidk-code-r76-trunk/apps/EeePProg/linux/../EeePDB.c ****       EeePWriteBufferToEEP,
 7338              		.loc 1 1023 3 view .LVU1856
1040:/home/hkh/git/eapidk-code-r76-trunk/apps/EeePProg/linux/../EeePDB.c **** }
 7339              		.loc 1 1040 3 view .LVU1857
1040:/home/hkh/git/eapidk-code-r76-trunk/apps/EeePProg/linux/../EeePDB.c **** }
 7340              		.loc 1 1040 3 is_stmt 0 view .LVU1858
 7341              	.LBE500:
 7342              	.LBE507:
 7343              		.loc 1 1051 3 is_stmt 1 view .LVU1859
 7344              		.loc 1 1051 3 view .LVU1860
 7345 2984 10C19FE5 		ldr	ip, .L486+24
 7346 2988 1B3400E3 		movw	r3, #1051
 7347 298c 0C019FE5 		ldr	r0, .L486+28
 7348 2990 0C219FE5 		ldr	r2, .L486+32
 7349 2994 0C119FE5 		ldr	r1, .L486+36
 7350              	.LPIC416:
 7351 2998 0CC08FE0 		add	ip, pc, ip
 7352              	.LPIC417:
 7353 299c 00008FE0 		add	r0, pc, r0
 7354 29a0 00408DE5 		str	r4, [sp]
 7355 29a4 01108DE9 		stmib	sp, {r0, ip}
 7356              	.LPIC414:
 7357 29a8 02208FE0 		add	r2, pc, r2
 7358              	.LPIC415:
 7359 29ac 01108FE0 		add	r1, pc, r1
 7360 29b0 4500A0E3 		mov	r0, #69
 7361 29b4 FEFFFFEB 		bl	siFormattedMessage_SC(PLT)
 7362              	.LVL599:
 7363              		.loc 1 1051 3 view .LVU1861
1052:/home/hkh/git/eapidk-code-r76-trunk/apps/EeePProg/linux/../EeePDB.c ****   StatusCode=EApiAHI2CWriteEeprom(
1053:/home/hkh/git/eapidk-code-r76-trunk/apps/EeePProg/linux/../EeePDB.c ****           DeviceBus, 
1054:/home/hkh/git/eapidk-code-r76-trunk/apps/EeePProg/linux/../EeePDB.c ****           &DDesc, 
1055:/home/hkh/git/eapidk-code-r76-trunk/apps/EeePProg/linux/../EeePDB.c ****           0,
1056:/home/hkh/git/eapidk-code-r76-trunk/apps/EeePProg/linux/../EeePDB.c ****           BHandel, 
1057:/home/hkh/git/eapidk-code-r76-trunk/apps/EeePProg/linux/../EeePDB.c ****           DDesc.DevSize
1058:/home/hkh/git/eapidk-code-r76-trunk/apps/EeePProg/linux/../EeePDB.c ****       );
1059:/home/hkh/git/eapidk-code-r76-trunk/apps/EeePProg/linux/../EeePDB.c **** EAPI_APP_ASSERT_EXIT
1060:/home/hkh/git/eapidk-code-r76-trunk/apps/EeePProg/linux/../EeePDB.c ****   return StatusCode;
 7364              		.loc 1 1060 3 view .LVU1862
 7365              	.L478:
 7366              	.L471:
1048:/home/hkh/git/eapidk-code-r76-trunk/apps/EeePProg/linux/../EeePDB.c ****   EApiStatus_t StatusCode=EAPI_STATUS_SUCCESS;
 7367              		.loc 1 1048 1 is_stmt 0 view .LVU1863
 7368 29b8 EC209FE5 		ldr	r2, .L486+40
1061:/home/hkh/git/eapidk-code-r76-trunk/apps/EeePProg/linux/../EeePDB.c **** }
 7369              		.loc 1 1061 1 view .LVU1864
 7370 29bc C4309FE5 		ldr	r3, .L486+4
1048:/home/hkh/git/eapidk-code-r76-trunk/apps/EeePProg/linux/../EeePDB.c ****   EApiStatus_t StatusCode=EAPI_STATUS_SUCCESS;
 7371              		.loc 1 1048 1 view .LVU1865
 7372              	.LPIC418:
 7373 29c0 02208FE0 		add	r2, pc, r2
 7374              		.loc 1 1061 1 view .LVU1866
 7375 29c4 033092E7 		ldr	r3, [r2, r3]
 7376 29c8 002093E5 		ldr	r2, [r3]
 7377 29cc 1C309DE5 		ldr	r3, [sp, #28]
ARM GAS  /tmp/ccTXisr2.s 			page 178


 7378 29d0 022033E0 		eors	r2, r3, r2
 7379 29d4 0030A0E3 		mov	r3, #0
 7380 29d8 2800001A 		bne	.L485
 7381 29dc 0400A0E1 		mov	r0, r4
 7382 29e0 20D08DE2 		add	sp, sp, #32
 7383              		.cfi_remember_state
 7384              		.cfi_def_cfa_offset 8
 7385              		@ sp needed
 7386 29e4 1080BDE8 		pop	{r4, pc}
 7387              	.LVL600:
 7388              	.L484:
 7389              		.cfi_restore_state
 7390              	.LBB508:
 7391              	.LBB501:
1023:/home/hkh/git/eapidk-code-r76-trunk/apps/EeePProg/linux/../EeePDB.c ****       EeePWriteBufferToEEP,
 7392              		.loc 1 1023 3 view .LVU1867
 7393 29e8 0200D3E5 		ldrb	r0, [r3, #2]	@ zero_extendqisi2
 7394 29ec 500050E3 		cmp	r0, #80
 7395 29f0 D4FFFF1A 		bne	.L474
1023:/home/hkh/git/eapidk-code-r76-trunk/apps/EeePProg/linux/../EeePDB.c ****       EeePWriteBufferToEEP,
 7396              		.loc 1 1023 3 is_stmt 1 view .LVU1868
1032:/home/hkh/git/eapidk-code-r76-trunk/apps/EeePProg/linux/../EeePDB.c ****   pDDesc->DeviceAddr=u16DeviceAddr;
 7397              		.loc 1 1032 6 view .LVU1869
1033:/home/hkh/git/eapidk-code-r76-trunk/apps/EeePProg/linux/../EeePDB.c ****   pDDesc->WRecTimems=WRecTimems;
 7398              		.loc 1 1033 3 view .LVU1870
1035:/home/hkh/git/eapidk-code-r76-trunk/apps/EeePProg/linux/../EeePDB.c ****   pDDesc->ExtIndx   =(uint16_t)((((EeePCmn_t*)BHandel)->DeviceDesc&EEEP_DEVICE_EXT_INDEX)?EApiAPI2C
 7399              		.loc 1 1035 65 is_stmt 0 view .LVU1871
 7400 29f4 05C0D3E5 		ldrb	ip, [r3, #5]	@ zero_extendqisi2
1034:/home/hkh/git/eapidk-code-r76-trunk/apps/EeePProg/linux/../EeePDB.c ****   pDDesc->PageSize  =(uint16_t)WriteSizes[(((EeePCmn_t*)BHandel)->DeviceDesc>>EEEP_DEVICE_WRITE_LEN
 7401              		.loc 1 1034 21 view .LVU1872
 7402 29f8 0500A0E3 		mov	r0, #5
1035:/home/hkh/git/eapidk-code-r76-trunk/apps/EeePProg/linux/../EeePDB.c ****   pDDesc->ExtIndx   =(uint16_t)((((EeePCmn_t*)BHandel)->DeviceDesc&EEEP_DEVICE_EXT_INDEX)?EApiAPI2C
 7403              		.loc 1 1035 42 view .LVU1873
 7404 29fc ACE09FE5 		ldr	lr, .L486+44
1033:/home/hkh/git/eapidk-code-r76-trunk/apps/EeePProg/linux/../EeePDB.c ****   pDDesc->WRecTimems=WRecTimems;
 7405              		.loc 1 1033 21 view .LVU1874
 7406 2a00 B021CDE1 		strh	r2, [sp, #16]	@ movhi
1034:/home/hkh/git/eapidk-code-r76-trunk/apps/EeePProg/linux/../EeePDB.c ****   pDDesc->PageSize  =(uint16_t)WriteSizes[(((EeePCmn_t*)BHandel)->DeviceDesc>>EEEP_DEVICE_WRITE_LEN
 7407              		.loc 1 1034 3 is_stmt 1 view .LVU1875
1035:/home/hkh/git/eapidk-code-r76-trunk/apps/EeePProg/linux/../EeePDB.c ****   pDDesc->ExtIndx   =(uint16_t)((((EeePCmn_t*)BHandel)->DeviceDesc&EEEP_DEVICE_EXT_INDEX)?EApiAPI2C
 7408              		.loc 1 1035 3 view .LVU1876
1036:/home/hkh/git/eapidk-code-r76-trunk/apps/EeePProg/linux/../EeePDB.c ****   pDDesc->DevSize   =256<<(((EeePCmn_t*)BHandel)->DeviceDesc&EEEP_DEVICE_SIZE_MASK);
 7409              		.loc 1 1036 22 is_stmt 0 view .LVU1877
 7410 2a04 10001CE3 		tst	ip, #16
1034:/home/hkh/git/eapidk-code-r76-trunk/apps/EeePProg/linux/../EeePDB.c ****   pDDesc->PageSize  =(uint16_t)WriteSizes[(((EeePCmn_t*)BHandel)->DeviceDesc>>EEEP_DEVICE_WRITE_LEN
 7411              		.loc 1 1034 21 view .LVU1878
 7412 2a08 B601CDE1 		strh	r0, [sp, #22]	@ movhi
1035:/home/hkh/git/eapidk-code-r76-trunk/apps/EeePProg/linux/../EeePDB.c ****   pDDesc->ExtIndx   =(uint16_t)((((EeePCmn_t*)BHandel)->DeviceDesc&EEEP_DEVICE_EXT_INDEX)?EApiAPI2C
 7413              		.loc 1 1035 77 view .LVU1879
 7414 2a0c AC22A0E1 		lsr	r2, ip, #5
 7415              	.LVL601:
1035:/home/hkh/git/eapidk-code-r76-trunk/apps/EeePProg/linux/../EeePDB.c ****   pDDesc->ExtIndx   =(uint16_t)((((EeePCmn_t*)BHandel)->DeviceDesc&EEEP_DEVICE_EXT_INDEX)?EApiAPI2C
 7416              		.loc 1 1035 42 view .LVU1880
 7417              	.LPIC413:
 7418 2a10 0EE08FE0 		add	lr, pc, lr
1037:/home/hkh/git/eapidk-code-r76-trunk/apps/EeePProg/linux/../EeePDB.c **** 
 7419              		.loc 1 1037 61 view .LVU1881
ARM GAS  /tmp/ccTXisr2.s 			page 179


 7420 2a14 0FC00CE2 		and	ip, ip, #15
1035:/home/hkh/git/eapidk-code-r76-trunk/apps/EeePProg/linux/../EeePDB.c ****   pDDesc->ExtIndx   =(uint16_t)((((EeePCmn_t*)BHandel)->DeviceDesc&EEEP_DEVICE_EXT_INDEX)?EApiAPI2C
 7421              		.loc 1 1035 22 view .LVU1882
 7422 2a18 02E19EE7 		ldr	lr, [lr, r2, lsl #2]
1037:/home/hkh/git/eapidk-code-r76-trunk/apps/EeePProg/linux/../EeePDB.c **** 
 7423              		.loc 1 1037 25 view .LVU1883
 7424 2a1c 012CA0E3 		mov	r2, #256
 7425 2a20 122CA0E1 		lsl	r2, r2, ip
 7426              	.LBE501:
 7427              	.LBE508:
1052:/home/hkh/git/eapidk-code-r76-trunk/apps/EeePProg/linux/../EeePDB.c ****           DeviceBus, 
 7428              		.loc 1 1052 14 view .LVU1884
 7429 2a24 0100A0E1 		mov	r0, r1
 7430              	.LBB509:
 7431              	.LBB502:
1036:/home/hkh/git/eapidk-code-r76-trunk/apps/EeePProg/linux/../EeePDB.c ****   pDDesc->DevSize   =256<<(((EeePCmn_t*)BHandel)->DeviceDesc&EEEP_DEVICE_SIZE_MASK);
 7432              		.loc 1 1036 22 view .LVU1885
 7433 2a28 0210A013 		movne	r1, #2
 7434              	.LVL602:
1036:/home/hkh/git/eapidk-code-r76-trunk/apps/EeePProg/linux/../EeePDB.c ****   pDDesc->DevSize   =256<<(((EeePCmn_t*)BHandel)->DeviceDesc&EEEP_DEVICE_SIZE_MASK);
 7435              		.loc 1 1036 22 view .LVU1886
 7436 2a2c 0110A003 		moveq	r1, #1
 7437              	.LBE502:
 7438              	.LBE509:
1052:/home/hkh/git/eapidk-code-r76-trunk/apps/EeePProg/linux/../EeePDB.c ****           DeviceBus, 
 7439              		.loc 1 1052 14 view .LVU1887
 7440 2a30 00208DE5 		str	r2, [sp]
 7441              	.LBB510:
 7442              	.LBB503:
1036:/home/hkh/git/eapidk-code-r76-trunk/apps/EeePProg/linux/../EeePDB.c ****   pDDesc->DevSize   =256<<(((EeePCmn_t*)BHandel)->DeviceDesc&EEEP_DEVICE_SIZE_MASK);
 7443              		.loc 1 1036 21 view .LVU1888
 7444 2a34 B411CDE1 		strh	r1, [sp, #20]	@ movhi
 7445              	.LBE503:
 7446              	.LBE510:
1052:/home/hkh/git/eapidk-code-r76-trunk/apps/EeePProg/linux/../EeePDB.c ****           DeviceBus, 
 7447              		.loc 1 1052 14 view .LVU1889
 7448 2a38 10108DE2 		add	r1, sp, #16
 7449              	.LBB511:
 7450              	.LBB504:
1037:/home/hkh/git/eapidk-code-r76-trunk/apps/EeePProg/linux/../EeePDB.c **** 
 7451              		.loc 1 1037 21 view .LVU1890
 7452 2a3c 18208DE5 		str	r2, [sp, #24]
 7453              	.LBE504:
 7454              	.LBE511:
1052:/home/hkh/git/eapidk-code-r76-trunk/apps/EeePProg/linux/../EeePDB.c ****           DeviceBus, 
 7455              		.loc 1 1052 14 view .LVU1891
 7456 2a40 0020A0E3 		mov	r2, #0
 7457              	.LBB512:
 7458              	.LBB505:
1035:/home/hkh/git/eapidk-code-r76-trunk/apps/EeePProg/linux/../EeePDB.c ****   pDDesc->ExtIndx   =(uint16_t)((((EeePCmn_t*)BHandel)->DeviceDesc&EEEP_DEVICE_EXT_INDEX)?EApiAPI2C
 7459              		.loc 1 1035 22 view .LVU1892
 7460 2a44 B2E1CDE1 		strh	lr, [sp, #18]	@ movhi
1036:/home/hkh/git/eapidk-code-r76-trunk/apps/EeePProg/linux/../EeePDB.c ****   pDDesc->DevSize   =256<<(((EeePCmn_t*)BHandel)->DeviceDesc&EEEP_DEVICE_SIZE_MASK);
 7461              		.loc 1 1036 3 is_stmt 1 view .LVU1893
1037:/home/hkh/git/eapidk-code-r76-trunk/apps/EeePProg/linux/../EeePDB.c **** 
 7462              		.loc 1 1037 3 view .LVU1894
1040:/home/hkh/git/eapidk-code-r76-trunk/apps/EeePProg/linux/../EeePDB.c **** }
ARM GAS  /tmp/ccTXisr2.s 			page 180


 7463              		.loc 1 1040 3 view .LVU1895
 7464              	.LVL603:
1040:/home/hkh/git/eapidk-code-r76-trunk/apps/EeePProg/linux/../EeePDB.c **** }
 7465              		.loc 1 1040 3 is_stmt 0 view .LVU1896
 7466              	.LBE505:
 7467              	.LBE512:
1051:/home/hkh/git/eapidk-code-r76-trunk/apps/EeePProg/linux/../EeePDB.c ****   StatusCode=EApiAHI2CWriteEeprom(
 7468              		.loc 1 1051 3 is_stmt 1 view .LVU1897
1051:/home/hkh/git/eapidk-code-r76-trunk/apps/EeePProg/linux/../EeePDB.c ****   StatusCode=EApiAHI2CWriteEeprom(
 7469              		.loc 1 1051 3 view .LVU1898
1052:/home/hkh/git/eapidk-code-r76-trunk/apps/EeePProg/linux/../EeePDB.c ****           DeviceBus, 
 7470              		.loc 1 1052 3 view .LVU1899
1052:/home/hkh/git/eapidk-code-r76-trunk/apps/EeePProg/linux/../EeePDB.c ****           DeviceBus, 
 7471              		.loc 1 1052 14 is_stmt 0 view .LVU1900
 7472 2a48 FEFFFFEB 		bl	EApiAHI2CWriteEeprom(PLT)
 7473              	.LVL604:
1052:/home/hkh/git/eapidk-code-r76-trunk/apps/EeePProg/linux/../EeePDB.c ****           DeviceBus, 
 7474              		.loc 1 1052 14 view .LVU1901
 7475 2a4c 0040A0E1 		mov	r4, r0
 7476              	.LVL605:
1052:/home/hkh/git/eapidk-code-r76-trunk/apps/EeePProg/linux/../EeePDB.c ****           DeviceBus, 
 7477              		.loc 1 1052 14 view .LVU1902
 7478 2a50 D8FFFFEA 		b	.L471
 7479              	.LVL606:
 7480              	.L483:
 7481              	.LBB513:
 7482              	.LBB506:
 7483              	.LBB498:
 7484              	.LBI498:
1010:/home/hkh/git/eapidk-code-r76-trunk/apps/EeePProg/linux/../EeePDB.c ****     __OUT I2CDeviceDesc_t *pDDesc,
 7485              		.loc 1 1010 1 is_stmt 1 view .LVU1903
 7486              	.LBB499:
1018:/home/hkh/git/eapidk-code-r76-trunk/apps/EeePProg/linux/../EeePDB.c ****       EeePWriteBufferToEEP,
 7487              		.loc 1 1018 3 view .LVU1904
1018:/home/hkh/git/eapidk-code-r76-trunk/apps/EeePProg/linux/../EeePDB.c ****       EeePWriteBufferToEEP,
 7488              		.loc 1 1018 3 view .LVU1905
 7489 2a54 58E09FE5 		ldr	lr, .L486+48
 7490 2a58 01CCE0E3 		mvn	ip, #256
 7491 2a5c 54009FE5 		ldr	r0, .L486+52
 7492 2a60 FA3300E3 		movw	r3, #1018
 7493              	.LVL607:
1018:/home/hkh/git/eapidk-code-r76-trunk/apps/EeePProg/linux/../EeePDB.c ****       EeePWriteBufferToEEP,
 7494              		.loc 1 1018 3 is_stmt 0 view .LVU1906
 7495 2a64 50209FE5 		ldr	r2, .L486+56
 7496              	.LVL608:
1018:/home/hkh/git/eapidk-code-r76-trunk/apps/EeePProg/linux/../EeePDB.c ****       EeePWriteBufferToEEP,
 7497              		.loc 1 1018 3 view .LVU1907
 7498 2a68 50109FE5 		ldr	r1, .L486+60
 7499              	.LVL609:
1018:/home/hkh/git/eapidk-code-r76-trunk/apps/EeePProg/linux/../EeePDB.c ****       EeePWriteBufferToEEP,
 7500              		.loc 1 1018 3 view .LVU1908
 7501              	.LPIC406:
 7502 2a6c 0EE08FE0 		add	lr, pc, lr
 7503              	.LPIC407:
 7504 2a70 00008FE0 		add	r0, pc, r0
 7505              	.LPIC404:
 7506 2a74 02208FE0 		add	r2, pc, r2
ARM GAS  /tmp/ccTXisr2.s 			page 181


 7507              	.LPIC405:
 7508 2a78 01108FE0 		add	r1, pc, r1
 7509 2a7c BBFFFFEA 		b	.L482
 7510              	.LVL610:
 7511              	.L485:
1018:/home/hkh/git/eapidk-code-r76-trunk/apps/EeePProg/linux/../EeePDB.c ****       EeePWriteBufferToEEP,
 7512              		.loc 1 1018 3 view .LVU1909
 7513              	.LBE499:
 7514              	.LBE498:
 7515              	.LBE506:
 7516              	.LBE513:
 7517              		.loc 1 1061 1 view .LVU1910
 7518 2a80 FEFFFFEB 		bl	__stack_chk_fail(PLT)
 7519              	.LVL611:
 7520              	.L487:
 7521              		.align	2
 7522              	.L486:
 7523 2a84 58010000 		.word	_GLOBAL_OFFSET_TABLE_-(.LPIC419+8)
 7524 2a88 00000000 		.word	__stack_chk_guard(GOT)
 7525 2a8c 24010000 		.word	.LC20-(.LPIC411+8)
 7526 2a90 24010000 		.word	.LC5-(.LPIC412+8)
 7527 2a94 24010000 		.word	.LC69-(.LPIC409+8)
 7528 2a98 24010000 		.word	.LC3-(.LPIC410+8)
 7529 2a9c FC000000 		.word	.LC70-(.LPIC416+8)
 7530 2aa0 FC000000 		.word	.LC5-(.LPIC417+8)
 7531 2aa4 F4000000 		.word	.LC25-(.LPIC414+8)
 7532 2aa8 F4000000 		.word	.LC3-(.LPIC415+8)
 7533 2aac E4000000 		.word	_GLOBAL_OFFSET_TABLE_-(.LPIC418+8)
 7534 2ab0 98000000 		.word	.LANCHOR1-(.LPIC413+8)
 7535 2ab4 40000000 		.word	.LC4-(.LPIC406+8)
 7536 2ab8 40000000 		.word	.LC5-(.LPIC407+8)
 7537 2abc 40000000 		.word	.LC69-(.LPIC404+8)
 7538 2ac0 40000000 		.word	.LC3-(.LPIC405+8)
 7539              		.cfi_endproc
 7540              	.LFE24:
 7542              		.section	.rodata.str1.4
 7543              		.align	2
 7544              	.LC71:
 7545 0a48 45656550 		.ascii	"EeePReadBufferFromEEP\000"
 7545      52656164 
 7545      42756666 
 7545      65724672 
 7545      6F6D4545 
 7546 0a5e 0000     		.align	2
 7547              	.LC72:
 7548 0a60 45417069 		.ascii	"EApiAHI2CReadEeprom( DeviceBus, &DDesc, 1, EeePCmnH"
 7548      41484932 
 7548      43526561 
 7548      64456570 
 7548      726F6D28 
 7549 0a93 64722E45 		.ascii	"dr.EepId, sizeof(EeePCmnHdr)- 1, sizeof(EeePCmnHdr)"
 7549      65704964 
 7549      2C207369 
 7549      7A656F66 
 7549      28456565 
 7550 0ac6 2D203120 		.ascii	"- 1 )\000"
 7550      2900
ARM GAS  /tmp/ccTXisr2.s 			page 182


 7551              		.align	2
 7552              	.LC73:
 7553 0acc 45656550 		.ascii	"EeePSetI2CDeviceDesc(&DDesc, &EeePCmnHdr, 5, u16Dev"
 7553      53657449 
 7553      32434465 
 7553      76696365 
 7553      44657363 
 7554 0aff 69636541 		.ascii	"iceAddr)\000"
 7554      64647229 
 7554      00
 7555              		.text
 7556              		.align	2
 7557              		.global	EeePReadBufferFromEEP
 7558              		.syntax unified
 7559              		.arm
 7560              		.fpu vfpv3
 7562              	EeePReadBufferFromEEP:
 7563              	.LVL612:
 7564              	.LFB25:
1062:/home/hkh/git/eapidk-code-r76-trunk/apps/EeePProg/linux/../EeePDB.c **** 
1063:/home/hkh/git/eapidk-code-r76-trunk/apps/EeePProg/linux/../EeePDB.c **** 
1064:/home/hkh/git/eapidk-code-r76-trunk/apps/EeePProg/linux/../EeePDB.c **** EApiStatus_t
1065:/home/hkh/git/eapidk-code-r76-trunk/apps/EeePProg/linux/../EeePDB.c **** EeePReadBufferFromEEP(
1066:/home/hkh/git/eapidk-code-r76-trunk/apps/EeePProg/linux/../EeePDB.c ****     __IN  EeePHandel_t  *pBHandel,
1067:/home/hkh/git/eapidk-code-r76-trunk/apps/EeePProg/linux/../EeePDB.c ****     __IN  unsigned          DeviceBus ,
1068:/home/hkh/git/eapidk-code-r76-trunk/apps/EeePProg/linux/../EeePDB.c ****     __IN  uint16_t       u16DeviceAddr 
1069:/home/hkh/git/eapidk-code-r76-trunk/apps/EeePProg/linux/../EeePDB.c ****     )
1070:/home/hkh/git/eapidk-code-r76-trunk/apps/EeePProg/linux/../EeePDB.c **** {
 7565              		.loc 1 1070 1 is_stmt 1 view -0
 7566              		.cfi_startproc
 7567              		@ args = 0, pretend = 0, frame = 24
 7568              		@ frame_needed = 0, uses_anonymous_args = 0
 7569              		.loc 1 1070 1 is_stmt 0 view .LVU1912
 7570 2ac4 F0472DE9 		push	{r4, r5, r6, r7, r8, r9, r10, lr}
 7571              		.cfi_def_cfa_offset 32
 7572              		.cfi_offset 4, -32
 7573              		.cfi_offset 5, -28
 7574              		.cfi_offset 6, -24
 7575              		.cfi_offset 7, -20
 7576              		.cfi_offset 8, -16
 7577              		.cfi_offset 9, -12
 7578              		.cfi_offset 10, -8
 7579              		.cfi_offset 14, -4
 7580 2ac8 0280A0E1 		mov	r8, r2
 7581 2acc 7C229FE5 		ldr	r2, .L509
 7582              	.LVL613:
1071:/home/hkh/git/eapidk-code-r76-trunk/apps/EeePProg/linux/../EeePDB.c ****   EApiStatus_t StatusCode=EAPI_STATUS_SUCCESS;
1072:/home/hkh/git/eapidk-code-r76-trunk/apps/EeePProg/linux/../EeePDB.c ****   I2CDeviceDesc_t DDesc;
1073:/home/hkh/git/eapidk-code-r76-trunk/apps/EeePProg/linux/../EeePDB.c ****   EeePCmn_t     EeePCmnHdr; 
1074:/home/hkh/git/eapidk-code-r76-trunk/apps/EeePProg/linux/../EeePDB.c ****   size_t        stEEPSize;
1075:/home/hkh/git/eapidk-code-r76-trunk/apps/EeePProg/linux/../EeePDB.c ****   EAPI_APP_ASSERT_PARAMATER_NULL(
 7583              		.loc 1 1075 3 view .LVU1913
 7584 2ad0 006050E2 		subs	r6, r0, #0
1070:/home/hkh/git/eapidk-code-r76-trunk/apps/EeePProg/linux/../EeePDB.c ****   EApiStatus_t StatusCode=EAPI_STATUS_SUCCESS;
 7585              		.loc 1 1070 1 view .LVU1914
 7586 2ad4 28D04DE2 		sub	sp, sp, #40
 7587              		.cfi_def_cfa_offset 72
ARM GAS  /tmp/ccTXisr2.s 			page 183


1070:/home/hkh/git/eapidk-code-r76-trunk/apps/EeePProg/linux/../EeePDB.c ****   EApiStatus_t StatusCode=EAPI_STATUS_SUCCESS;
 7588              		.loc 1 1070 1 view .LVU1915
 7589 2ad8 74329FE5 		ldr	r3, .L509+4
 7590              	.LPIC443:
 7591 2adc 02208FE0 		add	r2, pc, r2
 7592 2ae0 033092E7 		ldr	r3, [r2, r3]
 7593 2ae4 003093E5 		ldr	r3, [r3]
 7594 2ae8 24308DE5 		str	r3, [sp, #36]
 7595 2aec 0030A0E3 		mov	r3, #0
1071:/home/hkh/git/eapidk-code-r76-trunk/apps/EeePProg/linux/../EeePDB.c ****   EApiStatus_t StatusCode=EAPI_STATUS_SUCCESS;
 7596              		.loc 1 1071 3 is_stmt 1 view .LVU1916
 7597              	.LVL614:
1072:/home/hkh/git/eapidk-code-r76-trunk/apps/EeePProg/linux/../EeePDB.c ****   EeePCmn_t     EeePCmnHdr; 
 7598              		.loc 1 1072 3 view .LVU1917
1073:/home/hkh/git/eapidk-code-r76-trunk/apps/EeePProg/linux/../EeePDB.c ****   size_t        stEEPSize;
 7599              		.loc 1 1073 3 view .LVU1918
1074:/home/hkh/git/eapidk-code-r76-trunk/apps/EeePProg/linux/../EeePDB.c ****   EAPI_APP_ASSERT_PARAMATER_NULL(
 7600              		.loc 1 1074 3 view .LVU1919
 7601              		.loc 1 1075 3 view .LVU1920
 7602 2af0 7500000A 		beq	.L504
 7603              		.loc 1 1075 3 discriminator 2 view .LVU1921
1076:/home/hkh/git/eapidk-code-r76-trunk/apps/EeePProg/linux/../EeePDB.c ****         EeePReadBufferFromEEP,
1077:/home/hkh/git/eapidk-code-r76-trunk/apps/EeePProg/linux/../EeePDB.c ****         EAPI_STATUS_INVALID_PARAMETER,
1078:/home/hkh/git/eapidk-code-r76-trunk/apps/EeePProg/linux/../EeePDB.c ****         pBHandel
1079:/home/hkh/git/eapidk-code-r76-trunk/apps/EeePProg/linux/../EeePDB.c ****       );
 7604              		.loc 1 1079 8 discriminator 2 view .LVU1922
1080:/home/hkh/git/eapidk-code-r76-trunk/apps/EeePProg/linux/../EeePDB.c ****   *pBHandel=NULL;
 7605              		.loc 1 1080 3 discriminator 2 view .LVU1923
 7606              		.loc 1 1080 12 is_stmt 0 discriminator 2 view .LVU1924
 7607 2af4 0030A0E3 		mov	r3, #0
 7608 2af8 0170A0E1 		mov	r7, r1
 7609 2afc 003086E5 		str	r3, [r6]
1081:/home/hkh/git/eapidk-code-r76-trunk/apps/EeePProg/linux/../EeePDB.c ****   DDesc.DeviceAddr=u16DeviceAddr;
 7610              		.loc 1 1081 3 is_stmt 1 discriminator 2 view .LVU1925
1082:/home/hkh/git/eapidk-code-r76-trunk/apps/EeePProg/linux/../EeePDB.c ****   DDesc.WRecTimems=5;
1083:/home/hkh/git/eapidk-code-r76-trunk/apps/EeePProg/linux/../EeePDB.c ****   DDesc.PageSize  =1;
1084:/home/hkh/git/eapidk-code-r76-trunk/apps/EeePProg/linux/../EeePDB.c ****   DDesc.ExtIndx   =(uint16_t)EApiAPI2CExtIndex;
 7611              		.loc 1 1084 19 is_stmt 0 discriminator 2 view .LVU1926
 7612 2b00 0230A0E3 		mov	r3, #2
 7613 2b04 053040E3 		movt	r3, 5
1085:/home/hkh/git/eapidk-code-r76-trunk/apps/EeePProg/linux/../EeePDB.c ****   DDesc.DevSize   =sizeof(EeePCmnHdr);
1086:/home/hkh/git/eapidk-code-r76-trunk/apps/EeePProg/linux/../EeePDB.c ****   DO(EApiAHI2CReadEeprom(
 7614              		.loc 1 1086 3 discriminator 2 view .LVU1927
 7615 2b08 0550A0E3 		mov	r5, #5
1084:/home/hkh/git/eapidk-code-r76-trunk/apps/EeePProg/linux/../EeePDB.c ****   DDesc.DevSize   =sizeof(EeePCmnHdr);
 7616              		.loc 1 1084 19 discriminator 2 view .LVU1928
 7617 2b0c 14308DE5 		str	r3, [sp, #20]
 7618              		.loc 1 1086 3 discriminator 2 view .LVU1929
 7619 2b10 1DA08DE2 		add	r10, sp, #29
1085:/home/hkh/git/eapidk-code-r76-trunk/apps/EeePProg/linux/../EeePDB.c ****   DDesc.DevSize   =sizeof(EeePCmnHdr);
 7620              		.loc 1 1085 19 discriminator 2 view .LVU1930
 7621 2b14 0630A0E3 		mov	r3, #6
 7622              		.loc 1 1086 3 discriminator 2 view .LVU1931
 7623 2b18 10908DE2 		add	r9, sp, #16
1083:/home/hkh/git/eapidk-code-r76-trunk/apps/EeePProg/linux/../EeePDB.c ****   DDesc.ExtIndx   =(uint16_t)EApiAPI2CExtIndex;
 7624              		.loc 1 1083 19 discriminator 2 view .LVU1932
 7625 2b1c 0120A0E3 		mov	r2, #1
ARM GAS  /tmp/ccTXisr2.s 			page 184


1085:/home/hkh/git/eapidk-code-r76-trunk/apps/EeePProg/linux/../EeePDB.c ****   DDesc.DevSize   =sizeof(EeePCmnHdr);
 7626              		.loc 1 1085 19 discriminator 2 view .LVU1933
 7627 2b20 18308DE5 		str	r3, [sp, #24]
 7628              		.loc 1 1086 3 discriminator 2 view .LVU1934
 7629 2b24 0910A0E1 		mov	r1, r9
 7630 2b28 0A30A0E1 		mov	r3, r10
 7631 2b2c 0700A0E1 		mov	r0, r7
 7632              	.LVL615:
 7633              		.loc 1 1086 3 discriminator 2 view .LVU1935
 7634 2b30 04508DE5 		str	r5, [sp, #4]
 7635 2b34 00508DE5 		str	r5, [sp]
1081:/home/hkh/git/eapidk-code-r76-trunk/apps/EeePProg/linux/../EeePDB.c ****   DDesc.WRecTimems=5;
 7636              		.loc 1 1081 19 discriminator 2 view .LVU1936
 7637 2b38 B081CDE1 		strh	r8, [sp, #16]	@ movhi
1082:/home/hkh/git/eapidk-code-r76-trunk/apps/EeePProg/linux/../EeePDB.c ****   DDesc.PageSize  =1;
 7638              		.loc 1 1082 3 is_stmt 1 discriminator 2 view .LVU1937
1083:/home/hkh/git/eapidk-code-r76-trunk/apps/EeePProg/linux/../EeePDB.c ****   DDesc.ExtIndx   =(uint16_t)EApiAPI2CExtIndex;
 7639              		.loc 1 1083 3 discriminator 2 view .LVU1938
1084:/home/hkh/git/eapidk-code-r76-trunk/apps/EeePProg/linux/../EeePDB.c ****   DDesc.DevSize   =sizeof(EeePCmnHdr);
 7640              		.loc 1 1084 3 discriminator 2 view .LVU1939
1085:/home/hkh/git/eapidk-code-r76-trunk/apps/EeePProg/linux/../EeePDB.c ****   DO(EApiAHI2CReadEeprom(
 7641              		.loc 1 1085 3 discriminator 2 view .LVU1940
 7642              		.loc 1 1086 3 discriminator 2 view .LVU1941
 7643              		.loc 1 1086 3 discriminator 2 view .LVU1942
1083:/home/hkh/git/eapidk-code-r76-trunk/apps/EeePProg/linux/../EeePDB.c ****   DDesc.ExtIndx   =(uint16_t)EApiAPI2CExtIndex;
 7644              		.loc 1 1083 19 is_stmt 0 discriminator 2 view .LVU1943
 7645 2b3c B221CDE1 		strh	r2, [sp, #18]	@ movhi
 7646              		.loc 1 1086 3 discriminator 2 view .LVU1944
 7647 2b40 FEFFFFEB 		bl	EApiAHI2CReadEeprom(PLT)
 7648              	.LVL616:
 7649              		.loc 1 1086 3 is_stmt 1 discriminator 2 view .LVU1945
 7650 2b44 004050E2 		subs	r4, r0, #0
 7651 2b48 2E00001A 		bne	.L505
 7652              		.loc 1 1086 3 view .LVU1946
1087:/home/hkh/git/eapidk-code-r76-trunk/apps/EeePProg/linux/../EeePDB.c ****           DeviceBus, 
1088:/home/hkh/git/eapidk-code-r76-trunk/apps/EeePProg/linux/../EeePDB.c ****           &DDesc, 
1089:/home/hkh/git/eapidk-code-r76-trunk/apps/EeePProg/linux/../EeePDB.c ****           1,
1090:/home/hkh/git/eapidk-code-r76-trunk/apps/EeePProg/linux/../EeePDB.c ****           EeePCmnHdr.EepId, 
1091:/home/hkh/git/eapidk-code-r76-trunk/apps/EeePProg/linux/../EeePDB.c ****           sizeof(EeePCmnHdr)- 1,
1092:/home/hkh/git/eapidk-code-r76-trunk/apps/EeePProg/linux/../EeePDB.c ****           sizeof(EeePCmnHdr)- 1
1093:/home/hkh/git/eapidk-code-r76-trunk/apps/EeePProg/linux/../EeePDB.c ****       ));
1094:/home/hkh/git/eapidk-code-r76-trunk/apps/EeePProg/linux/../EeePDB.c **** 
1095:/home/hkh/git/eapidk-code-r76-trunk/apps/EeePProg/linux/../EeePDB.c ****   DO(EeePSetI2CDeviceDesc(&DDesc, &EeePCmnHdr, 5, u16DeviceAddr));
 7653              		.loc 1 1095 3 view .LVU1947
 7654              		.loc 1 1095 3 view .LVU1948
 7655              	.LVL617:
 7656              	.LBB518:
 7657              	.LBI518:
1010:/home/hkh/git/eapidk-code-r76-trunk/apps/EeePProg/linux/../EeePDB.c ****     __OUT I2CDeviceDesc_t *pDDesc,
 7658              		.loc 1 1010 1 view .LVU1949
 7659              	.LBB519:
1017:/home/hkh/git/eapidk-code-r76-trunk/apps/EeePProg/linux/../EeePDB.c ****   EAPI_APP_ASSERT_PARAMATER_NULL(
 7660              		.loc 1 1017 3 view .LVU1950
1018:/home/hkh/git/eapidk-code-r76-trunk/apps/EeePProg/linux/../EeePDB.c ****       EeePWriteBufferToEEP,
 7661              		.loc 1 1018 3 view .LVU1951
1018:/home/hkh/git/eapidk-code-r76-trunk/apps/EeePProg/linux/../EeePDB.c ****       EeePWriteBufferToEEP,
 7662              		.loc 1 1018 3 view .LVU1952
ARM GAS  /tmp/ccTXisr2.s 			page 185


1022:/home/hkh/git/eapidk-code-r76-trunk/apps/EeePProg/linux/../EeePDB.c ****   EAPI_APP_RETURN_ERROR_IF(
 7663              		.loc 1 1022 6 view .LVU1953
1023:/home/hkh/git/eapidk-code-r76-trunk/apps/EeePProg/linux/../EeePDB.c ****       EeePWriteBufferToEEP,
 7664              		.loc 1 1023 3 view .LVU1954
 7665 2b4c 1D30DDE5 		ldrb	r3, [sp, #29]	@ zero_extendqisi2
 7666 2b50 330053E3 		cmp	r3, #51
 7667 2b54 3A00000A 		beq	.L506
 7668              	.L493:
1023:/home/hkh/git/eapidk-code-r76-trunk/apps/EeePProg/linux/../EeePDB.c ****       EeePWriteBufferToEEP,
 7669              		.loc 1 1023 3 view .LVU1955
1023:/home/hkh/git/eapidk-code-r76-trunk/apps/EeePProg/linux/../EeePDB.c ****       EeePWriteBufferToEEP,
 7670              		.loc 1 1023 3 view .LVU1956
 7671 2b58 F8719FE5 		ldr	r7, .L509+8
 7672              	.LVL618:
1023:/home/hkh/git/eapidk-code-r76-trunk/apps/EeePProg/linux/../EeePDB.c ****       EeePWriteBufferToEEP,
 7673              		.loc 1 1023 3 is_stmt 0 view .LVU1957
 7674 2b5c 0F4CE0E3 		mvn	r4, #3840
 7675 2b60 F4519FE5 		ldr	r5, .L509+12
 7676 2b64 4500A0E3 		mov	r0, #69
 7677              	.LVL619:
1023:/home/hkh/git/eapidk-code-r76-trunk/apps/EeePProg/linux/../EeePDB.c ****       EeePWriteBufferToEEP,
 7678              		.loc 1 1023 3 view .LVU1958
 7679 2b68 F0319FE5 		ldr	r3, .L509+16
 7680 2b6c F0219FE5 		ldr	r2, .L509+20
 7681              	.LPIC430:
 7682 2b70 07708FE0 		add	r7, pc, r7
 7683              	.LPIC432:
 7684 2b74 05508FE0 		add	r5, pc, r5
 7685 2b78 0710A0E1 		mov	r1, r7
 7686              	.LPIC431:
 7687 2b7c 03308FE0 		add	r3, pc, r3
 7688 2b80 F040CDE1 		strd	r4, [sp]
 7689              	.LPIC429:
 7690 2b84 02208FE0 		add	r2, pc, r2
 7691 2b88 08308DE5 		str	r3, [sp, #8]
 7692 2b8c FF3300E3 		movw	r3, #1023
 7693 2b90 FEFFFFEB 		bl	siFormattedMessage_SC(PLT)
 7694              	.LVL620:
1023:/home/hkh/git/eapidk-code-r76-trunk/apps/EeePProg/linux/../EeePDB.c ****       EeePWriteBufferToEEP,
 7695              		.loc 1 1023 3 is_stmt 1 view .LVU1959
1023:/home/hkh/git/eapidk-code-r76-trunk/apps/EeePProg/linux/../EeePDB.c ****       EeePWriteBufferToEEP,
 7696              		.loc 1 1023 3 view .LVU1960
1023:/home/hkh/git/eapidk-code-r76-trunk/apps/EeePProg/linux/../EeePDB.c ****       EeePWriteBufferToEEP,
 7697              		.loc 1 1023 3 view .LVU1961
1040:/home/hkh/git/eapidk-code-r76-trunk/apps/EeePProg/linux/../EeePDB.c **** }
 7698              		.loc 1 1040 3 view .LVU1962
1040:/home/hkh/git/eapidk-code-r76-trunk/apps/EeePProg/linux/../EeePDB.c **** }
 7699              		.loc 1 1040 3 is_stmt 0 view .LVU1963
 7700              	.LBE519:
 7701              	.LBE518:
 7702              		.loc 1 1095 3 is_stmt 1 view .LVU1964
 7703              		.loc 1 1095 3 view .LVU1965
 7704 2b94 CC219FE5 		ldr	r2, .L509+24
 7705 2b98 0710A0E1 		mov	r1, r7
 7706 2b9c 473400E3 		movw	r3, #1095
 7707 2ba0 4500A0E3 		mov	r0, #69
 7708 2ba4 04508DE5 		str	r5, [sp, #4]
ARM GAS  /tmp/ccTXisr2.s 			page 186


 7709              	.LPIC435:
 7710 2ba8 02208FE0 		add	r2, pc, r2
 7711 2bac 00408DE5 		str	r4, [sp]
 7712 2bb0 08208DE5 		str	r2, [sp, #8]
 7713 2bb4 B0219FE5 		ldr	r2, .L509+28
 7714              	.LPIC433:
 7715 2bb8 02208FE0 		add	r2, pc, r2
 7716 2bbc FEFFFFEB 		bl	siFormattedMessage_SC(PLT)
 7717              	.LVL621:
 7718              		.loc 1 1095 3 view .LVU1966
 7719              	.L492:
1096:/home/hkh/git/eapidk-code-r76-trunk/apps/EeePProg/linux/../EeePDB.c **** 
1097:/home/hkh/git/eapidk-code-r76-trunk/apps/EeePProg/linux/../EeePDB.c ****   stEEPSize=256<<(EeePCmnHdr.DeviceDesc&EEEP_DEVICE_SIZE_MASK);
1098:/home/hkh/git/eapidk-code-r76-trunk/apps/EeePProg/linux/../EeePDB.c ****   *pBHandel=malloc(stEEPSize);
1099:/home/hkh/git/eapidk-code-r76-trunk/apps/EeePProg/linux/../EeePDB.c **** 
1100:/home/hkh/git/eapidk-code-r76-trunk/apps/EeePProg/linux/../EeePDB.c ****   EAPI_APP_ASSERT_PARAMATER_NULL(
1101:/home/hkh/git/eapidk-code-r76-trunk/apps/EeePProg/linux/../EeePDB.c ****         EeePReadBufferFromEEP,
1102:/home/hkh/git/eapidk-code-r76-trunk/apps/EeePProg/linux/../EeePDB.c ****         EAPI_STATUS_ALLOC_ERROR,
1103:/home/hkh/git/eapidk-code-r76-trunk/apps/EeePProg/linux/../EeePDB.c ****         *pBHandel
1104:/home/hkh/git/eapidk-code-r76-trunk/apps/EeePProg/linux/../EeePDB.c ****       );
1105:/home/hkh/git/eapidk-code-r76-trunk/apps/EeePProg/linux/../EeePDB.c ****   StatusCode=EApiAHI2CReadEeprom(
1106:/home/hkh/git/eapidk-code-r76-trunk/apps/EeePProg/linux/../EeePDB.c ****           DeviceBus, 
1107:/home/hkh/git/eapidk-code-r76-trunk/apps/EeePProg/linux/../EeePDB.c ****           &DDesc, 
1108:/home/hkh/git/eapidk-code-r76-trunk/apps/EeePProg/linux/../EeePDB.c ****           0,
1109:/home/hkh/git/eapidk-code-r76-trunk/apps/EeePProg/linux/../EeePDB.c ****           *pBHandel, 
1110:/home/hkh/git/eapidk-code-r76-trunk/apps/EeePProg/linux/../EeePDB.c ****           stEEPSize,
1111:/home/hkh/git/eapidk-code-r76-trunk/apps/EeePProg/linux/../EeePDB.c ****           stEEPSize
1112:/home/hkh/git/eapidk-code-r76-trunk/apps/EeePProg/linux/../EeePDB.c ****       );
1113:/home/hkh/git/eapidk-code-r76-trunk/apps/EeePProg/linux/../EeePDB.c **** EAPI_APP_ASSERT_EXIT
1114:/home/hkh/git/eapidk-code-r76-trunk/apps/EeePProg/linux/../EeePDB.c ****   if(!EAPI_TEST_SUCCESS(StatusCode)){
1115:/home/hkh/git/eapidk-code-r76-trunk/apps/EeePProg/linux/../EeePDB.c ****     if(pBHandel!=NULL&&*pBHandel!=NULL)free(*pBHandel);
 7720              		.loc 1 1115 5 view .LVU1967
 7721              		.loc 1 1115 24 is_stmt 0 view .LVU1968
 7722 2bc0 000096E5 		ldr	r0, [r6]
 7723              		.loc 1 1115 22 view .LVU1969
 7724 2bc4 000050E3 		cmp	r0, #0
 7725 2bc8 0000000A 		beq	.L490
 7726              		.loc 1 1115 40 is_stmt 1 discriminator 2 view .LVU1970
 7727 2bcc FEFFFFEB 		bl	free(PLT)
 7728              	.LVL622:
 7729              	.L490:
1116:/home/hkh/git/eapidk-code-r76-trunk/apps/EeePProg/linux/../EeePDB.c ****     *pBHandel=NULL;
 7730              		.loc 1 1116 5 view .LVU1971
 7731              		.loc 1 1116 14 is_stmt 0 view .LVU1972
 7732 2bd0 0030A0E3 		mov	r3, #0
 7733 2bd4 003086E5 		str	r3, [r6]
1117:/home/hkh/git/eapidk-code-r76-trunk/apps/EeePProg/linux/../EeePDB.c ****   }
1118:/home/hkh/git/eapidk-code-r76-trunk/apps/EeePProg/linux/../EeePDB.c ****   return StatusCode;
 7734              		.loc 1 1118 3 is_stmt 1 view .LVU1973
 7735              	.L488:
1070:/home/hkh/git/eapidk-code-r76-trunk/apps/EeePProg/linux/../EeePDB.c ****   EApiStatus_t StatusCode=EAPI_STATUS_SUCCESS;
 7736              		.loc 1 1070 1 is_stmt 0 view .LVU1974
 7737 2bd8 90219FE5 		ldr	r2, .L509+32
1119:/home/hkh/git/eapidk-code-r76-trunk/apps/EeePProg/linux/../EeePDB.c **** }
 7738              		.loc 1 1119 1 view .LVU1975
 7739 2bdc 70319FE5 		ldr	r3, .L509+4
1070:/home/hkh/git/eapidk-code-r76-trunk/apps/EeePProg/linux/../EeePDB.c ****   EApiStatus_t StatusCode=EAPI_STATUS_SUCCESS;
ARM GAS  /tmp/ccTXisr2.s 			page 187


 7740              		.loc 1 1070 1 view .LVU1976
 7741              	.LPIC442:
 7742 2be0 02208FE0 		add	r2, pc, r2
 7743              		.loc 1 1119 1 view .LVU1977
 7744 2be4 033092E7 		ldr	r3, [r2, r3]
 7745 2be8 002093E5 		ldr	r2, [r3]
 7746 2bec 24309DE5 		ldr	r3, [sp, #36]
 7747 2bf0 022033E0 		eors	r2, r3, r2
 7748 2bf4 0030A0E3 		mov	r3, #0
 7749 2bf8 4300001A 		bne	.L507
 7750 2bfc 0400A0E1 		mov	r0, r4
 7751 2c00 28D08DE2 		add	sp, sp, #40
 7752              		.cfi_remember_state
 7753              		.cfi_def_cfa_offset 32
 7754              		@ sp needed
 7755 2c04 F087BDE8 		pop	{r4, r5, r6, r7, r8, r9, r10, pc}
 7756              	.LVL623:
 7757              	.L505:
 7758              		.cfi_restore_state
1086:/home/hkh/git/eapidk-code-r76-trunk/apps/EeePProg/linux/../EeePDB.c ****           DeviceBus, 
 7759              		.loc 1 1086 3 is_stmt 1 discriminator 1 view .LVU1978
 7760 2c08 64119FE5 		ldr	r1, .L509+36
 7761 2c0c 3E3400E3 		movw	r3, #1086
 7762 2c10 60019FE5 		ldr	r0, .L509+40
 7763              	.LVL624:
1086:/home/hkh/git/eapidk-code-r76-trunk/apps/EeePProg/linux/../EeePDB.c ****           DeviceBus, 
 7764              		.loc 1 1086 3 is_stmt 0 discriminator 1 view .LVU1979
 7765 2c14 60219FE5 		ldr	r2, .L509+44
 7766              	.LPIC427:
 7767 2c18 01108FE0 		add	r1, pc, r1
 7768 2c1c 00408DE5 		str	r4, [sp]
 7769 2c20 04108DE5 		str	r1, [sp, #4]
 7770              	.LPIC426:
 7771 2c24 00008FE0 		add	r0, pc, r0
 7772 2c28 50119FE5 		ldr	r1, .L509+48
 7773              	.LPIC424:
 7774 2c2c 02208FE0 		add	r2, pc, r2
 7775 2c30 08008DE5 		str	r0, [sp, #8]
 7776 2c34 4500A0E3 		mov	r0, #69
 7777              	.LPIC425:
 7778 2c38 01108FE0 		add	r1, pc, r1
 7779 2c3c FEFFFFEB 		bl	siFormattedMessage_SC(PLT)
 7780              	.LVL625:
1086:/home/hkh/git/eapidk-code-r76-trunk/apps/EeePProg/linux/../EeePDB.c ****           DeviceBus, 
 7781              		.loc 1 1086 3 is_stmt 1 discriminator 1 view .LVU1980
 7782 2c40 DEFFFFEA 		b	.L492
 7783              	.LVL626:
 7784              	.L506:
 7785              	.LBB523:
 7786              	.LBB520:
1023:/home/hkh/git/eapidk-code-r76-trunk/apps/EeePProg/linux/../EeePDB.c ****       EeePWriteBufferToEEP,
 7787              		.loc 1 1023 3 is_stmt 0 view .LVU1981
 7788 2c44 0130DAE5 		ldrb	r3, [r10, #1]	@ zero_extendqisi2
 7789 2c48 500053E3 		cmp	r3, #80
 7790 2c4c C1FFFF1A 		bne	.L493
1023:/home/hkh/git/eapidk-code-r76-trunk/apps/EeePProg/linux/../EeePDB.c ****       EeePWriteBufferToEEP,
 7791              		.loc 1 1023 3 is_stmt 1 view .LVU1982
ARM GAS  /tmp/ccTXisr2.s 			page 188


1032:/home/hkh/git/eapidk-code-r76-trunk/apps/EeePProg/linux/../EeePDB.c ****   pDDesc->DeviceAddr=u16DeviceAddr;
 7792              		.loc 1 1032 6 view .LVU1983
1033:/home/hkh/git/eapidk-code-r76-trunk/apps/EeePProg/linux/../EeePDB.c ****   pDDesc->WRecTimems=WRecTimems;
 7793              		.loc 1 1033 3 view .LVU1984
1035:/home/hkh/git/eapidk-code-r76-trunk/apps/EeePProg/linux/../EeePDB.c ****   pDDesc->ExtIndx   =(uint16_t)((((EeePCmn_t*)BHandel)->DeviceDesc&EEEP_DEVICE_EXT_INDEX)?EApiAPI2C
 7794              		.loc 1 1035 65 is_stmt 0 view .LVU1985
 7795 2c50 2130DDE5 		ldrb	r3, [sp, #33]	@ zero_extendqisi2
1035:/home/hkh/git/eapidk-code-r76-trunk/apps/EeePProg/linux/../EeePDB.c ****   pDDesc->ExtIndx   =(uint16_t)((((EeePCmn_t*)BHandel)->DeviceDesc&EEEP_DEVICE_EXT_INDEX)?EApiAPI2C
 7796              		.loc 1 1035 42 view .LVU1986
 7797 2c54 28219FE5 		ldr	r2, .L509+52
1034:/home/hkh/git/eapidk-code-r76-trunk/apps/EeePProg/linux/../EeePDB.c ****   pDDesc->PageSize  =(uint16_t)WriteSizes[(((EeePCmn_t*)BHandel)->DeviceDesc>>EEEP_DEVICE_WRITE_LEN
 7798              		.loc 1 1034 21 view .LVU1987
 7799 2c58 B651CDE1 		strh	r5, [sp, #22]	@ movhi
1037:/home/hkh/git/eapidk-code-r76-trunk/apps/EeePProg/linux/../EeePDB.c **** 
 7800              		.loc 1 1037 25 view .LVU1988
 7801 2c5c 015CA0E3 		mov	r5, #256
1036:/home/hkh/git/eapidk-code-r76-trunk/apps/EeePProg/linux/../EeePDB.c ****   pDDesc->DevSize   =256<<(((EeePCmn_t*)BHandel)->DeviceDesc&EEEP_DEVICE_SIZE_MASK);
 7802              		.loc 1 1036 22 view .LVU1989
 7803 2c60 100013E3 		tst	r3, #16
1033:/home/hkh/git/eapidk-code-r76-trunk/apps/EeePProg/linux/../EeePDB.c ****   pDDesc->WRecTimems=WRecTimems;
 7804              		.loc 1 1033 21 view .LVU1990
 7805 2c64 B081CDE1 		strh	r8, [sp, #16]	@ movhi
1034:/home/hkh/git/eapidk-code-r76-trunk/apps/EeePProg/linux/../EeePDB.c ****   pDDesc->PageSize  =(uint16_t)WriteSizes[(((EeePCmn_t*)BHandel)->DeviceDesc>>EEEP_DEVICE_WRITE_LEN
 7806              		.loc 1 1034 3 is_stmt 1 view .LVU1991
1035:/home/hkh/git/eapidk-code-r76-trunk/apps/EeePProg/linux/../EeePDB.c ****   pDDesc->ExtIndx   =(uint16_t)((((EeePCmn_t*)BHandel)->DeviceDesc&EEEP_DEVICE_EXT_INDEX)?EApiAPI2C
 7807              		.loc 1 1035 3 view .LVU1992
1035:/home/hkh/git/eapidk-code-r76-trunk/apps/EeePProg/linux/../EeePDB.c ****   pDDesc->ExtIndx   =(uint16_t)((((EeePCmn_t*)BHandel)->DeviceDesc&EEEP_DEVICE_EXT_INDEX)?EApiAPI2C
 7808              		.loc 1 1035 77 is_stmt 0 view .LVU1993
 7809 2c68 A312A0E1 		lsr	r1, r3, #5
1035:/home/hkh/git/eapidk-code-r76-trunk/apps/EeePProg/linux/../EeePDB.c ****   pDDesc->ExtIndx   =(uint16_t)((((EeePCmn_t*)BHandel)->DeviceDesc&EEEP_DEVICE_EXT_INDEX)?EApiAPI2C
 7810              		.loc 1 1035 42 view .LVU1994
 7811              	.LPIC437:
 7812 2c6c 02208FE0 		add	r2, pc, r2
1037:/home/hkh/git/eapidk-code-r76-trunk/apps/EeePProg/linux/../EeePDB.c **** 
 7813              		.loc 1 1037 61 view .LVU1995
 7814 2c70 0F3003E2 		and	r3, r3, #15
1037:/home/hkh/git/eapidk-code-r76-trunk/apps/EeePProg/linux/../EeePDB.c **** 
 7815              		.loc 1 1037 25 view .LVU1996
 7816 2c74 1553A0E1 		lsl	r5, r5, r3
1035:/home/hkh/git/eapidk-code-r76-trunk/apps/EeePProg/linux/../EeePDB.c ****   pDDesc->ExtIndx   =(uint16_t)((((EeePCmn_t*)BHandel)->DeviceDesc&EEEP_DEVICE_EXT_INDEX)?EApiAPI2C
 7817              		.loc 1 1035 22 view .LVU1997
 7818 2c78 012192E7 		ldr	r2, [r2, r1, lsl #2]
1036:/home/hkh/git/eapidk-code-r76-trunk/apps/EeePProg/linux/../EeePDB.c ****   pDDesc->DevSize   =256<<(((EeePCmn_t*)BHandel)->DeviceDesc&EEEP_DEVICE_SIZE_MASK);
 7819              		.loc 1 1036 22 view .LVU1998
 7820 2c7c 0230A013 		movne	r3, #2
 7821 2c80 0130A003 		moveq	r3, #1
 7822              	.LBE520:
 7823              	.LBE523:
1098:/home/hkh/git/eapidk-code-r76-trunk/apps/EeePProg/linux/../EeePDB.c **** 
 7824              		.loc 1 1098 13 view .LVU1999
 7825 2c84 0500A0E1 		mov	r0, r5
 7826              	.LVL627:
 7827              	.LBB524:
 7828              	.LBB521:
1036:/home/hkh/git/eapidk-code-r76-trunk/apps/EeePProg/linux/../EeePDB.c ****   pDDesc->DevSize   =256<<(((EeePCmn_t*)BHandel)->DeviceDesc&EEEP_DEVICE_SIZE_MASK);
 7829              		.loc 1 1036 21 view .LVU2000
 7830 2c88 B431CDE1 		strh	r3, [sp, #20]	@ movhi
ARM GAS  /tmp/ccTXisr2.s 			page 189


1035:/home/hkh/git/eapidk-code-r76-trunk/apps/EeePProg/linux/../EeePDB.c ****   pDDesc->ExtIndx   =(uint16_t)((((EeePCmn_t*)BHandel)->DeviceDesc&EEEP_DEVICE_EXT_INDEX)?EApiAPI2C
 7831              		.loc 1 1035 22 view .LVU2001
 7832 2c8c B221CDE1 		strh	r2, [sp, #18]	@ movhi
1036:/home/hkh/git/eapidk-code-r76-trunk/apps/EeePProg/linux/../EeePDB.c ****   pDDesc->DevSize   =256<<(((EeePCmn_t*)BHandel)->DeviceDesc&EEEP_DEVICE_SIZE_MASK);
 7833              		.loc 1 1036 3 is_stmt 1 view .LVU2002
1037:/home/hkh/git/eapidk-code-r76-trunk/apps/EeePProg/linux/../EeePDB.c **** 
 7834              		.loc 1 1037 3 view .LVU2003
1040:/home/hkh/git/eapidk-code-r76-trunk/apps/EeePProg/linux/../EeePDB.c **** }
 7835              		.loc 1 1040 3 view .LVU2004
 7836              	.LVL628:
1040:/home/hkh/git/eapidk-code-r76-trunk/apps/EeePProg/linux/../EeePDB.c **** }
 7837              		.loc 1 1040 3 is_stmt 0 view .LVU2005
 7838              	.LBE521:
 7839              	.LBE524:
1095:/home/hkh/git/eapidk-code-r76-trunk/apps/EeePProg/linux/../EeePDB.c **** 
 7840              		.loc 1 1095 3 is_stmt 1 view .LVU2006
1095:/home/hkh/git/eapidk-code-r76-trunk/apps/EeePProg/linux/../EeePDB.c **** 
 7841              		.loc 1 1095 3 view .LVU2007
1097:/home/hkh/git/eapidk-code-r76-trunk/apps/EeePProg/linux/../EeePDB.c ****   *pBHandel=malloc(stEEPSize);
 7842              		.loc 1 1097 3 view .LVU2008
1098:/home/hkh/git/eapidk-code-r76-trunk/apps/EeePProg/linux/../EeePDB.c **** 
 7843              		.loc 1 1098 3 view .LVU2009
 7844              	.LBB525:
 7845              	.LBB522:
1037:/home/hkh/git/eapidk-code-r76-trunk/apps/EeePProg/linux/../EeePDB.c **** 
 7846              		.loc 1 1037 21 is_stmt 0 view .LVU2010
 7847 2c90 18508DE5 		str	r5, [sp, #24]
 7848              	.LBE522:
 7849              	.LBE525:
1098:/home/hkh/git/eapidk-code-r76-trunk/apps/EeePProg/linux/../EeePDB.c **** 
 7850              		.loc 1 1098 13 view .LVU2011
 7851 2c94 FEFFFFEB 		bl	malloc(PLT)
 7852              	.LVL629:
1100:/home/hkh/git/eapidk-code-r76-trunk/apps/EeePProg/linux/../EeePDB.c ****         EeePReadBufferFromEEP,
 7853              		.loc 1 1100 3 view .LVU2012
 7854 2c98 000050E3 		cmp	r0, #0
1098:/home/hkh/git/eapidk-code-r76-trunk/apps/EeePProg/linux/../EeePDB.c **** 
 7855              		.loc 1 1098 13 view .LVU2013
 7856 2c9c 0030A0E1 		mov	r3, r0
1098:/home/hkh/git/eapidk-code-r76-trunk/apps/EeePProg/linux/../EeePDB.c **** 
 7857              		.loc 1 1098 12 view .LVU2014
 7858 2ca0 000086E5 		str	r0, [r6]
1100:/home/hkh/git/eapidk-code-r76-trunk/apps/EeePProg/linux/../EeePDB.c ****         EeePReadBufferFromEEP,
 7859              		.loc 1 1100 3 is_stmt 1 view .LVU2015
 7860 2ca4 1900000A 		beq	.L508
1100:/home/hkh/git/eapidk-code-r76-trunk/apps/EeePProg/linux/../EeePDB.c ****         EeePReadBufferFromEEP,
 7861              		.loc 1 1100 3 discriminator 2 view .LVU2016
1104:/home/hkh/git/eapidk-code-r76-trunk/apps/EeePProg/linux/../EeePDB.c ****   StatusCode=EApiAHI2CReadEeprom(
 7862              		.loc 1 1104 8 discriminator 2 view .LVU2017
1105:/home/hkh/git/eapidk-code-r76-trunk/apps/EeePProg/linux/../EeePDB.c ****           DeviceBus, 
 7863              		.loc 1 1105 3 discriminator 2 view .LVU2018
1105:/home/hkh/git/eapidk-code-r76-trunk/apps/EeePProg/linux/../EeePDB.c ****           DeviceBus, 
 7864              		.loc 1 1105 14 is_stmt 0 discriminator 2 view .LVU2019
 7865 2ca8 0420A0E1 		mov	r2, r4
 7866 2cac 0910A0E1 		mov	r1, r9
 7867 2cb0 0700A0E1 		mov	r0, r7
 7868 2cb4 04508DE5 		str	r5, [sp, #4]
ARM GAS  /tmp/ccTXisr2.s 			page 190


 7869 2cb8 00508DE5 		str	r5, [sp]
 7870 2cbc FEFFFFEB 		bl	EApiAHI2CReadEeprom(PLT)
 7871              	.LVL630:
 7872              	.LDL35:
1114:/home/hkh/git/eapidk-code-r76-trunk/apps/EeePProg/linux/../EeePDB.c ****     if(pBHandel!=NULL&&*pBHandel!=NULL)free(*pBHandel);
 7873              		.loc 1 1114 3 is_stmt 1 discriminator 2 view .LVU2020
1114:/home/hkh/git/eapidk-code-r76-trunk/apps/EeePProg/linux/../EeePDB.c ****     if(pBHandel!=NULL&&*pBHandel!=NULL)free(*pBHandel);
 7874              		.loc 1 1114 5 is_stmt 0 discriminator 2 view .LVU2021
 7875 2cc0 004050E2 		subs	r4, r0, #0
 7876 2cc4 C3FFFF0A 		beq	.L488
 7877 2cc8 BCFFFFEA 		b	.L492
 7878              	.LVL631:
 7879              	.L504:
1075:/home/hkh/git/eapidk-code-r76-trunk/apps/EeePProg/linux/../EeePDB.c ****         EeePReadBufferFromEEP,
 7880              		.loc 1 1075 3 is_stmt 1 discriminator 1 view .LVU2022
1075:/home/hkh/git/eapidk-code-r76-trunk/apps/EeePProg/linux/../EeePDB.c ****         EeePReadBufferFromEEP,
 7881              		.loc 1 1075 3 discriminator 1 view .LVU2023
 7882 2ccc B4109FE5 		ldr	r1, .L509+56
 7883              	.LVL632:
1075:/home/hkh/git/eapidk-code-r76-trunk/apps/EeePProg/linux/../EeePDB.c ****         EeePReadBufferFromEEP,
 7884              		.loc 1 1075 3 is_stmt 0 discriminator 1 view .LVU2024
 7885 2cd0 014CE0E3 		mvn	r4, #256
 7886 2cd4 B0209FE5 		ldr	r2, .L509+60
 7887 2cd8 333400E3 		movw	r3, #1075
 7888 2cdc 00408DE5 		str	r4, [sp]
 7889 2ce0 4500A0E3 		mov	r0, #69
 7890              	.LVL633:
1075:/home/hkh/git/eapidk-code-r76-trunk/apps/EeePProg/linux/../EeePDB.c ****         EeePReadBufferFromEEP,
 7891              		.loc 1 1075 3 discriminator 1 view .LVU2025
 7892              	.LPIC422:
 7893 2ce4 01108FE0 		add	r1, pc, r1
 7894              	.LPIC423:
 7895 2ce8 02208FE0 		add	r2, pc, r2
 7896 2cec 08108DE5 		str	r1, [sp, #8]
 7897 2cf0 04208DE5 		str	r2, [sp, #4]
 7898 2cf4 94109FE5 		ldr	r1, .L509+64
 7899 2cf8 94209FE5 		ldr	r2, .L509+68
 7900              	.LPIC421:
 7901 2cfc 01108FE0 		add	r1, pc, r1
 7902              	.LPIC420:
 7903 2d00 02208FE0 		add	r2, pc, r2
 7904 2d04 FEFFFFEB 		bl	siFormattedMessage_SC(PLT)
 7905              	.LVL634:
1075:/home/hkh/git/eapidk-code-r76-trunk/apps/EeePProg/linux/../EeePDB.c ****         EeePReadBufferFromEEP,
 7906              		.loc 1 1075 3 is_stmt 1 discriminator 1 view .LVU2026
1075:/home/hkh/git/eapidk-code-r76-trunk/apps/EeePProg/linux/../EeePDB.c ****         EeePReadBufferFromEEP,
 7907              		.loc 1 1075 3 discriminator 1 view .LVU2027
1075:/home/hkh/git/eapidk-code-r76-trunk/apps/EeePProg/linux/../EeePDB.c ****         EeePReadBufferFromEEP,
 7908              		.loc 1 1075 3 discriminator 1 view .LVU2028
1114:/home/hkh/git/eapidk-code-r76-trunk/apps/EeePProg/linux/../EeePDB.c ****     if(pBHandel!=NULL&&*pBHandel!=NULL)free(*pBHandel);
 7909              		.loc 1 1114 3 discriminator 1 view .LVU2029
1115:/home/hkh/git/eapidk-code-r76-trunk/apps/EeePProg/linux/../EeePDB.c ****     *pBHandel=NULL;
 7910              		.loc 1 1115 5 discriminator 1 view .LVU2030
 7911 2d08 B0FFFFEA 		b	.L490
 7912              	.LVL635:
 7913              	.L507:
 7914              		.loc 1 1119 1 is_stmt 0 view .LVU2031
ARM GAS  /tmp/ccTXisr2.s 			page 191


 7915 2d0c FEFFFFEB 		bl	__stack_chk_fail(PLT)
 7916              	.LVL636:
 7917              	.L508:
1100:/home/hkh/git/eapidk-code-r76-trunk/apps/EeePProg/linux/../EeePDB.c ****         EeePReadBufferFromEEP,
 7918              		.loc 1 1100 3 is_stmt 1 discriminator 1 view .LVU2032
1100:/home/hkh/git/eapidk-code-r76-trunk/apps/EeePProg/linux/../EeePDB.c ****         EeePReadBufferFromEEP,
 7919              		.loc 1 1100 3 discriminator 1 view .LVU2033
 7920 2d10 80109FE5 		ldr	r1, .L509+72
 7921 2d14 0240E0E3 		mvn	r4, #2
 7922 2d18 7C209FE5 		ldr	r2, .L509+76
 7923 2d1c 4C3400E3 		movw	r3, #1100
 7924 2d20 00408DE5 		str	r4, [sp]
 7925 2d24 4500A0E3 		mov	r0, #69
 7926              	.LPIC440:
 7927 2d28 01108FE0 		add	r1, pc, r1
 7928              	.LPIC441:
 7929 2d2c 02208FE0 		add	r2, pc, r2
 7930 2d30 08108DE5 		str	r1, [sp, #8]
 7931 2d34 04208DE5 		str	r2, [sp, #4]
 7932 2d38 60109FE5 		ldr	r1, .L509+80
 7933 2d3c 60209FE5 		ldr	r2, .L509+84
 7934              	.LPIC439:
 7935 2d40 01108FE0 		add	r1, pc, r1
 7936              	.LPIC438:
 7937 2d44 02208FE0 		add	r2, pc, r2
 7938 2d48 FEFFFFEB 		bl	siFormattedMessage_SC(PLT)
 7939              	.LVL637:
1100:/home/hkh/git/eapidk-code-r76-trunk/apps/EeePProg/linux/../EeePDB.c ****         EeePReadBufferFromEEP,
 7940              		.loc 1 1100 3 discriminator 1 view .LVU2034
1100:/home/hkh/git/eapidk-code-r76-trunk/apps/EeePProg/linux/../EeePDB.c ****         EeePReadBufferFromEEP,
 7941              		.loc 1 1100 3 discriminator 1 view .LVU2035
1100:/home/hkh/git/eapidk-code-r76-trunk/apps/EeePProg/linux/../EeePDB.c ****         EeePReadBufferFromEEP,
 7942              		.loc 1 1100 3 discriminator 1 view .LVU2036
1114:/home/hkh/git/eapidk-code-r76-trunk/apps/EeePProg/linux/../EeePDB.c ****     if(pBHandel!=NULL&&*pBHandel!=NULL)free(*pBHandel);
 7943              		.loc 1 1114 3 discriminator 1 view .LVU2037
 7944 2d4c 9BFFFFEA 		b	.L492
 7945              	.L510:
 7946              		.align	2
 7947              	.L509:
 7948 2d50 6C020000 		.word	_GLOBAL_OFFSET_TABLE_-(.LPIC443+8)
 7949 2d54 00000000 		.word	__stack_chk_guard(GOT)
 7950 2d58 E0010000 		.word	.LC3-(.LPIC430+8)
 7951 2d5c E0010000 		.word	.LC5-(.LPIC432+8)
 7952 2d60 DC010000 		.word	.LC20-(.LPIC431+8)
 7953 2d64 D8010000 		.word	.LC69-(.LPIC429+8)
 7954 2d68 B8010000 		.word	.LC73-(.LPIC435+8)
 7955 2d6c AC010000 		.word	.LC25-(.LPIC433+8)
 7956 2d70 88010000 		.word	_GLOBAL_OFFSET_TABLE_-(.LPIC442+8)
 7957 2d74 54010000 		.word	.LC5-(.LPIC427+8)
 7958 2d78 4C010000 		.word	.LC72-(.LPIC426+8)
 7959 2d7c 48010000 		.word	.LC25-(.LPIC424+8)
 7960 2d80 40010000 		.word	.LC3-(.LPIC425+8)
 7961 2d84 10010000 		.word	.LANCHOR1-(.LPIC437+8)
 7962 2d88 9C000000 		.word	.LC16-(.LPIC422+8)
 7963 2d8c 9C000000 		.word	.LC5-(.LPIC423+8)
 7964 2d90 8C000000 		.word	.LC3-(.LPIC421+8)
 7965 2d94 8C000000 		.word	.LC71-(.LPIC420+8)
ARM GAS  /tmp/ccTXisr2.s 			page 192


 7966 2d98 68000000 		.word	.LC24-(.LPIC440+8)
 7967 2d9c 68000000 		.word	.LC5-(.LPIC441+8)
 7968 2da0 58000000 		.word	.LC3-(.LPIC439+8)
 7969 2da4 58000000 		.word	.LC71-(.LPIC438+8)
 7970              		.cfi_endproc
 7971              	.LFE25:
 7973              		.global	WriteSizes
 7974              		.global	BlockIdLookup
 7975              		.section	.rodata.str1.4
 7976              		.align	2
 7977              	.LC74:
 7978 0b08 45454550 		.ascii	"EEEP_BLOCK_ID_UNUSED\000"
 7978      5F424C4F 
 7978      434B5F49 
 7978      445F554E 
 7978      55534544 
 7979 0b1d 000000   		.align	2
 7980              	.LC75:
 7981 0b20 45454550 		.ascii	"EEEP_BLOCK_ID_VENDOR_SPECIFIC\000"
 7981      5F424C4F 
 7981      434B5F49 
 7981      445F5645 
 7981      4E444F52 
 7982 0b3e 0000     		.align	2
 7983              	.LC76:
 7984 0b40 45454550 		.ascii	"EEEP_BLOCK_ID_EXP_EEPROM\000"
 7984      5F424C4F 
 7984      434B5F49 
 7984      445F4558 
 7984      505F4545 
 7985 0b59 000000   		.align	2
 7986              	.LC77:
 7987 0b5c 45454550 		.ascii	"EEEP_BLOCK_ID_SMBIOS\000"
 7987      5F424C4F 
 7987      434B5F49 
 7987      445F534D 
 7987      42494F53 
 7988 0b71 000000   		.align	2
 7989              	.LC78:
 7990 0b74 45454550 		.ascii	"EEEP_BLOCK_ID_LFP\000"
 7990      5F424C4F 
 7990      434B5F49 
 7990      445F4C46 
 7990      5000
 7991 0b86 0000     		.align	2
 7992              	.LC79:
 7993 0b88 45454550 		.ascii	"EEEP_BLOCK_ID_CRC_CHK\000"
 7993      5F424C4F 
 7993      434B5F49 
 7993      445F4352 
 7993      435F4348 
 7994 0b9e 0000     		.align	2
 7995              	.LC80:
 7996 0ba0 45454550 		.ascii	"EEEP_BLOCK_ID_IGNORE\000"
 7996      5F424C4F 
 7996      434B5F49 
 7996      445F4947 
ARM GAS  /tmp/ccTXisr2.s 			page 193


 7996      4E4F5245 
 7997 0bb5 000000   		.align	2
 7998              	.LC81:
 7999 0bb8 434F4D30 		.ascii	"COM0R20_BLOCK_ID_EXP_CARD_DESC\000"
 7999      5232305F 
 7999      424C4F43 
 7999      4B5F4944 
 7999      5F455850 
 8000 0bd7 00       		.align	2
 8001              	.LC82:
 8002 0bd8 434F4D30 		.ascii	"COM0R20_BLOCK_ID_SERIO_DESC\000"
 8002      5232305F 
 8002      424C4F43 
 8002      4B5F4944 
 8002      5F534552 
 8003              		.data
 8004              		.align	2
 8005              		.set	.LANCHOR1,. + 0
 8008              	WriteSizes:
 8009 0000 01000000 		.word	1
 8010 0004 08000000 		.word	8
 8011 0008 10000000 		.word	16
 8012 000c 20000000 		.word	32
 8013 0010 40000000 		.word	64
 8014 0014 80000000 		.word	128
 8015 0018 00010000 		.word	256
 8016 001c 00020000 		.word	512
 8017              		.section	.data.rel.local,"aw"
 8018              		.align	2
 8019              		.set	.LANCHOR0,. + 0
 8022              	BlockIdLookup:
 8023 0000 080B0000 		.word	.LC74
 8024 0004 00000000 		.word	0
 8025 0008 200B0000 		.word	.LC75
 8026 000c F0000000 		.word	240
 8027 0010 400B0000 		.word	.LC76
 8028 0014 F1000000 		.word	241
 8029 0018 5C0B0000 		.word	.LC77
 8030 001c D0000000 		.word	208
 8031 0020 740B0000 		.word	.LC78
 8032 0024 D1000000 		.word	209
 8033 0028 880B0000 		.word	.LC79
 8034 002c F2000000 		.word	242
 8035 0030 A00B0000 		.word	.LC80
 8036 0034 FF000000 		.word	255
 8037 0038 B80B0000 		.word	.LC81
 8038 003c E0000000 		.word	224
 8039 0040 D80B0000 		.word	.LC82
 8040 0044 E1000000 		.word	225
 8041 0048 00000000 		.word	0
 8042 004c 00000000 		.word	0
 8043              		.text
 8044              	.Letext0:
 8045              		.file 2 "/home/hkh/buildroot-2022.02/output/host/arm-buildroot-linux-musleabihf/sysroot/usr/includ
 8046              		.file 3 "../../../include/EApi.h"
 8047              		.file 4 "../../include/EApiAHI2C.h"
 8048              		.file 5 "../BinFuncs.h"
ARM GAS  /tmp/ccTXisr2.s 			page 194


 8049              		.file 6 "../../../include/EeeP.h"
 8050              		.file 7 "../EeePDB.h"
 8051              		.file 8 "/home/hkh/buildroot-2022.02/output/host/arm-buildroot-linux-musleabihf/sysroot/usr/includ
 8052              		.file 9 "/home/hkh/buildroot-2022.02/output/host/arm-buildroot-linux-musleabihf/sysroot/usr/includ
 8053              		.file 10 "/home/hkh/buildroot-2022.02/output/host/arm-buildroot-linux-musleabihf/sysroot/usr/inclu
 8054              		.file 11 "../EeePApp.h"
 8055              		.file 12 "../../include/DbgChk.h"
 8056              		.file 13 "../../include/EApiAHStr.h"
 8057              		.file 14 "<built-in>"
ARM GAS  /tmp/ccTXisr2.s 			page 195


DEFINED SYMBOLS
                            *ABS*:0000000000000000 EeePDB.c
     /tmp/ccTXisr2.s:17     .rodata.str1.4:0000000000000000 $d
     /tmp/ccTXisr2.s:18     .rodata.str1.4:0000000000000000 .LC0
     /tmp/ccTXisr2.s:21     .rodata.str1.4:0000000000000004 .LC1
     /tmp/ccTXisr2.s:24     .text:0000000000000000 $a
     /tmp/ccTXisr2.s:33     .text:0000000000000000 GetString
     /tmp/ccTXisr2.s:112    .text:0000000000000064 $d
     /tmp/ccTXisr2.s:117    .text:000000000000006c $a
     /tmp/ccTXisr2.s:123    .text:000000000000006c GetDBlckIdString
     /tmp/ccTXisr2.s:214    .text:00000000000000c8 $d
     /tmp/ccTXisr2.s:220    .text:00000000000000d4 $a
     /tmp/ccTXisr2.s:226    .text:00000000000000d4 EeePAdjLength
     /tmp/ccTXisr2.s:252    .text:00000000000000e0 EeePAlignLength
     /tmp/ccTXisr2.s:274    .rodata.str1.4:0000000000000010 .LC2
     /tmp/ccTXisr2.s:277    .rodata.str1.4:0000000000000020 .LC3
     /tmp/ccTXisr2.s:281    .rodata.str1.4:0000000000000064 .LC4
     /tmp/ccTXisr2.s:284    .rodata.str1.4:0000000000000074 .LC5
     /tmp/ccTXisr2.s:287    .rodata.str1.4:0000000000000078 .LC6
     /tmp/ccTXisr2.s:290    .rodata.str1.4:0000000000000098 .LC7
     /tmp/ccTXisr2.s:299    .text:00000000000000ec SetBlockLength
     /tmp/ccTXisr2.s:445    .text:00000000000001c8 $d
     /tmp/ccTXisr2.s:462    .text:00000000000001f8 $a
     /tmp/ccTXisr2.s:468    .text:00000000000001f8 GetBlockLength
     /tmp/ccTXisr2.s:516    .rodata.str1.4:00000000000000c8 .LC8
     /tmp/ccTXisr2.s:519    .rodata.str1.4:00000000000000d8 .LC9
     /tmp/ccTXisr2.s:528    .text:0000000000000214 GetNextBlock
     /tmp/ccTXisr2.s:654    .text:000000000000028c $d
     /tmp/ccTXisr2.s:665    .rodata.str1.4:00000000000000ec .LC10
     /tmp/ccTXisr2.s:668    .text:000000000000029c $a
     /tmp/ccTXisr2.s:674    .text:000000000000029c SetDynBlockHeader
     /tmp/ccTXisr2.s:860    .text:000000000000037c $d
     /tmp/ccTXisr2.s:879    .rodata.str1.4:00000000000000fc .LC11
     /tmp/ccTXisr2.s:882    .rodata.str1.4:0000000000000110 .LC12
     /tmp/ccTXisr2.s:885    .rodata.str1.4:0000000000000124 .LC13
     /tmp/ccTXisr2.s:888    .rodata.str1.4:0000000000000138 .LC14
     /tmp/ccTXisr2.s:892    .text:00000000000003ac $a
     /tmp/ccTXisr2.s:898    .text:00000000000003ac ReduceBlockLength
     /tmp/ccTXisr2.s:1354   .text:000000000000059c $d
     /tmp/ccTXisr2.s:1377   .rodata.str1.4:0000000000000188 .LC15
     /tmp/ccTXisr2.s:1380   .rodata.str1.4:0000000000000198 .LC16
     /tmp/ccTXisr2.s:1383   .text:00000000000005dc $a
     /tmp/ccTXisr2.s:1389   .text:00000000000005dc EeePFreeBuffer
     /tmp/ccTXisr2.s:1472   .text:0000000000000650 $d
     /tmp/ccTXisr2.s:1481   .rodata.str1.4:00000000000001ac .LC17
     /tmp/ccTXisr2.s:1484   .rodata.str1.4:00000000000001bc .LC18
     /tmp/ccTXisr2.s:1487   .rodata.str1.4:00000000000001d0 .LC19
     /tmp/ccTXisr2.s:1490   .rodata.str1.4:00000000000001d4 .LC20
     /tmp/ccTXisr2.s:1493   .text:0000000000000660 $a
     /tmp/ccTXisr2.s:1499   .text:0000000000000660 EeePGetFirstDB
     /tmp/ccTXisr2.s:1691   .text:000000000000077c $d
     /tmp/ccTXisr2.s:1708   .rodata.str1.4:00000000000001e8 .LC21
     /tmp/ccTXisr2.s:1711   .rodata.str1.4:00000000000001fc .LC22
     /tmp/ccTXisr2.s:1714   .rodata.str1.4:0000000000000210 .LC23
     /tmp/ccTXisr2.s:1717   .rodata.str1.4:0000000000000234 .LC24
     /tmp/ccTXisr2.s:1720   .rodata.str1.4:0000000000000248 .LC25
     /tmp/ccTXisr2.s:1723   .rodata.str1.4:000000000000024c .LC26
ARM GAS  /tmp/ccTXisr2.s 			page 196


     /tmp/ccTXisr2.s:1726   .rodata.str1.4:0000000000000280 .LC27
     /tmp/ccTXisr2.s:1731   .rodata.str1.4:00000000000002f4 .LC28
     /tmp/ccTXisr2.s:1736   .rodata.str1.4:000000000000035c .LC29
     /tmp/ccTXisr2.s:1740   .rodata.str1.4:00000000000003ac .LC30
     /tmp/ccTXisr2.s:1744   .rodata.str1.4:0000000000000400 .LC31
     /tmp/ccTXisr2.s:1748   .text:00000000000007ac $a
     /tmp/ccTXisr2.s:1754   .text:00000000000007ac EeePCreateNewBuffer
     /tmp/ccTXisr2.s:2477   .text:0000000000000b70 $d
     /tmp/ccTXisr2.s:2530   .rodata.str1.4:0000000000000454 .LC32
     /tmp/ccTXisr2.s:2533   .rodata.str1.4:0000000000000464 .LC33
     /tmp/ccTXisr2.s:2536   .rodata.str1.4:0000000000000498 .LC34
     /tmp/ccTXisr2.s:2539   .rodata.str1.4:00000000000004b4 .LC35
     /tmp/ccTXisr2.s:2542   .rodata.str1.4:00000000000004e4 .LC36
     /tmp/ccTXisr2.s:2545   .text:0000000000000c30 $a
     /tmp/ccTXisr2.s:2551   .text:0000000000000c30 EeePMapBuffer
     /tmp/ccTXisr2.s:3061   .text:0000000000000efc $d
     /tmp/ccTXisr2.s:3097   .rodata.str1.4:0000000000000508 .LC37
     /tmp/ccTXisr2.s:3100   .rodata.str1.4:0000000000000518 .LC38
     /tmp/ccTXisr2.s:3103   .rodata.str1.4:0000000000000534 .LC39
     /tmp/ccTXisr2.s:3106   .rodata.str1.4:0000000000000548 .LC40
     /tmp/ccTXisr2.s:3109   .rodata.str1.4:0000000000000560 .LC41
     /tmp/ccTXisr2.s:3113   .rodata.str1.4:00000000000005b0 .LC42
     /tmp/ccTXisr2.s:3116   .text:0000000000000f78 $a
     /tmp/ccTXisr2.s:3122   .text:0000000000000f78 EeePListBlocks
     /tmp/ccTXisr2.s:3824   .text:0000000000001318 $d
     /tmp/ccTXisr2.s:3867   .rodata.str1.4:00000000000005d4 .LC43
     /tmp/ccTXisr2.s:3870   .rodata.str1.4:00000000000005e0 .LC44
     /tmp/ccTXisr2.s:3873   .rodata.str1.4:0000000000000604 .LC45
     /tmp/ccTXisr2.s:3876   .rodata.str1.4:000000000000061c .LC46
     /tmp/ccTXisr2.s:3879   .rodata.str1.4:0000000000000638 .LC47
     /tmp/ccTXisr2.s:3884   .rodata.str1.4:00000000000006b0 .LC48
     /tmp/ccTXisr2.s:3888   .text:00000000000013b0 $a
     /tmp/ccTXisr2.s:3894   .text:00000000000013b0 EeePSetCRC
     /tmp/ccTXisr2.s:4159   .text:00000000000015ac $d
     /tmp/ccTXisr2.s:4193   .rodata.str1.4:00000000000006ec .LC49
     /tmp/ccTXisr2.s:4196   .rodata.str1.4:00000000000006fc .LC50
     /tmp/ccTXisr2.s:4200   .text:0000000000001620 $a
     /tmp/ccTXisr2.s:4206   .text:0000000000001620 EeePCheckCRC
     /tmp/ccTXisr2.s:4477   .text:0000000000001824 $d
     /tmp/ccTXisr2.s:4511   .rodata.str1.4:0000000000000738 .LC51
     /tmp/ccTXisr2.s:4514   .rodata.str1.4:0000000000000748 .LC52
     /tmp/ccTXisr2.s:4517   .rodata.str1.4:000000000000075c .LC53
     /tmp/ccTXisr2.s:4520   .rodata.str1.4:0000000000000774 .LC54
     /tmp/ccTXisr2.s:4524   .rodata.str1.4:00000000000007c8 .LC55
     /tmp/ccTXisr2.s:4528   .rodata.str1.4:0000000000000808 .LC56
     /tmp/ccTXisr2.s:4532   .rodata.str1.4:0000000000000850 .LC57
     /tmp/ccTXisr2.s:4536   .text:0000000000001898 $a
     /tmp/ccTXisr2.s:4542   .text:0000000000001898 EeePAddBlock
     /tmp/ccTXisr2.s:5095   .text:0000000000001bbc $d
     /tmp/ccTXisr2.s:5135   .rodata.str1.4:00000000000008b4 .LC58
     /tmp/ccTXisr2.s:5138   .rodata.str1.4:00000000000008c4 .LC59
     /tmp/ccTXisr2.s:5141   .rodata.str1.4:00000000000008d8 .LC60
     /tmp/ccTXisr2.s:5144   .rodata.str1.4:00000000000008e8 .LC61
     /tmp/ccTXisr2.s:5147   .text:0000000000001c48 $a
     /tmp/ccTXisr2.s:5153   .text:0000000000001c48 EeePFindBlock
     /tmp/ccTXisr2.s:5591   .text:0000000000001e8c $d
     /tmp/ccTXisr2.s:5623   .rodata.str1.4:00000000000008f8 .LC62
ARM GAS  /tmp/ccTXisr2.s 			page 197


     /tmp/ccTXisr2.s:5626   .text:0000000000001ef8 $a
     /tmp/ccTXisr2.s:5632   .text:0000000000001ef8 EeePFindVendorBlock
     /tmp/ccTXisr2.s:6094   .text:0000000000002194 $d
     /tmp/ccTXisr2.s:6130   .rodata.str1.4:000000000000090c .LC63
     /tmp/ccTXisr2.s:6133   .text:0000000000002210 $a
     /tmp/ccTXisr2.s:6139   .text:0000000000002210 EeePFindSmbiosBlock
     /tmp/ccTXisr2.s:6561   .text:000000000000246c $d
     /tmp/ccTXisr2.s:6593   .rodata.str1.4:0000000000000920 .LC64
     /tmp/ccTXisr2.s:6596   .rodata.str1.4:0000000000000938 .LC65
     /tmp/ccTXisr2.s:6599   .text:00000000000024d8 $a
     /tmp/ccTXisr2.s:6605   .text:00000000000024d8 EeePWriteBufferToFile
     /tmp/ccTXisr2.s:6761   .text:00000000000025c8 $d
     /tmp/ccTXisr2.s:6778   .rodata.str1.4:000000000000094c .LC66
     /tmp/ccTXisr2.s:6781   .rodata.str1.4:0000000000000964 .LC67
     /tmp/ccTXisr2.s:6785   .rodata.str1.4:000000000000099c .LC68
     /tmp/ccTXisr2.s:6789   .text:00000000000025f8 $a
     /tmp/ccTXisr2.s:6795   .text:00000000000025f8 EeePReadBufferFromFile
     /tmp/ccTXisr2.s:7027   .text:00000000000027a8 $d
     /tmp/ccTXisr2.s:7055   .rodata.str1.4:00000000000009f8 .LC69
     /tmp/ccTXisr2.s:7058   .text:0000000000002804 $a
     /tmp/ccTXisr2.s:7064   .text:0000000000002804 EeePSetI2CDeviceDesc
     /tmp/ccTXisr2.s:7230   .text:00000000000028ec $d
     /tmp/ccTXisr2.s:7246   .rodata.str1.4:0000000000000a10 .LC70
     /tmp/ccTXisr2.s:7250   .text:0000000000002910 $a
     /tmp/ccTXisr2.s:7256   .text:0000000000002910 EeePWriteBufferToEEP
     /tmp/ccTXisr2.s:7523   .text:0000000000002a84 $d
     /tmp/ccTXisr2.s:7544   .rodata.str1.4:0000000000000a48 .LC71
     /tmp/ccTXisr2.s:7547   .rodata.str1.4:0000000000000a60 .LC72
     /tmp/ccTXisr2.s:7552   .rodata.str1.4:0000000000000acc .LC73
     /tmp/ccTXisr2.s:7556   .text:0000000000002ac4 $a
     /tmp/ccTXisr2.s:7562   .text:0000000000002ac4 EeePReadBufferFromEEP
     /tmp/ccTXisr2.s:7948   .text:0000000000002d50 $d
     /tmp/ccTXisr2.s:8008   .data:0000000000000000 WriteSizes
     /tmp/ccTXisr2.s:8022   .data.rel.local:0000000000000000 BlockIdLookup
     /tmp/ccTXisr2.s:8004   .data:0000000000000000 $d
     /tmp/ccTXisr2.s:8018   .data.rel.local:0000000000000000 $d

UNDEFINED SYMBOLS
EApiSprintf
EeeP_Set16BitValue_BE
siFormattedMessage_SC
EeeP_Get16BitValue_BE
memmove
free
calloc
__stack_chk_fail
_GLOBAL_OFFSET_TABLE_
__stack_chk_guard
printf
PrintHexAsciiTable
CRC_CCITT
memcpy
memset
WriteBinaryFile
ReadBinaryFile
EApiAHI2CWriteEeprom
EApiAHI2CReadEeprom
ARM GAS  /tmp/ccTXisr2.s 			page 198


malloc
