ARM GAS  /tmp/ccqui9DH.s 			page 1


   1              		.cpu cortex-a9
   2              		.eabi_attribute 28, 1
   3              		.eabi_attribute 20, 1
   4              		.eabi_attribute 21, 1
   5              		.eabi_attribute 23, 3
   6              		.eabi_attribute 24, 1
   7              		.eabi_attribute 25, 1
   8              		.eabi_attribute 26, 2
   9              		.eabi_attribute 30, 2
  10              		.eabi_attribute 34, 1
  11              		.eabi_attribute 18, 4
  12              		.file	"EeePProg.c"
  13              		.text
  14              	.Ltext0:
  15              		.cfi_sections	.debug_frame
  16              		.section	.rodata.str1.4,"aMS",%progbits,1
  17              		.align	2
  18              	.LC0:
  19 0000 54422000 		.ascii	"TB \000"
  20              		.align	2
  21              	.LC1:
  22 0004 2F686F6D 		.ascii	"/home/hkh/git/eapidk-code-r76-trunk/apps/EeePProg/l"
  22      652F686B 
  22      682F6769 
  22      742F6561 
  22      7069646B 
  23 0037 696E7578 		.ascii	"inux/../EeePProg.c\000"
  23      2F2E2E2F 
  23      45656550 
  23      50726F67 
  23      2E6300
  24 004a 0000     		.align	2
  25              	.LC2:
  26 004c 45656550 		.ascii	"EeeP_CreateCOM0R20_CBImage( &BHandel , *(char**)pAr"
  26      5F437265 
  26      61746543 
  26      4F4D3052 
  26      32305F43 
  27 007f 67446174 		.ascii	"gData )\000"
  27      61202900 
  28 0087 00       		.align	2
  29              	.LC3:
  30 0088 25730A00 		.ascii	"%s\012\000"
  31              		.align	2
  32              	.LC4:
  33 008c 45656550 		.ascii	"EeePWriteBufferToEEP(BHandel, EAPI_ID_I2C_EXTERNAL,"
  33      57726974 
  33      65427566 
  33      66657254 
  33      6F454550 
  34 00bf 20434F4D 		.ascii	" COM0R20_CB_EEP_DEV_ADDR)\000"
  34      30523230 
  34      5F43425F 
  34      4545505F 
  34      4445565F 
  35              		.text
  36              		.align	2
ARM GAS  /tmp/ccqui9DH.s 			page 2


  37              		.global	CMD_CreateCOM0R20CB_EEP
  38              		.arch armv7-a
  39              		.arch_extension mp
  40              		.arch_extension sec
  41              		.syntax unified
  42              		.arm
  43              		.fpu vfpv3
  45              	CMD_CreateCOM0R20CB_EEP:
  46              	.LVL0:
  47              	.LFB6:
  48              		.file 1 "/home/hkh/git/eapidk-code-r76-trunk/apps/EeePProg/linux/../EeePProg.c"
   1:/home/hkh/git/eapidk-code-r76-trunk/apps/EeePProg/linux/../EeePProg.c **** /*
   2:/home/hkh/git/eapidk-code-r76-trunk/apps/EeePProg/linux/../EeePProg.c ****  *<KHeader>
   3:/home/hkh/git/eapidk-code-r76-trunk/apps/EeePProg/linux/../EeePProg.c ****  *+=========================================================================
   4:/home/hkh/git/eapidk-code-r76-trunk/apps/EeePProg/linux/../EeePProg.c ****  *I  Project Name: EApiDK Embedded Application Development Kit
   5:/home/hkh/git/eapidk-code-r76-trunk/apps/EeePProg/linux/../EeePProg.c ****  *+=========================================================================
   6:/home/hkh/git/eapidk-code-r76-trunk/apps/EeePProg/linux/../EeePProg.c ****  *I  $HeadURL: file:///svn/p/eapidk/code/trunk/apps/EeePProg/EeePProg.c $
   7:/home/hkh/git/eapidk-code-r76-trunk/apps/EeePProg/linux/../EeePProg.c ****  *+=========================================================================
   8:/home/hkh/git/eapidk-code-r76-trunk/apps/EeePProg/linux/../EeePProg.c ****  *I   Copyright: Copyright (c) 2002-2010, Kontron Embedded Modules GmbH
   9:/home/hkh/git/eapidk-code-r76-trunk/apps/EeePProg/linux/../EeePProg.c ****  *I      Author: John Kearney,                  John.Kearney@kontron.com
  10:/home/hkh/git/eapidk-code-r76-trunk/apps/EeePProg/linux/../EeePProg.c ****  *I
  11:/home/hkh/git/eapidk-code-r76-trunk/apps/EeePProg/linux/../EeePProg.c ****  *I     License: All rights reserved. This program and the accompanying 
  12:/home/hkh/git/eapidk-code-r76-trunk/apps/EeePProg/linux/../EeePProg.c ****  *I              materials are licensed and made available under the 
  13:/home/hkh/git/eapidk-code-r76-trunk/apps/EeePProg/linux/../EeePProg.c ****  *I              terms and conditions of the BSD License which 
  14:/home/hkh/git/eapidk-code-r76-trunk/apps/EeePProg/linux/../EeePProg.c ****  *I              accompanies this distribution. The full text of the 
  15:/home/hkh/git/eapidk-code-r76-trunk/apps/EeePProg/linux/../EeePProg.c ****  *I              license may be found at 
  16:/home/hkh/git/eapidk-code-r76-trunk/apps/EeePProg/linux/../EeePProg.c ****  *I              http://opensource.org/licenses/bsd-license.php
  17:/home/hkh/git/eapidk-code-r76-trunk/apps/EeePProg/linux/../EeePProg.c ****  *I              
  18:/home/hkh/git/eapidk-code-r76-trunk/apps/EeePProg/linux/../EeePProg.c ****  *I              THE PROGRAM IS DISTRIBUTED UNDER THE BSD LICENSE ON AN "
  19:/home/hkh/git/eapidk-code-r76-trunk/apps/EeePProg/linux/../EeePProg.c ****  *I              AS IS" BASIS, WITHOUT WARRANTIES OR REPRESENTATIONS OF 
  20:/home/hkh/git/eapidk-code-r76-trunk/apps/EeePProg/linux/../EeePProg.c ****  *I              ANY KIND, EITHER EXPRESS OR IMPLIED.
  21:/home/hkh/git/eapidk-code-r76-trunk/apps/EeePProg/linux/../EeePProg.c ****  *I
  22:/home/hkh/git/eapidk-code-r76-trunk/apps/EeePProg/linux/../EeePProg.c ****  *I Description: Auto Created for EApiValidateAPI.c
  23:/home/hkh/git/eapidk-code-r76-trunk/apps/EeePProg/linux/../EeePProg.c ****  *I
  24:/home/hkh/git/eapidk-code-r76-trunk/apps/EeePProg/linux/../EeePProg.c ****  *+-------------------------------------------------------------------------
  25:/home/hkh/git/eapidk-code-r76-trunk/apps/EeePProg/linux/../EeePProg.c ****  *I
  26:/home/hkh/git/eapidk-code-r76-trunk/apps/EeePProg/linux/../EeePProg.c ****  *I  File Name            : EeePProg.c
  27:/home/hkh/git/eapidk-code-r76-trunk/apps/EeePProg/linux/../EeePProg.c ****  *I  File Location        : apps\EeePProg
  28:/home/hkh/git/eapidk-code-r76-trunk/apps/EeePProg/linux/../EeePProg.c ****  *I  Last committed       : $Revision: 74 $
  29:/home/hkh/git/eapidk-code-r76-trunk/apps/EeePProg/linux/../EeePProg.c ****  *I  Last changed by      : $Author: dethrophes $
  30:/home/hkh/git/eapidk-code-r76-trunk/apps/EeePProg/linux/../EeePProg.c ****  *I  Last changed date    : $Date: 2010-06-23 19:26:50 +0000 (Wed, 23 Jun 2010) $
  31:/home/hkh/git/eapidk-code-r76-trunk/apps/EeePProg/linux/../EeePProg.c ****  *I  ID                   : $Id: EeePProg.c 74 2010-06-23 19:26:50Z dethrophes $
  32:/home/hkh/git/eapidk-code-r76-trunk/apps/EeePProg/linux/../EeePProg.c ****  *I
  33:/home/hkh/git/eapidk-code-r76-trunk/apps/EeePProg/linux/../EeePProg.c ****  *+=========================================================================
  34:/home/hkh/git/eapidk-code-r76-trunk/apps/EeePProg/linux/../EeePProg.c ****  *</KHeader>
  35:/home/hkh/git/eapidk-code-r76-trunk/apps/EeePProg/linux/../EeePProg.c ****  */
  36:/home/hkh/git/eapidk-code-r76-trunk/apps/EeePProg/linux/../EeePProg.c ****   #include <EeePApp.h>
  37:/home/hkh/git/eapidk-code-r76-trunk/apps/EeePProg/linux/../EeePProg.c **** 
  38:/home/hkh/git/eapidk-code-r76-trunk/apps/EeePProg/linux/../EeePProg.c **** const char cszTitle[]= 
  39:/home/hkh/git/eapidk-code-r76-trunk/apps/EeePProg/linux/../EeePProg.c ****   "+=============================================================================+\n"
  40:/home/hkh/git/eapidk-code-r76-trunk/apps/EeePProg/linux/../EeePProg.c ****   "| EeePProg.exe  Copyright (C) Kontron Embedded Modules GmbH 2010   V %u.%u.%04u |\n"
  41:/home/hkh/git/eapidk-code-r76-trunk/apps/EeePProg/linux/../EeePProg.c ****   "+=============================================================================+\n"
  42:/home/hkh/git/eapidk-code-r76-trunk/apps/EeePProg/linux/../EeePProg.c ****   "\n"
  43:/home/hkh/git/eapidk-code-r76-trunk/apps/EeePProg/linux/../EeePProg.c **** ;
  44:/home/hkh/git/eapidk-code-r76-trunk/apps/EeePProg/linux/../EeePProg.c **** 
  45:/home/hkh/git/eapidk-code-r76-trunk/apps/EeePProg/linux/../EeePProg.c **** const char syntaxErrMes[]  = "Syntax error / Use -h for info";
  46:/home/hkh/git/eapidk-code-r76-trunk/apps/EeePProg/linux/../EeePProg.c **** 
ARM GAS  /tmp/ccqui9DH.s 			page 3


  47:/home/hkh/git/eapidk-code-r76-trunk/apps/EeePProg/linux/../EeePProg.c **** 
  48:/home/hkh/git/eapidk-code-r76-trunk/apps/EeePProg/linux/../EeePProg.c **** Options_t CurOptions;
  49:/home/hkh/git/eapidk-code-r76-trunk/apps/EeePProg/linux/../EeePProg.c **** 
  50:/home/hkh/git/eapidk-code-r76-trunk/apps/EeePProg/linux/../EeePProg.c **** ArgDesc_t  COM0R20M_Cfg[]={
  51:/home/hkh/git/eapidk-code-r76-trunk/apps/EeePProg/linux/../EeePProg.c ****   {
  52:/home/hkh/git/eapidk-code-r76-trunk/apps/EeePProg/linux/../EeePProg.c ****   &CurOptions.szCOM0R20M_Cfg_File        ,
  53:/home/hkh/git/eapidk-code-r76-trunk/apps/EeePProg/linux/../EeePProg.c ****   sizeof(CurOptions.szCOM0R20M_Cfg_File) ,
  54:/home/hkh/git/eapidk-code-r76-trunk/apps/EeePProg/linux/../EeePProg.c ****   "<Filename|stdout>  Destination File"  ,
  55:/home/hkh/git/eapidk-code-r76-trunk/apps/EeePProg/linux/../EeePProg.c ****   StringArg
  56:/home/hkh/git/eapidk-code-r76-trunk/apps/EeePProg/linux/../EeePProg.c ****   },
  57:/home/hkh/git/eapidk-code-r76-trunk/apps/EeePProg/linux/../EeePProg.c **** };
  58:/home/hkh/git/eapidk-code-r76-trunk/apps/EeePProg/linux/../EeePProg.c **** ArgDesc_t  COM0R20M_Img[]={
  59:/home/hkh/git/eapidk-code-r76-trunk/apps/EeePProg/linux/../EeePProg.c ****   {
  60:/home/hkh/git/eapidk-code-r76-trunk/apps/EeePProg/linux/../EeePProg.c ****   &CurOptions.CreateCOM0R20M.InFile       ,
  61:/home/hkh/git/eapidk-code-r76-trunk/apps/EeePProg/linux/../EeePProg.c ****   sizeof(CurOptions.CreateCOM0R20M.InFile) ,
  62:/home/hkh/git/eapidk-code-r76-trunk/apps/EeePProg/linux/../EeePProg.c ****   "<Filename>  Configuration Filename"   ,
  63:/home/hkh/git/eapidk-code-r76-trunk/apps/EeePProg/linux/../EeePProg.c ****   StringArg
  64:/home/hkh/git/eapidk-code-r76-trunk/apps/EeePProg/linux/../EeePProg.c ****   },
  65:/home/hkh/git/eapidk-code-r76-trunk/apps/EeePProg/linux/../EeePProg.c ****   {
  66:/home/hkh/git/eapidk-code-r76-trunk/apps/EeePProg/linux/../EeePProg.c ****   &CurOptions.CreateCOM0R20M.OutFile        ,
  67:/home/hkh/git/eapidk-code-r76-trunk/apps/EeePProg/linux/../EeePProg.c ****   sizeof(CurOptions.CreateCOM0R20M.OutFile) ,
  68:/home/hkh/git/eapidk-code-r76-trunk/apps/EeePProg/linux/../EeePProg.c ****   "<Filename>  Destination File"         ,
  69:/home/hkh/git/eapidk-code-r76-trunk/apps/EeePProg/linux/../EeePProg.c ****   StringArg
  70:/home/hkh/git/eapidk-code-r76-trunk/apps/EeePProg/linux/../EeePProg.c ****   },
  71:/home/hkh/git/eapidk-code-r76-trunk/apps/EeePProg/linux/../EeePProg.c **** };
  72:/home/hkh/git/eapidk-code-r76-trunk/apps/EeePProg/linux/../EeePProg.c **** ArgDesc_t  COM0R20M_EEP[]={
  73:/home/hkh/git/eapidk-code-r76-trunk/apps/EeePProg/linux/../EeePProg.c ****   {
  74:/home/hkh/git/eapidk-code-r76-trunk/apps/EeePProg/linux/../EeePProg.c ****   &CurOptions.szCOM0R20M_S2Cfg_File        ,
  75:/home/hkh/git/eapidk-code-r76-trunk/apps/EeePProg/linux/../EeePProg.c ****   sizeof(CurOptions.szCOM0R20M_S2Cfg_File) ,
  76:/home/hkh/git/eapidk-code-r76-trunk/apps/EeePProg/linux/../EeePProg.c ****   "<Filename>  Configuration Filename"   ,
  77:/home/hkh/git/eapidk-code-r76-trunk/apps/EeePProg/linux/../EeePProg.c ****   StringArg
  78:/home/hkh/git/eapidk-code-r76-trunk/apps/EeePProg/linux/../EeePProg.c ****   },
  79:/home/hkh/git/eapidk-code-r76-trunk/apps/EeePProg/linux/../EeePProg.c **** };
  80:/home/hkh/git/eapidk-code-r76-trunk/apps/EeePProg/linux/../EeePProg.c **** ArgDesc_t  COM0R20CB_Cfg[]={
  81:/home/hkh/git/eapidk-code-r76-trunk/apps/EeePProg/linux/../EeePProg.c ****   {
  82:/home/hkh/git/eapidk-code-r76-trunk/apps/EeePProg/linux/../EeePProg.c ****   &CurOptions.szCOM0R20CB_Cfg_File       ,
  83:/home/hkh/git/eapidk-code-r76-trunk/apps/EeePProg/linux/../EeePProg.c ****   sizeof(CurOptions.szCOM0R20CB_Cfg_File),
  84:/home/hkh/git/eapidk-code-r76-trunk/apps/EeePProg/linux/../EeePProg.c ****   "<Filename|stdout>  Destination File"  ,
  85:/home/hkh/git/eapidk-code-r76-trunk/apps/EeePProg/linux/../EeePProg.c ****   StringArg
  86:/home/hkh/git/eapidk-code-r76-trunk/apps/EeePProg/linux/../EeePProg.c ****   },
  87:/home/hkh/git/eapidk-code-r76-trunk/apps/EeePProg/linux/../EeePProg.c **** };
  88:/home/hkh/git/eapidk-code-r76-trunk/apps/EeePProg/linux/../EeePProg.c **** ArgDesc_t  COM0R20CB_Img[]={
  89:/home/hkh/git/eapidk-code-r76-trunk/apps/EeePProg/linux/../EeePProg.c ****   {
  90:/home/hkh/git/eapidk-code-r76-trunk/apps/EeePProg/linux/../EeePProg.c ****   &CurOptions.CreateCOM0R20CB.InFile       ,
  91:/home/hkh/git/eapidk-code-r76-trunk/apps/EeePProg/linux/../EeePProg.c ****   sizeof(CurOptions.CreateCOM0R20CB.InFile) ,
  92:/home/hkh/git/eapidk-code-r76-trunk/apps/EeePProg/linux/../EeePProg.c ****   "<Filename>  Configuration Filename"   ,
  93:/home/hkh/git/eapidk-code-r76-trunk/apps/EeePProg/linux/../EeePProg.c ****   StringArg
  94:/home/hkh/git/eapidk-code-r76-trunk/apps/EeePProg/linux/../EeePProg.c ****   },
  95:/home/hkh/git/eapidk-code-r76-trunk/apps/EeePProg/linux/../EeePProg.c ****   {
  96:/home/hkh/git/eapidk-code-r76-trunk/apps/EeePProg/linux/../EeePProg.c ****   &CurOptions.CreateCOM0R20CB.OutFile       ,
  97:/home/hkh/git/eapidk-code-r76-trunk/apps/EeePProg/linux/../EeePProg.c ****   sizeof(CurOptions.CreateCOM0R20CB.OutFile),
  98:/home/hkh/git/eapidk-code-r76-trunk/apps/EeePProg/linux/../EeePProg.c ****   "<Filename>  Destination File"          ,
  99:/home/hkh/git/eapidk-code-r76-trunk/apps/EeePProg/linux/../EeePProg.c ****   StringArg
 100:/home/hkh/git/eapidk-code-r76-trunk/apps/EeePProg/linux/../EeePProg.c ****   },
 101:/home/hkh/git/eapidk-code-r76-trunk/apps/EeePProg/linux/../EeePProg.c **** };
 102:/home/hkh/git/eapidk-code-r76-trunk/apps/EeePProg/linux/../EeePProg.c **** ArgDesc_t  COM0R20CB_EEP[]={
 103:/home/hkh/git/eapidk-code-r76-trunk/apps/EeePProg/linux/../EeePProg.c ****   {
ARM GAS  /tmp/ccqui9DH.s 			page 4


 104:/home/hkh/git/eapidk-code-r76-trunk/apps/EeePProg/linux/../EeePProg.c ****   &CurOptions.szCOM0R20CB_S2Cfg_File        ,
 105:/home/hkh/git/eapidk-code-r76-trunk/apps/EeePProg/linux/../EeePProg.c ****   sizeof(CurOptions.szCOM0R20CB_S2Cfg_File) ,
 106:/home/hkh/git/eapidk-code-r76-trunk/apps/EeePProg/linux/../EeePProg.c ****   "<Filename>  Configuration Filename"   ,
 107:/home/hkh/git/eapidk-code-r76-trunk/apps/EeePProg/linux/../EeePProg.c ****   StringArg
 108:/home/hkh/git/eapidk-code-r76-trunk/apps/EeePProg/linux/../EeePProg.c ****   },
 109:/home/hkh/git/eapidk-code-r76-trunk/apps/EeePProg/linux/../EeePProg.c **** };
 110:/home/hkh/git/eapidk-code-r76-trunk/apps/EeePProg/linux/../EeePProg.c **** ArgDesc_t  EeePExpEEP_Cfg[]={
 111:/home/hkh/git/eapidk-code-r76-trunk/apps/EeePProg/linux/../EeePProg.c ****   {
 112:/home/hkh/git/eapidk-code-r76-trunk/apps/EeePProg/linux/../EeePProg.c ****   &CurOptions.szEeePExpEEP_Cfg_File        ,
 113:/home/hkh/git/eapidk-code-r76-trunk/apps/EeePProg/linux/../EeePProg.c ****   sizeof(CurOptions.szEeePExpEEP_Cfg_File) ,
 114:/home/hkh/git/eapidk-code-r76-trunk/apps/EeePProg/linux/../EeePProg.c ****   "<Filename|stdout>  Destination File"  ,
 115:/home/hkh/git/eapidk-code-r76-trunk/apps/EeePProg/linux/../EeePProg.c ****   StringArg
 116:/home/hkh/git/eapidk-code-r76-trunk/apps/EeePProg/linux/../EeePProg.c ****   },
 117:/home/hkh/git/eapidk-code-r76-trunk/apps/EeePProg/linux/../EeePProg.c **** };
 118:/home/hkh/git/eapidk-code-r76-trunk/apps/EeePProg/linux/../EeePProg.c **** ArgDesc_t  EeePExpEEP_Img[]={
 119:/home/hkh/git/eapidk-code-r76-trunk/apps/EeePProg/linux/../EeePProg.c ****   {
 120:/home/hkh/git/eapidk-code-r76-trunk/apps/EeePProg/linux/../EeePProg.c ****   &CurOptions.CreateEeePExpEEP.InFile       ,
 121:/home/hkh/git/eapidk-code-r76-trunk/apps/EeePProg/linux/../EeePProg.c ****   sizeof(CurOptions.CreateEeePExpEEP.InFile) ,
 122:/home/hkh/git/eapidk-code-r76-trunk/apps/EeePProg/linux/../EeePProg.c ****   "<Filename>  Configuration Filename"   ,
 123:/home/hkh/git/eapidk-code-r76-trunk/apps/EeePProg/linux/../EeePProg.c ****   StringArg
 124:/home/hkh/git/eapidk-code-r76-trunk/apps/EeePProg/linux/../EeePProg.c ****   },
 125:/home/hkh/git/eapidk-code-r76-trunk/apps/EeePProg/linux/../EeePProg.c ****   {
 126:/home/hkh/git/eapidk-code-r76-trunk/apps/EeePProg/linux/../EeePProg.c ****   &CurOptions.CreateEeePExpEEP.OutFile       ,
 127:/home/hkh/git/eapidk-code-r76-trunk/apps/EeePProg/linux/../EeePProg.c ****   sizeof(CurOptions.CreateEeePExpEEP.OutFile) ,
 128:/home/hkh/git/eapidk-code-r76-trunk/apps/EeePProg/linux/../EeePProg.c ****   "<Filename>  Destination File"            ,
 129:/home/hkh/git/eapidk-code-r76-trunk/apps/EeePProg/linux/../EeePProg.c ****   StringArg
 130:/home/hkh/git/eapidk-code-r76-trunk/apps/EeePProg/linux/../EeePProg.c ****   },
 131:/home/hkh/git/eapidk-code-r76-trunk/apps/EeePProg/linux/../EeePProg.c **** };
 132:/home/hkh/git/eapidk-code-r76-trunk/apps/EeePProg/linux/../EeePProg.c **** ArgDesc_t  EeePExpEEP_EEP[]={
 133:/home/hkh/git/eapidk-code-r76-trunk/apps/EeePProg/linux/../EeePProg.c ****   {
 134:/home/hkh/git/eapidk-code-r76-trunk/apps/EeePProg/linux/../EeePProg.c ****   &CurOptions.CreateEeePExpEEP_EEP.FileName   ,
 135:/home/hkh/git/eapidk-code-r76-trunk/apps/EeePProg/linux/../EeePProg.c ****   sizeof(CurOptions.CreateEeePExpEEP_EEP.FileName) ,
 136:/home/hkh/git/eapidk-code-r76-trunk/apps/EeePProg/linux/../EeePProg.c ****   "<Filename>  Configuration Filename"   ,
 137:/home/hkh/git/eapidk-code-r76-trunk/apps/EeePProg/linux/../EeePProg.c ****   StringArg
 138:/home/hkh/git/eapidk-code-r76-trunk/apps/EeePProg/linux/../EeePProg.c ****   },
 139:/home/hkh/git/eapidk-code-r76-trunk/apps/EeePProg/linux/../EeePProg.c ****   {
 140:/home/hkh/git/eapidk-code-r76-trunk/apps/EeePProg/linux/../EeePProg.c ****   &CurOptions.CreateEeePExpEEP_EEP.I2CBus     ,
 141:/home/hkh/git/eapidk-code-r76-trunk/apps/EeePProg/linux/../EeePProg.c ****   sizeof(CurOptions.CreateEeePExpEEP_EEP.I2CBus),
 142:/home/hkh/git/eapidk-code-r76-trunk/apps/EeePProg/linux/../EeePProg.c ****   "<EApi Id>      EApi Bus Id"             ,
 143:/home/hkh/git/eapidk-code-r76-trunk/apps/EeePProg/linux/../EeePProg.c ****   NumberArg
 144:/home/hkh/git/eapidk-code-r76-trunk/apps/EeePProg/linux/../EeePProg.c ****   },
 145:/home/hkh/git/eapidk-code-r76-trunk/apps/EeePProg/linux/../EeePProg.c ****   {
 146:/home/hkh/git/eapidk-code-r76-trunk/apps/EeePProg/linux/../EeePProg.c ****   &CurOptions.CreateEeePExpEEP_EEP.I2CDevAddr     ,
 147:/home/hkh/git/eapidk-code-r76-trunk/apps/EeePProg/linux/../EeePProg.c ****   sizeof(CurOptions.CreateEeePExpEEP_EEP.I2CDevAddr),
 148:/home/hkh/git/eapidk-code-r76-trunk/apps/EeePProg/linux/../EeePProg.c ****   "<I2C Address>  EEPROM Device Address"   ,
 149:/home/hkh/git/eapidk-code-r76-trunk/apps/EeePProg/linux/../EeePProg.c ****   NumberArg
 150:/home/hkh/git/eapidk-code-r76-trunk/apps/EeePProg/linux/../EeePProg.c ****   },
 151:/home/hkh/git/eapidk-code-r76-trunk/apps/EeePProg/linux/../EeePProg.c **** };
 152:/home/hkh/git/eapidk-code-r76-trunk/apps/EeePProg/linux/../EeePProg.c **** ArgDesc_t  EeePExpEEP_PEEP[]={
 153:/home/hkh/git/eapidk-code-r76-trunk/apps/EeePProg/linux/../EeePProg.c ****   {
 154:/home/hkh/git/eapidk-code-r76-trunk/apps/EeePProg/linux/../EeePProg.c ****   &CurOptions.ProgramEeePExpEEP_EEP.FileName   ,
 155:/home/hkh/git/eapidk-code-r76-trunk/apps/EeePProg/linux/../EeePProg.c ****   sizeof(CurOptions.ProgramEeePExpEEP_EEP.FileName) ,
 156:/home/hkh/git/eapidk-code-r76-trunk/apps/EeePProg/linux/../EeePProg.c ****   "<Filename>  Binary Image Filename"       ,
 157:/home/hkh/git/eapidk-code-r76-trunk/apps/EeePProg/linux/../EeePProg.c ****   StringArg
 158:/home/hkh/git/eapidk-code-r76-trunk/apps/EeePProg/linux/../EeePProg.c ****   },
 159:/home/hkh/git/eapidk-code-r76-trunk/apps/EeePProg/linux/../EeePProg.c ****   {
 160:/home/hkh/git/eapidk-code-r76-trunk/apps/EeePProg/linux/../EeePProg.c ****   &CurOptions.ProgramEeePExpEEP_EEP.I2CBus   ,
ARM GAS  /tmp/ccqui9DH.s 			page 5


 161:/home/hkh/git/eapidk-code-r76-trunk/apps/EeePProg/linux/../EeePProg.c ****   sizeof(CurOptions.ProgramEeePExpEEP_EEP.I2CBus) ,
 162:/home/hkh/git/eapidk-code-r76-trunk/apps/EeePProg/linux/../EeePProg.c ****   "<EApi Id>      EApi Bus Id"             ,
 163:/home/hkh/git/eapidk-code-r76-trunk/apps/EeePProg/linux/../EeePProg.c ****   NumberArg
 164:/home/hkh/git/eapidk-code-r76-trunk/apps/EeePProg/linux/../EeePProg.c ****   },
 165:/home/hkh/git/eapidk-code-r76-trunk/apps/EeePProg/linux/../EeePProg.c ****   {
 166:/home/hkh/git/eapidk-code-r76-trunk/apps/EeePProg/linux/../EeePProg.c ****   &CurOptions.ProgramEeePExpEEP_EEP.I2CDevAddr   ,
 167:/home/hkh/git/eapidk-code-r76-trunk/apps/EeePProg/linux/../EeePProg.c ****   sizeof(CurOptions.ProgramEeePExpEEP_EEP.I2CDevAddr) ,
 168:/home/hkh/git/eapidk-code-r76-trunk/apps/EeePProg/linux/../EeePProg.c ****   "<I2C Address>  EEPROM Device Address"   ,
 169:/home/hkh/git/eapidk-code-r76-trunk/apps/EeePProg/linux/../EeePProg.c ****   NumberArg
 170:/home/hkh/git/eapidk-code-r76-trunk/apps/EeePProg/linux/../EeePProg.c ****   },
 171:/home/hkh/git/eapidk-code-r76-trunk/apps/EeePProg/linux/../EeePProg.c **** };
 172:/home/hkh/git/eapidk-code-r76-trunk/apps/EeePProg/linux/../EeePProg.c **** ArgDesc_t  COM0R20CB_IMG[]={
 173:/home/hkh/git/eapidk-code-r76-trunk/apps/EeePProg/linux/../EeePProg.c ****   {
 174:/home/hkh/git/eapidk-code-r76-trunk/apps/EeePProg/linux/../EeePProg.c ****   &CurOptions.szCOM0R20CBEEP_To_Img_FName        ,
 175:/home/hkh/git/eapidk-code-r76-trunk/apps/EeePProg/linux/../EeePProg.c ****   sizeof(CurOptions.szCOM0R20CBEEP_To_Img_FName) ,
 176:/home/hkh/git/eapidk-code-r76-trunk/apps/EeePProg/linux/../EeePProg.c ****   "<Filename>  Binary Image Filename"       ,
 177:/home/hkh/git/eapidk-code-r76-trunk/apps/EeePProg/linux/../EeePProg.c ****   StringArg
 178:/home/hkh/git/eapidk-code-r76-trunk/apps/EeePProg/linux/../EeePProg.c ****   },
 179:/home/hkh/git/eapidk-code-r76-trunk/apps/EeePProg/linux/../EeePProg.c **** };
 180:/home/hkh/git/eapidk-code-r76-trunk/apps/EeePProg/linux/../EeePProg.c **** ArgDesc_t  COM0R20M_IMG[]={
 181:/home/hkh/git/eapidk-code-r76-trunk/apps/EeePProg/linux/../EeePProg.c ****   {
 182:/home/hkh/git/eapidk-code-r76-trunk/apps/EeePProg/linux/../EeePProg.c ****   &CurOptions.szCOM0R20MEEP_To_Img_FName        ,
 183:/home/hkh/git/eapidk-code-r76-trunk/apps/EeePProg/linux/../EeePProg.c ****   sizeof(CurOptions.szCOM0R20MEEP_To_Img_FName) ,
 184:/home/hkh/git/eapidk-code-r76-trunk/apps/EeePProg/linux/../EeePProg.c ****   "<Filename>  Binary Image Filename"       ,
 185:/home/hkh/git/eapidk-code-r76-trunk/apps/EeePProg/linux/../EeePProg.c ****   StringArg
 186:/home/hkh/git/eapidk-code-r76-trunk/apps/EeePProg/linux/../EeePProg.c ****   },
 187:/home/hkh/git/eapidk-code-r76-trunk/apps/EeePProg/linux/../EeePProg.c **** };
 188:/home/hkh/git/eapidk-code-r76-trunk/apps/EeePProg/linux/../EeePProg.c **** ArgDesc_t  EeePExpEEP_IMG[]={
 189:/home/hkh/git/eapidk-code-r76-trunk/apps/EeePProg/linux/../EeePProg.c ****   {
 190:/home/hkh/git/eapidk-code-r76-trunk/apps/EeePProg/linux/../EeePProg.c ****   &CurOptions.StoreEeePExpEEP_EEP.FileName   ,
 191:/home/hkh/git/eapidk-code-r76-trunk/apps/EeePProg/linux/../EeePProg.c ****   sizeof(CurOptions.StoreEeePExpEEP_EEP.FileName) ,
 192:/home/hkh/git/eapidk-code-r76-trunk/apps/EeePProg/linux/../EeePProg.c ****   "<Filename>  Binary Image Filename"       ,
 193:/home/hkh/git/eapidk-code-r76-trunk/apps/EeePProg/linux/../EeePProg.c ****   StringArg
 194:/home/hkh/git/eapidk-code-r76-trunk/apps/EeePProg/linux/../EeePProg.c ****   },
 195:/home/hkh/git/eapidk-code-r76-trunk/apps/EeePProg/linux/../EeePProg.c ****   {
 196:/home/hkh/git/eapidk-code-r76-trunk/apps/EeePProg/linux/../EeePProg.c ****   &CurOptions.StoreEeePExpEEP_EEP.I2CBus     ,
 197:/home/hkh/git/eapidk-code-r76-trunk/apps/EeePProg/linux/../EeePProg.c ****   sizeof(CurOptions.StoreEeePExpEEP_EEP.I2CBus),
 198:/home/hkh/git/eapidk-code-r76-trunk/apps/EeePProg/linux/../EeePProg.c ****   "<EApi Id>      EApi Bus Id"             ,
 199:/home/hkh/git/eapidk-code-r76-trunk/apps/EeePProg/linux/../EeePProg.c ****   NumberArg
 200:/home/hkh/git/eapidk-code-r76-trunk/apps/EeePProg/linux/../EeePProg.c ****   },
 201:/home/hkh/git/eapidk-code-r76-trunk/apps/EeePProg/linux/../EeePProg.c ****   {
 202:/home/hkh/git/eapidk-code-r76-trunk/apps/EeePProg/linux/../EeePProg.c ****   &CurOptions.StoreEeePExpEEP_EEP.I2CDevAddr     ,
 203:/home/hkh/git/eapidk-code-r76-trunk/apps/EeePProg/linux/../EeePProg.c ****   sizeof(CurOptions.StoreEeePExpEEP_EEP.I2CDevAddr),
 204:/home/hkh/git/eapidk-code-r76-trunk/apps/EeePProg/linux/../EeePProg.c ****   "<I2C Address>  EEPROM Device Address"   ,
 205:/home/hkh/git/eapidk-code-r76-trunk/apps/EeePProg/linux/../EeePProg.c ****   NumberArg
 206:/home/hkh/git/eapidk-code-r76-trunk/apps/EeePProg/linux/../EeePProg.c ****   },
 207:/home/hkh/git/eapidk-code-r76-trunk/apps/EeePProg/linux/../EeePProg.c **** };
 208:/home/hkh/git/eapidk-code-r76-trunk/apps/EeePProg/linux/../EeePProg.c **** ArgDesc_t  COM0R20CB_PEEP[]={
 209:/home/hkh/git/eapidk-code-r76-trunk/apps/EeePProg/linux/../EeePProg.c ****   {
 210:/home/hkh/git/eapidk-code-r76-trunk/apps/EeePProg/linux/../EeePProg.c ****   &CurOptions.szCOM0R20CB_SBIN_File        ,
 211:/home/hkh/git/eapidk-code-r76-trunk/apps/EeePProg/linux/../EeePProg.c ****   sizeof(CurOptions.szCOM0R20CB_SBIN_File) ,
 212:/home/hkh/git/eapidk-code-r76-trunk/apps/EeePProg/linux/../EeePProg.c ****   "<Filename>  Binary Image Filename"       ,
 213:/home/hkh/git/eapidk-code-r76-trunk/apps/EeePProg/linux/../EeePProg.c ****   StringArg
 214:/home/hkh/git/eapidk-code-r76-trunk/apps/EeePProg/linux/../EeePProg.c ****   },
 215:/home/hkh/git/eapidk-code-r76-trunk/apps/EeePProg/linux/../EeePProg.c **** };
 216:/home/hkh/git/eapidk-code-r76-trunk/apps/EeePProg/linux/../EeePProg.c **** ArgDesc_t  COM0R20M_PEEP[]={
 217:/home/hkh/git/eapidk-code-r76-trunk/apps/EeePProg/linux/../EeePProg.c ****   {
ARM GAS  /tmp/ccqui9DH.s 			page 6


 218:/home/hkh/git/eapidk-code-r76-trunk/apps/EeePProg/linux/../EeePProg.c ****   &CurOptions.szCOM0R20M_SBIN_File        ,
 219:/home/hkh/git/eapidk-code-r76-trunk/apps/EeePProg/linux/../EeePProg.c ****   sizeof(CurOptions.szCOM0R20M_SBIN_File) ,
 220:/home/hkh/git/eapidk-code-r76-trunk/apps/EeePProg/linux/../EeePProg.c ****   "<Filename>  Binary Image Filename"       ,
 221:/home/hkh/git/eapidk-code-r76-trunk/apps/EeePProg/linux/../EeePProg.c ****   StringArg
 222:/home/hkh/git/eapidk-code-r76-trunk/apps/EeePProg/linux/../EeePProg.c ****   },
 223:/home/hkh/git/eapidk-code-r76-trunk/apps/EeePProg/linux/../EeePProg.c **** };
 224:/home/hkh/git/eapidk-code-r76-trunk/apps/EeePProg/linux/../EeePProg.c **** ArgDesc_t  GEN_LIST_DBLOCKS_FILE[]={
 225:/home/hkh/git/eapidk-code-r76-trunk/apps/EeePProg/linux/../EeePProg.c ****   {
 226:/home/hkh/git/eapidk-code-r76-trunk/apps/EeePProg/linux/../EeePProg.c ****   &CurOptions.szGEN_List_DBlocks_File        ,
 227:/home/hkh/git/eapidk-code-r76-trunk/apps/EeePProg/linux/../EeePProg.c ****   sizeof(CurOptions.szGEN_List_DBlocks_File) ,
 228:/home/hkh/git/eapidk-code-r76-trunk/apps/EeePProg/linux/../EeePProg.c ****   "<Filename>  Binary Image Filename"       ,
 229:/home/hkh/git/eapidk-code-r76-trunk/apps/EeePProg/linux/../EeePProg.c ****   StringArg
 230:/home/hkh/git/eapidk-code-r76-trunk/apps/EeePProg/linux/../EeePProg.c ****   },
 231:/home/hkh/git/eapidk-code-r76-trunk/apps/EeePProg/linux/../EeePProg.c **** };
 232:/home/hkh/git/eapidk-code-r76-trunk/apps/EeePProg/linux/../EeePProg.c **** ArgDesc_t  GEN_LIST_DBLOCKS_EEP[]={
 233:/home/hkh/git/eapidk-code-r76-trunk/apps/EeePProg/linux/../EeePProg.c ****   {
 234:/home/hkh/git/eapidk-code-r76-trunk/apps/EeePProg/linux/../EeePProg.c ****   &CurOptions.ulEEP_Img.I2CBus                ,
 235:/home/hkh/git/eapidk-code-r76-trunk/apps/EeePProg/linux/../EeePProg.c ****   sizeof(CurOptions.ulEEP_Img.I2CBus)         ,
 236:/home/hkh/git/eapidk-code-r76-trunk/apps/EeePProg/linux/../EeePProg.c ****   "<EApi Id>      EApi Bus Id"                ,
 237:/home/hkh/git/eapidk-code-r76-trunk/apps/EeePProg/linux/../EeePProg.c ****   NumberArg
 238:/home/hkh/git/eapidk-code-r76-trunk/apps/EeePProg/linux/../EeePProg.c ****   },
 239:/home/hkh/git/eapidk-code-r76-trunk/apps/EeePProg/linux/../EeePProg.c ****   {
 240:/home/hkh/git/eapidk-code-r76-trunk/apps/EeePProg/linux/../EeePProg.c ****   &CurOptions.ulEEP_Img.I2CDevAddr            ,
 241:/home/hkh/git/eapidk-code-r76-trunk/apps/EeePProg/linux/../EeePProg.c ****   sizeof(CurOptions.ulEEP_Img.I2CDevAddr)     ,
 242:/home/hkh/git/eapidk-code-r76-trunk/apps/EeePProg/linux/../EeePProg.c ****   "<I2C Address>  EEPROM Device Address"      ,
 243:/home/hkh/git/eapidk-code-r76-trunk/apps/EeePProg/linux/../EeePProg.c ****   NumberArg
 244:/home/hkh/git/eapidk-code-r76-trunk/apps/EeePProg/linux/../EeePProg.c ****   },
 245:/home/hkh/git/eapidk-code-r76-trunk/apps/EeePProg/linux/../EeePProg.c **** };
 246:/home/hkh/git/eapidk-code-r76-trunk/apps/EeePProg/linux/../EeePProg.c **** 
 247:/home/hkh/git/eapidk-code-r76-trunk/apps/EeePProg/linux/../EeePProg.c **** EApiStatus_t
 248:/home/hkh/git/eapidk-code-r76-trunk/apps/EeePProg/linux/../EeePProg.c **** CreateTxtFilePtr(
 249:/home/hkh/git/eapidk-code-r76-trunk/apps/EeePProg/linux/../EeePProg.c ****     const char *Destination,
 250:/home/hkh/git/eapidk-code-r76-trunk/apps/EeePProg/linux/../EeePProg.c ****     FILE **     FilePtr
 251:/home/hkh/git/eapidk-code-r76-trunk/apps/EeePProg/linux/../EeePProg.c ****     )
 252:/home/hkh/git/eapidk-code-r76-trunk/apps/EeePProg/linux/../EeePProg.c **** {
 253:/home/hkh/git/eapidk-code-r76-trunk/apps/EeePProg/linux/../EeePProg.c ****   EApiStatus_t StatusCode=EAPI_STATUS_SUCCESS;
 254:/home/hkh/git/eapidk-code-r76-trunk/apps/EeePProg/linux/../EeePProg.c ****   if(!strcmp(Destination, "stdout")){
 255:/home/hkh/git/eapidk-code-r76-trunk/apps/EeePProg/linux/../EeePProg.c ****      *FilePtr=stdout;
 256:/home/hkh/git/eapidk-code-r76-trunk/apps/EeePProg/linux/../EeePProg.c ****   }else if(!strcmp(Destination, "&1")){
 257:/home/hkh/git/eapidk-code-r76-trunk/apps/EeePProg/linux/../EeePProg.c ****      *FilePtr=stdout;
 258:/home/hkh/git/eapidk-code-r76-trunk/apps/EeePProg/linux/../EeePProg.c ****   }else if(!strcmp(Destination, "stderr")){
 259:/home/hkh/git/eapidk-code-r76-trunk/apps/EeePProg/linux/../EeePProg.c ****      *FilePtr=stderr;
 260:/home/hkh/git/eapidk-code-r76-trunk/apps/EeePProg/linux/../EeePProg.c ****   }else if(!strcmp(Destination, "&2")){
 261:/home/hkh/git/eapidk-code-r76-trunk/apps/EeePProg/linux/../EeePProg.c ****      *FilePtr=stderr;
 262:/home/hkh/git/eapidk-code-r76-trunk/apps/EeePProg/linux/../EeePProg.c ****   }else {
 263:/home/hkh/git/eapidk-code-r76-trunk/apps/EeePProg/linux/../EeePProg.c ****     *FilePtr=fopen(Destination, "w");
 264:/home/hkh/git/eapidk-code-r76-trunk/apps/EeePProg/linux/../EeePProg.c ****     EAPI_APP_RETURN_ERROR_IF_S(
 265:/home/hkh/git/eapidk-code-r76-trunk/apps/EeePProg/linux/../EeePProg.c ****          CreateTxtFilePtr,
 266:/home/hkh/git/eapidk-code-r76-trunk/apps/EeePProg/linux/../EeePProg.c ****          (*FilePtr==NULL),
 267:/home/hkh/git/eapidk-code-r76-trunk/apps/EeePProg/linux/../EeePProg.c ****          EAPI_STATUS_WRITE_ERROR
 268:/home/hkh/git/eapidk-code-r76-trunk/apps/EeePProg/linux/../EeePProg.c ****       );
 269:/home/hkh/git/eapidk-code-r76-trunk/apps/EeePProg/linux/../EeePProg.c ****   }
 270:/home/hkh/git/eapidk-code-r76-trunk/apps/EeePProg/linux/../EeePProg.c **** EAPI_APP_ASSERT_EXIT
 271:/home/hkh/git/eapidk-code-r76-trunk/apps/EeePProg/linux/../EeePProg.c ****   return StatusCode;
 272:/home/hkh/git/eapidk-code-r76-trunk/apps/EeePProg/linux/../EeePProg.c **** }
 273:/home/hkh/git/eapidk-code-r76-trunk/apps/EeePProg/linux/../EeePProg.c **** EApiStatus_t
 274:/home/hkh/git/eapidk-code-r76-trunk/apps/EeePProg/linux/../EeePProg.c **** FreeFilePtr(
ARM GAS  /tmp/ccqui9DH.s 			page 7


 275:/home/hkh/git/eapidk-code-r76-trunk/apps/EeePProg/linux/../EeePProg.c ****     FILE **     FilePtr
 276:/home/hkh/git/eapidk-code-r76-trunk/apps/EeePProg/linux/../EeePProg.c ****     )
 277:/home/hkh/git/eapidk-code-r76-trunk/apps/EeePProg/linux/../EeePProg.c **** {
 278:/home/hkh/git/eapidk-code-r76-trunk/apps/EeePProg/linux/../EeePProg.c ****   FILE *     LclFilePtr=*FilePtr;
 279:/home/hkh/git/eapidk-code-r76-trunk/apps/EeePProg/linux/../EeePProg.c ****   if(LclFilePtr!=stdout&&LclFilePtr!=stderr&&LclFilePtr!=NULL){
 280:/home/hkh/git/eapidk-code-r76-trunk/apps/EeePProg/linux/../EeePProg.c ****     fclose(LclFilePtr);
 281:/home/hkh/git/eapidk-code-r76-trunk/apps/EeePProg/linux/../EeePProg.c ****   };
 282:/home/hkh/git/eapidk-code-r76-trunk/apps/EeePProg/linux/../EeePProg.c ****   *FilePtr=NULL;
 283:/home/hkh/git/eapidk-code-r76-trunk/apps/EeePProg/linux/../EeePProg.c ****   return EAPI_STATUS_SUCCESS;
 284:/home/hkh/git/eapidk-code-r76-trunk/apps/EeePProg/linux/../EeePProg.c **** }
 285:/home/hkh/git/eapidk-code-r76-trunk/apps/EeePProg/linux/../EeePProg.c **** #define FREE_BUFFER(x) \
 286:/home/hkh/git/eapidk-code-r76-trunk/apps/EeePProg/linux/../EeePProg.c ****       if(x!=NULL){\
 287:/home/hkh/git/eapidk-code-r76-trunk/apps/EeePProg/linux/../EeePProg.c ****           free(x);\
 288:/home/hkh/git/eapidk-code-r76-trunk/apps/EeePProg/linux/../EeePProg.c ****           x=NULL;\
 289:/home/hkh/git/eapidk-code-r76-trunk/apps/EeePProg/linux/../EeePProg.c ****       }
 290:/home/hkh/git/eapidk-code-r76-trunk/apps/EeePProg/linux/../EeePProg.c **** 
 291:/home/hkh/git/eapidk-code-r76-trunk/apps/EeePProg/linux/../EeePProg.c **** EApiStatus_t 
 292:/home/hkh/git/eapidk-code-r76-trunk/apps/EeePProg/linux/../EeePProg.c **** CMD_CreateCOM0R20_MEEPCfg(
 293:/home/hkh/git/eapidk-code-r76-trunk/apps/EeePProg/linux/../EeePProg.c ****     void *pArgData
 294:/home/hkh/git/eapidk-code-r76-trunk/apps/EeePProg/linux/../EeePProg.c ****     )
 295:/home/hkh/git/eapidk-code-r76-trunk/apps/EeePProg/linux/../EeePProg.c **** {
 296:/home/hkh/git/eapidk-code-r76-trunk/apps/EeePProg/linux/../EeePProg.c ****   EApiStatus_t StatusCode=EAPI_STATUS_SUCCESS;
 297:/home/hkh/git/eapidk-code-r76-trunk/apps/EeePProg/linux/../EeePProg.c ****   FILE *lclStream=NULL;
 298:/home/hkh/git/eapidk-code-r76-trunk/apps/EeePProg/linux/../EeePProg.c **** 
 299:/home/hkh/git/eapidk-code-r76-trunk/apps/EeePProg/linux/../EeePProg.c ****   DO(CreateTxtFilePtr(*(char**)pArgData, &lclStream));
 300:/home/hkh/git/eapidk-code-r76-trunk/apps/EeePProg/linux/../EeePProg.c ****   DO(EeeP_CreateCOM0R20_MEEPCfg(lclStream));
 301:/home/hkh/git/eapidk-code-r76-trunk/apps/EeePProg/linux/../EeePProg.c **** 
 302:/home/hkh/git/eapidk-code-r76-trunk/apps/EeePProg/linux/../EeePProg.c **** EAPI_APP_ASSERT_EXIT
 303:/home/hkh/git/eapidk-code-r76-trunk/apps/EeePProg/linux/../EeePProg.c ****   FreeFilePtr(&lclStream);
 304:/home/hkh/git/eapidk-code-r76-trunk/apps/EeePProg/linux/../EeePProg.c ****   return StatusCode;
 305:/home/hkh/git/eapidk-code-r76-trunk/apps/EeePProg/linux/../EeePProg.c **** }
 306:/home/hkh/git/eapidk-code-r76-trunk/apps/EeePProg/linux/../EeePProg.c **** EApiStatus_t 
 307:/home/hkh/git/eapidk-code-r76-trunk/apps/EeePProg/linux/../EeePProg.c **** CMD_CreateCOM0R20_CBCfg(
 308:/home/hkh/git/eapidk-code-r76-trunk/apps/EeePProg/linux/../EeePProg.c ****     void *pArgData
 309:/home/hkh/git/eapidk-code-r76-trunk/apps/EeePProg/linux/../EeePProg.c ****     )
 310:/home/hkh/git/eapidk-code-r76-trunk/apps/EeePProg/linux/../EeePProg.c **** {
 311:/home/hkh/git/eapidk-code-r76-trunk/apps/EeePProg/linux/../EeePProg.c ****   EApiStatus_t StatusCode=EAPI_STATUS_SUCCESS;
 312:/home/hkh/git/eapidk-code-r76-trunk/apps/EeePProg/linux/../EeePProg.c ****   FILE *lclStream=NULL;
 313:/home/hkh/git/eapidk-code-r76-trunk/apps/EeePProg/linux/../EeePProg.c **** 
 314:/home/hkh/git/eapidk-code-r76-trunk/apps/EeePProg/linux/../EeePProg.c ****   DO(CreateTxtFilePtr(*(char**)pArgData, &lclStream));
 315:/home/hkh/git/eapidk-code-r76-trunk/apps/EeePProg/linux/../EeePProg.c ****   DO(EeeP_CreateCOM0R20_CBCfg(lclStream));
 316:/home/hkh/git/eapidk-code-r76-trunk/apps/EeePProg/linux/../EeePProg.c **** 
 317:/home/hkh/git/eapidk-code-r76-trunk/apps/EeePProg/linux/../EeePProg.c **** EAPI_APP_ASSERT_EXIT
 318:/home/hkh/git/eapidk-code-r76-trunk/apps/EeePProg/linux/../EeePProg.c ****   FreeFilePtr(&lclStream);
 319:/home/hkh/git/eapidk-code-r76-trunk/apps/EeePProg/linux/../EeePProg.c ****   return StatusCode;
 320:/home/hkh/git/eapidk-code-r76-trunk/apps/EeePProg/linux/../EeePProg.c **** }
 321:/home/hkh/git/eapidk-code-r76-trunk/apps/EeePProg/linux/../EeePProg.c **** EApiStatus_t 
 322:/home/hkh/git/eapidk-code-r76-trunk/apps/EeePProg/linux/../EeePProg.c **** CMD_CreateCOM0R20_EeePExtCfg(
 323:/home/hkh/git/eapidk-code-r76-trunk/apps/EeePProg/linux/../EeePProg.c ****     void *pArgData
 324:/home/hkh/git/eapidk-code-r76-trunk/apps/EeePProg/linux/../EeePProg.c ****     )
 325:/home/hkh/git/eapidk-code-r76-trunk/apps/EeePProg/linux/../EeePProg.c **** {
 326:/home/hkh/git/eapidk-code-r76-trunk/apps/EeePProg/linux/../EeePProg.c ****   EApiStatus_t StatusCode=EAPI_STATUS_SUCCESS;
 327:/home/hkh/git/eapidk-code-r76-trunk/apps/EeePProg/linux/../EeePProg.c ****   FILE *lclStream=NULL;
 328:/home/hkh/git/eapidk-code-r76-trunk/apps/EeePProg/linux/../EeePProg.c **** 
 329:/home/hkh/git/eapidk-code-r76-trunk/apps/EeePProg/linux/../EeePProg.c ****   DO(CreateTxtFilePtr(*(char**)pArgData, &lclStream));
 330:/home/hkh/git/eapidk-code-r76-trunk/apps/EeePProg/linux/../EeePProg.c ****   DO(EeeP_CreateEeePExtEEPCfg(lclStream));
 331:/home/hkh/git/eapidk-code-r76-trunk/apps/EeePProg/linux/../EeePProg.c **** 
ARM GAS  /tmp/ccqui9DH.s 			page 8


 332:/home/hkh/git/eapidk-code-r76-trunk/apps/EeePProg/linux/../EeePProg.c **** EAPI_APP_ASSERT_EXIT
 333:/home/hkh/git/eapidk-code-r76-trunk/apps/EeePProg/linux/../EeePProg.c ****   FreeFilePtr(&lclStream);
 334:/home/hkh/git/eapidk-code-r76-trunk/apps/EeePProg/linux/../EeePProg.c ****   return StatusCode;
 335:/home/hkh/git/eapidk-code-r76-trunk/apps/EeePProg/linux/../EeePProg.c **** }
 336:/home/hkh/git/eapidk-code-r76-trunk/apps/EeePProg/linux/../EeePProg.c **** 
 337:/home/hkh/git/eapidk-code-r76-trunk/apps/EeePProg/linux/../EeePProg.c **** EApiStatus_t 
 338:/home/hkh/git/eapidk-code-r76-trunk/apps/EeePProg/linux/../EeePProg.c **** CMD_CreateCOM0R20CB_EEP(
 339:/home/hkh/git/eapidk-code-r76-trunk/apps/EeePProg/linux/../EeePProg.c ****     void *pArgData
 340:/home/hkh/git/eapidk-code-r76-trunk/apps/EeePProg/linux/../EeePProg.c ****     )
 341:/home/hkh/git/eapidk-code-r76-trunk/apps/EeePProg/linux/../EeePProg.c **** {
  49              		.loc 1 341 1 view -0
  50              		.cfi_startproc
  51              		@ args = 0, pretend = 0, frame = 8
  52              		@ frame_needed = 0, uses_anonymous_args = 0
  53              		.loc 1 341 1 is_stmt 0 view .LVU1
  54 0000 08C19FE5 		ldr	ip, .L13
 342:/home/hkh/git/eapidk-code-r76-trunk/apps/EeePProg/linux/../EeePProg.c ****   EApiStatus_t StatusCode=EAPI_STATUS_SUCCESS;
 343:/home/hkh/git/eapidk-code-r76-trunk/apps/EeePProg/linux/../EeePProg.c ****   EeePHandel_t BHandel=NULL;
  55              		.loc 1 343 16 view .LVU2
  56 0004 0030A0E3 		mov	r3, #0
 341:/home/hkh/git/eapidk-code-r76-trunk/apps/EeePProg/linux/../EeePProg.c ****   EApiStatus_t StatusCode=EAPI_STATUS_SUCCESS;
  57              		.loc 1 341 1 view .LVU3
  58 0008 04219FE5 		ldr	r2, .L13+4
  59 000c 30402DE9 		push	{r4, r5, lr}
  60              		.cfi_def_cfa_offset 12
  61              		.cfi_offset 4, -12
  62              		.cfi_offset 5, -8
  63              		.cfi_offset 14, -4
  64 0010 1CD04DE2 		sub	sp, sp, #28
  65              		.cfi_def_cfa_offset 40
 341:/home/hkh/git/eapidk-code-r76-trunk/apps/EeePProg/linux/../EeePProg.c ****   EApiStatus_t StatusCode=EAPI_STATUS_SUCCESS;
  66              		.loc 1 341 1 view .LVU4
  67              	.LPIC9:
  68 0014 0CC08FE0 		add	ip, pc, ip
 344:/home/hkh/git/eapidk-code-r76-trunk/apps/EeePProg/linux/../EeePProg.c **** 
 345:/home/hkh/git/eapidk-code-r76-trunk/apps/EeePProg/linux/../EeePProg.c ****   DO(EeeP_CreateCOM0R20_CBImage(
  69              		.loc 1 345 3 view .LVU5
  70 0018 10508DE2 		add	r5, sp, #16
 341:/home/hkh/git/eapidk-code-r76-trunk/apps/EeePProg/linux/../EeePProg.c ****   EApiStatus_t StatusCode=EAPI_STATUS_SUCCESS;
  71              		.loc 1 341 1 view .LVU6
  72 001c 02209CE7 		ldr	r2, [ip, r2]
  73              		.loc 1 345 3 view .LVU7
  74 0020 001090E5 		ldr	r1, [r0]
  75 0024 0500A0E1 		mov	r0, r5
 341:/home/hkh/git/eapidk-code-r76-trunk/apps/EeePProg/linux/../EeePProg.c ****   EApiStatus_t StatusCode=EAPI_STATUS_SUCCESS;
  76              		.loc 1 341 1 view .LVU8
  77 0028 002092E5 		ldr	r2, [r2]
  78 002c 14208DE5 		str	r2, [sp, #20]
  79 0030 0020A0E3 		mov	r2, #0
 342:/home/hkh/git/eapidk-code-r76-trunk/apps/EeePProg/linux/../EeePProg.c ****   EeePHandel_t BHandel=NULL;
  80              		.loc 1 342 3 is_stmt 1 view .LVU9
  81              	.LVL1:
 343:/home/hkh/git/eapidk-code-r76-trunk/apps/EeePProg/linux/../EeePProg.c **** 
  82              		.loc 1 343 3 view .LVU10
 343:/home/hkh/git/eapidk-code-r76-trunk/apps/EeePProg/linux/../EeePProg.c **** 
  83              		.loc 1 343 16 is_stmt 0 view .LVU11
  84 0034 10308DE5 		str	r3, [sp, #16]
ARM GAS  /tmp/ccqui9DH.s 			page 9


  85              		.loc 1 345 3 is_stmt 1 view .LVU12
  86              		.loc 1 345 3 view .LVU13
  87 0038 FEFFFFEB 		bl	EeeP_CreateCOM0R20_CBImage(PLT)
  88              	.LVL2:
  89              		.loc 1 345 3 view .LVU14
  90 003c 004050E2 		subs	r4, r0, #0
  91 0040 1300001A 		bne	.L10
  92              		.loc 1 345 3 discriminator 2 view .LVU15
 346:/home/hkh/git/eapidk-code-r76-trunk/apps/EeePProg/linux/../EeePProg.c ****         &BHandel                              ,
 347:/home/hkh/git/eapidk-code-r76-trunk/apps/EeePProg/linux/../EeePProg.c ****         *(char**)pArgData
 348:/home/hkh/git/eapidk-code-r76-trunk/apps/EeePProg/linux/../EeePProg.c ****       ));
 349:/home/hkh/git/eapidk-code-r76-trunk/apps/EeePProg/linux/../EeePProg.c ****   DO(EeePWriteBufferToEEP(BHandel, EAPI_ID_I2C_EXTERNAL, COM0R20_CB_EEP_DEV_ADDR));
  93              		.loc 1 349 3 discriminator 2 view .LVU16
  94              		.loc 1 349 3 discriminator 2 view .LVU17
  95 0044 0410A0E1 		mov	r1, r4
  96 0048 10009DE5 		ldr	r0, [sp, #16]
  97              	.LVL3:
  98              		.loc 1 349 3 is_stmt 0 discriminator 2 view .LVU18
  99 004c AE20A0E3 		mov	r2, #174
 100 0050 FEFFFFEB 		bl	EeePWriteBufferToEEP(PLT)
 101              	.LVL4:
 102              		.loc 1 349 3 is_stmt 1 discriminator 2 view .LVU19
 103 0054 004050E2 		subs	r4, r0, #0
 104 0058 1C00001A 		bne	.L11
 105              	.LVL5:
 106              	.L3:
 107              		.loc 1 349 3 discriminator 3 view .LVU20
 350:/home/hkh/git/eapidk-code-r76-trunk/apps/EeePProg/linux/../EeePProg.c **** 
 351:/home/hkh/git/eapidk-code-r76-trunk/apps/EeePProg/linux/../EeePProg.c **** EAPI_APP_ASSERT_EXIT
 352:/home/hkh/git/eapidk-code-r76-trunk/apps/EeePProg/linux/../EeePProg.c ****   EeePFreeBuffer(&BHandel);
 108              		.loc 1 352 3 discriminator 3 view .LVU21
 109 005c 0500A0E1 		mov	r0, r5
 110 0060 FEFFFFEB 		bl	EeePFreeBuffer(PLT)
 111              	.LVL6:
 353:/home/hkh/git/eapidk-code-r76-trunk/apps/EeePProg/linux/../EeePProg.c ****   return StatusCode;
 112              		.loc 1 353 3 discriminator 3 view .LVU22
 341:/home/hkh/git/eapidk-code-r76-trunk/apps/EeePProg/linux/../EeePProg.c ****   EApiStatus_t StatusCode=EAPI_STATUS_SUCCESS;
 113              		.loc 1 341 1 is_stmt 0 discriminator 3 view .LVU23
 114 0064 AC209FE5 		ldr	r2, .L13+8
 354:/home/hkh/git/eapidk-code-r76-trunk/apps/EeePProg/linux/../EeePProg.c **** }
 115              		.loc 1 354 1 discriminator 3 view .LVU24
 116 0068 A4309FE5 		ldr	r3, .L13+4
 341:/home/hkh/git/eapidk-code-r76-trunk/apps/EeePProg/linux/../EeePProg.c ****   EApiStatus_t StatusCode=EAPI_STATUS_SUCCESS;
 117              		.loc 1 341 1 discriminator 3 view .LVU25
 118              	.LPIC8:
 119 006c 02208FE0 		add	r2, pc, r2
 120              		.loc 1 354 1 discriminator 3 view .LVU26
 121 0070 033092E7 		ldr	r3, [r2, r3]
 122 0074 002093E5 		ldr	r2, [r3]
 123 0078 14309DE5 		ldr	r3, [sp, #20]
 124 007c 022033E0 		eors	r2, r3, r2
 125 0080 0030A0E3 		mov	r3, #0
 126 0084 2000001A 		bne	.L12
 127              		.loc 1 354 1 view .LVU27
 128 0088 0400A0E1 		mov	r0, r4
 129 008c 1CD08DE2 		add	sp, sp, #28
 130              		.cfi_remember_state
ARM GAS  /tmp/ccqui9DH.s 			page 10


 131              		.cfi_def_cfa_offset 12
 132              		@ sp needed
 133 0090 3080BDE8 		pop	{r4, r5, pc}
 134              	.LVL7:
 135              	.L10:
 136              		.cfi_restore_state
 345:/home/hkh/git/eapidk-code-r76-trunk/apps/EeePProg/linux/../EeePProg.c ****         &BHandel                              ,
 137              		.loc 1 345 3 is_stmt 1 discriminator 1 view .LVU28
 138 0094 80109FE5 		ldr	r1, .L13+12
 139 0098 593100E3 		movw	r3, #345
 140 009c 7C009FE5 		ldr	r0, .L13+16
 141              	.LVL8:
 345:/home/hkh/git/eapidk-code-r76-trunk/apps/EeePProg/linux/../EeePProg.c ****         &BHandel                              ,
 142              		.loc 1 345 3 is_stmt 0 discriminator 1 view .LVU29
 143 00a0 7C209FE5 		ldr	r2, .L13+20
 144              	.LPIC3:
 145 00a4 01108FE0 		add	r1, pc, r1
 146 00a8 00408DE5 		str	r4, [sp]
 147 00ac 04108DE5 		str	r1, [sp, #4]
 148              	.LPIC2:
 149 00b0 00008FE0 		add	r0, pc, r0
 150 00b4 6C109FE5 		ldr	r1, .L13+24
 151              	.LPIC0:
 152 00b8 02208FE0 		add	r2, pc, r2
 153 00bc 08008DE5 		str	r0, [sp, #8]
 154 00c0 4500A0E3 		mov	r0, #69
 155              	.LPIC1:
 156 00c4 01108FE0 		add	r1, pc, r1
 157 00c8 FEFFFFEB 		bl	siFormattedMessage_SC(PLT)
 158              	.LVL9:
 345:/home/hkh/git/eapidk-code-r76-trunk/apps/EeePProg/linux/../EeePProg.c ****         &BHandel                              ,
 159              		.loc 1 345 3 is_stmt 1 discriminator 1 view .LVU30
 160 00cc E2FFFFEA 		b	.L3
 161              	.LVL10:
 162              	.L11:
 349:/home/hkh/git/eapidk-code-r76-trunk/apps/EeePProg/linux/../EeePProg.c **** 
 163              		.loc 1 349 3 discriminator 1 view .LVU31
 164 00d0 54109FE5 		ldr	r1, .L13+28
 165 00d4 5D3100E3 		movw	r3, #349
 166 00d8 50009FE5 		ldr	r0, .L13+32
 167              	.LVL11:
 349:/home/hkh/git/eapidk-code-r76-trunk/apps/EeePProg/linux/../EeePProg.c **** 
 168              		.loc 1 349 3 is_stmt 0 discriminator 1 view .LVU32
 169 00dc 50209FE5 		ldr	r2, .L13+36
 170              	.LPIC7:
 171 00e0 01108FE0 		add	r1, pc, r1
 172 00e4 00408DE5 		str	r4, [sp]
 173 00e8 04108DE5 		str	r1, [sp, #4]
 174              	.LPIC6:
 175 00ec 00008FE0 		add	r0, pc, r0
 176 00f0 40109FE5 		ldr	r1, .L13+40
 177              	.LPIC4:
 178 00f4 02208FE0 		add	r2, pc, r2
 179 00f8 08008DE5 		str	r0, [sp, #8]
 180 00fc 4500A0E3 		mov	r0, #69
 181              	.LPIC5:
 182 0100 01108FE0 		add	r1, pc, r1
ARM GAS  /tmp/ccqui9DH.s 			page 11


 183 0104 FEFFFFEB 		bl	siFormattedMessage_SC(PLT)
 184              	.LVL12:
 349:/home/hkh/git/eapidk-code-r76-trunk/apps/EeePProg/linux/../EeePProg.c **** 
 185              		.loc 1 349 3 is_stmt 1 discriminator 1 view .LVU33
 186 0108 D3FFFFEA 		b	.L3
 187              	.L12:
 188              		.loc 1 354 1 is_stmt 0 view .LVU34
 189 010c FEFFFFEB 		bl	__stack_chk_fail(PLT)
 190              	.LVL13:
 191              	.L14:
 192              		.align	2
 193              	.L13:
 194 0110 F4000000 		.word	_GLOBAL_OFFSET_TABLE_-(.LPIC9+8)
 195 0114 00000000 		.word	__stack_chk_guard(GOT)
 196 0118 A4000000 		.word	_GLOBAL_OFFSET_TABLE_-(.LPIC8+8)
 197 011c 70000000 		.word	.LC3-(.LPIC3+8)
 198 0120 68000000 		.word	.LC2-(.LPIC2+8)
 199 0124 64000000 		.word	.LC0-(.LPIC0+8)
 200 0128 5C000000 		.word	.LC1-(.LPIC1+8)
 201 012c 44000000 		.word	.LC3-(.LPIC7+8)
 202 0130 3C000000 		.word	.LC4-(.LPIC6+8)
 203 0134 38000000 		.word	.LC0-(.LPIC4+8)
 204 0138 30000000 		.word	.LC1-(.LPIC5+8)
 205              		.cfi_endproc
 206              	.LFE6:
 208              		.section	.rodata.str1.4
 209 00d9 000000   		.align	2
 210              	.LC5:
 211 00dc 45656550 		.ascii	"EeeP_CreateCOM0R20_MEEPImage( &BHandel , *(char**)p"
 211      5F437265 
 211      61746543 
 211      4F4D3052 
 211      32305F4D 
 212 010f 41726744 		.ascii	"ArgData )\000"
 212      61746120 
 212      2900
 213 0119 000000   		.align	2
 214              	.LC6:
 215 011c 45656550 		.ascii	"EeePWriteBufferToEEP(BHandel, EAPI_ID_I2C_EXTERNAL,"
 215      57726974 
 215      65427566 
 215      66657254 
 215      6F454550 
 216 014f 20434F4D 		.ascii	" COM0R20_M_EEP_DEV_ADDR)\000"
 216      30523230 
 216      5F4D5F45 
 216      45505F44 
 216      45565F41 
 217              		.text
 218              		.align	2
 219              		.global	CMD_CreateCOM0R20M_EEP
 220              		.syntax unified
 221              		.arm
 222              		.fpu vfpv3
 224              	CMD_CreateCOM0R20M_EEP:
 225              	.LVL14:
 226              	.LFB7:
ARM GAS  /tmp/ccqui9DH.s 			page 12


 355:/home/hkh/git/eapidk-code-r76-trunk/apps/EeePProg/linux/../EeePProg.c **** 
 356:/home/hkh/git/eapidk-code-r76-trunk/apps/EeePProg/linux/../EeePProg.c **** EApiStatus_t 
 357:/home/hkh/git/eapidk-code-r76-trunk/apps/EeePProg/linux/../EeePProg.c **** CMD_CreateCOM0R20M_EEP(
 358:/home/hkh/git/eapidk-code-r76-trunk/apps/EeePProg/linux/../EeePProg.c ****     void *pArgData
 359:/home/hkh/git/eapidk-code-r76-trunk/apps/EeePProg/linux/../EeePProg.c ****     )
 360:/home/hkh/git/eapidk-code-r76-trunk/apps/EeePProg/linux/../EeePProg.c **** {
 227              		.loc 1 360 1 is_stmt 1 view -0
 228              		.cfi_startproc
 229              		@ args = 0, pretend = 0, frame = 8
 230              		@ frame_needed = 0, uses_anonymous_args = 0
 231              		.loc 1 360 1 is_stmt 0 view .LVU36
 232 013c 08C19FE5 		ldr	ip, .L26
 361:/home/hkh/git/eapidk-code-r76-trunk/apps/EeePProg/linux/../EeePProg.c ****   EApiStatus_t StatusCode=EAPI_STATUS_SUCCESS;
 362:/home/hkh/git/eapidk-code-r76-trunk/apps/EeePProg/linux/../EeePProg.c ****   EeePHandel_t BHandel=NULL;
 233              		.loc 1 362 16 view .LVU37
 234 0140 0030A0E3 		mov	r3, #0
 360:/home/hkh/git/eapidk-code-r76-trunk/apps/EeePProg/linux/../EeePProg.c ****   EApiStatus_t StatusCode=EAPI_STATUS_SUCCESS;
 235              		.loc 1 360 1 view .LVU38
 236 0144 04219FE5 		ldr	r2, .L26+4
 237 0148 30402DE9 		push	{r4, r5, lr}
 238              		.cfi_def_cfa_offset 12
 239              		.cfi_offset 4, -12
 240              		.cfi_offset 5, -8
 241              		.cfi_offset 14, -4
 242 014c 1CD04DE2 		sub	sp, sp, #28
 243              		.cfi_def_cfa_offset 40
 360:/home/hkh/git/eapidk-code-r76-trunk/apps/EeePProg/linux/../EeePProg.c ****   EApiStatus_t StatusCode=EAPI_STATUS_SUCCESS;
 244              		.loc 1 360 1 view .LVU39
 245              	.LPIC19:
 246 0150 0CC08FE0 		add	ip, pc, ip
 363:/home/hkh/git/eapidk-code-r76-trunk/apps/EeePProg/linux/../EeePProg.c **** 
 364:/home/hkh/git/eapidk-code-r76-trunk/apps/EeePProg/linux/../EeePProg.c ****   DO(EeeP_CreateCOM0R20_MEEPImage(
 247              		.loc 1 364 3 view .LVU40
 248 0154 10508DE2 		add	r5, sp, #16
 360:/home/hkh/git/eapidk-code-r76-trunk/apps/EeePProg/linux/../EeePProg.c ****   EApiStatus_t StatusCode=EAPI_STATUS_SUCCESS;
 249              		.loc 1 360 1 view .LVU41
 250 0158 02209CE7 		ldr	r2, [ip, r2]
 251              		.loc 1 364 3 view .LVU42
 252 015c 001090E5 		ldr	r1, [r0]
 253 0160 0500A0E1 		mov	r0, r5
 360:/home/hkh/git/eapidk-code-r76-trunk/apps/EeePProg/linux/../EeePProg.c ****   EApiStatus_t StatusCode=EAPI_STATUS_SUCCESS;
 254              		.loc 1 360 1 view .LVU43
 255 0164 002092E5 		ldr	r2, [r2]
 256 0168 14208DE5 		str	r2, [sp, #20]
 257 016c 0020A0E3 		mov	r2, #0
 361:/home/hkh/git/eapidk-code-r76-trunk/apps/EeePProg/linux/../EeePProg.c ****   EeePHandel_t BHandel=NULL;
 258              		.loc 1 361 3 is_stmt 1 view .LVU44
 259              	.LVL15:
 362:/home/hkh/git/eapidk-code-r76-trunk/apps/EeePProg/linux/../EeePProg.c **** 
 260              		.loc 1 362 3 view .LVU45
 362:/home/hkh/git/eapidk-code-r76-trunk/apps/EeePProg/linux/../EeePProg.c **** 
 261              		.loc 1 362 16 is_stmt 0 view .LVU46
 262 0170 10308DE5 		str	r3, [sp, #16]
 263              		.loc 1 364 3 is_stmt 1 view .LVU47
 264              		.loc 1 364 3 view .LVU48
 265 0174 FEFFFFEB 		bl	EeeP_CreateCOM0R20_MEEPImage(PLT)
 266              	.LVL16:
ARM GAS  /tmp/ccqui9DH.s 			page 13


 267              		.loc 1 364 3 view .LVU49
 268 0178 004050E2 		subs	r4, r0, #0
 269 017c 1300001A 		bne	.L23
 270              		.loc 1 364 3 discriminator 2 view .LVU50
 365:/home/hkh/git/eapidk-code-r76-trunk/apps/EeePProg/linux/../EeePProg.c ****         &BHandel                              ,
 366:/home/hkh/git/eapidk-code-r76-trunk/apps/EeePProg/linux/../EeePProg.c ****         *(char**)pArgData
 367:/home/hkh/git/eapidk-code-r76-trunk/apps/EeePProg/linux/../EeePProg.c ****       ));
 368:/home/hkh/git/eapidk-code-r76-trunk/apps/EeePProg/linux/../EeePProg.c ****   DO(EeePWriteBufferToEEP(BHandel, EAPI_ID_I2C_EXTERNAL, COM0R20_M_EEP_DEV_ADDR));
 271              		.loc 1 368 3 discriminator 2 view .LVU51
 272              		.loc 1 368 3 discriminator 2 view .LVU52
 273 0180 0410A0E1 		mov	r1, r4
 274 0184 10009DE5 		ldr	r0, [sp, #16]
 275              	.LVL17:
 276              		.loc 1 368 3 is_stmt 0 discriminator 2 view .LVU53
 277 0188 A020A0E3 		mov	r2, #160
 278 018c FEFFFFEB 		bl	EeePWriteBufferToEEP(PLT)
 279              	.LVL18:
 280              		.loc 1 368 3 is_stmt 1 discriminator 2 view .LVU54
 281 0190 004050E2 		subs	r4, r0, #0
 282 0194 1C00001A 		bne	.L24
 283              	.LVL19:
 284              	.L17:
 285              		.loc 1 368 3 discriminator 3 view .LVU55
 369:/home/hkh/git/eapidk-code-r76-trunk/apps/EeePProg/linux/../EeePProg.c **** 
 370:/home/hkh/git/eapidk-code-r76-trunk/apps/EeePProg/linux/../EeePProg.c **** EAPI_APP_ASSERT_EXIT
 371:/home/hkh/git/eapidk-code-r76-trunk/apps/EeePProg/linux/../EeePProg.c ****   EeePFreeBuffer(&BHandel);
 286              		.loc 1 371 3 discriminator 3 view .LVU56
 287 0198 0500A0E1 		mov	r0, r5
 288 019c FEFFFFEB 		bl	EeePFreeBuffer(PLT)
 289              	.LVL20:
 372:/home/hkh/git/eapidk-code-r76-trunk/apps/EeePProg/linux/../EeePProg.c ****   return StatusCode;
 290              		.loc 1 372 3 discriminator 3 view .LVU57
 360:/home/hkh/git/eapidk-code-r76-trunk/apps/EeePProg/linux/../EeePProg.c ****   EApiStatus_t StatusCode=EAPI_STATUS_SUCCESS;
 291              		.loc 1 360 1 is_stmt 0 discriminator 3 view .LVU58
 292 01a0 AC209FE5 		ldr	r2, .L26+8
 373:/home/hkh/git/eapidk-code-r76-trunk/apps/EeePProg/linux/../EeePProg.c **** }
 293              		.loc 1 373 1 discriminator 3 view .LVU59
 294 01a4 A4309FE5 		ldr	r3, .L26+4
 360:/home/hkh/git/eapidk-code-r76-trunk/apps/EeePProg/linux/../EeePProg.c ****   EApiStatus_t StatusCode=EAPI_STATUS_SUCCESS;
 295              		.loc 1 360 1 discriminator 3 view .LVU60
 296              	.LPIC18:
 297 01a8 02208FE0 		add	r2, pc, r2
 298              		.loc 1 373 1 discriminator 3 view .LVU61
 299 01ac 033092E7 		ldr	r3, [r2, r3]
 300 01b0 002093E5 		ldr	r2, [r3]
 301 01b4 14309DE5 		ldr	r3, [sp, #20]
 302 01b8 022033E0 		eors	r2, r3, r2
 303 01bc 0030A0E3 		mov	r3, #0
 304 01c0 2000001A 		bne	.L25
 305              		.loc 1 373 1 view .LVU62
 306 01c4 0400A0E1 		mov	r0, r4
 307 01c8 1CD08DE2 		add	sp, sp, #28
 308              		.cfi_remember_state
 309              		.cfi_def_cfa_offset 12
 310              		@ sp needed
 311 01cc 3080BDE8 		pop	{r4, r5, pc}
 312              	.LVL21:
ARM GAS  /tmp/ccqui9DH.s 			page 14


 313              	.L23:
 314              		.cfi_restore_state
 364:/home/hkh/git/eapidk-code-r76-trunk/apps/EeePProg/linux/../EeePProg.c ****         &BHandel                              ,
 315              		.loc 1 364 3 is_stmt 1 discriminator 1 view .LVU63
 316 01d0 80109FE5 		ldr	r1, .L26+12
 317 01d4 5B3FA0E3 		mov	r3, #364
 318 01d8 7C009FE5 		ldr	r0, .L26+16
 319              	.LVL22:
 364:/home/hkh/git/eapidk-code-r76-trunk/apps/EeePProg/linux/../EeePProg.c ****         &BHandel                              ,
 320              		.loc 1 364 3 is_stmt 0 discriminator 1 view .LVU64
 321 01dc 7C209FE5 		ldr	r2, .L26+20
 322              	.LPIC13:
 323 01e0 01108FE0 		add	r1, pc, r1
 324 01e4 00408DE5 		str	r4, [sp]
 325 01e8 04108DE5 		str	r1, [sp, #4]
 326              	.LPIC12:
 327 01ec 00008FE0 		add	r0, pc, r0
 328 01f0 6C109FE5 		ldr	r1, .L26+24
 329              	.LPIC10:
 330 01f4 02208FE0 		add	r2, pc, r2
 331 01f8 08008DE5 		str	r0, [sp, #8]
 332 01fc 4500A0E3 		mov	r0, #69
 333              	.LPIC11:
 334 0200 01108FE0 		add	r1, pc, r1
 335 0204 FEFFFFEB 		bl	siFormattedMessage_SC(PLT)
 336              	.LVL23:
 364:/home/hkh/git/eapidk-code-r76-trunk/apps/EeePProg/linux/../EeePProg.c ****         &BHandel                              ,
 337              		.loc 1 364 3 is_stmt 1 discriminator 1 view .LVU65
 338 0208 E2FFFFEA 		b	.L17
 339              	.LVL24:
 340              	.L24:
 368:/home/hkh/git/eapidk-code-r76-trunk/apps/EeePProg/linux/../EeePProg.c **** 
 341              		.loc 1 368 3 discriminator 1 view .LVU66
 342 020c 54109FE5 		ldr	r1, .L26+28
 343 0210 173EA0E3 		mov	r3, #368
 344 0214 50009FE5 		ldr	r0, .L26+32
 345              	.LVL25:
 368:/home/hkh/git/eapidk-code-r76-trunk/apps/EeePProg/linux/../EeePProg.c **** 
 346              		.loc 1 368 3 is_stmt 0 discriminator 1 view .LVU67
 347 0218 50209FE5 		ldr	r2, .L26+36
 348              	.LPIC17:
 349 021c 01108FE0 		add	r1, pc, r1
 350 0220 00408DE5 		str	r4, [sp]
 351 0224 04108DE5 		str	r1, [sp, #4]
 352              	.LPIC16:
 353 0228 00008FE0 		add	r0, pc, r0
 354 022c 40109FE5 		ldr	r1, .L26+40
 355              	.LPIC14:
 356 0230 02208FE0 		add	r2, pc, r2
 357 0234 08008DE5 		str	r0, [sp, #8]
 358 0238 4500A0E3 		mov	r0, #69
 359              	.LPIC15:
 360 023c 01108FE0 		add	r1, pc, r1
 361 0240 FEFFFFEB 		bl	siFormattedMessage_SC(PLT)
 362              	.LVL26:
 368:/home/hkh/git/eapidk-code-r76-trunk/apps/EeePProg/linux/../EeePProg.c **** 
 363              		.loc 1 368 3 is_stmt 1 discriminator 1 view .LVU68
ARM GAS  /tmp/ccqui9DH.s 			page 15


 364 0244 D3FFFFEA 		b	.L17
 365              	.L25:
 366              		.loc 1 373 1 is_stmt 0 view .LVU69
 367 0248 FEFFFFEB 		bl	__stack_chk_fail(PLT)
 368              	.LVL27:
 369              	.L27:
 370              		.align	2
 371              	.L26:
 372 024c F4000000 		.word	_GLOBAL_OFFSET_TABLE_-(.LPIC19+8)
 373 0250 00000000 		.word	__stack_chk_guard(GOT)
 374 0254 A4000000 		.word	_GLOBAL_OFFSET_TABLE_-(.LPIC18+8)
 375 0258 70000000 		.word	.LC3-(.LPIC13+8)
 376 025c 68000000 		.word	.LC5-(.LPIC12+8)
 377 0260 64000000 		.word	.LC0-(.LPIC10+8)
 378 0264 5C000000 		.word	.LC1-(.LPIC11+8)
 379 0268 44000000 		.word	.LC3-(.LPIC17+8)
 380 026c 3C000000 		.word	.LC6-(.LPIC16+8)
 381 0270 38000000 		.word	.LC0-(.LPIC14+8)
 382 0274 30000000 		.word	.LC1-(.LPIC15+8)
 383              		.cfi_endproc
 384              	.LFE7:
 386              		.section	.rodata.str1.4
 387              		.align	2
 388              	.LC7:
 389 0168 45656550 		.ascii	"EeeP_CreateEeePExtEEPImage( &BHandel , ((WriteEepCf"
 389      5F437265 
 389      61746545 
 389      65655045 
 389      78744545 
 390 019b 675F742A 		.ascii	"g_t*)pArgData)->FileName )\000"
 390      29704172 
 390      67446174 
 390      61292D3E 
 390      46696C65 
 391 01b6 0000     		.align	2
 392              	.LC8:
 393 01b8 45656550 		.ascii	"EeePWriteBufferToEEP(BHandel, (uint16_t)((WriteEepC"
 393      57726974 
 393      65427566 
 393      66657254 
 393      6F454550 
 394 01eb 66675F74 		.ascii	"fg_t*)pArgData)->I2CBus, (uint16_t)((WriteEepCfg_t*"
 394      2A297041 
 394      72674461 
 394      7461292D 
 394      3E493243 
 395 021e 29704172 		.ascii	")pArgData)->I2CDevAddr )\000"
 395      67446174 
 395      61292D3E 
 395      49324344 
 395      65764164 
 396              		.text
 397              		.align	2
 398              		.global	CMD_CreateEeePExt_EEP
 399              		.syntax unified
 400              		.arm
 401              		.fpu vfpv3
ARM GAS  /tmp/ccqui9DH.s 			page 16


 403              	CMD_CreateEeePExt_EEP:
 404              	.LVL28:
 405              	.LFB8:
 374:/home/hkh/git/eapidk-code-r76-trunk/apps/EeePProg/linux/../EeePProg.c **** 
 375:/home/hkh/git/eapidk-code-r76-trunk/apps/EeePProg/linux/../EeePProg.c **** EApiStatus_t 
 376:/home/hkh/git/eapidk-code-r76-trunk/apps/EeePProg/linux/../EeePProg.c **** CMD_CreateEeePExt_EEP(
 377:/home/hkh/git/eapidk-code-r76-trunk/apps/EeePProg/linux/../EeePProg.c ****     void *pArgData
 378:/home/hkh/git/eapidk-code-r76-trunk/apps/EeePProg/linux/../EeePProg.c ****     )
 379:/home/hkh/git/eapidk-code-r76-trunk/apps/EeePProg/linux/../EeePProg.c **** {
 406              		.loc 1 379 1 is_stmt 1 view -0
 407              		.cfi_startproc
 408              		@ args = 0, pretend = 0, frame = 8
 409              		@ frame_needed = 0, uses_anonymous_args = 0
 410              		.loc 1 379 1 is_stmt 0 view .LVU71
 411 0278 0CC19FE5 		ldr	ip, .L39
 380:/home/hkh/git/eapidk-code-r76-trunk/apps/EeePProg/linux/../EeePProg.c ****   EApiStatus_t StatusCode=EAPI_STATUS_SUCCESS;
 381:/home/hkh/git/eapidk-code-r76-trunk/apps/EeePProg/linux/../EeePProg.c ****   EeePHandel_t BHandel=NULL;
 412              		.loc 1 381 16 view .LVU72
 413 027c 0030A0E3 		mov	r3, #0
 379:/home/hkh/git/eapidk-code-r76-trunk/apps/EeePProg/linux/../EeePProg.c ****   EApiStatus_t StatusCode=EAPI_STATUS_SUCCESS;
 414              		.loc 1 379 1 view .LVU73
 415 0280 08219FE5 		ldr	r2, .L39+4
 416 0284 70402DE9 		push	{r4, r5, r6, lr}
 417              		.cfi_def_cfa_offset 16
 418              		.cfi_offset 4, -16
 419              		.cfi_offset 5, -12
 420              		.cfi_offset 6, -8
 421              		.cfi_offset 14, -4
 422 0288 18D04DE2 		sub	sp, sp, #24
 423              		.cfi_def_cfa_offset 40
 379:/home/hkh/git/eapidk-code-r76-trunk/apps/EeePProg/linux/../EeePProg.c ****   EApiStatus_t StatusCode=EAPI_STATUS_SUCCESS;
 424              		.loc 1 379 1 view .LVU74
 425              	.LPIC29:
 426 028c 0CC08FE0 		add	ip, pc, ip
 382:/home/hkh/git/eapidk-code-r76-trunk/apps/EeePProg/linux/../EeePProg.c **** 
 383:/home/hkh/git/eapidk-code-r76-trunk/apps/EeePProg/linux/../EeePProg.c ****   DO(EeeP_CreateEeePExtEEPImage(
 427              		.loc 1 383 3 view .LVU75
 428 0290 10608DE2 		add	r6, sp, #16
 379:/home/hkh/git/eapidk-code-r76-trunk/apps/EeePProg/linux/../EeePProg.c ****   EApiStatus_t StatusCode=EAPI_STATUS_SUCCESS;
 429              		.loc 1 379 1 view .LVU76
 430 0294 0050A0E1 		mov	r5, r0
 431 0298 02209CE7 		ldr	r2, [ip, r2]
 432              		.loc 1 383 3 view .LVU77
 433 029c 001090E5 		ldr	r1, [r0]
 434 02a0 0600A0E1 		mov	r0, r6
 379:/home/hkh/git/eapidk-code-r76-trunk/apps/EeePProg/linux/../EeePProg.c ****   EApiStatus_t StatusCode=EAPI_STATUS_SUCCESS;
 435              		.loc 1 379 1 view .LVU78
 436 02a4 002092E5 		ldr	r2, [r2]
 437 02a8 14208DE5 		str	r2, [sp, #20]
 438 02ac 0020A0E3 		mov	r2, #0
 380:/home/hkh/git/eapidk-code-r76-trunk/apps/EeePProg/linux/../EeePProg.c ****   EeePHandel_t BHandel=NULL;
 439              		.loc 1 380 3 is_stmt 1 view .LVU79
 440              	.LVL29:
 381:/home/hkh/git/eapidk-code-r76-trunk/apps/EeePProg/linux/../EeePProg.c **** 
 441              		.loc 1 381 3 view .LVU80
 381:/home/hkh/git/eapidk-code-r76-trunk/apps/EeePProg/linux/../EeePProg.c **** 
 442              		.loc 1 381 16 is_stmt 0 view .LVU81
ARM GAS  /tmp/ccqui9DH.s 			page 17


 443 02b0 10308DE5 		str	r3, [sp, #16]
 444              		.loc 1 383 3 is_stmt 1 view .LVU82
 445              		.loc 1 383 3 view .LVU83
 446 02b4 FEFFFFEB 		bl	EeeP_CreateEeePExtEEPImage(PLT)
 447              	.LVL30:
 448              		.loc 1 383 3 view .LVU84
 449 02b8 004050E2 		subs	r4, r0, #0
 450 02bc 1300001A 		bne	.L36
 451              		.loc 1 383 3 discriminator 2 view .LVU85
 384:/home/hkh/git/eapidk-code-r76-trunk/apps/EeePProg/linux/../EeePProg.c ****         &BHandel                              ,
 385:/home/hkh/git/eapidk-code-r76-trunk/apps/EeePProg/linux/../EeePProg.c ****         ((WriteEepCfg_t*)pArgData)->FileName
 386:/home/hkh/git/eapidk-code-r76-trunk/apps/EeePProg/linux/../EeePProg.c ****       ));
 387:/home/hkh/git/eapidk-code-r76-trunk/apps/EeePProg/linux/../EeePProg.c ****   DO(EeePWriteBufferToEEP(BHandel, 
 452              		.loc 1 387 3 discriminator 2 view .LVU86
 453              		.loc 1 387 3 discriminator 2 view .LVU87
 454 02c0 B820D5E1 		ldrh	r2, [r5, #8]
 455 02c4 B410D5E1 		ldrh	r1, [r5, #4]
 456 02c8 10009DE5 		ldr	r0, [sp, #16]
 457              	.LVL31:
 458              		.loc 1 387 3 is_stmt 0 discriminator 2 view .LVU88
 459 02cc FEFFFFEB 		bl	EeePWriteBufferToEEP(PLT)
 460              	.LVL32:
 461              		.loc 1 387 3 is_stmt 1 discriminator 2 view .LVU89
 462 02d0 004050E2 		subs	r4, r0, #0
 463 02d4 1C00001A 		bne	.L37
 464              	.LVL33:
 465              	.L30:
 466              		.loc 1 387 3 discriminator 3 view .LVU90
 388:/home/hkh/git/eapidk-code-r76-trunk/apps/EeePProg/linux/../EeePProg.c ****         (uint16_t)((WriteEepCfg_t*)pArgData)->I2CBus, 
 389:/home/hkh/git/eapidk-code-r76-trunk/apps/EeePProg/linux/../EeePProg.c ****         (uint16_t)((WriteEepCfg_t*)pArgData)->I2CDevAddr
 390:/home/hkh/git/eapidk-code-r76-trunk/apps/EeePProg/linux/../EeePProg.c ****         )
 391:/home/hkh/git/eapidk-code-r76-trunk/apps/EeePProg/linux/../EeePProg.c ****       );
 392:/home/hkh/git/eapidk-code-r76-trunk/apps/EeePProg/linux/../EeePProg.c **** 
 393:/home/hkh/git/eapidk-code-r76-trunk/apps/EeePProg/linux/../EeePProg.c **** EAPI_APP_ASSERT_EXIT
 394:/home/hkh/git/eapidk-code-r76-trunk/apps/EeePProg/linux/../EeePProg.c ****   EeePFreeBuffer(&BHandel);
 467              		.loc 1 394 3 discriminator 3 view .LVU91
 468 02d8 0600A0E1 		mov	r0, r6
 469 02dc FEFFFFEB 		bl	EeePFreeBuffer(PLT)
 470              	.LVL34:
 395:/home/hkh/git/eapidk-code-r76-trunk/apps/EeePProg/linux/../EeePProg.c ****   return StatusCode;
 471              		.loc 1 395 3 discriminator 3 view .LVU92
 379:/home/hkh/git/eapidk-code-r76-trunk/apps/EeePProg/linux/../EeePProg.c ****   EApiStatus_t StatusCode=EAPI_STATUS_SUCCESS;
 472              		.loc 1 379 1 is_stmt 0 discriminator 3 view .LVU93
 473 02e0 AC209FE5 		ldr	r2, .L39+8
 396:/home/hkh/git/eapidk-code-r76-trunk/apps/EeePProg/linux/../EeePProg.c **** }
 474              		.loc 1 396 1 discriminator 3 view .LVU94
 475 02e4 A4309FE5 		ldr	r3, .L39+4
 379:/home/hkh/git/eapidk-code-r76-trunk/apps/EeePProg/linux/../EeePProg.c ****   EApiStatus_t StatusCode=EAPI_STATUS_SUCCESS;
 476              		.loc 1 379 1 discriminator 3 view .LVU95
 477              	.LPIC28:
 478 02e8 02208FE0 		add	r2, pc, r2
 479              		.loc 1 396 1 discriminator 3 view .LVU96
 480 02ec 033092E7 		ldr	r3, [r2, r3]
 481 02f0 002093E5 		ldr	r2, [r3]
 482 02f4 14309DE5 		ldr	r3, [sp, #20]
 483 02f8 022033E0 		eors	r2, r3, r2
 484 02fc 0030A0E3 		mov	r3, #0
ARM GAS  /tmp/ccqui9DH.s 			page 18


 485 0300 2000001A 		bne	.L38
 486              		.loc 1 396 1 view .LVU97
 487 0304 0400A0E1 		mov	r0, r4
 488 0308 18D08DE2 		add	sp, sp, #24
 489              		.cfi_remember_state
 490              		.cfi_def_cfa_offset 16
 491              		@ sp needed
 492 030c 7080BDE8 		pop	{r4, r5, r6, pc}
 493              	.LVL35:
 494              	.L36:
 495              		.cfi_restore_state
 383:/home/hkh/git/eapidk-code-r76-trunk/apps/EeePProg/linux/../EeePProg.c ****         &BHandel                              ,
 496              		.loc 1 383 3 is_stmt 1 discriminator 1 view .LVU98
 497 0310 80109FE5 		ldr	r1, .L39+12
 498 0314 7F3100E3 		movw	r3, #383
 499 0318 7C009FE5 		ldr	r0, .L39+16
 500              	.LVL36:
 383:/home/hkh/git/eapidk-code-r76-trunk/apps/EeePProg/linux/../EeePProg.c ****         &BHandel                              ,
 501              		.loc 1 383 3 is_stmt 0 discriminator 1 view .LVU99
 502 031c 7C209FE5 		ldr	r2, .L39+20
 503              	.LPIC23:
 504 0320 01108FE0 		add	r1, pc, r1
 505 0324 00408DE5 		str	r4, [sp]
 506 0328 04108DE5 		str	r1, [sp, #4]
 507              	.LPIC22:
 508 032c 00008FE0 		add	r0, pc, r0
 509 0330 6C109FE5 		ldr	r1, .L39+24
 510              	.LPIC20:
 511 0334 02208FE0 		add	r2, pc, r2
 512 0338 08008DE5 		str	r0, [sp, #8]
 513 033c 4500A0E3 		mov	r0, #69
 514              	.LPIC21:
 515 0340 01108FE0 		add	r1, pc, r1
 516 0344 FEFFFFEB 		bl	siFormattedMessage_SC(PLT)
 517              	.LVL37:
 383:/home/hkh/git/eapidk-code-r76-trunk/apps/EeePProg/linux/../EeePProg.c ****         &BHandel                              ,
 518              		.loc 1 383 3 is_stmt 1 discriminator 1 view .LVU100
 519 0348 E2FFFFEA 		b	.L30
 520              	.LVL38:
 521              	.L37:
 387:/home/hkh/git/eapidk-code-r76-trunk/apps/EeePProg/linux/../EeePProg.c ****         (uint16_t)((WriteEepCfg_t*)pArgData)->I2CBus, 
 522              		.loc 1 387 3 discriminator 1 view .LVU101
 523 034c 54109FE5 		ldr	r1, .L39+28
 524 0350 833100E3 		movw	r3, #387
 525 0354 50009FE5 		ldr	r0, .L39+32
 526              	.LVL39:
 387:/home/hkh/git/eapidk-code-r76-trunk/apps/EeePProg/linux/../EeePProg.c ****         (uint16_t)((WriteEepCfg_t*)pArgData)->I2CBus, 
 527              		.loc 1 387 3 is_stmt 0 discriminator 1 view .LVU102
 528 0358 50209FE5 		ldr	r2, .L39+36
 529              	.LPIC27:
 530 035c 01108FE0 		add	r1, pc, r1
 531 0360 00408DE5 		str	r4, [sp]
 532 0364 04108DE5 		str	r1, [sp, #4]
 533              	.LPIC26:
 534 0368 00008FE0 		add	r0, pc, r0
 535 036c 40109FE5 		ldr	r1, .L39+40
 536              	.LPIC24:
ARM GAS  /tmp/ccqui9DH.s 			page 19


 537 0370 02208FE0 		add	r2, pc, r2
 538 0374 08008DE5 		str	r0, [sp, #8]
 539 0378 4500A0E3 		mov	r0, #69
 540              	.LPIC25:
 541 037c 01108FE0 		add	r1, pc, r1
 542 0380 FEFFFFEB 		bl	siFormattedMessage_SC(PLT)
 543              	.LVL40:
 387:/home/hkh/git/eapidk-code-r76-trunk/apps/EeePProg/linux/../EeePProg.c ****         (uint16_t)((WriteEepCfg_t*)pArgData)->I2CBus, 
 544              		.loc 1 387 3 is_stmt 1 discriminator 1 view .LVU103
 545 0384 D3FFFFEA 		b	.L30
 546              	.L38:
 547              		.loc 1 396 1 is_stmt 0 view .LVU104
 548 0388 FEFFFFEB 		bl	__stack_chk_fail(PLT)
 549              	.LVL41:
 550              	.L40:
 551              		.align	2
 552              	.L39:
 553 038c F8000000 		.word	_GLOBAL_OFFSET_TABLE_-(.LPIC29+8)
 554 0390 00000000 		.word	__stack_chk_guard(GOT)
 555 0394 A4000000 		.word	_GLOBAL_OFFSET_TABLE_-(.LPIC28+8)
 556 0398 70000000 		.word	.LC3-(.LPIC23+8)
 557 039c 68000000 		.word	.LC7-(.LPIC22+8)
 558 03a0 64000000 		.word	.LC0-(.LPIC20+8)
 559 03a4 5C000000 		.word	.LC1-(.LPIC21+8)
 560 03a8 44000000 		.word	.LC3-(.LPIC27+8)
 561 03ac 3C000000 		.word	.LC8-(.LPIC26+8)
 562 03b0 38000000 		.word	.LC0-(.LPIC24+8)
 563 03b4 30000000 		.word	.LC1-(.LPIC25+8)
 564              		.cfi_endproc
 565              	.LFE8:
 567              		.section	.rodata.str1.4
 568 0237 00       		.align	2
 569              	.LC9:
 570 0238 45656550 		.ascii	"EeePReadBufferFromFile( &BHandel , *(char**)pArgDat"
 570      52656164 
 570      42756666 
 570      65724672 
 570      6F6D4669 
 571 026b 61202900 		.ascii	"a )\000"
 572 026f 00       		.align	2
 573              	.LC10:
 574 0270 436F6D30 		.ascii	"Com0\000"
 574      00
 575 0275 000000   		.align	2
 576              	.LC11:
 577 0278 434D445F 		.ascii	"CMD_ProgramCOM0R20CB_EEP\000"
 577      50726F67 
 577      72616D43 
 577      4F4D3052 
 577      32304342 
 578 0291 000000   		.align	2
 579              	.LC12:
 580 0294 4E6F7420 		.ascii	"Not Valid COM0 R2.0 Carrier Board Image\000"
 580      56616C69 
 580      6420434F 
 580      4D302052 
 580      322E3020 
ARM GAS  /tmp/ccqui9DH.s 			page 20


 581              		.text
 582              		.align	2
 583              		.global	CMD_ProgramCOM0R20CB_EEP
 584              		.syntax unified
 585              		.arm
 586              		.fpu vfpv3
 588              	CMD_ProgramCOM0R20CB_EEP:
 589              	.LVL42:
 590              	.LFB9:
 397:/home/hkh/git/eapidk-code-r76-trunk/apps/EeePProg/linux/../EeePProg.c **** 
 398:/home/hkh/git/eapidk-code-r76-trunk/apps/EeePProg/linux/../EeePProg.c **** 
 399:/home/hkh/git/eapidk-code-r76-trunk/apps/EeePProg/linux/../EeePProg.c **** EApiStatus_t 
 400:/home/hkh/git/eapidk-code-r76-trunk/apps/EeePProg/linux/../EeePProg.c **** CMD_ProgramCOM0R20CB_EEP(
 401:/home/hkh/git/eapidk-code-r76-trunk/apps/EeePProg/linux/../EeePProg.c ****     void *pArgData
 402:/home/hkh/git/eapidk-code-r76-trunk/apps/EeePProg/linux/../EeePProg.c ****     )
 403:/home/hkh/git/eapidk-code-r76-trunk/apps/EeePProg/linux/../EeePProg.c **** {
 591              		.loc 1 403 1 is_stmt 1 view -0
 592              		.cfi_startproc
 593              		@ args = 0, pretend = 0, frame = 8
 594              		@ frame_needed = 0, uses_anonymous_args = 0
 595              		.loc 1 403 1 is_stmt 0 view .LVU106
 596 03b8 74C19FE5 		ldr	ip, .L56
 404:/home/hkh/git/eapidk-code-r76-trunk/apps/EeePProg/linux/../EeePProg.c ****   EApiStatus_t StatusCode=EAPI_STATUS_SUCCESS;
 405:/home/hkh/git/eapidk-code-r76-trunk/apps/EeePProg/linux/../EeePProg.c ****   EeePHandel_t BHandel=NULL;
 597              		.loc 1 405 16 view .LVU107
 598 03bc 0030A0E3 		mov	r3, #0
 403:/home/hkh/git/eapidk-code-r76-trunk/apps/EeePProg/linux/../EeePProg.c ****   EApiStatus_t StatusCode=EAPI_STATUS_SUCCESS;
 599              		.loc 1 403 1 view .LVU108
 600 03c0 70219FE5 		ldr	r2, .L56+4
 601 03c4 30402DE9 		push	{r4, r5, lr}
 602              		.cfi_def_cfa_offset 12
 603              		.cfi_offset 4, -12
 604              		.cfi_offset 5, -8
 605              		.cfi_offset 14, -4
 606 03c8 1CD04DE2 		sub	sp, sp, #28
 607              		.cfi_def_cfa_offset 40
 403:/home/hkh/git/eapidk-code-r76-trunk/apps/EeePProg/linux/../EeePProg.c ****   EApiStatus_t StatusCode=EAPI_STATUS_SUCCESS;
 608              		.loc 1 403 1 view .LVU109
 609              	.LPIC44:
 610 03cc 0CC08FE0 		add	ip, pc, ip
 406:/home/hkh/git/eapidk-code-r76-trunk/apps/EeePProg/linux/../EeePProg.c **** 
 407:/home/hkh/git/eapidk-code-r76-trunk/apps/EeePProg/linux/../EeePProg.c ****   DO(EeePReadBufferFromFile(
 611              		.loc 1 407 3 view .LVU110
 612 03d0 10508DE2 		add	r5, sp, #16
 403:/home/hkh/git/eapidk-code-r76-trunk/apps/EeePProg/linux/../EeePProg.c ****   EApiStatus_t StatusCode=EAPI_STATUS_SUCCESS;
 613              		.loc 1 403 1 view .LVU111
 614 03d4 02209CE7 		ldr	r2, [ip, r2]
 615              		.loc 1 407 3 view .LVU112
 616 03d8 001090E5 		ldr	r1, [r0]
 617 03dc 0500A0E1 		mov	r0, r5
 403:/home/hkh/git/eapidk-code-r76-trunk/apps/EeePProg/linux/../EeePProg.c ****   EApiStatus_t StatusCode=EAPI_STATUS_SUCCESS;
 618              		.loc 1 403 1 view .LVU113
 619 03e0 002092E5 		ldr	r2, [r2]
 620 03e4 14208DE5 		str	r2, [sp, #20]
 621 03e8 0020A0E3 		mov	r2, #0
 404:/home/hkh/git/eapidk-code-r76-trunk/apps/EeePProg/linux/../EeePProg.c ****   EeePHandel_t BHandel=NULL;
 622              		.loc 1 404 3 is_stmt 1 view .LVU114
ARM GAS  /tmp/ccqui9DH.s 			page 21


 623              	.LVL43:
 405:/home/hkh/git/eapidk-code-r76-trunk/apps/EeePProg/linux/../EeePProg.c **** 
 624              		.loc 1 405 3 view .LVU115
 405:/home/hkh/git/eapidk-code-r76-trunk/apps/EeePProg/linux/../EeePProg.c **** 
 625              		.loc 1 405 16 is_stmt 0 view .LVU116
 626 03ec 10308DE5 		str	r3, [sp, #16]
 627              		.loc 1 407 3 is_stmt 1 view .LVU117
 628              		.loc 1 407 3 view .LVU118
 629 03f0 FEFFFFEB 		bl	EeePReadBufferFromFile(PLT)
 630              	.LVL44:
 631              		.loc 1 407 3 view .LVU119
 632 03f4 004050E2 		subs	r4, r0, #0
 633 03f8 3D00001A 		bne	.L53
 634              		.loc 1 407 3 discriminator 2 view .LVU120
 408:/home/hkh/git/eapidk-code-r76-trunk/apps/EeePProg/linux/../EeePProg.c ****         &BHandel                              ,
 409:/home/hkh/git/eapidk-code-r76-trunk/apps/EeePProg/linux/../EeePProg.c ****         *(char**)pArgData
 410:/home/hkh/git/eapidk-code-r76-trunk/apps/EeePProg/linux/../EeePProg.c ****       ));
 411:/home/hkh/git/eapidk-code-r76-trunk/apps/EeePProg/linux/../EeePProg.c ****   if(memcmp(((COM0R20_CB_t *)BHandel)->GenId, COM0R20_CB_HEADER_ID, sizeof(COM0R20_CB_HEADER_ID)-1)
 635              		.loc 1 411 3 discriminator 2 view .LVU121
 636              		.loc 1 411 14 is_stmt 0 discriminator 2 view .LVU122
 637 03fc 10009DE5 		ldr	r0, [sp, #16]
 638              	.LVL45:
 639              		.loc 1 411 6 discriminator 2 view .LVU123
 640 0400 0630D0E5 		ldrb	r3, [r0, #6]	@ zero_extendqisi2
 641 0404 430053E3 		cmp	r3, #67
 642 0408 1C00000A 		beq	.L54
 643              	.L44:
 412:/home/hkh/git/eapidk-code-r76-trunk/apps/EeePProg/linux/../EeePProg.c ****     EAPI_APP_RETURN_ERROR(
 644              		.loc 1 412 5 is_stmt 1 discriminator 2 view .LVU124
 645              		.loc 1 412 5 discriminator 2 view .LVU125
 646 040c 28119FE5 		ldr	r1, .L56+8
 647 0410 0F4CE0E3 		mvn	r4, #3840
 648              	.LVL46:
 649              		.loc 1 412 5 is_stmt 0 discriminator 2 view .LVU126
 650 0414 24219FE5 		ldr	r2, .L56+12
 651 0418 673FA0E3 		mov	r3, #412
 652 041c 4500A0E3 		mov	r0, #69
 653 0420 00408DE5 		str	r4, [sp]
 654              	.LPIC37:
 655 0424 01108FE0 		add	r1, pc, r1
 656              	.LPIC38:
 657 0428 02208FE0 		add	r2, pc, r2
 658 042c 08108DE5 		str	r1, [sp, #8]
 659 0430 04208DE5 		str	r2, [sp, #4]
 660 0434 08119FE5 		ldr	r1, .L56+16
 661 0438 08219FE5 		ldr	r2, .L56+20
 662              	.LPIC36:
 663 043c 01108FE0 		add	r1, pc, r1
 664              	.LPIC35:
 665 0440 02208FE0 		add	r2, pc, r2
 666 0444 FEFFFFEB 		bl	siFormattedMessage_SC(PLT)
 667              	.LVL47:
 668              		.loc 1 412 5 is_stmt 1 discriminator 2 view .LVU127
 669              		.loc 1 412 5 discriminator 2 view .LVU128
 670              		.loc 1 412 5 discriminator 2 view .LVU129
 671              	.L43:
 413:/home/hkh/git/eapidk-code-r76-trunk/apps/EeePProg/linux/../EeePProg.c ****         CMD_ProgramCOM0R20CB_EEP,
ARM GAS  /tmp/ccqui9DH.s 			page 22


 414:/home/hkh/git/eapidk-code-r76-trunk/apps/EeePProg/linux/../EeePProg.c ****         EAPI_STATUS_ERROR,
 415:/home/hkh/git/eapidk-code-r76-trunk/apps/EeePProg/linux/../EeePProg.c ****         "Not Valid COM0 R2.0 Carrier Board Image"
 416:/home/hkh/git/eapidk-code-r76-trunk/apps/EeePProg/linux/../EeePProg.c ****       );
 417:/home/hkh/git/eapidk-code-r76-trunk/apps/EeePProg/linux/../EeePProg.c ****   }
 418:/home/hkh/git/eapidk-code-r76-trunk/apps/EeePProg/linux/../EeePProg.c ****   DO(EeePWriteBufferToEEP(BHandel, EAPI_ID_I2C_EXTERNAL, COM0R20_CB_EEP_DEV_ADDR));
 672              		.loc 1 418 3 discriminator 3 view .LVU130
 419:/home/hkh/git/eapidk-code-r76-trunk/apps/EeePProg/linux/../EeePProg.c **** 
 420:/home/hkh/git/eapidk-code-r76-trunk/apps/EeePProg/linux/../EeePProg.c **** EAPI_APP_ASSERT_EXIT
 421:/home/hkh/git/eapidk-code-r76-trunk/apps/EeePProg/linux/../EeePProg.c ****   EeePFreeBuffer(&BHandel);
 673              		.loc 1 421 3 discriminator 3 view .LVU131
 674 0448 0500A0E1 		mov	r0, r5
 675 044c FEFFFFEB 		bl	EeePFreeBuffer(PLT)
 676              	.LVL48:
 422:/home/hkh/git/eapidk-code-r76-trunk/apps/EeePProg/linux/../EeePProg.c ****   return StatusCode;
 677              		.loc 1 422 3 discriminator 3 view .LVU132
 403:/home/hkh/git/eapidk-code-r76-trunk/apps/EeePProg/linux/../EeePProg.c ****   EApiStatus_t StatusCode=EAPI_STATUS_SUCCESS;
 678              		.loc 1 403 1 is_stmt 0 discriminator 3 view .LVU133
 679 0450 F4209FE5 		ldr	r2, .L56+24
 423:/home/hkh/git/eapidk-code-r76-trunk/apps/EeePProg/linux/../EeePProg.c **** }
 680              		.loc 1 423 1 discriminator 3 view .LVU134
 681 0454 DC309FE5 		ldr	r3, .L56+4
 403:/home/hkh/git/eapidk-code-r76-trunk/apps/EeePProg/linux/../EeePProg.c ****   EApiStatus_t StatusCode=EAPI_STATUS_SUCCESS;
 682              		.loc 1 403 1 discriminator 3 view .LVU135
 683              	.LPIC43:
 684 0458 02208FE0 		add	r2, pc, r2
 685              		.loc 1 423 1 discriminator 3 view .LVU136
 686 045c 033092E7 		ldr	r3, [r2, r3]
 687 0460 002093E5 		ldr	r2, [r3]
 688 0464 14309DE5 		ldr	r3, [sp, #20]
 689 0468 022033E0 		eors	r2, r3, r2
 690 046c 0030A0E3 		mov	r3, #0
 691 0470 2E00001A 		bne	.L55
 692              		.loc 1 423 1 view .LVU137
 693 0474 0400A0E1 		mov	r0, r4
 694 0478 1CD08DE2 		add	sp, sp, #28
 695              		.cfi_remember_state
 696              		.cfi_def_cfa_offset 12
 697              		@ sp needed
 698 047c 3080BDE8 		pop	{r4, r5, pc}
 699              	.LVL49:
 700              	.L54:
 701              		.cfi_restore_state
 411:/home/hkh/git/eapidk-code-r76-trunk/apps/EeePProg/linux/../EeePProg.c ****     EAPI_APP_RETURN_ERROR(
 702              		.loc 1 411 6 discriminator 2 view .LVU138
 703 0480 0730D0E5 		ldrb	r3, [r0, #7]	@ zero_extendqisi2
 704 0484 6F0053E3 		cmp	r3, #111
 705 0488 DFFFFF1A 		bne	.L44
 706 048c 0830D0E5 		ldrb	r3, [r0, #8]	@ zero_extendqisi2
 707 0490 6D0053E3 		cmp	r3, #109
 708 0494 DCFFFF1A 		bne	.L44
 709 0498 0930D0E5 		ldrb	r3, [r0, #9]	@ zero_extendqisi2
 710 049c 300053E3 		cmp	r3, #48
 711 04a0 D9FFFF1A 		bne	.L44
 412:/home/hkh/git/eapidk-code-r76-trunk/apps/EeePProg/linux/../EeePProg.c ****         CMD_ProgramCOM0R20CB_EEP,
 712              		.loc 1 412 5 is_stmt 1 discriminator 2 view .LVU139
 418:/home/hkh/git/eapidk-code-r76-trunk/apps/EeePProg/linux/../EeePProg.c **** 
 713              		.loc 1 418 3 discriminator 2 view .LVU140
ARM GAS  /tmp/ccqui9DH.s 			page 23


 418:/home/hkh/git/eapidk-code-r76-trunk/apps/EeePProg/linux/../EeePProg.c **** 
 714              		.loc 1 418 3 discriminator 2 view .LVU141
 715 04a4 0410A0E1 		mov	r1, r4
 716 04a8 AE20A0E3 		mov	r2, #174
 717 04ac FEFFFFEB 		bl	EeePWriteBufferToEEP(PLT)
 718              	.LVL50:
 418:/home/hkh/git/eapidk-code-r76-trunk/apps/EeePProg/linux/../EeePProg.c **** 
 719              		.loc 1 418 3 discriminator 2 view .LVU142
 720 04b0 004050E2 		subs	r4, r0, #0
 721 04b4 E3FFFF0A 		beq	.L43
 418:/home/hkh/git/eapidk-code-r76-trunk/apps/EeePProg/linux/../EeePProg.c **** 
 722              		.loc 1 418 3 discriminator 1 view .LVU143
 723 04b8 90109FE5 		ldr	r1, .L56+28
 724 04bc A23100E3 		movw	r3, #418
 725 04c0 8C009FE5 		ldr	r0, .L56+32
 726              	.LVL51:
 418:/home/hkh/git/eapidk-code-r76-trunk/apps/EeePProg/linux/../EeePProg.c **** 
 727              		.loc 1 418 3 is_stmt 0 discriminator 1 view .LVU144
 728 04c4 8C209FE5 		ldr	r2, .L56+36
 729              	.LPIC42:
 730 04c8 01108FE0 		add	r1, pc, r1
 731 04cc 00408DE5 		str	r4, [sp]
 732 04d0 04108DE5 		str	r1, [sp, #4]
 733              	.LPIC41:
 734 04d4 00008FE0 		add	r0, pc, r0
 735 04d8 7C109FE5 		ldr	r1, .L56+40
 736              	.LPIC39:
 737 04dc 02208FE0 		add	r2, pc, r2
 738 04e0 08008DE5 		str	r0, [sp, #8]
 739 04e4 4500A0E3 		mov	r0, #69
 740              	.LPIC40:
 741 04e8 01108FE0 		add	r1, pc, r1
 742 04ec FEFFFFEB 		bl	siFormattedMessage_SC(PLT)
 743              	.LVL52:
 418:/home/hkh/git/eapidk-code-r76-trunk/apps/EeePProg/linux/../EeePProg.c **** 
 744              		.loc 1 418 3 is_stmt 1 discriminator 1 view .LVU145
 745 04f0 D4FFFFEA 		b	.L43
 746              	.LVL53:
 747              	.L53:
 407:/home/hkh/git/eapidk-code-r76-trunk/apps/EeePProg/linux/../EeePProg.c ****         &BHandel                              ,
 748              		.loc 1 407 3 discriminator 1 view .LVU146
 749 04f4 64109FE5 		ldr	r1, .L56+44
 750 04f8 973100E3 		movw	r3, #407
 751 04fc 60009FE5 		ldr	r0, .L56+48
 752              	.LVL54:
 407:/home/hkh/git/eapidk-code-r76-trunk/apps/EeePProg/linux/../EeePProg.c ****         &BHandel                              ,
 753              		.loc 1 407 3 is_stmt 0 discriminator 1 view .LVU147
 754 0500 60209FE5 		ldr	r2, .L56+52
 755              	.LPIC33:
 756 0504 01108FE0 		add	r1, pc, r1
 757 0508 00408DE5 		str	r4, [sp]
 758 050c 04108DE5 		str	r1, [sp, #4]
 759              	.LPIC32:
 760 0510 00008FE0 		add	r0, pc, r0
 761 0514 50109FE5 		ldr	r1, .L56+56
 762              	.LPIC30:
 763 0518 02208FE0 		add	r2, pc, r2
ARM GAS  /tmp/ccqui9DH.s 			page 24


 764 051c 08008DE5 		str	r0, [sp, #8]
 765 0520 4500A0E3 		mov	r0, #69
 766              	.LPIC31:
 767 0524 01108FE0 		add	r1, pc, r1
 768 0528 FEFFFFEB 		bl	siFormattedMessage_SC(PLT)
 769              	.LVL55:
 407:/home/hkh/git/eapidk-code-r76-trunk/apps/EeePProg/linux/../EeePProg.c ****         &BHandel                              ,
 770              		.loc 1 407 3 is_stmt 1 discriminator 1 view .LVU148
 771 052c C5FFFFEA 		b	.L43
 772              	.L55:
 773              		.loc 1 423 1 is_stmt 0 view .LVU149
 774 0530 FEFFFFEB 		bl	__stack_chk_fail(PLT)
 775              	.LVL56:
 776              	.L57:
 777              		.align	2
 778              	.L56:
 779 0534 60010000 		.word	_GLOBAL_OFFSET_TABLE_-(.LPIC44+8)
 780 0538 00000000 		.word	__stack_chk_guard(GOT)
 781 053c 10010000 		.word	.LC12-(.LPIC37+8)
 782 0540 10010000 		.word	.LC3-(.LPIC38+8)
 783 0544 00010000 		.word	.LC1-(.LPIC36+8)
 784 0548 00010000 		.word	.LC11-(.LPIC35+8)
 785 054c EC000000 		.word	_GLOBAL_OFFSET_TABLE_-(.LPIC43+8)
 786 0550 80000000 		.word	.LC3-(.LPIC42+8)
 787 0554 78000000 		.word	.LC4-(.LPIC41+8)
 788 0558 74000000 		.word	.LC0-(.LPIC39+8)
 789 055c 6C000000 		.word	.LC1-(.LPIC40+8)
 790 0560 54000000 		.word	.LC3-(.LPIC33+8)
 791 0564 4C000000 		.word	.LC9-(.LPIC32+8)
 792 0568 48000000 		.word	.LC0-(.LPIC30+8)
 793 056c 40000000 		.word	.LC1-(.LPIC31+8)
 794              		.cfi_endproc
 795              	.LFE9:
 797              		.section	.rodata.str1.4
 798              		.align	2
 799              	.LC13:
 800 02bc 636F4D30 		.ascii	"coM0\000"
 800      00
 801 02c1 000000   		.align	2
 802              	.LC14:
 803 02c4 434D445F 		.ascii	"CMD_ProgramCOM0R20M_EEP\000"
 803      50726F67 
 803      72616D43 
 803      4F4D3052 
 803      32304D5F 
 804              		.align	2
 805              	.LC15:
 806 02dc 4E6F7420 		.ascii	"Not Valid COM0 R2.0 Module Image\000"
 806      56616C69 
 806      6420434F 
 806      4D302052 
 806      322E3020 
 807              		.text
 808              		.align	2
 809              		.global	CMD_ProgramCOM0R20M_EEP
 810              		.syntax unified
 811              		.arm
ARM GAS  /tmp/ccqui9DH.s 			page 25


 812              		.fpu vfpv3
 814              	CMD_ProgramCOM0R20M_EEP:
 815              	.LVL57:
 816              	.LFB10:
 424:/home/hkh/git/eapidk-code-r76-trunk/apps/EeePProg/linux/../EeePProg.c **** 
 425:/home/hkh/git/eapidk-code-r76-trunk/apps/EeePProg/linux/../EeePProg.c **** EApiStatus_t 
 426:/home/hkh/git/eapidk-code-r76-trunk/apps/EeePProg/linux/../EeePProg.c **** CMD_ProgramCOM0R20M_EEP(
 427:/home/hkh/git/eapidk-code-r76-trunk/apps/EeePProg/linux/../EeePProg.c ****     void *pArgData
 428:/home/hkh/git/eapidk-code-r76-trunk/apps/EeePProg/linux/../EeePProg.c ****     )
 429:/home/hkh/git/eapidk-code-r76-trunk/apps/EeePProg/linux/../EeePProg.c **** {
 817              		.loc 1 429 1 is_stmt 1 view -0
 818              		.cfi_startproc
 819              		@ args = 0, pretend = 0, frame = 8
 820              		@ frame_needed = 0, uses_anonymous_args = 0
 821              		.loc 1 429 1 is_stmt 0 view .LVU151
 822 0570 74C19FE5 		ldr	ip, .L73
 430:/home/hkh/git/eapidk-code-r76-trunk/apps/EeePProg/linux/../EeePProg.c ****   EApiStatus_t StatusCode=EAPI_STATUS_SUCCESS;
 431:/home/hkh/git/eapidk-code-r76-trunk/apps/EeePProg/linux/../EeePProg.c ****   EeePHandel_t BHandel=NULL;
 823              		.loc 1 431 16 view .LVU152
 824 0574 0030A0E3 		mov	r3, #0
 429:/home/hkh/git/eapidk-code-r76-trunk/apps/EeePProg/linux/../EeePProg.c ****   EApiStatus_t StatusCode=EAPI_STATUS_SUCCESS;
 825              		.loc 1 429 1 view .LVU153
 826 0578 70219FE5 		ldr	r2, .L73+4
 827 057c 30402DE9 		push	{r4, r5, lr}
 828              		.cfi_def_cfa_offset 12
 829              		.cfi_offset 4, -12
 830              		.cfi_offset 5, -8
 831              		.cfi_offset 14, -4
 832 0580 1CD04DE2 		sub	sp, sp, #28
 833              		.cfi_def_cfa_offset 40
 429:/home/hkh/git/eapidk-code-r76-trunk/apps/EeePProg/linux/../EeePProg.c ****   EApiStatus_t StatusCode=EAPI_STATUS_SUCCESS;
 834              		.loc 1 429 1 view .LVU154
 835              	.LPIC59:
 836 0584 0CC08FE0 		add	ip, pc, ip
 432:/home/hkh/git/eapidk-code-r76-trunk/apps/EeePProg/linux/../EeePProg.c **** 
 433:/home/hkh/git/eapidk-code-r76-trunk/apps/EeePProg/linux/../EeePProg.c ****   DO(EeePReadBufferFromFile(
 837              		.loc 1 433 3 view .LVU155
 838 0588 10508DE2 		add	r5, sp, #16
 429:/home/hkh/git/eapidk-code-r76-trunk/apps/EeePProg/linux/../EeePProg.c ****   EApiStatus_t StatusCode=EAPI_STATUS_SUCCESS;
 839              		.loc 1 429 1 view .LVU156
 840 058c 02209CE7 		ldr	r2, [ip, r2]
 841              		.loc 1 433 3 view .LVU157
 842 0590 001090E5 		ldr	r1, [r0]
 843 0594 0500A0E1 		mov	r0, r5
 429:/home/hkh/git/eapidk-code-r76-trunk/apps/EeePProg/linux/../EeePProg.c ****   EApiStatus_t StatusCode=EAPI_STATUS_SUCCESS;
 844              		.loc 1 429 1 view .LVU158
 845 0598 002092E5 		ldr	r2, [r2]
 846 059c 14208DE5 		str	r2, [sp, #20]
 847 05a0 0020A0E3 		mov	r2, #0
 430:/home/hkh/git/eapidk-code-r76-trunk/apps/EeePProg/linux/../EeePProg.c ****   EeePHandel_t BHandel=NULL;
 848              		.loc 1 430 3 is_stmt 1 view .LVU159
 849              	.LVL58:
 431:/home/hkh/git/eapidk-code-r76-trunk/apps/EeePProg/linux/../EeePProg.c **** 
 850              		.loc 1 431 3 view .LVU160
 431:/home/hkh/git/eapidk-code-r76-trunk/apps/EeePProg/linux/../EeePProg.c **** 
 851              		.loc 1 431 16 is_stmt 0 view .LVU161
 852 05a4 10308DE5 		str	r3, [sp, #16]
ARM GAS  /tmp/ccqui9DH.s 			page 26


 853              		.loc 1 433 3 is_stmt 1 view .LVU162
 854              		.loc 1 433 3 view .LVU163
 855 05a8 FEFFFFEB 		bl	EeePReadBufferFromFile(PLT)
 856              	.LVL59:
 857              		.loc 1 433 3 view .LVU164
 858 05ac 004050E2 		subs	r4, r0, #0
 859 05b0 3D00001A 		bne	.L70
 860              		.loc 1 433 3 discriminator 2 view .LVU165
 434:/home/hkh/git/eapidk-code-r76-trunk/apps/EeePProg/linux/../EeePProg.c ****         &BHandel                              ,
 435:/home/hkh/git/eapidk-code-r76-trunk/apps/EeePProg/linux/../EeePProg.c ****         *(char**)pArgData
 436:/home/hkh/git/eapidk-code-r76-trunk/apps/EeePProg/linux/../EeePProg.c ****       ));
 437:/home/hkh/git/eapidk-code-r76-trunk/apps/EeePProg/linux/../EeePProg.c ****   if(memcmp(((COM0R20_M_t *)BHandel)->GenId, COM0R20_M_HEADER_ID, sizeof(COM0R20_M_HEADER_ID)-1)){
 861              		.loc 1 437 3 discriminator 2 view .LVU166
 862              		.loc 1 437 14 is_stmt 0 discriminator 2 view .LVU167
 863 05b4 10009DE5 		ldr	r0, [sp, #16]
 864              	.LVL60:
 865              		.loc 1 437 6 discriminator 2 view .LVU168
 866 05b8 0630D0E5 		ldrb	r3, [r0, #6]	@ zero_extendqisi2
 867 05bc 630053E3 		cmp	r3, #99
 868 05c0 1C00000A 		beq	.L71
 869              	.L61:
 438:/home/hkh/git/eapidk-code-r76-trunk/apps/EeePProg/linux/../EeePProg.c ****     EAPI_APP_RETURN_ERROR(
 870              		.loc 1 438 5 is_stmt 1 discriminator 2 view .LVU169
 871              		.loc 1 438 5 discriminator 2 view .LVU170
 872 05c4 28119FE5 		ldr	r1, .L73+8
 873 05c8 0F4CE0E3 		mvn	r4, #3840
 874              	.LVL61:
 875              		.loc 1 438 5 is_stmt 0 discriminator 2 view .LVU171
 876 05cc 24219FE5 		ldr	r2, .L73+12
 877 05d0 B63100E3 		movw	r3, #438
 878 05d4 4500A0E3 		mov	r0, #69
 879 05d8 00408DE5 		str	r4, [sp]
 880              	.LPIC52:
 881 05dc 01108FE0 		add	r1, pc, r1
 882              	.LPIC53:
 883 05e0 02208FE0 		add	r2, pc, r2
 884 05e4 08108DE5 		str	r1, [sp, #8]
 885 05e8 04208DE5 		str	r2, [sp, #4]
 886 05ec 08119FE5 		ldr	r1, .L73+16
 887 05f0 08219FE5 		ldr	r2, .L73+20
 888              	.LPIC51:
 889 05f4 01108FE0 		add	r1, pc, r1
 890              	.LPIC50:
 891 05f8 02208FE0 		add	r2, pc, r2
 892 05fc FEFFFFEB 		bl	siFormattedMessage_SC(PLT)
 893              	.LVL62:
 894              		.loc 1 438 5 is_stmt 1 discriminator 2 view .LVU172
 895              		.loc 1 438 5 discriminator 2 view .LVU173
 896              		.loc 1 438 5 discriminator 2 view .LVU174
 897              	.L60:
 439:/home/hkh/git/eapidk-code-r76-trunk/apps/EeePProg/linux/../EeePProg.c ****         CMD_ProgramCOM0R20M_EEP,
 440:/home/hkh/git/eapidk-code-r76-trunk/apps/EeePProg/linux/../EeePProg.c ****         EAPI_STATUS_ERROR,
 441:/home/hkh/git/eapidk-code-r76-trunk/apps/EeePProg/linux/../EeePProg.c ****         "Not Valid COM0 R2.0 Module Image"
 442:/home/hkh/git/eapidk-code-r76-trunk/apps/EeePProg/linux/../EeePProg.c ****       );
 443:/home/hkh/git/eapidk-code-r76-trunk/apps/EeePProg/linux/../EeePProg.c ****   }
 444:/home/hkh/git/eapidk-code-r76-trunk/apps/EeePProg/linux/../EeePProg.c ****   DO(EeePWriteBufferToEEP(BHandel, EAPI_ID_I2C_EXTERNAL, COM0R20_M_EEP_DEV_ADDR));
 898              		.loc 1 444 3 discriminator 3 view .LVU175
ARM GAS  /tmp/ccqui9DH.s 			page 27


 445:/home/hkh/git/eapidk-code-r76-trunk/apps/EeePProg/linux/../EeePProg.c **** 
 446:/home/hkh/git/eapidk-code-r76-trunk/apps/EeePProg/linux/../EeePProg.c **** EAPI_APP_ASSERT_EXIT
 447:/home/hkh/git/eapidk-code-r76-trunk/apps/EeePProg/linux/../EeePProg.c ****   EeePFreeBuffer(&BHandel);
 899              		.loc 1 447 3 discriminator 3 view .LVU176
 900 0600 0500A0E1 		mov	r0, r5
 901 0604 FEFFFFEB 		bl	EeePFreeBuffer(PLT)
 902              	.LVL63:
 448:/home/hkh/git/eapidk-code-r76-trunk/apps/EeePProg/linux/../EeePProg.c ****   return StatusCode;
 903              		.loc 1 448 3 discriminator 3 view .LVU177
 429:/home/hkh/git/eapidk-code-r76-trunk/apps/EeePProg/linux/../EeePProg.c ****   EApiStatus_t StatusCode=EAPI_STATUS_SUCCESS;
 904              		.loc 1 429 1 is_stmt 0 discriminator 3 view .LVU178
 905 0608 F4209FE5 		ldr	r2, .L73+24
 449:/home/hkh/git/eapidk-code-r76-trunk/apps/EeePProg/linux/../EeePProg.c **** }
 906              		.loc 1 449 1 discriminator 3 view .LVU179
 907 060c DC309FE5 		ldr	r3, .L73+4
 429:/home/hkh/git/eapidk-code-r76-trunk/apps/EeePProg/linux/../EeePProg.c ****   EApiStatus_t StatusCode=EAPI_STATUS_SUCCESS;
 908              		.loc 1 429 1 discriminator 3 view .LVU180
 909              	.LPIC58:
 910 0610 02208FE0 		add	r2, pc, r2
 911              		.loc 1 449 1 discriminator 3 view .LVU181
 912 0614 033092E7 		ldr	r3, [r2, r3]
 913 0618 002093E5 		ldr	r2, [r3]
 914 061c 14309DE5 		ldr	r3, [sp, #20]
 915 0620 022033E0 		eors	r2, r3, r2
 916 0624 0030A0E3 		mov	r3, #0
 917 0628 2E00001A 		bne	.L72
 918              		.loc 1 449 1 view .LVU182
 919 062c 0400A0E1 		mov	r0, r4
 920 0630 1CD08DE2 		add	sp, sp, #28
 921              		.cfi_remember_state
 922              		.cfi_def_cfa_offset 12
 923              		@ sp needed
 924 0634 3080BDE8 		pop	{r4, r5, pc}
 925              	.LVL64:
 926              	.L71:
 927              		.cfi_restore_state
 437:/home/hkh/git/eapidk-code-r76-trunk/apps/EeePProg/linux/../EeePProg.c ****     EAPI_APP_RETURN_ERROR(
 928              		.loc 1 437 6 discriminator 2 view .LVU183
 929 0638 0730D0E5 		ldrb	r3, [r0, #7]	@ zero_extendqisi2
 930 063c 6F0053E3 		cmp	r3, #111
 931 0640 DFFFFF1A 		bne	.L61
 932 0644 0830D0E5 		ldrb	r3, [r0, #8]	@ zero_extendqisi2
 933 0648 4D0053E3 		cmp	r3, #77
 934 064c DCFFFF1A 		bne	.L61
 935 0650 0930D0E5 		ldrb	r3, [r0, #9]	@ zero_extendqisi2
 936 0654 300053E3 		cmp	r3, #48
 937 0658 D9FFFF1A 		bne	.L61
 438:/home/hkh/git/eapidk-code-r76-trunk/apps/EeePProg/linux/../EeePProg.c ****         CMD_ProgramCOM0R20M_EEP,
 938              		.loc 1 438 5 is_stmt 1 discriminator 2 view .LVU184
 444:/home/hkh/git/eapidk-code-r76-trunk/apps/EeePProg/linux/../EeePProg.c **** 
 939              		.loc 1 444 3 discriminator 2 view .LVU185
 444:/home/hkh/git/eapidk-code-r76-trunk/apps/EeePProg/linux/../EeePProg.c **** 
 940              		.loc 1 444 3 discriminator 2 view .LVU186
 941 065c 0410A0E1 		mov	r1, r4
 942 0660 A020A0E3 		mov	r2, #160
 943 0664 FEFFFFEB 		bl	EeePWriteBufferToEEP(PLT)
 944              	.LVL65:
ARM GAS  /tmp/ccqui9DH.s 			page 28


 444:/home/hkh/git/eapidk-code-r76-trunk/apps/EeePProg/linux/../EeePProg.c **** 
 945              		.loc 1 444 3 discriminator 2 view .LVU187
 946 0668 004050E2 		subs	r4, r0, #0
 947 066c E3FFFF0A 		beq	.L60
 444:/home/hkh/git/eapidk-code-r76-trunk/apps/EeePProg/linux/../EeePProg.c **** 
 948              		.loc 1 444 3 discriminator 1 view .LVU188
 949 0670 90109FE5 		ldr	r1, .L73+28
 950 0674 6F3FA0E3 		mov	r3, #444
 951 0678 8C009FE5 		ldr	r0, .L73+32
 952              	.LVL66:
 444:/home/hkh/git/eapidk-code-r76-trunk/apps/EeePProg/linux/../EeePProg.c **** 
 953              		.loc 1 444 3 is_stmt 0 discriminator 1 view .LVU189
 954 067c 8C209FE5 		ldr	r2, .L73+36
 955              	.LPIC57:
 956 0680 01108FE0 		add	r1, pc, r1
 957 0684 00408DE5 		str	r4, [sp]
 958 0688 04108DE5 		str	r1, [sp, #4]
 959              	.LPIC56:
 960 068c 00008FE0 		add	r0, pc, r0
 961 0690 7C109FE5 		ldr	r1, .L73+40
 962              	.LPIC54:
 963 0694 02208FE0 		add	r2, pc, r2
 964 0698 08008DE5 		str	r0, [sp, #8]
 965 069c 4500A0E3 		mov	r0, #69
 966              	.LPIC55:
 967 06a0 01108FE0 		add	r1, pc, r1
 968 06a4 FEFFFFEB 		bl	siFormattedMessage_SC(PLT)
 969              	.LVL67:
 444:/home/hkh/git/eapidk-code-r76-trunk/apps/EeePProg/linux/../EeePProg.c **** 
 970              		.loc 1 444 3 is_stmt 1 discriminator 1 view .LVU190
 971 06a8 D4FFFFEA 		b	.L60
 972              	.LVL68:
 973              	.L70:
 433:/home/hkh/git/eapidk-code-r76-trunk/apps/EeePProg/linux/../EeePProg.c ****         &BHandel                              ,
 974              		.loc 1 433 3 discriminator 1 view .LVU191
 975 06ac 64109FE5 		ldr	r1, .L73+44
 976 06b0 B13100E3 		movw	r3, #433
 977 06b4 60009FE5 		ldr	r0, .L73+48
 978              	.LVL69:
 433:/home/hkh/git/eapidk-code-r76-trunk/apps/EeePProg/linux/../EeePProg.c ****         &BHandel                              ,
 979              		.loc 1 433 3 is_stmt 0 discriminator 1 view .LVU192
 980 06b8 60209FE5 		ldr	r2, .L73+52
 981              	.LPIC48:
 982 06bc 01108FE0 		add	r1, pc, r1
 983 06c0 00408DE5 		str	r4, [sp]
 984 06c4 04108DE5 		str	r1, [sp, #4]
 985              	.LPIC47:
 986 06c8 00008FE0 		add	r0, pc, r0
 987 06cc 50109FE5 		ldr	r1, .L73+56
 988              	.LPIC45:
 989 06d0 02208FE0 		add	r2, pc, r2
 990 06d4 08008DE5 		str	r0, [sp, #8]
 991 06d8 4500A0E3 		mov	r0, #69
 992              	.LPIC46:
 993 06dc 01108FE0 		add	r1, pc, r1
 994 06e0 FEFFFFEB 		bl	siFormattedMessage_SC(PLT)
 995              	.LVL70:
ARM GAS  /tmp/ccqui9DH.s 			page 29


 433:/home/hkh/git/eapidk-code-r76-trunk/apps/EeePProg/linux/../EeePProg.c ****         &BHandel                              ,
 996              		.loc 1 433 3 is_stmt 1 discriminator 1 view .LVU193
 997 06e4 C5FFFFEA 		b	.L60
 998              	.L72:
 999              		.loc 1 449 1 is_stmt 0 view .LVU194
 1000 06e8 FEFFFFEB 		bl	__stack_chk_fail(PLT)
 1001              	.LVL71:
 1002              	.L74:
 1003              		.align	2
 1004              	.L73:
 1005 06ec 60010000 		.word	_GLOBAL_OFFSET_TABLE_-(.LPIC59+8)
 1006 06f0 00000000 		.word	__stack_chk_guard(GOT)
 1007 06f4 10010000 		.word	.LC15-(.LPIC52+8)
 1008 06f8 10010000 		.word	.LC3-(.LPIC53+8)
 1009 06fc 00010000 		.word	.LC1-(.LPIC51+8)
 1010 0700 00010000 		.word	.LC14-(.LPIC50+8)
 1011 0704 EC000000 		.word	_GLOBAL_OFFSET_TABLE_-(.LPIC58+8)
 1012 0708 80000000 		.word	.LC3-(.LPIC57+8)
 1013 070c 78000000 		.word	.LC6-(.LPIC56+8)
 1014 0710 74000000 		.word	.LC0-(.LPIC54+8)
 1015 0714 6C000000 		.word	.LC1-(.LPIC55+8)
 1016 0718 54000000 		.word	.LC3-(.LPIC48+8)
 1017 071c 4C000000 		.word	.LC9-(.LPIC47+8)
 1018 0720 48000000 		.word	.LC0-(.LPIC45+8)
 1019 0724 40000000 		.word	.LC1-(.LPIC46+8)
 1020              		.cfi_endproc
 1021              	.LFE10:
 1023              		.section	.rodata.str1.4
 1024 02fd 000000   		.align	2
 1025              	.LC16:
 1026 0300 45656550 		.ascii	"EeePReadBufferFromFile( &BHandel , ((WriteEepCfg_t*"
 1026      52656164 
 1026      42756666 
 1026      65724672 
 1026      6F6D4669 
 1027 0333 29704172 		.ascii	")pArgData)->FileName )\000"
 1027      67446174 
 1027      61292D3E 
 1027      46696C65 
 1027      4E616D65 
 1028 034a 0000     		.align	2
 1029              	.LC17:
 1030 034c 45585031 		.ascii	"EXP1\000"
 1030      00
 1031 0351 000000   		.align	2
 1032              	.LC18:
 1033 0354 434D445F 		.ascii	"CMD_ProgramEeePExt_EEP\000"
 1033      50726F67 
 1033      72616D45 
 1033      65655045 
 1033      78745F45 
 1034 036b 00       		.align	2
 1035              	.LC19:
 1036 036c 4E6F7420 		.ascii	"Not Valid EeeP Extended EEP Image\000"
 1036      56616C69 
 1036      64204565 
 1036      65502045 
ARM GAS  /tmp/ccqui9DH.s 			page 30


 1036      7874656E 
 1037 038e 0000     		.align	2
 1038              	.LC20:
 1039 0390 45656550 		.ascii	"EeePWriteBufferToEEP( BHandel, (uint16_t)((WriteEep"
 1039      57726974 
 1039      65427566 
 1039      66657254 
 1039      6F454550 
 1040 03c3 4366675F 		.ascii	"Cfg_t*)pArgData)->I2CBus, (uint16_t)((WriteEepCfg_t"
 1040      742A2970 
 1040      41726744 
 1040      61746129 
 1040      2D3E4932 
 1041 03f6 2A297041 		.ascii	"*)pArgData)->I2CDevAddr )\000"
 1041      72674461 
 1041      7461292D 
 1041      3E493243 
 1041      44657641 
 1042              		.text
 1043              		.align	2
 1044              		.global	CMD_ProgramEeePExt_EEP
 1045              		.syntax unified
 1046              		.arm
 1047              		.fpu vfpv3
 1049              	CMD_ProgramEeePExt_EEP:
 1050              	.LVL72:
 1051              	.LFB11:
 450:/home/hkh/git/eapidk-code-r76-trunk/apps/EeePProg/linux/../EeePProg.c **** 
 451:/home/hkh/git/eapidk-code-r76-trunk/apps/EeePProg/linux/../EeePProg.c **** 
 452:/home/hkh/git/eapidk-code-r76-trunk/apps/EeePProg/linux/../EeePProg.c **** EApiStatus_t 
 453:/home/hkh/git/eapidk-code-r76-trunk/apps/EeePProg/linux/../EeePProg.c **** CMD_ProgramEeePExt_EEP(
 454:/home/hkh/git/eapidk-code-r76-trunk/apps/EeePProg/linux/../EeePProg.c ****     void *pArgData
 455:/home/hkh/git/eapidk-code-r76-trunk/apps/EeePProg/linux/../EeePProg.c ****     )
 456:/home/hkh/git/eapidk-code-r76-trunk/apps/EeePProg/linux/../EeePProg.c **** {
 1052              		.loc 1 456 1 is_stmt 1 view -0
 1053              		.cfi_startproc
 1054              		@ args = 0, pretend = 0, frame = 8
 1055              		@ frame_needed = 0, uses_anonymous_args = 0
 1056              		.loc 1 456 1 is_stmt 0 view .LVU196
 1057 0728 78C19FE5 		ldr	ip, .L90
 457:/home/hkh/git/eapidk-code-r76-trunk/apps/EeePProg/linux/../EeePProg.c ****   EApiStatus_t StatusCode=EAPI_STATUS_SUCCESS;
 458:/home/hkh/git/eapidk-code-r76-trunk/apps/EeePProg/linux/../EeePProg.c ****   EeePHandel_t BHandel=NULL;
 1058              		.loc 1 458 16 view .LVU197
 1059 072c 0030A0E3 		mov	r3, #0
 456:/home/hkh/git/eapidk-code-r76-trunk/apps/EeePProg/linux/../EeePProg.c ****   EApiStatus_t StatusCode=EAPI_STATUS_SUCCESS;
 1060              		.loc 1 456 1 view .LVU198
 1061 0730 74219FE5 		ldr	r2, .L90+4
 1062 0734 F0402DE9 		push	{r4, r5, r6, r7, lr}
 1063              		.cfi_def_cfa_offset 20
 1064              		.cfi_offset 4, -20
 1065              		.cfi_offset 5, -16
 1066              		.cfi_offset 6, -12
 1067              		.cfi_offset 7, -8
 1068              		.cfi_offset 14, -4
 1069 0738 1CD04DE2 		sub	sp, sp, #28
 1070              		.cfi_def_cfa_offset 48
 456:/home/hkh/git/eapidk-code-r76-trunk/apps/EeePProg/linux/../EeePProg.c ****   EApiStatus_t StatusCode=EAPI_STATUS_SUCCESS;
ARM GAS  /tmp/ccqui9DH.s 			page 31


 1071              		.loc 1 456 1 view .LVU199
 1072              	.LPIC74:
 1073 073c 0CC08FE0 		add	ip, pc, ip
 459:/home/hkh/git/eapidk-code-r76-trunk/apps/EeePProg/linux/../EeePProg.c **** 
 460:/home/hkh/git/eapidk-code-r76-trunk/apps/EeePProg/linux/../EeePProg.c ****   DO(EeePReadBufferFromFile(
 1074              		.loc 1 460 3 view .LVU200
 1075 0740 10608DE2 		add	r6, sp, #16
 456:/home/hkh/git/eapidk-code-r76-trunk/apps/EeePProg/linux/../EeePProg.c ****   EApiStatus_t StatusCode=EAPI_STATUS_SUCCESS;
 1076              		.loc 1 456 1 view .LVU201
 1077 0744 0050A0E1 		mov	r5, r0
 1078 0748 02209CE7 		ldr	r2, [ip, r2]
 1079              		.loc 1 460 3 view .LVU202
 1080 074c 001090E5 		ldr	r1, [r0]
 1081 0750 0600A0E1 		mov	r0, r6
 456:/home/hkh/git/eapidk-code-r76-trunk/apps/EeePProg/linux/../EeePProg.c ****   EApiStatus_t StatusCode=EAPI_STATUS_SUCCESS;
 1082              		.loc 1 456 1 view .LVU203
 1083 0754 002092E5 		ldr	r2, [r2]
 1084 0758 14208DE5 		str	r2, [sp, #20]
 1085 075c 0020A0E3 		mov	r2, #0
 457:/home/hkh/git/eapidk-code-r76-trunk/apps/EeePProg/linux/../EeePProg.c ****   EeePHandel_t BHandel=NULL;
 1086              		.loc 1 457 3 is_stmt 1 view .LVU204
 1087              	.LVL73:
 458:/home/hkh/git/eapidk-code-r76-trunk/apps/EeePProg/linux/../EeePProg.c **** 
 1088              		.loc 1 458 3 view .LVU205
 458:/home/hkh/git/eapidk-code-r76-trunk/apps/EeePProg/linux/../EeePProg.c **** 
 1089              		.loc 1 458 16 is_stmt 0 view .LVU206
 1090 0760 10308DE5 		str	r3, [sp, #16]
 1091              		.loc 1 460 3 is_stmt 1 view .LVU207
 1092              		.loc 1 460 3 view .LVU208
 1093 0764 FEFFFFEB 		bl	EeePReadBufferFromFile(PLT)
 1094              	.LVL74:
 1095              		.loc 1 460 3 view .LVU209
 1096 0768 004050E2 		subs	r4, r0, #0
 1097 076c 3D00001A 		bne	.L87
 1098              		.loc 1 460 3 discriminator 2 view .LVU210
 461:/home/hkh/git/eapidk-code-r76-trunk/apps/EeePProg/linux/../EeePProg.c ****         &BHandel                              ,
 462:/home/hkh/git/eapidk-code-r76-trunk/apps/EeePProg/linux/../EeePProg.c ****         ((WriteEepCfg_t*)pArgData)->FileName
 463:/home/hkh/git/eapidk-code-r76-trunk/apps/EeePProg/linux/../EeePProg.c ****       ));
 464:/home/hkh/git/eapidk-code-r76-trunk/apps/EeePProg/linux/../EeePProg.c ****   if(memcmp(((Exp_EEP_t *)BHandel)->GenId, EEEP_EXP_HEADER_ID, sizeof(EEEP_EXP_HEADER_ID)-1)){
 1099              		.loc 1 464 3 discriminator 2 view .LVU211
 1100              		.loc 1 464 14 is_stmt 0 discriminator 2 view .LVU212
 1101 0770 10009DE5 		ldr	r0, [sp, #16]
 1102              	.LVL75:
 1103              		.loc 1 464 6 discriminator 2 view .LVU213
 1104 0774 0670D0E5 		ldrb	r7, [r0, #6]	@ zero_extendqisi2
 1105 0778 450057E3 		cmp	r7, #69
 1106 077c 1C00000A 		beq	.L88
 1107              	.L78:
 465:/home/hkh/git/eapidk-code-r76-trunk/apps/EeePProg/linux/../EeePProg.c ****     EAPI_APP_RETURN_ERROR(
 1108              		.loc 1 465 5 is_stmt 1 discriminator 2 view .LVU214
 1109              		.loc 1 465 5 discriminator 2 view .LVU215
 1110 0780 28119FE5 		ldr	r1, .L90+8
 1111 0784 0F4CE0E3 		mvn	r4, #3840
 1112              	.LVL76:
 1113              		.loc 1 465 5 is_stmt 0 discriminator 2 view .LVU216
 1114 0788 24219FE5 		ldr	r2, .L90+12
 1115 078c D13100E3 		movw	r3, #465
ARM GAS  /tmp/ccqui9DH.s 			page 32


 1116 0790 4500A0E3 		mov	r0, #69
 1117 0794 00408DE5 		str	r4, [sp]
 1118              	.LPIC67:
 1119 0798 01108FE0 		add	r1, pc, r1
 1120              	.LPIC68:
 1121 079c 02208FE0 		add	r2, pc, r2
 1122 07a0 08108DE5 		str	r1, [sp, #8]
 1123 07a4 04208DE5 		str	r2, [sp, #4]
 1124 07a8 08119FE5 		ldr	r1, .L90+16
 1125 07ac 08219FE5 		ldr	r2, .L90+20
 1126              	.LPIC66:
 1127 07b0 01108FE0 		add	r1, pc, r1
 1128              	.LPIC65:
 1129 07b4 02208FE0 		add	r2, pc, r2
 1130 07b8 FEFFFFEB 		bl	siFormattedMessage_SC(PLT)
 1131              	.LVL77:
 1132              		.loc 1 465 5 is_stmt 1 discriminator 2 view .LVU217
 1133              		.loc 1 465 5 discriminator 2 view .LVU218
 1134              		.loc 1 465 5 discriminator 2 view .LVU219
 1135              	.L77:
 466:/home/hkh/git/eapidk-code-r76-trunk/apps/EeePProg/linux/../EeePProg.c ****         CMD_ProgramEeePExt_EEP,
 467:/home/hkh/git/eapidk-code-r76-trunk/apps/EeePProg/linux/../EeePProg.c ****         EAPI_STATUS_ERROR,
 468:/home/hkh/git/eapidk-code-r76-trunk/apps/EeePProg/linux/../EeePProg.c ****         "Not Valid EeeP Extended EEP Image"
 469:/home/hkh/git/eapidk-code-r76-trunk/apps/EeePProg/linux/../EeePProg.c ****       );
 470:/home/hkh/git/eapidk-code-r76-trunk/apps/EeePProg/linux/../EeePProg.c ****   }
 471:/home/hkh/git/eapidk-code-r76-trunk/apps/EeePProg/linux/../EeePProg.c ****   DO(EeePWriteBufferToEEP(
 1136              		.loc 1 471 3 discriminator 3 view .LVU220
 472:/home/hkh/git/eapidk-code-r76-trunk/apps/EeePProg/linux/../EeePProg.c ****           BHandel, 
 473:/home/hkh/git/eapidk-code-r76-trunk/apps/EeePProg/linux/../EeePProg.c ****           (uint16_t)((WriteEepCfg_t*)pArgData)->I2CBus, 
 474:/home/hkh/git/eapidk-code-r76-trunk/apps/EeePProg/linux/../EeePProg.c ****           (uint16_t)((WriteEepCfg_t*)pArgData)->I2CDevAddr
 475:/home/hkh/git/eapidk-code-r76-trunk/apps/EeePProg/linux/../EeePProg.c ****       ));
 476:/home/hkh/git/eapidk-code-r76-trunk/apps/EeePProg/linux/../EeePProg.c **** 
 477:/home/hkh/git/eapidk-code-r76-trunk/apps/EeePProg/linux/../EeePProg.c **** EAPI_APP_ASSERT_EXIT
 478:/home/hkh/git/eapidk-code-r76-trunk/apps/EeePProg/linux/../EeePProg.c ****   EeePFreeBuffer(&BHandel);
 1137              		.loc 1 478 3 discriminator 3 view .LVU221
 1138 07bc 0600A0E1 		mov	r0, r6
 1139 07c0 FEFFFFEB 		bl	EeePFreeBuffer(PLT)
 1140              	.LVL78:
 479:/home/hkh/git/eapidk-code-r76-trunk/apps/EeePProg/linux/../EeePProg.c ****   return StatusCode;
 1141              		.loc 1 479 3 discriminator 3 view .LVU222
 456:/home/hkh/git/eapidk-code-r76-trunk/apps/EeePProg/linux/../EeePProg.c ****   EApiStatus_t StatusCode=EAPI_STATUS_SUCCESS;
 1142              		.loc 1 456 1 is_stmt 0 discriminator 3 view .LVU223
 1143 07c4 F4209FE5 		ldr	r2, .L90+24
 480:/home/hkh/git/eapidk-code-r76-trunk/apps/EeePProg/linux/../EeePProg.c **** }
 1144              		.loc 1 480 1 discriminator 3 view .LVU224
 1145 07c8 DC309FE5 		ldr	r3, .L90+4
 456:/home/hkh/git/eapidk-code-r76-trunk/apps/EeePProg/linux/../EeePProg.c ****   EApiStatus_t StatusCode=EAPI_STATUS_SUCCESS;
 1146              		.loc 1 456 1 discriminator 3 view .LVU225
 1147              	.LPIC73:
 1148 07cc 02208FE0 		add	r2, pc, r2
 1149              		.loc 1 480 1 discriminator 3 view .LVU226
 1150 07d0 033092E7 		ldr	r3, [r2, r3]
 1151 07d4 002093E5 		ldr	r2, [r3]
 1152 07d8 14309DE5 		ldr	r3, [sp, #20]
 1153 07dc 022033E0 		eors	r2, r3, r2
 1154 07e0 0030A0E3 		mov	r3, #0
 1155 07e4 2E00001A 		bne	.L89
ARM GAS  /tmp/ccqui9DH.s 			page 33


 1156              		.loc 1 480 1 view .LVU227
 1157 07e8 0400A0E1 		mov	r0, r4
 1158 07ec 1CD08DE2 		add	sp, sp, #28
 1159              		.cfi_remember_state
 1160              		.cfi_def_cfa_offset 20
 1161              		@ sp needed
 1162 07f0 F080BDE8 		pop	{r4, r5, r6, r7, pc}
 1163              	.LVL79:
 1164              	.L88:
 1165              		.cfi_restore_state
 464:/home/hkh/git/eapidk-code-r76-trunk/apps/EeePProg/linux/../EeePProg.c ****     EAPI_APP_RETURN_ERROR(
 1166              		.loc 1 464 6 discriminator 2 view .LVU228
 1167 07f4 0730D0E5 		ldrb	r3, [r0, #7]	@ zero_extendqisi2
 1168 07f8 580053E3 		cmp	r3, #88
 1169 07fc DFFFFF1A 		bne	.L78
 1170 0800 0830D0E5 		ldrb	r3, [r0, #8]	@ zero_extendqisi2
 1171 0804 500053E3 		cmp	r3, #80
 1172 0808 DCFFFF1A 		bne	.L78
 1173 080c 0930D0E5 		ldrb	r3, [r0, #9]	@ zero_extendqisi2
 1174 0810 310053E3 		cmp	r3, #49
 1175 0814 D9FFFF1A 		bne	.L78
 465:/home/hkh/git/eapidk-code-r76-trunk/apps/EeePProg/linux/../EeePProg.c ****         CMD_ProgramEeePExt_EEP,
 1176              		.loc 1 465 5 is_stmt 1 discriminator 2 view .LVU229
 471:/home/hkh/git/eapidk-code-r76-trunk/apps/EeePProg/linux/../EeePProg.c ****           BHandel, 
 1177              		.loc 1 471 3 discriminator 2 view .LVU230
 471:/home/hkh/git/eapidk-code-r76-trunk/apps/EeePProg/linux/../EeePProg.c ****           BHandel, 
 1178              		.loc 1 471 3 discriminator 2 view .LVU231
 1179 0818 B820D5E1 		ldrh	r2, [r5, #8]
 1180 081c B410D5E1 		ldrh	r1, [r5, #4]
 1181 0820 FEFFFFEB 		bl	EeePWriteBufferToEEP(PLT)
 1182              	.LVL80:
 471:/home/hkh/git/eapidk-code-r76-trunk/apps/EeePProg/linux/../EeePProg.c ****           BHandel, 
 1183              		.loc 1 471 3 discriminator 2 view .LVU232
 1184 0824 004050E2 		subs	r4, r0, #0
 1185 0828 E3FFFF0A 		beq	.L77
 471:/home/hkh/git/eapidk-code-r76-trunk/apps/EeePProg/linux/../EeePProg.c ****           BHandel, 
 1186              		.loc 1 471 3 discriminator 1 view .LVU233
 1187 082c 90209FE5 		ldr	r2, .L90+28
 1188 0830 0700A0E1 		mov	r0, r7
 1189              	.LVL81:
 471:/home/hkh/git/eapidk-code-r76-trunk/apps/EeePProg/linux/../EeePProg.c ****           BHandel, 
 1190              		.loc 1 471 3 is_stmt 0 discriminator 1 view .LVU234
 1191 0834 8C309FE5 		ldr	r3, .L90+32
 1192 0838 8C109FE5 		ldr	r1, .L90+36
 1193              	.LPIC71:
 1194 083c 02208FE0 		add	r2, pc, r2
 1195 0840 00408DE5 		str	r4, [sp]
 1196 0844 08208DE5 		str	r2, [sp, #8]
 1197              	.LPIC72:
 1198 0848 03308FE0 		add	r3, pc, r3
 1199 084c 7C209FE5 		ldr	r2, .L90+40
 1200              	.LPIC70:
 1201 0850 01108FE0 		add	r1, pc, r1
 1202 0854 04308DE5 		str	r3, [sp, #4]
 1203 0858 D73100E3 		movw	r3, #471
 1204              	.LPIC69:
 1205 085c 02208FE0 		add	r2, pc, r2
ARM GAS  /tmp/ccqui9DH.s 			page 34


 1206 0860 FEFFFFEB 		bl	siFormattedMessage_SC(PLT)
 1207              	.LVL82:
 471:/home/hkh/git/eapidk-code-r76-trunk/apps/EeePProg/linux/../EeePProg.c ****           BHandel, 
 1208              		.loc 1 471 3 is_stmt 1 discriminator 1 view .LVU235
 1209 0864 D4FFFFEA 		b	.L77
 1210              	.LVL83:
 1211              	.L87:
 460:/home/hkh/git/eapidk-code-r76-trunk/apps/EeePProg/linux/../EeePProg.c ****         &BHandel                              ,
 1212              		.loc 1 460 3 discriminator 1 view .LVU236
 1213 0868 64109FE5 		ldr	r1, .L90+44
 1214 086c 733FA0E3 		mov	r3, #460
 1215 0870 60009FE5 		ldr	r0, .L90+48
 1216              	.LVL84:
 460:/home/hkh/git/eapidk-code-r76-trunk/apps/EeePProg/linux/../EeePProg.c ****         &BHandel                              ,
 1217              		.loc 1 460 3 is_stmt 0 discriminator 1 view .LVU237
 1218 0874 60209FE5 		ldr	r2, .L90+52
 1219              	.LPIC63:
 1220 0878 01108FE0 		add	r1, pc, r1
 1221 087c 00408DE5 		str	r4, [sp]
 1222 0880 04108DE5 		str	r1, [sp, #4]
 1223              	.LPIC62:
 1224 0884 00008FE0 		add	r0, pc, r0
 1225 0888 50109FE5 		ldr	r1, .L90+56
 1226              	.LPIC60:
 1227 088c 02208FE0 		add	r2, pc, r2
 1228 0890 08008DE5 		str	r0, [sp, #8]
 1229 0894 4500A0E3 		mov	r0, #69
 1230              	.LPIC61:
 1231 0898 01108FE0 		add	r1, pc, r1
 1232 089c FEFFFFEB 		bl	siFormattedMessage_SC(PLT)
 1233              	.LVL85:
 460:/home/hkh/git/eapidk-code-r76-trunk/apps/EeePProg/linux/../EeePProg.c ****         &BHandel                              ,
 1234              		.loc 1 460 3 is_stmt 1 discriminator 1 view .LVU238
 1235 08a0 C5FFFFEA 		b	.L77
 1236              	.L89:
 1237              		.loc 1 480 1 is_stmt 0 view .LVU239
 1238 08a4 FEFFFFEB 		bl	__stack_chk_fail(PLT)
 1239              	.LVL86:
 1240              	.L91:
 1241              		.align	2
 1242              	.L90:
 1243 08a8 64010000 		.word	_GLOBAL_OFFSET_TABLE_-(.LPIC74+8)
 1244 08ac 00000000 		.word	__stack_chk_guard(GOT)
 1245 08b0 10010000 		.word	.LC19-(.LPIC67+8)
 1246 08b4 10010000 		.word	.LC3-(.LPIC68+8)
 1247 08b8 00010000 		.word	.LC1-(.LPIC66+8)
 1248 08bc 00010000 		.word	.LC18-(.LPIC65+8)
 1249 08c0 EC000000 		.word	_GLOBAL_OFFSET_TABLE_-(.LPIC73+8)
 1250 08c4 80000000 		.word	.LC20-(.LPIC71+8)
 1251 08c8 78000000 		.word	.LC3-(.LPIC72+8)
 1252 08cc 74000000 		.word	.LC1-(.LPIC70+8)
 1253 08d0 6C000000 		.word	.LC0-(.LPIC69+8)
 1254 08d4 54000000 		.word	.LC3-(.LPIC63+8)
 1255 08d8 4C000000 		.word	.LC16-(.LPIC62+8)
 1256 08dc 48000000 		.word	.LC0-(.LPIC60+8)
 1257 08e0 40000000 		.word	.LC1-(.LPIC61+8)
 1258              		.cfi_endproc
ARM GAS  /tmp/ccqui9DH.s 			page 35


 1259              	.LFE11:
 1261              		.section	.rodata.str1.4
 1262              		.align	2
 1263              	.LC21:
 1264 0410 45656550 		.ascii	"EeePReadBufferFromEEP( &BHandel, (uint16_t)((WriteE"
 1264      52656164 
 1264      42756666 
 1264      65724672 
 1264      6F6D4545 
 1265 0443 65704366 		.ascii	"epCfg_t*)pArgData)->I2CBus, (uint16_t)((WriteEepCfg"
 1265      675F742A 
 1265      29704172 
 1265      67446174 
 1265      61292D3E 
 1266 0476 5F742A29 		.ascii	"_t*)pArgData)->I2CDevAddr )\000"
 1266      70417267 
 1266      44617461 
 1266      292D3E49 
 1266      32434465 
 1267 0492 0000     		.align	2
 1268              	.LC22:
 1269 0494 45656550 		.ascii	"EeePWriteBufferToFile(BHandel, ((WriteEepCfg_t*)pAr"
 1269      57726974 
 1269      65427566 
 1269      66657254 
 1269      6F46696C 
 1270 04c7 67446174 		.ascii	"gData)->FileName)\000"
 1270      61292D3E 
 1270      46696C65 
 1270      4E616D65 
 1270      2900
 1271              		.text
 1272              		.align	2
 1273              		.global	CMD_StoreEeePExt_EEP
 1274              		.syntax unified
 1275              		.arm
 1276              		.fpu vfpv3
 1278              	CMD_StoreEeePExt_EEP:
 1279              	.LVL87:
 1280              	.LFB12:
 481:/home/hkh/git/eapidk-code-r76-trunk/apps/EeePProg/linux/../EeePProg.c **** 
 482:/home/hkh/git/eapidk-code-r76-trunk/apps/EeePProg/linux/../EeePProg.c **** EApiStatus_t 
 483:/home/hkh/git/eapidk-code-r76-trunk/apps/EeePProg/linux/../EeePProg.c **** CMD_StoreEeePExt_EEP(
 484:/home/hkh/git/eapidk-code-r76-trunk/apps/EeePProg/linux/../EeePProg.c ****     void *pArgData
 485:/home/hkh/git/eapidk-code-r76-trunk/apps/EeePProg/linux/../EeePProg.c ****     )
 486:/home/hkh/git/eapidk-code-r76-trunk/apps/EeePProg/linux/../EeePProg.c **** {
 1281              		.loc 1 486 1 is_stmt 1 view -0
 1282              		.cfi_startproc
 1283              		@ args = 0, pretend = 0, frame = 8
 1284              		@ frame_needed = 0, uses_anonymous_args = 0
 1285              		.loc 1 486 1 is_stmt 0 view .LVU241
 1286 08e4 0CC19FE5 		ldr	ip, .L103
 487:/home/hkh/git/eapidk-code-r76-trunk/apps/EeePProg/linux/../EeePProg.c ****   EApiStatus_t StatusCode=EAPI_STATUS_SUCCESS;
 488:/home/hkh/git/eapidk-code-r76-trunk/apps/EeePProg/linux/../EeePProg.c ****   EeePHandel_t BHandel=NULL;
 1287              		.loc 1 488 16 view .LVU242
 1288 08e8 0030A0E3 		mov	r3, #0
 486:/home/hkh/git/eapidk-code-r76-trunk/apps/EeePProg/linux/../EeePProg.c ****   EApiStatus_t StatusCode=EAPI_STATUS_SUCCESS;
ARM GAS  /tmp/ccqui9DH.s 			page 36


 1289              		.loc 1 486 1 view .LVU243
 1290 08ec 70402DE9 		push	{r4, r5, r6, lr}
 1291              		.cfi_def_cfa_offset 16
 1292              		.cfi_offset 4, -16
 1293              		.cfi_offset 5, -12
 1294              		.cfi_offset 6, -8
 1295              		.cfi_offset 14, -4
 1296 08f0 0050A0E1 		mov	r5, r0
 489:/home/hkh/git/eapidk-code-r76-trunk/apps/EeePProg/linux/../EeePProg.c ****   DO(EeePReadBufferFromEEP(
 1297              		.loc 1 489 3 view .LVU244
 1298 08f4 B820D0E1 		ldrh	r2, [r0, #8]
 486:/home/hkh/git/eapidk-code-r76-trunk/apps/EeePProg/linux/../EeePProg.c ****   EApiStatus_t StatusCode=EAPI_STATUS_SUCCESS;
 1299              		.loc 1 486 1 view .LVU245
 1300 08f8 18D04DE2 		sub	sp, sp, #24
 1301              		.cfi_def_cfa_offset 40
 486:/home/hkh/git/eapidk-code-r76-trunk/apps/EeePProg/linux/../EeePProg.c ****   EApiStatus_t StatusCode=EAPI_STATUS_SUCCESS;
 1302              		.loc 1 486 1 view .LVU246
 1303              	.LPIC84:
 1304 08fc 0CC08FE0 		add	ip, pc, ip
 1305              		.loc 1 489 3 view .LVU247
 1306 0900 10608DE2 		add	r6, sp, #16
 1307 0904 B410D0E1 		ldrh	r1, [r0, #4]
 486:/home/hkh/git/eapidk-code-r76-trunk/apps/EeePProg/linux/../EeePProg.c ****   EApiStatus_t StatusCode=EAPI_STATUS_SUCCESS;
 1308              		.loc 1 486 1 view .LVU248
 1309 0908 EC009FE5 		ldr	r0, .L103+4
 1310              	.LVL88:
 486:/home/hkh/git/eapidk-code-r76-trunk/apps/EeePProg/linux/../EeePProg.c ****   EApiStatus_t StatusCode=EAPI_STATUS_SUCCESS;
 1311              		.loc 1 486 1 view .LVU249
 1312 090c 00009CE7 		ldr	r0, [ip, r0]
 1313 0910 000090E5 		ldr	r0, [r0]
 1314 0914 14008DE5 		str	r0, [sp, #20]
 1315 0918 0000A0E3 		mov	r0, #0
 487:/home/hkh/git/eapidk-code-r76-trunk/apps/EeePProg/linux/../EeePProg.c ****   EApiStatus_t StatusCode=EAPI_STATUS_SUCCESS;
 1316              		.loc 1 487 3 is_stmt 1 view .LVU250
 1317              	.LVL89:
 488:/home/hkh/git/eapidk-code-r76-trunk/apps/EeePProg/linux/../EeePProg.c ****   DO(EeePReadBufferFromEEP(
 1318              		.loc 1 488 3 view .LVU251
 1319              		.loc 1 489 3 is_stmt 0 view .LVU252
 1320 091c 0600A0E1 		mov	r0, r6
 488:/home/hkh/git/eapidk-code-r76-trunk/apps/EeePProg/linux/../EeePProg.c ****   DO(EeePReadBufferFromEEP(
 1321              		.loc 1 488 16 view .LVU253
 1322 0920 10308DE5 		str	r3, [sp, #16]
 1323              		.loc 1 489 3 is_stmt 1 view .LVU254
 1324              		.loc 1 489 3 view .LVU255
 1325 0924 FEFFFFEB 		bl	EeePReadBufferFromEEP(PLT)
 1326              	.LVL90:
 1327              		.loc 1 489 3 view .LVU256
 1328 0928 004050E2 		subs	r4, r0, #0
 1329 092c 1200001A 		bne	.L100
 1330              		.loc 1 489 3 discriminator 2 view .LVU257
 490:/home/hkh/git/eapidk-code-r76-trunk/apps/EeePProg/linux/../EeePProg.c ****           &BHandel, 
 491:/home/hkh/git/eapidk-code-r76-trunk/apps/EeePProg/linux/../EeePProg.c ****           (uint16_t)((WriteEepCfg_t*)pArgData)->I2CBus, 
 492:/home/hkh/git/eapidk-code-r76-trunk/apps/EeePProg/linux/../EeePProg.c ****           (uint16_t)((WriteEepCfg_t*)pArgData)->I2CDevAddr
 493:/home/hkh/git/eapidk-code-r76-trunk/apps/EeePProg/linux/../EeePProg.c ****       ));
 494:/home/hkh/git/eapidk-code-r76-trunk/apps/EeePProg/linux/../EeePProg.c ****   DO(EeePWriteBufferToFile(BHandel, ((WriteEepCfg_t*)pArgData)->FileName));
 1331              		.loc 1 494 3 discriminator 2 view .LVU258
 1332              		.loc 1 494 3 discriminator 2 view .LVU259
ARM GAS  /tmp/ccqui9DH.s 			page 37


 1333 0930 001095E5 		ldr	r1, [r5]
 1334 0934 10009DE5 		ldr	r0, [sp, #16]
 1335              	.LVL91:
 1336              		.loc 1 494 3 is_stmt 0 discriminator 2 view .LVU260
 1337 0938 FEFFFFEB 		bl	EeePWriteBufferToFile(PLT)
 1338              	.LVL92:
 1339              		.loc 1 494 3 is_stmt 1 discriminator 2 view .LVU261
 1340 093c 004050E2 		subs	r4, r0, #0
 1341 0940 1C00001A 		bne	.L101
 1342              	.LVL93:
 1343              	.L94:
 1344              		.loc 1 494 3 discriminator 3 view .LVU262
 495:/home/hkh/git/eapidk-code-r76-trunk/apps/EeePProg/linux/../EeePProg.c **** 
 496:/home/hkh/git/eapidk-code-r76-trunk/apps/EeePProg/linux/../EeePProg.c **** EAPI_APP_ASSERT_EXIT
 497:/home/hkh/git/eapidk-code-r76-trunk/apps/EeePProg/linux/../EeePProg.c ****   EeePFreeBuffer(&BHandel);
 1345              		.loc 1 497 3 discriminator 3 view .LVU263
 1346 0944 0600A0E1 		mov	r0, r6
 1347 0948 FEFFFFEB 		bl	EeePFreeBuffer(PLT)
 1348              	.LVL94:
 498:/home/hkh/git/eapidk-code-r76-trunk/apps/EeePProg/linux/../EeePProg.c ****   return StatusCode;
 1349              		.loc 1 498 3 discriminator 3 view .LVU264
 486:/home/hkh/git/eapidk-code-r76-trunk/apps/EeePProg/linux/../EeePProg.c ****   EApiStatus_t StatusCode=EAPI_STATUS_SUCCESS;
 1350              		.loc 1 486 1 is_stmt 0 discriminator 3 view .LVU265
 1351 094c AC209FE5 		ldr	r2, .L103+8
 499:/home/hkh/git/eapidk-code-r76-trunk/apps/EeePProg/linux/../EeePProg.c **** }
 1352              		.loc 1 499 1 discriminator 3 view .LVU266
 1353 0950 A4309FE5 		ldr	r3, .L103+4
 486:/home/hkh/git/eapidk-code-r76-trunk/apps/EeePProg/linux/../EeePProg.c ****   EApiStatus_t StatusCode=EAPI_STATUS_SUCCESS;
 1354              		.loc 1 486 1 discriminator 3 view .LVU267
 1355              	.LPIC83:
 1356 0954 02208FE0 		add	r2, pc, r2
 1357              		.loc 1 499 1 discriminator 3 view .LVU268
 1358 0958 033092E7 		ldr	r3, [r2, r3]
 1359 095c 002093E5 		ldr	r2, [r3]
 1360 0960 14309DE5 		ldr	r3, [sp, #20]
 1361 0964 022033E0 		eors	r2, r3, r2
 1362 0968 0030A0E3 		mov	r3, #0
 1363 096c 2000001A 		bne	.L102
 1364              		.loc 1 499 1 view .LVU269
 1365 0970 0400A0E1 		mov	r0, r4
 1366 0974 18D08DE2 		add	sp, sp, #24
 1367              		.cfi_remember_state
 1368              		.cfi_def_cfa_offset 16
 1369              		@ sp needed
 1370 0978 7080BDE8 		pop	{r4, r5, r6, pc}
 1371              	.LVL95:
 1372              	.L100:
 1373              		.cfi_restore_state
 489:/home/hkh/git/eapidk-code-r76-trunk/apps/EeePProg/linux/../EeePProg.c ****           &BHandel, 
 1374              		.loc 1 489 3 is_stmt 1 discriminator 1 view .LVU270
 1375 097c 80109FE5 		ldr	r1, .L103+12
 1376 0980 E93100E3 		movw	r3, #489
 1377 0984 7C009FE5 		ldr	r0, .L103+16
 1378              	.LVL96:
 489:/home/hkh/git/eapidk-code-r76-trunk/apps/EeePProg/linux/../EeePProg.c ****           &BHandel, 
 1379              		.loc 1 489 3 is_stmt 0 discriminator 1 view .LVU271
 1380 0988 7C209FE5 		ldr	r2, .L103+20
ARM GAS  /tmp/ccqui9DH.s 			page 38


 1381              	.LPIC78:
 1382 098c 01108FE0 		add	r1, pc, r1
 1383 0990 00408DE5 		str	r4, [sp]
 1384 0994 04108DE5 		str	r1, [sp, #4]
 1385              	.LPIC77:
 1386 0998 00008FE0 		add	r0, pc, r0
 1387 099c 6C109FE5 		ldr	r1, .L103+24
 1388              	.LPIC75:
 1389 09a0 02208FE0 		add	r2, pc, r2
 1390 09a4 08008DE5 		str	r0, [sp, #8]
 1391 09a8 4500A0E3 		mov	r0, #69
 1392              	.LPIC76:
 1393 09ac 01108FE0 		add	r1, pc, r1
 1394 09b0 FEFFFFEB 		bl	siFormattedMessage_SC(PLT)
 1395              	.LVL97:
 489:/home/hkh/git/eapidk-code-r76-trunk/apps/EeePProg/linux/../EeePProg.c ****           &BHandel, 
 1396              		.loc 1 489 3 is_stmt 1 discriminator 1 view .LVU272
 1397 09b4 E2FFFFEA 		b	.L94
 1398              	.LVL98:
 1399              	.L101:
 494:/home/hkh/git/eapidk-code-r76-trunk/apps/EeePProg/linux/../EeePProg.c **** 
 1400              		.loc 1 494 3 discriminator 1 view .LVU273
 1401 09b8 54109FE5 		ldr	r1, .L103+28
 1402 09bc EE3100E3 		movw	r3, #494
 1403 09c0 50009FE5 		ldr	r0, .L103+32
 1404              	.LVL99:
 494:/home/hkh/git/eapidk-code-r76-trunk/apps/EeePProg/linux/../EeePProg.c **** 
 1405              		.loc 1 494 3 is_stmt 0 discriminator 1 view .LVU274
 1406 09c4 50209FE5 		ldr	r2, .L103+36
 1407              	.LPIC82:
 1408 09c8 01108FE0 		add	r1, pc, r1
 1409 09cc 00408DE5 		str	r4, [sp]
 1410 09d0 04108DE5 		str	r1, [sp, #4]
 1411              	.LPIC81:
 1412 09d4 00008FE0 		add	r0, pc, r0
 1413 09d8 40109FE5 		ldr	r1, .L103+40
 1414              	.LPIC79:
 1415 09dc 02208FE0 		add	r2, pc, r2
 1416 09e0 08008DE5 		str	r0, [sp, #8]
 1417 09e4 4500A0E3 		mov	r0, #69
 1418              	.LPIC80:
 1419 09e8 01108FE0 		add	r1, pc, r1
 1420 09ec FEFFFFEB 		bl	siFormattedMessage_SC(PLT)
 1421              	.LVL100:
 494:/home/hkh/git/eapidk-code-r76-trunk/apps/EeePProg/linux/../EeePProg.c **** 
 1422              		.loc 1 494 3 is_stmt 1 discriminator 1 view .LVU275
 1423 09f0 D3FFFFEA 		b	.L94
 1424              	.L102:
 1425              		.loc 1 499 1 is_stmt 0 view .LVU276
 1426 09f4 FEFFFFEB 		bl	__stack_chk_fail(PLT)
 1427              	.LVL101:
 1428              	.L104:
 1429              		.align	2
 1430              	.L103:
 1431 09f8 F4000000 		.word	_GLOBAL_OFFSET_TABLE_-(.LPIC84+8)
 1432 09fc 00000000 		.word	__stack_chk_guard(GOT)
 1433 0a00 A4000000 		.word	_GLOBAL_OFFSET_TABLE_-(.LPIC83+8)
ARM GAS  /tmp/ccqui9DH.s 			page 39


 1434 0a04 70000000 		.word	.LC3-(.LPIC78+8)
 1435 0a08 68000000 		.word	.LC21-(.LPIC77+8)
 1436 0a0c 64000000 		.word	.LC0-(.LPIC75+8)
 1437 0a10 5C000000 		.word	.LC1-(.LPIC76+8)
 1438 0a14 44000000 		.word	.LC3-(.LPIC82+8)
 1439 0a18 3C000000 		.word	.LC22-(.LPIC81+8)
 1440 0a1c 38000000 		.word	.LC0-(.LPIC79+8)
 1441 0a20 30000000 		.word	.LC1-(.LPIC80+8)
 1442              		.cfi_endproc
 1443              	.LFE12:
 1445              		.section	.rodata.str1.4
 1446 04d9 000000   		.align	2
 1447              	.LC23:
 1448 04dc 45656550 		.ascii	"EeeP_CreateEeePExtEEPImage( &BHandel , ((InOutFiles"
 1448      5F437265 
 1448      61746545 
 1448      65655045 
 1448      78744545 
 1449 050f 5F742A29 		.ascii	"_t*)pArgData)->InFile )\000"
 1449      70417267 
 1449      44617461 
 1449      292D3E49 
 1449      6E46696C 
 1450 0527 00       		.align	2
 1451              	.LC24:
 1452 0528 45656550 		.ascii	"EeePWriteBufferToFile(BHandel, ((InOutFiles_t*)pArg"
 1452      57726974 
 1452      65427566 
 1452      66657254 
 1452      6F46696C 
 1453 055b 44617461 		.ascii	"Data)->OutFile)\000"
 1453      292D3E4F 
 1453      75744669 
 1453      6C652900 
 1454              		.text
 1455              		.align	2
 1456              		.global	CMD_CreateExtEepEEP_IMG
 1457              		.syntax unified
 1458              		.arm
 1459              		.fpu vfpv3
 1461              	CMD_CreateExtEepEEP_IMG:
 1462              	.LVL102:
 1463              	.LFB18:
 500:/home/hkh/git/eapidk-code-r76-trunk/apps/EeePProg/linux/../EeePProg.c **** 
 501:/home/hkh/git/eapidk-code-r76-trunk/apps/EeePProg/linux/../EeePProg.c **** EApiStatus_t 
 502:/home/hkh/git/eapidk-code-r76-trunk/apps/EeePProg/linux/../EeePProg.c **** CMD_StoreCOM0R20_CB_EEP(
 503:/home/hkh/git/eapidk-code-r76-trunk/apps/EeePProg/linux/../EeePProg.c ****     void *pArgData
 504:/home/hkh/git/eapidk-code-r76-trunk/apps/EeePProg/linux/../EeePProg.c ****     )
 505:/home/hkh/git/eapidk-code-r76-trunk/apps/EeePProg/linux/../EeePProg.c **** {
 506:/home/hkh/git/eapidk-code-r76-trunk/apps/EeePProg/linux/../EeePProg.c ****   WriteEepCfg_t WriteEep={NULL, EAPI_ID_I2C_EXTERNAL, COM0R20_CB_EEP_DEV_ADDR};
 507:/home/hkh/git/eapidk-code-r76-trunk/apps/EeePProg/linux/../EeePProg.c ****   WriteEep.FileName=*(char**)pArgData;
 508:/home/hkh/git/eapidk-code-r76-trunk/apps/EeePProg/linux/../EeePProg.c ****   return CMD_StoreEeePExt_EEP(&WriteEep);
 509:/home/hkh/git/eapidk-code-r76-trunk/apps/EeePProg/linux/../EeePProg.c **** }
 510:/home/hkh/git/eapidk-code-r76-trunk/apps/EeePProg/linux/../EeePProg.c **** 
 511:/home/hkh/git/eapidk-code-r76-trunk/apps/EeePProg/linux/../EeePProg.c **** EApiStatus_t 
 512:/home/hkh/git/eapidk-code-r76-trunk/apps/EeePProg/linux/../EeePProg.c **** CMD_StoreCOM0R20_M_EEP(
 513:/home/hkh/git/eapidk-code-r76-trunk/apps/EeePProg/linux/../EeePProg.c ****     void *pArgData
ARM GAS  /tmp/ccqui9DH.s 			page 40


 514:/home/hkh/git/eapidk-code-r76-trunk/apps/EeePProg/linux/../EeePProg.c ****     )
 515:/home/hkh/git/eapidk-code-r76-trunk/apps/EeePProg/linux/../EeePProg.c **** {
 516:/home/hkh/git/eapidk-code-r76-trunk/apps/EeePProg/linux/../EeePProg.c ****   WriteEepCfg_t WriteEep={NULL, EAPI_ID_I2C_EXTERNAL, COM0R20_M_EEP_DEV_ADDR};
 517:/home/hkh/git/eapidk-code-r76-trunk/apps/EeePProg/linux/../EeePProg.c ****   WriteEep.FileName=*(char**)pArgData;
 518:/home/hkh/git/eapidk-code-r76-trunk/apps/EeePProg/linux/../EeePProg.c ****   return CMD_StoreEeePExt_EEP(&WriteEep);
 519:/home/hkh/git/eapidk-code-r76-trunk/apps/EeePProg/linux/../EeePProg.c **** }
 520:/home/hkh/git/eapidk-code-r76-trunk/apps/EeePProg/linux/../EeePProg.c **** 
 521:/home/hkh/git/eapidk-code-r76-trunk/apps/EeePProg/linux/../EeePProg.c **** EApiStatus_t 
 522:/home/hkh/git/eapidk-code-r76-trunk/apps/EeePProg/linux/../EeePProg.c **** CMD_ListDBlocksEeePExt_EEP(
 523:/home/hkh/git/eapidk-code-r76-trunk/apps/EeePProg/linux/../EeePProg.c ****     void *pArgData
 524:/home/hkh/git/eapidk-code-r76-trunk/apps/EeePProg/linux/../EeePProg.c ****     )
 525:/home/hkh/git/eapidk-code-r76-trunk/apps/EeePProg/linux/../EeePProg.c **** {
 526:/home/hkh/git/eapidk-code-r76-trunk/apps/EeePProg/linux/../EeePProg.c ****   EApiStatus_t StatusCode=EAPI_STATUS_SUCCESS;
 527:/home/hkh/git/eapidk-code-r76-trunk/apps/EeePProg/linux/../EeePProg.c ****   EeePHandel_t BHandel=NULL;
 528:/home/hkh/git/eapidk-code-r76-trunk/apps/EeePProg/linux/../EeePProg.c ****   DO(EeePReadBufferFromEEP(
 529:/home/hkh/git/eapidk-code-r76-trunk/apps/EeePProg/linux/../EeePProg.c ****           &BHandel, 
 530:/home/hkh/git/eapidk-code-r76-trunk/apps/EeePProg/linux/../EeePProg.c ****           (uint16_t)((I2CAddrCfg_t*)pArgData)->I2CBus, 
 531:/home/hkh/git/eapidk-code-r76-trunk/apps/EeePProg/linux/../EeePProg.c ****           (uint16_t)((I2CAddrCfg_t*)pArgData)->I2CDevAddr
 532:/home/hkh/git/eapidk-code-r76-trunk/apps/EeePProg/linux/../EeePProg.c ****       ));
 533:/home/hkh/git/eapidk-code-r76-trunk/apps/EeePProg/linux/../EeePProg.c ****   DO(EeePListBlocks( BHandel, 0));
 534:/home/hkh/git/eapidk-code-r76-trunk/apps/EeePProg/linux/../EeePProg.c **** 
 535:/home/hkh/git/eapidk-code-r76-trunk/apps/EeePProg/linux/../EeePProg.c **** EAPI_APP_ASSERT_EXIT
 536:/home/hkh/git/eapidk-code-r76-trunk/apps/EeePProg/linux/../EeePProg.c ****   EeePFreeBuffer(&BHandel);
 537:/home/hkh/git/eapidk-code-r76-trunk/apps/EeePProg/linux/../EeePProg.c ****   return StatusCode;
 538:/home/hkh/git/eapidk-code-r76-trunk/apps/EeePProg/linux/../EeePProg.c **** }
 539:/home/hkh/git/eapidk-code-r76-trunk/apps/EeePProg/linux/../EeePProg.c **** 
 540:/home/hkh/git/eapidk-code-r76-trunk/apps/EeePProg/linux/../EeePProg.c **** 
 541:/home/hkh/git/eapidk-code-r76-trunk/apps/EeePProg/linux/../EeePProg.c **** EApiStatus_t 
 542:/home/hkh/git/eapidk-code-r76-trunk/apps/EeePProg/linux/../EeePProg.c **** CMD_ListDBlocksCOM0R20_CB_EEP(
 543:/home/hkh/git/eapidk-code-r76-trunk/apps/EeePProg/linux/../EeePProg.c ****     void *pArgData
 544:/home/hkh/git/eapidk-code-r76-trunk/apps/EeePProg/linux/../EeePProg.c ****     )
 545:/home/hkh/git/eapidk-code-r76-trunk/apps/EeePProg/linux/../EeePProg.c **** {
 546:/home/hkh/git/eapidk-code-r76-trunk/apps/EeePProg/linux/../EeePProg.c ****   I2CAddrCfg_t DevDesc={EAPI_ID_I2C_EXTERNAL, COM0R20_CB_EEP_DEV_ADDR};
 547:/home/hkh/git/eapidk-code-r76-trunk/apps/EeePProg/linux/../EeePProg.c ****   pArgData=pArgData;
 548:/home/hkh/git/eapidk-code-r76-trunk/apps/EeePProg/linux/../EeePProg.c ****   return CMD_ListDBlocksEeePExt_EEP(&DevDesc);
 549:/home/hkh/git/eapidk-code-r76-trunk/apps/EeePProg/linux/../EeePProg.c **** }
 550:/home/hkh/git/eapidk-code-r76-trunk/apps/EeePProg/linux/../EeePProg.c **** EApiStatus_t 
 551:/home/hkh/git/eapidk-code-r76-trunk/apps/EeePProg/linux/../EeePProg.c **** CMD_ListDBlocksCOM0R20_M_EEP(
 552:/home/hkh/git/eapidk-code-r76-trunk/apps/EeePProg/linux/../EeePProg.c ****     void *pArgData
 553:/home/hkh/git/eapidk-code-r76-trunk/apps/EeePProg/linux/../EeePProg.c ****     )
 554:/home/hkh/git/eapidk-code-r76-trunk/apps/EeePProg/linux/../EeePProg.c **** {
 555:/home/hkh/git/eapidk-code-r76-trunk/apps/EeePProg/linux/../EeePProg.c ****   I2CAddrCfg_t DevDesc={EAPI_ID_I2C_EXTERNAL, COM0R20_M_EEP_DEV_ADDR};
 556:/home/hkh/git/eapidk-code-r76-trunk/apps/EeePProg/linux/../EeePProg.c ****   pArgData=pArgData;
 557:/home/hkh/git/eapidk-code-r76-trunk/apps/EeePProg/linux/../EeePProg.c ****   return CMD_ListDBlocksEeePExt_EEP(&DevDesc);
 558:/home/hkh/git/eapidk-code-r76-trunk/apps/EeePProg/linux/../EeePProg.c **** }
 559:/home/hkh/git/eapidk-code-r76-trunk/apps/EeePProg/linux/../EeePProg.c **** 
 560:/home/hkh/git/eapidk-code-r76-trunk/apps/EeePProg/linux/../EeePProg.c **** EApiStatus_t 
 561:/home/hkh/git/eapidk-code-r76-trunk/apps/EeePProg/linux/../EeePProg.c **** CMD_CreateExtEepEEP_IMG(
 562:/home/hkh/git/eapidk-code-r76-trunk/apps/EeePProg/linux/../EeePProg.c ****     void *pArgData
 563:/home/hkh/git/eapidk-code-r76-trunk/apps/EeePProg/linux/../EeePProg.c ****     )
 564:/home/hkh/git/eapidk-code-r76-trunk/apps/EeePProg/linux/../EeePProg.c **** {
 1464              		.loc 1 564 1 is_stmt 1 view -0
 1465              		.cfi_startproc
 1466              		@ args = 0, pretend = 0, frame = 8
 1467              		@ frame_needed = 0, uses_anonymous_args = 0
 1468              		.loc 1 564 1 is_stmt 0 view .LVU278
 1469 0a24 08C19FE5 		ldr	ip, .L116
ARM GAS  /tmp/ccqui9DH.s 			page 41


 565:/home/hkh/git/eapidk-code-r76-trunk/apps/EeePProg/linux/../EeePProg.c ****   EApiStatus_t StatusCode=EAPI_STATUS_SUCCESS;
 566:/home/hkh/git/eapidk-code-r76-trunk/apps/EeePProg/linux/../EeePProg.c ****   EeePHandel_t BHandel=NULL;
 1470              		.loc 1 566 16 view .LVU279
 1471 0a28 0030A0E3 		mov	r3, #0
 564:/home/hkh/git/eapidk-code-r76-trunk/apps/EeePProg/linux/../EeePProg.c ****   EApiStatus_t StatusCode=EAPI_STATUS_SUCCESS;
 1472              		.loc 1 564 1 view .LVU280
 1473 0a2c 04219FE5 		ldr	r2, .L116+4
 1474 0a30 70402DE9 		push	{r4, r5, r6, lr}
 1475              		.cfi_def_cfa_offset 16
 1476              		.cfi_offset 4, -16
 1477              		.cfi_offset 5, -12
 1478              		.cfi_offset 6, -8
 1479              		.cfi_offset 14, -4
 1480 0a34 18D04DE2 		sub	sp, sp, #24
 1481              		.cfi_def_cfa_offset 40
 564:/home/hkh/git/eapidk-code-r76-trunk/apps/EeePProg/linux/../EeePProg.c ****   EApiStatus_t StatusCode=EAPI_STATUS_SUCCESS;
 1482              		.loc 1 564 1 view .LVU281
 1483              	.LPIC94:
 1484 0a38 0CC08FE0 		add	ip, pc, ip
 567:/home/hkh/git/eapidk-code-r76-trunk/apps/EeePProg/linux/../EeePProg.c **** 
 568:/home/hkh/git/eapidk-code-r76-trunk/apps/EeePProg/linux/../EeePProg.c ****   DO(EeeP_CreateEeePExtEEPImage(
 1485              		.loc 1 568 3 view .LVU282
 1486 0a3c 10608DE2 		add	r6, sp, #16
 564:/home/hkh/git/eapidk-code-r76-trunk/apps/EeePProg/linux/../EeePProg.c ****   EApiStatus_t StatusCode=EAPI_STATUS_SUCCESS;
 1487              		.loc 1 564 1 view .LVU283
 1488 0a40 0050A0E1 		mov	r5, r0
 1489 0a44 02209CE7 		ldr	r2, [ip, r2]
 1490              		.loc 1 568 3 view .LVU284
 1491 0a48 001090E5 		ldr	r1, [r0]
 1492 0a4c 0600A0E1 		mov	r0, r6
 564:/home/hkh/git/eapidk-code-r76-trunk/apps/EeePProg/linux/../EeePProg.c ****   EApiStatus_t StatusCode=EAPI_STATUS_SUCCESS;
 1493              		.loc 1 564 1 view .LVU285
 1494 0a50 002092E5 		ldr	r2, [r2]
 1495 0a54 14208DE5 		str	r2, [sp, #20]
 1496 0a58 0020A0E3 		mov	r2, #0
 565:/home/hkh/git/eapidk-code-r76-trunk/apps/EeePProg/linux/../EeePProg.c ****   EeePHandel_t BHandel=NULL;
 1497              		.loc 1 565 3 is_stmt 1 view .LVU286
 1498              	.LVL103:
 566:/home/hkh/git/eapidk-code-r76-trunk/apps/EeePProg/linux/../EeePProg.c **** 
 1499              		.loc 1 566 3 view .LVU287
 566:/home/hkh/git/eapidk-code-r76-trunk/apps/EeePProg/linux/../EeePProg.c **** 
 1500              		.loc 1 566 16 is_stmt 0 view .LVU288
 1501 0a5c 10308DE5 		str	r3, [sp, #16]
 1502              		.loc 1 568 3 is_stmt 1 view .LVU289
 1503              		.loc 1 568 3 view .LVU290
 1504 0a60 FEFFFFEB 		bl	EeeP_CreateEeePExtEEPImage(PLT)
 1505              	.LVL104:
 1506              		.loc 1 568 3 view .LVU291
 1507 0a64 004050E2 		subs	r4, r0, #0
 1508 0a68 1200001A 		bne	.L113
 1509              		.loc 1 568 3 discriminator 2 view .LVU292
 569:/home/hkh/git/eapidk-code-r76-trunk/apps/EeePProg/linux/../EeePProg.c ****         &BHandel                              ,
 570:/home/hkh/git/eapidk-code-r76-trunk/apps/EeePProg/linux/../EeePProg.c ****         ((InOutFiles_t*)pArgData)->InFile
 571:/home/hkh/git/eapidk-code-r76-trunk/apps/EeePProg/linux/../EeePProg.c ****       ));
 572:/home/hkh/git/eapidk-code-r76-trunk/apps/EeePProg/linux/../EeePProg.c ****   DO(EeePWriteBufferToFile(BHandel, ((InOutFiles_t*)pArgData)->OutFile));
 1510              		.loc 1 572 3 discriminator 2 view .LVU293
 1511              		.loc 1 572 3 discriminator 2 view .LVU294
ARM GAS  /tmp/ccqui9DH.s 			page 42


 1512 0a6c 041095E5 		ldr	r1, [r5, #4]
 1513 0a70 10009DE5 		ldr	r0, [sp, #16]
 1514              	.LVL105:
 1515              		.loc 1 572 3 is_stmt 0 discriminator 2 view .LVU295
 1516 0a74 FEFFFFEB 		bl	EeePWriteBufferToFile(PLT)
 1517              	.LVL106:
 1518              		.loc 1 572 3 is_stmt 1 discriminator 2 view .LVU296
 1519 0a78 004050E2 		subs	r4, r0, #0
 1520 0a7c 1C00001A 		bne	.L114
 1521              	.LVL107:
 1522              	.L107:
 1523              		.loc 1 572 3 discriminator 3 view .LVU297
 573:/home/hkh/git/eapidk-code-r76-trunk/apps/EeePProg/linux/../EeePProg.c **** 
 574:/home/hkh/git/eapidk-code-r76-trunk/apps/EeePProg/linux/../EeePProg.c **** EAPI_APP_ASSERT_EXIT
 575:/home/hkh/git/eapidk-code-r76-trunk/apps/EeePProg/linux/../EeePProg.c ****   EeePFreeBuffer(&BHandel);
 1524              		.loc 1 575 3 discriminator 3 view .LVU298
 1525 0a80 0600A0E1 		mov	r0, r6
 1526 0a84 FEFFFFEB 		bl	EeePFreeBuffer(PLT)
 1527              	.LVL108:
 576:/home/hkh/git/eapidk-code-r76-trunk/apps/EeePProg/linux/../EeePProg.c ****   return StatusCode;
 1528              		.loc 1 576 3 discriminator 3 view .LVU299
 564:/home/hkh/git/eapidk-code-r76-trunk/apps/EeePProg/linux/../EeePProg.c ****   EApiStatus_t StatusCode=EAPI_STATUS_SUCCESS;
 1529              		.loc 1 564 1 is_stmt 0 discriminator 3 view .LVU300
 1530 0a88 AC209FE5 		ldr	r2, .L116+8
 577:/home/hkh/git/eapidk-code-r76-trunk/apps/EeePProg/linux/../EeePProg.c **** }
 1531              		.loc 1 577 1 discriminator 3 view .LVU301
 1532 0a8c A4309FE5 		ldr	r3, .L116+4
 564:/home/hkh/git/eapidk-code-r76-trunk/apps/EeePProg/linux/../EeePProg.c ****   EApiStatus_t StatusCode=EAPI_STATUS_SUCCESS;
 1533              		.loc 1 564 1 discriminator 3 view .LVU302
 1534              	.LPIC93:
 1535 0a90 02208FE0 		add	r2, pc, r2
 1536              		.loc 1 577 1 discriminator 3 view .LVU303
 1537 0a94 033092E7 		ldr	r3, [r2, r3]
 1538 0a98 002093E5 		ldr	r2, [r3]
 1539 0a9c 14309DE5 		ldr	r3, [sp, #20]
 1540 0aa0 022033E0 		eors	r2, r3, r2
 1541 0aa4 0030A0E3 		mov	r3, #0
 1542 0aa8 2000001A 		bne	.L115
 1543              		.loc 1 577 1 view .LVU304
 1544 0aac 0400A0E1 		mov	r0, r4
 1545 0ab0 18D08DE2 		add	sp, sp, #24
 1546              		.cfi_remember_state
 1547              		.cfi_def_cfa_offset 16
 1548              		@ sp needed
 1549 0ab4 7080BDE8 		pop	{r4, r5, r6, pc}
 1550              	.LVL109:
 1551              	.L113:
 1552              		.cfi_restore_state
 568:/home/hkh/git/eapidk-code-r76-trunk/apps/EeePProg/linux/../EeePProg.c ****         &BHandel                              ,
 1553              		.loc 1 568 3 is_stmt 1 discriminator 1 view .LVU305
 1554 0ab8 80109FE5 		ldr	r1, .L116+12
 1555 0abc 8E3FA0E3 		mov	r3, #568
 1556 0ac0 7C009FE5 		ldr	r0, .L116+16
 1557              	.LVL110:
 568:/home/hkh/git/eapidk-code-r76-trunk/apps/EeePProg/linux/../EeePProg.c ****         &BHandel                              ,
 1558              		.loc 1 568 3 is_stmt 0 discriminator 1 view .LVU306
 1559 0ac4 7C209FE5 		ldr	r2, .L116+20
ARM GAS  /tmp/ccqui9DH.s 			page 43


 1560              	.LPIC88:
 1561 0ac8 01108FE0 		add	r1, pc, r1
 1562 0acc 00408DE5 		str	r4, [sp]
 1563 0ad0 04108DE5 		str	r1, [sp, #4]
 1564              	.LPIC87:
 1565 0ad4 00008FE0 		add	r0, pc, r0
 1566 0ad8 6C109FE5 		ldr	r1, .L116+24
 1567              	.LPIC85:
 1568 0adc 02208FE0 		add	r2, pc, r2
 1569 0ae0 08008DE5 		str	r0, [sp, #8]
 1570 0ae4 4500A0E3 		mov	r0, #69
 1571              	.LPIC86:
 1572 0ae8 01108FE0 		add	r1, pc, r1
 1573 0aec FEFFFFEB 		bl	siFormattedMessage_SC(PLT)
 1574              	.LVL111:
 568:/home/hkh/git/eapidk-code-r76-trunk/apps/EeePProg/linux/../EeePProg.c ****         &BHandel                              ,
 1575              		.loc 1 568 3 is_stmt 1 discriminator 1 view .LVU307
 1576 0af0 E2FFFFEA 		b	.L107
 1577              	.LVL112:
 1578              	.L114:
 572:/home/hkh/git/eapidk-code-r76-trunk/apps/EeePProg/linux/../EeePProg.c **** 
 1579              		.loc 1 572 3 discriminator 1 view .LVU308
 1580 0af4 54109FE5 		ldr	r1, .L116+28
 1581 0af8 8F3FA0E3 		mov	r3, #572
 1582 0afc 50009FE5 		ldr	r0, .L116+32
 1583              	.LVL113:
 572:/home/hkh/git/eapidk-code-r76-trunk/apps/EeePProg/linux/../EeePProg.c **** 
 1584              		.loc 1 572 3 is_stmt 0 discriminator 1 view .LVU309
 1585 0b00 50209FE5 		ldr	r2, .L116+36
 1586              	.LPIC92:
 1587 0b04 01108FE0 		add	r1, pc, r1
 1588 0b08 00408DE5 		str	r4, [sp]
 1589 0b0c 04108DE5 		str	r1, [sp, #4]
 1590              	.LPIC91:
 1591 0b10 00008FE0 		add	r0, pc, r0
 1592 0b14 40109FE5 		ldr	r1, .L116+40
 1593              	.LPIC89:
 1594 0b18 02208FE0 		add	r2, pc, r2
 1595 0b1c 08008DE5 		str	r0, [sp, #8]
 1596 0b20 4500A0E3 		mov	r0, #69
 1597              	.LPIC90:
 1598 0b24 01108FE0 		add	r1, pc, r1
 1599 0b28 FEFFFFEB 		bl	siFormattedMessage_SC(PLT)
 1600              	.LVL114:
 572:/home/hkh/git/eapidk-code-r76-trunk/apps/EeePProg/linux/../EeePProg.c **** 
 1601              		.loc 1 572 3 is_stmt 1 discriminator 1 view .LVU310
 1602 0b2c D3FFFFEA 		b	.L107
 1603              	.L115:
 1604              		.loc 1 577 1 is_stmt 0 view .LVU311
 1605 0b30 FEFFFFEB 		bl	__stack_chk_fail(PLT)
 1606              	.LVL115:
 1607              	.L117:
 1608              		.align	2
 1609              	.L116:
 1610 0b34 F4000000 		.word	_GLOBAL_OFFSET_TABLE_-(.LPIC94+8)
 1611 0b38 00000000 		.word	__stack_chk_guard(GOT)
 1612 0b3c A4000000 		.word	_GLOBAL_OFFSET_TABLE_-(.LPIC93+8)
ARM GAS  /tmp/ccqui9DH.s 			page 44


 1613 0b40 70000000 		.word	.LC3-(.LPIC88+8)
 1614 0b44 68000000 		.word	.LC23-(.LPIC87+8)
 1615 0b48 64000000 		.word	.LC0-(.LPIC85+8)
 1616 0b4c 5C000000 		.word	.LC1-(.LPIC86+8)
 1617 0b50 44000000 		.word	.LC3-(.LPIC92+8)
 1618 0b54 3C000000 		.word	.LC24-(.LPIC91+8)
 1619 0b58 38000000 		.word	.LC0-(.LPIC89+8)
 1620 0b5c 30000000 		.word	.LC1-(.LPIC90+8)
 1621              		.cfi_endproc
 1622              	.LFE18:
 1624              		.section	.rodata.str1.4
 1625 056b 00       		.align	2
 1626              	.LC25:
 1627 056c 45656550 		.ascii	"EeeP_CreateCOM0R20_MEEPImage( &BHandel , ((InOutFil"
 1627      5F437265 
 1627      61746543 
 1627      4F4D3052 
 1627      32305F4D 
 1628 059f 65735F74 		.ascii	"es_t*)pArgData)->InFile )\000"
 1628      2A297041 
 1628      72674461 
 1628      7461292D 
 1628      3E496E46 
 1629              		.text
 1630              		.align	2
 1631              		.global	CMD_CreateCOM0R20M_IMG
 1632              		.syntax unified
 1633              		.arm
 1634              		.fpu vfpv3
 1636              	CMD_CreateCOM0R20M_IMG:
 1637              	.LVL116:
 1638              	.LFB19:
 578:/home/hkh/git/eapidk-code-r76-trunk/apps/EeePProg/linux/../EeePProg.c **** EApiStatus_t 
 579:/home/hkh/git/eapidk-code-r76-trunk/apps/EeePProg/linux/../EeePProg.c **** CMD_CreateCOM0R20M_IMG(
 580:/home/hkh/git/eapidk-code-r76-trunk/apps/EeePProg/linux/../EeePProg.c ****     void *pArgData
 581:/home/hkh/git/eapidk-code-r76-trunk/apps/EeePProg/linux/../EeePProg.c ****     )
 582:/home/hkh/git/eapidk-code-r76-trunk/apps/EeePProg/linux/../EeePProg.c **** {
 1639              		.loc 1 582 1 is_stmt 1 view -0
 1640              		.cfi_startproc
 1641              		@ args = 0, pretend = 0, frame = 8
 1642              		@ frame_needed = 0, uses_anonymous_args = 0
 1643              		.loc 1 582 1 is_stmt 0 view .LVU313
 1644 0b60 08C19FE5 		ldr	ip, .L129
 583:/home/hkh/git/eapidk-code-r76-trunk/apps/EeePProg/linux/../EeePProg.c ****   EApiStatus_t StatusCode=EAPI_STATUS_SUCCESS;
 584:/home/hkh/git/eapidk-code-r76-trunk/apps/EeePProg/linux/../EeePProg.c ****   EeePHandel_t BHandel=NULL;
 1645              		.loc 1 584 16 view .LVU314
 1646 0b64 0030A0E3 		mov	r3, #0
 582:/home/hkh/git/eapidk-code-r76-trunk/apps/EeePProg/linux/../EeePProg.c ****   EApiStatus_t StatusCode=EAPI_STATUS_SUCCESS;
 1647              		.loc 1 582 1 view .LVU315
 1648 0b68 04219FE5 		ldr	r2, .L129+4
 1649 0b6c 70402DE9 		push	{r4, r5, r6, lr}
 1650              		.cfi_def_cfa_offset 16
 1651              		.cfi_offset 4, -16
 1652              		.cfi_offset 5, -12
 1653              		.cfi_offset 6, -8
 1654              		.cfi_offset 14, -4
 1655 0b70 18D04DE2 		sub	sp, sp, #24
ARM GAS  /tmp/ccqui9DH.s 			page 45


 1656              		.cfi_def_cfa_offset 40
 582:/home/hkh/git/eapidk-code-r76-trunk/apps/EeePProg/linux/../EeePProg.c ****   EApiStatus_t StatusCode=EAPI_STATUS_SUCCESS;
 1657              		.loc 1 582 1 view .LVU316
 1658              	.LPIC104:
 1659 0b74 0CC08FE0 		add	ip, pc, ip
 585:/home/hkh/git/eapidk-code-r76-trunk/apps/EeePProg/linux/../EeePProg.c **** 
 586:/home/hkh/git/eapidk-code-r76-trunk/apps/EeePProg/linux/../EeePProg.c ****   DO(EeeP_CreateCOM0R20_MEEPImage(
 1660              		.loc 1 586 3 view .LVU317
 1661 0b78 10608DE2 		add	r6, sp, #16
 582:/home/hkh/git/eapidk-code-r76-trunk/apps/EeePProg/linux/../EeePProg.c ****   EApiStatus_t StatusCode=EAPI_STATUS_SUCCESS;
 1662              		.loc 1 582 1 view .LVU318
 1663 0b7c 0050A0E1 		mov	r5, r0
 1664 0b80 02209CE7 		ldr	r2, [ip, r2]
 1665              		.loc 1 586 3 view .LVU319
 1666 0b84 001090E5 		ldr	r1, [r0]
 1667 0b88 0600A0E1 		mov	r0, r6
 582:/home/hkh/git/eapidk-code-r76-trunk/apps/EeePProg/linux/../EeePProg.c ****   EApiStatus_t StatusCode=EAPI_STATUS_SUCCESS;
 1668              		.loc 1 582 1 view .LVU320
 1669 0b8c 002092E5 		ldr	r2, [r2]
 1670 0b90 14208DE5 		str	r2, [sp, #20]
 1671 0b94 0020A0E3 		mov	r2, #0
 583:/home/hkh/git/eapidk-code-r76-trunk/apps/EeePProg/linux/../EeePProg.c ****   EeePHandel_t BHandel=NULL;
 1672              		.loc 1 583 3 is_stmt 1 view .LVU321
 1673              	.LVL117:
 584:/home/hkh/git/eapidk-code-r76-trunk/apps/EeePProg/linux/../EeePProg.c **** 
 1674              		.loc 1 584 3 view .LVU322
 584:/home/hkh/git/eapidk-code-r76-trunk/apps/EeePProg/linux/../EeePProg.c **** 
 1675              		.loc 1 584 16 is_stmt 0 view .LVU323
 1676 0b98 10308DE5 		str	r3, [sp, #16]
 1677              		.loc 1 586 3 is_stmt 1 view .LVU324
 1678              		.loc 1 586 3 view .LVU325
 1679 0b9c FEFFFFEB 		bl	EeeP_CreateCOM0R20_MEEPImage(PLT)
 1680              	.LVL118:
 1681              		.loc 1 586 3 view .LVU326
 1682 0ba0 004050E2 		subs	r4, r0, #0
 1683 0ba4 1200001A 		bne	.L126
 1684              		.loc 1 586 3 discriminator 2 view .LVU327
 587:/home/hkh/git/eapidk-code-r76-trunk/apps/EeePProg/linux/../EeePProg.c ****         &BHandel                              ,
 588:/home/hkh/git/eapidk-code-r76-trunk/apps/EeePProg/linux/../EeePProg.c ****         ((InOutFiles_t*)pArgData)->InFile
 589:/home/hkh/git/eapidk-code-r76-trunk/apps/EeePProg/linux/../EeePProg.c ****       ));
 590:/home/hkh/git/eapidk-code-r76-trunk/apps/EeePProg/linux/../EeePProg.c ****   DO(EeePWriteBufferToFile(BHandel, ((InOutFiles_t*)pArgData)->OutFile));
 1685              		.loc 1 590 3 discriminator 2 view .LVU328
 1686              		.loc 1 590 3 discriminator 2 view .LVU329
 1687 0ba8 041095E5 		ldr	r1, [r5, #4]
 1688 0bac 10009DE5 		ldr	r0, [sp, #16]
 1689              	.LVL119:
 1690              		.loc 1 590 3 is_stmt 0 discriminator 2 view .LVU330
 1691 0bb0 FEFFFFEB 		bl	EeePWriteBufferToFile(PLT)
 1692              	.LVL120:
 1693              		.loc 1 590 3 is_stmt 1 discriminator 2 view .LVU331
 1694 0bb4 004050E2 		subs	r4, r0, #0
 1695 0bb8 1C00001A 		bne	.L127
 1696              	.LVL121:
 1697              	.L120:
 1698              		.loc 1 590 3 discriminator 3 view .LVU332
 591:/home/hkh/git/eapidk-code-r76-trunk/apps/EeePProg/linux/../EeePProg.c **** 
 592:/home/hkh/git/eapidk-code-r76-trunk/apps/EeePProg/linux/../EeePProg.c **** EAPI_APP_ASSERT_EXIT
ARM GAS  /tmp/ccqui9DH.s 			page 46


 593:/home/hkh/git/eapidk-code-r76-trunk/apps/EeePProg/linux/../EeePProg.c ****   EeePFreeBuffer(&BHandel);
 1699              		.loc 1 593 3 discriminator 3 view .LVU333
 1700 0bbc 0600A0E1 		mov	r0, r6
 1701 0bc0 FEFFFFEB 		bl	EeePFreeBuffer(PLT)
 1702              	.LVL122:
 594:/home/hkh/git/eapidk-code-r76-trunk/apps/EeePProg/linux/../EeePProg.c ****   return StatusCode;
 1703              		.loc 1 594 3 discriminator 3 view .LVU334
 582:/home/hkh/git/eapidk-code-r76-trunk/apps/EeePProg/linux/../EeePProg.c ****   EApiStatus_t StatusCode=EAPI_STATUS_SUCCESS;
 1704              		.loc 1 582 1 is_stmt 0 discriminator 3 view .LVU335
 1705 0bc4 AC209FE5 		ldr	r2, .L129+8
 595:/home/hkh/git/eapidk-code-r76-trunk/apps/EeePProg/linux/../EeePProg.c **** }
 1706              		.loc 1 595 1 discriminator 3 view .LVU336
 1707 0bc8 A4309FE5 		ldr	r3, .L129+4
 582:/home/hkh/git/eapidk-code-r76-trunk/apps/EeePProg/linux/../EeePProg.c ****   EApiStatus_t StatusCode=EAPI_STATUS_SUCCESS;
 1708              		.loc 1 582 1 discriminator 3 view .LVU337
 1709              	.LPIC103:
 1710 0bcc 02208FE0 		add	r2, pc, r2
 1711              		.loc 1 595 1 discriminator 3 view .LVU338
 1712 0bd0 033092E7 		ldr	r3, [r2, r3]
 1713 0bd4 002093E5 		ldr	r2, [r3]
 1714 0bd8 14309DE5 		ldr	r3, [sp, #20]
 1715 0bdc 022033E0 		eors	r2, r3, r2
 1716 0be0 0030A0E3 		mov	r3, #0
 1717 0be4 2000001A 		bne	.L128
 1718              		.loc 1 595 1 view .LVU339
 1719 0be8 0400A0E1 		mov	r0, r4
 1720 0bec 18D08DE2 		add	sp, sp, #24
 1721              		.cfi_remember_state
 1722              		.cfi_def_cfa_offset 16
 1723              		@ sp needed
 1724 0bf0 7080BDE8 		pop	{r4, r5, r6, pc}
 1725              	.LVL123:
 1726              	.L126:
 1727              		.cfi_restore_state
 586:/home/hkh/git/eapidk-code-r76-trunk/apps/EeePProg/linux/../EeePProg.c ****         &BHandel                              ,
 1728              		.loc 1 586 3 is_stmt 1 discriminator 1 view .LVU340
 1729 0bf4 80109FE5 		ldr	r1, .L129+12
 1730 0bf8 4A3200E3 		movw	r3, #586
 1731 0bfc 7C009FE5 		ldr	r0, .L129+16
 1732              	.LVL124:
 586:/home/hkh/git/eapidk-code-r76-trunk/apps/EeePProg/linux/../EeePProg.c ****         &BHandel                              ,
 1733              		.loc 1 586 3 is_stmt 0 discriminator 1 view .LVU341
 1734 0c00 7C209FE5 		ldr	r2, .L129+20
 1735              	.LPIC98:
 1736 0c04 01108FE0 		add	r1, pc, r1
 1737 0c08 00408DE5 		str	r4, [sp]
 1738 0c0c 04108DE5 		str	r1, [sp, #4]
 1739              	.LPIC97:
 1740 0c10 00008FE0 		add	r0, pc, r0
 1741 0c14 6C109FE5 		ldr	r1, .L129+24
 1742              	.LPIC95:
 1743 0c18 02208FE0 		add	r2, pc, r2
 1744 0c1c 08008DE5 		str	r0, [sp, #8]
 1745 0c20 4500A0E3 		mov	r0, #69
 1746              	.LPIC96:
 1747 0c24 01108FE0 		add	r1, pc, r1
 1748 0c28 FEFFFFEB 		bl	siFormattedMessage_SC(PLT)
ARM GAS  /tmp/ccqui9DH.s 			page 47


 1749              	.LVL125:
 586:/home/hkh/git/eapidk-code-r76-trunk/apps/EeePProg/linux/../EeePProg.c ****         &BHandel                              ,
 1750              		.loc 1 586 3 is_stmt 1 discriminator 1 view .LVU342
 1751 0c2c E2FFFFEA 		b	.L120
 1752              	.LVL126:
 1753              	.L127:
 590:/home/hkh/git/eapidk-code-r76-trunk/apps/EeePProg/linux/../EeePProg.c **** 
 1754              		.loc 1 590 3 discriminator 1 view .LVU343
 1755 0c30 54109FE5 		ldr	r1, .L129+28
 1756 0c34 4E3200E3 		movw	r3, #590
 1757 0c38 50009FE5 		ldr	r0, .L129+32
 1758              	.LVL127:
 590:/home/hkh/git/eapidk-code-r76-trunk/apps/EeePProg/linux/../EeePProg.c **** 
 1759              		.loc 1 590 3 is_stmt 0 discriminator 1 view .LVU344
 1760 0c3c 50209FE5 		ldr	r2, .L129+36
 1761              	.LPIC102:
 1762 0c40 01108FE0 		add	r1, pc, r1
 1763 0c44 00408DE5 		str	r4, [sp]
 1764 0c48 04108DE5 		str	r1, [sp, #4]
 1765              	.LPIC101:
 1766 0c4c 00008FE0 		add	r0, pc, r0
 1767 0c50 40109FE5 		ldr	r1, .L129+40
 1768              	.LPIC99:
 1769 0c54 02208FE0 		add	r2, pc, r2
 1770 0c58 08008DE5 		str	r0, [sp, #8]
 1771 0c5c 4500A0E3 		mov	r0, #69
 1772              	.LPIC100:
 1773 0c60 01108FE0 		add	r1, pc, r1
 1774 0c64 FEFFFFEB 		bl	siFormattedMessage_SC(PLT)
 1775              	.LVL128:
 590:/home/hkh/git/eapidk-code-r76-trunk/apps/EeePProg/linux/../EeePProg.c **** 
 1776              		.loc 1 590 3 is_stmt 1 discriminator 1 view .LVU345
 1777 0c68 D3FFFFEA 		b	.L120
 1778              	.L128:
 1779              		.loc 1 595 1 is_stmt 0 view .LVU346
 1780 0c6c FEFFFFEB 		bl	__stack_chk_fail(PLT)
 1781              	.LVL129:
 1782              	.L130:
 1783              		.align	2
 1784              	.L129:
 1785 0c70 F4000000 		.word	_GLOBAL_OFFSET_TABLE_-(.LPIC104+8)
 1786 0c74 00000000 		.word	__stack_chk_guard(GOT)
 1787 0c78 A4000000 		.word	_GLOBAL_OFFSET_TABLE_-(.LPIC103+8)
 1788 0c7c 70000000 		.word	.LC3-(.LPIC98+8)
 1789 0c80 68000000 		.word	.LC25-(.LPIC97+8)
 1790 0c84 64000000 		.word	.LC0-(.LPIC95+8)
 1791 0c88 5C000000 		.word	.LC1-(.LPIC96+8)
 1792 0c8c 44000000 		.word	.LC3-(.LPIC102+8)
 1793 0c90 3C000000 		.word	.LC24-(.LPIC101+8)
 1794 0c94 38000000 		.word	.LC0-(.LPIC99+8)
 1795 0c98 30000000 		.word	.LC1-(.LPIC100+8)
 1796              		.cfi_endproc
 1797              	.LFE19:
 1799              		.section	.rodata.str1.4
 1800 05b9 000000   		.align	2
 1801              	.LC26:
 1802 05bc 45656550 		.ascii	"EeeP_CreateCOM0R20_CBImage( &BHandel , ((InOutFiles"
ARM GAS  /tmp/ccqui9DH.s 			page 48


 1802      5F437265 
 1802      61746543 
 1802      4F4D3052 
 1802      32305F43 
 1803 05ef 5F742A29 		.ascii	"_t*)pArgData)->InFile )\000"
 1803      70417267 
 1803      44617461 
 1803      292D3E49 
 1803      6E46696C 
 1804              		.text
 1805              		.align	2
 1806              		.global	CMD_CreateCOM0R20CB_IMG
 1807              		.syntax unified
 1808              		.arm
 1809              		.fpu vfpv3
 1811              	CMD_CreateCOM0R20CB_IMG:
 1812              	.LVL130:
 1813              	.LFB20:
 596:/home/hkh/git/eapidk-code-r76-trunk/apps/EeePProg/linux/../EeePProg.c **** EApiStatus_t 
 597:/home/hkh/git/eapidk-code-r76-trunk/apps/EeePProg/linux/../EeePProg.c **** CMD_CreateCOM0R20CB_IMG(
 598:/home/hkh/git/eapidk-code-r76-trunk/apps/EeePProg/linux/../EeePProg.c ****     void *pArgData
 599:/home/hkh/git/eapidk-code-r76-trunk/apps/EeePProg/linux/../EeePProg.c ****     )
 600:/home/hkh/git/eapidk-code-r76-trunk/apps/EeePProg/linux/../EeePProg.c **** {
 1814              		.loc 1 600 1 is_stmt 1 view -0
 1815              		.cfi_startproc
 1816              		@ args = 0, pretend = 0, frame = 8
 1817              		@ frame_needed = 0, uses_anonymous_args = 0
 1818              		.loc 1 600 1 is_stmt 0 view .LVU348
 1819 0c9c 08C19FE5 		ldr	ip, .L142
 601:/home/hkh/git/eapidk-code-r76-trunk/apps/EeePProg/linux/../EeePProg.c ****   EApiStatus_t StatusCode=EAPI_STATUS_SUCCESS;
 602:/home/hkh/git/eapidk-code-r76-trunk/apps/EeePProg/linux/../EeePProg.c ****   EeePHandel_t BHandel=NULL;
 1820              		.loc 1 602 16 view .LVU349
 1821 0ca0 0030A0E3 		mov	r3, #0
 600:/home/hkh/git/eapidk-code-r76-trunk/apps/EeePProg/linux/../EeePProg.c ****   EApiStatus_t StatusCode=EAPI_STATUS_SUCCESS;
 1822              		.loc 1 600 1 view .LVU350
 1823 0ca4 04219FE5 		ldr	r2, .L142+4
 1824 0ca8 70402DE9 		push	{r4, r5, r6, lr}
 1825              		.cfi_def_cfa_offset 16
 1826              		.cfi_offset 4, -16
 1827              		.cfi_offset 5, -12
 1828              		.cfi_offset 6, -8
 1829              		.cfi_offset 14, -4
 1830 0cac 18D04DE2 		sub	sp, sp, #24
 1831              		.cfi_def_cfa_offset 40
 600:/home/hkh/git/eapidk-code-r76-trunk/apps/EeePProg/linux/../EeePProg.c ****   EApiStatus_t StatusCode=EAPI_STATUS_SUCCESS;
 1832              		.loc 1 600 1 view .LVU351
 1833              	.LPIC114:
 1834 0cb0 0CC08FE0 		add	ip, pc, ip
 603:/home/hkh/git/eapidk-code-r76-trunk/apps/EeePProg/linux/../EeePProg.c **** 
 604:/home/hkh/git/eapidk-code-r76-trunk/apps/EeePProg/linux/../EeePProg.c ****   DO(EeeP_CreateCOM0R20_CBImage(
 1835              		.loc 1 604 3 view .LVU352
 1836 0cb4 10608DE2 		add	r6, sp, #16
 600:/home/hkh/git/eapidk-code-r76-trunk/apps/EeePProg/linux/../EeePProg.c ****   EApiStatus_t StatusCode=EAPI_STATUS_SUCCESS;
 1837              		.loc 1 600 1 view .LVU353
 1838 0cb8 0050A0E1 		mov	r5, r0
 1839 0cbc 02209CE7 		ldr	r2, [ip, r2]
 1840              		.loc 1 604 3 view .LVU354
ARM GAS  /tmp/ccqui9DH.s 			page 49


 1841 0cc0 001090E5 		ldr	r1, [r0]
 1842 0cc4 0600A0E1 		mov	r0, r6
 600:/home/hkh/git/eapidk-code-r76-trunk/apps/EeePProg/linux/../EeePProg.c ****   EApiStatus_t StatusCode=EAPI_STATUS_SUCCESS;
 1843              		.loc 1 600 1 view .LVU355
 1844 0cc8 002092E5 		ldr	r2, [r2]
 1845 0ccc 14208DE5 		str	r2, [sp, #20]
 1846 0cd0 0020A0E3 		mov	r2, #0
 601:/home/hkh/git/eapidk-code-r76-trunk/apps/EeePProg/linux/../EeePProg.c ****   EeePHandel_t BHandel=NULL;
 1847              		.loc 1 601 3 is_stmt 1 view .LVU356
 1848              	.LVL131:
 602:/home/hkh/git/eapidk-code-r76-trunk/apps/EeePProg/linux/../EeePProg.c **** 
 1849              		.loc 1 602 3 view .LVU357
 602:/home/hkh/git/eapidk-code-r76-trunk/apps/EeePProg/linux/../EeePProg.c **** 
 1850              		.loc 1 602 16 is_stmt 0 view .LVU358
 1851 0cd4 10308DE5 		str	r3, [sp, #16]
 1852              		.loc 1 604 3 is_stmt 1 view .LVU359
 1853              		.loc 1 604 3 view .LVU360
 1854 0cd8 FEFFFFEB 		bl	EeeP_CreateCOM0R20_CBImage(PLT)
 1855              	.LVL132:
 1856              		.loc 1 604 3 view .LVU361
 1857 0cdc 004050E2 		subs	r4, r0, #0
 1858 0ce0 1200001A 		bne	.L139
 1859              		.loc 1 604 3 discriminator 2 view .LVU362
 605:/home/hkh/git/eapidk-code-r76-trunk/apps/EeePProg/linux/../EeePProg.c ****         &BHandel                              ,
 606:/home/hkh/git/eapidk-code-r76-trunk/apps/EeePProg/linux/../EeePProg.c ****         ((InOutFiles_t*)pArgData)->InFile
 607:/home/hkh/git/eapidk-code-r76-trunk/apps/EeePProg/linux/../EeePProg.c ****       ));
 608:/home/hkh/git/eapidk-code-r76-trunk/apps/EeePProg/linux/../EeePProg.c ****   DO(EeePWriteBufferToFile(BHandel, ((InOutFiles_t*)pArgData)->OutFile));
 1860              		.loc 1 608 3 discriminator 2 view .LVU363
 1861              		.loc 1 608 3 discriminator 2 view .LVU364
 1862 0ce4 041095E5 		ldr	r1, [r5, #4]
 1863 0ce8 10009DE5 		ldr	r0, [sp, #16]
 1864              	.LVL133:
 1865              		.loc 1 608 3 is_stmt 0 discriminator 2 view .LVU365
 1866 0cec FEFFFFEB 		bl	EeePWriteBufferToFile(PLT)
 1867              	.LVL134:
 1868              		.loc 1 608 3 is_stmt 1 discriminator 2 view .LVU366
 1869 0cf0 004050E2 		subs	r4, r0, #0
 1870 0cf4 1C00001A 		bne	.L140
 1871              	.LVL135:
 1872              	.L133:
 1873              		.loc 1 608 3 discriminator 3 view .LVU367
 609:/home/hkh/git/eapidk-code-r76-trunk/apps/EeePProg/linux/../EeePProg.c **** 
 610:/home/hkh/git/eapidk-code-r76-trunk/apps/EeePProg/linux/../EeePProg.c **** EAPI_APP_ASSERT_EXIT
 611:/home/hkh/git/eapidk-code-r76-trunk/apps/EeePProg/linux/../EeePProg.c ****   EeePFreeBuffer(&BHandel);
 1874              		.loc 1 611 3 discriminator 3 view .LVU368
 1875 0cf8 0600A0E1 		mov	r0, r6
 1876 0cfc FEFFFFEB 		bl	EeePFreeBuffer(PLT)
 1877              	.LVL136:
 612:/home/hkh/git/eapidk-code-r76-trunk/apps/EeePProg/linux/../EeePProg.c ****   return StatusCode;
 1878              		.loc 1 612 3 discriminator 3 view .LVU369
 600:/home/hkh/git/eapidk-code-r76-trunk/apps/EeePProg/linux/../EeePProg.c ****   EApiStatus_t StatusCode=EAPI_STATUS_SUCCESS;
 1879              		.loc 1 600 1 is_stmt 0 discriminator 3 view .LVU370
 1880 0d00 AC209FE5 		ldr	r2, .L142+8
 613:/home/hkh/git/eapidk-code-r76-trunk/apps/EeePProg/linux/../EeePProg.c **** }
 1881              		.loc 1 613 1 discriminator 3 view .LVU371
 1882 0d04 A4309FE5 		ldr	r3, .L142+4
 600:/home/hkh/git/eapidk-code-r76-trunk/apps/EeePProg/linux/../EeePProg.c ****   EApiStatus_t StatusCode=EAPI_STATUS_SUCCESS;
ARM GAS  /tmp/ccqui9DH.s 			page 50


 1883              		.loc 1 600 1 discriminator 3 view .LVU372
 1884              	.LPIC113:
 1885 0d08 02208FE0 		add	r2, pc, r2
 1886              		.loc 1 613 1 discriminator 3 view .LVU373
 1887 0d0c 033092E7 		ldr	r3, [r2, r3]
 1888 0d10 002093E5 		ldr	r2, [r3]
 1889 0d14 14309DE5 		ldr	r3, [sp, #20]
 1890 0d18 022033E0 		eors	r2, r3, r2
 1891 0d1c 0030A0E3 		mov	r3, #0
 1892 0d20 2000001A 		bne	.L141
 1893              		.loc 1 613 1 view .LVU374
 1894 0d24 0400A0E1 		mov	r0, r4
 1895 0d28 18D08DE2 		add	sp, sp, #24
 1896              		.cfi_remember_state
 1897              		.cfi_def_cfa_offset 16
 1898              		@ sp needed
 1899 0d2c 7080BDE8 		pop	{r4, r5, r6, pc}
 1900              	.LVL137:
 1901              	.L139:
 1902              		.cfi_restore_state
 604:/home/hkh/git/eapidk-code-r76-trunk/apps/EeePProg/linux/../EeePProg.c ****         &BHandel                              ,
 1903              		.loc 1 604 3 is_stmt 1 discriminator 1 view .LVU375
 1904 0d30 80109FE5 		ldr	r1, .L142+12
 1905 0d34 973FA0E3 		mov	r3, #604
 1906 0d38 7C009FE5 		ldr	r0, .L142+16
 1907              	.LVL138:
 604:/home/hkh/git/eapidk-code-r76-trunk/apps/EeePProg/linux/../EeePProg.c ****         &BHandel                              ,
 1908              		.loc 1 604 3 is_stmt 0 discriminator 1 view .LVU376
 1909 0d3c 7C209FE5 		ldr	r2, .L142+20
 1910              	.LPIC108:
 1911 0d40 01108FE0 		add	r1, pc, r1
 1912 0d44 00408DE5 		str	r4, [sp]
 1913 0d48 04108DE5 		str	r1, [sp, #4]
 1914              	.LPIC107:
 1915 0d4c 00008FE0 		add	r0, pc, r0
 1916 0d50 6C109FE5 		ldr	r1, .L142+24
 1917              	.LPIC105:
 1918 0d54 02208FE0 		add	r2, pc, r2
 1919 0d58 08008DE5 		str	r0, [sp, #8]
 1920 0d5c 4500A0E3 		mov	r0, #69
 1921              	.LPIC106:
 1922 0d60 01108FE0 		add	r1, pc, r1
 1923 0d64 FEFFFFEB 		bl	siFormattedMessage_SC(PLT)
 1924              	.LVL139:
 604:/home/hkh/git/eapidk-code-r76-trunk/apps/EeePProg/linux/../EeePProg.c ****         &BHandel                              ,
 1925              		.loc 1 604 3 is_stmt 1 discriminator 1 view .LVU377
 1926 0d68 E2FFFFEA 		b	.L133
 1927              	.LVL140:
 1928              	.L140:
 608:/home/hkh/git/eapidk-code-r76-trunk/apps/EeePProg/linux/../EeePProg.c **** 
 1929              		.loc 1 608 3 discriminator 1 view .LVU378
 1930 0d6c 54109FE5 		ldr	r1, .L142+28
 1931 0d70 263EA0E3 		mov	r3, #608
 1932 0d74 50009FE5 		ldr	r0, .L142+32
 1933              	.LVL141:
 608:/home/hkh/git/eapidk-code-r76-trunk/apps/EeePProg/linux/../EeePProg.c **** 
 1934              		.loc 1 608 3 is_stmt 0 discriminator 1 view .LVU379
ARM GAS  /tmp/ccqui9DH.s 			page 51


 1935 0d78 50209FE5 		ldr	r2, .L142+36
 1936              	.LPIC112:
 1937 0d7c 01108FE0 		add	r1, pc, r1
 1938 0d80 00408DE5 		str	r4, [sp]
 1939 0d84 04108DE5 		str	r1, [sp, #4]
 1940              	.LPIC111:
 1941 0d88 00008FE0 		add	r0, pc, r0
 1942 0d8c 40109FE5 		ldr	r1, .L142+40
 1943              	.LPIC109:
 1944 0d90 02208FE0 		add	r2, pc, r2
 1945 0d94 08008DE5 		str	r0, [sp, #8]
 1946 0d98 4500A0E3 		mov	r0, #69
 1947              	.LPIC110:
 1948 0d9c 01108FE0 		add	r1, pc, r1
 1949 0da0 FEFFFFEB 		bl	siFormattedMessage_SC(PLT)
 1950              	.LVL142:
 608:/home/hkh/git/eapidk-code-r76-trunk/apps/EeePProg/linux/../EeePProg.c **** 
 1951              		.loc 1 608 3 is_stmt 1 discriminator 1 view .LVU380
 1952 0da4 D3FFFFEA 		b	.L133
 1953              	.L141:
 1954              		.loc 1 613 1 is_stmt 0 view .LVU381
 1955 0da8 FEFFFFEB 		bl	__stack_chk_fail(PLT)
 1956              	.LVL143:
 1957              	.L143:
 1958              		.align	2
 1959              	.L142:
 1960 0dac F4000000 		.word	_GLOBAL_OFFSET_TABLE_-(.LPIC114+8)
 1961 0db0 00000000 		.word	__stack_chk_guard(GOT)
 1962 0db4 A4000000 		.word	_GLOBAL_OFFSET_TABLE_-(.LPIC113+8)
 1963 0db8 70000000 		.word	.LC3-(.LPIC108+8)
 1964 0dbc 68000000 		.word	.LC26-(.LPIC107+8)
 1965 0dc0 64000000 		.word	.LC0-(.LPIC105+8)
 1966 0dc4 5C000000 		.word	.LC1-(.LPIC106+8)
 1967 0dc8 44000000 		.word	.LC3-(.LPIC112+8)
 1968 0dcc 3C000000 		.word	.LC24-(.LPIC111+8)
 1969 0dd0 38000000 		.word	.LC0-(.LPIC109+8)
 1970 0dd4 30000000 		.word	.LC1-(.LPIC110+8)
 1971              		.cfi_endproc
 1972              	.LFE20:
 1974              		.section	.rodata.str1.4
 1975 0607 00       		.align	2
 1976              	.LC27:
 1977 0608 45656550 		.ascii	"EeePReadBufferFromEEP( &BHandel, (uint16_t)((I2CAdd"
 1977      52656164 
 1977      42756666 
 1977      65724672 
 1977      6F6D4545 
 1978 063b 72436667 		.ascii	"rCfg_t*)pArgData)->I2CBus, (uint16_t)((I2CAddrCfg_t"
 1978      5F742A29 
 1978      70417267 
 1978      44617461 
 1978      292D3E49 
 1979 066e 2A297041 		.ascii	"*)pArgData)->I2CDevAddr )\000"
 1979      72674461 
 1979      7461292D 
 1979      3E493243 
 1979      44657641 
ARM GAS  /tmp/ccqui9DH.s 			page 52


 1980              		.align	2
 1981              	.LC28:
 1982 0688 45656550 		.ascii	"EeePListBlocks( BHandel, 0)\000"
 1982      4C697374 
 1982      426C6F63 
 1982      6B732820 
 1982      4248616E 
 1983              		.text
 1984              		.align	2
 1985              		.global	CMD_ListDBlocksEeePExt_EEP
 1986              		.syntax unified
 1987              		.arm
 1988              		.fpu vfpv3
 1990              	CMD_ListDBlocksEeePExt_EEP:
 1991              	.LVL144:
 1992              	.LFB15:
 525:/home/hkh/git/eapidk-code-r76-trunk/apps/EeePProg/linux/../EeePProg.c ****   EApiStatus_t StatusCode=EAPI_STATUS_SUCCESS;
 1993              		.loc 1 525 1 is_stmt 1 view -0
 1994              		.cfi_startproc
 1995              		@ args = 0, pretend = 0, frame = 8
 1996              		@ frame_needed = 0, uses_anonymous_args = 0
 525:/home/hkh/git/eapidk-code-r76-trunk/apps/EeePProg/linux/../EeePProg.c ****   EApiStatus_t StatusCode=EAPI_STATUS_SUCCESS;
 1997              		.loc 1 525 1 is_stmt 0 view .LVU383
 1998 0dd8 08C19FE5 		ldr	ip, .L155
 527:/home/hkh/git/eapidk-code-r76-trunk/apps/EeePProg/linux/../EeePProg.c ****   DO(EeePReadBufferFromEEP(
 1999              		.loc 1 527 16 view .LVU384
 2000 0ddc 0030A0E3 		mov	r3, #0
 528:/home/hkh/git/eapidk-code-r76-trunk/apps/EeePProg/linux/../EeePProg.c ****           &BHandel, 
 2001              		.loc 1 528 3 view .LVU385
 2002 0de0 B420D0E1 		ldrh	r2, [r0, #4]
 2003 0de4 B010D0E1 		ldrh	r1, [r0]
 525:/home/hkh/git/eapidk-code-r76-trunk/apps/EeePProg/linux/../EeePProg.c ****   EApiStatus_t StatusCode=EAPI_STATUS_SUCCESS;
 2004              		.loc 1 525 1 view .LVU386
 2005 0de8 FC009FE5 		ldr	r0, .L155+4
 2006              	.LVL145:
 525:/home/hkh/git/eapidk-code-r76-trunk/apps/EeePProg/linux/../EeePProg.c ****   EApiStatus_t StatusCode=EAPI_STATUS_SUCCESS;
 2007              		.loc 1 525 1 view .LVU387
 2008              	.LPIC124:
 2009 0dec 0CC08FE0 		add	ip, pc, ip
 2010 0df0 30402DE9 		push	{r4, r5, lr}
 2011              		.cfi_def_cfa_offset 12
 2012              		.cfi_offset 4, -12
 2013              		.cfi_offset 5, -8
 2014              		.cfi_offset 14, -4
 2015 0df4 1CD04DE2 		sub	sp, sp, #28
 2016              		.cfi_def_cfa_offset 40
 528:/home/hkh/git/eapidk-code-r76-trunk/apps/EeePProg/linux/../EeePProg.c ****           &BHandel, 
 2017              		.loc 1 528 3 view .LVU388
 2018 0df8 10508DE2 		add	r5, sp, #16
 525:/home/hkh/git/eapidk-code-r76-trunk/apps/EeePProg/linux/../EeePProg.c ****   EApiStatus_t StatusCode=EAPI_STATUS_SUCCESS;
 2019              		.loc 1 525 1 view .LVU389
 2020 0dfc 00009CE7 		ldr	r0, [ip, r0]
 2021 0e00 000090E5 		ldr	r0, [r0]
 2022 0e04 14008DE5 		str	r0, [sp, #20]
 2023 0e08 0000A0E3 		mov	r0, #0
 526:/home/hkh/git/eapidk-code-r76-trunk/apps/EeePProg/linux/../EeePProg.c ****   EeePHandel_t BHandel=NULL;
 2024              		.loc 1 526 3 is_stmt 1 view .LVU390
ARM GAS  /tmp/ccqui9DH.s 			page 53


 2025              	.LVL146:
 527:/home/hkh/git/eapidk-code-r76-trunk/apps/EeePProg/linux/../EeePProg.c ****   DO(EeePReadBufferFromEEP(
 2026              		.loc 1 527 3 view .LVU391
 528:/home/hkh/git/eapidk-code-r76-trunk/apps/EeePProg/linux/../EeePProg.c ****           &BHandel, 
 2027              		.loc 1 528 3 is_stmt 0 view .LVU392
 2028 0e0c 0500A0E1 		mov	r0, r5
 527:/home/hkh/git/eapidk-code-r76-trunk/apps/EeePProg/linux/../EeePProg.c ****   DO(EeePReadBufferFromEEP(
 2029              		.loc 1 527 16 view .LVU393
 2030 0e10 10308DE5 		str	r3, [sp, #16]
 528:/home/hkh/git/eapidk-code-r76-trunk/apps/EeePProg/linux/../EeePProg.c ****           &BHandel, 
 2031              		.loc 1 528 3 is_stmt 1 view .LVU394
 528:/home/hkh/git/eapidk-code-r76-trunk/apps/EeePProg/linux/../EeePProg.c ****           &BHandel, 
 2032              		.loc 1 528 3 view .LVU395
 2033 0e14 FEFFFFEB 		bl	EeePReadBufferFromEEP(PLT)
 2034              	.LVL147:
 528:/home/hkh/git/eapidk-code-r76-trunk/apps/EeePProg/linux/../EeePProg.c ****           &BHandel, 
 2035              		.loc 1 528 3 view .LVU396
 2036 0e18 004050E2 		subs	r4, r0, #0
 2037 0e1c 1200001A 		bne	.L152
 528:/home/hkh/git/eapidk-code-r76-trunk/apps/EeePProg/linux/../EeePProg.c ****           &BHandel, 
 2038              		.loc 1 528 3 discriminator 2 view .LVU397
 533:/home/hkh/git/eapidk-code-r76-trunk/apps/EeePProg/linux/../EeePProg.c **** 
 2039              		.loc 1 533 3 discriminator 2 view .LVU398
 533:/home/hkh/git/eapidk-code-r76-trunk/apps/EeePProg/linux/../EeePProg.c **** 
 2040              		.loc 1 533 3 discriminator 2 view .LVU399
 2041 0e20 0410A0E1 		mov	r1, r4
 2042 0e24 10009DE5 		ldr	r0, [sp, #16]
 2043              	.LVL148:
 533:/home/hkh/git/eapidk-code-r76-trunk/apps/EeePProg/linux/../EeePProg.c **** 
 2044              		.loc 1 533 3 is_stmt 0 discriminator 2 view .LVU400
 2045 0e28 FEFFFFEB 		bl	EeePListBlocks(PLT)
 2046              	.LVL149:
 533:/home/hkh/git/eapidk-code-r76-trunk/apps/EeePProg/linux/../EeePProg.c **** 
 2047              		.loc 1 533 3 is_stmt 1 discriminator 2 view .LVU401
 2048 0e2c 004050E2 		subs	r4, r0, #0
 2049 0e30 1C00001A 		bne	.L153
 2050              	.LVL150:
 2051              	.L146:
 533:/home/hkh/git/eapidk-code-r76-trunk/apps/EeePProg/linux/../EeePProg.c **** 
 2052              		.loc 1 533 3 discriminator 3 view .LVU402
 536:/home/hkh/git/eapidk-code-r76-trunk/apps/EeePProg/linux/../EeePProg.c ****   return StatusCode;
 2053              		.loc 1 536 3 discriminator 3 view .LVU403
 2054 0e34 0500A0E1 		mov	r0, r5
 2055 0e38 FEFFFFEB 		bl	EeePFreeBuffer(PLT)
 2056              	.LVL151:
 537:/home/hkh/git/eapidk-code-r76-trunk/apps/EeePProg/linux/../EeePProg.c **** }
 2057              		.loc 1 537 3 discriminator 3 view .LVU404
 525:/home/hkh/git/eapidk-code-r76-trunk/apps/EeePProg/linux/../EeePProg.c ****   EApiStatus_t StatusCode=EAPI_STATUS_SUCCESS;
 2058              		.loc 1 525 1 is_stmt 0 discriminator 3 view .LVU405
 2059 0e3c AC209FE5 		ldr	r2, .L155+8
 538:/home/hkh/git/eapidk-code-r76-trunk/apps/EeePProg/linux/../EeePProg.c **** 
 2060              		.loc 1 538 1 discriminator 3 view .LVU406
 2061 0e40 A4309FE5 		ldr	r3, .L155+4
 525:/home/hkh/git/eapidk-code-r76-trunk/apps/EeePProg/linux/../EeePProg.c ****   EApiStatus_t StatusCode=EAPI_STATUS_SUCCESS;
 2062              		.loc 1 525 1 discriminator 3 view .LVU407
 2063              	.LPIC123:
 2064 0e44 02208FE0 		add	r2, pc, r2
ARM GAS  /tmp/ccqui9DH.s 			page 54


 538:/home/hkh/git/eapidk-code-r76-trunk/apps/EeePProg/linux/../EeePProg.c **** 
 2065              		.loc 1 538 1 discriminator 3 view .LVU408
 2066 0e48 033092E7 		ldr	r3, [r2, r3]
 2067 0e4c 002093E5 		ldr	r2, [r3]
 2068 0e50 14309DE5 		ldr	r3, [sp, #20]
 2069 0e54 022033E0 		eors	r2, r3, r2
 2070 0e58 0030A0E3 		mov	r3, #0
 2071 0e5c 2000001A 		bne	.L154
 538:/home/hkh/git/eapidk-code-r76-trunk/apps/EeePProg/linux/../EeePProg.c **** 
 2072              		.loc 1 538 1 view .LVU409
 2073 0e60 0400A0E1 		mov	r0, r4
 2074 0e64 1CD08DE2 		add	sp, sp, #28
 2075              		.cfi_remember_state
 2076              		.cfi_def_cfa_offset 12
 2077              		@ sp needed
 2078 0e68 3080BDE8 		pop	{r4, r5, pc}
 2079              	.LVL152:
 2080              	.L152:
 2081              		.cfi_restore_state
 528:/home/hkh/git/eapidk-code-r76-trunk/apps/EeePProg/linux/../EeePProg.c ****           &BHandel, 
 2082              		.loc 1 528 3 is_stmt 1 discriminator 1 view .LVU410
 2083 0e6c 80109FE5 		ldr	r1, .L155+12
 2084 0e70 213EA0E3 		mov	r3, #528
 2085 0e74 7C009FE5 		ldr	r0, .L155+16
 2086              	.LVL153:
 528:/home/hkh/git/eapidk-code-r76-trunk/apps/EeePProg/linux/../EeePProg.c ****           &BHandel, 
 2087              		.loc 1 528 3 is_stmt 0 discriminator 1 view .LVU411
 2088 0e78 7C209FE5 		ldr	r2, .L155+20
 2089              	.LPIC118:
 2090 0e7c 01108FE0 		add	r1, pc, r1
 2091 0e80 00408DE5 		str	r4, [sp]
 2092 0e84 04108DE5 		str	r1, [sp, #4]
 2093              	.LPIC117:
 2094 0e88 00008FE0 		add	r0, pc, r0
 2095 0e8c 6C109FE5 		ldr	r1, .L155+24
 2096              	.LPIC115:
 2097 0e90 02208FE0 		add	r2, pc, r2
 2098 0e94 08008DE5 		str	r0, [sp, #8]
 2099 0e98 4500A0E3 		mov	r0, #69
 2100              	.LPIC116:
 2101 0e9c 01108FE0 		add	r1, pc, r1
 2102 0ea0 FEFFFFEB 		bl	siFormattedMessage_SC(PLT)
 2103              	.LVL154:
 528:/home/hkh/git/eapidk-code-r76-trunk/apps/EeePProg/linux/../EeePProg.c ****           &BHandel, 
 2104              		.loc 1 528 3 is_stmt 1 discriminator 1 view .LVU412
 2105 0ea4 E2FFFFEA 		b	.L146
 2106              	.LVL155:
 2107              	.L153:
 533:/home/hkh/git/eapidk-code-r76-trunk/apps/EeePProg/linux/../EeePProg.c **** 
 2108              		.loc 1 533 3 discriminator 1 view .LVU413
 2109 0ea8 54109FE5 		ldr	r1, .L155+28
 2110 0eac 153200E3 		movw	r3, #533
 2111 0eb0 50009FE5 		ldr	r0, .L155+32
 2112              	.LVL156:
 533:/home/hkh/git/eapidk-code-r76-trunk/apps/EeePProg/linux/../EeePProg.c **** 
 2113              		.loc 1 533 3 is_stmt 0 discriminator 1 view .LVU414
 2114 0eb4 50209FE5 		ldr	r2, .L155+36
ARM GAS  /tmp/ccqui9DH.s 			page 55


 2115              	.LPIC122:
 2116 0eb8 01108FE0 		add	r1, pc, r1
 2117 0ebc 00408DE5 		str	r4, [sp]
 2118 0ec0 04108DE5 		str	r1, [sp, #4]
 2119              	.LPIC121:
 2120 0ec4 00008FE0 		add	r0, pc, r0
 2121 0ec8 40109FE5 		ldr	r1, .L155+40
 2122              	.LPIC119:
 2123 0ecc 02208FE0 		add	r2, pc, r2
 2124 0ed0 08008DE5 		str	r0, [sp, #8]
 2125 0ed4 4500A0E3 		mov	r0, #69
 2126              	.LPIC120:
 2127 0ed8 01108FE0 		add	r1, pc, r1
 2128 0edc FEFFFFEB 		bl	siFormattedMessage_SC(PLT)
 2129              	.LVL157:
 533:/home/hkh/git/eapidk-code-r76-trunk/apps/EeePProg/linux/../EeePProg.c **** 
 2130              		.loc 1 533 3 is_stmt 1 discriminator 1 view .LVU415
 2131 0ee0 D3FFFFEA 		b	.L146
 2132              	.L154:
 538:/home/hkh/git/eapidk-code-r76-trunk/apps/EeePProg/linux/../EeePProg.c **** 
 2133              		.loc 1 538 1 is_stmt 0 view .LVU416
 2134 0ee4 FEFFFFEB 		bl	__stack_chk_fail(PLT)
 2135              	.LVL158:
 2136              	.L156:
 2137              		.align	2
 2138              	.L155:
 2139 0ee8 F4000000 		.word	_GLOBAL_OFFSET_TABLE_-(.LPIC124+8)
 2140 0eec 00000000 		.word	__stack_chk_guard(GOT)
 2141 0ef0 A4000000 		.word	_GLOBAL_OFFSET_TABLE_-(.LPIC123+8)
 2142 0ef4 70000000 		.word	.LC3-(.LPIC118+8)
 2143 0ef8 68000000 		.word	.LC27-(.LPIC117+8)
 2144 0efc 64000000 		.word	.LC0-(.LPIC115+8)
 2145 0f00 5C000000 		.word	.LC1-(.LPIC116+8)
 2146 0f04 44000000 		.word	.LC3-(.LPIC122+8)
 2147 0f08 3C000000 		.word	.LC28-(.LPIC121+8)
 2148 0f0c 38000000 		.word	.LC0-(.LPIC119+8)
 2149 0f10 30000000 		.word	.LC1-(.LPIC120+8)
 2150              		.cfi_endproc
 2151              	.LFE15:
 2153              		.align	2
 2154              		.global	CMD_ListDBlocks_IMG
 2155              		.syntax unified
 2156              		.arm
 2157              		.fpu vfpv3
 2159              	CMD_ListDBlocks_IMG:
 2160              	.LVL159:
 2161              	.LFB21:
 614:/home/hkh/git/eapidk-code-r76-trunk/apps/EeePProg/linux/../EeePProg.c **** 
 615:/home/hkh/git/eapidk-code-r76-trunk/apps/EeePProg/linux/../EeePProg.c **** EApiStatus_t 
 616:/home/hkh/git/eapidk-code-r76-trunk/apps/EeePProg/linux/../EeePProg.c **** CMD_ListDBlocks_IMG(
 617:/home/hkh/git/eapidk-code-r76-trunk/apps/EeePProg/linux/../EeePProg.c ****     void *pArgData
 618:/home/hkh/git/eapidk-code-r76-trunk/apps/EeePProg/linux/../EeePProg.c ****     )
 619:/home/hkh/git/eapidk-code-r76-trunk/apps/EeePProg/linux/../EeePProg.c **** {
 2162              		.loc 1 619 1 is_stmt 1 view -0
 2163              		.cfi_startproc
 2164              		@ args = 0, pretend = 0, frame = 8
 2165              		@ frame_needed = 0, uses_anonymous_args = 0
ARM GAS  /tmp/ccqui9DH.s 			page 56


 2166              		.loc 1 619 1 is_stmt 0 view .LVU418
 2167 0f14 04C19FE5 		ldr	ip, .L168
 620:/home/hkh/git/eapidk-code-r76-trunk/apps/EeePProg/linux/../EeePProg.c ****   EApiStatus_t StatusCode=EAPI_STATUS_SUCCESS;
 621:/home/hkh/git/eapidk-code-r76-trunk/apps/EeePProg/linux/../EeePProg.c ****   EeePHandel_t BHandel=NULL;
 2168              		.loc 1 621 16 view .LVU419
 2169 0f18 0030A0E3 		mov	r3, #0
 619:/home/hkh/git/eapidk-code-r76-trunk/apps/EeePProg/linux/../EeePProg.c ****   EApiStatus_t StatusCode=EAPI_STATUS_SUCCESS;
 2170              		.loc 1 619 1 view .LVU420
 2171 0f1c 00219FE5 		ldr	r2, .L168+4
 2172 0f20 30402DE9 		push	{r4, r5, lr}
 2173              		.cfi_def_cfa_offset 12
 2174              		.cfi_offset 4, -12
 2175              		.cfi_offset 5, -8
 2176              		.cfi_offset 14, -4
 2177 0f24 1CD04DE2 		sub	sp, sp, #28
 2178              		.cfi_def_cfa_offset 40
 619:/home/hkh/git/eapidk-code-r76-trunk/apps/EeePProg/linux/../EeePProg.c ****   EApiStatus_t StatusCode=EAPI_STATUS_SUCCESS;
 2179              		.loc 1 619 1 view .LVU421
 2180              	.LPIC134:
 2181 0f28 0CC08FE0 		add	ip, pc, ip
 622:/home/hkh/git/eapidk-code-r76-trunk/apps/EeePProg/linux/../EeePProg.c **** 
 623:/home/hkh/git/eapidk-code-r76-trunk/apps/EeePProg/linux/../EeePProg.c ****   DO(EeePReadBufferFromFile(
 2182              		.loc 1 623 3 view .LVU422
 2183 0f2c 10508DE2 		add	r5, sp, #16
 619:/home/hkh/git/eapidk-code-r76-trunk/apps/EeePProg/linux/../EeePProg.c ****   EApiStatus_t StatusCode=EAPI_STATUS_SUCCESS;
 2184              		.loc 1 619 1 view .LVU423
 2185 0f30 02209CE7 		ldr	r2, [ip, r2]
 2186              		.loc 1 623 3 view .LVU424
 2187 0f34 001090E5 		ldr	r1, [r0]
 2188 0f38 0500A0E1 		mov	r0, r5
 619:/home/hkh/git/eapidk-code-r76-trunk/apps/EeePProg/linux/../EeePProg.c ****   EApiStatus_t StatusCode=EAPI_STATUS_SUCCESS;
 2189              		.loc 1 619 1 view .LVU425
 2190 0f3c 002092E5 		ldr	r2, [r2]
 2191 0f40 14208DE5 		str	r2, [sp, #20]
 2192 0f44 0020A0E3 		mov	r2, #0
 620:/home/hkh/git/eapidk-code-r76-trunk/apps/EeePProg/linux/../EeePProg.c ****   EeePHandel_t BHandel=NULL;
 2193              		.loc 1 620 3 is_stmt 1 view .LVU426
 2194              	.LVL160:
 621:/home/hkh/git/eapidk-code-r76-trunk/apps/EeePProg/linux/../EeePProg.c **** 
 2195              		.loc 1 621 3 view .LVU427
 621:/home/hkh/git/eapidk-code-r76-trunk/apps/EeePProg/linux/../EeePProg.c **** 
 2196              		.loc 1 621 16 is_stmt 0 view .LVU428
 2197 0f48 10308DE5 		str	r3, [sp, #16]
 2198              		.loc 1 623 3 is_stmt 1 view .LVU429
 2199              		.loc 1 623 3 view .LVU430
 2200 0f4c FEFFFFEB 		bl	EeePReadBufferFromFile(PLT)
 2201              	.LVL161:
 2202              		.loc 1 623 3 view .LVU431
 2203 0f50 004050E2 		subs	r4, r0, #0
 2204 0f54 1200001A 		bne	.L165
 2205              		.loc 1 623 3 discriminator 2 view .LVU432
 624:/home/hkh/git/eapidk-code-r76-trunk/apps/EeePProg/linux/../EeePProg.c ****         &BHandel                              ,
 625:/home/hkh/git/eapidk-code-r76-trunk/apps/EeePProg/linux/../EeePProg.c ****         *(char**)pArgData
 626:/home/hkh/git/eapidk-code-r76-trunk/apps/EeePProg/linux/../EeePProg.c ****       ));
 627:/home/hkh/git/eapidk-code-r76-trunk/apps/EeePProg/linux/../EeePProg.c ****   DO(EeePListBlocks( BHandel, 0));
 2206              		.loc 1 627 3 discriminator 2 view .LVU433
 2207              		.loc 1 627 3 discriminator 2 view .LVU434
ARM GAS  /tmp/ccqui9DH.s 			page 57


 2208 0f58 0410A0E1 		mov	r1, r4
 2209 0f5c 10009DE5 		ldr	r0, [sp, #16]
 2210              	.LVL162:
 2211              		.loc 1 627 3 is_stmt 0 discriminator 2 view .LVU435
 2212 0f60 FEFFFFEB 		bl	EeePListBlocks(PLT)
 2213              	.LVL163:
 2214              		.loc 1 627 3 is_stmt 1 discriminator 2 view .LVU436
 2215 0f64 004050E2 		subs	r4, r0, #0
 2216 0f68 1C00001A 		bne	.L166
 2217              	.LVL164:
 2218              	.L159:
 2219              		.loc 1 627 3 discriminator 3 view .LVU437
 628:/home/hkh/git/eapidk-code-r76-trunk/apps/EeePProg/linux/../EeePProg.c **** 
 629:/home/hkh/git/eapidk-code-r76-trunk/apps/EeePProg/linux/../EeePProg.c **** EAPI_APP_ASSERT_EXIT
 630:/home/hkh/git/eapidk-code-r76-trunk/apps/EeePProg/linux/../EeePProg.c ****   EeePFreeBuffer(&BHandel);
 2220              		.loc 1 630 3 discriminator 3 view .LVU438
 2221 0f6c 0500A0E1 		mov	r0, r5
 2222 0f70 FEFFFFEB 		bl	EeePFreeBuffer(PLT)
 2223              	.LVL165:
 631:/home/hkh/git/eapidk-code-r76-trunk/apps/EeePProg/linux/../EeePProg.c ****   return StatusCode;
 2224              		.loc 1 631 3 discriminator 3 view .LVU439
 619:/home/hkh/git/eapidk-code-r76-trunk/apps/EeePProg/linux/../EeePProg.c ****   EApiStatus_t StatusCode=EAPI_STATUS_SUCCESS;
 2225              		.loc 1 619 1 is_stmt 0 discriminator 3 view .LVU440
 2226 0f74 AC209FE5 		ldr	r2, .L168+8
 632:/home/hkh/git/eapidk-code-r76-trunk/apps/EeePProg/linux/../EeePProg.c **** }
 2227              		.loc 1 632 1 discriminator 3 view .LVU441
 2228 0f78 A4309FE5 		ldr	r3, .L168+4
 619:/home/hkh/git/eapidk-code-r76-trunk/apps/EeePProg/linux/../EeePProg.c ****   EApiStatus_t StatusCode=EAPI_STATUS_SUCCESS;
 2229              		.loc 1 619 1 discriminator 3 view .LVU442
 2230              	.LPIC133:
 2231 0f7c 02208FE0 		add	r2, pc, r2
 2232              		.loc 1 632 1 discriminator 3 view .LVU443
 2233 0f80 033092E7 		ldr	r3, [r2, r3]
 2234 0f84 002093E5 		ldr	r2, [r3]
 2235 0f88 14309DE5 		ldr	r3, [sp, #20]
 2236 0f8c 022033E0 		eors	r2, r3, r2
 2237 0f90 0030A0E3 		mov	r3, #0
 2238 0f94 2000001A 		bne	.L167
 2239              		.loc 1 632 1 view .LVU444
 2240 0f98 0400A0E1 		mov	r0, r4
 2241 0f9c 1CD08DE2 		add	sp, sp, #28
 2242              		.cfi_remember_state
 2243              		.cfi_def_cfa_offset 12
 2244              		@ sp needed
 2245 0fa0 3080BDE8 		pop	{r4, r5, pc}
 2246              	.LVL166:
 2247              	.L165:
 2248              		.cfi_restore_state
 623:/home/hkh/git/eapidk-code-r76-trunk/apps/EeePProg/linux/../EeePProg.c ****         &BHandel                              ,
 2249              		.loc 1 623 3 is_stmt 1 discriminator 1 view .LVU445
 2250 0fa4 80109FE5 		ldr	r1, .L168+12
 2251 0fa8 6F3200E3 		movw	r3, #623
 2252 0fac 7C009FE5 		ldr	r0, .L168+16
 2253              	.LVL167:
 623:/home/hkh/git/eapidk-code-r76-trunk/apps/EeePProg/linux/../EeePProg.c ****         &BHandel                              ,
 2254              		.loc 1 623 3 is_stmt 0 discriminator 1 view .LVU446
 2255 0fb0 7C209FE5 		ldr	r2, .L168+20
ARM GAS  /tmp/ccqui9DH.s 			page 58


 2256              	.LPIC128:
 2257 0fb4 01108FE0 		add	r1, pc, r1
 2258 0fb8 00408DE5 		str	r4, [sp]
 2259 0fbc 04108DE5 		str	r1, [sp, #4]
 2260              	.LPIC127:
 2261 0fc0 00008FE0 		add	r0, pc, r0
 2262 0fc4 6C109FE5 		ldr	r1, .L168+24
 2263              	.LPIC125:
 2264 0fc8 02208FE0 		add	r2, pc, r2
 2265 0fcc 08008DE5 		str	r0, [sp, #8]
 2266 0fd0 4500A0E3 		mov	r0, #69
 2267              	.LPIC126:
 2268 0fd4 01108FE0 		add	r1, pc, r1
 2269 0fd8 FEFFFFEB 		bl	siFormattedMessage_SC(PLT)
 2270              	.LVL168:
 623:/home/hkh/git/eapidk-code-r76-trunk/apps/EeePProg/linux/../EeePProg.c ****         &BHandel                              ,
 2271              		.loc 1 623 3 is_stmt 1 discriminator 1 view .LVU447
 2272 0fdc E2FFFFEA 		b	.L159
 2273              	.LVL169:
 2274              	.L166:
 627:/home/hkh/git/eapidk-code-r76-trunk/apps/EeePProg/linux/../EeePProg.c **** 
 2275              		.loc 1 627 3 discriminator 1 view .LVU448
 2276 0fe0 54109FE5 		ldr	r1, .L168+28
 2277 0fe4 733200E3 		movw	r3, #627
 2278 0fe8 50009FE5 		ldr	r0, .L168+32
 2279              	.LVL170:
 627:/home/hkh/git/eapidk-code-r76-trunk/apps/EeePProg/linux/../EeePProg.c **** 
 2280              		.loc 1 627 3 is_stmt 0 discriminator 1 view .LVU449
 2281 0fec 50209FE5 		ldr	r2, .L168+36
 2282              	.LPIC132:
 2283 0ff0 01108FE0 		add	r1, pc, r1
 2284 0ff4 00408DE5 		str	r4, [sp]
 2285 0ff8 04108DE5 		str	r1, [sp, #4]
 2286              	.LPIC131:
 2287 0ffc 00008FE0 		add	r0, pc, r0
 2288 1000 40109FE5 		ldr	r1, .L168+40
 2289              	.LPIC129:
 2290 1004 02208FE0 		add	r2, pc, r2
 2291 1008 08008DE5 		str	r0, [sp, #8]
 2292 100c 4500A0E3 		mov	r0, #69
 2293              	.LPIC130:
 2294 1010 01108FE0 		add	r1, pc, r1
 2295 1014 FEFFFFEB 		bl	siFormattedMessage_SC(PLT)
 2296              	.LVL171:
 627:/home/hkh/git/eapidk-code-r76-trunk/apps/EeePProg/linux/../EeePProg.c **** 
 2297              		.loc 1 627 3 is_stmt 1 discriminator 1 view .LVU450
 2298 1018 D3FFFFEA 		b	.L159
 2299              	.L167:
 2300              		.loc 1 632 1 is_stmt 0 view .LVU451
 2301 101c FEFFFFEB 		bl	__stack_chk_fail(PLT)
 2302              	.LVL172:
 2303              	.L169:
 2304              		.align	2
 2305              	.L168:
 2306 1020 F0000000 		.word	_GLOBAL_OFFSET_TABLE_-(.LPIC134+8)
 2307 1024 00000000 		.word	__stack_chk_guard(GOT)
 2308 1028 A4000000 		.word	_GLOBAL_OFFSET_TABLE_-(.LPIC133+8)
ARM GAS  /tmp/ccqui9DH.s 			page 59


 2309 102c 70000000 		.word	.LC3-(.LPIC128+8)
 2310 1030 68000000 		.word	.LC9-(.LPIC127+8)
 2311 1034 64000000 		.word	.LC0-(.LPIC125+8)
 2312 1038 5C000000 		.word	.LC1-(.LPIC126+8)
 2313 103c 44000000 		.word	.LC3-(.LPIC132+8)
 2314 1040 3C000000 		.word	.LC28-(.LPIC131+8)
 2315 1044 38000000 		.word	.LC0-(.LPIC129+8)
 2316 1048 30000000 		.word	.LC1-(.LPIC130+8)
 2317              		.cfi_endproc
 2318              	.LFE21:
 2320              		.align	2
 2321              		.global	CMD_ListDBlocksCOM0R20_CB_EEP
 2322              		.syntax unified
 2323              		.arm
 2324              		.fpu vfpv3
 2326              	CMD_ListDBlocksCOM0R20_CB_EEP:
 2327              	.LVL173:
 2328              	.LFB16:
 545:/home/hkh/git/eapidk-code-r76-trunk/apps/EeePProg/linux/../EeePProg.c ****   I2CAddrCfg_t DevDesc={EAPI_ID_I2C_EXTERNAL, COM0R20_CB_EEP_DEV_ADDR};
 2329              		.loc 1 545 1 is_stmt 1 view -0
 2330              		.cfi_startproc
 2331              		@ args = 0, pretend = 0, frame = 8
 2332              		@ frame_needed = 0, uses_anonymous_args = 0
 545:/home/hkh/git/eapidk-code-r76-trunk/apps/EeePProg/linux/../EeePProg.c ****   I2CAddrCfg_t DevDesc={EAPI_ID_I2C_EXTERNAL, COM0R20_CB_EEP_DEV_ADDR};
 2333              		.loc 1 545 1 is_stmt 0 view .LVU453
 2334 104c 04C19FE5 		ldr	ip, .L181
 2335              	.LBB4:
 2336              	.LBB5:
 527:/home/hkh/git/eapidk-code-r76-trunk/apps/EeePProg/linux/../EeePProg.c ****   DO(EeePReadBufferFromEEP(
 2337              		.loc 1 527 16 view .LVU454
 2338 1050 0010A0E3 		mov	r1, #0
 2339              	.LBE5:
 2340              	.LBE4:
 545:/home/hkh/git/eapidk-code-r76-trunk/apps/EeePProg/linux/../EeePProg.c ****   I2CAddrCfg_t DevDesc={EAPI_ID_I2C_EXTERNAL, COM0R20_CB_EEP_DEV_ADDR};
 2341              		.loc 1 545 1 view .LVU455
 2342 1054 00319FE5 		ldr	r3, .L181+4
 2343              	.LBB10:
 2344              	.LBB6:
 528:/home/hkh/git/eapidk-code-r76-trunk/apps/EeePProg/linux/../EeePProg.c ****           &BHandel, 
 2345              		.loc 1 528 3 view .LVU456
 2346 1058 AE20A0E3 		mov	r2, #174
 2347              	.LBE6:
 2348              	.LBE10:
 545:/home/hkh/git/eapidk-code-r76-trunk/apps/EeePProg/linux/../EeePProg.c ****   I2CAddrCfg_t DevDesc={EAPI_ID_I2C_EXTERNAL, COM0R20_CB_EEP_DEV_ADDR};
 2349              		.loc 1 545 1 view .LVU457
 2350 105c 30402DE9 		push	{r4, r5, lr}
 2351              		.cfi_def_cfa_offset 12
 2352              		.cfi_offset 4, -12
 2353              		.cfi_offset 5, -8
 2354              		.cfi_offset 14, -4
 2355 1060 1CD04DE2 		sub	sp, sp, #28
 2356              		.cfi_def_cfa_offset 40
 545:/home/hkh/git/eapidk-code-r76-trunk/apps/EeePProg/linux/../EeePProg.c ****   I2CAddrCfg_t DevDesc={EAPI_ID_I2C_EXTERNAL, COM0R20_CB_EEP_DEV_ADDR};
 2357              		.loc 1 545 1 view .LVU458
 2358              	.LPIC144:
 2359 1064 0CC08FE0 		add	ip, pc, ip
 2360              	.LBB11:
ARM GAS  /tmp/ccqui9DH.s 			page 60


 2361              	.LBB7:
 528:/home/hkh/git/eapidk-code-r76-trunk/apps/EeePProg/linux/../EeePProg.c ****           &BHandel, 
 2362              		.loc 1 528 3 view .LVU459
 2363 1068 10508DE2 		add	r5, sp, #16
 2364 106c 0500A0E1 		mov	r0, r5
 2365              	.LBE7:
 2366              	.LBE11:
 545:/home/hkh/git/eapidk-code-r76-trunk/apps/EeePProg/linux/../EeePProg.c ****   I2CAddrCfg_t DevDesc={EAPI_ID_I2C_EXTERNAL, COM0R20_CB_EEP_DEV_ADDR};
 2367              		.loc 1 545 1 view .LVU460
 2368 1070 03309CE7 		ldr	r3, [ip, r3]
 2369 1074 003093E5 		ldr	r3, [r3]
 2370 1078 14308DE5 		str	r3, [sp, #20]
 2371 107c 0030A0E3 		mov	r3, #0
 546:/home/hkh/git/eapidk-code-r76-trunk/apps/EeePProg/linux/../EeePProg.c ****   pArgData=pArgData;
 2372              		.loc 1 546 3 is_stmt 1 view .LVU461
 547:/home/hkh/git/eapidk-code-r76-trunk/apps/EeePProg/linux/../EeePProg.c ****   return CMD_ListDBlocksEeePExt_EEP(&DevDesc);
 2373              		.loc 1 547 3 view .LVU462
 548:/home/hkh/git/eapidk-code-r76-trunk/apps/EeePProg/linux/../EeePProg.c **** }
 2374              		.loc 1 548 3 view .LVU463
 2375              	.LVL174:
 2376              	.LBB12:
 2377              	.LBI4:
 522:/home/hkh/git/eapidk-code-r76-trunk/apps/EeePProg/linux/../EeePProg.c ****     void *pArgData
 2378              		.loc 1 522 1 view .LVU464
 2379              	.LBB8:
 526:/home/hkh/git/eapidk-code-r76-trunk/apps/EeePProg/linux/../EeePProg.c ****   EeePHandel_t BHandel=NULL;
 2380              		.loc 1 526 3 view .LVU465
 527:/home/hkh/git/eapidk-code-r76-trunk/apps/EeePProg/linux/../EeePProg.c ****   DO(EeePReadBufferFromEEP(
 2381              		.loc 1 527 3 view .LVU466
 527:/home/hkh/git/eapidk-code-r76-trunk/apps/EeePProg/linux/../EeePProg.c ****   DO(EeePReadBufferFromEEP(
 2382              		.loc 1 527 16 is_stmt 0 view .LVU467
 2383 1080 10108DE5 		str	r1, [sp, #16]
 528:/home/hkh/git/eapidk-code-r76-trunk/apps/EeePProg/linux/../EeePProg.c ****           &BHandel, 
 2384              		.loc 1 528 3 is_stmt 1 view .LVU468
 528:/home/hkh/git/eapidk-code-r76-trunk/apps/EeePProg/linux/../EeePProg.c ****           &BHandel, 
 2385              		.loc 1 528 3 view .LVU469
 2386 1084 FEFFFFEB 		bl	EeePReadBufferFromEEP(PLT)
 2387              	.LVL175:
 528:/home/hkh/git/eapidk-code-r76-trunk/apps/EeePProg/linux/../EeePProg.c ****           &BHandel, 
 2388              		.loc 1 528 3 view .LVU470
 2389 1088 004050E2 		subs	r4, r0, #0
 2390 108c 1200001A 		bne	.L178
 528:/home/hkh/git/eapidk-code-r76-trunk/apps/EeePProg/linux/../EeePProg.c ****           &BHandel, 
 2391              		.loc 1 528 3 view .LVU471
 533:/home/hkh/git/eapidk-code-r76-trunk/apps/EeePProg/linux/../EeePProg.c **** 
 2392              		.loc 1 533 3 view .LVU472
 533:/home/hkh/git/eapidk-code-r76-trunk/apps/EeePProg/linux/../EeePProg.c **** 
 2393              		.loc 1 533 3 view .LVU473
 2394 1090 0410A0E1 		mov	r1, r4
 2395 1094 10009DE5 		ldr	r0, [sp, #16]
 2396              	.LVL176:
 533:/home/hkh/git/eapidk-code-r76-trunk/apps/EeePProg/linux/../EeePProg.c **** 
 2397              		.loc 1 533 3 is_stmt 0 view .LVU474
 2398 1098 FEFFFFEB 		bl	EeePListBlocks(PLT)
 2399              	.LVL177:
 533:/home/hkh/git/eapidk-code-r76-trunk/apps/EeePProg/linux/../EeePProg.c **** 
 2400              		.loc 1 533 3 is_stmt 1 view .LVU475
ARM GAS  /tmp/ccqui9DH.s 			page 61


 2401 109c 004050E2 		subs	r4, r0, #0
 2402 10a0 1C00001A 		bne	.L179
 2403              	.LVL178:
 2404              	.L172:
 533:/home/hkh/git/eapidk-code-r76-trunk/apps/EeePProg/linux/../EeePProg.c **** 
 2405              		.loc 1 533 3 view .LVU476
 536:/home/hkh/git/eapidk-code-r76-trunk/apps/EeePProg/linux/../EeePProg.c ****   return StatusCode;
 2406              		.loc 1 536 3 view .LVU477
 2407 10a4 0500A0E1 		mov	r0, r5
 2408 10a8 FEFFFFEB 		bl	EeePFreeBuffer(PLT)
 2409              	.LVL179:
 537:/home/hkh/git/eapidk-code-r76-trunk/apps/EeePProg/linux/../EeePProg.c **** }
 2410              		.loc 1 537 3 view .LVU478
 537:/home/hkh/git/eapidk-code-r76-trunk/apps/EeePProg/linux/../EeePProg.c **** }
 2411              		.loc 1 537 3 is_stmt 0 view .LVU479
 2412              	.LBE8:
 2413              	.LBE12:
 545:/home/hkh/git/eapidk-code-r76-trunk/apps/EeePProg/linux/../EeePProg.c ****   I2CAddrCfg_t DevDesc={EAPI_ID_I2C_EXTERNAL, COM0R20_CB_EEP_DEV_ADDR};
 2414              		.loc 1 545 1 view .LVU480
 2415 10ac AC209FE5 		ldr	r2, .L181+8
 549:/home/hkh/git/eapidk-code-r76-trunk/apps/EeePProg/linux/../EeePProg.c **** EApiStatus_t 
 2416              		.loc 1 549 1 view .LVU481
 2417 10b0 A4309FE5 		ldr	r3, .L181+4
 545:/home/hkh/git/eapidk-code-r76-trunk/apps/EeePProg/linux/../EeePProg.c ****   I2CAddrCfg_t DevDesc={EAPI_ID_I2C_EXTERNAL, COM0R20_CB_EEP_DEV_ADDR};
 2418              		.loc 1 545 1 view .LVU482
 2419              	.LPIC143:
 2420 10b4 02208FE0 		add	r2, pc, r2
 549:/home/hkh/git/eapidk-code-r76-trunk/apps/EeePProg/linux/../EeePProg.c **** EApiStatus_t 
 2421              		.loc 1 549 1 view .LVU483
 2422 10b8 033092E7 		ldr	r3, [r2, r3]
 2423 10bc 002093E5 		ldr	r2, [r3]
 2424 10c0 14309DE5 		ldr	r3, [sp, #20]
 2425 10c4 022033E0 		eors	r2, r3, r2
 2426 10c8 0030A0E3 		mov	r3, #0
 2427 10cc 2000001A 		bne	.L180
 2428 10d0 0400A0E1 		mov	r0, r4
 2429 10d4 1CD08DE2 		add	sp, sp, #28
 2430              		.cfi_remember_state
 2431              		.cfi_def_cfa_offset 12
 2432              		@ sp needed
 2433 10d8 3080BDE8 		pop	{r4, r5, pc}
 2434              	.LVL180:
 2435              	.L178:
 2436              		.cfi_restore_state
 2437              	.LBB13:
 2438              	.LBB9:
 528:/home/hkh/git/eapidk-code-r76-trunk/apps/EeePProg/linux/../EeePProg.c ****           &BHandel, 
 2439              		.loc 1 528 3 is_stmt 1 view .LVU484
 2440 10dc 80109FE5 		ldr	r1, .L181+12
 2441 10e0 213EA0E3 		mov	r3, #528
 2442 10e4 7C009FE5 		ldr	r0, .L181+16
 2443              	.LVL181:
 528:/home/hkh/git/eapidk-code-r76-trunk/apps/EeePProg/linux/../EeePProg.c ****           &BHandel, 
 2444              		.loc 1 528 3 is_stmt 0 view .LVU485
 2445 10e8 7C209FE5 		ldr	r2, .L181+20
 2446              	.LPIC138:
 2447 10ec 01108FE0 		add	r1, pc, r1
ARM GAS  /tmp/ccqui9DH.s 			page 62


 2448 10f0 00408DE5 		str	r4, [sp]
 2449 10f4 04108DE5 		str	r1, [sp, #4]
 2450              	.LPIC137:
 2451 10f8 00008FE0 		add	r0, pc, r0
 2452 10fc 6C109FE5 		ldr	r1, .L181+24
 2453              	.LPIC135:
 2454 1100 02208FE0 		add	r2, pc, r2
 2455 1104 08008DE5 		str	r0, [sp, #8]
 2456 1108 4500A0E3 		mov	r0, #69
 2457              	.LPIC136:
 2458 110c 01108FE0 		add	r1, pc, r1
 2459 1110 FEFFFFEB 		bl	siFormattedMessage_SC(PLT)
 2460              	.LVL182:
 528:/home/hkh/git/eapidk-code-r76-trunk/apps/EeePProg/linux/../EeePProg.c ****           &BHandel, 
 2461              		.loc 1 528 3 is_stmt 1 view .LVU486
 2462 1114 E2FFFFEA 		b	.L172
 2463              	.LVL183:
 2464              	.L179:
 533:/home/hkh/git/eapidk-code-r76-trunk/apps/EeePProg/linux/../EeePProg.c **** 
 2465              		.loc 1 533 3 view .LVU487
 2466 1118 54109FE5 		ldr	r1, .L181+28
 2467 111c 153200E3 		movw	r3, #533
 2468 1120 50009FE5 		ldr	r0, .L181+32
 2469              	.LVL184:
 533:/home/hkh/git/eapidk-code-r76-trunk/apps/EeePProg/linux/../EeePProg.c **** 
 2470              		.loc 1 533 3 is_stmt 0 view .LVU488
 2471 1124 50209FE5 		ldr	r2, .L181+36
 2472              	.LPIC142:
 2473 1128 01108FE0 		add	r1, pc, r1
 2474 112c 00408DE5 		str	r4, [sp]
 2475 1130 04108DE5 		str	r1, [sp, #4]
 2476              	.LPIC141:
 2477 1134 00008FE0 		add	r0, pc, r0
 2478 1138 40109FE5 		ldr	r1, .L181+40
 2479              	.LPIC139:
 2480 113c 02208FE0 		add	r2, pc, r2
 2481 1140 08008DE5 		str	r0, [sp, #8]
 2482 1144 4500A0E3 		mov	r0, #69
 2483              	.LPIC140:
 2484 1148 01108FE0 		add	r1, pc, r1
 2485 114c FEFFFFEB 		bl	siFormattedMessage_SC(PLT)
 2486              	.LVL185:
 533:/home/hkh/git/eapidk-code-r76-trunk/apps/EeePProg/linux/../EeePProg.c **** 
 2487              		.loc 1 533 3 is_stmt 1 view .LVU489
 2488 1150 D3FFFFEA 		b	.L172
 2489              	.LVL186:
 2490              	.L180:
 533:/home/hkh/git/eapidk-code-r76-trunk/apps/EeePProg/linux/../EeePProg.c **** 
 2491              		.loc 1 533 3 is_stmt 0 view .LVU490
 2492              	.LBE9:
 2493              	.LBE13:
 549:/home/hkh/git/eapidk-code-r76-trunk/apps/EeePProg/linux/../EeePProg.c **** EApiStatus_t 
 2494              		.loc 1 549 1 view .LVU491
 2495 1154 FEFFFFEB 		bl	__stack_chk_fail(PLT)
 2496              	.LVL187:
 2497              	.L182:
 2498              		.align	2
ARM GAS  /tmp/ccqui9DH.s 			page 63


 2499              	.L181:
 2500 1158 EC000000 		.word	_GLOBAL_OFFSET_TABLE_-(.LPIC144+8)
 2501 115c 00000000 		.word	__stack_chk_guard(GOT)
 2502 1160 A4000000 		.word	_GLOBAL_OFFSET_TABLE_-(.LPIC143+8)
 2503 1164 70000000 		.word	.LC3-(.LPIC138+8)
 2504 1168 68000000 		.word	.LC27-(.LPIC137+8)
 2505 116c 64000000 		.word	.LC0-(.LPIC135+8)
 2506 1170 5C000000 		.word	.LC1-(.LPIC136+8)
 2507 1174 44000000 		.word	.LC3-(.LPIC142+8)
 2508 1178 3C000000 		.word	.LC28-(.LPIC141+8)
 2509 117c 38000000 		.word	.LC0-(.LPIC139+8)
 2510 1180 30000000 		.word	.LC1-(.LPIC140+8)
 2511              		.cfi_endproc
 2512              	.LFE16:
 2514              		.align	2
 2515              		.global	CMD_ListDBlocksCOM0R20_M_EEP
 2516              		.syntax unified
 2517              		.arm
 2518              		.fpu vfpv3
 2520              	CMD_ListDBlocksCOM0R20_M_EEP:
 2521              	.LVL188:
 2522              	.LFB17:
 554:/home/hkh/git/eapidk-code-r76-trunk/apps/EeePProg/linux/../EeePProg.c ****   I2CAddrCfg_t DevDesc={EAPI_ID_I2C_EXTERNAL, COM0R20_M_EEP_DEV_ADDR};
 2523              		.loc 1 554 1 is_stmt 1 view -0
 2524              		.cfi_startproc
 2525              		@ args = 0, pretend = 0, frame = 8
 2526              		@ frame_needed = 0, uses_anonymous_args = 0
 554:/home/hkh/git/eapidk-code-r76-trunk/apps/EeePProg/linux/../EeePProg.c ****   I2CAddrCfg_t DevDesc={EAPI_ID_I2C_EXTERNAL, COM0R20_M_EEP_DEV_ADDR};
 2527              		.loc 1 554 1 is_stmt 0 view .LVU493
 2528 1184 04C19FE5 		ldr	ip, .L194
 2529              	.LBB16:
 2530              	.LBB17:
 527:/home/hkh/git/eapidk-code-r76-trunk/apps/EeePProg/linux/../EeePProg.c ****   DO(EeePReadBufferFromEEP(
 2531              		.loc 1 527 16 view .LVU494
 2532 1188 0010A0E3 		mov	r1, #0
 2533              	.LBE17:
 2534              	.LBE16:
 554:/home/hkh/git/eapidk-code-r76-trunk/apps/EeePProg/linux/../EeePProg.c ****   I2CAddrCfg_t DevDesc={EAPI_ID_I2C_EXTERNAL, COM0R20_M_EEP_DEV_ADDR};
 2535              		.loc 1 554 1 view .LVU495
 2536 118c 00319FE5 		ldr	r3, .L194+4
 2537              	.LBB22:
 2538              	.LBB18:
 528:/home/hkh/git/eapidk-code-r76-trunk/apps/EeePProg/linux/../EeePProg.c ****           &BHandel, 
 2539              		.loc 1 528 3 view .LVU496
 2540 1190 A020A0E3 		mov	r2, #160
 2541              	.LBE18:
 2542              	.LBE22:
 554:/home/hkh/git/eapidk-code-r76-trunk/apps/EeePProg/linux/../EeePProg.c ****   I2CAddrCfg_t DevDesc={EAPI_ID_I2C_EXTERNAL, COM0R20_M_EEP_DEV_ADDR};
 2543              		.loc 1 554 1 view .LVU497
 2544 1194 30402DE9 		push	{r4, r5, lr}
 2545              		.cfi_def_cfa_offset 12
 2546              		.cfi_offset 4, -12
 2547              		.cfi_offset 5, -8
 2548              		.cfi_offset 14, -4
 2549 1198 1CD04DE2 		sub	sp, sp, #28
 2550              		.cfi_def_cfa_offset 40
 554:/home/hkh/git/eapidk-code-r76-trunk/apps/EeePProg/linux/../EeePProg.c ****   I2CAddrCfg_t DevDesc={EAPI_ID_I2C_EXTERNAL, COM0R20_M_EEP_DEV_ADDR};
ARM GAS  /tmp/ccqui9DH.s 			page 64


 2551              		.loc 1 554 1 view .LVU498
 2552              	.LPIC154:
 2553 119c 0CC08FE0 		add	ip, pc, ip
 2554              	.LBB23:
 2555              	.LBB19:
 528:/home/hkh/git/eapidk-code-r76-trunk/apps/EeePProg/linux/../EeePProg.c ****           &BHandel, 
 2556              		.loc 1 528 3 view .LVU499
 2557 11a0 10508DE2 		add	r5, sp, #16
 2558 11a4 0500A0E1 		mov	r0, r5
 2559              	.LBE19:
 2560              	.LBE23:
 554:/home/hkh/git/eapidk-code-r76-trunk/apps/EeePProg/linux/../EeePProg.c ****   I2CAddrCfg_t DevDesc={EAPI_ID_I2C_EXTERNAL, COM0R20_M_EEP_DEV_ADDR};
 2561              		.loc 1 554 1 view .LVU500
 2562 11a8 03309CE7 		ldr	r3, [ip, r3]
 2563 11ac 003093E5 		ldr	r3, [r3]
 2564 11b0 14308DE5 		str	r3, [sp, #20]
 2565 11b4 0030A0E3 		mov	r3, #0
 555:/home/hkh/git/eapidk-code-r76-trunk/apps/EeePProg/linux/../EeePProg.c ****   pArgData=pArgData;
 2566              		.loc 1 555 3 is_stmt 1 view .LVU501
 556:/home/hkh/git/eapidk-code-r76-trunk/apps/EeePProg/linux/../EeePProg.c ****   return CMD_ListDBlocksEeePExt_EEP(&DevDesc);
 2567              		.loc 1 556 3 view .LVU502
 557:/home/hkh/git/eapidk-code-r76-trunk/apps/EeePProg/linux/../EeePProg.c **** }
 2568              		.loc 1 557 3 view .LVU503
 2569              	.LVL189:
 2570              	.LBB24:
 2571              	.LBI16:
 522:/home/hkh/git/eapidk-code-r76-trunk/apps/EeePProg/linux/../EeePProg.c ****     void *pArgData
 2572              		.loc 1 522 1 view .LVU504
 2573              	.LBB20:
 526:/home/hkh/git/eapidk-code-r76-trunk/apps/EeePProg/linux/../EeePProg.c ****   EeePHandel_t BHandel=NULL;
 2574              		.loc 1 526 3 view .LVU505
 527:/home/hkh/git/eapidk-code-r76-trunk/apps/EeePProg/linux/../EeePProg.c ****   DO(EeePReadBufferFromEEP(
 2575              		.loc 1 527 3 view .LVU506
 527:/home/hkh/git/eapidk-code-r76-trunk/apps/EeePProg/linux/../EeePProg.c ****   DO(EeePReadBufferFromEEP(
 2576              		.loc 1 527 16 is_stmt 0 view .LVU507
 2577 11b8 10108DE5 		str	r1, [sp, #16]
 528:/home/hkh/git/eapidk-code-r76-trunk/apps/EeePProg/linux/../EeePProg.c ****           &BHandel, 
 2578              		.loc 1 528 3 is_stmt 1 view .LVU508
 528:/home/hkh/git/eapidk-code-r76-trunk/apps/EeePProg/linux/../EeePProg.c ****           &BHandel, 
 2579              		.loc 1 528 3 view .LVU509
 2580 11bc FEFFFFEB 		bl	EeePReadBufferFromEEP(PLT)
 2581              	.LVL190:
 528:/home/hkh/git/eapidk-code-r76-trunk/apps/EeePProg/linux/../EeePProg.c ****           &BHandel, 
 2582              		.loc 1 528 3 view .LVU510
 2583 11c0 004050E2 		subs	r4, r0, #0
 2584 11c4 1200001A 		bne	.L191
 528:/home/hkh/git/eapidk-code-r76-trunk/apps/EeePProg/linux/../EeePProg.c ****           &BHandel, 
 2585              		.loc 1 528 3 view .LVU511
 533:/home/hkh/git/eapidk-code-r76-trunk/apps/EeePProg/linux/../EeePProg.c **** 
 2586              		.loc 1 533 3 view .LVU512
 533:/home/hkh/git/eapidk-code-r76-trunk/apps/EeePProg/linux/../EeePProg.c **** 
 2587              		.loc 1 533 3 view .LVU513
 2588 11c8 0410A0E1 		mov	r1, r4
 2589 11cc 10009DE5 		ldr	r0, [sp, #16]
 2590              	.LVL191:
 533:/home/hkh/git/eapidk-code-r76-trunk/apps/EeePProg/linux/../EeePProg.c **** 
 2591              		.loc 1 533 3 is_stmt 0 view .LVU514
ARM GAS  /tmp/ccqui9DH.s 			page 65


 2592 11d0 FEFFFFEB 		bl	EeePListBlocks(PLT)
 2593              	.LVL192:
 533:/home/hkh/git/eapidk-code-r76-trunk/apps/EeePProg/linux/../EeePProg.c **** 
 2594              		.loc 1 533 3 is_stmt 1 view .LVU515
 2595 11d4 004050E2 		subs	r4, r0, #0
 2596 11d8 1C00001A 		bne	.L192
 2597              	.LVL193:
 2598              	.L185:
 533:/home/hkh/git/eapidk-code-r76-trunk/apps/EeePProg/linux/../EeePProg.c **** 
 2599              		.loc 1 533 3 view .LVU516
 536:/home/hkh/git/eapidk-code-r76-trunk/apps/EeePProg/linux/../EeePProg.c ****   return StatusCode;
 2600              		.loc 1 536 3 view .LVU517
 2601 11dc 0500A0E1 		mov	r0, r5
 2602 11e0 FEFFFFEB 		bl	EeePFreeBuffer(PLT)
 2603              	.LVL194:
 537:/home/hkh/git/eapidk-code-r76-trunk/apps/EeePProg/linux/../EeePProg.c **** }
 2604              		.loc 1 537 3 view .LVU518
 537:/home/hkh/git/eapidk-code-r76-trunk/apps/EeePProg/linux/../EeePProg.c **** }
 2605              		.loc 1 537 3 is_stmt 0 view .LVU519
 2606              	.LBE20:
 2607              	.LBE24:
 554:/home/hkh/git/eapidk-code-r76-trunk/apps/EeePProg/linux/../EeePProg.c ****   I2CAddrCfg_t DevDesc={EAPI_ID_I2C_EXTERNAL, COM0R20_M_EEP_DEV_ADDR};
 2608              		.loc 1 554 1 view .LVU520
 2609 11e4 AC209FE5 		ldr	r2, .L194+8
 558:/home/hkh/git/eapidk-code-r76-trunk/apps/EeePProg/linux/../EeePProg.c **** 
 2610              		.loc 1 558 1 view .LVU521
 2611 11e8 A4309FE5 		ldr	r3, .L194+4
 554:/home/hkh/git/eapidk-code-r76-trunk/apps/EeePProg/linux/../EeePProg.c ****   I2CAddrCfg_t DevDesc={EAPI_ID_I2C_EXTERNAL, COM0R20_M_EEP_DEV_ADDR};
 2612              		.loc 1 554 1 view .LVU522
 2613              	.LPIC153:
 2614 11ec 02208FE0 		add	r2, pc, r2
 558:/home/hkh/git/eapidk-code-r76-trunk/apps/EeePProg/linux/../EeePProg.c **** 
 2615              		.loc 1 558 1 view .LVU523
 2616 11f0 033092E7 		ldr	r3, [r2, r3]
 2617 11f4 002093E5 		ldr	r2, [r3]
 2618 11f8 14309DE5 		ldr	r3, [sp, #20]
 2619 11fc 022033E0 		eors	r2, r3, r2
 2620 1200 0030A0E3 		mov	r3, #0
 2621 1204 2000001A 		bne	.L193
 2622 1208 0400A0E1 		mov	r0, r4
 2623 120c 1CD08DE2 		add	sp, sp, #28
 2624              		.cfi_remember_state
 2625              		.cfi_def_cfa_offset 12
 2626              		@ sp needed
 2627 1210 3080BDE8 		pop	{r4, r5, pc}
 2628              	.LVL195:
 2629              	.L191:
 2630              		.cfi_restore_state
 2631              	.LBB25:
 2632              	.LBB21:
 528:/home/hkh/git/eapidk-code-r76-trunk/apps/EeePProg/linux/../EeePProg.c ****           &BHandel, 
 2633              		.loc 1 528 3 is_stmt 1 view .LVU524
 2634 1214 80109FE5 		ldr	r1, .L194+12
 2635 1218 213EA0E3 		mov	r3, #528
 2636 121c 7C009FE5 		ldr	r0, .L194+16
 2637              	.LVL196:
 528:/home/hkh/git/eapidk-code-r76-trunk/apps/EeePProg/linux/../EeePProg.c ****           &BHandel, 
ARM GAS  /tmp/ccqui9DH.s 			page 66


 2638              		.loc 1 528 3 is_stmt 0 view .LVU525
 2639 1220 7C209FE5 		ldr	r2, .L194+20
 2640              	.LPIC148:
 2641 1224 01108FE0 		add	r1, pc, r1
 2642 1228 00408DE5 		str	r4, [sp]
 2643 122c 04108DE5 		str	r1, [sp, #4]
 2644              	.LPIC147:
 2645 1230 00008FE0 		add	r0, pc, r0
 2646 1234 6C109FE5 		ldr	r1, .L194+24
 2647              	.LPIC145:
 2648 1238 02208FE0 		add	r2, pc, r2
 2649 123c 08008DE5 		str	r0, [sp, #8]
 2650 1240 4500A0E3 		mov	r0, #69
 2651              	.LPIC146:
 2652 1244 01108FE0 		add	r1, pc, r1
 2653 1248 FEFFFFEB 		bl	siFormattedMessage_SC(PLT)
 2654              	.LVL197:
 528:/home/hkh/git/eapidk-code-r76-trunk/apps/EeePProg/linux/../EeePProg.c ****           &BHandel, 
 2655              		.loc 1 528 3 is_stmt 1 view .LVU526
 2656 124c E2FFFFEA 		b	.L185
 2657              	.LVL198:
 2658              	.L192:
 533:/home/hkh/git/eapidk-code-r76-trunk/apps/EeePProg/linux/../EeePProg.c **** 
 2659              		.loc 1 533 3 view .LVU527
 2660 1250 54109FE5 		ldr	r1, .L194+28
 2661 1254 153200E3 		movw	r3, #533
 2662 1258 50009FE5 		ldr	r0, .L194+32
 2663              	.LVL199:
 533:/home/hkh/git/eapidk-code-r76-trunk/apps/EeePProg/linux/../EeePProg.c **** 
 2664              		.loc 1 533 3 is_stmt 0 view .LVU528
 2665 125c 50209FE5 		ldr	r2, .L194+36
 2666              	.LPIC152:
 2667 1260 01108FE0 		add	r1, pc, r1
 2668 1264 00408DE5 		str	r4, [sp]
 2669 1268 04108DE5 		str	r1, [sp, #4]
 2670              	.LPIC151:
 2671 126c 00008FE0 		add	r0, pc, r0
 2672 1270 40109FE5 		ldr	r1, .L194+40
 2673              	.LPIC149:
 2674 1274 02208FE0 		add	r2, pc, r2
 2675 1278 08008DE5 		str	r0, [sp, #8]
 2676 127c 4500A0E3 		mov	r0, #69
 2677              	.LPIC150:
 2678 1280 01108FE0 		add	r1, pc, r1
 2679 1284 FEFFFFEB 		bl	siFormattedMessage_SC(PLT)
 2680              	.LVL200:
 533:/home/hkh/git/eapidk-code-r76-trunk/apps/EeePProg/linux/../EeePProg.c **** 
 2681              		.loc 1 533 3 is_stmt 1 view .LVU529
 2682 1288 D3FFFFEA 		b	.L185
 2683              	.LVL201:
 2684              	.L193:
 533:/home/hkh/git/eapidk-code-r76-trunk/apps/EeePProg/linux/../EeePProg.c **** 
 2685              		.loc 1 533 3 is_stmt 0 view .LVU530
 2686              	.LBE21:
 2687              	.LBE25:
 558:/home/hkh/git/eapidk-code-r76-trunk/apps/EeePProg/linux/../EeePProg.c **** 
 2688              		.loc 1 558 1 view .LVU531
ARM GAS  /tmp/ccqui9DH.s 			page 67


 2689 128c FEFFFFEB 		bl	__stack_chk_fail(PLT)
 2690              	.LVL202:
 2691              	.L195:
 2692              		.align	2
 2693              	.L194:
 2694 1290 EC000000 		.word	_GLOBAL_OFFSET_TABLE_-(.LPIC154+8)
 2695 1294 00000000 		.word	__stack_chk_guard(GOT)
 2696 1298 A4000000 		.word	_GLOBAL_OFFSET_TABLE_-(.LPIC153+8)
 2697 129c 70000000 		.word	.LC3-(.LPIC148+8)
 2698 12a0 68000000 		.word	.LC27-(.LPIC147+8)
 2699 12a4 64000000 		.word	.LC0-(.LPIC145+8)
 2700 12a8 5C000000 		.word	.LC1-(.LPIC146+8)
 2701 12ac 44000000 		.word	.LC3-(.LPIC152+8)
 2702 12b0 3C000000 		.word	.LC28-(.LPIC151+8)
 2703 12b4 38000000 		.word	.LC0-(.LPIC149+8)
 2704 12b8 30000000 		.word	.LC1-(.LPIC150+8)
 2705              		.cfi_endproc
 2706              	.LFE17:
 2708              		.align	2
 2709              		.global	CMD_StoreCOM0R20_CB_EEP
 2710              		.syntax unified
 2711              		.arm
 2712              		.fpu vfpv3
 2714              	CMD_StoreCOM0R20_CB_EEP:
 2715              	.LVL203:
 2716              	.LFB13:
 505:/home/hkh/git/eapidk-code-r76-trunk/apps/EeePProg/linux/../EeePProg.c ****   WriteEepCfg_t WriteEep={NULL, EAPI_ID_I2C_EXTERNAL, COM0R20_CB_EEP_DEV_ADDR};
 2717              		.loc 1 505 1 is_stmt 1 view -0
 2718              		.cfi_startproc
 2719              		@ args = 0, pretend = 0, frame = 8
 2720              		@ frame_needed = 0, uses_anonymous_args = 0
 505:/home/hkh/git/eapidk-code-r76-trunk/apps/EeePProg/linux/../EeePProg.c ****   WriteEepCfg_t WriteEep={NULL, EAPI_ID_I2C_EXTERNAL, COM0R20_CB_EEP_DEV_ADDR};
 2721              		.loc 1 505 1 is_stmt 0 view .LVU533
 2722 12bc 70402DE9 		push	{r4, r5, r6, lr}
 2723              		.cfi_def_cfa_offset 16
 2724              		.cfi_offset 4, -16
 2725              		.cfi_offset 5, -12
 2726              		.cfi_offset 6, -8
 2727              		.cfi_offset 14, -4
 2728 12c0 18D04DE2 		sub	sp, sp, #24
 2729              		.cfi_def_cfa_offset 40
 507:/home/hkh/git/eapidk-code-r76-trunk/apps/EeePProg/linux/../EeePProg.c ****   return CMD_StoreEeePExt_EEP(&WriteEep);
 2730              		.loc 1 507 21 view .LVU534
 2731 12c4 006090E5 		ldr	r6, [r0]
 2732              	.LBB28:
 2733              	.LBB29:
 489:/home/hkh/git/eapidk-code-r76-trunk/apps/EeePProg/linux/../EeePProg.c ****           &BHandel, 
 2734              		.loc 1 489 3 view .LVU535
 2735 12c8 10508DE2 		add	r5, sp, #16
 488:/home/hkh/git/eapidk-code-r76-trunk/apps/EeePProg/linux/../EeePProg.c ****   DO(EeePReadBufferFromEEP(
 2736              		.loc 1 488 16 view .LVU536
 2737 12cc 0010A0E3 		mov	r1, #0
 489:/home/hkh/git/eapidk-code-r76-trunk/apps/EeePProg/linux/../EeePProg.c ****           &BHandel, 
 2738              		.loc 1 489 3 view .LVU537
 2739 12d0 AE20A0E3 		mov	r2, #174
 2740              	.LBE29:
 2741              	.LBE28:
ARM GAS  /tmp/ccqui9DH.s 			page 68


 505:/home/hkh/git/eapidk-code-r76-trunk/apps/EeePProg/linux/../EeePProg.c ****   WriteEepCfg_t WriteEep={NULL, EAPI_ID_I2C_EXTERNAL, COM0R20_CB_EEP_DEV_ADDR};
 2742              		.loc 1 505 1 view .LVU538
 2743 12d4 F0009FE5 		ldr	r0, .L207
 2744              	.LVL204:
 505:/home/hkh/git/eapidk-code-r76-trunk/apps/EeePProg/linux/../EeePProg.c ****   WriteEepCfg_t WriteEep={NULL, EAPI_ID_I2C_EXTERNAL, COM0R20_CB_EEP_DEV_ADDR};
 2745              		.loc 1 505 1 view .LVU539
 2746 12d8 F0309FE5 		ldr	r3, .L207+4
 2747              	.LPIC164:
 2748 12dc 00008FE0 		add	r0, pc, r0
 2749 12e0 033090E7 		ldr	r3, [r0, r3]
 2750              	.LBB33:
 2751              	.LBB30:
 489:/home/hkh/git/eapidk-code-r76-trunk/apps/EeePProg/linux/../EeePProg.c ****           &BHandel, 
 2752              		.loc 1 489 3 view .LVU540
 2753 12e4 0500A0E1 		mov	r0, r5
 2754              	.LBE30:
 2755              	.LBE33:
 505:/home/hkh/git/eapidk-code-r76-trunk/apps/EeePProg/linux/../EeePProg.c ****   WriteEepCfg_t WriteEep={NULL, EAPI_ID_I2C_EXTERNAL, COM0R20_CB_EEP_DEV_ADDR};
 2756              		.loc 1 505 1 view .LVU541
 2757 12e8 003093E5 		ldr	r3, [r3]
 2758 12ec 14308DE5 		str	r3, [sp, #20]
 2759 12f0 0030A0E3 		mov	r3, #0
 506:/home/hkh/git/eapidk-code-r76-trunk/apps/EeePProg/linux/../EeePProg.c ****   WriteEep.FileName=*(char**)pArgData;
 2760              		.loc 1 506 3 is_stmt 1 view .LVU542
 507:/home/hkh/git/eapidk-code-r76-trunk/apps/EeePProg/linux/../EeePProg.c ****   return CMD_StoreEeePExt_EEP(&WriteEep);
 2761              		.loc 1 507 3 view .LVU543
 508:/home/hkh/git/eapidk-code-r76-trunk/apps/EeePProg/linux/../EeePProg.c **** }
 2762              		.loc 1 508 3 view .LVU544
 2763              	.LVL205:
 2764              	.LBB34:
 2765              	.LBI28:
 483:/home/hkh/git/eapidk-code-r76-trunk/apps/EeePProg/linux/../EeePProg.c ****     void *pArgData
 2766              		.loc 1 483 1 view .LVU545
 2767              	.LBB31:
 487:/home/hkh/git/eapidk-code-r76-trunk/apps/EeePProg/linux/../EeePProg.c ****   EeePHandel_t BHandel=NULL;
 2768              		.loc 1 487 3 view .LVU546
 488:/home/hkh/git/eapidk-code-r76-trunk/apps/EeePProg/linux/../EeePProg.c ****   DO(EeePReadBufferFromEEP(
 2769              		.loc 1 488 3 view .LVU547
 488:/home/hkh/git/eapidk-code-r76-trunk/apps/EeePProg/linux/../EeePProg.c ****   DO(EeePReadBufferFromEEP(
 2770              		.loc 1 488 16 is_stmt 0 view .LVU548
 2771 12f4 10108DE5 		str	r1, [sp, #16]
 489:/home/hkh/git/eapidk-code-r76-trunk/apps/EeePProg/linux/../EeePProg.c ****           &BHandel, 
 2772              		.loc 1 489 3 is_stmt 1 view .LVU549
 489:/home/hkh/git/eapidk-code-r76-trunk/apps/EeePProg/linux/../EeePProg.c ****           &BHandel, 
 2773              		.loc 1 489 3 view .LVU550
 2774 12f8 FEFFFFEB 		bl	EeePReadBufferFromEEP(PLT)
 2775              	.LVL206:
 489:/home/hkh/git/eapidk-code-r76-trunk/apps/EeePProg/linux/../EeePProg.c ****           &BHandel, 
 2776              		.loc 1 489 3 view .LVU551
 2777 12fc 004050E2 		subs	r4, r0, #0
 2778 1300 1200001A 		bne	.L204
 489:/home/hkh/git/eapidk-code-r76-trunk/apps/EeePProg/linux/../EeePProg.c ****           &BHandel, 
 2779              		.loc 1 489 3 view .LVU552
 494:/home/hkh/git/eapidk-code-r76-trunk/apps/EeePProg/linux/../EeePProg.c **** 
 2780              		.loc 1 494 3 view .LVU553
 494:/home/hkh/git/eapidk-code-r76-trunk/apps/EeePProg/linux/../EeePProg.c **** 
 2781              		.loc 1 494 3 view .LVU554
ARM GAS  /tmp/ccqui9DH.s 			page 69


 2782 1304 10009DE5 		ldr	r0, [sp, #16]
 2783              	.LVL207:
 494:/home/hkh/git/eapidk-code-r76-trunk/apps/EeePProg/linux/../EeePProg.c **** 
 2784              		.loc 1 494 3 is_stmt 0 view .LVU555
 2785 1308 0610A0E1 		mov	r1, r6
 2786 130c FEFFFFEB 		bl	EeePWriteBufferToFile(PLT)
 2787              	.LVL208:
 494:/home/hkh/git/eapidk-code-r76-trunk/apps/EeePProg/linux/../EeePProg.c **** 
 2788              		.loc 1 494 3 is_stmt 1 view .LVU556
 2789 1310 004050E2 		subs	r4, r0, #0
 2790 1314 1C00001A 		bne	.L205
 2791              	.LVL209:
 2792              	.L198:
 494:/home/hkh/git/eapidk-code-r76-trunk/apps/EeePProg/linux/../EeePProg.c **** 
 2793              		.loc 1 494 3 view .LVU557
 497:/home/hkh/git/eapidk-code-r76-trunk/apps/EeePProg/linux/../EeePProg.c ****   return StatusCode;
 2794              		.loc 1 497 3 view .LVU558
 2795 1318 0500A0E1 		mov	r0, r5
 2796 131c FEFFFFEB 		bl	EeePFreeBuffer(PLT)
 2797              	.LVL210:
 498:/home/hkh/git/eapidk-code-r76-trunk/apps/EeePProg/linux/../EeePProg.c **** }
 2798              		.loc 1 498 3 view .LVU559
 498:/home/hkh/git/eapidk-code-r76-trunk/apps/EeePProg/linux/../EeePProg.c **** }
 2799              		.loc 1 498 3 is_stmt 0 view .LVU560
 2800              	.LBE31:
 2801              	.LBE34:
 505:/home/hkh/git/eapidk-code-r76-trunk/apps/EeePProg/linux/../EeePProg.c ****   WriteEepCfg_t WriteEep={NULL, EAPI_ID_I2C_EXTERNAL, COM0R20_CB_EEP_DEV_ADDR};
 2802              		.loc 1 505 1 view .LVU561
 2803 1320 AC209FE5 		ldr	r2, .L207+8
 509:/home/hkh/git/eapidk-code-r76-trunk/apps/EeePProg/linux/../EeePProg.c **** 
 2804              		.loc 1 509 1 view .LVU562
 2805 1324 A4309FE5 		ldr	r3, .L207+4
 505:/home/hkh/git/eapidk-code-r76-trunk/apps/EeePProg/linux/../EeePProg.c ****   WriteEepCfg_t WriteEep={NULL, EAPI_ID_I2C_EXTERNAL, COM0R20_CB_EEP_DEV_ADDR};
 2806              		.loc 1 505 1 view .LVU563
 2807              	.LPIC163:
 2808 1328 02208FE0 		add	r2, pc, r2
 509:/home/hkh/git/eapidk-code-r76-trunk/apps/EeePProg/linux/../EeePProg.c **** 
 2809              		.loc 1 509 1 view .LVU564
 2810 132c 033092E7 		ldr	r3, [r2, r3]
 2811 1330 002093E5 		ldr	r2, [r3]
 2812 1334 14309DE5 		ldr	r3, [sp, #20]
 2813 1338 022033E0 		eors	r2, r3, r2
 2814 133c 0030A0E3 		mov	r3, #0
 2815 1340 2000001A 		bne	.L206
 2816 1344 0400A0E1 		mov	r0, r4
 2817 1348 18D08DE2 		add	sp, sp, #24
 2818              		.cfi_remember_state
 2819              		.cfi_def_cfa_offset 16
 2820              		@ sp needed
 2821 134c 7080BDE8 		pop	{r4, r5, r6, pc}
 2822              	.LVL211:
 2823              	.L204:
 2824              		.cfi_restore_state
 2825              	.LBB35:
 2826              	.LBB32:
 489:/home/hkh/git/eapidk-code-r76-trunk/apps/EeePProg/linux/../EeePProg.c ****           &BHandel, 
 2827              		.loc 1 489 3 is_stmt 1 view .LVU565
ARM GAS  /tmp/ccqui9DH.s 			page 70


 2828 1350 80109FE5 		ldr	r1, .L207+12
 2829 1354 E93100E3 		movw	r3, #489
 2830 1358 7C009FE5 		ldr	r0, .L207+16
 2831              	.LVL212:
 489:/home/hkh/git/eapidk-code-r76-trunk/apps/EeePProg/linux/../EeePProg.c ****           &BHandel, 
 2832              		.loc 1 489 3 is_stmt 0 view .LVU566
 2833 135c 7C209FE5 		ldr	r2, .L207+20
 2834              	.LPIC158:
 2835 1360 01108FE0 		add	r1, pc, r1
 2836 1364 00408DE5 		str	r4, [sp]
 2837 1368 04108DE5 		str	r1, [sp, #4]
 2838              	.LPIC157:
 2839 136c 00008FE0 		add	r0, pc, r0
 2840 1370 6C109FE5 		ldr	r1, .L207+24
 2841              	.LPIC155:
 2842 1374 02208FE0 		add	r2, pc, r2
 2843 1378 08008DE5 		str	r0, [sp, #8]
 2844 137c 4500A0E3 		mov	r0, #69
 2845              	.LPIC156:
 2846 1380 01108FE0 		add	r1, pc, r1
 2847 1384 FEFFFFEB 		bl	siFormattedMessage_SC(PLT)
 2848              	.LVL213:
 489:/home/hkh/git/eapidk-code-r76-trunk/apps/EeePProg/linux/../EeePProg.c ****           &BHandel, 
 2849              		.loc 1 489 3 is_stmt 1 view .LVU567
 2850 1388 E2FFFFEA 		b	.L198
 2851              	.LVL214:
 2852              	.L205:
 494:/home/hkh/git/eapidk-code-r76-trunk/apps/EeePProg/linux/../EeePProg.c **** 
 2853              		.loc 1 494 3 view .LVU568
 2854 138c 54109FE5 		ldr	r1, .L207+28
 2855 1390 EE3100E3 		movw	r3, #494
 2856 1394 50009FE5 		ldr	r0, .L207+32
 2857              	.LVL215:
 494:/home/hkh/git/eapidk-code-r76-trunk/apps/EeePProg/linux/../EeePProg.c **** 
 2858              		.loc 1 494 3 is_stmt 0 view .LVU569
 2859 1398 50209FE5 		ldr	r2, .L207+36
 2860              	.LPIC162:
 2861 139c 01108FE0 		add	r1, pc, r1
 2862 13a0 00408DE5 		str	r4, [sp]
 2863 13a4 04108DE5 		str	r1, [sp, #4]
 2864              	.LPIC161:
 2865 13a8 00008FE0 		add	r0, pc, r0
 2866 13ac 40109FE5 		ldr	r1, .L207+40
 2867              	.LPIC159:
 2868 13b0 02208FE0 		add	r2, pc, r2
 2869 13b4 08008DE5 		str	r0, [sp, #8]
 2870 13b8 4500A0E3 		mov	r0, #69
 2871              	.LPIC160:
 2872 13bc 01108FE0 		add	r1, pc, r1
 2873 13c0 FEFFFFEB 		bl	siFormattedMessage_SC(PLT)
 2874              	.LVL216:
 494:/home/hkh/git/eapidk-code-r76-trunk/apps/EeePProg/linux/../EeePProg.c **** 
 2875              		.loc 1 494 3 is_stmt 1 view .LVU570
 2876 13c4 D3FFFFEA 		b	.L198
 2877              	.LVL217:
 2878              	.L206:
 494:/home/hkh/git/eapidk-code-r76-trunk/apps/EeePProg/linux/../EeePProg.c **** 
ARM GAS  /tmp/ccqui9DH.s 			page 71


 2879              		.loc 1 494 3 is_stmt 0 view .LVU571
 2880              	.LBE32:
 2881              	.LBE35:
 509:/home/hkh/git/eapidk-code-r76-trunk/apps/EeePProg/linux/../EeePProg.c **** 
 2882              		.loc 1 509 1 view .LVU572
 2883 13c8 FEFFFFEB 		bl	__stack_chk_fail(PLT)
 2884              	.LVL218:
 2885              	.L208:
 2886              		.align	2
 2887              	.L207:
 2888 13cc E8000000 		.word	_GLOBAL_OFFSET_TABLE_-(.LPIC164+8)
 2889 13d0 00000000 		.word	__stack_chk_guard(GOT)
 2890 13d4 A4000000 		.word	_GLOBAL_OFFSET_TABLE_-(.LPIC163+8)
 2891 13d8 70000000 		.word	.LC3-(.LPIC158+8)
 2892 13dc 68000000 		.word	.LC21-(.LPIC157+8)
 2893 13e0 64000000 		.word	.LC0-(.LPIC155+8)
 2894 13e4 5C000000 		.word	.LC1-(.LPIC156+8)
 2895 13e8 44000000 		.word	.LC3-(.LPIC162+8)
 2896 13ec 3C000000 		.word	.LC22-(.LPIC161+8)
 2897 13f0 38000000 		.word	.LC0-(.LPIC159+8)
 2898 13f4 30000000 		.word	.LC1-(.LPIC160+8)
 2899              		.cfi_endproc
 2900              	.LFE13:
 2902              		.align	2
 2903              		.global	CMD_StoreCOM0R20_M_EEP
 2904              		.syntax unified
 2905              		.arm
 2906              		.fpu vfpv3
 2908              	CMD_StoreCOM0R20_M_EEP:
 2909              	.LVL219:
 2910              	.LFB14:
 515:/home/hkh/git/eapidk-code-r76-trunk/apps/EeePProg/linux/../EeePProg.c ****   WriteEepCfg_t WriteEep={NULL, EAPI_ID_I2C_EXTERNAL, COM0R20_M_EEP_DEV_ADDR};
 2911              		.loc 1 515 1 is_stmt 1 view -0
 2912              		.cfi_startproc
 2913              		@ args = 0, pretend = 0, frame = 8
 2914              		@ frame_needed = 0, uses_anonymous_args = 0
 515:/home/hkh/git/eapidk-code-r76-trunk/apps/EeePProg/linux/../EeePProg.c ****   WriteEepCfg_t WriteEep={NULL, EAPI_ID_I2C_EXTERNAL, COM0R20_M_EEP_DEV_ADDR};
 2915              		.loc 1 515 1 is_stmt 0 view .LVU574
 2916 13f8 70402DE9 		push	{r4, r5, r6, lr}
 2917              		.cfi_def_cfa_offset 16
 2918              		.cfi_offset 4, -16
 2919              		.cfi_offset 5, -12
 2920              		.cfi_offset 6, -8
 2921              		.cfi_offset 14, -4
 2922 13fc 18D04DE2 		sub	sp, sp, #24
 2923              		.cfi_def_cfa_offset 40
 517:/home/hkh/git/eapidk-code-r76-trunk/apps/EeePProg/linux/../EeePProg.c ****   return CMD_StoreEeePExt_EEP(&WriteEep);
 2924              		.loc 1 517 21 view .LVU575
 2925 1400 006090E5 		ldr	r6, [r0]
 2926              	.LBB38:
 2927              	.LBB39:
 489:/home/hkh/git/eapidk-code-r76-trunk/apps/EeePProg/linux/../EeePProg.c ****           &BHandel, 
 2928              		.loc 1 489 3 view .LVU576
 2929 1404 10508DE2 		add	r5, sp, #16
 488:/home/hkh/git/eapidk-code-r76-trunk/apps/EeePProg/linux/../EeePProg.c ****   DO(EeePReadBufferFromEEP(
 2930              		.loc 1 488 16 view .LVU577
 2931 1408 0010A0E3 		mov	r1, #0
ARM GAS  /tmp/ccqui9DH.s 			page 72


 489:/home/hkh/git/eapidk-code-r76-trunk/apps/EeePProg/linux/../EeePProg.c ****           &BHandel, 
 2932              		.loc 1 489 3 view .LVU578
 2933 140c A020A0E3 		mov	r2, #160
 2934              	.LBE39:
 2935              	.LBE38:
 515:/home/hkh/git/eapidk-code-r76-trunk/apps/EeePProg/linux/../EeePProg.c ****   WriteEepCfg_t WriteEep={NULL, EAPI_ID_I2C_EXTERNAL, COM0R20_M_EEP_DEV_ADDR};
 2936              		.loc 1 515 1 view .LVU579
 2937 1410 F0009FE5 		ldr	r0, .L220
 2938              	.LVL220:
 515:/home/hkh/git/eapidk-code-r76-trunk/apps/EeePProg/linux/../EeePProg.c ****   WriteEepCfg_t WriteEep={NULL, EAPI_ID_I2C_EXTERNAL, COM0R20_M_EEP_DEV_ADDR};
 2939              		.loc 1 515 1 view .LVU580
 2940 1414 F0309FE5 		ldr	r3, .L220+4
 2941              	.LPIC174:
 2942 1418 00008FE0 		add	r0, pc, r0
 2943 141c 033090E7 		ldr	r3, [r0, r3]
 2944              	.LBB43:
 2945              	.LBB40:
 489:/home/hkh/git/eapidk-code-r76-trunk/apps/EeePProg/linux/../EeePProg.c ****           &BHandel, 
 2946              		.loc 1 489 3 view .LVU581
 2947 1420 0500A0E1 		mov	r0, r5
 2948              	.LBE40:
 2949              	.LBE43:
 515:/home/hkh/git/eapidk-code-r76-trunk/apps/EeePProg/linux/../EeePProg.c ****   WriteEepCfg_t WriteEep={NULL, EAPI_ID_I2C_EXTERNAL, COM0R20_M_EEP_DEV_ADDR};
 2950              		.loc 1 515 1 view .LVU582
 2951 1424 003093E5 		ldr	r3, [r3]
 2952 1428 14308DE5 		str	r3, [sp, #20]
 2953 142c 0030A0E3 		mov	r3, #0
 516:/home/hkh/git/eapidk-code-r76-trunk/apps/EeePProg/linux/../EeePProg.c ****   WriteEep.FileName=*(char**)pArgData;
 2954              		.loc 1 516 3 is_stmt 1 view .LVU583
 517:/home/hkh/git/eapidk-code-r76-trunk/apps/EeePProg/linux/../EeePProg.c ****   return CMD_StoreEeePExt_EEP(&WriteEep);
 2955              		.loc 1 517 3 view .LVU584
 518:/home/hkh/git/eapidk-code-r76-trunk/apps/EeePProg/linux/../EeePProg.c **** }
 2956              		.loc 1 518 3 view .LVU585
 2957              	.LVL221:
 2958              	.LBB44:
 2959              	.LBI38:
 483:/home/hkh/git/eapidk-code-r76-trunk/apps/EeePProg/linux/../EeePProg.c ****     void *pArgData
 2960              		.loc 1 483 1 view .LVU586
 2961              	.LBB41:
 487:/home/hkh/git/eapidk-code-r76-trunk/apps/EeePProg/linux/../EeePProg.c ****   EeePHandel_t BHandel=NULL;
 2962              		.loc 1 487 3 view .LVU587
 488:/home/hkh/git/eapidk-code-r76-trunk/apps/EeePProg/linux/../EeePProg.c ****   DO(EeePReadBufferFromEEP(
 2963              		.loc 1 488 3 view .LVU588
 488:/home/hkh/git/eapidk-code-r76-trunk/apps/EeePProg/linux/../EeePProg.c ****   DO(EeePReadBufferFromEEP(
 2964              		.loc 1 488 16 is_stmt 0 view .LVU589
 2965 1430 10108DE5 		str	r1, [sp, #16]
 489:/home/hkh/git/eapidk-code-r76-trunk/apps/EeePProg/linux/../EeePProg.c ****           &BHandel, 
 2966              		.loc 1 489 3 is_stmt 1 view .LVU590
 489:/home/hkh/git/eapidk-code-r76-trunk/apps/EeePProg/linux/../EeePProg.c ****           &BHandel, 
 2967              		.loc 1 489 3 view .LVU591
 2968 1434 FEFFFFEB 		bl	EeePReadBufferFromEEP(PLT)
 2969              	.LVL222:
 489:/home/hkh/git/eapidk-code-r76-trunk/apps/EeePProg/linux/../EeePProg.c ****           &BHandel, 
 2970              		.loc 1 489 3 view .LVU592
 2971 1438 004050E2 		subs	r4, r0, #0
 2972 143c 1200001A 		bne	.L217
 489:/home/hkh/git/eapidk-code-r76-trunk/apps/EeePProg/linux/../EeePProg.c ****           &BHandel, 
ARM GAS  /tmp/ccqui9DH.s 			page 73


 2973              		.loc 1 489 3 view .LVU593
 494:/home/hkh/git/eapidk-code-r76-trunk/apps/EeePProg/linux/../EeePProg.c **** 
 2974              		.loc 1 494 3 view .LVU594
 494:/home/hkh/git/eapidk-code-r76-trunk/apps/EeePProg/linux/../EeePProg.c **** 
 2975              		.loc 1 494 3 view .LVU595
 2976 1440 10009DE5 		ldr	r0, [sp, #16]
 2977              	.LVL223:
 494:/home/hkh/git/eapidk-code-r76-trunk/apps/EeePProg/linux/../EeePProg.c **** 
 2978              		.loc 1 494 3 is_stmt 0 view .LVU596
 2979 1444 0610A0E1 		mov	r1, r6
 2980 1448 FEFFFFEB 		bl	EeePWriteBufferToFile(PLT)
 2981              	.LVL224:
 494:/home/hkh/git/eapidk-code-r76-trunk/apps/EeePProg/linux/../EeePProg.c **** 
 2982              		.loc 1 494 3 is_stmt 1 view .LVU597
 2983 144c 004050E2 		subs	r4, r0, #0
 2984 1450 1C00001A 		bne	.L218
 2985              	.LVL225:
 2986              	.L211:
 494:/home/hkh/git/eapidk-code-r76-trunk/apps/EeePProg/linux/../EeePProg.c **** 
 2987              		.loc 1 494 3 view .LVU598
 497:/home/hkh/git/eapidk-code-r76-trunk/apps/EeePProg/linux/../EeePProg.c ****   return StatusCode;
 2988              		.loc 1 497 3 view .LVU599
 2989 1454 0500A0E1 		mov	r0, r5
 2990 1458 FEFFFFEB 		bl	EeePFreeBuffer(PLT)
 2991              	.LVL226:
 498:/home/hkh/git/eapidk-code-r76-trunk/apps/EeePProg/linux/../EeePProg.c **** }
 2992              		.loc 1 498 3 view .LVU600
 498:/home/hkh/git/eapidk-code-r76-trunk/apps/EeePProg/linux/../EeePProg.c **** }
 2993              		.loc 1 498 3 is_stmt 0 view .LVU601
 2994              	.LBE41:
 2995              	.LBE44:
 515:/home/hkh/git/eapidk-code-r76-trunk/apps/EeePProg/linux/../EeePProg.c ****   WriteEepCfg_t WriteEep={NULL, EAPI_ID_I2C_EXTERNAL, COM0R20_M_EEP_DEV_ADDR};
 2996              		.loc 1 515 1 view .LVU602
 2997 145c AC209FE5 		ldr	r2, .L220+8
 519:/home/hkh/git/eapidk-code-r76-trunk/apps/EeePProg/linux/../EeePProg.c **** 
 2998              		.loc 1 519 1 view .LVU603
 2999 1460 A4309FE5 		ldr	r3, .L220+4
 515:/home/hkh/git/eapidk-code-r76-trunk/apps/EeePProg/linux/../EeePProg.c ****   WriteEepCfg_t WriteEep={NULL, EAPI_ID_I2C_EXTERNAL, COM0R20_M_EEP_DEV_ADDR};
 3000              		.loc 1 515 1 view .LVU604
 3001              	.LPIC173:
 3002 1464 02208FE0 		add	r2, pc, r2
 519:/home/hkh/git/eapidk-code-r76-trunk/apps/EeePProg/linux/../EeePProg.c **** 
 3003              		.loc 1 519 1 view .LVU605
 3004 1468 033092E7 		ldr	r3, [r2, r3]
 3005 146c 002093E5 		ldr	r2, [r3]
 3006 1470 14309DE5 		ldr	r3, [sp, #20]
 3007 1474 022033E0 		eors	r2, r3, r2
 3008 1478 0030A0E3 		mov	r3, #0
 3009 147c 2000001A 		bne	.L219
 3010 1480 0400A0E1 		mov	r0, r4
 3011 1484 18D08DE2 		add	sp, sp, #24
 3012              		.cfi_remember_state
 3013              		.cfi_def_cfa_offset 16
 3014              		@ sp needed
 3015 1488 7080BDE8 		pop	{r4, r5, r6, pc}
 3016              	.LVL227:
 3017              	.L217:
ARM GAS  /tmp/ccqui9DH.s 			page 74


 3018              		.cfi_restore_state
 3019              	.LBB45:
 3020              	.LBB42:
 489:/home/hkh/git/eapidk-code-r76-trunk/apps/EeePProg/linux/../EeePProg.c ****           &BHandel, 
 3021              		.loc 1 489 3 is_stmt 1 view .LVU606
 3022 148c 80109FE5 		ldr	r1, .L220+12
 3023 1490 E93100E3 		movw	r3, #489
 3024 1494 7C009FE5 		ldr	r0, .L220+16
 3025              	.LVL228:
 489:/home/hkh/git/eapidk-code-r76-trunk/apps/EeePProg/linux/../EeePProg.c ****           &BHandel, 
 3026              		.loc 1 489 3 is_stmt 0 view .LVU607
 3027 1498 7C209FE5 		ldr	r2, .L220+20
 3028              	.LPIC168:
 3029 149c 01108FE0 		add	r1, pc, r1
 3030 14a0 00408DE5 		str	r4, [sp]
 3031 14a4 04108DE5 		str	r1, [sp, #4]
 3032              	.LPIC167:
 3033 14a8 00008FE0 		add	r0, pc, r0
 3034 14ac 6C109FE5 		ldr	r1, .L220+24
 3035              	.LPIC165:
 3036 14b0 02208FE0 		add	r2, pc, r2
 3037 14b4 08008DE5 		str	r0, [sp, #8]
 3038 14b8 4500A0E3 		mov	r0, #69
 3039              	.LPIC166:
 3040 14bc 01108FE0 		add	r1, pc, r1
 3041 14c0 FEFFFFEB 		bl	siFormattedMessage_SC(PLT)
 3042              	.LVL229:
 489:/home/hkh/git/eapidk-code-r76-trunk/apps/EeePProg/linux/../EeePProg.c ****           &BHandel, 
 3043              		.loc 1 489 3 is_stmt 1 view .LVU608
 3044 14c4 E2FFFFEA 		b	.L211
 3045              	.LVL230:
 3046              	.L218:
 494:/home/hkh/git/eapidk-code-r76-trunk/apps/EeePProg/linux/../EeePProg.c **** 
 3047              		.loc 1 494 3 view .LVU609
 3048 14c8 54109FE5 		ldr	r1, .L220+28
 3049 14cc EE3100E3 		movw	r3, #494
 3050 14d0 50009FE5 		ldr	r0, .L220+32
 3051              	.LVL231:
 494:/home/hkh/git/eapidk-code-r76-trunk/apps/EeePProg/linux/../EeePProg.c **** 
 3052              		.loc 1 494 3 is_stmt 0 view .LVU610
 3053 14d4 50209FE5 		ldr	r2, .L220+36
 3054              	.LPIC172:
 3055 14d8 01108FE0 		add	r1, pc, r1
 3056 14dc 00408DE5 		str	r4, [sp]
 3057 14e0 04108DE5 		str	r1, [sp, #4]
 3058              	.LPIC171:
 3059 14e4 00008FE0 		add	r0, pc, r0
 3060 14e8 40109FE5 		ldr	r1, .L220+40
 3061              	.LPIC169:
 3062 14ec 02208FE0 		add	r2, pc, r2
 3063 14f0 08008DE5 		str	r0, [sp, #8]
 3064 14f4 4500A0E3 		mov	r0, #69
 3065              	.LPIC170:
 3066 14f8 01108FE0 		add	r1, pc, r1
 3067 14fc FEFFFFEB 		bl	siFormattedMessage_SC(PLT)
 3068              	.LVL232:
 494:/home/hkh/git/eapidk-code-r76-trunk/apps/EeePProg/linux/../EeePProg.c **** 
ARM GAS  /tmp/ccqui9DH.s 			page 75


 3069              		.loc 1 494 3 is_stmt 1 view .LVU611
 3070 1500 D3FFFFEA 		b	.L211
 3071              	.LVL233:
 3072              	.L219:
 494:/home/hkh/git/eapidk-code-r76-trunk/apps/EeePProg/linux/../EeePProg.c **** 
 3073              		.loc 1 494 3 is_stmt 0 view .LVU612
 3074              	.LBE42:
 3075              	.LBE45:
 519:/home/hkh/git/eapidk-code-r76-trunk/apps/EeePProg/linux/../EeePProg.c **** 
 3076              		.loc 1 519 1 view .LVU613
 3077 1504 FEFFFFEB 		bl	__stack_chk_fail(PLT)
 3078              	.LVL234:
 3079              	.L221:
 3080              		.align	2
 3081              	.L220:
 3082 1508 E8000000 		.word	_GLOBAL_OFFSET_TABLE_-(.LPIC174+8)
 3083 150c 00000000 		.word	__stack_chk_guard(GOT)
 3084 1510 A4000000 		.word	_GLOBAL_OFFSET_TABLE_-(.LPIC173+8)
 3085 1514 70000000 		.word	.LC3-(.LPIC168+8)
 3086 1518 68000000 		.word	.LC21-(.LPIC167+8)
 3087 151c 64000000 		.word	.LC0-(.LPIC165+8)
 3088 1520 5C000000 		.word	.LC1-(.LPIC166+8)
 3089 1524 44000000 		.word	.LC3-(.LPIC172+8)
 3090 1528 3C000000 		.word	.LC22-(.LPIC171+8)
 3091 152c 38000000 		.word	.LC0-(.LPIC169+8)
 3092 1530 30000000 		.word	.LC1-(.LPIC170+8)
 3093              		.cfi_endproc
 3094              	.LFE14:
 3096              		.section	.rodata.str1.4
 3097              		.align	2
 3098              	.LC29:
 3099 06a4 7374646F 		.ascii	"stdout\000"
 3099      757400
 3100 06ab 00       		.align	2
 3101              	.LC30:
 3102 06ac 73746465 		.ascii	"stderr\000"
 3102      727200
 3103 06b3 00       		.align	2
 3104              	.LC31:
 3105 06b4 7700     		.ascii	"w\000"
 3106 06b6 0000     		.align	2
 3107              	.LC32:
 3108 06b8 43726561 		.ascii	"CreateTxtFilePtr\000"
 3108      74655478 
 3108      7446696C 
 3108      65507472 
 3108      00
 3109 06c9 000000   		.align	2
 3110              	.LC33:
 3111 06cc 282A4669 		.ascii	"(*FilePtr==NULL)\000"
 3111      6C655074 
 3111      723D3D4E 
 3111      554C4C29 
 3111      00
 3112 06dd 000000   		.align	2
 3113              	.LC34:
 3114 06e0 43726561 		.ascii	"CreateTxtFilePtr(*(char**)pArgData, &lclStream)\000"
ARM GAS  /tmp/ccqui9DH.s 			page 76


 3114      74655478 
 3114      7446696C 
 3114      65507472 
 3114      282A2863 
 3115              		.align	2
 3116              	.LC35:
 3117 0710 45656550 		.ascii	"EeeP_CreateCOM0R20_CBCfg(lclStream)\000"
 3117      5F437265 
 3117      61746543 
 3117      4F4D3052 
 3117      32305F43 
 3118              		.text
 3119              		.align	2
 3120              		.global	CMD_CreateCOM0R20_CBCfg
 3121              		.syntax unified
 3122              		.arm
 3123              		.fpu vfpv3
 3125              	CMD_CreateCOM0R20_CBCfg:
 3126              	.LVL235:
 3127              	.LFB4:
 310:/home/hkh/git/eapidk-code-r76-trunk/apps/EeePProg/linux/../EeePProg.c ****   EApiStatus_t StatusCode=EAPI_STATUS_SUCCESS;
 3128              		.loc 1 310 1 is_stmt 1 view -0
 3129              		.cfi_startproc
 3130              		@ args = 0, pretend = 0, frame = 0
 3131              		@ frame_needed = 0, uses_anonymous_args = 0
 311:/home/hkh/git/eapidk-code-r76-trunk/apps/EeePProg/linux/../EeePProg.c ****   FILE *lclStream=NULL;
 3132              		.loc 1 311 3 view .LVU615
 312:/home/hkh/git/eapidk-code-r76-trunk/apps/EeePProg/linux/../EeePProg.c **** 
 3133              		.loc 1 312 3 view .LVU616
 314:/home/hkh/git/eapidk-code-r76-trunk/apps/EeePProg/linux/../EeePProg.c ****   DO(EeeP_CreateCOM0R20_CBCfg(lclStream));
 3134              		.loc 1 314 3 view .LVU617
 314:/home/hkh/git/eapidk-code-r76-trunk/apps/EeePProg/linux/../EeePProg.c ****   DO(EeeP_CreateCOM0R20_CBCfg(lclStream));
 3135              		.loc 1 314 3 view .LVU618
 310:/home/hkh/git/eapidk-code-r76-trunk/apps/EeePProg/linux/../EeePProg.c ****   EApiStatus_t StatusCode=EAPI_STATUS_SUCCESS;
 3136              		.loc 1 310 1 is_stmt 0 view .LVU619
 3137 1534 F0402DE9 		push	{r4, r5, r6, r7, lr}
 3138              		.cfi_def_cfa_offset 20
 3139              		.cfi_offset 4, -20
 3140              		.cfi_offset 5, -16
 3141              		.cfi_offset 6, -12
 3142              		.cfi_offset 7, -8
 3143              		.cfi_offset 14, -4
 3144 1538 14D04DE2 		sub	sp, sp, #20
 3145              		.cfi_def_cfa_offset 40
 3146              	.LBB52:
 3147              	.LBB53:
 254:/home/hkh/git/eapidk-code-r76-trunk/apps/EeePProg/linux/../EeePProg.c ****      *FilePtr=stdout;
 3148              		.loc 1 254 7 view .LVU620
 3149 153c B8119FE5 		ldr	r1, .L253
 3150              	.LBE53:
 3151              	.LBE52:
 314:/home/hkh/git/eapidk-code-r76-trunk/apps/EeePProg/linux/../EeePProg.c ****   DO(EeeP_CreateCOM0R20_CBCfg(lclStream));
 3152              		.loc 1 314 3 view .LVU621
 3153 1540 004090E5 		ldr	r4, [r0]
 3154              	.LVL236:
 3155              	.LBB62:
 3156              	.LBI52:
ARM GAS  /tmp/ccqui9DH.s 			page 77


 248:/home/hkh/git/eapidk-code-r76-trunk/apps/EeePProg/linux/../EeePProg.c ****     const char *Destination,
 3157              		.loc 1 248 1 is_stmt 1 view .LVU622
 3158              	.LBB56:
 253:/home/hkh/git/eapidk-code-r76-trunk/apps/EeePProg/linux/../EeePProg.c ****   if(!strcmp(Destination, "stdout")){
 3159              		.loc 1 253 3 view .LVU623
 254:/home/hkh/git/eapidk-code-r76-trunk/apps/EeePProg/linux/../EeePProg.c ****      *FilePtr=stdout;
 3160              		.loc 1 254 3 view .LVU624
 3161              	.LBE56:
 3162              	.LBE62:
 310:/home/hkh/git/eapidk-code-r76-trunk/apps/EeePProg/linux/../EeePProg.c ****   EApiStatus_t StatusCode=EAPI_STATUS_SUCCESS;
 3163              		.loc 1 310 1 is_stmt 0 view .LVU625
 3164 1544 B4519FE5 		ldr	r5, .L253+4
 3165              	.LBB63:
 3166              	.LBB57:
 254:/home/hkh/git/eapidk-code-r76-trunk/apps/EeePProg/linux/../EeePProg.c ****      *FilePtr=stdout;
 3167              		.loc 1 254 7 view .LVU626
 3168              	.LPIC175:
 3169 1548 01108FE0 		add	r1, pc, r1
 3170 154c 0400A0E1 		mov	r0, r4
 3171              	.LVL237:
 254:/home/hkh/git/eapidk-code-r76-trunk/apps/EeePProg/linux/../EeePProg.c ****      *FilePtr=stdout;
 3172              		.loc 1 254 7 view .LVU627
 3173 1550 FEFFFFEB 		bl	strcmp(PLT)
 3174              	.LVL238:
 255:/home/hkh/git/eapidk-code-r76-trunk/apps/EeePProg/linux/../EeePProg.c ****   }else if(!strcmp(Destination, "&1")){
 3175              		.loc 1 255 14 view .LVU628
 3176 1554 A8319FE5 		ldr	r3, .L253+8
 3177              	.LBE57:
 3178              	.LBE63:
 310:/home/hkh/git/eapidk-code-r76-trunk/apps/EeePProg/linux/../EeePProg.c ****   EApiStatus_t StatusCode=EAPI_STATUS_SUCCESS;
 3179              		.loc 1 310 1 view .LVU629
 3180              	.LPIC176:
 3181 1558 05508FE0 		add	r5, pc, r5
 3182              	.LBB64:
 3183              	.LBB58:
 254:/home/hkh/git/eapidk-code-r76-trunk/apps/EeePProg/linux/../EeePProg.c ****      *FilePtr=stdout;
 3184              		.loc 1 254 5 view .LVU630
 3185 155c 000050E3 		cmp	r0, #0
 255:/home/hkh/git/eapidk-code-r76-trunk/apps/EeePProg/linux/../EeePProg.c ****   }else if(!strcmp(Destination, "&1")){
 3186              		.loc 1 255 14 view .LVU631
 3187 1560 033095E7 		ldr	r3, [r5, r3]
 3188 1564 006093E5 		ldr	r6, [r3]
 254:/home/hkh/git/eapidk-code-r76-trunk/apps/EeePProg/linux/../EeePProg.c ****      *FilePtr=stdout;
 3189              		.loc 1 254 5 view .LVU632
 3190 1568 2200000A 		beq	.L223
 256:/home/hkh/git/eapidk-code-r76-trunk/apps/EeePProg/linux/../EeePProg.c ****      *FilePtr=stdout;
 3191              		.loc 1 256 9 is_stmt 1 view .LVU633
 256:/home/hkh/git/eapidk-code-r76-trunk/apps/EeePProg/linux/../EeePProg.c ****      *FilePtr=stdout;
 3192              		.loc 1 256 13 is_stmt 0 view .LVU634
 3193 156c 0070D4E5 		ldrb	r7, [r4]	@ zero_extendqisi2
 3194 1570 260057E3 		cmp	r7, #38
 3195 1574 1900000A 		beq	.L251
 3196              	.L233:
 258:/home/hkh/git/eapidk-code-r76-trunk/apps/EeePProg/linux/../EeePProg.c ****      *FilePtr=stderr;
 3197              		.loc 1 258 9 is_stmt 1 view .LVU635
 258:/home/hkh/git/eapidk-code-r76-trunk/apps/EeePProg/linux/../EeePProg.c ****      *FilePtr=stderr;
 3198              		.loc 1 258 13 is_stmt 0 view .LVU636
ARM GAS  /tmp/ccqui9DH.s 			page 78


 3199 1578 88119FE5 		ldr	r1, .L253+12
 3200 157c 0400A0E1 		mov	r0, r4
 3201              	.LPIC177:
 3202 1580 01108FE0 		add	r1, pc, r1
 3203 1584 FEFFFFEB 		bl	strcmp(PLT)
 3204              	.LVL239:
 258:/home/hkh/git/eapidk-code-r76-trunk/apps/EeePProg/linux/../EeePProg.c ****      *FilePtr=stderr;
 3205              		.loc 1 258 11 view .LVU637
 3206 1588 000050E3 		cmp	r0, #0
 3207 158c 2D00001A 		bne	.L225
 3208              	.L228:
 259:/home/hkh/git/eapidk-code-r76-trunk/apps/EeePProg/linux/../EeePProg.c ****   }else if(!strcmp(Destination, "&2")){
 3209              		.loc 1 259 6 is_stmt 1 view .LVU638
 259:/home/hkh/git/eapidk-code-r76-trunk/apps/EeePProg/linux/../EeePProg.c ****   }else if(!strcmp(Destination, "&2")){
 3210              		.loc 1 259 14 is_stmt 0 view .LVU639
 3211 1590 74319FE5 		ldr	r3, .L253+16
 3212 1594 033095E7 		ldr	r3, [r5, r3]
 3213 1598 007093E5 		ldr	r7, [r3]
 3214              	.LVL240:
 264:/home/hkh/git/eapidk-code-r76-trunk/apps/EeePProg/linux/../EeePProg.c ****          CreateTxtFilePtr,
 3215              		.loc 1 264 5 is_stmt 1 view .LVU640
 268:/home/hkh/git/eapidk-code-r76-trunk/apps/EeePProg/linux/../EeePProg.c ****   }
 3216              		.loc 1 268 8 view .LVU641
 271:/home/hkh/git/eapidk-code-r76-trunk/apps/EeePProg/linux/../EeePProg.c **** }
 3217              		.loc 1 271 3 view .LVU642
 271:/home/hkh/git/eapidk-code-r76-trunk/apps/EeePProg/linux/../EeePProg.c **** }
 3218              		.loc 1 271 3 is_stmt 0 view .LVU643
 3219              	.LBE58:
 3220              	.LBE64:
 314:/home/hkh/git/eapidk-code-r76-trunk/apps/EeePProg/linux/../EeePProg.c ****   DO(EeeP_CreateCOM0R20_CBCfg(lclStream));
 3221              		.loc 1 314 3 is_stmt 1 view .LVU644
 3222              	.L226:
 314:/home/hkh/git/eapidk-code-r76-trunk/apps/EeePProg/linux/../EeePProg.c ****   DO(EeeP_CreateCOM0R20_CBCfg(lclStream));
 3223              		.loc 1 314 3 discriminator 2 view .LVU645
 315:/home/hkh/git/eapidk-code-r76-trunk/apps/EeePProg/linux/../EeePProg.c **** 
 3224              		.loc 1 315 3 discriminator 2 view .LVU646
 315:/home/hkh/git/eapidk-code-r76-trunk/apps/EeePProg/linux/../EeePProg.c **** 
 3225              		.loc 1 315 3 discriminator 2 view .LVU647
 3226 159c 0700A0E1 		mov	r0, r7
 3227 15a0 FEFFFFEB 		bl	EeeP_CreateCOM0R20_CBCfg(PLT)
 3228              	.LVL241:
 315:/home/hkh/git/eapidk-code-r76-trunk/apps/EeePProg/linux/../EeePProg.c **** 
 3229              		.loc 1 315 3 discriminator 2 view .LVU648
 3230 15a4 004050E2 		subs	r4, r0, #0
 3231 15a8 1700001A 		bne	.L231
 3232              	.LVL242:
 3233              	.L230:
 315:/home/hkh/git/eapidk-code-r76-trunk/apps/EeePProg/linux/../EeePProg.c **** 
 3234              		.loc 1 315 3 discriminator 3 view .LVU649
 318:/home/hkh/git/eapidk-code-r76-trunk/apps/EeePProg/linux/../EeePProg.c ****   return StatusCode;
 3235              		.loc 1 318 3 discriminator 3 view .LVU650
 3236              	.LBB65:
 3237              	.LBI65:
 274:/home/hkh/git/eapidk-code-r76-trunk/apps/EeePProg/linux/../EeePProg.c ****     FILE **     FilePtr
 3238              		.loc 1 274 1 discriminator 3 view .LVU651
 3239              	.LBB66:
 278:/home/hkh/git/eapidk-code-r76-trunk/apps/EeePProg/linux/../EeePProg.c ****   if(LclFilePtr!=stdout&&LclFilePtr!=stderr&&LclFilePtr!=NULL){
ARM GAS  /tmp/ccqui9DH.s 			page 79


 3240              		.loc 1 278 3 discriminator 3 view .LVU652
 279:/home/hkh/git/eapidk-code-r76-trunk/apps/EeePProg/linux/../EeePProg.c ****     fclose(LclFilePtr);
 3241              		.loc 1 279 3 discriminator 3 view .LVU653
 279:/home/hkh/git/eapidk-code-r76-trunk/apps/EeePProg/linux/../EeePProg.c ****     fclose(LclFilePtr);
 3242              		.loc 1 279 5 is_stmt 0 discriminator 3 view .LVU654
 3243 15ac 060057E1 		cmp	r7, r6
 3244 15b0 0700000A 		beq	.L222
 279:/home/hkh/git/eapidk-code-r76-trunk/apps/EeePProg/linux/../EeePProg.c ****     fclose(LclFilePtr);
 3245              		.loc 1 279 36 view .LVU655
 3246 15b4 50319FE5 		ldr	r3, .L253+16
 3247 15b8 033095E7 		ldr	r3, [r5, r3]
 279:/home/hkh/git/eapidk-code-r76-trunk/apps/EeePProg/linux/../EeePProg.c ****     fclose(LclFilePtr);
 3248              		.loc 1 279 24 view .LVU656
 3249 15bc 003093E5 		ldr	r3, [r3]
 279:/home/hkh/git/eapidk-code-r76-trunk/apps/EeePProg/linux/../EeePProg.c ****     fclose(LclFilePtr);
 3250              		.loc 1 279 44 view .LVU657
 3251 15c0 070053E1 		cmp	r3, r7
 3252 15c4 00005713 		cmpne	r7, #0
 3253 15c8 0100000A 		beq	.L222
 280:/home/hkh/git/eapidk-code-r76-trunk/apps/EeePProg/linux/../EeePProg.c ****   };
 3254              		.loc 1 280 5 is_stmt 1 view .LVU658
 3255 15cc 0700A0E1 		mov	r0, r7
 3256 15d0 FEFFFFEB 		bl	fclose(PLT)
 3257              	.LVL243:
 281:/home/hkh/git/eapidk-code-r76-trunk/apps/EeePProg/linux/../EeePProg.c ****   *FilePtr=NULL;
 3258              		.loc 1 281 4 view .LVU659
 282:/home/hkh/git/eapidk-code-r76-trunk/apps/EeePProg/linux/../EeePProg.c ****   return EAPI_STATUS_SUCCESS;
 3259              		.loc 1 282 3 view .LVU660
 283:/home/hkh/git/eapidk-code-r76-trunk/apps/EeePProg/linux/../EeePProg.c **** }
 3260              		.loc 1 283 3 view .LVU661
 3261              	.LBE66:
 3262              	.LBE65:
 319:/home/hkh/git/eapidk-code-r76-trunk/apps/EeePProg/linux/../EeePProg.c **** }
 3263              		.loc 1 319 3 view .LVU662
 3264              	.L222:
 320:/home/hkh/git/eapidk-code-r76-trunk/apps/EeePProg/linux/../EeePProg.c **** EApiStatus_t 
 3265              		.loc 1 320 1 is_stmt 0 view .LVU663
 3266 15d4 0400A0E1 		mov	r0, r4
 3267 15d8 14D08DE2 		add	sp, sp, #20
 3268              		.cfi_remember_state
 3269              		.cfi_def_cfa_offset 20
 3270              		@ sp needed
 3271 15dc F080BDE8 		pop	{r4, r5, r6, r7, pc}
 3272              	.LVL244:
 3273              	.L251:
 3274              		.cfi_restore_state
 3275              	.LBB68:
 3276              	.LBB59:
 256:/home/hkh/git/eapidk-code-r76-trunk/apps/EeePProg/linux/../EeePProg.c ****      *FilePtr=stdout;
 3277              		.loc 1 256 13 view .LVU664
 3278 15e0 0130D4E5 		ldrb	r3, [r4, #1]	@ zero_extendqisi2
 3279 15e4 310053E3 		cmp	r3, #49
 3280 15e8 E2FFFF1A 		bne	.L233
 3281 15ec 0230D4E5 		ldrb	r3, [r4, #2]	@ zero_extendqisi2
 256:/home/hkh/git/eapidk-code-r76-trunk/apps/EeePProg/linux/../EeePProg.c ****      *FilePtr=stdout;
 3282              		.loc 1 256 11 view .LVU665
 3283 15f0 000053E3 		cmp	r3, #0
ARM GAS  /tmp/ccqui9DH.s 			page 80


 3284 15f4 DFFFFF1A 		bne	.L233
 3285              	.L223:
 3286              	.LVL245:
 256:/home/hkh/git/eapidk-code-r76-trunk/apps/EeePProg/linux/../EeePProg.c ****      *FilePtr=stdout;
 3287              		.loc 1 256 11 view .LVU666
 3288              	.LBE59:
 3289              	.LBE68:
 314:/home/hkh/git/eapidk-code-r76-trunk/apps/EeePProg/linux/../EeePProg.c ****   DO(EeeP_CreateCOM0R20_CBCfg(lclStream));
 3290              		.loc 1 314 3 is_stmt 1 view .LVU667
 315:/home/hkh/git/eapidk-code-r76-trunk/apps/EeePProg/linux/../EeePProg.c **** 
 3291              		.loc 1 315 3 view .LVU668
 315:/home/hkh/git/eapidk-code-r76-trunk/apps/EeePProg/linux/../EeePProg.c **** 
 3292              		.loc 1 315 3 view .LVU669
 3293 15f8 0600A0E1 		mov	r0, r6
 3294 15fc FEFFFFEB 		bl	EeeP_CreateCOM0R20_CBCfg(PLT)
 3295              	.LVL246:
 315:/home/hkh/git/eapidk-code-r76-trunk/apps/EeePProg/linux/../EeePProg.c **** 
 3296              		.loc 1 315 3 view .LVU670
 3297 1600 004050E2 		subs	r4, r0, #0
 3298 1604 0670A011 		movne	r7, r6
 3299 1608 F1FFFF0A 		beq	.L222
 3300              	.L231:
 315:/home/hkh/git/eapidk-code-r76-trunk/apps/EeePProg/linux/../EeePProg.c **** 
 3301              		.loc 1 315 3 discriminator 1 view .LVU671
 3302 160c FC309FE5 		ldr	r3, .L253+20
 3303 1610 4500A0E3 		mov	r0, #69
 3304              	.LVL247:
 315:/home/hkh/git/eapidk-code-r76-trunk/apps/EeePProg/linux/../EeePProg.c **** 
 3305              		.loc 1 315 3 is_stmt 0 discriminator 1 view .LVU672
 3306 1614 F8209FE5 		ldr	r2, .L253+24
 3307 1618 F8109FE5 		ldr	r1, .L253+28
 3308              	.LPIC189:
 3309 161c 03308FE0 		add	r3, pc, r3
 3310 1620 00408DE5 		str	r4, [sp]
 3311 1624 08308DE5 		str	r3, [sp, #8]
 3312              	.LPIC187:
 3313 1628 02208FE0 		add	r2, pc, r2
 3314 162c E8309FE5 		ldr	r3, .L253+32
 3315              	.LPIC188:
 3316 1630 01108FE0 		add	r1, pc, r1
 3317              	.LPIC190:
 3318 1634 03308FE0 		add	r3, pc, r3
 3319 1638 04308DE5 		str	r3, [sp, #4]
 3320 163c 3B3100E3 		movw	r3, #315
 3321 1640 FEFFFFEB 		bl	siFormattedMessage_SC(PLT)
 3322              	.LVL248:
 315:/home/hkh/git/eapidk-code-r76-trunk/apps/EeePProg/linux/../EeePProg.c **** 
 3323              		.loc 1 315 3 is_stmt 1 discriminator 1 view .LVU673
 3324 1644 D8FFFFEA 		b	.L230
 3325              	.LVL249:
 3326              	.L225:
 3327              	.LBB69:
 3328              	.LBB60:
 260:/home/hkh/git/eapidk-code-r76-trunk/apps/EeePProg/linux/../EeePProg.c ****      *FilePtr=stderr;
 3329              		.loc 1 260 9 view .LVU674
 260:/home/hkh/git/eapidk-code-r76-trunk/apps/EeePProg/linux/../EeePProg.c ****      *FilePtr=stderr;
 3330              		.loc 1 260 13 is_stmt 0 view .LVU675
ARM GAS  /tmp/ccqui9DH.s 			page 81


 3331 1648 260057E3 		cmp	r7, #38
 3332 164c 2300000A 		beq	.L252
 3333              	.L234:
 3334              	.LVL250:
 3335              	.LBB54:
 3336              	.LBI54:
 248:/home/hkh/git/eapidk-code-r76-trunk/apps/EeePProg/linux/../EeePProg.c ****     const char *Destination,
 3337              		.loc 1 248 1 is_stmt 1 view .LVU676
 3338              	.LBB55:
 263:/home/hkh/git/eapidk-code-r76-trunk/apps/EeePProg/linux/../EeePProg.c ****     EAPI_APP_RETURN_ERROR_IF_S(
 3339              		.loc 1 263 5 view .LVU677
 263:/home/hkh/git/eapidk-code-r76-trunk/apps/EeePProg/linux/../EeePProg.c ****     EAPI_APP_RETURN_ERROR_IF_S(
 3340              		.loc 1 263 14 is_stmt 0 view .LVU678
 3341 1650 C8109FE5 		ldr	r1, .L253+36
 3342 1654 0400A0E1 		mov	r0, r4
 3343              	.LPIC178:
 3344 1658 01108FE0 		add	r1, pc, r1
 3345 165c FEFFFFEB 		bl	fopen(PLT)
 3346              	.LVL251:
 264:/home/hkh/git/eapidk-code-r76-trunk/apps/EeePProg/linux/../EeePProg.c ****          CreateTxtFilePtr,
 3347              		.loc 1 264 5 is_stmt 1 view .LVU679
 3348 1660 007050E2 		subs	r7, r0, #0
 3349 1664 CCFFFF1A 		bne	.L226
 264:/home/hkh/git/eapidk-code-r76-trunk/apps/EeePProg/linux/../EeePProg.c ****          CreateTxtFilePtr,
 3350              		.loc 1 264 5 view .LVU680
 264:/home/hkh/git/eapidk-code-r76-trunk/apps/EeePProg/linux/../EeePProg.c ****          CreateTxtFilePtr,
 3351              		.loc 1 264 5 view .LVU681
 3352 1668 B4209FE5 		ldr	r2, .L253+40
 3353 166c FE4A0FE3 		movw	r4, #64254
 3354              	.LVL252:
 264:/home/hkh/git/eapidk-code-r76-trunk/apps/EeePProg/linux/../EeePProg.c ****          CreateTxtFilePtr,
 3355              		.loc 1 264 5 is_stmt 0 view .LVU682
 3356 1670 B0609FE5 		ldr	r6, .L253+44
 3357 1674 FF4F4FE3 		movt	r4, 65535
 3358 1678 AC509FE5 		ldr	r5, .L253+48
 3359 167c 423FA0E3 		mov	r3, #264
 3360              	.LPIC181:
 3361 1680 02208FE0 		add	r2, pc, r2
 3362 1684 4500A0E3 		mov	r0, #69
 3363              	.LVL253:
 264:/home/hkh/git/eapidk-code-r76-trunk/apps/EeePProg/linux/../EeePProg.c ****          CreateTxtFilePtr,
 3364              		.loc 1 264 5 view .LVU683
 3365 1688 08208DE5 		str	r2, [sp, #8]
 3366              	.LPIC180:
 3367 168c 06608FE0 		add	r6, pc, r6
 3368 1690 98209FE5 		ldr	r2, .L253+52
 3369              	.LPIC182:
 3370 1694 05508FE0 		add	r5, pc, r5
 3371 1698 0610A0E1 		mov	r1, r6
 3372 169c F040CDE1 		strd	r4, [sp]
 3373              	.LPIC179:
 3374 16a0 02208FE0 		add	r2, pc, r2
 3375 16a4 FEFFFFEB 		bl	siFormattedMessage_SC(PLT)
 3376              	.LVL254:
 264:/home/hkh/git/eapidk-code-r76-trunk/apps/EeePProg/linux/../EeePProg.c ****          CreateTxtFilePtr,
 3377              		.loc 1 264 5 is_stmt 1 view .LVU684
 264:/home/hkh/git/eapidk-code-r76-trunk/apps/EeePProg/linux/../EeePProg.c ****          CreateTxtFilePtr,
ARM GAS  /tmp/ccqui9DH.s 			page 82


 3378              		.loc 1 264 5 view .LVU685
 264:/home/hkh/git/eapidk-code-r76-trunk/apps/EeePProg/linux/../EeePProg.c ****          CreateTxtFilePtr,
 3379              		.loc 1 264 5 view .LVU686
 264:/home/hkh/git/eapidk-code-r76-trunk/apps/EeePProg/linux/../EeePProg.c ****          CreateTxtFilePtr,
 3380              		.loc 1 264 5 is_stmt 0 view .LVU687
 3381              	.LBE55:
 3382              	.LBE54:
 264:/home/hkh/git/eapidk-code-r76-trunk/apps/EeePProg/linux/../EeePProg.c ****          CreateTxtFilePtr,
 3383              		.loc 1 264 5 is_stmt 1 view .LVU688
 268:/home/hkh/git/eapidk-code-r76-trunk/apps/EeePProg/linux/../EeePProg.c ****   }
 3384              		.loc 1 268 8 view .LVU689
 271:/home/hkh/git/eapidk-code-r76-trunk/apps/EeePProg/linux/../EeePProg.c **** }
 3385              		.loc 1 271 3 view .LVU690
 271:/home/hkh/git/eapidk-code-r76-trunk/apps/EeePProg/linux/../EeePProg.c **** }
 3386              		.loc 1 271 3 is_stmt 0 view .LVU691
 3387              	.LBE60:
 3388              	.LBE69:
 314:/home/hkh/git/eapidk-code-r76-trunk/apps/EeePProg/linux/../EeePProg.c ****   DO(EeeP_CreateCOM0R20_CBCfg(lclStream));
 3389              		.loc 1 314 3 is_stmt 1 view .LVU692
 314:/home/hkh/git/eapidk-code-r76-trunk/apps/EeePProg/linux/../EeePProg.c ****   DO(EeeP_CreateCOM0R20_CBCfg(lclStream));
 3390              		.loc 1 314 3 view .LVU693
 3391 16a8 84009FE5 		ldr	r0, .L253+56
 3392 16ac 3A3100E3 		movw	r3, #314
 3393 16b0 80209FE5 		ldr	r2, .L253+60
 3394 16b4 0610A0E1 		mov	r1, r6
 3395 16b8 04508DE5 		str	r5, [sp, #4]
 3396              	.LPIC185:
 3397 16bc 00008FE0 		add	r0, pc, r0
 3398 16c0 00408DE5 		str	r4, [sp]
 3399 16c4 08008DE5 		str	r0, [sp, #8]
 3400              	.LPIC183:
 3401 16c8 02208FE0 		add	r2, pc, r2
 3402 16cc 4500A0E3 		mov	r0, #69
 3403 16d0 FEFFFFEB 		bl	siFormattedMessage_SC(PLT)
 3404              	.LVL255:
 314:/home/hkh/git/eapidk-code-r76-trunk/apps/EeePProg/linux/../EeePProg.c ****   DO(EeeP_CreateCOM0R20_CBCfg(lclStream));
 3405              		.loc 1 314 3 view .LVU694
 315:/home/hkh/git/eapidk-code-r76-trunk/apps/EeePProg/linux/../EeePProg.c **** 
 3406              		.loc 1 315 3 view .LVU695
 318:/home/hkh/git/eapidk-code-r76-trunk/apps/EeePProg/linux/../EeePProg.c ****   return StatusCode;
 3407              		.loc 1 318 3 view .LVU696
 3408              	.LBB70:
 274:/home/hkh/git/eapidk-code-r76-trunk/apps/EeePProg/linux/../EeePProg.c ****     FILE **     FilePtr
 3409              		.loc 1 274 1 view .LVU697
 3410              	.LBB67:
 278:/home/hkh/git/eapidk-code-r76-trunk/apps/EeePProg/linux/../EeePProg.c ****   if(LclFilePtr!=stdout&&LclFilePtr!=stderr&&LclFilePtr!=NULL){
 3411              		.loc 1 278 3 view .LVU698
 279:/home/hkh/git/eapidk-code-r76-trunk/apps/EeePProg/linux/../EeePProg.c ****     fclose(LclFilePtr);
 3412              		.loc 1 279 3 view .LVU699
 3413              	.LBE67:
 3414              	.LBE70:
 320:/home/hkh/git/eapidk-code-r76-trunk/apps/EeePProg/linux/../EeePProg.c **** EApiStatus_t 
 3415              		.loc 1 320 1 is_stmt 0 view .LVU700
 3416 16d4 0400A0E1 		mov	r0, r4
 3417 16d8 14D08DE2 		add	sp, sp, #20
 3418              		.cfi_remember_state
 3419              		.cfi_def_cfa_offset 20
ARM GAS  /tmp/ccqui9DH.s 			page 83


 3420              		@ sp needed
 3421 16dc F080BDE8 		pop	{r4, r5, r6, r7, pc}
 3422              	.LVL256:
 3423              	.L252:
 3424              		.cfi_restore_state
 3425              	.LBB71:
 3426              	.LBB61:
 260:/home/hkh/git/eapidk-code-r76-trunk/apps/EeePProg/linux/../EeePProg.c ****      *FilePtr=stderr;
 3427              		.loc 1 260 13 view .LVU701
 3428 16e0 0130D4E5 		ldrb	r3, [r4, #1]	@ zero_extendqisi2
 3429 16e4 320053E3 		cmp	r3, #50
 3430 16e8 D8FFFF1A 		bne	.L234
 3431 16ec 0230D4E5 		ldrb	r3, [r4, #2]	@ zero_extendqisi2
 260:/home/hkh/git/eapidk-code-r76-trunk/apps/EeePProg/linux/../EeePProg.c ****      *FilePtr=stderr;
 3432              		.loc 1 260 11 view .LVU702
 3433 16f0 000053E3 		cmp	r3, #0
 3434 16f4 A5FFFF0A 		beq	.L228
 3435 16f8 D4FFFFEA 		b	.L234
 3436              	.L254:
 3437              		.align	2
 3438              	.L253:
 3439 16fc AC010000 		.word	.LC29-(.LPIC175+8)
 3440 1700 A0010000 		.word	_GLOBAL_OFFSET_TABLE_-(.LPIC176+8)
 3441 1704 00000000 		.word	stdout(GOT)
 3442 1708 80010000 		.word	.LC30-(.LPIC177+8)
 3443 170c 00000000 		.word	stderr(GOT)
 3444 1710 EC000000 		.word	.LC35-(.LPIC189+8)
 3445 1714 E4000000 		.word	.LC0-(.LPIC187+8)
 3446 1718 E0000000 		.word	.LC1-(.LPIC188+8)
 3447 171c E0000000 		.word	.LC3-(.LPIC190+8)
 3448 1720 C0000000 		.word	.LC31-(.LPIC178+8)
 3449 1724 9C000000 		.word	.LC33-(.LPIC181+8)
 3450 1728 94000000 		.word	.LC1-(.LPIC180+8)
 3451 172c 90000000 		.word	.LC3-(.LPIC182+8)
 3452 1730 88000000 		.word	.LC32-(.LPIC179+8)
 3453 1734 70000000 		.word	.LC34-(.LPIC185+8)
 3454 1738 68000000 		.word	.LC0-(.LPIC183+8)
 3455              	.LBE61:
 3456              	.LBE71:
 3457              		.cfi_endproc
 3458              	.LFE4:
 3460              		.section	.rodata.str1.4
 3461              		.align	2
 3462              	.LC36:
 3463 0734 45656550 		.ascii	"EeeP_CreateEeePExtEEPCfg(lclStream)\000"
 3463      5F437265 
 3463      61746545 
 3463      65655045 
 3463      78744545 
 3464              		.text
 3465              		.align	2
 3466              		.global	CMD_CreateCOM0R20_EeePExtCfg
 3467              		.syntax unified
 3468              		.arm
 3469              		.fpu vfpv3
 3471              	CMD_CreateCOM0R20_EeePExtCfg:
 3472              	.LVL257:
ARM GAS  /tmp/ccqui9DH.s 			page 84


 3473              	.LFB5:
 325:/home/hkh/git/eapidk-code-r76-trunk/apps/EeePProg/linux/../EeePProg.c ****   EApiStatus_t StatusCode=EAPI_STATUS_SUCCESS;
 3474              		.loc 1 325 1 is_stmt 1 view -0
 3475              		.cfi_startproc
 3476              		@ args = 0, pretend = 0, frame = 0
 3477              		@ frame_needed = 0, uses_anonymous_args = 0
 326:/home/hkh/git/eapidk-code-r76-trunk/apps/EeePProg/linux/../EeePProg.c ****   FILE *lclStream=NULL;
 3478              		.loc 1 326 3 view .LVU704
 327:/home/hkh/git/eapidk-code-r76-trunk/apps/EeePProg/linux/../EeePProg.c **** 
 3479              		.loc 1 327 3 view .LVU705
 329:/home/hkh/git/eapidk-code-r76-trunk/apps/EeePProg/linux/../EeePProg.c ****   DO(EeeP_CreateEeePExtEEPCfg(lclStream));
 3480              		.loc 1 329 3 view .LVU706
 329:/home/hkh/git/eapidk-code-r76-trunk/apps/EeePProg/linux/../EeePProg.c ****   DO(EeeP_CreateEeePExtEEPCfg(lclStream));
 3481              		.loc 1 329 3 view .LVU707
 325:/home/hkh/git/eapidk-code-r76-trunk/apps/EeePProg/linux/../EeePProg.c ****   EApiStatus_t StatusCode=EAPI_STATUS_SUCCESS;
 3482              		.loc 1 325 1 is_stmt 0 view .LVU708
 3483 173c F0402DE9 		push	{r4, r5, r6, r7, lr}
 3484              		.cfi_def_cfa_offset 20
 3485              		.cfi_offset 4, -20
 3486              		.cfi_offset 5, -16
 3487              		.cfi_offset 6, -12
 3488              		.cfi_offset 7, -8
 3489              		.cfi_offset 14, -4
 3490 1740 14D04DE2 		sub	sp, sp, #20
 3491              		.cfi_def_cfa_offset 40
 3492              	.LBB78:
 3493              	.LBB79:
 254:/home/hkh/git/eapidk-code-r76-trunk/apps/EeePProg/linux/../EeePProg.c ****      *FilePtr=stdout;
 3494              		.loc 1 254 7 view .LVU709
 3495 1744 B8119FE5 		ldr	r1, .L286
 3496              	.LBE79:
 3497              	.LBE78:
 329:/home/hkh/git/eapidk-code-r76-trunk/apps/EeePProg/linux/../EeePProg.c ****   DO(EeeP_CreateEeePExtEEPCfg(lclStream));
 3498              		.loc 1 329 3 view .LVU710
 3499 1748 004090E5 		ldr	r4, [r0]
 3500              	.LVL258:
 3501              	.LBB88:
 3502              	.LBI78:
 248:/home/hkh/git/eapidk-code-r76-trunk/apps/EeePProg/linux/../EeePProg.c ****     const char *Destination,
 3503              		.loc 1 248 1 is_stmt 1 view .LVU711
 3504              	.LBB82:
 253:/home/hkh/git/eapidk-code-r76-trunk/apps/EeePProg/linux/../EeePProg.c ****   if(!strcmp(Destination, "stdout")){
 3505              		.loc 1 253 3 view .LVU712
 254:/home/hkh/git/eapidk-code-r76-trunk/apps/EeePProg/linux/../EeePProg.c ****      *FilePtr=stdout;
 3506              		.loc 1 254 3 view .LVU713
 3507              	.LBE82:
 3508              	.LBE88:
 325:/home/hkh/git/eapidk-code-r76-trunk/apps/EeePProg/linux/../EeePProg.c ****   EApiStatus_t StatusCode=EAPI_STATUS_SUCCESS;
 3509              		.loc 1 325 1 is_stmt 0 view .LVU714
 3510 174c B4519FE5 		ldr	r5, .L286+4
 3511              	.LBB89:
 3512              	.LBB83:
 254:/home/hkh/git/eapidk-code-r76-trunk/apps/EeePProg/linux/../EeePProg.c ****      *FilePtr=stdout;
 3513              		.loc 1 254 7 view .LVU715
 3514              	.LPIC191:
 3515 1750 01108FE0 		add	r1, pc, r1
 3516 1754 0400A0E1 		mov	r0, r4
ARM GAS  /tmp/ccqui9DH.s 			page 85


 3517              	.LVL259:
 254:/home/hkh/git/eapidk-code-r76-trunk/apps/EeePProg/linux/../EeePProg.c ****      *FilePtr=stdout;
 3518              		.loc 1 254 7 view .LVU716
 3519 1758 FEFFFFEB 		bl	strcmp(PLT)
 3520              	.LVL260:
 255:/home/hkh/git/eapidk-code-r76-trunk/apps/EeePProg/linux/../EeePProg.c ****   }else if(!strcmp(Destination, "&1")){
 3521              		.loc 1 255 14 view .LVU717
 3522 175c A8319FE5 		ldr	r3, .L286+8
 3523              	.LBE83:
 3524              	.LBE89:
 325:/home/hkh/git/eapidk-code-r76-trunk/apps/EeePProg/linux/../EeePProg.c ****   EApiStatus_t StatusCode=EAPI_STATUS_SUCCESS;
 3525              		.loc 1 325 1 view .LVU718
 3526              	.LPIC192:
 3527 1760 05508FE0 		add	r5, pc, r5
 3528              	.LBB90:
 3529              	.LBB84:
 254:/home/hkh/git/eapidk-code-r76-trunk/apps/EeePProg/linux/../EeePProg.c ****      *FilePtr=stdout;
 3530              		.loc 1 254 5 view .LVU719
 3531 1764 000050E3 		cmp	r0, #0
 255:/home/hkh/git/eapidk-code-r76-trunk/apps/EeePProg/linux/../EeePProg.c ****   }else if(!strcmp(Destination, "&1")){
 3532              		.loc 1 255 14 view .LVU720
 3533 1768 033095E7 		ldr	r3, [r5, r3]
 3534 176c 006093E5 		ldr	r6, [r3]
 254:/home/hkh/git/eapidk-code-r76-trunk/apps/EeePProg/linux/../EeePProg.c ****      *FilePtr=stdout;
 3535              		.loc 1 254 5 view .LVU721
 3536 1770 2200000A 		beq	.L256
 256:/home/hkh/git/eapidk-code-r76-trunk/apps/EeePProg/linux/../EeePProg.c ****      *FilePtr=stdout;
 3537              		.loc 1 256 9 is_stmt 1 view .LVU722
 256:/home/hkh/git/eapidk-code-r76-trunk/apps/EeePProg/linux/../EeePProg.c ****      *FilePtr=stdout;
 3538              		.loc 1 256 13 is_stmt 0 view .LVU723
 3539 1774 0070D4E5 		ldrb	r7, [r4]	@ zero_extendqisi2
 3540 1778 260057E3 		cmp	r7, #38
 3541 177c 1900000A 		beq	.L284
 3542              	.L266:
 258:/home/hkh/git/eapidk-code-r76-trunk/apps/EeePProg/linux/../EeePProg.c ****      *FilePtr=stderr;
 3543              		.loc 1 258 9 is_stmt 1 view .LVU724
 258:/home/hkh/git/eapidk-code-r76-trunk/apps/EeePProg/linux/../EeePProg.c ****      *FilePtr=stderr;
 3544              		.loc 1 258 13 is_stmt 0 view .LVU725
 3545 1780 88119FE5 		ldr	r1, .L286+12
 3546 1784 0400A0E1 		mov	r0, r4
 3547              	.LPIC193:
 3548 1788 01108FE0 		add	r1, pc, r1
 3549 178c FEFFFFEB 		bl	strcmp(PLT)
 3550              	.LVL261:
 258:/home/hkh/git/eapidk-code-r76-trunk/apps/EeePProg/linux/../EeePProg.c ****      *FilePtr=stderr;
 3551              		.loc 1 258 11 view .LVU726
 3552 1790 000050E3 		cmp	r0, #0
 3553 1794 2D00001A 		bne	.L258
 3554              	.L261:
 259:/home/hkh/git/eapidk-code-r76-trunk/apps/EeePProg/linux/../EeePProg.c ****   }else if(!strcmp(Destination, "&2")){
 3555              		.loc 1 259 6 is_stmt 1 view .LVU727
 259:/home/hkh/git/eapidk-code-r76-trunk/apps/EeePProg/linux/../EeePProg.c ****   }else if(!strcmp(Destination, "&2")){
 3556              		.loc 1 259 14 is_stmt 0 view .LVU728
 3557 1798 74319FE5 		ldr	r3, .L286+16
 3558 179c 033095E7 		ldr	r3, [r5, r3]
 3559 17a0 007093E5 		ldr	r7, [r3]
 3560              	.LVL262:
ARM GAS  /tmp/ccqui9DH.s 			page 86


 264:/home/hkh/git/eapidk-code-r76-trunk/apps/EeePProg/linux/../EeePProg.c ****          CreateTxtFilePtr,
 3561              		.loc 1 264 5 is_stmt 1 view .LVU729
 268:/home/hkh/git/eapidk-code-r76-trunk/apps/EeePProg/linux/../EeePProg.c ****   }
 3562              		.loc 1 268 8 view .LVU730
 271:/home/hkh/git/eapidk-code-r76-trunk/apps/EeePProg/linux/../EeePProg.c **** }
 3563              		.loc 1 271 3 view .LVU731
 271:/home/hkh/git/eapidk-code-r76-trunk/apps/EeePProg/linux/../EeePProg.c **** }
 3564              		.loc 1 271 3 is_stmt 0 view .LVU732
 3565              	.LBE84:
 3566              	.LBE90:
 329:/home/hkh/git/eapidk-code-r76-trunk/apps/EeePProg/linux/../EeePProg.c ****   DO(EeeP_CreateEeePExtEEPCfg(lclStream));
 3567              		.loc 1 329 3 is_stmt 1 view .LVU733
 3568              	.L259:
 329:/home/hkh/git/eapidk-code-r76-trunk/apps/EeePProg/linux/../EeePProg.c ****   DO(EeeP_CreateEeePExtEEPCfg(lclStream));
 3569              		.loc 1 329 3 discriminator 2 view .LVU734
 330:/home/hkh/git/eapidk-code-r76-trunk/apps/EeePProg/linux/../EeePProg.c **** 
 3570              		.loc 1 330 3 discriminator 2 view .LVU735
 330:/home/hkh/git/eapidk-code-r76-trunk/apps/EeePProg/linux/../EeePProg.c **** 
 3571              		.loc 1 330 3 discriminator 2 view .LVU736
 3572 17a4 0700A0E1 		mov	r0, r7
 3573 17a8 FEFFFFEB 		bl	EeeP_CreateEeePExtEEPCfg(PLT)
 3574              	.LVL263:
 330:/home/hkh/git/eapidk-code-r76-trunk/apps/EeePProg/linux/../EeePProg.c **** 
 3575              		.loc 1 330 3 discriminator 2 view .LVU737
 3576 17ac 004050E2 		subs	r4, r0, #0
 3577 17b0 1700001A 		bne	.L264
 3578              	.LVL264:
 3579              	.L263:
 330:/home/hkh/git/eapidk-code-r76-trunk/apps/EeePProg/linux/../EeePProg.c **** 
 3580              		.loc 1 330 3 discriminator 3 view .LVU738
 333:/home/hkh/git/eapidk-code-r76-trunk/apps/EeePProg/linux/../EeePProg.c ****   return StatusCode;
 3581              		.loc 1 333 3 discriminator 3 view .LVU739
 3582              	.LBB91:
 3583              	.LBI91:
 274:/home/hkh/git/eapidk-code-r76-trunk/apps/EeePProg/linux/../EeePProg.c ****     FILE **     FilePtr
 3584              		.loc 1 274 1 discriminator 3 view .LVU740
 3585              	.LBB92:
 278:/home/hkh/git/eapidk-code-r76-trunk/apps/EeePProg/linux/../EeePProg.c ****   if(LclFilePtr!=stdout&&LclFilePtr!=stderr&&LclFilePtr!=NULL){
 3586              		.loc 1 278 3 discriminator 3 view .LVU741
 279:/home/hkh/git/eapidk-code-r76-trunk/apps/EeePProg/linux/../EeePProg.c ****     fclose(LclFilePtr);
 3587              		.loc 1 279 3 discriminator 3 view .LVU742
 279:/home/hkh/git/eapidk-code-r76-trunk/apps/EeePProg/linux/../EeePProg.c ****     fclose(LclFilePtr);
 3588              		.loc 1 279 5 is_stmt 0 discriminator 3 view .LVU743
 3589 17b4 060057E1 		cmp	r7, r6
 3590 17b8 0700000A 		beq	.L255
 279:/home/hkh/git/eapidk-code-r76-trunk/apps/EeePProg/linux/../EeePProg.c ****     fclose(LclFilePtr);
 3591              		.loc 1 279 36 view .LVU744
 3592 17bc 50319FE5 		ldr	r3, .L286+16
 3593 17c0 033095E7 		ldr	r3, [r5, r3]
 279:/home/hkh/git/eapidk-code-r76-trunk/apps/EeePProg/linux/../EeePProg.c ****     fclose(LclFilePtr);
 3594              		.loc 1 279 24 view .LVU745
 3595 17c4 003093E5 		ldr	r3, [r3]
 279:/home/hkh/git/eapidk-code-r76-trunk/apps/EeePProg/linux/../EeePProg.c ****     fclose(LclFilePtr);
 3596              		.loc 1 279 44 view .LVU746
 3597 17c8 070053E1 		cmp	r3, r7
 3598 17cc 00005713 		cmpne	r7, #0
 3599 17d0 0100000A 		beq	.L255
ARM GAS  /tmp/ccqui9DH.s 			page 87


 280:/home/hkh/git/eapidk-code-r76-trunk/apps/EeePProg/linux/../EeePProg.c ****   };
 3600              		.loc 1 280 5 is_stmt 1 view .LVU747
 3601 17d4 0700A0E1 		mov	r0, r7
 3602 17d8 FEFFFFEB 		bl	fclose(PLT)
 3603              	.LVL265:
 281:/home/hkh/git/eapidk-code-r76-trunk/apps/EeePProg/linux/../EeePProg.c ****   *FilePtr=NULL;
 3604              		.loc 1 281 4 view .LVU748
 282:/home/hkh/git/eapidk-code-r76-trunk/apps/EeePProg/linux/../EeePProg.c ****   return EAPI_STATUS_SUCCESS;
 3605              		.loc 1 282 3 view .LVU749
 283:/home/hkh/git/eapidk-code-r76-trunk/apps/EeePProg/linux/../EeePProg.c **** }
 3606              		.loc 1 283 3 view .LVU750
 3607              	.LBE92:
 3608              	.LBE91:
 334:/home/hkh/git/eapidk-code-r76-trunk/apps/EeePProg/linux/../EeePProg.c **** }
 3609              		.loc 1 334 3 view .LVU751
 3610              	.L255:
 335:/home/hkh/git/eapidk-code-r76-trunk/apps/EeePProg/linux/../EeePProg.c **** 
 3611              		.loc 1 335 1 is_stmt 0 view .LVU752
 3612 17dc 0400A0E1 		mov	r0, r4
 3613 17e0 14D08DE2 		add	sp, sp, #20
 3614              		.cfi_remember_state
 3615              		.cfi_def_cfa_offset 20
 3616              		@ sp needed
 3617 17e4 F080BDE8 		pop	{r4, r5, r6, r7, pc}
 3618              	.LVL266:
 3619              	.L284:
 3620              		.cfi_restore_state
 3621              	.LBB94:
 3622              	.LBB85:
 256:/home/hkh/git/eapidk-code-r76-trunk/apps/EeePProg/linux/../EeePProg.c ****      *FilePtr=stdout;
 3623              		.loc 1 256 13 view .LVU753
 3624 17e8 0130D4E5 		ldrb	r3, [r4, #1]	@ zero_extendqisi2
 3625 17ec 310053E3 		cmp	r3, #49
 3626 17f0 E2FFFF1A 		bne	.L266
 3627 17f4 0230D4E5 		ldrb	r3, [r4, #2]	@ zero_extendqisi2
 256:/home/hkh/git/eapidk-code-r76-trunk/apps/EeePProg/linux/../EeePProg.c ****      *FilePtr=stdout;
 3628              		.loc 1 256 11 view .LVU754
 3629 17f8 000053E3 		cmp	r3, #0
 3630 17fc DFFFFF1A 		bne	.L266
 3631              	.L256:
 3632              	.LVL267:
 256:/home/hkh/git/eapidk-code-r76-trunk/apps/EeePProg/linux/../EeePProg.c ****      *FilePtr=stdout;
 3633              		.loc 1 256 11 view .LVU755
 3634              	.LBE85:
 3635              	.LBE94:
 329:/home/hkh/git/eapidk-code-r76-trunk/apps/EeePProg/linux/../EeePProg.c ****   DO(EeeP_CreateEeePExtEEPCfg(lclStream));
 3636              		.loc 1 329 3 is_stmt 1 view .LVU756
 330:/home/hkh/git/eapidk-code-r76-trunk/apps/EeePProg/linux/../EeePProg.c **** 
 3637              		.loc 1 330 3 view .LVU757
 330:/home/hkh/git/eapidk-code-r76-trunk/apps/EeePProg/linux/../EeePProg.c **** 
 3638              		.loc 1 330 3 view .LVU758
 3639 1800 0600A0E1 		mov	r0, r6
 3640 1804 FEFFFFEB 		bl	EeeP_CreateEeePExtEEPCfg(PLT)
 3641              	.LVL268:
 330:/home/hkh/git/eapidk-code-r76-trunk/apps/EeePProg/linux/../EeePProg.c **** 
 3642              		.loc 1 330 3 view .LVU759
 3643 1808 004050E2 		subs	r4, r0, #0
ARM GAS  /tmp/ccqui9DH.s 			page 88


 3644 180c 0670A011 		movne	r7, r6
 3645 1810 F1FFFF0A 		beq	.L255
 3646              	.L264:
 330:/home/hkh/git/eapidk-code-r76-trunk/apps/EeePProg/linux/../EeePProg.c **** 
 3647              		.loc 1 330 3 discriminator 1 view .LVU760
 3648 1814 FC309FE5 		ldr	r3, .L286+20
 3649 1818 4500A0E3 		mov	r0, #69
 3650              	.LVL269:
 330:/home/hkh/git/eapidk-code-r76-trunk/apps/EeePProg/linux/../EeePProg.c **** 
 3651              		.loc 1 330 3 is_stmt 0 discriminator 1 view .LVU761
 3652 181c F8209FE5 		ldr	r2, .L286+24
 3653 1820 F8109FE5 		ldr	r1, .L286+28
 3654              	.LPIC205:
 3655 1824 03308FE0 		add	r3, pc, r3
 3656 1828 00408DE5 		str	r4, [sp]
 3657 182c 08308DE5 		str	r3, [sp, #8]
 3658              	.LPIC203:
 3659 1830 02208FE0 		add	r2, pc, r2
 3660 1834 E8309FE5 		ldr	r3, .L286+32
 3661              	.LPIC204:
 3662 1838 01108FE0 		add	r1, pc, r1
 3663              	.LPIC206:
 3664 183c 03308FE0 		add	r3, pc, r3
 3665 1840 04308DE5 		str	r3, [sp, #4]
 3666 1844 4A3100E3 		movw	r3, #330
 3667 1848 FEFFFFEB 		bl	siFormattedMessage_SC(PLT)
 3668              	.LVL270:
 330:/home/hkh/git/eapidk-code-r76-trunk/apps/EeePProg/linux/../EeePProg.c **** 
 3669              		.loc 1 330 3 is_stmt 1 discriminator 1 view .LVU762
 3670 184c D8FFFFEA 		b	.L263
 3671              	.LVL271:
 3672              	.L258:
 3673              	.LBB95:
 3674              	.LBB86:
 260:/home/hkh/git/eapidk-code-r76-trunk/apps/EeePProg/linux/../EeePProg.c ****      *FilePtr=stderr;
 3675              		.loc 1 260 9 view .LVU763
 260:/home/hkh/git/eapidk-code-r76-trunk/apps/EeePProg/linux/../EeePProg.c ****      *FilePtr=stderr;
 3676              		.loc 1 260 13 is_stmt 0 view .LVU764
 3677 1850 260057E3 		cmp	r7, #38
 3678 1854 2300000A 		beq	.L285
 3679              	.L267:
 3680              	.LVL272:
 3681              	.LBB80:
 3682              	.LBI80:
 248:/home/hkh/git/eapidk-code-r76-trunk/apps/EeePProg/linux/../EeePProg.c ****     const char *Destination,
 3683              		.loc 1 248 1 is_stmt 1 view .LVU765
 3684              	.LBB81:
 263:/home/hkh/git/eapidk-code-r76-trunk/apps/EeePProg/linux/../EeePProg.c ****     EAPI_APP_RETURN_ERROR_IF_S(
 3685              		.loc 1 263 5 view .LVU766
 263:/home/hkh/git/eapidk-code-r76-trunk/apps/EeePProg/linux/../EeePProg.c ****     EAPI_APP_RETURN_ERROR_IF_S(
 3686              		.loc 1 263 14 is_stmt 0 view .LVU767
 3687 1858 C8109FE5 		ldr	r1, .L286+36
 3688 185c 0400A0E1 		mov	r0, r4
 3689              	.LPIC194:
 3690 1860 01108FE0 		add	r1, pc, r1
 3691 1864 FEFFFFEB 		bl	fopen(PLT)
 3692              	.LVL273:
ARM GAS  /tmp/ccqui9DH.s 			page 89


 264:/home/hkh/git/eapidk-code-r76-trunk/apps/EeePProg/linux/../EeePProg.c ****          CreateTxtFilePtr,
 3693              		.loc 1 264 5 is_stmt 1 view .LVU768
 3694 1868 007050E2 		subs	r7, r0, #0
 3695 186c CCFFFF1A 		bne	.L259
 264:/home/hkh/git/eapidk-code-r76-trunk/apps/EeePProg/linux/../EeePProg.c ****          CreateTxtFilePtr,
 3696              		.loc 1 264 5 view .LVU769
 264:/home/hkh/git/eapidk-code-r76-trunk/apps/EeePProg/linux/../EeePProg.c ****          CreateTxtFilePtr,
 3697              		.loc 1 264 5 view .LVU770
 3698 1870 B4209FE5 		ldr	r2, .L286+40
 3699 1874 FE4A0FE3 		movw	r4, #64254
 3700              	.LVL274:
 264:/home/hkh/git/eapidk-code-r76-trunk/apps/EeePProg/linux/../EeePProg.c ****          CreateTxtFilePtr,
 3701              		.loc 1 264 5 is_stmt 0 view .LVU771
 3702 1878 B0609FE5 		ldr	r6, .L286+44
 3703 187c FF4F4FE3 		movt	r4, 65535
 3704 1880 AC509FE5 		ldr	r5, .L286+48
 3705 1884 423FA0E3 		mov	r3, #264
 3706              	.LPIC197:
 3707 1888 02208FE0 		add	r2, pc, r2
 3708 188c 4500A0E3 		mov	r0, #69
 3709              	.LVL275:
 264:/home/hkh/git/eapidk-code-r76-trunk/apps/EeePProg/linux/../EeePProg.c ****          CreateTxtFilePtr,
 3710              		.loc 1 264 5 view .LVU772
 3711 1890 08208DE5 		str	r2, [sp, #8]
 3712              	.LPIC196:
 3713 1894 06608FE0 		add	r6, pc, r6
 3714 1898 98209FE5 		ldr	r2, .L286+52
 3715              	.LPIC198:
 3716 189c 05508FE0 		add	r5, pc, r5
 3717 18a0 0610A0E1 		mov	r1, r6
 3718 18a4 F040CDE1 		strd	r4, [sp]
 3719              	.LPIC195:
 3720 18a8 02208FE0 		add	r2, pc, r2
 3721 18ac FEFFFFEB 		bl	siFormattedMessage_SC(PLT)
 3722              	.LVL276:
 264:/home/hkh/git/eapidk-code-r76-trunk/apps/EeePProg/linux/../EeePProg.c ****          CreateTxtFilePtr,
 3723              		.loc 1 264 5 is_stmt 1 view .LVU773
 264:/home/hkh/git/eapidk-code-r76-trunk/apps/EeePProg/linux/../EeePProg.c ****          CreateTxtFilePtr,
 3724              		.loc 1 264 5 view .LVU774
 264:/home/hkh/git/eapidk-code-r76-trunk/apps/EeePProg/linux/../EeePProg.c ****          CreateTxtFilePtr,
 3725              		.loc 1 264 5 view .LVU775
 264:/home/hkh/git/eapidk-code-r76-trunk/apps/EeePProg/linux/../EeePProg.c ****          CreateTxtFilePtr,
 3726              		.loc 1 264 5 is_stmt 0 view .LVU776
 3727              	.LBE81:
 3728              	.LBE80:
 264:/home/hkh/git/eapidk-code-r76-trunk/apps/EeePProg/linux/../EeePProg.c ****          CreateTxtFilePtr,
 3729              		.loc 1 264 5 is_stmt 1 view .LVU777
 268:/home/hkh/git/eapidk-code-r76-trunk/apps/EeePProg/linux/../EeePProg.c ****   }
 3730              		.loc 1 268 8 view .LVU778
 271:/home/hkh/git/eapidk-code-r76-trunk/apps/EeePProg/linux/../EeePProg.c **** }
 3731              		.loc 1 271 3 view .LVU779
 271:/home/hkh/git/eapidk-code-r76-trunk/apps/EeePProg/linux/../EeePProg.c **** }
 3732              		.loc 1 271 3 is_stmt 0 view .LVU780
 3733              	.LBE86:
 3734              	.LBE95:
 329:/home/hkh/git/eapidk-code-r76-trunk/apps/EeePProg/linux/../EeePProg.c ****   DO(EeeP_CreateEeePExtEEPCfg(lclStream));
 3735              		.loc 1 329 3 is_stmt 1 view .LVU781
ARM GAS  /tmp/ccqui9DH.s 			page 90


 329:/home/hkh/git/eapidk-code-r76-trunk/apps/EeePProg/linux/../EeePProg.c ****   DO(EeeP_CreateEeePExtEEPCfg(lclStream));
 3736              		.loc 1 329 3 view .LVU782
 3737 18b0 84009FE5 		ldr	r0, .L286+56
 3738 18b4 493100E3 		movw	r3, #329
 3739 18b8 80209FE5 		ldr	r2, .L286+60
 3740 18bc 0610A0E1 		mov	r1, r6
 3741 18c0 04508DE5 		str	r5, [sp, #4]
 3742              	.LPIC201:
 3743 18c4 00008FE0 		add	r0, pc, r0
 3744 18c8 00408DE5 		str	r4, [sp]
 3745 18cc 08008DE5 		str	r0, [sp, #8]
 3746              	.LPIC199:
 3747 18d0 02208FE0 		add	r2, pc, r2
 3748 18d4 4500A0E3 		mov	r0, #69
 3749 18d8 FEFFFFEB 		bl	siFormattedMessage_SC(PLT)
 3750              	.LVL277:
 329:/home/hkh/git/eapidk-code-r76-trunk/apps/EeePProg/linux/../EeePProg.c ****   DO(EeeP_CreateEeePExtEEPCfg(lclStream));
 3751              		.loc 1 329 3 view .LVU783
 330:/home/hkh/git/eapidk-code-r76-trunk/apps/EeePProg/linux/../EeePProg.c **** 
 3752              		.loc 1 330 3 view .LVU784
 333:/home/hkh/git/eapidk-code-r76-trunk/apps/EeePProg/linux/../EeePProg.c ****   return StatusCode;
 3753              		.loc 1 333 3 view .LVU785
 3754              	.LBB96:
 274:/home/hkh/git/eapidk-code-r76-trunk/apps/EeePProg/linux/../EeePProg.c ****     FILE **     FilePtr
 3755              		.loc 1 274 1 view .LVU786
 3756              	.LBB93:
 278:/home/hkh/git/eapidk-code-r76-trunk/apps/EeePProg/linux/../EeePProg.c ****   if(LclFilePtr!=stdout&&LclFilePtr!=stderr&&LclFilePtr!=NULL){
 3757              		.loc 1 278 3 view .LVU787
 279:/home/hkh/git/eapidk-code-r76-trunk/apps/EeePProg/linux/../EeePProg.c ****     fclose(LclFilePtr);
 3758              		.loc 1 279 3 view .LVU788
 3759              	.LBE93:
 3760              	.LBE96:
 335:/home/hkh/git/eapidk-code-r76-trunk/apps/EeePProg/linux/../EeePProg.c **** 
 3761              		.loc 1 335 1 is_stmt 0 view .LVU789
 3762 18dc 0400A0E1 		mov	r0, r4
 3763 18e0 14D08DE2 		add	sp, sp, #20
 3764              		.cfi_remember_state
 3765              		.cfi_def_cfa_offset 20
 3766              		@ sp needed
 3767 18e4 F080BDE8 		pop	{r4, r5, r6, r7, pc}
 3768              	.LVL278:
 3769              	.L285:
 3770              		.cfi_restore_state
 3771              	.LBB97:
 3772              	.LBB87:
 260:/home/hkh/git/eapidk-code-r76-trunk/apps/EeePProg/linux/../EeePProg.c ****      *FilePtr=stderr;
 3773              		.loc 1 260 13 view .LVU790
 3774 18e8 0130D4E5 		ldrb	r3, [r4, #1]	@ zero_extendqisi2
 3775 18ec 320053E3 		cmp	r3, #50
 3776 18f0 D8FFFF1A 		bne	.L267
 3777 18f4 0230D4E5 		ldrb	r3, [r4, #2]	@ zero_extendqisi2
 260:/home/hkh/git/eapidk-code-r76-trunk/apps/EeePProg/linux/../EeePProg.c ****      *FilePtr=stderr;
 3778              		.loc 1 260 11 view .LVU791
 3779 18f8 000053E3 		cmp	r3, #0
 3780 18fc A5FFFF0A 		beq	.L261
 3781 1900 D4FFFFEA 		b	.L267
 3782              	.L287:
ARM GAS  /tmp/ccqui9DH.s 			page 91


 3783              		.align	2
 3784              	.L286:
 3785 1904 AC010000 		.word	.LC29-(.LPIC191+8)
 3786 1908 A0010000 		.word	_GLOBAL_OFFSET_TABLE_-(.LPIC192+8)
 3787 190c 00000000 		.word	stdout(GOT)
 3788 1910 80010000 		.word	.LC30-(.LPIC193+8)
 3789 1914 00000000 		.word	stderr(GOT)
 3790 1918 EC000000 		.word	.LC36-(.LPIC205+8)
 3791 191c E4000000 		.word	.LC0-(.LPIC203+8)
 3792 1920 E0000000 		.word	.LC1-(.LPIC204+8)
 3793 1924 E0000000 		.word	.LC3-(.LPIC206+8)
 3794 1928 C0000000 		.word	.LC31-(.LPIC194+8)
 3795 192c 9C000000 		.word	.LC33-(.LPIC197+8)
 3796 1930 94000000 		.word	.LC1-(.LPIC196+8)
 3797 1934 90000000 		.word	.LC3-(.LPIC198+8)
 3798 1938 88000000 		.word	.LC32-(.LPIC195+8)
 3799 193c 70000000 		.word	.LC34-(.LPIC201+8)
 3800 1940 68000000 		.word	.LC0-(.LPIC199+8)
 3801              	.LBE87:
 3802              	.LBE97:
 3803              		.cfi_endproc
 3804              	.LFE5:
 3806              		.section	.rodata.str1.4
 3807              		.align	2
 3808              	.LC37:
 3809 0758 45656550 		.ascii	"EeeP_CreateCOM0R20_MEEPCfg(lclStream)\000"
 3809      5F437265 
 3809      61746543 
 3809      4F4D3052 
 3809      32305F4D 
 3810              		.text
 3811              		.align	2
 3812              		.global	CMD_CreateCOM0R20_MEEPCfg
 3813              		.syntax unified
 3814              		.arm
 3815              		.fpu vfpv3
 3817              	CMD_CreateCOM0R20_MEEPCfg:
 3818              	.LVL279:
 3819              	.LFB3:
 295:/home/hkh/git/eapidk-code-r76-trunk/apps/EeePProg/linux/../EeePProg.c ****   EApiStatus_t StatusCode=EAPI_STATUS_SUCCESS;
 3820              		.loc 1 295 1 is_stmt 1 view -0
 3821              		.cfi_startproc
 3822              		@ args = 0, pretend = 0, frame = 0
 3823              		@ frame_needed = 0, uses_anonymous_args = 0
 296:/home/hkh/git/eapidk-code-r76-trunk/apps/EeePProg/linux/../EeePProg.c ****   FILE *lclStream=NULL;
 3824              		.loc 1 296 3 view .LVU793
 297:/home/hkh/git/eapidk-code-r76-trunk/apps/EeePProg/linux/../EeePProg.c **** 
 3825              		.loc 1 297 3 view .LVU794
 299:/home/hkh/git/eapidk-code-r76-trunk/apps/EeePProg/linux/../EeePProg.c ****   DO(EeeP_CreateCOM0R20_MEEPCfg(lclStream));
 3826              		.loc 1 299 3 view .LVU795
 299:/home/hkh/git/eapidk-code-r76-trunk/apps/EeePProg/linux/../EeePProg.c ****   DO(EeeP_CreateCOM0R20_MEEPCfg(lclStream));
 3827              		.loc 1 299 3 view .LVU796
 295:/home/hkh/git/eapidk-code-r76-trunk/apps/EeePProg/linux/../EeePProg.c ****   EApiStatus_t StatusCode=EAPI_STATUS_SUCCESS;
 3828              		.loc 1 295 1 is_stmt 0 view .LVU797
 3829 1944 F0402DE9 		push	{r4, r5, r6, r7, lr}
 3830              		.cfi_def_cfa_offset 20
 3831              		.cfi_offset 4, -20
ARM GAS  /tmp/ccqui9DH.s 			page 92


 3832              		.cfi_offset 5, -16
 3833              		.cfi_offset 6, -12
 3834              		.cfi_offset 7, -8
 3835              		.cfi_offset 14, -4
 3836 1948 14D04DE2 		sub	sp, sp, #20
 3837              		.cfi_def_cfa_offset 40
 3838              	.LBB104:
 3839              	.LBB105:
 254:/home/hkh/git/eapidk-code-r76-trunk/apps/EeePProg/linux/../EeePProg.c ****      *FilePtr=stdout;
 3840              		.loc 1 254 7 view .LVU798
 3841 194c B8119FE5 		ldr	r1, .L319
 3842              	.LBE105:
 3843              	.LBE104:
 299:/home/hkh/git/eapidk-code-r76-trunk/apps/EeePProg/linux/../EeePProg.c ****   DO(EeeP_CreateCOM0R20_MEEPCfg(lclStream));
 3844              		.loc 1 299 3 view .LVU799
 3845 1950 004090E5 		ldr	r4, [r0]
 3846              	.LVL280:
 3847              	.LBB114:
 3848              	.LBI104:
 248:/home/hkh/git/eapidk-code-r76-trunk/apps/EeePProg/linux/../EeePProg.c ****     const char *Destination,
 3849              		.loc 1 248 1 is_stmt 1 view .LVU800
 3850              	.LBB108:
 253:/home/hkh/git/eapidk-code-r76-trunk/apps/EeePProg/linux/../EeePProg.c ****   if(!strcmp(Destination, "stdout")){
 3851              		.loc 1 253 3 view .LVU801
 254:/home/hkh/git/eapidk-code-r76-trunk/apps/EeePProg/linux/../EeePProg.c ****      *FilePtr=stdout;
 3852              		.loc 1 254 3 view .LVU802
 3853              	.LBE108:
 3854              	.LBE114:
 295:/home/hkh/git/eapidk-code-r76-trunk/apps/EeePProg/linux/../EeePProg.c ****   EApiStatus_t StatusCode=EAPI_STATUS_SUCCESS;
 3855              		.loc 1 295 1 is_stmt 0 view .LVU803
 3856 1954 B4519FE5 		ldr	r5, .L319+4
 3857              	.LBB115:
 3858              	.LBB109:
 254:/home/hkh/git/eapidk-code-r76-trunk/apps/EeePProg/linux/../EeePProg.c ****      *FilePtr=stdout;
 3859              		.loc 1 254 7 view .LVU804
 3860              	.LPIC207:
 3861 1958 01108FE0 		add	r1, pc, r1
 3862 195c 0400A0E1 		mov	r0, r4
 3863              	.LVL281:
 254:/home/hkh/git/eapidk-code-r76-trunk/apps/EeePProg/linux/../EeePProg.c ****      *FilePtr=stdout;
 3864              		.loc 1 254 7 view .LVU805
 3865 1960 FEFFFFEB 		bl	strcmp(PLT)
 3866              	.LVL282:
 255:/home/hkh/git/eapidk-code-r76-trunk/apps/EeePProg/linux/../EeePProg.c ****   }else if(!strcmp(Destination, "&1")){
 3867              		.loc 1 255 14 view .LVU806
 3868 1964 A8319FE5 		ldr	r3, .L319+8
 3869              	.LBE109:
 3870              	.LBE115:
 295:/home/hkh/git/eapidk-code-r76-trunk/apps/EeePProg/linux/../EeePProg.c ****   EApiStatus_t StatusCode=EAPI_STATUS_SUCCESS;
 3871              		.loc 1 295 1 view .LVU807
 3872              	.LPIC208:
 3873 1968 05508FE0 		add	r5, pc, r5
 3874              	.LBB116:
 3875              	.LBB110:
 254:/home/hkh/git/eapidk-code-r76-trunk/apps/EeePProg/linux/../EeePProg.c ****      *FilePtr=stdout;
 3876              		.loc 1 254 5 view .LVU808
 3877 196c 000050E3 		cmp	r0, #0
ARM GAS  /tmp/ccqui9DH.s 			page 93


 255:/home/hkh/git/eapidk-code-r76-trunk/apps/EeePProg/linux/../EeePProg.c ****   }else if(!strcmp(Destination, "&1")){
 3878              		.loc 1 255 14 view .LVU809
 3879 1970 033095E7 		ldr	r3, [r5, r3]
 3880 1974 006093E5 		ldr	r6, [r3]
 254:/home/hkh/git/eapidk-code-r76-trunk/apps/EeePProg/linux/../EeePProg.c ****      *FilePtr=stdout;
 3881              		.loc 1 254 5 view .LVU810
 3882 1978 2200000A 		beq	.L289
 256:/home/hkh/git/eapidk-code-r76-trunk/apps/EeePProg/linux/../EeePProg.c ****      *FilePtr=stdout;
 3883              		.loc 1 256 9 is_stmt 1 view .LVU811
 256:/home/hkh/git/eapidk-code-r76-trunk/apps/EeePProg/linux/../EeePProg.c ****      *FilePtr=stdout;
 3884              		.loc 1 256 13 is_stmt 0 view .LVU812
 3885 197c 0070D4E5 		ldrb	r7, [r4]	@ zero_extendqisi2
 3886 1980 260057E3 		cmp	r7, #38
 3887 1984 1900000A 		beq	.L317
 3888              	.L299:
 258:/home/hkh/git/eapidk-code-r76-trunk/apps/EeePProg/linux/../EeePProg.c ****      *FilePtr=stderr;
 3889              		.loc 1 258 9 is_stmt 1 view .LVU813
 258:/home/hkh/git/eapidk-code-r76-trunk/apps/EeePProg/linux/../EeePProg.c ****      *FilePtr=stderr;
 3890              		.loc 1 258 13 is_stmt 0 view .LVU814
 3891 1988 88119FE5 		ldr	r1, .L319+12
 3892 198c 0400A0E1 		mov	r0, r4
 3893              	.LPIC209:
 3894 1990 01108FE0 		add	r1, pc, r1
 3895 1994 FEFFFFEB 		bl	strcmp(PLT)
 3896              	.LVL283:
 258:/home/hkh/git/eapidk-code-r76-trunk/apps/EeePProg/linux/../EeePProg.c ****      *FilePtr=stderr;
 3897              		.loc 1 258 11 view .LVU815
 3898 1998 000050E3 		cmp	r0, #0
 3899 199c 2D00001A 		bne	.L291
 3900              	.L294:
 259:/home/hkh/git/eapidk-code-r76-trunk/apps/EeePProg/linux/../EeePProg.c ****   }else if(!strcmp(Destination, "&2")){
 3901              		.loc 1 259 6 is_stmt 1 view .LVU816
 259:/home/hkh/git/eapidk-code-r76-trunk/apps/EeePProg/linux/../EeePProg.c ****   }else if(!strcmp(Destination, "&2")){
 3902              		.loc 1 259 14 is_stmt 0 view .LVU817
 3903 19a0 74319FE5 		ldr	r3, .L319+16
 3904 19a4 033095E7 		ldr	r3, [r5, r3]
 3905 19a8 007093E5 		ldr	r7, [r3]
 3906              	.LVL284:
 264:/home/hkh/git/eapidk-code-r76-trunk/apps/EeePProg/linux/../EeePProg.c ****          CreateTxtFilePtr,
 3907              		.loc 1 264 5 is_stmt 1 view .LVU818
 268:/home/hkh/git/eapidk-code-r76-trunk/apps/EeePProg/linux/../EeePProg.c ****   }
 3908              		.loc 1 268 8 view .LVU819
 271:/home/hkh/git/eapidk-code-r76-trunk/apps/EeePProg/linux/../EeePProg.c **** }
 3909              		.loc 1 271 3 view .LVU820
 271:/home/hkh/git/eapidk-code-r76-trunk/apps/EeePProg/linux/../EeePProg.c **** }
 3910              		.loc 1 271 3 is_stmt 0 view .LVU821
 3911              	.LBE110:
 3912              	.LBE116:
 299:/home/hkh/git/eapidk-code-r76-trunk/apps/EeePProg/linux/../EeePProg.c ****   DO(EeeP_CreateCOM0R20_MEEPCfg(lclStream));
 3913              		.loc 1 299 3 is_stmt 1 view .LVU822
 3914              	.L292:
 299:/home/hkh/git/eapidk-code-r76-trunk/apps/EeePProg/linux/../EeePProg.c ****   DO(EeeP_CreateCOM0R20_MEEPCfg(lclStream));
 3915              		.loc 1 299 3 discriminator 2 view .LVU823
 300:/home/hkh/git/eapidk-code-r76-trunk/apps/EeePProg/linux/../EeePProg.c **** 
 3916              		.loc 1 300 3 discriminator 2 view .LVU824
 300:/home/hkh/git/eapidk-code-r76-trunk/apps/EeePProg/linux/../EeePProg.c **** 
 3917              		.loc 1 300 3 discriminator 2 view .LVU825
ARM GAS  /tmp/ccqui9DH.s 			page 94


 3918 19ac 0700A0E1 		mov	r0, r7
 3919 19b0 FEFFFFEB 		bl	EeeP_CreateCOM0R20_MEEPCfg(PLT)
 3920              	.LVL285:
 300:/home/hkh/git/eapidk-code-r76-trunk/apps/EeePProg/linux/../EeePProg.c **** 
 3921              		.loc 1 300 3 discriminator 2 view .LVU826
 3922 19b4 004050E2 		subs	r4, r0, #0
 3923 19b8 1700001A 		bne	.L297
 3924              	.LVL286:
 3925              	.L296:
 300:/home/hkh/git/eapidk-code-r76-trunk/apps/EeePProg/linux/../EeePProg.c **** 
 3926              		.loc 1 300 3 discriminator 3 view .LVU827
 303:/home/hkh/git/eapidk-code-r76-trunk/apps/EeePProg/linux/../EeePProg.c ****   return StatusCode;
 3927              		.loc 1 303 3 discriminator 3 view .LVU828
 3928              	.LBB117:
 3929              	.LBI117:
 274:/home/hkh/git/eapidk-code-r76-trunk/apps/EeePProg/linux/../EeePProg.c ****     FILE **     FilePtr
 3930              		.loc 1 274 1 discriminator 3 view .LVU829
 3931              	.LBB118:
 278:/home/hkh/git/eapidk-code-r76-trunk/apps/EeePProg/linux/../EeePProg.c ****   if(LclFilePtr!=stdout&&LclFilePtr!=stderr&&LclFilePtr!=NULL){
 3932              		.loc 1 278 3 discriminator 3 view .LVU830
 279:/home/hkh/git/eapidk-code-r76-trunk/apps/EeePProg/linux/../EeePProg.c ****     fclose(LclFilePtr);
 3933              		.loc 1 279 3 discriminator 3 view .LVU831
 279:/home/hkh/git/eapidk-code-r76-trunk/apps/EeePProg/linux/../EeePProg.c ****     fclose(LclFilePtr);
 3934              		.loc 1 279 5 is_stmt 0 discriminator 3 view .LVU832
 3935 19bc 060057E1 		cmp	r7, r6
 3936 19c0 0700000A 		beq	.L288
 279:/home/hkh/git/eapidk-code-r76-trunk/apps/EeePProg/linux/../EeePProg.c ****     fclose(LclFilePtr);
 3937              		.loc 1 279 36 view .LVU833
 3938 19c4 50319FE5 		ldr	r3, .L319+16
 3939 19c8 033095E7 		ldr	r3, [r5, r3]
 279:/home/hkh/git/eapidk-code-r76-trunk/apps/EeePProg/linux/../EeePProg.c ****     fclose(LclFilePtr);
 3940              		.loc 1 279 24 view .LVU834
 3941 19cc 003093E5 		ldr	r3, [r3]
 279:/home/hkh/git/eapidk-code-r76-trunk/apps/EeePProg/linux/../EeePProg.c ****     fclose(LclFilePtr);
 3942              		.loc 1 279 44 view .LVU835
 3943 19d0 070053E1 		cmp	r3, r7
 3944 19d4 00005713 		cmpne	r7, #0
 3945 19d8 0100000A 		beq	.L288
 280:/home/hkh/git/eapidk-code-r76-trunk/apps/EeePProg/linux/../EeePProg.c ****   };
 3946              		.loc 1 280 5 is_stmt 1 view .LVU836
 3947 19dc 0700A0E1 		mov	r0, r7
 3948 19e0 FEFFFFEB 		bl	fclose(PLT)
 3949              	.LVL287:
 281:/home/hkh/git/eapidk-code-r76-trunk/apps/EeePProg/linux/../EeePProg.c ****   *FilePtr=NULL;
 3950              		.loc 1 281 4 view .LVU837
 282:/home/hkh/git/eapidk-code-r76-trunk/apps/EeePProg/linux/../EeePProg.c ****   return EAPI_STATUS_SUCCESS;
 3951              		.loc 1 282 3 view .LVU838
 283:/home/hkh/git/eapidk-code-r76-trunk/apps/EeePProg/linux/../EeePProg.c **** }
 3952              		.loc 1 283 3 view .LVU839
 3953              	.LBE118:
 3954              	.LBE117:
 304:/home/hkh/git/eapidk-code-r76-trunk/apps/EeePProg/linux/../EeePProg.c **** }
 3955              		.loc 1 304 3 view .LVU840
 3956              	.L288:
 305:/home/hkh/git/eapidk-code-r76-trunk/apps/EeePProg/linux/../EeePProg.c **** EApiStatus_t 
 3957              		.loc 1 305 1 is_stmt 0 view .LVU841
 3958 19e4 0400A0E1 		mov	r0, r4
ARM GAS  /tmp/ccqui9DH.s 			page 95


 3959 19e8 14D08DE2 		add	sp, sp, #20
 3960              		.cfi_remember_state
 3961              		.cfi_def_cfa_offset 20
 3962              		@ sp needed
 3963 19ec F080BDE8 		pop	{r4, r5, r6, r7, pc}
 3964              	.LVL288:
 3965              	.L317:
 3966              		.cfi_restore_state
 3967              	.LBB120:
 3968              	.LBB111:
 256:/home/hkh/git/eapidk-code-r76-trunk/apps/EeePProg/linux/../EeePProg.c ****      *FilePtr=stdout;
 3969              		.loc 1 256 13 view .LVU842
 3970 19f0 0130D4E5 		ldrb	r3, [r4, #1]	@ zero_extendqisi2
 3971 19f4 310053E3 		cmp	r3, #49
 3972 19f8 E2FFFF1A 		bne	.L299
 3973 19fc 0230D4E5 		ldrb	r3, [r4, #2]	@ zero_extendqisi2
 256:/home/hkh/git/eapidk-code-r76-trunk/apps/EeePProg/linux/../EeePProg.c ****      *FilePtr=stdout;
 3974              		.loc 1 256 11 view .LVU843
 3975 1a00 000053E3 		cmp	r3, #0
 3976 1a04 DFFFFF1A 		bne	.L299
 3977              	.L289:
 3978              	.LVL289:
 256:/home/hkh/git/eapidk-code-r76-trunk/apps/EeePProg/linux/../EeePProg.c ****      *FilePtr=stdout;
 3979              		.loc 1 256 11 view .LVU844
 3980              	.LBE111:
 3981              	.LBE120:
 299:/home/hkh/git/eapidk-code-r76-trunk/apps/EeePProg/linux/../EeePProg.c ****   DO(EeeP_CreateCOM0R20_MEEPCfg(lclStream));
 3982              		.loc 1 299 3 is_stmt 1 view .LVU845
 300:/home/hkh/git/eapidk-code-r76-trunk/apps/EeePProg/linux/../EeePProg.c **** 
 3983              		.loc 1 300 3 view .LVU846
 300:/home/hkh/git/eapidk-code-r76-trunk/apps/EeePProg/linux/../EeePProg.c **** 
 3984              		.loc 1 300 3 view .LVU847
 3985 1a08 0600A0E1 		mov	r0, r6
 3986 1a0c FEFFFFEB 		bl	EeeP_CreateCOM0R20_MEEPCfg(PLT)
 3987              	.LVL290:
 300:/home/hkh/git/eapidk-code-r76-trunk/apps/EeePProg/linux/../EeePProg.c **** 
 3988              		.loc 1 300 3 view .LVU848
 3989 1a10 004050E2 		subs	r4, r0, #0
 3990 1a14 0670A011 		movne	r7, r6
 3991 1a18 F1FFFF0A 		beq	.L288
 3992              	.L297:
 300:/home/hkh/git/eapidk-code-r76-trunk/apps/EeePProg/linux/../EeePProg.c **** 
 3993              		.loc 1 300 3 discriminator 1 view .LVU849
 3994 1a1c FC309FE5 		ldr	r3, .L319+20
 3995 1a20 4500A0E3 		mov	r0, #69
 3996              	.LVL291:
 300:/home/hkh/git/eapidk-code-r76-trunk/apps/EeePProg/linux/../EeePProg.c **** 
 3997              		.loc 1 300 3 is_stmt 0 discriminator 1 view .LVU850
 3998 1a24 F8209FE5 		ldr	r2, .L319+24
 3999 1a28 F8109FE5 		ldr	r1, .L319+28
 4000              	.LPIC221:
 4001 1a2c 03308FE0 		add	r3, pc, r3
 4002 1a30 00408DE5 		str	r4, [sp]
 4003 1a34 08308DE5 		str	r3, [sp, #8]
 4004              	.LPIC219:
 4005 1a38 02208FE0 		add	r2, pc, r2
 4006 1a3c E8309FE5 		ldr	r3, .L319+32
ARM GAS  /tmp/ccqui9DH.s 			page 96


 4007              	.LPIC220:
 4008 1a40 01108FE0 		add	r1, pc, r1
 4009              	.LPIC222:
 4010 1a44 03308FE0 		add	r3, pc, r3
 4011 1a48 04308DE5 		str	r3, [sp, #4]
 4012 1a4c 4B3FA0E3 		mov	r3, #300
 4013 1a50 FEFFFFEB 		bl	siFormattedMessage_SC(PLT)
 4014              	.LVL292:
 300:/home/hkh/git/eapidk-code-r76-trunk/apps/EeePProg/linux/../EeePProg.c **** 
 4015              		.loc 1 300 3 is_stmt 1 discriminator 1 view .LVU851
 4016 1a54 D8FFFFEA 		b	.L296
 4017              	.LVL293:
 4018              	.L291:
 4019              	.LBB121:
 4020              	.LBB112:
 260:/home/hkh/git/eapidk-code-r76-trunk/apps/EeePProg/linux/../EeePProg.c ****      *FilePtr=stderr;
 4021              		.loc 1 260 9 view .LVU852
 260:/home/hkh/git/eapidk-code-r76-trunk/apps/EeePProg/linux/../EeePProg.c ****      *FilePtr=stderr;
 4022              		.loc 1 260 13 is_stmt 0 view .LVU853
 4023 1a58 260057E3 		cmp	r7, #38
 4024 1a5c 2300000A 		beq	.L318
 4025              	.L300:
 4026              	.LVL294:
 4027              	.LBB106:
 4028              	.LBI106:
 248:/home/hkh/git/eapidk-code-r76-trunk/apps/EeePProg/linux/../EeePProg.c ****     const char *Destination,
 4029              		.loc 1 248 1 is_stmt 1 view .LVU854
 4030              	.LBB107:
 263:/home/hkh/git/eapidk-code-r76-trunk/apps/EeePProg/linux/../EeePProg.c ****     EAPI_APP_RETURN_ERROR_IF_S(
 4031              		.loc 1 263 5 view .LVU855
 263:/home/hkh/git/eapidk-code-r76-trunk/apps/EeePProg/linux/../EeePProg.c ****     EAPI_APP_RETURN_ERROR_IF_S(
 4032              		.loc 1 263 14 is_stmt 0 view .LVU856
 4033 1a60 C8109FE5 		ldr	r1, .L319+36
 4034 1a64 0400A0E1 		mov	r0, r4
 4035              	.LPIC210:
 4036 1a68 01108FE0 		add	r1, pc, r1
 4037 1a6c FEFFFFEB 		bl	fopen(PLT)
 4038              	.LVL295:
 264:/home/hkh/git/eapidk-code-r76-trunk/apps/EeePProg/linux/../EeePProg.c ****          CreateTxtFilePtr,
 4039              		.loc 1 264 5 is_stmt 1 view .LVU857
 4040 1a70 007050E2 		subs	r7, r0, #0
 4041 1a74 CCFFFF1A 		bne	.L292
 264:/home/hkh/git/eapidk-code-r76-trunk/apps/EeePProg/linux/../EeePProg.c ****          CreateTxtFilePtr,
 4042              		.loc 1 264 5 view .LVU858
 264:/home/hkh/git/eapidk-code-r76-trunk/apps/EeePProg/linux/../EeePProg.c ****          CreateTxtFilePtr,
 4043              		.loc 1 264 5 view .LVU859
 4044 1a78 B4209FE5 		ldr	r2, .L319+40
 4045 1a7c FE4A0FE3 		movw	r4, #64254
 4046              	.LVL296:
 264:/home/hkh/git/eapidk-code-r76-trunk/apps/EeePProg/linux/../EeePProg.c ****          CreateTxtFilePtr,
 4047              		.loc 1 264 5 is_stmt 0 view .LVU860
 4048 1a80 B0609FE5 		ldr	r6, .L319+44
 4049 1a84 FF4F4FE3 		movt	r4, 65535
 4050 1a88 AC509FE5 		ldr	r5, .L319+48
 4051 1a8c 423FA0E3 		mov	r3, #264
 4052              	.LPIC213:
 4053 1a90 02208FE0 		add	r2, pc, r2
ARM GAS  /tmp/ccqui9DH.s 			page 97


 4054 1a94 4500A0E3 		mov	r0, #69
 4055              	.LVL297:
 264:/home/hkh/git/eapidk-code-r76-trunk/apps/EeePProg/linux/../EeePProg.c ****          CreateTxtFilePtr,
 4056              		.loc 1 264 5 view .LVU861
 4057 1a98 08208DE5 		str	r2, [sp, #8]
 4058              	.LPIC212:
 4059 1a9c 06608FE0 		add	r6, pc, r6
 4060 1aa0 98209FE5 		ldr	r2, .L319+52
 4061              	.LPIC214:
 4062 1aa4 05508FE0 		add	r5, pc, r5
 4063 1aa8 0610A0E1 		mov	r1, r6
 4064 1aac F040CDE1 		strd	r4, [sp]
 4065              	.LPIC211:
 4066 1ab0 02208FE0 		add	r2, pc, r2
 4067 1ab4 FEFFFFEB 		bl	siFormattedMessage_SC(PLT)
 4068              	.LVL298:
 264:/home/hkh/git/eapidk-code-r76-trunk/apps/EeePProg/linux/../EeePProg.c ****          CreateTxtFilePtr,
 4069              		.loc 1 264 5 is_stmt 1 view .LVU862
 264:/home/hkh/git/eapidk-code-r76-trunk/apps/EeePProg/linux/../EeePProg.c ****          CreateTxtFilePtr,
 4070              		.loc 1 264 5 view .LVU863
 264:/home/hkh/git/eapidk-code-r76-trunk/apps/EeePProg/linux/../EeePProg.c ****          CreateTxtFilePtr,
 4071              		.loc 1 264 5 view .LVU864
 264:/home/hkh/git/eapidk-code-r76-trunk/apps/EeePProg/linux/../EeePProg.c ****          CreateTxtFilePtr,
 4072              		.loc 1 264 5 is_stmt 0 view .LVU865
 4073              	.LBE107:
 4074              	.LBE106:
 264:/home/hkh/git/eapidk-code-r76-trunk/apps/EeePProg/linux/../EeePProg.c ****          CreateTxtFilePtr,
 4075              		.loc 1 264 5 is_stmt 1 view .LVU866
 268:/home/hkh/git/eapidk-code-r76-trunk/apps/EeePProg/linux/../EeePProg.c ****   }
 4076              		.loc 1 268 8 view .LVU867
 271:/home/hkh/git/eapidk-code-r76-trunk/apps/EeePProg/linux/../EeePProg.c **** }
 4077              		.loc 1 271 3 view .LVU868
 271:/home/hkh/git/eapidk-code-r76-trunk/apps/EeePProg/linux/../EeePProg.c **** }
 4078              		.loc 1 271 3 is_stmt 0 view .LVU869
 4079              	.LBE112:
 4080              	.LBE121:
 299:/home/hkh/git/eapidk-code-r76-trunk/apps/EeePProg/linux/../EeePProg.c ****   DO(EeeP_CreateCOM0R20_MEEPCfg(lclStream));
 4081              		.loc 1 299 3 is_stmt 1 view .LVU870
 299:/home/hkh/git/eapidk-code-r76-trunk/apps/EeePProg/linux/../EeePProg.c ****   DO(EeeP_CreateCOM0R20_MEEPCfg(lclStream));
 4082              		.loc 1 299 3 view .LVU871
 4083 1ab8 84009FE5 		ldr	r0, .L319+56
 4084 1abc 2B3100E3 		movw	r3, #299
 4085 1ac0 80209FE5 		ldr	r2, .L319+60
 4086 1ac4 0610A0E1 		mov	r1, r6
 4087 1ac8 04508DE5 		str	r5, [sp, #4]
 4088              	.LPIC217:
 4089 1acc 00008FE0 		add	r0, pc, r0
 4090 1ad0 00408DE5 		str	r4, [sp]
 4091 1ad4 08008DE5 		str	r0, [sp, #8]
 4092              	.LPIC215:
 4093 1ad8 02208FE0 		add	r2, pc, r2
 4094 1adc 4500A0E3 		mov	r0, #69
 4095 1ae0 FEFFFFEB 		bl	siFormattedMessage_SC(PLT)
 4096              	.LVL299:
 299:/home/hkh/git/eapidk-code-r76-trunk/apps/EeePProg/linux/../EeePProg.c ****   DO(EeeP_CreateCOM0R20_MEEPCfg(lclStream));
 4097              		.loc 1 299 3 view .LVU872
 300:/home/hkh/git/eapidk-code-r76-trunk/apps/EeePProg/linux/../EeePProg.c **** 
ARM GAS  /tmp/ccqui9DH.s 			page 98


 4098              		.loc 1 300 3 view .LVU873
 303:/home/hkh/git/eapidk-code-r76-trunk/apps/EeePProg/linux/../EeePProg.c ****   return StatusCode;
 4099              		.loc 1 303 3 view .LVU874
 4100              	.LBB122:
 274:/home/hkh/git/eapidk-code-r76-trunk/apps/EeePProg/linux/../EeePProg.c ****     FILE **     FilePtr
 4101              		.loc 1 274 1 view .LVU875
 4102              	.LBB119:
 278:/home/hkh/git/eapidk-code-r76-trunk/apps/EeePProg/linux/../EeePProg.c ****   if(LclFilePtr!=stdout&&LclFilePtr!=stderr&&LclFilePtr!=NULL){
 4103              		.loc 1 278 3 view .LVU876
 279:/home/hkh/git/eapidk-code-r76-trunk/apps/EeePProg/linux/../EeePProg.c ****     fclose(LclFilePtr);
 4104              		.loc 1 279 3 view .LVU877
 4105              	.LBE119:
 4106              	.LBE122:
 305:/home/hkh/git/eapidk-code-r76-trunk/apps/EeePProg/linux/../EeePProg.c **** EApiStatus_t 
 4107              		.loc 1 305 1 is_stmt 0 view .LVU878
 4108 1ae4 0400A0E1 		mov	r0, r4
 4109 1ae8 14D08DE2 		add	sp, sp, #20
 4110              		.cfi_remember_state
 4111              		.cfi_def_cfa_offset 20
 4112              		@ sp needed
 4113 1aec F080BDE8 		pop	{r4, r5, r6, r7, pc}
 4114              	.LVL300:
 4115              	.L318:
 4116              		.cfi_restore_state
 4117              	.LBB123:
 4118              	.LBB113:
 260:/home/hkh/git/eapidk-code-r76-trunk/apps/EeePProg/linux/../EeePProg.c ****      *FilePtr=stderr;
 4119              		.loc 1 260 13 view .LVU879
 4120 1af0 0130D4E5 		ldrb	r3, [r4, #1]	@ zero_extendqisi2
 4121 1af4 320053E3 		cmp	r3, #50
 4122 1af8 D8FFFF1A 		bne	.L300
 4123 1afc 0230D4E5 		ldrb	r3, [r4, #2]	@ zero_extendqisi2
 260:/home/hkh/git/eapidk-code-r76-trunk/apps/EeePProg/linux/../EeePProg.c ****      *FilePtr=stderr;
 4124              		.loc 1 260 11 view .LVU880
 4125 1b00 000053E3 		cmp	r3, #0
 4126 1b04 A5FFFF0A 		beq	.L294
 4127 1b08 D4FFFFEA 		b	.L300
 4128              	.L320:
 4129              		.align	2
 4130              	.L319:
 4131 1b0c AC010000 		.word	.LC29-(.LPIC207+8)
 4132 1b10 A0010000 		.word	_GLOBAL_OFFSET_TABLE_-(.LPIC208+8)
 4133 1b14 00000000 		.word	stdout(GOT)
 4134 1b18 80010000 		.word	.LC30-(.LPIC209+8)
 4135 1b1c 00000000 		.word	stderr(GOT)
 4136 1b20 EC000000 		.word	.LC37-(.LPIC221+8)
 4137 1b24 E4000000 		.word	.LC0-(.LPIC219+8)
 4138 1b28 E0000000 		.word	.LC1-(.LPIC220+8)
 4139 1b2c E0000000 		.word	.LC3-(.LPIC222+8)
 4140 1b30 C0000000 		.word	.LC31-(.LPIC210+8)
 4141 1b34 9C000000 		.word	.LC33-(.LPIC213+8)
 4142 1b38 94000000 		.word	.LC1-(.LPIC212+8)
 4143 1b3c 90000000 		.word	.LC3-(.LPIC214+8)
 4144 1b40 88000000 		.word	.LC32-(.LPIC211+8)
 4145 1b44 70000000 		.word	.LC34-(.LPIC217+8)
 4146 1b48 68000000 		.word	.LC0-(.LPIC215+8)
 4147              	.LBE113:
ARM GAS  /tmp/ccqui9DH.s 			page 99


 4148              	.LBE123:
 4149              		.cfi_endproc
 4150              	.LFE3:
 4152              		.align	2
 4153              		.global	CreateTxtFilePtr
 4154              		.syntax unified
 4155              		.arm
 4156              		.fpu vfpv3
 4158              	CreateTxtFilePtr:
 4159              	.LVL301:
 4160              	.LFB1:
 252:/home/hkh/git/eapidk-code-r76-trunk/apps/EeePProg/linux/../EeePProg.c ****   EApiStatus_t StatusCode=EAPI_STATUS_SUCCESS;
 4161              		.loc 1 252 1 is_stmt 1 view -0
 4162              		.cfi_startproc
 4163              		@ args = 0, pretend = 0, frame = 0
 4164              		@ frame_needed = 0, uses_anonymous_args = 0
 253:/home/hkh/git/eapidk-code-r76-trunk/apps/EeePProg/linux/../EeePProg.c ****   if(!strcmp(Destination, "stdout")){
 4165              		.loc 1 253 3 view .LVU882
 254:/home/hkh/git/eapidk-code-r76-trunk/apps/EeePProg/linux/../EeePProg.c ****      *FilePtr=stdout;
 4166              		.loc 1 254 3 view .LVU883
 252:/home/hkh/git/eapidk-code-r76-trunk/apps/EeePProg/linux/../EeePProg.c ****   EApiStatus_t StatusCode=EAPI_STATUS_SUCCESS;
 4167              		.loc 1 252 1 is_stmt 0 view .LVU884
 4168 1b4c F0402DE9 		push	{r4, r5, r6, r7, lr}
 4169              		.cfi_def_cfa_offset 20
 4170              		.cfi_offset 4, -20
 4171              		.cfi_offset 5, -16
 4172              		.cfi_offset 6, -12
 4173              		.cfi_offset 7, -8
 4174              		.cfi_offset 14, -4
 4175 1b50 0150A0E1 		mov	r5, r1
 254:/home/hkh/git/eapidk-code-r76-trunk/apps/EeePProg/linux/../EeePProg.c ****      *FilePtr=stdout;
 4176              		.loc 1 254 7 view .LVU885
 4177 1b54 14119FE5 		ldr	r1, .L341
 4178              	.LVL302:
 252:/home/hkh/git/eapidk-code-r76-trunk/apps/EeePProg/linux/../EeePProg.c ****   EApiStatus_t StatusCode=EAPI_STATUS_SUCCESS;
 4179              		.loc 1 252 1 view .LVU886
 4180 1b58 14D04DE2 		sub	sp, sp, #20
 4181              		.cfi_def_cfa_offset 40
 252:/home/hkh/git/eapidk-code-r76-trunk/apps/EeePProg/linux/../EeePProg.c ****   EApiStatus_t StatusCode=EAPI_STATUS_SUCCESS;
 4182              		.loc 1 252 1 view .LVU887
 4183 1b5c 0040A0E1 		mov	r4, r0
 4184 1b60 0C619FE5 		ldr	r6, .L341+4
 254:/home/hkh/git/eapidk-code-r76-trunk/apps/EeePProg/linux/../EeePProg.c ****      *FilePtr=stdout;
 4185              		.loc 1 254 7 view .LVU888
 4186              	.LPIC223:
 4187 1b64 01108FE0 		add	r1, pc, r1
 4188 1b68 FEFFFFEB 		bl	strcmp(PLT)
 4189              	.LVL303:
 254:/home/hkh/git/eapidk-code-r76-trunk/apps/EeePProg/linux/../EeePProg.c ****      *FilePtr=stdout;
 4190              		.loc 1 254 5 view .LVU889
 4191 1b6c 000050E3 		cmp	r0, #0
 252:/home/hkh/git/eapidk-code-r76-trunk/apps/EeePProg/linux/../EeePProg.c ****   EApiStatus_t StatusCode=EAPI_STATUS_SUCCESS;
 4192              		.loc 1 252 1 view .LVU890
 4193              	.LPIC224:
 4194 1b70 06608FE0 		add	r6, pc, r6
 254:/home/hkh/git/eapidk-code-r76-trunk/apps/EeePProg/linux/../EeePProg.c ****      *FilePtr=stdout;
 4195              		.loc 1 254 5 view .LVU891
ARM GAS  /tmp/ccqui9DH.s 			page 100


 4196 1b74 2900000A 		beq	.L325
 256:/home/hkh/git/eapidk-code-r76-trunk/apps/EeePProg/linux/../EeePProg.c ****      *FilePtr=stdout;
 4197              		.loc 1 256 9 is_stmt 1 view .LVU892
 256:/home/hkh/git/eapidk-code-r76-trunk/apps/EeePProg/linux/../EeePProg.c ****      *FilePtr=stdout;
 4198              		.loc 1 256 13 is_stmt 0 view .LVU893
 4199 1b78 0070D4E5 		ldrb	r7, [r4]	@ zero_extendqisi2
 4200 1b7c 260057E3 		cmp	r7, #38
 4201 1b80 2000000A 		beq	.L339
 4202              	.L330:
 258:/home/hkh/git/eapidk-code-r76-trunk/apps/EeePProg/linux/../EeePProg.c ****      *FilePtr=stderr;
 4203              		.loc 1 258 9 is_stmt 1 view .LVU894
 258:/home/hkh/git/eapidk-code-r76-trunk/apps/EeePProg/linux/../EeePProg.c ****      *FilePtr=stderr;
 4204              		.loc 1 258 13 is_stmt 0 view .LVU895
 4205 1b84 EC109FE5 		ldr	r1, .L341+8
 4206 1b88 0400A0E1 		mov	r0, r4
 4207              	.LPIC225:
 4208 1b8c 01108FE0 		add	r1, pc, r1
 4209 1b90 FEFFFFEB 		bl	strcmp(PLT)
 4210              	.LVL304:
 258:/home/hkh/git/eapidk-code-r76-trunk/apps/EeePProg/linux/../EeePProg.c ****      *FilePtr=stderr;
 4211              		.loc 1 258 11 view .LVU896
 4212 1b94 000050E3 		cmp	r0, #0
 4213 1b98 2D00000A 		beq	.L328
 260:/home/hkh/git/eapidk-code-r76-trunk/apps/EeePProg/linux/../EeePProg.c ****      *FilePtr=stderr;
 4214              		.loc 1 260 9 is_stmt 1 view .LVU897
 260:/home/hkh/git/eapidk-code-r76-trunk/apps/EeePProg/linux/../EeePProg.c ****      *FilePtr=stderr;
 4215              		.loc 1 260 13 is_stmt 0 view .LVU898
 4216 1b9c 260057E3 		cmp	r7, #38
 4217 1ba0 2500000A 		beq	.L340
 4218              	.L331:
 4219              	.L323:
 4220              	.LVL305:
 4221              	.LBB126:
 4222              	.LBI126:
 248:/home/hkh/git/eapidk-code-r76-trunk/apps/EeePProg/linux/../EeePProg.c ****     const char *Destination,
 4223              		.loc 1 248 1 is_stmt 1 view .LVU899
 4224              	.LBB127:
 263:/home/hkh/git/eapidk-code-r76-trunk/apps/EeePProg/linux/../EeePProg.c ****     EAPI_APP_RETURN_ERROR_IF_S(
 4225              		.loc 1 263 5 view .LVU900
 263:/home/hkh/git/eapidk-code-r76-trunk/apps/EeePProg/linux/../EeePProg.c ****     EAPI_APP_RETURN_ERROR_IF_S(
 4226              		.loc 1 263 14 is_stmt 0 view .LVU901
 4227 1ba4 D0109FE5 		ldr	r1, .L341+12
 4228 1ba8 0400A0E1 		mov	r0, r4
 4229              	.LPIC226:
 4230 1bac 01108FE0 		add	r1, pc, r1
 4231 1bb0 FEFFFFEB 		bl	fopen(PLT)
 4232              	.LVL306:
 264:/home/hkh/git/eapidk-code-r76-trunk/apps/EeePProg/linux/../EeePProg.c ****          CreateTxtFilePtr,
 4233              		.loc 1 264 5 view .LVU902
 4234 1bb4 000050E3 		cmp	r0, #0
 263:/home/hkh/git/eapidk-code-r76-trunk/apps/EeePProg/linux/../EeePProg.c ****     EAPI_APP_RETURN_ERROR_IF_S(
 4235              		.loc 1 263 13 view .LVU903
 4236 1bb8 000085E5 		str	r0, [r5]
 264:/home/hkh/git/eapidk-code-r76-trunk/apps/EeePProg/linux/../EeePProg.c ****          CreateTxtFilePtr,
 4237              		.loc 1 264 5 is_stmt 1 view .LVU904
 253:/home/hkh/git/eapidk-code-r76-trunk/apps/EeePProg/linux/../EeePProg.c ****   if(!strcmp(Destination, "stdout")){
 4238              		.loc 1 253 16 is_stmt 0 view .LVU905
ARM GAS  /tmp/ccqui9DH.s 			page 101


 4239 1bbc 0000A013 		movne	r0, #0
 4240              	.LVL307:
 253:/home/hkh/git/eapidk-code-r76-trunk/apps/EeePProg/linux/../EeePProg.c ****   if(!strcmp(Destination, "stdout")){
 4241              		.loc 1 253 16 view .LVU906
 4242              	.LBE127:
 4243              	.LBE126:
 264:/home/hkh/git/eapidk-code-r76-trunk/apps/EeePProg/linux/../EeePProg.c ****          CreateTxtFilePtr,
 4244              		.loc 1 264 5 is_stmt 1 view .LVU907
 268:/home/hkh/git/eapidk-code-r76-trunk/apps/EeePProg/linux/../EeePProg.c ****   }
 4245              		.loc 1 268 8 view .LVU908
 271:/home/hkh/git/eapidk-code-r76-trunk/apps/EeePProg/linux/../EeePProg.c **** }
 4246              		.loc 1 271 3 view .LVU909
 4247              	.LBB129:
 4248              	.LBB128:
 264:/home/hkh/git/eapidk-code-r76-trunk/apps/EeePProg/linux/../EeePProg.c ****          CreateTxtFilePtr,
 4249              		.loc 1 264 5 is_stmt 0 view .LVU910
 4250 1bc0 1B00001A 		bne	.L321
 264:/home/hkh/git/eapidk-code-r76-trunk/apps/EeePProg/linux/../EeePProg.c ****          CreateTxtFilePtr,
 4251              		.loc 1 264 5 is_stmt 1 view .LVU911
 264:/home/hkh/git/eapidk-code-r76-trunk/apps/EeePProg/linux/../EeePProg.c ****          CreateTxtFilePtr,
 4252              		.loc 1 264 5 view .LVU912
 4253 1bc4 B4C09FE5 		ldr	ip, .L341+16
 4254 1bc8 FE4A0FE3 		movw	r4, #64254
 4255              	.LVL308:
 264:/home/hkh/git/eapidk-code-r76-trunk/apps/EeePProg/linux/../EeePProg.c ****          CreateTxtFilePtr,
 4256              		.loc 1 264 5 is_stmt 0 view .LVU913
 4257 1bcc B0009FE5 		ldr	r0, .L341+20
 4258 1bd0 FF4F4FE3 		movt	r4, 65535
 4259 1bd4 AC209FE5 		ldr	r2, .L341+24
 4260 1bd8 423FA0E3 		mov	r3, #264
 4261 1bdc A8109FE5 		ldr	r1, .L341+28
 4262              	.LPIC229:
 4263 1be0 0CC08FE0 		add	ip, pc, ip
 4264              	.LPIC230:
 4265 1be4 00008FE0 		add	r0, pc, r0
 4266 1be8 00408DE5 		str	r4, [sp]
 4267 1bec 01108DE9 		stmib	sp, {r0, ip}
 4268              	.LPIC227:
 4269 1bf0 02208FE0 		add	r2, pc, r2
 4270              	.LPIC228:
 4271 1bf4 01108FE0 		add	r1, pc, r1
 4272 1bf8 4500A0E3 		mov	r0, #69
 4273 1bfc FEFFFFEB 		bl	siFormattedMessage_SC(PLT)
 4274              	.LVL309:
 264:/home/hkh/git/eapidk-code-r76-trunk/apps/EeePProg/linux/../EeePProg.c ****          CreateTxtFilePtr,
 4275              		.loc 1 264 5 is_stmt 1 view .LVU914
 264:/home/hkh/git/eapidk-code-r76-trunk/apps/EeePProg/linux/../EeePProg.c ****          CreateTxtFilePtr,
 4276              		.loc 1 264 5 view .LVU915
 264:/home/hkh/git/eapidk-code-r76-trunk/apps/EeePProg/linux/../EeePProg.c ****          CreateTxtFilePtr,
 4277              		.loc 1 264 5 view .LVU916
 4278 1c00 0400A0E1 		mov	r0, r4
 4279 1c04 0A0000EA 		b	.L321
 4280              	.LVL310:
 4281              	.L339:
 264:/home/hkh/git/eapidk-code-r76-trunk/apps/EeePProg/linux/../EeePProg.c ****          CreateTxtFilePtr,
 4282              		.loc 1 264 5 is_stmt 0 view .LVU917
 4283              	.LBE128:
ARM GAS  /tmp/ccqui9DH.s 			page 102


 4284              	.LBE129:
 256:/home/hkh/git/eapidk-code-r76-trunk/apps/EeePProg/linux/../EeePProg.c ****      *FilePtr=stdout;
 4285              		.loc 1 256 13 view .LVU918
 4286 1c08 0130D4E5 		ldrb	r3, [r4, #1]	@ zero_extendqisi2
 4287 1c0c 310053E3 		cmp	r3, #49
 4288 1c10 DBFFFF1A 		bne	.L330
 4289 1c14 0230D4E5 		ldrb	r3, [r4, #2]	@ zero_extendqisi2
 256:/home/hkh/git/eapidk-code-r76-trunk/apps/EeePProg/linux/../EeePProg.c ****      *FilePtr=stdout;
 4290              		.loc 1 256 11 view .LVU919
 4291 1c18 000053E3 		cmp	r3, #0
 4292 1c1c D8FFFF1A 		bne	.L330
 4293              	.L325:
 255:/home/hkh/git/eapidk-code-r76-trunk/apps/EeePProg/linux/../EeePProg.c ****   }else if(!strcmp(Destination, "&1")){
 4294              		.loc 1 255 6 is_stmt 1 view .LVU920
 255:/home/hkh/git/eapidk-code-r76-trunk/apps/EeePProg/linux/../EeePProg.c ****   }else if(!strcmp(Destination, "&1")){
 4295              		.loc 1 255 14 is_stmt 0 view .LVU921
 4296 1c20 68309FE5 		ldr	r3, .L341+32
 253:/home/hkh/git/eapidk-code-r76-trunk/apps/EeePProg/linux/../EeePProg.c ****   if(!strcmp(Destination, "stdout")){
 4297              		.loc 1 253 16 view .LVU922
 4298 1c24 0000A0E3 		mov	r0, #0
 255:/home/hkh/git/eapidk-code-r76-trunk/apps/EeePProg/linux/../EeePProg.c ****   }else if(!strcmp(Destination, "&1")){
 4299              		.loc 1 255 14 view .LVU923
 4300 1c28 033096E7 		ldr	r3, [r6, r3]
 4301 1c2c 003093E5 		ldr	r3, [r3]
 4302 1c30 003085E5 		str	r3, [r5]
 4303              	.LVL311:
 4304              	.L321:
 272:/home/hkh/git/eapidk-code-r76-trunk/apps/EeePProg/linux/../EeePProg.c **** EApiStatus_t
 4305              		.loc 1 272 1 view .LVU924
 4306 1c34 14D08DE2 		add	sp, sp, #20
 4307              		.cfi_remember_state
 4308              		.cfi_def_cfa_offset 20
 4309              		@ sp needed
 4310 1c38 F080BDE8 		pop	{r4, r5, r6, r7, pc}
 4311              	.LVL312:
 4312              	.L340:
 4313              		.cfi_restore_state
 260:/home/hkh/git/eapidk-code-r76-trunk/apps/EeePProg/linux/../EeePProg.c ****      *FilePtr=stderr;
 4314              		.loc 1 260 13 view .LVU925
 4315 1c3c 0130D4E5 		ldrb	r3, [r4, #1]	@ zero_extendqisi2
 4316 1c40 320053E3 		cmp	r3, #50
 4317 1c44 D6FFFF1A 		bne	.L331
 4318 1c48 0230D4E5 		ldrb	r3, [r4, #2]	@ zero_extendqisi2
 260:/home/hkh/git/eapidk-code-r76-trunk/apps/EeePProg/linux/../EeePProg.c ****      *FilePtr=stderr;
 4319              		.loc 1 260 11 view .LVU926
 4320 1c4c 000053E3 		cmp	r3, #0
 4321 1c50 D3FFFF1A 		bne	.L331
 4322              	.L328:
 259:/home/hkh/git/eapidk-code-r76-trunk/apps/EeePProg/linux/../EeePProg.c ****   }else if(!strcmp(Destination, "&2")){
 4323              		.loc 1 259 6 is_stmt 1 view .LVU927
 259:/home/hkh/git/eapidk-code-r76-trunk/apps/EeePProg/linux/../EeePProg.c ****   }else if(!strcmp(Destination, "&2")){
 4324              		.loc 1 259 14 is_stmt 0 view .LVU928
 4325 1c54 38309FE5 		ldr	r3, .L341+36
 253:/home/hkh/git/eapidk-code-r76-trunk/apps/EeePProg/linux/../EeePProg.c ****   if(!strcmp(Destination, "stdout")){
 4326              		.loc 1 253 16 view .LVU929
 4327 1c58 0000A0E3 		mov	r0, #0
 259:/home/hkh/git/eapidk-code-r76-trunk/apps/EeePProg/linux/../EeePProg.c ****   }else if(!strcmp(Destination, "&2")){
ARM GAS  /tmp/ccqui9DH.s 			page 103


 4328              		.loc 1 259 14 view .LVU930
 4329 1c5c 033096E7 		ldr	r3, [r6, r3]
 4330 1c60 003093E5 		ldr	r3, [r3]
 4331 1c64 003085E5 		str	r3, [r5]
 272:/home/hkh/git/eapidk-code-r76-trunk/apps/EeePProg/linux/../EeePProg.c **** EApiStatus_t
 4332              		.loc 1 272 1 view .LVU931
 4333 1c68 14D08DE2 		add	sp, sp, #20
 4334              		.cfi_def_cfa_offset 20
 4335              		@ sp needed
 4336 1c6c F080BDE8 		pop	{r4, r5, r6, r7, pc}
 4337              	.LVL313:
 4338              	.L342:
 272:/home/hkh/git/eapidk-code-r76-trunk/apps/EeePProg/linux/../EeePProg.c **** EApiStatus_t
 4339              		.loc 1 272 1 view .LVU932
 4340              		.align	2
 4341              	.L341:
 4342 1c70 04010000 		.word	.LC29-(.LPIC223+8)
 4343 1c74 FC000000 		.word	_GLOBAL_OFFSET_TABLE_-(.LPIC224+8)
 4344 1c78 E4000000 		.word	.LC30-(.LPIC225+8)
 4345 1c7c C8000000 		.word	.LC31-(.LPIC226+8)
 4346 1c80 98000000 		.word	.LC33-(.LPIC229+8)
 4347 1c84 98000000 		.word	.LC3-(.LPIC230+8)
 4348 1c88 90000000 		.word	.LC32-(.LPIC227+8)
 4349 1c8c 90000000 		.word	.LC1-(.LPIC228+8)
 4350 1c90 00000000 		.word	stdout(GOT)
 4351 1c94 00000000 		.word	stderr(GOT)
 4352              		.cfi_endproc
 4353              	.LFE1:
 4355              		.align	2
 4356              		.global	FreeFilePtr
 4357              		.syntax unified
 4358              		.arm
 4359              		.fpu vfpv3
 4361              	FreeFilePtr:
 4362              	.LVL314:
 4363              	.LFB2:
 277:/home/hkh/git/eapidk-code-r76-trunk/apps/EeePProg/linux/../EeePProg.c ****   FILE *     LclFilePtr=*FilePtr;
 4364              		.loc 1 277 1 is_stmt 1 view -0
 4365              		.cfi_startproc
 4366              		@ args = 0, pretend = 0, frame = 0
 4367              		@ frame_needed = 0, uses_anonymous_args = 0
 278:/home/hkh/git/eapidk-code-r76-trunk/apps/EeePProg/linux/../EeePProg.c ****   if(LclFilePtr!=stdout&&LclFilePtr!=stderr&&LclFilePtr!=NULL){
 4368              		.loc 1 278 3 view .LVU934
 277:/home/hkh/git/eapidk-code-r76-trunk/apps/EeePProg/linux/../EeePProg.c ****   FILE *     LclFilePtr=*FilePtr;
 4369              		.loc 1 277 1 is_stmt 0 view .LVU935
 4370 1c98 4C209FE5 		ldr	r2, .L350
 279:/home/hkh/git/eapidk-code-r76-trunk/apps/EeePProg/linux/../EeePProg.c ****     fclose(LclFilePtr);
 4371              		.loc 1 279 16 view .LVU936
 4372 1c9c 4C309FE5 		ldr	r3, .L350+4
 277:/home/hkh/git/eapidk-code-r76-trunk/apps/EeePProg/linux/../EeePProg.c ****   FILE *     LclFilePtr=*FilePtr;
 4373              		.loc 1 277 1 view .LVU937
 4374 1ca0 10402DE9 		push	{r4, lr}
 4375              		.cfi_def_cfa_offset 8
 4376              		.cfi_offset 4, -8
 4377              		.cfi_offset 14, -4
 277:/home/hkh/git/eapidk-code-r76-trunk/apps/EeePProg/linux/../EeePProg.c ****   FILE *     LclFilePtr=*FilePtr;
 4378              		.loc 1 277 1 view .LVU938
ARM GAS  /tmp/ccqui9DH.s 			page 104


 4379 1ca4 0040A0E1 		mov	r4, r0
 4380              	.LPIC231:
 4381 1ca8 02208FE0 		add	r2, pc, r2
 278:/home/hkh/git/eapidk-code-r76-trunk/apps/EeePProg/linux/../EeePProg.c ****   if(LclFilePtr!=stdout&&LclFilePtr!=stderr&&LclFilePtr!=NULL){
 4382              		.loc 1 278 14 view .LVU939
 4383 1cac 000090E5 		ldr	r0, [r0]
 4384              	.LVL315:
 279:/home/hkh/git/eapidk-code-r76-trunk/apps/EeePProg/linux/../EeePProg.c ****     fclose(LclFilePtr);
 4385              		.loc 1 279 3 is_stmt 1 view .LVU940
 279:/home/hkh/git/eapidk-code-r76-trunk/apps/EeePProg/linux/../EeePProg.c ****     fclose(LclFilePtr);
 4386              		.loc 1 279 16 is_stmt 0 view .LVU941
 4387 1cb0 033092E7 		ldr	r3, [r2, r3]
 279:/home/hkh/git/eapidk-code-r76-trunk/apps/EeePProg/linux/../EeePProg.c ****     fclose(LclFilePtr);
 4388              		.loc 1 279 5 view .LVU942
 4389 1cb4 003093E5 		ldr	r3, [r3]
 4390 1cb8 000053E1 		cmp	r3, r0
 4391 1cbc 0500000A 		beq	.L344
 279:/home/hkh/git/eapidk-code-r76-trunk/apps/EeePProg/linux/../EeePProg.c ****     fclose(LclFilePtr);
 4392              		.loc 1 279 36 discriminator 1 view .LVU943
 4393 1cc0 2C309FE5 		ldr	r3, .L350+8
 4394 1cc4 033092E7 		ldr	r3, [r2, r3]
 279:/home/hkh/git/eapidk-code-r76-trunk/apps/EeePProg/linux/../EeePProg.c ****     fclose(LclFilePtr);
 4395              		.loc 1 279 24 discriminator 1 view .LVU944
 4396 1cc8 003093E5 		ldr	r3, [r3]
 279:/home/hkh/git/eapidk-code-r76-trunk/apps/EeePProg/linux/../EeePProg.c ****     fclose(LclFilePtr);
 4397              		.loc 1 279 44 discriminator 1 view .LVU945
 4398 1ccc 000053E1 		cmp	r3, r0
 4399 1cd0 00005013 		cmpne	r0, #0
 4400 1cd4 0200001A 		bne	.L349
 4401              	.LVL316:
 4402              	.L344:
 281:/home/hkh/git/eapidk-code-r76-trunk/apps/EeePProg/linux/../EeePProg.c ****   *FilePtr=NULL;
 4403              		.loc 1 281 4 is_stmt 1 view .LVU946
 282:/home/hkh/git/eapidk-code-r76-trunk/apps/EeePProg/linux/../EeePProg.c ****   return EAPI_STATUS_SUCCESS;
 4404              		.loc 1 282 3 view .LVU947
 282:/home/hkh/git/eapidk-code-r76-trunk/apps/EeePProg/linux/../EeePProg.c ****   return EAPI_STATUS_SUCCESS;
 4405              		.loc 1 282 11 is_stmt 0 view .LVU948
 4406 1cd8 0000A0E3 		mov	r0, #0
 4407 1cdc 000084E5 		str	r0, [r4]
 283:/home/hkh/git/eapidk-code-r76-trunk/apps/EeePProg/linux/../EeePProg.c **** }
 4408              		.loc 1 283 3 is_stmt 1 view .LVU949
 284:/home/hkh/git/eapidk-code-r76-trunk/apps/EeePProg/linux/../EeePProg.c **** #define FREE_BUFFER(x) \
 4409              		.loc 1 284 1 is_stmt 0 view .LVU950
 4410 1ce0 1080BDE8 		pop	{r4, pc}
 4411              	.LVL317:
 4412              	.L349:
 280:/home/hkh/git/eapidk-code-r76-trunk/apps/EeePProg/linux/../EeePProg.c ****   };
 4413              		.loc 1 280 5 is_stmt 1 view .LVU951
 4414 1ce4 FEFFFFEB 		bl	fclose(PLT)
 4415              	.LVL318:
 280:/home/hkh/git/eapidk-code-r76-trunk/apps/EeePProg/linux/../EeePProg.c ****   };
 4416              		.loc 1 280 5 is_stmt 0 view .LVU952
 4417 1ce8 FAFFFFEA 		b	.L344
 4418              	.L351:
 4419              		.align	2
 4420              	.L350:
 4421 1cec 3C000000 		.word	_GLOBAL_OFFSET_TABLE_-(.LPIC231+8)
ARM GAS  /tmp/ccqui9DH.s 			page 105


 4422 1cf0 00000000 		.word	stdout(GOT)
 4423 1cf4 00000000 		.word	stderr(GOT)
 4424              		.cfi_endproc
 4425              	.LFE2:
 4427              		.section	.rodata.str1.4
 4428 077e 0000     		.align	2
 4429              	.LC38:
 4430 0780 6D61696E 		.ascii	"main\000"
 4430      00
 4431 0785 000000   		.align	2
 4432              	.LC39:
 4433 0788 45417069 		.ascii	"EApiLibInitialize()\000"
 4433      4C696249 
 4433      6E697469 
 4433      616C697A 
 4433      65282900 
 4434              		.align	2
 4435              	.LC40:
 4436 079c 257300   		.ascii	"%s\000"
 4437 079f 00       		.align	2
 4438              	.LC41:
 4439 07a0 50617273 		.ascii	"ParseArgs(argc, argv, ArgsDesc, ARRAY_SIZE(ArgsDesc"
 4439      65417267 
 4439      73286172 
 4439      67632C20 
 4439      61726776 
 4440 07d3 292900   		.ascii	"))\000"
 4441 07d6 0000     		.align	2
 4442              	.LC42:
 4443 07d8 45417069 		.ascii	"EApiLibUnInitialize()\000"
 4443      4C696255 
 4443      6E496E69 
 4443      7469616C 
 4443      697A6528 
 4444              		.section	.text.startup,"ax",%progbits
 4445              		.align	2
 4446              		.global	main
 4447              		.syntax unified
 4448              		.arm
 4449              		.fpu vfpv3
 4451              	main:
 4452              	.LVL319:
 4453              	.LFB22:
 633:/home/hkh/git/eapidk-code-r76-trunk/apps/EeePProg/linux/../EeePProg.c **** 
 634:/home/hkh/git/eapidk-code-r76-trunk/apps/EeePProg/linux/../EeePProg.c **** 
 635:/home/hkh/git/eapidk-code-r76-trunk/apps/EeePProg/linux/../EeePProg.c **** 
 636:/home/hkh/git/eapidk-code-r76-trunk/apps/EeePProg/linux/../EeePProg.c **** CmdDesc_t ArgsDesc[]={
 637:/home/hkh/git/eapidk-code-r76-trunk/apps/EeePProg/linux/../EeePProg.c ****   {
 638:/home/hkh/git/eapidk-code-r76-trunk/apps/EeePProg/linux/../EeePProg.c ****     'q'                                             , 
 639:/home/hkh/git/eapidk-code-r76-trunk/apps/EeePProg/linux/../EeePProg.c ****     "quiet"                                         , 
 640:/home/hkh/git/eapidk-code-r76-trunk/apps/EeePProg/linux/../EeePProg.c ****     &CurOptions.uiQuiet                             , 
 641:/home/hkh/git/eapidk-code-r76-trunk/apps/EeePProg/linux/../EeePProg.c ****     "Minimises Output"                              , 
 642:/home/hkh/git/eapidk-code-r76-trunk/apps/EeePProg/linux/../EeePProg.c ****     NULL                                            ,
 643:/home/hkh/git/eapidk-code-r76-trunk/apps/EeePProg/linux/../EeePProg.c ****     0                                               ,
 644:/home/hkh/git/eapidk-code-r76-trunk/apps/EeePProg/linux/../EeePProg.c ****     NULL                                            ,
 645:/home/hkh/git/eapidk-code-r76-trunk/apps/EeePProg/linux/../EeePProg.c ****     NULL
 646:/home/hkh/git/eapidk-code-r76-trunk/apps/EeePProg/linux/../EeePProg.c ****   },
ARM GAS  /tmp/ccqui9DH.s 			page 106


 647:/home/hkh/git/eapidk-code-r76-trunk/apps/EeePProg/linux/../EeePProg.c ****   {
 648:/home/hkh/git/eapidk-code-r76-trunk/apps/EeePProg/linux/../EeePProg.c ****     'h'                                             , 
 649:/home/hkh/git/eapidk-code-r76-trunk/apps/EeePProg/linux/../EeePProg.c ****     "help"                                          , 
 650:/home/hkh/git/eapidk-code-r76-trunk/apps/EeePProg/linux/../EeePProg.c ****     &CurOptions.uiHelp                              , 
 651:/home/hkh/git/eapidk-code-r76-trunk/apps/EeePProg/linux/../EeePProg.c ****     "Print this usage message"                      , 
 652:/home/hkh/git/eapidk-code-r76-trunk/apps/EeePProg/linux/../EeePProg.c ****     NULL                                            ,
 653:/home/hkh/git/eapidk-code-r76-trunk/apps/EeePProg/linux/../EeePProg.c ****     0                                               ,
 654:/home/hkh/git/eapidk-code-r76-trunk/apps/EeePProg/linux/../EeePProg.c ****     NULL                                            ,
 655:/home/hkh/git/eapidk-code-r76-trunk/apps/EeePProg/linux/../EeePProg.c ****     NULL
 656:/home/hkh/git/eapidk-code-r76-trunk/apps/EeePProg/linux/../EeePProg.c ****   },
 657:/home/hkh/git/eapidk-code-r76-trunk/apps/EeePProg/linux/../EeePProg.c ****   {
 658:/home/hkh/git/eapidk-code-r76-trunk/apps/EeePProg/linux/../EeePProg.c ****     '?'                                             , 
 659:/home/hkh/git/eapidk-code-r76-trunk/apps/EeePProg/linux/../EeePProg.c ****     NULL                                            , 
 660:/home/hkh/git/eapidk-code-r76-trunk/apps/EeePProg/linux/../EeePProg.c ****     &CurOptions.uiHelp                              , 
 661:/home/hkh/git/eapidk-code-r76-trunk/apps/EeePProg/linux/../EeePProg.c ****     "Print this usage message"                      , 
 662:/home/hkh/git/eapidk-code-r76-trunk/apps/EeePProg/linux/../EeePProg.c ****     NULL                                            ,
 663:/home/hkh/git/eapidk-code-r76-trunk/apps/EeePProg/linux/../EeePProg.c ****     0                                               ,
 664:/home/hkh/git/eapidk-code-r76-trunk/apps/EeePProg/linux/../EeePProg.c ****     NULL                                            ,
 665:/home/hkh/git/eapidk-code-r76-trunk/apps/EeePProg/linux/../EeePProg.c ****     NULL
 666:/home/hkh/git/eapidk-code-r76-trunk/apps/EeePProg/linux/../EeePProg.c ****   },
 667:/home/hkh/git/eapidk-code-r76-trunk/apps/EeePProg/linux/../EeePProg.c ****   {
 668:/home/hkh/git/eapidk-code-r76-trunk/apps/EeePProg/linux/../EeePProg.c ****     'v'                                             , 
 669:/home/hkh/git/eapidk-code-r76-trunk/apps/EeePProg/linux/../EeePProg.c ****     "verbose"                                       , 
 670:/home/hkh/git/eapidk-code-r76-trunk/apps/EeePProg/linux/../EeePProg.c ****     &CurOptions.uiVerbose                           , 
 671:/home/hkh/git/eapidk-code-r76-trunk/apps/EeePProg/linux/../EeePProg.c ****     "Increases Verbosity Level"                     , 
 672:/home/hkh/git/eapidk-code-r76-trunk/apps/EeePProg/linux/../EeePProg.c ****     NULL                                            ,
 673:/home/hkh/git/eapidk-code-r76-trunk/apps/EeePProg/linux/../EeePProg.c ****     0                                               ,
 674:/home/hkh/git/eapidk-code-r76-trunk/apps/EeePProg/linux/../EeePProg.c ****     NULL                                            ,
 675:/home/hkh/git/eapidk-code-r76-trunk/apps/EeePProg/linux/../EeePProg.c ****     NULL
 676:/home/hkh/git/eapidk-code-r76-trunk/apps/EeePProg/linux/../EeePProg.c ****   },
 677:/home/hkh/git/eapidk-code-r76-trunk/apps/EeePProg/linux/../EeePProg.c ****   {
 678:/home/hkh/git/eapidk-code-r76-trunk/apps/EeePProg/linux/../EeePProg.c ****     0x00                                            , 
 679:/home/hkh/git/eapidk-code-r76-trunk/apps/EeePProg/linux/../EeePProg.c ****     "CREATE-COM0R20M-CFG"                           , 
 680:/home/hkh/git/eapidk-code-r76-trunk/apps/EeePProg/linux/../EeePProg.c ****     &CurOptions.uiCreateCOM0R20M_CFG                , 
 681:/home/hkh/git/eapidk-code-r76-trunk/apps/EeePProg/linux/../EeePProg.c ****     "Create COM0 Module Config File Template"       , 
 682:/home/hkh/git/eapidk-code-r76-trunk/apps/EeePProg/linux/../EeePProg.c ****     COM0R20M_Cfg                                    ,
 683:/home/hkh/git/eapidk-code-r76-trunk/apps/EeePProg/linux/../EeePProg.c ****     ARRAY_SIZE(COM0R20M_Cfg)                        ,
 684:/home/hkh/git/eapidk-code-r76-trunk/apps/EeePProg/linux/../EeePProg.c ****     &CurOptions.szCOM0R20M_Cfg_File                 ,
 685:/home/hkh/git/eapidk-code-r76-trunk/apps/EeePProg/linux/../EeePProg.c ****     CMD_CreateCOM0R20_MEEPCfg
 686:/home/hkh/git/eapidk-code-r76-trunk/apps/EeePProg/linux/../EeePProg.c ****   },
 687:/home/hkh/git/eapidk-code-r76-trunk/apps/EeePProg/linux/../EeePProg.c ****   {
 688:/home/hkh/git/eapidk-code-r76-trunk/apps/EeePProg/linux/../EeePProg.c ****     0x00                                            , 
 689:/home/hkh/git/eapidk-code-r76-trunk/apps/EeePProg/linux/../EeePProg.c ****     "CREATE-COM0R20M-IMG"                           , 
 690:/home/hkh/git/eapidk-code-r76-trunk/apps/EeePProg/linux/../EeePProg.c ****     &CurOptions.uiCreateCOM0R20M_IMG                , 
 691:/home/hkh/git/eapidk-code-r76-trunk/apps/EeePProg/linux/../EeePProg.c ****     "Create COM0 Module Binary File"                , 
 692:/home/hkh/git/eapidk-code-r76-trunk/apps/EeePProg/linux/../EeePProg.c ****     COM0R20M_Img                                    ,
 693:/home/hkh/git/eapidk-code-r76-trunk/apps/EeePProg/linux/../EeePProg.c ****     ARRAY_SIZE(COM0R20M_Img)                        ,
 694:/home/hkh/git/eapidk-code-r76-trunk/apps/EeePProg/linux/../EeePProg.c ****     &CurOptions.CreateCOM0R20M                      ,
 695:/home/hkh/git/eapidk-code-r76-trunk/apps/EeePProg/linux/../EeePProg.c ****     CMD_CreateCOM0R20M_IMG
 696:/home/hkh/git/eapidk-code-r76-trunk/apps/EeePProg/linux/../EeePProg.c ****   },
 697:/home/hkh/git/eapidk-code-r76-trunk/apps/EeePProg/linux/../EeePProg.c ****   {
 698:/home/hkh/git/eapidk-code-r76-trunk/apps/EeePProg/linux/../EeePProg.c ****     0x00                                            , 
 699:/home/hkh/git/eapidk-code-r76-trunk/apps/EeePProg/linux/../EeePProg.c ****     "CREATE-COM0R20M-EEP"                           , 
 700:/home/hkh/git/eapidk-code-r76-trunk/apps/EeePProg/linux/../EeePProg.c ****     &CurOptions.uiCreateCOM0R20M_EEP                , 
 701:/home/hkh/git/eapidk-code-r76-trunk/apps/EeePProg/linux/../EeePProg.c ****     "Create COM0 Module Content and Program over EApi", 
 702:/home/hkh/git/eapidk-code-r76-trunk/apps/EeePProg/linux/../EeePProg.c ****     COM0R20M_EEP                                    ,
 703:/home/hkh/git/eapidk-code-r76-trunk/apps/EeePProg/linux/../EeePProg.c ****     ARRAY_SIZE(COM0R20M_EEP)                        ,
ARM GAS  /tmp/ccqui9DH.s 			page 107


 704:/home/hkh/git/eapidk-code-r76-trunk/apps/EeePProg/linux/../EeePProg.c ****     &CurOptions.szCOM0R20M_S2Cfg_File               ,
 705:/home/hkh/git/eapidk-code-r76-trunk/apps/EeePProg/linux/../EeePProg.c ****     CMD_CreateCOM0R20M_EEP
 706:/home/hkh/git/eapidk-code-r76-trunk/apps/EeePProg/linux/../EeePProg.c ****   },
 707:/home/hkh/git/eapidk-code-r76-trunk/apps/EeePProg/linux/../EeePProg.c ****   {
 708:/home/hkh/git/eapidk-code-r76-trunk/apps/EeePProg/linux/../EeePProg.c ****     0x00, 
 709:/home/hkh/git/eapidk-code-r76-trunk/apps/EeePProg/linux/../EeePProg.c ****     "CREATE-COM0R20CB-CFG" , 
 710:/home/hkh/git/eapidk-code-r76-trunk/apps/EeePProg/linux/../EeePProg.c ****     &CurOptions.uiCreateCOM0R20CB_CFG               , 
 711:/home/hkh/git/eapidk-code-r76-trunk/apps/EeePProg/linux/../EeePProg.c ****     "Create COM0 Carrier Config File Template"      , 
 712:/home/hkh/git/eapidk-code-r76-trunk/apps/EeePProg/linux/../EeePProg.c ****     COM0R20CB_Cfg                                   ,
 713:/home/hkh/git/eapidk-code-r76-trunk/apps/EeePProg/linux/../EeePProg.c ****     ARRAY_SIZE(COM0R20CB_Cfg)                       ,
 714:/home/hkh/git/eapidk-code-r76-trunk/apps/EeePProg/linux/../EeePProg.c ****     &CurOptions.szCOM0R20CB_Cfg_File                ,
 715:/home/hkh/git/eapidk-code-r76-trunk/apps/EeePProg/linux/../EeePProg.c ****     CMD_CreateCOM0R20_CBCfg
 716:/home/hkh/git/eapidk-code-r76-trunk/apps/EeePProg/linux/../EeePProg.c ****   },
 717:/home/hkh/git/eapidk-code-r76-trunk/apps/EeePProg/linux/../EeePProg.c ****   {
 718:/home/hkh/git/eapidk-code-r76-trunk/apps/EeePProg/linux/../EeePProg.c ****     0x00                                            , 
 719:/home/hkh/git/eapidk-code-r76-trunk/apps/EeePProg/linux/../EeePProg.c ****     "CREATE-COM0R20CB-EEP"                          , 
 720:/home/hkh/git/eapidk-code-r76-trunk/apps/EeePProg/linux/../EeePProg.c ****     &CurOptions.uiCreateCOM0R20CB_EEP               , 
 721:/home/hkh/git/eapidk-code-r76-trunk/apps/EeePProg/linux/../EeePProg.c ****     "Create COM0 Carrier Content and Program over EApi", 
 722:/home/hkh/git/eapidk-code-r76-trunk/apps/EeePProg/linux/../EeePProg.c ****     COM0R20CB_EEP                                   ,
 723:/home/hkh/git/eapidk-code-r76-trunk/apps/EeePProg/linux/../EeePProg.c ****     ARRAY_SIZE(COM0R20CB_EEP)                       ,
 724:/home/hkh/git/eapidk-code-r76-trunk/apps/EeePProg/linux/../EeePProg.c ****     &CurOptions.szCOM0R20CB_S2Cfg_File              ,
 725:/home/hkh/git/eapidk-code-r76-trunk/apps/EeePProg/linux/../EeePProg.c ****     CMD_CreateCOM0R20CB_EEP
 726:/home/hkh/git/eapidk-code-r76-trunk/apps/EeePProg/linux/../EeePProg.c ****   },
 727:/home/hkh/git/eapidk-code-r76-trunk/apps/EeePProg/linux/../EeePProg.c ****   {
 728:/home/hkh/git/eapidk-code-r76-trunk/apps/EeePProg/linux/../EeePProg.c ****     0x00                                            , 
 729:/home/hkh/git/eapidk-code-r76-trunk/apps/EeePProg/linux/../EeePProg.c ****     "CREATE-COM0R20CB-IMG"                          , 
 730:/home/hkh/git/eapidk-code-r76-trunk/apps/EeePProg/linux/../EeePProg.c ****     &CurOptions.uiCreateCOM0R20CB_IMG               , 
 731:/home/hkh/git/eapidk-code-r76-trunk/apps/EeePProg/linux/../EeePProg.c ****     "Create COM0 Carrier Binary File"               , 
 732:/home/hkh/git/eapidk-code-r76-trunk/apps/EeePProg/linux/../EeePProg.c ****     COM0R20CB_Img                                   ,
 733:/home/hkh/git/eapidk-code-r76-trunk/apps/EeePProg/linux/../EeePProg.c ****     ARRAY_SIZE(COM0R20CB_Img)                       ,
 734:/home/hkh/git/eapidk-code-r76-trunk/apps/EeePProg/linux/../EeePProg.c ****     &CurOptions.CreateCOM0R20CB                     ,
 735:/home/hkh/git/eapidk-code-r76-trunk/apps/EeePProg/linux/../EeePProg.c ****     CMD_CreateCOM0R20CB_IMG
 736:/home/hkh/git/eapidk-code-r76-trunk/apps/EeePProg/linux/../EeePProg.c ****   },
 737:/home/hkh/git/eapidk-code-r76-trunk/apps/EeePProg/linux/../EeePProg.c ****   {
 738:/home/hkh/git/eapidk-code-r76-trunk/apps/EeePProg/linux/../EeePProg.c ****     0x00                                            , 
 739:/home/hkh/git/eapidk-code-r76-trunk/apps/EeePProg/linux/../EeePProg.c ****     "CREATE-EeePExpEEP-CFG"                         , 
 740:/home/hkh/git/eapidk-code-r76-trunk/apps/EeePProg/linux/../EeePProg.c ****     &CurOptions.uiCreateEeePExpEEP_CFG              , 
 741:/home/hkh/git/eapidk-code-r76-trunk/apps/EeePProg/linux/../EeePProg.c ****     "Create EeeP Expansion EEP Config File Template", 
 742:/home/hkh/git/eapidk-code-r76-trunk/apps/EeePProg/linux/../EeePProg.c ****     EeePExpEEP_Cfg                                  ,
 743:/home/hkh/git/eapidk-code-r76-trunk/apps/EeePProg/linux/../EeePProg.c ****     ARRAY_SIZE(EeePExpEEP_Cfg)                      ,
 744:/home/hkh/git/eapidk-code-r76-trunk/apps/EeePProg/linux/../EeePProg.c ****     &CurOptions.szEeePExpEEP_Cfg_File               ,
 745:/home/hkh/git/eapidk-code-r76-trunk/apps/EeePProg/linux/../EeePProg.c ****     CMD_CreateCOM0R20_EeePExtCfg
 746:/home/hkh/git/eapidk-code-r76-trunk/apps/EeePProg/linux/../EeePProg.c ****   },
 747:/home/hkh/git/eapidk-code-r76-trunk/apps/EeePProg/linux/../EeePProg.c ****   {
 748:/home/hkh/git/eapidk-code-r76-trunk/apps/EeePProg/linux/../EeePProg.c ****     0x00                                            , 
 749:/home/hkh/git/eapidk-code-r76-trunk/apps/EeePProg/linux/../EeePProg.c ****     "CREATE-EeePExpEEP-IMG"                         , 
 750:/home/hkh/git/eapidk-code-r76-trunk/apps/EeePProg/linux/../EeePProg.c ****     &CurOptions.uiCreateEeePExpEEP_IMG              , 
 751:/home/hkh/git/eapidk-code-r76-trunk/apps/EeePProg/linux/../EeePProg.c ****     "Create EeeP Expansion EEP Binary File"         , 
 752:/home/hkh/git/eapidk-code-r76-trunk/apps/EeePProg/linux/../EeePProg.c ****     EeePExpEEP_Img                                  ,
 753:/home/hkh/git/eapidk-code-r76-trunk/apps/EeePProg/linux/../EeePProg.c ****     ARRAY_SIZE(EeePExpEEP_Img)                      ,
 754:/home/hkh/git/eapidk-code-r76-trunk/apps/EeePProg/linux/../EeePProg.c ****     &CurOptions.CreateEeePExpEEP                    ,
 755:/home/hkh/git/eapidk-code-r76-trunk/apps/EeePProg/linux/../EeePProg.c ****     CMD_CreateExtEepEEP_IMG
 756:/home/hkh/git/eapidk-code-r76-trunk/apps/EeePProg/linux/../EeePProg.c ****   },
 757:/home/hkh/git/eapidk-code-r76-trunk/apps/EeePProg/linux/../EeePProg.c ****   {
 758:/home/hkh/git/eapidk-code-r76-trunk/apps/EeePProg/linux/../EeePProg.c ****     0x00                                            , 
 759:/home/hkh/git/eapidk-code-r76-trunk/apps/EeePProg/linux/../EeePProg.c ****     "CREATE-EeePExpEEP-EEP"                         , 
 760:/home/hkh/git/eapidk-code-r76-trunk/apps/EeePProg/linux/../EeePProg.c ****     &CurOptions.uiCreateEeePExpEEP_EEP              , 
ARM GAS  /tmp/ccqui9DH.s 			page 108


 761:/home/hkh/git/eapidk-code-r76-trunk/apps/EeePProg/linux/../EeePProg.c ****     "Create EeeP Expansion EEP Image and Program over EApi", 
 762:/home/hkh/git/eapidk-code-r76-trunk/apps/EeePProg/linux/../EeePProg.c ****     EeePExpEEP_EEP                                  ,
 763:/home/hkh/git/eapidk-code-r76-trunk/apps/EeePProg/linux/../EeePProg.c ****     ARRAY_SIZE(EeePExpEEP_EEP)                      ,
 764:/home/hkh/git/eapidk-code-r76-trunk/apps/EeePProg/linux/../EeePProg.c ****     &CurOptions.CreateEeePExpEEP_EEP                ,
 765:/home/hkh/git/eapidk-code-r76-trunk/apps/EeePProg/linux/../EeePProg.c ****     CMD_CreateEeePExt_EEP
 766:/home/hkh/git/eapidk-code-r76-trunk/apps/EeePProg/linux/../EeePProg.c ****   },
 767:/home/hkh/git/eapidk-code-r76-trunk/apps/EeePProg/linux/../EeePProg.c ****   {
 768:/home/hkh/git/eapidk-code-r76-trunk/apps/EeePProg/linux/../EeePProg.c ****     0x00                                            , 
 769:/home/hkh/git/eapidk-code-r76-trunk/apps/EeePProg/linux/../EeePProg.c ****     "PROGRAM-EeePExpEEP-EEP"                        , 
 770:/home/hkh/git/eapidk-code-r76-trunk/apps/EeePProg/linux/../EeePProg.c ****     &CurOptions.uiProgramEeePExpEEP_EEP             , 
 771:/home/hkh/git/eapidk-code-r76-trunk/apps/EeePProg/linux/../EeePProg.c ****     "Program EeeP Expansion EEP Image file over EApi", 
 772:/home/hkh/git/eapidk-code-r76-trunk/apps/EeePProg/linux/../EeePProg.c ****     EeePExpEEP_PEEP                                 ,
 773:/home/hkh/git/eapidk-code-r76-trunk/apps/EeePProg/linux/../EeePProg.c ****     ARRAY_SIZE(EeePExpEEP_PEEP)                     ,
 774:/home/hkh/git/eapidk-code-r76-trunk/apps/EeePProg/linux/../EeePProg.c ****     &CurOptions.ProgramEeePExpEEP_EEP               ,
 775:/home/hkh/git/eapidk-code-r76-trunk/apps/EeePProg/linux/../EeePProg.c ****     CMD_ProgramEeePExt_EEP
 776:/home/hkh/git/eapidk-code-r76-trunk/apps/EeePProg/linux/../EeePProg.c ****   },
 777:/home/hkh/git/eapidk-code-r76-trunk/apps/EeePProg/linux/../EeePProg.c ****   {
 778:/home/hkh/git/eapidk-code-r76-trunk/apps/EeePProg/linux/../EeePProg.c ****     0x00                                            , 
 779:/home/hkh/git/eapidk-code-r76-trunk/apps/EeePProg/linux/../EeePProg.c ****     "PROGRAM-COM0R20CB-EEP"                         , 
 780:/home/hkh/git/eapidk-code-r76-trunk/apps/EeePProg/linux/../EeePProg.c ****     &CurOptions.uiProgramCOM0R20CB_EEP              , 
 781:/home/hkh/git/eapidk-code-r76-trunk/apps/EeePProg/linux/../EeePProg.c ****     "Program COM0 R2.0 Carrier Board EEP Image file over EApi", 
 782:/home/hkh/git/eapidk-code-r76-trunk/apps/EeePProg/linux/../EeePProg.c ****     COM0R20CB_PEEP                                  ,
 783:/home/hkh/git/eapidk-code-r76-trunk/apps/EeePProg/linux/../EeePProg.c ****     ARRAY_SIZE(COM0R20CB_PEEP)                      ,
 784:/home/hkh/git/eapidk-code-r76-trunk/apps/EeePProg/linux/../EeePProg.c ****     &CurOptions.szCOM0R20CB_SBIN_File               ,
 785:/home/hkh/git/eapidk-code-r76-trunk/apps/EeePProg/linux/../EeePProg.c ****     CMD_ProgramCOM0R20CB_EEP
 786:/home/hkh/git/eapidk-code-r76-trunk/apps/EeePProg/linux/../EeePProg.c ****   },
 787:/home/hkh/git/eapidk-code-r76-trunk/apps/EeePProg/linux/../EeePProg.c ****   {
 788:/home/hkh/git/eapidk-code-r76-trunk/apps/EeePProg/linux/../EeePProg.c ****     0x00                                            , 
 789:/home/hkh/git/eapidk-code-r76-trunk/apps/EeePProg/linux/../EeePProg.c ****     "PROGRAM-COM0R20M-EEP"                          , 
 790:/home/hkh/git/eapidk-code-r76-trunk/apps/EeePProg/linux/../EeePProg.c ****     &CurOptions.uiProgramCOM0R20M_EEP               , 
 791:/home/hkh/git/eapidk-code-r76-trunk/apps/EeePProg/linux/../EeePProg.c ****     "Program COM0 R2.0 Module EEP Image file over EApi", 
 792:/home/hkh/git/eapidk-code-r76-trunk/apps/EeePProg/linux/../EeePProg.c ****     COM0R20M_PEEP                                   ,
 793:/home/hkh/git/eapidk-code-r76-trunk/apps/EeePProg/linux/../EeePProg.c ****     ARRAY_SIZE(COM0R20M_PEEP)                       ,
 794:/home/hkh/git/eapidk-code-r76-trunk/apps/EeePProg/linux/../EeePProg.c ****     &CurOptions.szCOM0R20M_SBIN_File                ,
 795:/home/hkh/git/eapidk-code-r76-trunk/apps/EeePProg/linux/../EeePProg.c ****     CMD_ProgramCOM0R20M_EEP
 796:/home/hkh/git/eapidk-code-r76-trunk/apps/EeePProg/linux/../EeePProg.c ****   },
 797:/home/hkh/git/eapidk-code-r76-trunk/apps/EeePProg/linux/../EeePProg.c ****   {
 798:/home/hkh/git/eapidk-code-r76-trunk/apps/EeePProg/linux/../EeePProg.c ****     0x00                                                , 
 799:/home/hkh/git/eapidk-code-r76-trunk/apps/EeePProg/linux/../EeePProg.c ****     "SAVE-EeePExpEEP-IMG"                               , 
 800:/home/hkh/git/eapidk-code-r76-trunk/apps/EeePProg/linux/../EeePProg.c ****     &CurOptions.uiStoreEeePExpEEP_EEP                   , 
 801:/home/hkh/git/eapidk-code-r76-trunk/apps/EeePProg/linux/../EeePProg.c ****     "Stores EeeP Expansion EEP to Image file over EApi" , 
 802:/home/hkh/git/eapidk-code-r76-trunk/apps/EeePProg/linux/../EeePProg.c ****     EeePExpEEP_IMG                                      ,
 803:/home/hkh/git/eapidk-code-r76-trunk/apps/EeePProg/linux/../EeePProg.c ****     ARRAY_SIZE(EeePExpEEP_IMG)                          ,
 804:/home/hkh/git/eapidk-code-r76-trunk/apps/EeePProg/linux/../EeePProg.c ****     &CurOptions.StoreEeePExpEEP_EEP                     ,
 805:/home/hkh/git/eapidk-code-r76-trunk/apps/EeePProg/linux/../EeePProg.c ****     CMD_StoreEeePExt_EEP
 806:/home/hkh/git/eapidk-code-r76-trunk/apps/EeePProg/linux/../EeePProg.c ****   },
 807:/home/hkh/git/eapidk-code-r76-trunk/apps/EeePProg/linux/../EeePProg.c ****   {
 808:/home/hkh/git/eapidk-code-r76-trunk/apps/EeePProg/linux/../EeePProg.c ****     0x00                                                , 
 809:/home/hkh/git/eapidk-code-r76-trunk/apps/EeePProg/linux/../EeePProg.c ****     "SAVE-COM0R20CB-IMG"                                , 
 810:/home/hkh/git/eapidk-code-r76-trunk/apps/EeePProg/linux/../EeePProg.c ****     &CurOptions.uiStoreCOM0R20CB_EEP                    ,
 811:/home/hkh/git/eapidk-code-r76-trunk/apps/EeePProg/linux/../EeePProg.c ****     "Stores COM0 R2.0 Carrier Board EEP to Image file over EApi", 
 812:/home/hkh/git/eapidk-code-r76-trunk/apps/EeePProg/linux/../EeePProg.c ****     COM0R20CB_IMG                                       ,
 813:/home/hkh/git/eapidk-code-r76-trunk/apps/EeePProg/linux/../EeePProg.c ****     ARRAY_SIZE(COM0R20CB_IMG )                          ,
 814:/home/hkh/git/eapidk-code-r76-trunk/apps/EeePProg/linux/../EeePProg.c ****     &CurOptions.szCOM0R20CBEEP_To_Img_FName             ,
 815:/home/hkh/git/eapidk-code-r76-trunk/apps/EeePProg/linux/../EeePProg.c ****     CMD_StoreCOM0R20_CB_EEP
 816:/home/hkh/git/eapidk-code-r76-trunk/apps/EeePProg/linux/../EeePProg.c ****   },
 817:/home/hkh/git/eapidk-code-r76-trunk/apps/EeePProg/linux/../EeePProg.c ****   {
ARM GAS  /tmp/ccqui9DH.s 			page 109


 818:/home/hkh/git/eapidk-code-r76-trunk/apps/EeePProg/linux/../EeePProg.c ****     0x00                                                ,
 819:/home/hkh/git/eapidk-code-r76-trunk/apps/EeePProg/linux/../EeePProg.c ****     "SAVE-COM0R20M-IMG"                                 ,
 820:/home/hkh/git/eapidk-code-r76-trunk/apps/EeePProg/linux/../EeePProg.c ****     &CurOptions.uiStoreCOM0R20M_EEP                     ,
 821:/home/hkh/git/eapidk-code-r76-trunk/apps/EeePProg/linux/../EeePProg.c ****     "Stores COM0 R2.0 Module EEP to Image file over EApi", 
 822:/home/hkh/git/eapidk-code-r76-trunk/apps/EeePProg/linux/../EeePProg.c ****     COM0R20M_IMG                                        ,
 823:/home/hkh/git/eapidk-code-r76-trunk/apps/EeePProg/linux/../EeePProg.c ****     ARRAY_SIZE(COM0R20M_IMG)                            ,
 824:/home/hkh/git/eapidk-code-r76-trunk/apps/EeePProg/linux/../EeePProg.c ****     &CurOptions.szCOM0R20MEEP_To_Img_FName              ,
 825:/home/hkh/git/eapidk-code-r76-trunk/apps/EeePProg/linux/../EeePProg.c ****     CMD_StoreCOM0R20_M_EEP
 826:/home/hkh/git/eapidk-code-r76-trunk/apps/EeePProg/linux/../EeePProg.c ****   },
 827:/home/hkh/git/eapidk-code-r76-trunk/apps/EeePProg/linux/../EeePProg.c ****   {
 828:/home/hkh/git/eapidk-code-r76-trunk/apps/EeePProg/linux/../EeePProg.c ****     0x00                                            , 
 829:/home/hkh/git/eapidk-code-r76-trunk/apps/EeePProg/linux/../EeePProg.c ****     "LIST-DBLOCKS-IMG"                              , 
 830:/home/hkh/git/eapidk-code-r76-trunk/apps/EeePProg/linux/../EeePProg.c ****     &CurOptions.uiListDBlocks_IMG                   , 
 831:/home/hkh/git/eapidk-code-r76-trunk/apps/EeePProg/linux/../EeePProg.c ****     "Lists Dynamic Blocks in Binary Image file"     , 
 832:/home/hkh/git/eapidk-code-r76-trunk/apps/EeePProg/linux/../EeePProg.c ****     GEN_LIST_DBLOCKS_FILE                           ,
 833:/home/hkh/git/eapidk-code-r76-trunk/apps/EeePProg/linux/../EeePProg.c ****     ARRAY_SIZE(GEN_LIST_DBLOCKS_FILE)               ,
 834:/home/hkh/git/eapidk-code-r76-trunk/apps/EeePProg/linux/../EeePProg.c ****     &CurOptions.szGEN_List_DBlocks_File             ,
 835:/home/hkh/git/eapidk-code-r76-trunk/apps/EeePProg/linux/../EeePProg.c ****     CMD_ListDBlocks_IMG
 836:/home/hkh/git/eapidk-code-r76-trunk/apps/EeePProg/linux/../EeePProg.c ****   },
 837:/home/hkh/git/eapidk-code-r76-trunk/apps/EeePProg/linux/../EeePProg.c ****   {
 838:/home/hkh/git/eapidk-code-r76-trunk/apps/EeePProg/linux/../EeePProg.c ****     0x00                                            , 
 839:/home/hkh/git/eapidk-code-r76-trunk/apps/EeePProg/linux/../EeePProg.c ****     "LIST-DBLOCKS-EEP"                              , 
 840:/home/hkh/git/eapidk-code-r76-trunk/apps/EeePProg/linux/../EeePProg.c ****     &CurOptions.uiListDBlocks_EEP                   , 
 841:/home/hkh/git/eapidk-code-r76-trunk/apps/EeePProg/linux/../EeePProg.c ****     "Lists Dynamic Blocks in Binary Image file"     , 
 842:/home/hkh/git/eapidk-code-r76-trunk/apps/EeePProg/linux/../EeePProg.c ****     GEN_LIST_DBLOCKS_EEP                            ,
 843:/home/hkh/git/eapidk-code-r76-trunk/apps/EeePProg/linux/../EeePProg.c ****     ARRAY_SIZE(GEN_LIST_DBLOCKS_EEP)                ,
 844:/home/hkh/git/eapidk-code-r76-trunk/apps/EeePProg/linux/../EeePProg.c ****     &CurOptions.ulEEP_Img                           ,
 845:/home/hkh/git/eapidk-code-r76-trunk/apps/EeePProg/linux/../EeePProg.c ****     CMD_ListDBlocksEeePExt_EEP
 846:/home/hkh/git/eapidk-code-r76-trunk/apps/EeePProg/linux/../EeePProg.c ****   },
 847:/home/hkh/git/eapidk-code-r76-trunk/apps/EeePProg/linux/../EeePProg.c ****   {
 848:/home/hkh/git/eapidk-code-r76-trunk/apps/EeePProg/linux/../EeePProg.c ****     0x00                                            , 
 849:/home/hkh/git/eapidk-code-r76-trunk/apps/EeePProg/linux/../EeePProg.c ****     "LIST-DBLOCKS-COM0R20CBEEP"                     , 
 850:/home/hkh/git/eapidk-code-r76-trunk/apps/EeePProg/linux/../EeePProg.c ****     &CurOptions.uiListDBlocks_COM0R20_CB_EEP        , 
 851:/home/hkh/git/eapidk-code-r76-trunk/apps/EeePProg/linux/../EeePProg.c ****     "Lists Dynamic Blocks in COM0 R2.0 Carrier Board EEPROM", 
 852:/home/hkh/git/eapidk-code-r76-trunk/apps/EeePProg/linux/../EeePProg.c ****     NULL                                            ,
 853:/home/hkh/git/eapidk-code-r76-trunk/apps/EeePProg/linux/../EeePProg.c ****     0                                               ,
 854:/home/hkh/git/eapidk-code-r76-trunk/apps/EeePProg/linux/../EeePProg.c ****     NULL                                            ,
 855:/home/hkh/git/eapidk-code-r76-trunk/apps/EeePProg/linux/../EeePProg.c ****     CMD_ListDBlocksCOM0R20_CB_EEP                                
 856:/home/hkh/git/eapidk-code-r76-trunk/apps/EeePProg/linux/../EeePProg.c ****   },
 857:/home/hkh/git/eapidk-code-r76-trunk/apps/EeePProg/linux/../EeePProg.c ****   {
 858:/home/hkh/git/eapidk-code-r76-trunk/apps/EeePProg/linux/../EeePProg.c ****     0x00                                              , 
 859:/home/hkh/git/eapidk-code-r76-trunk/apps/EeePProg/linux/../EeePProg.c ****     "LIST-DBLOCKS-COM0R20MEEP"                        , 
 860:/home/hkh/git/eapidk-code-r76-trunk/apps/EeePProg/linux/../EeePProg.c ****     &CurOptions.uiListDBlocks_COM0R20_M_EEP           , 
 861:/home/hkh/git/eapidk-code-r76-trunk/apps/EeePProg/linux/../EeePProg.c ****     "Lists Dynamic Blocks in COM0 R2.0 Module EEPROM" , 
 862:/home/hkh/git/eapidk-code-r76-trunk/apps/EeePProg/linux/../EeePProg.c ****     NULL                                              ,
 863:/home/hkh/git/eapidk-code-r76-trunk/apps/EeePProg/linux/../EeePProg.c ****     0                                                 ,
 864:/home/hkh/git/eapidk-code-r76-trunk/apps/EeePProg/linux/../EeePProg.c ****     NULL                                              ,
 865:/home/hkh/git/eapidk-code-r76-trunk/apps/EeePProg/linux/../EeePProg.c ****     CMD_ListDBlocksCOM0R20_M_EEP                                 
 866:/home/hkh/git/eapidk-code-r76-trunk/apps/EeePProg/linux/../EeePProg.c ****   },
 867:/home/hkh/git/eapidk-code-r76-trunk/apps/EeePProg/linux/../EeePProg.c **** };
 868:/home/hkh/git/eapidk-code-r76-trunk/apps/EeePProg/linux/../EeePProg.c **** 
 869:/home/hkh/git/eapidk-code-r76-trunk/apps/EeePProg/linux/../EeePProg.c ****   
 870:/home/hkh/git/eapidk-code-r76-trunk/apps/EeePProg/linux/../EeePProg.c **** 
 871:/home/hkh/git/eapidk-code-r76-trunk/apps/EeePProg/linux/../EeePProg.c **** 
 872:/home/hkh/git/eapidk-code-r76-trunk/apps/EeePProg/linux/../EeePProg.c **** 
 873:/home/hkh/git/eapidk-code-r76-trunk/apps/EeePProg/linux/../EeePProg.c **** 
 874:/home/hkh/git/eapidk-code-r76-trunk/apps/EeePProg/linux/../EeePProg.c **** #define DO_MAIN(x) \
ARM GAS  /tmp/ccqui9DH.s 			page 110


 875:/home/hkh/git/eapidk-code-r76-trunk/apps/EeePProg/linux/../EeePProg.c ****   StatusCode=x;\
 876:/home/hkh/git/eapidk-code-r76-trunk/apps/EeePProg/linux/../EeePProg.c ****   if(!EAPI_TEST_SUCCESS(StatusCode)){ \
 877:/home/hkh/git/eapidk-code-r76-trunk/apps/EeePProg/linux/../EeePProg.c ****     EAPI_FORMATED_MES('E', main, StatusCode, #x);\
 878:/home/hkh/git/eapidk-code-r76-trunk/apps/EeePProg/linux/../EeePProg.c ****     goto ExitPoint;\
 879:/home/hkh/git/eapidk-code-r76-trunk/apps/EeePProg/linux/../EeePProg.c ****   }
 880:/home/hkh/git/eapidk-code-r76-trunk/apps/EeePProg/linux/../EeePProg.c **** 
 881:/home/hkh/git/eapidk-code-r76-trunk/apps/EeePProg/linux/../EeePProg.c **** /*
 882:/home/hkh/git/eapidk-code-r76-trunk/apps/EeePProg/linux/../EeePProg.c ****  * Create Block Content
 883:/home/hkh/git/eapidk-code-r76-trunk/apps/EeePProg/linux/../EeePProg.c ****  */
 884:/home/hkh/git/eapidk-code-r76-trunk/apps/EeePProg/linux/../EeePProg.c **** int 
 885:/home/hkh/git/eapidk-code-r76-trunk/apps/EeePProg/linux/../EeePProg.c **** __cdecl 
 886:/home/hkh/git/eapidk-code-r76-trunk/apps/EeePProg/linux/../EeePProg.c **** main(
 887:/home/hkh/git/eapidk-code-r76-trunk/apps/EeePProg/linux/../EeePProg.c ****     signed int argc,
 888:/home/hkh/git/eapidk-code-r76-trunk/apps/EeePProg/linux/../EeePProg.c ****     const char **argv
 889:/home/hkh/git/eapidk-code-r76-trunk/apps/EeePProg/linux/../EeePProg.c ****   )
 890:/home/hkh/git/eapidk-code-r76-trunk/apps/EeePProg/linux/../EeePProg.c **** {
 4454              		.loc 1 890 1 is_stmt 1 view -0
 4455              		.cfi_startproc
 4456              		@ args = 0, pretend = 0, frame = 0
 4457              		@ frame_needed = 0, uses_anonymous_args = 0
 891:/home/hkh/git/eapidk-code-r76-trunk/apps/EeePProg/linux/../EeePProg.c ****   EApiStatus_t StatusCode;
 4458              		.loc 1 891 3 view .LVU954
 892:/home/hkh/git/eapidk-code-r76-trunk/apps/EeePProg/linux/../EeePProg.c **** 
 893:/home/hkh/git/eapidk-code-r76-trunk/apps/EeePProg/linux/../EeePProg.c ****   DO_MAIN(EApiLibInitialize());
 4459              		.loc 1 893 3 view .LVU955
 890:/home/hkh/git/eapidk-code-r76-trunk/apps/EeePProg/linux/../EeePProg.c ****   EApiStatus_t StatusCode;
 4460              		.loc 1 890 1 is_stmt 0 view .LVU956
 4461 0000 70402DE9 		push	{r4, r5, r6, lr}
 4462              		.cfi_def_cfa_offset 16
 4463              		.cfi_offset 4, -16
 4464              		.cfi_offset 5, -12
 4465              		.cfi_offset 6, -8
 4466              		.cfi_offset 14, -4
 4467 0004 10D04DE2 		sub	sp, sp, #16
 4468              		.cfi_def_cfa_offset 32
 890:/home/hkh/git/eapidk-code-r76-trunk/apps/EeePProg/linux/../EeePProg.c ****   EApiStatus_t StatusCode;
 4469              		.loc 1 890 1 view .LVU957
 4470 0008 9C619FE5 		ldr	r6, .L369
 4471 000c 0040A0E1 		mov	r4, r0
 4472 0010 0150A0E1 		mov	r5, r1
 4473              		.loc 1 893 3 view .LVU958
 4474 0014 FEFFFFEB 		bl	EApiLibInitialize(PLT)
 4475              	.LVL320:
 4476              		.loc 1 893 3 is_stmt 1 view .LVU959
 4477 0018 00C050E2 		subs	ip, r0, #0
 890:/home/hkh/git/eapidk-code-r76-trunk/apps/EeePProg/linux/../EeePProg.c ****   EApiStatus_t StatusCode;
 4478              		.loc 1 890 1 is_stmt 0 view .LVU960
 4479              	.LPIC245:
 4480 001c 06608FE0 		add	r6, pc, r6
 4481              		.loc 1 893 3 view .LVU961
 4482 0020 3F00001A 		bne	.L364
 4483              		.loc 1 893 31 is_stmt 1 discriminator 2 view .LVU962
 894:/home/hkh/git/eapidk-code-r76-trunk/apps/EeePProg/linux/../EeePProg.c **** 
 895:/home/hkh/git/eapidk-code-r76-trunk/apps/EeePProg/linux/../EeePProg.c ****   StatusCode=ParseArgs(argc - 1, argv + 1, ArgsDesc, ARRAY_SIZE(ArgsDesc));
 4484              		.loc 1 895 3 discriminator 2 view .LVU963
 4485              		.loc 1 895 14 is_stmt 0 discriminator 2 view .LVU964
 4486 0024 84219FE5 		ldr	r2, .L369+4
ARM GAS  /tmp/ccqui9DH.s 			page 111


 4487 0028 010044E2 		sub	r0, r4, #1
 4488              	.LVL321:
 4489              		.loc 1 895 14 discriminator 2 view .LVU965
 4490 002c 1730A0E3 		mov	r3, #23
 4491 0030 041085E2 		add	r1, r5, #4
 4492              	.LPIC236:
 4493 0034 02208FE0 		add	r2, pc, r2
 4494 0038 FEFFFFEB 		bl	ParseArgs(PLT)
 4495              	.LVL322:
 896:/home/hkh/git/eapidk-code-r76-trunk/apps/EeePProg/linux/../EeePProg.c ****   switch(StatusCode){
 4496              		.loc 1 896 3 is_stmt 1 discriminator 2 view .LVU966
 4497 003c 004050E2 		subs	r4, r0, #0
 4498              	.LVL323:
 4499              		.loc 1 896 3 is_stmt 0 discriminator 2 view .LVU967
 4500 0040 1800000A 		beq	.L355
 4501              		.loc 1 896 3 view .LVU968
 4502 0044 013CE0E3 		mvn	r3, #256
 4503 0048 030054E1 		cmp	r4, r3
 4504 004c 0E00000A 		beq	.L365
 897:/home/hkh/git/eapidk-code-r76-trunk/apps/EeePProg/linux/../EeePProg.c ****     case EAPI_STATUS_INVALID_PARAMETER:
 898:/home/hkh/git/eapidk-code-r76-trunk/apps/EeePProg/linux/../EeePProg.c ****       printf("%s", syntaxErrMes);
 899:/home/hkh/git/eapidk-code-r76-trunk/apps/EeePProg/linux/../EeePProg.c ****       exit(StatusCode);
 900:/home/hkh/git/eapidk-code-r76-trunk/apps/EeePProg/linux/../EeePProg.c ****       break;
 901:/home/hkh/git/eapidk-code-r76-trunk/apps/EeePProg/linux/../EeePProg.c ****     case EAPI_STATUS_SUCCESS:
 902:/home/hkh/git/eapidk-code-r76-trunk/apps/EeePProg/linux/../EeePProg.c ****       break;
 903:/home/hkh/git/eapidk-code-r76-trunk/apps/EeePProg/linux/../EeePProg.c ****     default:
 904:/home/hkh/git/eapidk-code-r76-trunk/apps/EeePProg/linux/../EeePProg.c ****       EAPI_FORMATED_MES('E', main, StatusCode, "ParseArgs(argc, argv, ArgsDesc, ARRAY_SIZE(ArgsDesc
 4505              		.loc 1 904 7 is_stmt 1 view .LVU969
 4506 0050 5CC19FE5 		ldr	ip, .L369+8
 4507 0054 E23FA0E3 		mov	r3, #904
 4508 0058 58019FE5 		ldr	r0, .L369+12
 4509              	.LVL324:
 4510              		.loc 1 904 7 is_stmt 0 view .LVU970
 4511 005c 58219FE5 		ldr	r2, .L369+16
 4512 0060 58119FE5 		ldr	r1, .L369+20
 4513              	.LPIC241:
 4514 0064 0CC08FE0 		add	ip, pc, ip
 4515              	.LPIC242:
 4516 0068 00008FE0 		add	r0, pc, r0
 4517 006c 00408DE5 		str	r4, [sp]
 4518 0070 01108DE9 		stmib	sp, {r0, ip}
 4519              	.LPIC239:
 4520 0074 02208FE0 		add	r2, pc, r2
 4521              	.LPIC240:
 4522 0078 01108FE0 		add	r1, pc, r1
 4523 007c 4500A0E3 		mov	r0, #69
 4524 0080 FEFFFFEB 		bl	siFormattedMessage_SC(PLT)
 4525              	.LVL325:
 4526              		.loc 1 904 104 is_stmt 1 view .LVU971
 905:/home/hkh/git/eapidk-code-r76-trunk/apps/EeePProg/linux/../EeePProg.c ****       exit(StatusCode);
 4527              		.loc 1 905 7 view .LVU972
 4528 0084 0400A0E1 		mov	r0, r4
 4529 0088 FEFFFFEB 		bl	exit(PLT)
 4530              	.LVL326:
 4531              	.L365:
 898:/home/hkh/git/eapidk-code-r76-trunk/apps/EeePProg/linux/../EeePProg.c ****       exit(StatusCode);
 4532              		.loc 1 898 7 view .LVU973
ARM GAS  /tmp/ccqui9DH.s 			page 112


 4533 008c 30119FE5 		ldr	r1, .L369+24
 4534 0090 30019FE5 		ldr	r0, .L369+28
 4535              	.LVL327:
 898:/home/hkh/git/eapidk-code-r76-trunk/apps/EeePProg/linux/../EeePProg.c ****       exit(StatusCode);
 4536              		.loc 1 898 7 is_stmt 0 view .LVU974
 4537              	.LPIC237:
 4538 0094 01108FE0 		add	r1, pc, r1
 4539              	.LPIC238:
 4540 0098 00008FE0 		add	r0, pc, r0
 4541 009c FEFFFFEB 		bl	printf(PLT)
 4542              	.LVL328:
 899:/home/hkh/git/eapidk-code-r76-trunk/apps/EeePProg/linux/../EeePProg.c ****       break;
 4543              		.loc 1 899 7 is_stmt 1 view .LVU975
 4544 00a0 0400A0E1 		mov	r0, r4
 4545 00a4 FEFFFFEB 		bl	exit(PLT)
 4546              	.LVL329:
 4547              	.L355:
 900:/home/hkh/git/eapidk-code-r76-trunk/apps/EeePProg/linux/../EeePProg.c ****     case EAPI_STATUS_SUCCESS:
 4548              		.loc 1 900 7 view .LVU976
 902:/home/hkh/git/eapidk-code-r76-trunk/apps/EeePProg/linux/../EeePProg.c ****     default:
 4549              		.loc 1 902 7 view .LVU977
 906:/home/hkh/git/eapidk-code-r76-trunk/apps/EeePProg/linux/../EeePProg.c ****       break;
 4550              		.loc 1 906 7 view .LVU978
 907:/home/hkh/git/eapidk-code-r76-trunk/apps/EeePProg/linux/../EeePProg.c ****   }
 908:/home/hkh/git/eapidk-code-r76-trunk/apps/EeePProg/linux/../EeePProg.c **** 
 909:/home/hkh/git/eapidk-code-r76-trunk/apps/EeePProg/linux/../EeePProg.c ****   if(!CurOptions.uiQuiet){
 4551              		.loc 1 909 3 view .LVU979
 4552              		.loc 1 909 17 is_stmt 0 view .LVU980
 4553 00a8 1C319FE5 		ldr	r3, .L369+32
 4554              	.LPIC243:
 4555 00ac 03308FE0 		add	r3, pc, r3
 4556              		.loc 1 909 5 view .LVU981
 4557 00b0 042093E5 		ldr	r2, [r3, #4]
 4558 00b4 000052E3 		cmp	r2, #0
 4559 00b8 2800000A 		beq	.L366
 4560              	.LVL330:
 4561              	.L357:
 910:/home/hkh/git/eapidk-code-r76-trunk/apps/EeePProg/linux/../EeePProg.c ****     fprintf(stderr, cszTitle, APP_VERSION, APP_REVISION, APP_BUILD);
 911:/home/hkh/git/eapidk-code-r76-trunk/apps/EeePProg/linux/../EeePProg.c ****   }
 912:/home/hkh/git/eapidk-code-r76-trunk/apps/EeePProg/linux/../EeePProg.c **** 
 913:/home/hkh/git/eapidk-code-r76-trunk/apps/EeePProg/linux/../EeePProg.c ****   if(CurOptions.uiHelp){
 4562              		.loc 1 913 3 is_stmt 1 view .LVU982
 4563              		.loc 1 913 16 is_stmt 0 view .LVU983
 4564 00bc 0C319FE5 		ldr	r3, .L369+36
 4565              	.LPIC246:
 4566 00c0 03308FE0 		add	r3, pc, r3
 4567              		.loc 1 913 5 view .LVU984
 4568 00c4 003093E5 		ldr	r3, [r3]
 4569 00c8 000053E3 		cmp	r3, #0
 4570 00cc 2E00001A 		bne	.L367
 4571              	.LVL331:
 4572              	.L354:
 914:/home/hkh/git/eapidk-code-r76-trunk/apps/EeePProg/linux/../EeePProg.c ****     PrintUsage(stderr, ArgsDesc, ARRAY_SIZE(ArgsDesc));
 915:/home/hkh/git/eapidk-code-r76-trunk/apps/EeePProg/linux/../EeePProg.c ****     goto ErrorExit;
 916:/home/hkh/git/eapidk-code-r76-trunk/apps/EeePProg/linux/../EeePProg.c ****   }
 917:/home/hkh/git/eapidk-code-r76-trunk/apps/EeePProg/linux/../EeePProg.c ****   /*
 918:/home/hkh/git/eapidk-code-r76-trunk/apps/EeePProg/linux/../EeePProg.c ****    *
ARM GAS  /tmp/ccqui9DH.s 			page 113


 919:/home/hkh/git/eapidk-code-r76-trunk/apps/EeePProg/linux/../EeePProg.c ****    */
 920:/home/hkh/git/eapidk-code-r76-trunk/apps/EeePProg/linux/../EeePProg.c ****   
 921:/home/hkh/git/eapidk-code-r76-trunk/apps/EeePProg/linux/../EeePProg.c **** ErrorExit:
 922:/home/hkh/git/eapidk-code-r76-trunk/apps/EeePProg/linux/../EeePProg.c **** EAPI_APP_ASSERT_EXIT
 923:/home/hkh/git/eapidk-code-r76-trunk/apps/EeePProg/linux/../EeePProg.c ****   DO_MAIN(EApiLibUnInitialize());
 4573              		.loc 1 923 3 discriminator 3 view .LVU985
 4574 00d0 FC609FE5 		ldr	r6, .L369+40
 4575 00d4 FC509FE5 		ldr	r5, .L369+44
 4576              	.LVL332:
 4577              		.loc 1 923 3 discriminator 3 view .LVU986
 4578 00d8 FC409FE5 		ldr	r4, .L369+48
 4579              	.LPIC248:
 4580 00dc 06608FE0 		add	r6, pc, r6
 4581              	.LPIC249:
 4582 00e0 05508FE0 		add	r5, pc, r5
 4583              	.LPIC250:
 4584 00e4 04408FE0 		add	r4, pc, r4
 4585 00e8 090000EA 		b	.L359
 4586              	.LVL333:
 4587              	.L368:
 4588              		.loc 1 923 3 is_stmt 1 discriminator 1 view .LVU987
 4589 00ec EC009FE5 		ldr	r0, .L369+52
 4590              	.LVL334:
 4591              		.loc 1 923 3 is_stmt 0 discriminator 1 view .LVU988
 4592 00f0 9B3300E3 		movw	r3, #923
 4593 00f4 0620A0E1 		mov	r2, r6
 4594 00f8 0510A0E1 		mov	r1, r5
 4595 00fc 08408DE5 		str	r4, [sp, #8]
 4596              	.LPIC251:
 4597 0100 00008FE0 		add	r0, pc, r0
 4598 0104 00C08DE5 		str	ip, [sp]
 4599 0108 04008DE5 		str	r0, [sp, #4]
 4600 010c 4500A0E3 		mov	r0, #69
 4601 0110 FEFFFFEB 		bl	siFormattedMessage_SC(PLT)
 4602              	.LVL335:
 4603              		.loc 1 923 3 is_stmt 1 discriminator 1 view .LVU989
 4604              		.loc 1 923 3 discriminator 1 view .LVU990
 4605              	.L359:
 4606              		.loc 1 923 3 discriminator 3 view .LVU991
 4607 0114 FEFFFFEB 		bl	EApiLibUnInitialize(PLT)
 4608              	.LVL336:
 4609              		.loc 1 923 3 discriminator 3 view .LVU992
 4610 0118 00C050E2 		subs	ip, r0, #0
 4611 011c F2FFFF1A 		bne	.L368
 4612              		.loc 1 923 33 discriminator 2 view .LVU993
 924:/home/hkh/git/eapidk-code-r76-trunk/apps/EeePProg/linux/../EeePProg.c ****   exit(StatusCode);
 4613              		.loc 1 924 3 discriminator 2 view .LVU994
 4614 0120 FEFFFFEB 		bl	exit(PLT)
 4615              	.LVL337:
 4616              	.L364:
 893:/home/hkh/git/eapidk-code-r76-trunk/apps/EeePProg/linux/../EeePProg.c **** 
 4617              		.loc 1 893 3 discriminator 1 view .LVU995
 4618 0124 B8E09FE5 		ldr	lr, .L369+56
 4619 0128 7D3300E3 		movw	r3, #893
 4620 012c B4009FE5 		ldr	r0, .L369+60
 4621              	.LVL338:
 893:/home/hkh/git/eapidk-code-r76-trunk/apps/EeePProg/linux/../EeePProg.c **** 
ARM GAS  /tmp/ccqui9DH.s 			page 114


 4622              		.loc 1 893 3 is_stmt 0 discriminator 1 view .LVU996
 4623 0130 B4209FE5 		ldr	r2, .L369+64
 4624 0134 B4109FE5 		ldr	r1, .L369+68
 4625              	.LPIC234:
 4626 0138 0EE08FE0 		add	lr, pc, lr
 4627              	.LPIC235:
 4628 013c 00008FE0 		add	r0, pc, r0
 4629 0140 00C08DE5 		str	ip, [sp]
 4630 0144 0EC0A0E1 		mov	ip, lr
 4631              	.LVL339:
 893:/home/hkh/git/eapidk-code-r76-trunk/apps/EeePProg/linux/../EeePProg.c **** 
 4632              		.loc 1 893 3 discriminator 1 view .LVU997
 4633              	.LPIC232:
 4634 0148 02208FE0 		add	r2, pc, r2
 4635 014c 01108DE9 		stmib	sp, {r0, ip}
 4636              	.LPIC233:
 4637 0150 01108FE0 		add	r1, pc, r1
 4638 0154 4500A0E3 		mov	r0, #69
 4639 0158 FEFFFFEB 		bl	siFormattedMessage_SC(PLT)
 4640              	.LVL340:
 893:/home/hkh/git/eapidk-code-r76-trunk/apps/EeePProg/linux/../EeePProg.c **** 
 4641              		.loc 1 893 3 is_stmt 1 discriminator 1 view .LVU998
 893:/home/hkh/git/eapidk-code-r76-trunk/apps/EeePProg/linux/../EeePProg.c **** 
 4642              		.loc 1 893 3 discriminator 1 view .LVU999
 4643 015c DBFFFFEA 		b	.L354
 4644              	.LVL341:
 4645              	.L366:
 910:/home/hkh/git/eapidk-code-r76-trunk/apps/EeePProg/linux/../EeePProg.c ****   }
 4646              		.loc 1 910 5 view .LVU1000
 4647 0160 8C309FE5 		ldr	r3, .L369+72
 4648 0164 77C200E3 		movw	ip, #631
 4649 0168 88109FE5 		ldr	r1, .L369+76
 4650 016c 030096E7 		ldr	r0, [r6, r3]
 4651              	.LVL342:
 910:/home/hkh/git/eapidk-code-r76-trunk/apps/EeePProg/linux/../EeePProg.c ****   }
 4652              		.loc 1 910 5 is_stmt 0 view .LVU1001
 4653 0170 0530A0E3 		mov	r3, #5
 4654              	.LPIC244:
 4655 0174 01108FE0 		add	r1, pc, r1
 4656 0178 00C08DE5 		str	ip, [sp]
 4657 017c 201081E2 		add	r1, r1, #32
 4658 0180 000090E5 		ldr	r0, [r0]
 4659 0184 FEFFFFEB 		bl	fprintf(PLT)
 4660              	.LVL343:
 4661 0188 CBFFFFEA 		b	.L357
 4662              	.L367:
 914:/home/hkh/git/eapidk-code-r76-trunk/apps/EeePProg/linux/../EeePProg.c ****     goto ErrorExit;
 4663              		.loc 1 914 5 is_stmt 1 view .LVU1002
 4664 018c 60309FE5 		ldr	r3, .L369+72
 4665 0190 1720A0E3 		mov	r2, #23
 4666 0194 60109FE5 		ldr	r1, .L369+80
 4667 0198 033096E7 		ldr	r3, [r6, r3]
 4668              	.LPIC247:
 4669 019c 01108FE0 		add	r1, pc, r1
 4670 01a0 000093E5 		ldr	r0, [r3]
 4671 01a4 FEFFFFEB 		bl	PrintUsage(PLT)
 4672              	.LVL344:
ARM GAS  /tmp/ccqui9DH.s 			page 115


 915:/home/hkh/git/eapidk-code-r76-trunk/apps/EeePProg/linux/../EeePProg.c ****   }
 4673              		.loc 1 915 5 view .LVU1003
 4674 01a8 C8FFFFEA 		b	.L354
 4675              	.L370:
 4676              		.align	2
 4677              	.L369:
 4678 01ac 88010000 		.word	_GLOBAL_OFFSET_TABLE_-(.LPIC245+8)
 4679 01b0 74010000 		.word	.LANCHOR0-(.LPIC236+8)
 4680 01b4 48010000 		.word	.LC41-(.LPIC241+8)
 4681 01b8 48010000 		.word	.LC3-(.LPIC242+8)
 4682 01bc 40010000 		.word	.LC38-(.LPIC239+8)
 4683 01c0 40010000 		.word	.LC1-(.LPIC240+8)
 4684 01c4 28010000 		.word	.LANCHOR1-(.LPIC237+8)
 4685 01c8 28010000 		.word	.LC40-(.LPIC238+8)
 4686 01cc 18010000 		.word	.LANCHOR2-(.LPIC243+8)
 4687 01d0 08010000 		.word	.LANCHOR2-(.LPIC246+8)
 4688 01d4 F0000000 		.word	.LC38-(.LPIC248+8)
 4689 01d8 F0000000 		.word	.LC1-(.LPIC249+8)
 4690 01dc F0000000 		.word	.LC42-(.LPIC250+8)
 4691 01e0 D8000000 		.word	.LC3-(.LPIC251+8)
 4692 01e4 A4000000 		.word	.LC39-(.LPIC234+8)
 4693 01e8 A4000000 		.word	.LC3-(.LPIC235+8)
 4694 01ec 9C000000 		.word	.LC38-(.LPIC232+8)
 4695 01f0 98000000 		.word	.LC1-(.LPIC233+8)
 4696 01f4 00000000 		.word	stderr(GOT)
 4697 01f8 7C000000 		.word	.LANCHOR1-(.LPIC244+8)
 4698 01fc 58000000 		.word	.LANCHOR0-(.LPIC247+8)
 4699              		.cfi_endproc
 4700              	.LFE22:
 4702              		.global	ArgsDesc
 4703              		.section	.rodata.str1.4
 4704 07ee 0000     		.align	2
 4705              	.LC43:
 4706 07f0 71756965 		.ascii	"quiet\000"
 4706      7400
 4707 07f6 0000     		.align	2
 4708              	.LC44:
 4709 07f8 4D696E69 		.ascii	"Minimises Output\000"
 4709      6D697365 
 4709      73204F75 
 4709      74707574 
 4709      00
 4710 0809 000000   		.align	2
 4711              	.LC45:
 4712 080c 68656C70 		.ascii	"help\000"
 4712      00
 4713 0811 000000   		.align	2
 4714              	.LC46:
 4715 0814 5072696E 		.ascii	"Print this usage message\000"
 4715      74207468 
 4715      69732075 
 4715      73616765 
 4715      206D6573 
 4716 082d 000000   		.align	2
 4717              	.LC47:
 4718 0830 76657262 		.ascii	"verbose\000"
 4718      6F736500 
ARM GAS  /tmp/ccqui9DH.s 			page 116


 4719              		.align	2
 4720              	.LC48:
 4721 0838 496E6372 		.ascii	"Increases Verbosity Level\000"
 4721      65617365 
 4721      73205665 
 4721      72626F73 
 4721      69747920 
 4722 0852 0000     		.align	2
 4723              	.LC49:
 4724 0854 43524541 		.ascii	"CREATE-COM0R20M-CFG\000"
 4724      54452D43 
 4724      4F4D3052 
 4724      32304D2D 
 4724      43464700 
 4725              		.align	2
 4726              	.LC50:
 4727 0868 43726561 		.ascii	"Create COM0 Module Config File Template\000"
 4727      74652043 
 4727      4F4D3020 
 4727      4D6F6475 
 4727      6C652043 
 4728              		.align	2
 4729              	.LC51:
 4730 0890 43524541 		.ascii	"CREATE-COM0R20M-IMG\000"
 4730      54452D43 
 4730      4F4D3052 
 4730      32304D2D 
 4730      494D4700 
 4731              		.align	2
 4732              	.LC52:
 4733 08a4 43726561 		.ascii	"Create COM0 Module Binary File\000"
 4733      74652043 
 4733      4F4D3020 
 4733      4D6F6475 
 4733      6C652042 
 4734 08c3 00       		.align	2
 4735              	.LC53:
 4736 08c4 43524541 		.ascii	"CREATE-COM0R20M-EEP\000"
 4736      54452D43 
 4736      4F4D3052 
 4736      32304D2D 
 4736      45455000 
 4737              		.align	2
 4738              	.LC54:
 4739 08d8 43726561 		.ascii	"Create COM0 Module Content and Program over EApi\000"
 4739      74652043 
 4739      4F4D3020 
 4739      4D6F6475 
 4739      6C652043 
 4740 0909 000000   		.align	2
 4741              	.LC55:
 4742 090c 43524541 		.ascii	"CREATE-COM0R20CB-CFG\000"
 4742      54452D43 
 4742      4F4D3052 
 4742      32304342 
 4742      2D434647 
 4743 0921 000000   		.align	2
ARM GAS  /tmp/ccqui9DH.s 			page 117


 4744              	.LC56:
 4745 0924 43726561 		.ascii	"Create COM0 Carrier Config File Template\000"
 4745      74652043 
 4745      4F4D3020 
 4745      43617272 
 4745      69657220 
 4746 094d 000000   		.align	2
 4747              	.LC57:
 4748 0950 43524541 		.ascii	"CREATE-COM0R20CB-EEP\000"
 4748      54452D43 
 4748      4F4D3052 
 4748      32304342 
 4748      2D454550 
 4749 0965 000000   		.align	2
 4750              	.LC58:
 4751 0968 43726561 		.ascii	"Create COM0 Carrier Content and Program over EApi\000"
 4751      74652043 
 4751      4F4D3020 
 4751      43617272 
 4751      69657220 
 4752 099a 0000     		.align	2
 4753              	.LC59:
 4754 099c 43524541 		.ascii	"CREATE-COM0R20CB-IMG\000"
 4754      54452D43 
 4754      4F4D3052 
 4754      32304342 
 4754      2D494D47 
 4755 09b1 000000   		.align	2
 4756              	.LC60:
 4757 09b4 43726561 		.ascii	"Create COM0 Carrier Binary File\000"
 4757      74652043 
 4757      4F4D3020 
 4757      43617272 
 4757      69657220 
 4758              		.align	2
 4759              	.LC61:
 4760 09d4 43524541 		.ascii	"CREATE-EeePExpEEP-CFG\000"
 4760      54452D45 
 4760      65655045 
 4760      78704545 
 4760      502D4346 
 4761 09ea 0000     		.align	2
 4762              	.LC62:
 4763 09ec 43726561 		.ascii	"Create EeeP Expansion EEP Config File Template\000"
 4763      74652045 
 4763      65655020 
 4763      45787061 
 4763      6E73696F 
 4764 0a1b 00       		.align	2
 4765              	.LC63:
 4766 0a1c 43524541 		.ascii	"CREATE-EeePExpEEP-IMG\000"
 4766      54452D45 
 4766      65655045 
 4766      78704545 
 4766      502D494D 
 4767 0a32 0000     		.align	2
 4768              	.LC64:
ARM GAS  /tmp/ccqui9DH.s 			page 118


 4769 0a34 43726561 		.ascii	"Create EeeP Expansion EEP Binary File\000"
 4769      74652045 
 4769      65655020 
 4769      45787061 
 4769      6E73696F 
 4770 0a5a 0000     		.align	2
 4771              	.LC65:
 4772 0a5c 43524541 		.ascii	"CREATE-EeePExpEEP-EEP\000"
 4772      54452D45 
 4772      65655045 
 4772      78704545 
 4772      502D4545 
 4773 0a72 0000     		.align	2
 4774              	.LC66:
 4775 0a74 43726561 		.ascii	"Create EeeP Expansion EEP Image and Program over EA"
 4775      74652045 
 4775      65655020 
 4775      45787061 
 4775      6E73696F 
 4776 0aa7 706900   		.ascii	"pi\000"
 4777 0aaa 0000     		.align	2
 4778              	.LC67:
 4779 0aac 50524F47 		.ascii	"PROGRAM-EeePExpEEP-EEP\000"
 4779      52414D2D 
 4779      45656550 
 4779      45787045 
 4779      45502D45 
 4780 0ac3 00       		.align	2
 4781              	.LC68:
 4782 0ac4 50726F67 		.ascii	"Program EeeP Expansion EEP Image file over EApi\000"
 4782      72616D20 
 4782      45656550 
 4782      20457870 
 4782      616E7369 
 4783              		.align	2
 4784              	.LC69:
 4785 0af4 50524F47 		.ascii	"PROGRAM-COM0R20CB-EEP\000"
 4785      52414D2D 
 4785      434F4D30 
 4785      52323043 
 4785      422D4545 
 4786 0b0a 0000     		.align	2
 4787              	.LC70:
 4788 0b0c 50726F67 		.ascii	"Program COM0 R2.0 Carrier Board EEP Image file over"
 4788      72616D20 
 4788      434F4D30 
 4788      2052322E 
 4788      30204361 
 4789 0b3f 20454170 		.ascii	" EApi\000"
 4789      6900
 4790 0b45 000000   		.align	2
 4791              	.LC71:
 4792 0b48 50524F47 		.ascii	"PROGRAM-COM0R20M-EEP\000"
 4792      52414D2D 
 4792      434F4D30 
 4792      5232304D 
 4792      2D454550 
ARM GAS  /tmp/ccqui9DH.s 			page 119


 4793 0b5d 000000   		.align	2
 4794              	.LC72:
 4795 0b60 50726F67 		.ascii	"Program COM0 R2.0 Module EEP Image file over EApi\000"
 4795      72616D20 
 4795      434F4D30 
 4795      2052322E 
 4795      30204D6F 
 4796 0b92 0000     		.align	2
 4797              	.LC73:
 4798 0b94 53415645 		.ascii	"SAVE-EeePExpEEP-IMG\000"
 4798      2D456565 
 4798      50457870 
 4798      4545502D 
 4798      494D4700 
 4799              		.align	2
 4800              	.LC74:
 4801 0ba8 53746F72 		.ascii	"Stores EeeP Expansion EEP to Image file over EApi\000"
 4801      65732045 
 4801      65655020 
 4801      45787061 
 4801      6E73696F 
 4802 0bda 0000     		.align	2
 4803              	.LC75:
 4804 0bdc 53415645 		.ascii	"SAVE-COM0R20CB-IMG\000"
 4804      2D434F4D 
 4804      30523230 
 4804      43422D49 
 4804      4D4700
 4805 0bef 00       		.align	2
 4806              	.LC76:
 4807 0bf0 53746F72 		.ascii	"Stores COM0 R2.0 Carrier Board EEP to Image file ov"
 4807      65732043 
 4807      4F4D3020 
 4807      52322E30 
 4807      20436172 
 4808 0c23 65722045 		.ascii	"er EApi\000"
 4808      41706900 
 4809 0c2b 00       		.align	2
 4810              	.LC77:
 4811 0c2c 53415645 		.ascii	"SAVE-COM0R20M-IMG\000"
 4811      2D434F4D 
 4811      30523230 
 4811      4D2D494D 
 4811      4700
 4812 0c3e 0000     		.align	2
 4813              	.LC78:
 4814 0c40 53746F72 		.ascii	"Stores COM0 R2.0 Module EEP to Image file over EApi"
 4814      65732043 
 4814      4F4D3020 
 4814      52322E30 
 4814      204D6F64 
 4815 0c73 00       		.ascii	"\000"
 4816              		.align	2
 4817              	.LC79:
 4818 0c74 4C495354 		.ascii	"LIST-DBLOCKS-IMG\000"
 4818      2D44424C 
 4818      4F434B53 
ARM GAS  /tmp/ccqui9DH.s 			page 120


 4818      2D494D47 
 4818      00
 4819 0c85 000000   		.align	2
 4820              	.LC80:
 4821 0c88 4C697374 		.ascii	"Lists Dynamic Blocks in Binary Image file\000"
 4821      73204479 
 4821      6E616D69 
 4821      6320426C 
 4821      6F636B73 
 4822 0cb2 0000     		.align	2
 4823              	.LC81:
 4824 0cb4 4C495354 		.ascii	"LIST-DBLOCKS-EEP\000"
 4824      2D44424C 
 4824      4F434B53 
 4824      2D454550 
 4824      00
 4825 0cc5 000000   		.align	2
 4826              	.LC82:
 4827 0cc8 4C495354 		.ascii	"LIST-DBLOCKS-COM0R20CBEEP\000"
 4827      2D44424C 
 4827      4F434B53 
 4827      2D434F4D 
 4827      30523230 
 4828 0ce2 0000     		.align	2
 4829              	.LC83:
 4830 0ce4 4C697374 		.ascii	"Lists Dynamic Blocks in COM0 R2.0 Carrier Board EEP"
 4830      73204479 
 4830      6E616D69 
 4830      6320426C 
 4830      6F636B73 
 4831 0d17 524F4D00 		.ascii	"ROM\000"
 4832 0d1b 00       		.align	2
 4833              	.LC84:
 4834 0d1c 4C495354 		.ascii	"LIST-DBLOCKS-COM0R20MEEP\000"
 4834      2D44424C 
 4834      4F434B53 
 4834      2D434F4D 
 4834      30523230 
 4835 0d35 000000   		.align	2
 4836              	.LC85:
 4837 0d38 4C697374 		.ascii	"Lists Dynamic Blocks in COM0 R2.0 Module EEPROM\000"
 4837      73204479 
 4837      6E616D69 
 4837      6320426C 
 4837      6F636B73 
 4838              		.global	GEN_LIST_DBLOCKS_EEP
 4839              		.align	2
 4840              	.LC86:
 4841 0d68 3C454170 		.ascii	"<EApi Id>      EApi Bus Id\000"
 4841      69204964 
 4841      3E202020 
 4841      20202045 
 4841      41706920 
 4842 0d83 00       		.align	2
 4843              	.LC87:
 4844 0d84 3C493243 		.ascii	"<I2C Address>  EEPROM Device Address\000"
 4844      20416464 
ARM GAS  /tmp/ccqui9DH.s 			page 121


 4844      72657373 
 4844      3E202045 
 4844      4550524F 
 4845              		.global	GEN_LIST_DBLOCKS_FILE
 4846 0da9 000000   		.align	2
 4847              	.LC88:
 4848 0dac 3C46696C 		.ascii	"<Filename>  Binary Image Filename\000"
 4848      656E616D 
 4848      653E2020 
 4848      42696E61 
 4848      72792049 
 4849              		.global	COM0R20M_PEEP
 4850              		.global	COM0R20CB_PEEP
 4851              		.global	EeePExpEEP_IMG
 4852              		.global	COM0R20M_IMG
 4853              		.global	COM0R20CB_IMG
 4854              		.global	EeePExpEEP_PEEP
 4855              		.global	EeePExpEEP_EEP
 4856 0dce 0000     		.align	2
 4857              	.LC89:
 4858 0dd0 3C46696C 		.ascii	"<Filename>  Configuration Filename\000"
 4858      656E616D 
 4858      653E2020 
 4858      436F6E66 
 4858      69677572 
 4859              		.global	EeePExpEEP_Img
 4860 0df3 00       		.align	2
 4861              	.LC90:
 4862 0df4 3C46696C 		.ascii	"<Filename>  Destination File\000"
 4862      656E616D 
 4862      653E2020 
 4862      44657374 
 4862      696E6174 
 4863              		.global	EeePExpEEP_Cfg
 4864 0e11 000000   		.align	2
 4865              	.LC91:
 4866 0e14 3C46696C 		.ascii	"<Filename|stdout>  Destination File\000"
 4866      656E616D 
 4866      657C7374 
 4866      646F7574 
 4866      3E202044 
 4867              		.global	COM0R20CB_EEP
 4868              		.global	COM0R20CB_Img
 4869              		.global	COM0R20CB_Cfg
 4870              		.global	COM0R20M_EEP
 4871              		.global	COM0R20M_Img
 4872              		.global	COM0R20M_Cfg
 4873              		.global	CurOptions
 4874              		.global	syntaxErrMes
 4875              		.global	cszTitle
 4876              		.section	.rodata
 4877              		.align	2
 4878              		.set	.LANCHOR1,. + 0
 4881              	syntaxErrMes:
 4882 0000 53796E74 		.ascii	"Syntax error / Use -h for info\000"
 4882      61782065 
 4882      72726F72 
ARM GAS  /tmp/ccqui9DH.s 			page 122


 4882      202F2055 
 4882      7365202D 
 4883 001f 00       		.space	1
 4886              	cszTitle:
 4887 0020 2B3D3D3D 		.ascii	"+=================================================="
 4887      3D3D3D3D 
 4887      3D3D3D3D 
 4887      3D3D3D3D 
 4887      3D3D3D3D 
 4888 0053 3D3D3D3D 		.ascii	"===========================+\012| EeePProg.exe  Cop"
 4888      3D3D3D3D 
 4888      3D3D3D3D 
 4888      3D3D3D3D 
 4888      3D3D3D3D 
 4889 0083 79726967 		.ascii	"yright (C) Kontron Embedded Modules GmbH 2010   V %"
 4889      68742028 
 4889      4329204B 
 4889      6F6E7472 
 4889      6F6E2045 
 4890 00b6 752E2575 		.ascii	"u.%u.%04u |\012+==================================="
 4890      2E253034 
 4890      75207C0A 
 4890      2B3D3D3D 
 4890      3D3D3D3D 
 4891 00e6 3D3D3D3D 		.ascii	"==========================================+\012\012"
 4891      3D3D3D3D 
 4891      3D3D3D3D 
 4891      3D3D3D3D 
 4891      3D3D3D3D 
 4892 0113 00       		.ascii	"\000"
 4893              		.bss
 4894              		.align	2
 4895              		.set	.LANCHOR2,. + 0
 4898              	CurOptions:
 4899 0000 00000000 		.space	196
 4899      00000000 
 4899      00000000 
 4899      00000000 
 4899      00000000 
 4900              		.section	.data.rel,"aw"
 4901              		.align	2
 4904              	GEN_LIST_DBLOCKS_EEP:
 4905 0000 94000000 		.word	CurOptions+148
 4906 0004 04000000 		.word	4
 4907 0008 680D0000 		.word	.LC86
 4908 000c 00000000 		.word	NumberArg
 4909 0010 98000000 		.word	CurOptions+152
 4910 0014 04000000 		.word	4
 4911 0018 840D0000 		.word	.LC87
 4912 001c 00000000 		.word	NumberArg
 4915              	GEN_LIST_DBLOCKS_FILE:
 4916 0020 8C000000 		.word	CurOptions+140
 4917 0024 04000000 		.word	4
 4918 0028 AC0D0000 		.word	.LC88
 4919 002c 00000000 		.word	StringArg
 4922              	COM0R20M_PEEP:
 4923 0030 84000000 		.word	CurOptions+132
ARM GAS  /tmp/ccqui9DH.s 			page 123


 4924 0034 04000000 		.word	4
 4925 0038 AC0D0000 		.word	.LC88
 4926 003c 00000000 		.word	StringArg
 4929              	COM0R20CB_PEEP:
 4930 0040 7C000000 		.word	CurOptions+124
 4931 0044 04000000 		.word	4
 4932 0048 AC0D0000 		.word	.LC88
 4933 004c 00000000 		.word	StringArg
 4936              	EeePExpEEP_IMG:
 4937 0050 A8000000 		.word	CurOptions+168
 4938 0054 04000000 		.word	4
 4939 0058 AC0D0000 		.word	.LC88
 4940 005c 00000000 		.word	StringArg
 4941 0060 AC000000 		.word	CurOptions+172
 4942 0064 04000000 		.word	4
 4943 0068 680D0000 		.word	.LC86
 4944 006c 00000000 		.word	NumberArg
 4945 0070 B0000000 		.word	CurOptions+176
 4946 0074 04000000 		.word	4
 4947 0078 840D0000 		.word	.LC87
 4948 007c 00000000 		.word	NumberArg
 4951              	COM0R20M_IMG:
 4952 0080 C0000000 		.word	CurOptions+192
 4953 0084 04000000 		.word	4
 4954 0088 AC0D0000 		.word	.LC88
 4955 008c 00000000 		.word	StringArg
 4958              	COM0R20CB_IMG:
 4959 0090 B8000000 		.word	CurOptions+184
 4960 0094 04000000 		.word	4
 4961 0098 AC0D0000 		.word	.LC88
 4962 009c 00000000 		.word	StringArg
 4965              	EeePExpEEP_PEEP:
 4966 00a0 6C000000 		.word	CurOptions+108
 4967 00a4 04000000 		.word	4
 4968 00a8 AC0D0000 		.word	.LC88
 4969 00ac 00000000 		.word	StringArg
 4970 00b0 70000000 		.word	CurOptions+112
 4971 00b4 04000000 		.word	4
 4972 00b8 680D0000 		.word	.LC86
 4973 00bc 00000000 		.word	NumberArg
 4974 00c0 74000000 		.word	CurOptions+116
 4975 00c4 04000000 		.word	4
 4976 00c8 840D0000 		.word	.LC87
 4977 00cc 00000000 		.word	NumberArg
 4980              	EeePExpEEP_EEP:
 4981 00d0 5C000000 		.word	CurOptions+92
 4982 00d4 04000000 		.word	4
 4983 00d8 D00D0000 		.word	.LC89
 4984 00dc 00000000 		.word	StringArg
 4985 00e0 60000000 		.word	CurOptions+96
 4986 00e4 04000000 		.word	4
 4987 00e8 680D0000 		.word	.LC86
 4988 00ec 00000000 		.word	NumberArg
 4989 00f0 64000000 		.word	CurOptions+100
 4990 00f4 04000000 		.word	4
 4991 00f8 840D0000 		.word	.LC87
 4992 00fc 00000000 		.word	NumberArg
ARM GAS  /tmp/ccqui9DH.s 			page 124


 4995              	EeePExpEEP_Img:
 4996 0100 50000000 		.word	CurOptions+80
 4997 0104 04000000 		.word	4
 4998 0108 D00D0000 		.word	.LC89
 4999 010c 00000000 		.word	StringArg
 5000 0110 54000000 		.word	CurOptions+84
 5001 0114 04000000 		.word	4
 5002 0118 F40D0000 		.word	.LC90
 5003 011c 00000000 		.word	StringArg
 5006              	EeePExpEEP_Cfg:
 5007 0120 48000000 		.word	CurOptions+72
 5008 0124 04000000 		.word	4
 5009 0128 140E0000 		.word	.LC91
 5010 012c 00000000 		.word	StringArg
 5013              	COM0R20CB_EEP:
 5014 0130 40000000 		.word	CurOptions+64
 5015 0134 04000000 		.word	4
 5016 0138 D00D0000 		.word	.LC89
 5017 013c 00000000 		.word	StringArg
 5020              	COM0R20CB_Img:
 5021 0140 34000000 		.word	CurOptions+52
 5022 0144 04000000 		.word	4
 5023 0148 D00D0000 		.word	.LC89
 5024 014c 00000000 		.word	StringArg
 5025 0150 38000000 		.word	CurOptions+56
 5026 0154 04000000 		.word	4
 5027 0158 F40D0000 		.word	.LC90
 5028 015c 00000000 		.word	StringArg
 5031              	COM0R20CB_Cfg:
 5032 0160 2C000000 		.word	CurOptions+44
 5033 0164 04000000 		.word	4
 5034 0168 140E0000 		.word	.LC91
 5035 016c 00000000 		.word	StringArg
 5038              	COM0R20M_EEP:
 5039 0170 24000000 		.word	CurOptions+36
 5040 0174 04000000 		.word	4
 5041 0178 D00D0000 		.word	.LC89
 5042 017c 00000000 		.word	StringArg
 5045              	COM0R20M_Img:
 5046 0180 18000000 		.word	CurOptions+24
 5047 0184 04000000 		.word	4
 5048 0188 D00D0000 		.word	.LC89
 5049 018c 00000000 		.word	StringArg
 5050 0190 1C000000 		.word	CurOptions+28
 5051 0194 04000000 		.word	4
 5052 0198 F40D0000 		.word	.LC90
 5053 019c 00000000 		.word	StringArg
 5056              	COM0R20M_Cfg:
 5057 01a0 10000000 		.word	CurOptions+16
 5058 01a4 04000000 		.word	4
 5059 01a8 140E0000 		.word	.LC91
 5060 01ac 00000000 		.word	StringArg
 5061              		.section	.data.rel.local,"aw"
 5062              		.align	2
 5063              		.set	.LANCHOR0,. + 0
 5066              	ArgsDesc:
 5067 0000 71       		.byte	113
ARM GAS  /tmp/ccqui9DH.s 			page 125


 5068 0001 000000   		.space	3
 5069 0004 F0070000 		.word	.LC43
 5070 0008 04000000 		.word	CurOptions+4
 5071 000c F8070000 		.word	.LC44
 5072 0010 00000000 		.word	0
 5073 0014 00000000 		.word	0
 5074 0018 00000000 		.word	0
 5075 001c 00000000 		.word	0
 5076 0020 68       		.byte	104
 5077 0021 000000   		.space	3
 5078 0024 0C080000 		.word	.LC45
 5079 0028 00000000 		.word	CurOptions
 5080 002c 14080000 		.word	.LC46
 5081 0030 00000000 		.word	0
 5082 0034 00000000 		.word	0
 5083 0038 00000000 		.word	0
 5084 003c 00000000 		.word	0
 5085 0040 3F       		.byte	63
 5086 0041 000000   		.space	3
 5087 0044 00000000 		.word	0
 5088 0048 00000000 		.word	CurOptions
 5089 004c 14080000 		.word	.LC46
 5090 0050 00000000 		.word	0
 5091 0054 00000000 		.word	0
 5092 0058 00000000 		.word	0
 5093 005c 00000000 		.word	0
 5094 0060 76       		.byte	118
 5095 0061 000000   		.space	3
 5096 0064 30080000 		.word	.LC47
 5097 0068 08000000 		.word	CurOptions+8
 5098 006c 38080000 		.word	.LC48
 5099 0070 00000000 		.word	0
 5100 0074 00000000 		.word	0
 5101 0078 00000000 		.word	0
 5102 007c 00000000 		.word	0
 5103 0080 00       		.byte	0
 5104 0081 000000   		.space	3
 5105 0084 54080000 		.word	.LC49
 5106 0088 0C000000 		.word	CurOptions+12
 5107 008c 68080000 		.word	.LC50
 5108 0090 00000000 		.word	COM0R20M_Cfg
 5109 0094 01000000 		.word	1
 5110 0098 10000000 		.word	CurOptions+16
 5111 009c 00000000 		.word	CMD_CreateCOM0R20_MEEPCfg
 5112 00a0 00       		.byte	0
 5113 00a1 000000   		.space	3
 5114 00a4 90080000 		.word	.LC51
 5115 00a8 14000000 		.word	CurOptions+20
 5116 00ac A4080000 		.word	.LC52
 5117 00b0 00000000 		.word	COM0R20M_Img
 5118 00b4 02000000 		.word	2
 5119 00b8 18000000 		.word	CurOptions+24
 5120 00bc 00000000 		.word	CMD_CreateCOM0R20M_IMG
 5121 00c0 00       		.byte	0
 5122 00c1 000000   		.space	3
 5123 00c4 C4080000 		.word	.LC53
 5124 00c8 20000000 		.word	CurOptions+32
ARM GAS  /tmp/ccqui9DH.s 			page 126


 5125 00cc D8080000 		.word	.LC54
 5126 00d0 00000000 		.word	COM0R20M_EEP
 5127 00d4 01000000 		.word	1
 5128 00d8 24000000 		.word	CurOptions+36
 5129 00dc 00000000 		.word	CMD_CreateCOM0R20M_EEP
 5130 00e0 00       		.byte	0
 5131 00e1 000000   		.space	3
 5132 00e4 0C090000 		.word	.LC55
 5133 00e8 28000000 		.word	CurOptions+40
 5134 00ec 24090000 		.word	.LC56
 5135 00f0 00000000 		.word	COM0R20CB_Cfg
 5136 00f4 01000000 		.word	1
 5137 00f8 2C000000 		.word	CurOptions+44
 5138 00fc 00000000 		.word	CMD_CreateCOM0R20_CBCfg
 5139 0100 00       		.byte	0
 5140 0101 000000   		.space	3
 5141 0104 50090000 		.word	.LC57
 5142 0108 3C000000 		.word	CurOptions+60
 5143 010c 68090000 		.word	.LC58
 5144 0110 00000000 		.word	COM0R20CB_EEP
 5145 0114 01000000 		.word	1
 5146 0118 40000000 		.word	CurOptions+64
 5147 011c 00000000 		.word	CMD_CreateCOM0R20CB_EEP
 5148 0120 00       		.byte	0
 5149 0121 000000   		.space	3
 5150 0124 9C090000 		.word	.LC59
 5151 0128 30000000 		.word	CurOptions+48
 5152 012c B4090000 		.word	.LC60
 5153 0130 00000000 		.word	COM0R20CB_Img
 5154 0134 02000000 		.word	2
 5155 0138 34000000 		.word	CurOptions+52
 5156 013c 00000000 		.word	CMD_CreateCOM0R20CB_IMG
 5157 0140 00       		.byte	0
 5158 0141 000000   		.space	3
 5159 0144 D4090000 		.word	.LC61
 5160 0148 44000000 		.word	CurOptions+68
 5161 014c EC090000 		.word	.LC62
 5162 0150 00000000 		.word	EeePExpEEP_Cfg
 5163 0154 01000000 		.word	1
 5164 0158 48000000 		.word	CurOptions+72
 5165 015c 00000000 		.word	CMD_CreateCOM0R20_EeePExtCfg
 5166 0160 00       		.byte	0
 5167 0161 000000   		.space	3
 5168 0164 1C0A0000 		.word	.LC63
 5169 0168 4C000000 		.word	CurOptions+76
 5170 016c 340A0000 		.word	.LC64
 5171 0170 00000000 		.word	EeePExpEEP_Img
 5172 0174 02000000 		.word	2
 5173 0178 50000000 		.word	CurOptions+80
 5174 017c 00000000 		.word	CMD_CreateExtEepEEP_IMG
 5175 0180 00       		.byte	0
 5176 0181 000000   		.space	3
 5177 0184 5C0A0000 		.word	.LC65
 5178 0188 58000000 		.word	CurOptions+88
 5179 018c 740A0000 		.word	.LC66
 5180 0190 00000000 		.word	EeePExpEEP_EEP
 5181 0194 03000000 		.word	3
ARM GAS  /tmp/ccqui9DH.s 			page 127


 5182 0198 5C000000 		.word	CurOptions+92
 5183 019c 00000000 		.word	CMD_CreateEeePExt_EEP
 5184 01a0 00       		.byte	0
 5185 01a1 000000   		.space	3
 5186 01a4 AC0A0000 		.word	.LC67
 5187 01a8 68000000 		.word	CurOptions+104
 5188 01ac C40A0000 		.word	.LC68
 5189 01b0 00000000 		.word	EeePExpEEP_PEEP
 5190 01b4 03000000 		.word	3
 5191 01b8 6C000000 		.word	CurOptions+108
 5192 01bc 00000000 		.word	CMD_ProgramEeePExt_EEP
 5193 01c0 00       		.byte	0
 5194 01c1 000000   		.space	3
 5195 01c4 F40A0000 		.word	.LC69
 5196 01c8 78000000 		.word	CurOptions+120
 5197 01cc 0C0B0000 		.word	.LC70
 5198 01d0 00000000 		.word	COM0R20CB_PEEP
 5199 01d4 01000000 		.word	1
 5200 01d8 7C000000 		.word	CurOptions+124
 5201 01dc 00000000 		.word	CMD_ProgramCOM0R20CB_EEP
 5202 01e0 00       		.byte	0
 5203 01e1 000000   		.space	3
 5204 01e4 480B0000 		.word	.LC71
 5205 01e8 80000000 		.word	CurOptions+128
 5206 01ec 600B0000 		.word	.LC72
 5207 01f0 00000000 		.word	COM0R20M_PEEP
 5208 01f4 01000000 		.word	1
 5209 01f8 84000000 		.word	CurOptions+132
 5210 01fc 00000000 		.word	CMD_ProgramCOM0R20M_EEP
 5211 0200 00       		.byte	0
 5212 0201 000000   		.space	3
 5213 0204 940B0000 		.word	.LC73
 5214 0208 A4000000 		.word	CurOptions+164
 5215 020c A80B0000 		.word	.LC74
 5216 0210 00000000 		.word	EeePExpEEP_IMG
 5217 0214 03000000 		.word	3
 5218 0218 A8000000 		.word	CurOptions+168
 5219 021c 00000000 		.word	CMD_StoreEeePExt_EEP
 5220 0220 00       		.byte	0
 5221 0221 000000   		.space	3
 5222 0224 DC0B0000 		.word	.LC75
 5223 0228 B4000000 		.word	CurOptions+180
 5224 022c F00B0000 		.word	.LC76
 5225 0230 00000000 		.word	COM0R20CB_IMG
 5226 0234 01000000 		.word	1
 5227 0238 B8000000 		.word	CurOptions+184
 5228 023c 00000000 		.word	CMD_StoreCOM0R20_CB_EEP
 5229 0240 00       		.byte	0
 5230 0241 000000   		.space	3
 5231 0244 2C0C0000 		.word	.LC77
 5232 0248 BC000000 		.word	CurOptions+188
 5233 024c 400C0000 		.word	.LC78
 5234 0250 00000000 		.word	COM0R20M_IMG
 5235 0254 01000000 		.word	1
 5236 0258 C0000000 		.word	CurOptions+192
 5237 025c 00000000 		.word	CMD_StoreCOM0R20_M_EEP
 5238 0260 00       		.byte	0
ARM GAS  /tmp/ccqui9DH.s 			page 128


 5239 0261 000000   		.space	3
 5240 0264 740C0000 		.word	.LC79
 5241 0268 88000000 		.word	CurOptions+136
 5242 026c 880C0000 		.word	.LC80
 5243 0270 00000000 		.word	GEN_LIST_DBLOCKS_FILE
 5244 0274 01000000 		.word	1
 5245 0278 8C000000 		.word	CurOptions+140
 5246 027c 00000000 		.word	CMD_ListDBlocks_IMG
 5247 0280 00       		.byte	0
 5248 0281 000000   		.space	3
 5249 0284 B40C0000 		.word	.LC81
 5250 0288 90000000 		.word	CurOptions+144
 5251 028c 880C0000 		.word	.LC80
 5252 0290 00000000 		.word	GEN_LIST_DBLOCKS_EEP
 5253 0294 02000000 		.word	2
 5254 0298 94000000 		.word	CurOptions+148
 5255 029c 00000000 		.word	CMD_ListDBlocksEeePExt_EEP
 5256 02a0 00       		.byte	0
 5257 02a1 000000   		.space	3
 5258 02a4 C80C0000 		.word	.LC82
 5259 02a8 9C000000 		.word	CurOptions+156
 5260 02ac E40C0000 		.word	.LC83
 5261 02b0 00000000 		.word	0
 5262 02b4 00000000 		.word	0
 5263 02b8 00000000 		.word	0
 5264 02bc 00000000 		.word	CMD_ListDBlocksCOM0R20_CB_EEP
 5265 02c0 00       		.byte	0
 5266 02c1 000000   		.space	3
 5267 02c4 1C0D0000 		.word	.LC84
 5268 02c8 A0000000 		.word	CurOptions+160
 5269 02cc 380D0000 		.word	.LC85
 5270 02d0 00000000 		.word	0
 5271 02d4 00000000 		.word	0
 5272 02d8 00000000 		.word	0
 5273 02dc 00000000 		.word	CMD_ListDBlocksCOM0R20_M_EEP
 5274              		.text
 5275              	.Letext0:
 5276              		.file 2 "/home/hkh/buildroot-2022.02/output/host/arm-buildroot-linux-musleabihf/sysroot/usr/includ
 5277              		.file 3 "/home/hkh/buildroot-2022.02/output/host/arm-buildroot-linux-musleabihf/sysroot/usr/includ
 5278              		.file 4 "../../../include/EApi.h"
 5279              		.file 5 "../ArgParse.h"
 5280              		.file 6 "../../../include/EeeP.h"
 5281              		.file 7 "../../../include/COM0EEP.h"
 5282              		.file 8 "../EeePDB.h"
 5283              		.file 9 "../EeePArg.h"
 5284              		.file 10 "/home/hkh/buildroot-2022.02/output/host/arm-buildroot-linux-musleabihf/sysroot/usr/inclu
 5285              		.file 11 "/home/hkh/buildroot-2022.02/output/host/arm-buildroot-linux-musleabihf/sysroot/usr/inclu
 5286              		.file 12 "../EeePCfg.h"
 5287              		.file 13 "../../include/DbgChk.h"
ARM GAS  /tmp/ccqui9DH.s 			page 129


DEFINED SYMBOLS
                            *ABS*:0000000000000000 EeePProg.c
     /tmp/ccqui9DH.s:17     .rodata.str1.4:0000000000000000 $d
     /tmp/ccqui9DH.s:18     .rodata.str1.4:0000000000000000 .LC0
     /tmp/ccqui9DH.s:21     .rodata.str1.4:0000000000000004 .LC1
     /tmp/ccqui9DH.s:25     .rodata.str1.4:000000000000004c .LC2
     /tmp/ccqui9DH.s:29     .rodata.str1.4:0000000000000088 .LC3
     /tmp/ccqui9DH.s:32     .rodata.str1.4:000000000000008c .LC4
     /tmp/ccqui9DH.s:36     .text:0000000000000000 $a
     /tmp/ccqui9DH.s:45     .text:0000000000000000 CMD_CreateCOM0R20CB_EEP
     /tmp/ccqui9DH.s:194    .text:0000000000000110 $d
     /tmp/ccqui9DH.s:210    .rodata.str1.4:00000000000000dc .LC5
     /tmp/ccqui9DH.s:214    .rodata.str1.4:000000000000011c .LC6
     /tmp/ccqui9DH.s:218    .text:000000000000013c $a
     /tmp/ccqui9DH.s:224    .text:000000000000013c CMD_CreateCOM0R20M_EEP
     /tmp/ccqui9DH.s:372    .text:000000000000024c $d
     /tmp/ccqui9DH.s:388    .rodata.str1.4:0000000000000168 .LC7
     /tmp/ccqui9DH.s:392    .rodata.str1.4:00000000000001b8 .LC8
     /tmp/ccqui9DH.s:397    .text:0000000000000278 $a
     /tmp/ccqui9DH.s:403    .text:0000000000000278 CMD_CreateEeePExt_EEP
     /tmp/ccqui9DH.s:553    .text:000000000000038c $d
     /tmp/ccqui9DH.s:569    .rodata.str1.4:0000000000000238 .LC9
     /tmp/ccqui9DH.s:576    .rodata.str1.4:0000000000000278 .LC11
     /tmp/ccqui9DH.s:579    .rodata.str1.4:0000000000000294 .LC12
     /tmp/ccqui9DH.s:582    .text:00000000000003b8 $a
     /tmp/ccqui9DH.s:588    .text:00000000000003b8 CMD_ProgramCOM0R20CB_EEP
     /tmp/ccqui9DH.s:779    .text:0000000000000534 $d
     /tmp/ccqui9DH.s:802    .rodata.str1.4:00000000000002c4 .LC14
     /tmp/ccqui9DH.s:805    .rodata.str1.4:00000000000002dc .LC15
     /tmp/ccqui9DH.s:808    .text:0000000000000570 $a
     /tmp/ccqui9DH.s:814    .text:0000000000000570 CMD_ProgramCOM0R20M_EEP
     /tmp/ccqui9DH.s:1005   .text:00000000000006ec $d
     /tmp/ccqui9DH.s:1025   .rodata.str1.4:0000000000000300 .LC16
     /tmp/ccqui9DH.s:1032   .rodata.str1.4:0000000000000354 .LC18
     /tmp/ccqui9DH.s:1035   .rodata.str1.4:000000000000036c .LC19
     /tmp/ccqui9DH.s:1038   .rodata.str1.4:0000000000000390 .LC20
     /tmp/ccqui9DH.s:1043   .text:0000000000000728 $a
     /tmp/ccqui9DH.s:1049   .text:0000000000000728 CMD_ProgramEeePExt_EEP
     /tmp/ccqui9DH.s:1243   .text:00000000000008a8 $d
     /tmp/ccqui9DH.s:1263   .rodata.str1.4:0000000000000410 .LC21
     /tmp/ccqui9DH.s:1268   .rodata.str1.4:0000000000000494 .LC22
     /tmp/ccqui9DH.s:1272   .text:00000000000008e4 $a
     /tmp/ccqui9DH.s:1278   .text:00000000000008e4 CMD_StoreEeePExt_EEP
     /tmp/ccqui9DH.s:1431   .text:00000000000009f8 $d
     /tmp/ccqui9DH.s:1447   .rodata.str1.4:00000000000004dc .LC23
     /tmp/ccqui9DH.s:1451   .rodata.str1.4:0000000000000528 .LC24
     /tmp/ccqui9DH.s:1455   .text:0000000000000a24 $a
     /tmp/ccqui9DH.s:1461   .text:0000000000000a24 CMD_CreateExtEepEEP_IMG
     /tmp/ccqui9DH.s:1610   .text:0000000000000b34 $d
     /tmp/ccqui9DH.s:1626   .rodata.str1.4:000000000000056c .LC25
     /tmp/ccqui9DH.s:1630   .text:0000000000000b60 $a
     /tmp/ccqui9DH.s:1636   .text:0000000000000b60 CMD_CreateCOM0R20M_IMG
     /tmp/ccqui9DH.s:1785   .text:0000000000000c70 $d
     /tmp/ccqui9DH.s:1801   .rodata.str1.4:00000000000005bc .LC26
     /tmp/ccqui9DH.s:1805   .text:0000000000000c9c $a
     /tmp/ccqui9DH.s:1811   .text:0000000000000c9c CMD_CreateCOM0R20CB_IMG
     /tmp/ccqui9DH.s:1960   .text:0000000000000dac $d
ARM GAS  /tmp/ccqui9DH.s 			page 130


     /tmp/ccqui9DH.s:1976   .rodata.str1.4:0000000000000608 .LC27
     /tmp/ccqui9DH.s:1981   .rodata.str1.4:0000000000000688 .LC28
     /tmp/ccqui9DH.s:1984   .text:0000000000000dd8 $a
     /tmp/ccqui9DH.s:1990   .text:0000000000000dd8 CMD_ListDBlocksEeePExt_EEP
     /tmp/ccqui9DH.s:2139   .text:0000000000000ee8 $d
     /tmp/ccqui9DH.s:2153   .text:0000000000000f14 $a
     /tmp/ccqui9DH.s:2159   .text:0000000000000f14 CMD_ListDBlocks_IMG
     /tmp/ccqui9DH.s:2306   .text:0000000000001020 $d
     /tmp/ccqui9DH.s:2320   .text:000000000000104c $a
     /tmp/ccqui9DH.s:2326   .text:000000000000104c CMD_ListDBlocksCOM0R20_CB_EEP
     /tmp/ccqui9DH.s:2500   .text:0000000000001158 $d
     /tmp/ccqui9DH.s:2514   .text:0000000000001184 $a
     /tmp/ccqui9DH.s:2520   .text:0000000000001184 CMD_ListDBlocksCOM0R20_M_EEP
     /tmp/ccqui9DH.s:2694   .text:0000000000001290 $d
     /tmp/ccqui9DH.s:2708   .text:00000000000012bc $a
     /tmp/ccqui9DH.s:2714   .text:00000000000012bc CMD_StoreCOM0R20_CB_EEP
     /tmp/ccqui9DH.s:2888   .text:00000000000013cc $d
     /tmp/ccqui9DH.s:2902   .text:00000000000013f8 $a
     /tmp/ccqui9DH.s:2908   .text:00000000000013f8 CMD_StoreCOM0R20_M_EEP
     /tmp/ccqui9DH.s:3082   .text:0000000000001508 $d
     /tmp/ccqui9DH.s:3098   .rodata.str1.4:00000000000006a4 .LC29
     /tmp/ccqui9DH.s:3101   .rodata.str1.4:00000000000006ac .LC30
     /tmp/ccqui9DH.s:3104   .rodata.str1.4:00000000000006b4 .LC31
     /tmp/ccqui9DH.s:3107   .rodata.str1.4:00000000000006b8 .LC32
     /tmp/ccqui9DH.s:3110   .rodata.str1.4:00000000000006cc .LC33
     /tmp/ccqui9DH.s:3113   .rodata.str1.4:00000000000006e0 .LC34
     /tmp/ccqui9DH.s:3116   .rodata.str1.4:0000000000000710 .LC35
     /tmp/ccqui9DH.s:3119   .text:0000000000001534 $a
     /tmp/ccqui9DH.s:3125   .text:0000000000001534 CMD_CreateCOM0R20_CBCfg
     /tmp/ccqui9DH.s:3439   .text:00000000000016fc $d
     /tmp/ccqui9DH.s:3462   .rodata.str1.4:0000000000000734 .LC36
     /tmp/ccqui9DH.s:3465   .text:000000000000173c $a
     /tmp/ccqui9DH.s:3471   .text:000000000000173c CMD_CreateCOM0R20_EeePExtCfg
     /tmp/ccqui9DH.s:3785   .text:0000000000001904 $d
     /tmp/ccqui9DH.s:3808   .rodata.str1.4:0000000000000758 .LC37
     /tmp/ccqui9DH.s:3811   .text:0000000000001944 $a
     /tmp/ccqui9DH.s:3817   .text:0000000000001944 CMD_CreateCOM0R20_MEEPCfg
     /tmp/ccqui9DH.s:4131   .text:0000000000001b0c $d
     /tmp/ccqui9DH.s:4152   .text:0000000000001b4c $a
     /tmp/ccqui9DH.s:4158   .text:0000000000001b4c CreateTxtFilePtr
     /tmp/ccqui9DH.s:4342   .text:0000000000001c70 $d
     /tmp/ccqui9DH.s:4355   .text:0000000000001c98 $a
     /tmp/ccqui9DH.s:4361   .text:0000000000001c98 FreeFilePtr
     /tmp/ccqui9DH.s:4421   .text:0000000000001cec $d
     /tmp/ccqui9DH.s:4429   .rodata.str1.4:0000000000000780 .LC38
     /tmp/ccqui9DH.s:4432   .rodata.str1.4:0000000000000788 .LC39
     /tmp/ccqui9DH.s:4435   .rodata.str1.4:000000000000079c .LC40
     /tmp/ccqui9DH.s:4438   .rodata.str1.4:00000000000007a0 .LC41
     /tmp/ccqui9DH.s:4442   .rodata.str1.4:00000000000007d8 .LC42
     /tmp/ccqui9DH.s:4445   .text.startup:0000000000000000 $a
     /tmp/ccqui9DH.s:4451   .text.startup:0000000000000000 main
     /tmp/ccqui9DH.s:4678   .text.startup:00000000000001ac $d
     /tmp/ccqui9DH.s:5066   .data.rel.local:0000000000000000 ArgsDesc
     /tmp/ccqui9DH.s:4904   .data.rel:0000000000000000 GEN_LIST_DBLOCKS_EEP
     /tmp/ccqui9DH.s:4915   .data.rel:0000000000000020 GEN_LIST_DBLOCKS_FILE
     /tmp/ccqui9DH.s:4922   .data.rel:0000000000000030 COM0R20M_PEEP
     /tmp/ccqui9DH.s:4929   .data.rel:0000000000000040 COM0R20CB_PEEP
ARM GAS  /tmp/ccqui9DH.s 			page 131


     /tmp/ccqui9DH.s:4936   .data.rel:0000000000000050 EeePExpEEP_IMG
     /tmp/ccqui9DH.s:4951   .data.rel:0000000000000080 COM0R20M_IMG
     /tmp/ccqui9DH.s:4958   .data.rel:0000000000000090 COM0R20CB_IMG
     /tmp/ccqui9DH.s:4965   .data.rel:00000000000000a0 EeePExpEEP_PEEP
     /tmp/ccqui9DH.s:4980   .data.rel:00000000000000d0 EeePExpEEP_EEP
     /tmp/ccqui9DH.s:4995   .data.rel:0000000000000100 EeePExpEEP_Img
     /tmp/ccqui9DH.s:5006   .data.rel:0000000000000120 EeePExpEEP_Cfg
     /tmp/ccqui9DH.s:5013   .data.rel:0000000000000130 COM0R20CB_EEP
     /tmp/ccqui9DH.s:5020   .data.rel:0000000000000140 COM0R20CB_Img
     /tmp/ccqui9DH.s:5031   .data.rel:0000000000000160 COM0R20CB_Cfg
     /tmp/ccqui9DH.s:5038   .data.rel:0000000000000170 COM0R20M_EEP
     /tmp/ccqui9DH.s:5045   .data.rel:0000000000000180 COM0R20M_Img
     /tmp/ccqui9DH.s:5056   .data.rel:00000000000001a0 COM0R20M_Cfg
     /tmp/ccqui9DH.s:4898   .bss:0000000000000000 CurOptions
     /tmp/ccqui9DH.s:4881   .rodata:0000000000000000 syntaxErrMes
     /tmp/ccqui9DH.s:4886   .rodata:0000000000000020 cszTitle
     /tmp/ccqui9DH.s:4877   .rodata:0000000000000000 $d
     /tmp/ccqui9DH.s:4894   .bss:0000000000000000 $d
     /tmp/ccqui9DH.s:4901   .data.rel:0000000000000000 $d
     /tmp/ccqui9DH.s:5062   .data.rel.local:0000000000000000 $d

UNDEFINED SYMBOLS
EeeP_CreateCOM0R20_CBImage
EeePWriteBufferToEEP
EeePFreeBuffer
siFormattedMessage_SC
__stack_chk_fail
_GLOBAL_OFFSET_TABLE_
__stack_chk_guard
EeeP_CreateCOM0R20_MEEPImage
EeeP_CreateEeePExtEEPImage
EeePReadBufferFromFile
EeePReadBufferFromEEP
EeePWriteBufferToFile
EeePListBlocks
strcmp
EeeP_CreateCOM0R20_CBCfg
fclose
fopen
stdout
stderr
EeeP_CreateEeePExtEEPCfg
EeeP_CreateCOM0R20_MEEPCfg
EApiLibInitialize
ParseArgs
exit
printf
EApiLibUnInitialize
fprintf
PrintUsage
NumberArg
StringArg
