	.cpu cortex-a9
	.eabi_attribute 28, 1
	.eabi_attribute 20, 1
	.eabi_attribute 21, 1
	.eabi_attribute 23, 3
	.eabi_attribute 24, 1
	.eabi_attribute 25, 1
	.eabi_attribute 26, 2
	.eabi_attribute 30, 6
	.eabi_attribute 34, 1
	.eabi_attribute 18, 4
	.file	"CfgParser.c"
	.text
.Ltext0:
	.cfi_sections	.debug_frame
	.data
	.align	2
	.type	ElementHeader, %object
	.size	ElementHeader, 106
ElementHeader:
	.ascii	"#################################################\012"
	.ascii	"  %s\012###########################################"
	.ascii	"######\012\000"
	.align	2
	.type	BlockOpen, %object
	.size	BlockOpen, 6
BlockOpen:
	.ascii	"[%s]\012\000"
	.align	2
	.type	BlockClose, %object
	.size	BlockClose, 7
BlockClose:
	.ascii	"[/%s]\012\000"
	.global	szComment
	.section	.rodata
	.align	2
	.type	szComment, %object
	.size	szComment, 3
szComment:
	.ascii	"##\000"
	.global	szComment2
	.align	2
	.type	szComment2, %object
	.size	szComment2, 5
szComment2:
	.ascii	"##  \000"
	.align	2
.LC1:
	.ascii	"PrintCfgFile_Sub\000"
	.align	2
.LC2:
	.ascii	"/home/hkh/git/eapidk-code-r76-trunk/apps/EeePProg/l"
	.ascii	"inux/../CfgParser.c\000"
	.align	2
.LC3:
	.ascii	"(pCfgBDesc==NULL)\000"
	.align	2
.LC4:
	.ascii	"%s\012\000"
	.align	2
.LC5:
	.ascii	"(stCfgBDescElements==0)\000"
	.align	2
.LC6:
	.ascii	"\000"
	.align	2
.LC7:
	.ascii	"# \000"
	.align	2
.LC8:
	.ascii	"\012\000"
	.align	2
.LC9:
	.ascii	"TB \000"
	.align	2
.LC10:
	.ascii	"PrintStringBlockA(OutStream, szBuffer, 60, (cuiRequ"
	.ascii	"ired&&pCfgBDesc->Block.cuiRequired?\"\":\"# \"), Lc"
	.ascii	"lDepth, \"\\n\")\000"
	.align	2
.LC11:
	.ascii	"PrintCfgFile_Sub(pCfgBDesc->Block.Elements.pIndx, p"
	.ascii	"CfgBDesc->Block.Elements.stUsedCnt, OutStream, cuiR"
	.ascii	"equired&&pCfgBDesc->Block.cuiRequired, Depth+1)\000"
	.align	2
.LC12:
	.ascii	"PrintStringBlockA(OutStream, szBuffer, 60, szCommen"
	.ascii	"t, LclDepth, \"\\n\")\000"
	.align	2
.LC13:
	.ascii	"Required Element\000"
	.align	2
.LC14:
	.ascii	"Optional Element\000"
	.align	2
.LC15:
	.ascii	"%*s\011\011 %s\012\000"
	.align	2
.LC16:
	.ascii	"%*s\011\011 Allowed Maximum of %lu times in block\012"
	.ascii	"\000"
	.align	2
.LC17:
	.ascii	"pCfgBDesc->Element.pHandlers->Help( &pCfgBDesc->Ele"
	.ascii	"ment, szBuffer, ARRAY_SIZE(szBuffer) )\000"
	.align	2
.LC18:
	.ascii	"PrintStringBlockA(OutStream, szBuffer, 60, szCommen"
	.ascii	"t2, LclDepth+2, \"\\n\" )\000"
	.align	2
.LC19:
	.ascii	"%*s%s=\000"
	.align	2
.LC20:
	.ascii	"pCfgBDesc->Element.pHandlers->Default( &pCfgBDesc->"
	.ascii	"Element, OutStream , i2 )\000"
	.text
	.align	2
	.global	PrintCfgFile_Sub
	.arch armv7-a
	.arch_extension mp
	.arch_extension sec
	.syntax unified
	.arm
	.fpu vfpv3
	.type	PrintCfgFile_Sub, %function
PrintCfgFile_Sub:
.LFB1:
	.file 1 "/home/hkh/git/eapidk-code-r76-trunk/apps/EeePProg/linux/../CfgParser.c"
	.loc 1 68 1
	.cfi_startproc
	@ args = 4, pretend = 0, frame = 2080
	@ frame_needed = 1, uses_anonymous_args = 0
	push	{r4, fp, lr}
	.cfi_def_cfa_offset 12
	.cfi_offset 4, -12
	.cfi_offset 11, -8
	.cfi_offset 14, -4
	add	fp, sp, #8
	.cfi_def_cfa 11, 4
	sub	sp, sp, #2096
	sub	sp, sp, #4
	str	r0, [fp, #-2080]
	str	r1, [fp, #-2084]
	str	r2, [fp, #-2088]
	str	r3, [fp, #-2092]
	.loc 1 68 1
	ldr	r2, .L32
.LPIC58:
	add	r2, pc, r2
	ldr	r3, .L32+4
	ldr	r3, [r2, r3]
	ldr	r3, [r3]
	str	r3, [fp, #-16]
	mov	r3, #0
	.loc 1 69 16
	mov	r3, #0
	str	r3, [fp, #-2076]
	.loc 1 73 3
	ldr	r3, [fp, #-2080]
	cmp	r3, #0
	bne	.L2
	.loc 1 73 3 is_stmt 0 discriminator 1
	ldr	r3, .L32+8
.LPIC0:
	add	r3, pc, r3
	str	r3, [sp, #8]
	ldr	r3, .L32+12
.LPIC1:
	add	r3, pc, r3
	str	r3, [sp, #4]
	mvn	r3, #256
	str	r3, [sp]
	mov	r3, #73
	ldr	r2, .L32+16
.LPIC2:
	add	r2, pc, r2
	ldr	r1, .L32+20
.LPIC3:
	add	r1, pc, r1
	mov	r0, #69
	bl	siFormattedMessage_SC(PLT)
	mvn	r3, #256
	str	r3, [fp, #-2076]
	b	.L3
.L2:
	.loc 1 78 3 is_stmt 1
	ldr	r3, [fp, #-2084]
	cmp	r3, #0
	bne	.L4
	.loc 1 78 3 is_stmt 0 discriminator 1
	ldr	r3, .L32+24
.LPIC4:
	add	r3, pc, r3
	str	r3, [sp, #8]
	ldr	r3, .L32+28
.LPIC5:
	add	r3, pc, r3
	str	r3, [sp, #4]
	mvn	r3, #256
	str	r3, [sp]
	mov	r3, #78
	ldr	r2, .L32+32
.LPIC6:
	add	r2, pc, r2
	ldr	r1, .L32+36
.LPIC7:
	add	r1, pc, r1
	mov	r0, #69
	bl	siFormattedMessage_SC(PLT)
	mvn	r3, #256
	str	r3, [fp, #-2076]
	b	.L3
.L4:
	.loc 1 83 29 is_stmt 1
	ldr	r3, [fp, #4]
	add	r3, r3, #1
	lsl	r3, r3, #1
	.loc 1 83 11
	str	r3, [fp, #-2068]
	.loc 1 84 8
	b	.L5
.L28:
	.loc 1 85 26
	ldr	r3, [fp, #-2080]
	ldr	r3, [r3]
	.loc 1 85 5
	cmp	r3, #1
	beq	.L6
	cmp	r3, #2
	beq	.L7
	.loc 1 131 9
	b	.L18
.L6:
	.loc 1 87 37
	ldr	r3, [fp, #-2080]
	ldr	r3, [r3, #12]
	.loc 1 87 11
	cmp	r3, #0
	beq	.L31
	.loc 1 88 11
	ldr	r3, [fp, #-2080]
	ldr	r3, [r3, #4]
	sub	r0, fp, #2048
	sub	r0, r0, #12
	sub	r0, r0, #4
	ldr	r2, .L32+40
.LPIC8:
	add	r2, pc, r2
	mov	r1, #2048
	bl	EApiSprintfA(PLT)
	.loc 1 89 11
	ldr	r3, [fp, #-2092]
	cmp	r3, #0
	beq	.L10
	.loc 1 89 11 is_stmt 0 discriminator 1
	ldr	r3, [fp, #-2080]
	ldr	r3, [r3, #8]
	cmp	r3, #0
	beq	.L10
	.loc 1 89 11 discriminator 3
	ldr	r3, .L32+44
.LPIC9:
	add	r3, pc, r3
	mov	r2, r3
	b	.L11
.L10:
	.loc 1 89 11 discriminator 4
	ldr	r3, .L32+48
.LPIC10:
	add	r3, pc, r3
	mov	r2, r3
.L11:
	.loc 1 89 11 discriminator 6
	sub	r1, fp, #2048
	sub	r1, r1, #12
	sub	r1, r1, #4
	ldr	r3, .L32+52
.LPIC11:
	add	r3, pc, r3
	str	r3, [sp, #4]
	ldr	r3, [fp, #-2068]
	str	r3, [sp]
	mov	r3, r2
	mov	r2, #60
	ldr	r0, [fp, #-2088]
	bl	PrintStringBlockA(PLT)
	str	r0, [fp, #-2076]
	ldr	r3, [fp, #-2076]
	cmp	r3, #0
	beq	.L12
	.loc 1 89 11 discriminator 7
	ldr	r3, .L32+56
.LPIC12:
	add	r3, pc, r3
	str	r3, [sp, #8]
	ldr	r3, .L32+60
.LPIC13:
	add	r3, pc, r3
	str	r3, [sp, #4]
	ldr	r3, [fp, #-2076]
	str	r3, [sp]
	mov	r3, #89
	ldr	r2, .L32+64
.LPIC14:
	add	r2, pc, r2
	ldr	r1, .L32+68
.LPIC15:
	add	r1, pc, r1
	mov	r0, #69
	bl	siFormattedMessage_SC(PLT)
	b	.L3
.L12:
	.loc 1 90 11 is_stmt 1
	ldr	r3, [fp, #-2080]
	ldr	r0, [r3, #28]
	ldr	r3, [fp, #-2080]
	ldr	r1, [r3, #12]
	ldr	r3, [fp, #-2092]
	cmp	r3, #0
	beq	.L13
	.loc 1 90 11 is_stmt 0 discriminator 1
	ldr	r3, [fp, #-2080]
	ldr	r3, [r3, #8]
	cmp	r3, #0
	beq	.L13
	.loc 1 90 11 discriminator 3
	mov	r3, #1
	b	.L14
.L13:
	.loc 1 90 11 discriminator 4
	mov	r3, #0
.L14:
	.loc 1 90 11 discriminator 6
	mov	r2, r3
	ldr	r3, [fp, #4]
	add	r3, r3, #1
	str	r3, [sp]
	mov	r3, r2
	ldr	r2, [fp, #-2088]
	bl	PrintCfgFile_Sub(PLT)
	str	r0, [fp, #-2076]
	ldr	r3, [fp, #-2076]
	cmp	r3, #0
	beq	.L15
	.loc 1 90 11 discriminator 7
	ldr	r3, .L32+72
.LPIC16:
	add	r3, pc, r3
	str	r3, [sp, #8]
	ldr	r3, .L32+76
.LPIC17:
	add	r3, pc, r3
	str	r3, [sp, #4]
	ldr	r3, [fp, #-2076]
	str	r3, [sp]
	mov	r3, #90
	ldr	r2, .L32+80
.LPIC18:
	add	r2, pc, r2
	ldr	r1, .L32+84
.LPIC19:
	add	r1, pc, r1
	mov	r0, #69
	bl	siFormattedMessage_SC(PLT)
	b	.L3
.L15:
	.loc 1 91 11 is_stmt 1
	ldr	r3, [fp, #-2080]
	ldr	r3, [r3, #4]
	sub	r0, fp, #2048
	sub	r0, r0, #12
	sub	r0, r0, #4
	ldr	r2, .L32+88
.LPIC20:
	add	r2, pc, r2
	mov	r1, #2048
	bl	EApiSprintfA(PLT)
	.loc 1 92 11
	ldr	r3, [fp, #-2092]
	cmp	r3, #0
	beq	.L16
	.loc 1 92 11 is_stmt 0 discriminator 1
	ldr	r3, [fp, #-2080]
	ldr	r3, [r3, #8]
	cmp	r3, #0
	beq	.L16
	.loc 1 92 11 discriminator 3
	ldr	r3, .L32+92
.LPIC21:
	add	r3, pc, r3
	mov	r2, r3
	b	.L17
.L16:
	.loc 1 92 11 discriminator 4
	ldr	r3, .L32+96
.LPIC22:
	add	r3, pc, r3
	mov	r2, r3
.L17:
	.loc 1 92 11 discriminator 6
	sub	r1, fp, #2048
	sub	r1, r1, #12
	sub	r1, r1, #4
	ldr	r3, .L32+100
.LPIC23:
	add	r3, pc, r3
	str	r3, [sp, #4]
	ldr	r3, [fp, #-2068]
	str	r3, [sp]
	mov	r3, r2
	mov	r2, #60
	ldr	r0, [fp, #-2088]
	bl	PrintStringBlockA(PLT)
	str	r0, [fp, #-2076]
	ldr	r3, [fp, #-2076]
	cmp	r3, #0
	beq	.L31
	.loc 1 92 11 discriminator 7
	ldr	r3, .L32+104
.LPIC24:
	add	r3, pc, r3
	str	r3, [sp, #8]
	ldr	r3, .L32+108
.LPIC25:
	add	r3, pc, r3
	str	r3, [sp, #4]
	ldr	r3, [fp, #-2076]
	str	r3, [sp]
	mov	r3, #92
	ldr	r2, .L32+112
.LPIC26:
	add	r2, pc, r2
	ldr	r1, .L32+116
.LPIC27:
	add	r1, pc, r1
	mov	r0, #69
	bl	siFormattedMessage_SC(PLT)
	b	.L3
.L7:
	.loc 1 96 9 is_stmt 1
	ldr	r3, [fp, #-2080]
	ldr	r3, [r3, #4]
	sub	r0, fp, #2048
	sub	r0, r0, #12
	sub	r0, r0, #4
	ldr	r2, .L32+120
.LPIC28:
	add	r2, pc, r2
	mov	r1, #2048
	bl	EApiSprintfA(PLT)
	.loc 1 97 9
	sub	r1, fp, #2048
	sub	r1, r1, #12
	sub	r1, r1, #4
	ldr	r3, .L32+124
.LPIC29:
	add	r3, pc, r3
	str	r3, [sp, #4]
	ldr	r3, [fp, #-2068]
	str	r3, [sp]
	ldr	r3, .L32+128
.LPIC30:
	add	r3, pc, r3
	mov	r2, #60
	ldr	r0, [fp, #-2088]
	bl	PrintStringBlockA(PLT)
	str	r0, [fp, #-2076]
	ldr	r3, [fp, #-2076]
	cmp	r3, #0
	beq	.L19
	.loc 1 97 9 is_stmt 0 discriminator 1
	ldr	r3, .L32+132
.LPIC31:
	add	r3, pc, r3
	str	r3, [sp, #8]
	ldr	r3, .L32+136
.LPIC32:
	add	r3, pc, r3
	str	r3, [sp, #4]
	ldr	r3, [fp, #-2076]
	str	r3, [sp]
	mov	r3, #97
	ldr	r2, .L32+140
.LPIC33:
	add	r2, pc, r2
	ldr	r1, .L32+144
.LPIC34:
	add	r1, pc, r1
	mov	r0, #69
	bl	siFormattedMessage_SC(PLT)
	b	.L3
.L19:
	.loc 1 100 32 is_stmt 1
	ldr	r3, [fp, #-2080]
	ldr	r3, [r3, #8]
	.loc 1 98 9
	cmp	r3, #0
	beq	.L20
	.loc 1 98 9 is_stmt 0 discriminator 1
	ldr	r3, .L32+148
.LPIC35:
	add	r3, pc, r3
	b	.L21
.L20:
	.loc 1 98 9 discriminator 2
	ldr	r3, .L32+152
.LPIC36:
	add	r3, pc, r3
.L21:
	.loc 1 98 9 discriminator 4
	str	r3, [sp]
	ldr	r3, .L32+156
.LPIC37:
	add	r3, pc, r3
	ldr	r2, [fp, #-2068]
	ldr	r1, .L32+160
.LPIC38:
	add	r1, pc, r1
	ldr	r0, [fp, #-2088]
	bl	fprintf(PLT)
	.loc 1 104 56 is_stmt 1 discriminator 4
	ldr	r3, [fp, #-2080]
	ldr	r3, [r3, #16]
	.loc 1 102 9 discriminator 4
	str	r3, [sp]
	ldr	r3, .L32+164
.LPIC39:
	add	r3, pc, r3
	ldr	r2, [fp, #-2068]
	ldr	r1, .L32+168
.LPIC40:
	add	r1, pc, r1
	ldr	r0, [fp, #-2088]
	bl	fprintf(PLT)
	.loc 1 106 9 discriminator 4
	ldr	r3, [fp, #-2080]
	ldr	r3, [r3, #48]
	ldr	r4, [r3, #8]
	ldr	r0, [fp, #-2080]
	sub	r3, fp, #2048
	sub	r3, r3, #12
	sub	r3, r3, #4
	mov	r2, #2048
	mov	r1, r3
	blx	r4
.LVL0:
	str	r0, [fp, #-2076]
	ldr	r3, [fp, #-2076]
	cmp	r3, #0
	beq	.L22
	.loc 1 106 9 is_stmt 0 discriminator 1
	ldr	r3, .L32+172
.LPIC41:
	add	r3, pc, r3
	str	r3, [sp, #8]
	ldr	r3, .L32+176
.LPIC42:
	add	r3, pc, r3
	str	r3, [sp, #4]
	ldr	r3, [fp, #-2076]
	str	r3, [sp]
	mov	r3, #106
	ldr	r2, .L32+180
.LPIC43:
	add	r2, pc, r2
	ldr	r1, .L32+184
.LPIC44:
	add	r1, pc, r1
	mov	r0, #69
	bl	siFormattedMessage_SC(PLT)
	b	.L3
.L22:
	.loc 1 111 9 is_stmt 1
	ldr	r3, [fp, #-2068]
	add	r3, r3, #2
	sub	r1, fp, #2048
	sub	r1, r1, #12
	sub	r1, r1, #4
	ldr	r2, .L32+188
.LPIC45:
	add	r2, pc, r2
	str	r2, [sp, #4]
	str	r3, [sp]
	ldr	r3, .L32+192
.LPIC46:
	add	r3, pc, r3
	mov	r2, #60
	ldr	r0, [fp, #-2088]
	bl	PrintStringBlockA(PLT)
	str	r0, [fp, #-2076]
	ldr	r3, [fp, #-2076]
	cmp	r3, #0
	beq	.L23
	.loc 1 111 9 is_stmt 0 discriminator 1
	ldr	r3, .L32+196
.LPIC47:
	add	r3, pc, r3
	str	r3, [sp, #8]
	ldr	r3, .L32+200
.LPIC48:
	add	r3, pc, r3
	str	r3, [sp, #4]
	ldr	r3, [fp, #-2076]
	str	r3, [sp]
	mov	r3, #111
	ldr	r2, .L32+204
.LPIC49:
	add	r2, pc, r2
	ldr	r1, .L32+208
.LPIC50:
	add	r1, pc, r1
	mov	r0, #69
	bl	siFormattedMessage_SC(PLT)
	b	.L3
.L23:
	.loc 1 115 11 is_stmt 1
	mov	r3, #0
	str	r3, [fp, #-2072]
.L27:
	.loc 1 118 48
	ldr	r3, [fp, #-2080]
	ldr	r2, [r3, #8]
	.loc 1 118 29
	ldr	r3, [fp, #-2092]
	and	r3, r3, r2
	.loc 1 117 11
	cmp	r3, #0
	beq	.L24
	.loc 1 117 11 is_stmt 0 discriminator 1
	ldr	r3, .L32+212
.LPIC51:
	add	r3, pc, r3
	mov	r2, r3
	b	.L25
.L24:
	.loc 1 117 11 discriminator 2
	ldr	r3, .L32+216
.LPIC52:
	add	r3, pc, r3
	mov	r2, r3
.L25:
	.loc 1 117 11 discriminator 4
	ldr	r3, [fp, #-2080]
	ldr	r3, [r3, #4]
	str	r3, [sp]
	mov	r3, r2
	ldr	r2, [fp, #-2068]
	ldr	r1, .L32+220
.LPIC53:
	add	r1, pc, r1
	ldr	r0, [fp, #-2088]
	bl	fprintf(PLT)
	.loc 1 121 11 is_stmt 1 discriminator 4
	ldr	r3, [fp, #-2080]
	ldr	r3, [r3, #48]
	ldr	r3, [r3, #12]
	ldr	r0, [fp, #-2080]
	ldr	r2, [fp, #-2072]
	ldr	r1, [fp, #-2088]
	blx	r3
.LVL1:
	str	r0, [fp, #-2076]
	ldr	r3, [fp, #-2076]
	cmp	r3, #0
	beq	.L26
	.loc 1 121 11 is_stmt 0 discriminator 1
	ldr	r3, .L32+224
.LPIC54:
	add	r3, pc, r3
	str	r3, [sp, #8]
	ldr	r3, .L32+228
.LPIC55:
	add	r3, pc, r3
	str	r3, [sp, #4]
	ldr	r3, [fp, #-2076]
	str	r3, [sp]
	mov	r3, #121
	ldr	r2, .L32+232
.LPIC56:
	add	r2, pc, r2
	ldr	r1, .L32+236
.LPIC57:
	add	r1, pc, r1
	mov	r0, #69
	bl	siFormattedMessage_SC(PLT)
	b	.L3
.L26:
	.loc 1 126 11 is_stmt 1
	ldr	r1, [fp, #-2088]
	mov	r0, #10
	bl	fputc(PLT)
	.loc 1 127 20
	ldr	r3, [fp, #-2072]
	add	r3, r3, #1
	str	r3, [fp, #-2072]
	.loc 1 127 39
	ldr	r3, [fp, #-2080]
	ldr	r3, [r3, #8]
	.loc 1 127 20
	ldr	r2, [fp, #-2072]
	cmp	r2, r3
	bcc	.L27
	.loc 1 128 9
	ldr	r1, [fp, #-2088]
	mov	r0, #10
	bl	fputc(PLT)
	.loc 1 129 9
	b	.L18
.L31:
	.loc 1 94 9
	nop
.L18:
	.loc 1 133 14
	ldr	r3, [fp, #-2080]
	add	r3, r3, #56
	str	r3, [fp, #-2080]
.L5:
	.loc 1 84 27
	ldr	r3, [fp, #-2084]
	sub	r2, r3, #1
	str	r2, [fp, #-2084]
	.loc 1 84 9
	cmp	r3, #0
	bne	.L28
	.loc 1 135 1
	nop
.L3:
	.loc 1 136 10
	ldr	r3, [fp, #-2076]
	.loc 1 68 1
	ldr	r1, .L32+240
.LPIC59:
	add	r1, pc, r1
	.loc 1 137 1
	ldr	r2, .L32+4
	ldr	r2, [r1, r2]
	ldr	r1, [r2]
	ldr	r2, [fp, #-16]
	eors	r1, r2, r1
	mov	r2, #0
	beq	.L30
	bl	__stack_chk_fail(PLT)
.L30:
	mov	r0, r3
	sub	sp, fp, #8
	.cfi_def_cfa 13, 12
	@ sp needed
	pop	{r4, fp, pc}
.L33:
	.align	2
.L32:
	.word	_GLOBAL_OFFSET_TABLE_-(.LPIC58+8)
	.word	__stack_chk_guard(GOT)
	.word	.LC3-(.LPIC0+8)
	.word	.LC4-(.LPIC1+8)
	.word	.LC1-(.LPIC2+8)
	.word	.LC2-(.LPIC3+8)
	.word	.LC5-(.LPIC4+8)
	.word	.LC4-(.LPIC5+8)
	.word	.LC1-(.LPIC6+8)
	.word	.LC2-(.LPIC7+8)
	.word	BlockOpen-(.LPIC8+8)
	.word	.LC6-(.LPIC9+8)
	.word	.LC7-(.LPIC10+8)
	.word	.LC8-(.LPIC11+8)
	.word	.LC10-(.LPIC12+8)
	.word	.LC4-(.LPIC13+8)
	.word	.LC9-(.LPIC14+8)
	.word	.LC2-(.LPIC15+8)
	.word	.LC11-(.LPIC16+8)
	.word	.LC4-(.LPIC17+8)
	.word	.LC9-(.LPIC18+8)
	.word	.LC2-(.LPIC19+8)
	.word	BlockClose-(.LPIC20+8)
	.word	.LC6-(.LPIC21+8)
	.word	.LC7-(.LPIC22+8)
	.word	.LC8-(.LPIC23+8)
	.word	.LC10-(.LPIC24+8)
	.word	.LC4-(.LPIC25+8)
	.word	.LC9-(.LPIC26+8)
	.word	.LC2-(.LPIC27+8)
	.word	ElementHeader-(.LPIC28+8)
	.word	.LC8-(.LPIC29+8)
	.word	szComment-(.LPIC30+8)
	.word	.LC12-(.LPIC31+8)
	.word	.LC4-(.LPIC32+8)
	.word	.LC9-(.LPIC33+8)
	.word	.LC2-(.LPIC34+8)
	.word	.LC13-(.LPIC35+8)
	.word	.LC14-(.LPIC36+8)
	.word	szComment-(.LPIC37+8)
	.word	.LC15-(.LPIC38+8)
	.word	szComment-(.LPIC39+8)
	.word	.LC16-(.LPIC40+8)
	.word	.LC17-(.LPIC41+8)
	.word	.LC4-(.LPIC42+8)
	.word	.LC9-(.LPIC43+8)
	.word	.LC2-(.LPIC44+8)
	.word	.LC8-(.LPIC45+8)
	.word	szComment2-(.LPIC46+8)
	.word	.LC18-(.LPIC47+8)
	.word	.LC4-(.LPIC48+8)
	.word	.LC9-(.LPIC49+8)
	.word	.LC2-(.LPIC50+8)
	.word	.LC6-(.LPIC51+8)
	.word	.LC7-(.LPIC52+8)
	.word	.LC19-(.LPIC53+8)
	.word	.LC20-(.LPIC54+8)
	.word	.LC4-(.LPIC55+8)
	.word	.LC9-(.LPIC56+8)
	.word	.LC2-(.LPIC57+8)
	.word	_GLOBAL_OFFSET_TABLE_-(.LPIC59+8)
	.cfi_endproc
.LFE1:
	.size	PrintCfgFile_Sub, .-PrintCfgFile_Sub
	.section	.rodata
	.align	2
.LC21:
	.ascii	"PrintCfgFile\000"
	.align	2
.LC22:
	.ascii	"PrintCfgFile_Sub((CfgNodeGen_t*)pCfgBDesc, stCfgBDe"
	.ascii	"scElements, OutStream, 1, 0)\000"
	.text
	.align	2
	.global	PrintCfgFile
	.syntax unified
	.arm
	.fpu vfpv3
	.type	PrintCfgFile, %function
PrintCfgFile:
.LFB2:
	.loc 1 144 1
	.cfi_startproc
	@ args = 0, pretend = 0, frame = 24
	@ frame_needed = 1, uses_anonymous_args = 0
	push	{fp, lr}
	.cfi_def_cfa_offset 8
	.cfi_offset 11, -8
	.cfi_offset 14, -4
	add	fp, sp, #4
	.cfi_def_cfa 11, 4
	sub	sp, sp, #40
	str	r0, [fp, #-16]
	str	r1, [fp, #-20]
	str	r2, [fp, #-24]
	.loc 1 145 16
	mov	r3, #0
	str	r3, [fp, #-8]
	.loc 1 146 3
	ldr	r3, [fp, #-16]
	cmp	r3, #0
	bne	.L35
	.loc 1 146 3 is_stmt 0 discriminator 1
	ldr	r3, .L40
.LPIC60:
	add	r3, pc, r3
	str	r3, [sp, #8]
	ldr	r3, .L40+4
.LPIC61:
	add	r3, pc, r3
	str	r3, [sp, #4]
	mvn	r3, #256
	str	r3, [sp]
	mov	r3, #146
	ldr	r2, .L40+8
.LPIC62:
	add	r2, pc, r2
	ldr	r1, .L40+12
.LPIC63:
	add	r1, pc, r1
	mov	r0, #69
	bl	siFormattedMessage_SC(PLT)
	mvn	r3, #256
	str	r3, [fp, #-8]
	b	.L36
.L35:
	.loc 1 151 3 is_stmt 1
	ldr	r3, [fp, #-20]
	cmp	r3, #0
	bne	.L37
	.loc 1 151 3 is_stmt 0 discriminator 1
	ldr	r3, .L40+16
.LPIC64:
	add	r3, pc, r3
	str	r3, [sp, #8]
	ldr	r3, .L40+20
.LPIC65:
	add	r3, pc, r3
	str	r3, [sp, #4]
	mvn	r3, #256
	str	r3, [sp]
	mov	r3, #151
	ldr	r2, .L40+24
.LPIC66:
	add	r2, pc, r2
	ldr	r1, .L40+28
.LPIC67:
	add	r1, pc, r1
	mov	r0, #69
	bl	siFormattedMessage_SC(PLT)
	mvn	r3, #256
	str	r3, [fp, #-8]
	b	.L36
.L37:
	.loc 1 156 3 is_stmt 1
	mov	r3, #0
	str	r3, [sp]
	mov	r3, #1
	ldr	r2, [fp, #-24]
	ldr	r1, [fp, #-20]
	ldr	r0, [fp, #-16]
	bl	PrintCfgFile_Sub(PLT)
	str	r0, [fp, #-8]
	ldr	r3, [fp, #-8]
	cmp	r3, #0
	beq	.L39
	.loc 1 156 3 is_stmt 0 discriminator 1
	ldr	r3, .L40+32
.LPIC68:
	add	r3, pc, r3
	str	r3, [sp, #8]
	ldr	r3, .L40+36
.LPIC69:
	add	r3, pc, r3
	str	r3, [sp, #4]
	ldr	r3, [fp, #-8]
	str	r3, [sp]
	mov	r3, #156
	ldr	r2, .L40+40
.LPIC70:
	add	r2, pc, r2
	ldr	r1, .L40+44
.LPIC71:
	add	r1, pc, r1
	mov	r0, #69
	bl	siFormattedMessage_SC(PLT)
	b	.L36
.L39:
	.loc 1 157 1 is_stmt 1
	nop
.L36:
	.loc 1 158 10
	ldr	r3, [fp, #-8]
	.loc 1 159 1
	mov	r0, r3
	sub	sp, fp, #4
	.cfi_def_cfa 13, 8
	@ sp needed
	pop	{fp, pc}
.L41:
	.align	2
.L40:
	.word	.LC3-(.LPIC60+8)
	.word	.LC4-(.LPIC61+8)
	.word	.LC21-(.LPIC62+8)
	.word	.LC2-(.LPIC63+8)
	.word	.LC5-(.LPIC64+8)
	.word	.LC4-(.LPIC65+8)
	.word	.LC21-(.LPIC66+8)
	.word	.LC2-(.LPIC67+8)
	.word	.LC22-(.LPIC68+8)
	.word	.LC4-(.LPIC69+8)
	.word	.LC9-(.LPIC70+8)
	.word	.LC2-(.LPIC71+8)
	.cfi_endproc
.LFE2:
	.size	PrintCfgFile, .-PrintCfgFile
	.section	.rodata
	.align	2
.LC23:
	.ascii	"CleanStruct_sub\000"
	.align	2
.LC24:
	.ascii	"CleanStruct_sub(pCfgBDesc->Block.Elements.pIndx, pC"
	.ascii	"fgBDesc->Block.Elements.stUsedCnt, stDepth + 1)\000"
	.align	2
.LC25:
	.ascii	"pCfgBDesc->Element.pHandlers->Clean( (CfgElementDes"
	.ascii	"c_t*)pCfgBDesc, EAPI_CREATE_PTR( pCfgBDesc->Element"
	.ascii	".Instances.pIndx, pCfgBDesc->Element.Instances.stEl"
	.ascii	"ementSize*(pCfgBDesc->Element.Instances.stUsedCnt),"
	.ascii	" void* ) )\000"
	.text
	.align	2
	.global	CleanStruct_sub
	.syntax unified
	.arm
	.fpu vfpv3
	.type	CleanStruct_sub, %function
CleanStruct_sub:
.LFB3:
	.loc 1 167 1
	.cfi_startproc
	@ args = 0, pretend = 0, frame = 24
	@ frame_needed = 1, uses_anonymous_args = 0
	push	{fp, lr}
	.cfi_def_cfa_offset 8
	.cfi_offset 11, -8
	.cfi_offset 14, -4
	add	fp, sp, #4
	.cfi_def_cfa 11, 4
	sub	sp, sp, #40
	str	r0, [fp, #-16]
	str	r1, [fp, #-20]
	str	r2, [fp, #-24]
	.loc 1 168 16
	mov	r3, #0
	str	r3, [fp, #-8]
	.loc 1 169 3
	ldr	r3, [fp, #-16]
	cmp	r3, #0
	bne	.L43
	.loc 1 169 3 is_stmt 0 discriminator 1
	ldr	r3, .L56
.LPIC72:
	add	r3, pc, r3
	str	r3, [sp, #8]
	ldr	r3, .L56+4
.LPIC73:
	add	r3, pc, r3
	str	r3, [sp, #4]
	mvn	r3, #256
	str	r3, [sp]
	mov	r3, #169
	ldr	r2, .L56+8
.LPIC74:
	add	r2, pc, r2
	ldr	r1, .L56+12
.LPIC75:
	add	r1, pc, r1
	mov	r0, #69
	bl	siFormattedMessage_SC(PLT)
	mvn	r3, #256
	str	r3, [fp, #-8]
	b	.L44
.L43:
	.loc 1 174 3 is_stmt 1
	ldr	r3, [fp, #-20]
	cmp	r3, #0
	bne	.L46
	.loc 1 174 3 is_stmt 0 discriminator 1
	ldr	r3, .L56+16
.LPIC76:
	add	r3, pc, r3
	str	r3, [sp, #8]
	ldr	r3, .L56+20
.LPIC77:
	add	r3, pc, r3
	str	r3, [sp, #4]
	mvn	r3, #256
	str	r3, [sp]
	mov	r3, #174
	ldr	r2, .L56+24
.LPIC78:
	add	r2, pc, r2
	ldr	r1, .L56+28
.LPIC79:
	add	r1, pc, r1
	mov	r0, #69
	bl	siFormattedMessage_SC(PLT)
	mvn	r3, #256
	str	r3, [fp, #-8]
	b	.L44
.L54:
	.loc 1 180 26 is_stmt 1
	ldr	r3, [fp, #-16]
	ldr	r3, [r3]
	.loc 1 180 5
	cmp	r3, #1
	beq	.L47
	cmp	r3, #2
	beq	.L52
	.loc 1 200 9
	b	.L51
.L47:
	.loc 1 182 37
	ldr	r3, [fp, #-16]
	ldr	r3, [r3, #12]
	.loc 1 182 11
	cmp	r3, #0
	beq	.L50
	.loc 1 183 11
	ldr	r3, [fp, #-16]
	ldr	r0, [r3, #28]
	ldr	r3, [fp, #-16]
	ldr	r1, [r3, #12]
	ldr	r3, [fp, #-24]
	add	r3, r3, #1
	mov	r2, r3
	bl	CleanStruct_sub(PLT)
	str	r0, [fp, #-8]
	ldr	r3, [fp, #-8]
	cmp	r3, #0
	beq	.L50
	.loc 1 183 11 is_stmt 0 discriminator 1
	ldr	r3, .L56+32
.LPIC80:
	add	r3, pc, r3
	str	r3, [sp, #8]
	ldr	r3, .L56+36
.LPIC81:
	add	r3, pc, r3
	str	r3, [sp, #4]
	ldr	r3, [fp, #-8]
	str	r3, [sp]
	mov	r3, #183
	ldr	r2, .L56+40
.LPIC82:
	add	r2, pc, r2
	ldr	r1, .L56+44
.LPIC83:
	add	r1, pc, r1
	mov	r0, #69
	bl	siFormattedMessage_SC(PLT)
	b	.L44
.L50:
	.loc 1 185 33 is_stmt 1
	ldr	r3, [fp, #-16]
	mov	r2, #0
	str	r2, [r3, #40]
	.loc 1 186 9
	b	.L51
.L53:
	.loc 1 189 11
	ldr	r3, [fp, #-16]
	ldr	r3, [r3, #48]
	ldr	r3, [r3, #4]
	ldr	r2, [fp, #-16]
	ldr	r1, [r2, #28]
	ldr	r2, [fp, #-16]
	ldr	r2, [r2, #20]
	ldr	r0, [fp, #-16]
	ldr	r0, [r0, #12]
	mul	r2, r0, r2
	add	r2, r1, r2
	mov	r1, r2
	ldr	r0, [fp, #-16]
	blx	r3
.LVL2:
	str	r0, [fp, #-8]
	ldr	r3, [fp, #-8]
	cmp	r3, #0
	beq	.L52
	.loc 1 189 11 is_stmt 0 discriminator 1
	ldr	r3, .L56+48
.LPIC84:
	add	r3, pc, r3
	str	r3, [sp, #8]
	ldr	r3, .L56+52
.LPIC85:
	add	r3, pc, r3
	str	r3, [sp, #4]
	ldr	r3, [fp, #-8]
	str	r3, [sp]
	mov	r3, #189
	ldr	r2, .L56+56
.LPIC86:
	add	r2, pc, r2
	ldr	r1, .L56+60
.LPIC87:
	add	r1, pc, r1
	mov	r0, #69
	bl	siFormattedMessage_SC(PLT)
	b	.L44
.L52:
	.loc 1 188 43 is_stmt 1
	ldr	r3, [fp, #-16]
	ldr	r3, [r3, #12]
	.loc 1 188 54
	sub	r1, r3, #1
	ldr	r2, [fp, #-16]
	str	r1, [r2, #12]
	.loc 1 188 15
	cmp	r3, #0
	bne	.L53
	.loc 1 198 9
	nop
.L51:
	.loc 1 202 14
	ldr	r3, [fp, #-16]
	add	r3, r3, #56
	str	r3, [fp, #-16]
.L46:
	.loc 1 179 28
	ldr	r3, [fp, #-20]
	sub	r2, r3, #1
	str	r2, [fp, #-20]
	.loc 1 179 9
	cmp	r3, #0
	bne	.L54
	.loc 1 204 1
	nop
.L44:
	.loc 1 205 10
	ldr	r3, [fp, #-8]
	.loc 1 206 1
	mov	r0, r3
	sub	sp, fp, #4
	.cfi_def_cfa 13, 8
	@ sp needed
	pop	{fp, pc}
.L57:
	.align	2
.L56:
	.word	.LC3-(.LPIC72+8)
	.word	.LC4-(.LPIC73+8)
	.word	.LC23-(.LPIC74+8)
	.word	.LC2-(.LPIC75+8)
	.word	.LC5-(.LPIC76+8)
	.word	.LC4-(.LPIC77+8)
	.word	.LC23-(.LPIC78+8)
	.word	.LC2-(.LPIC79+8)
	.word	.LC24-(.LPIC80+8)
	.word	.LC4-(.LPIC81+8)
	.word	.LC9-(.LPIC82+8)
	.word	.LC2-(.LPIC83+8)
	.word	.LC25-(.LPIC84+8)
	.word	.LC4-(.LPIC85+8)
	.word	.LC9-(.LPIC86+8)
	.word	.LC2-(.LPIC87+8)
	.cfi_endproc
.LFE3:
	.size	CleanStruct_sub, .-CleanStruct_sub
	.section	.rodata
	.align	2
.LC26:
	.ascii	"CleanStruct\000"
	.align	2
.LC27:
	.ascii	"CleanStruct_sub((CfgNodeGen_t*)pCfgBDesc, stCfgBDes"
	.ascii	"cElements, 0)\000"
	.text
	.align	2
	.global	CleanStruct
	.syntax unified
	.arm
	.fpu vfpv3
	.type	CleanStruct, %function
CleanStruct:
.LFB4:
	.loc 1 212 1
	.cfi_startproc
	@ args = 0, pretend = 0, frame = 16
	@ frame_needed = 1, uses_anonymous_args = 0
	push	{fp, lr}
	.cfi_def_cfa_offset 8
	.cfi_offset 11, -8
	.cfi_offset 14, -4
	add	fp, sp, #4
	.cfi_def_cfa 11, 4
	sub	sp, sp, #32
	str	r0, [fp, #-16]
	str	r1, [fp, #-20]
	.loc 1 213 16
	mov	r3, #0
	str	r3, [fp, #-8]
	.loc 1 214 3
	ldr	r3, [fp, #-16]
	cmp	r3, #0
	bne	.L59
	.loc 1 214 3 is_stmt 0 discriminator 1
	ldr	r3, .L64
.LPIC88:
	add	r3, pc, r3
	str	r3, [sp, #8]
	ldr	r3, .L64+4
.LPIC89:
	add	r3, pc, r3
	str	r3, [sp, #4]
	mvn	r3, #256
	str	r3, [sp]
	mov	r3, #214
	ldr	r2, .L64+8
.LPIC90:
	add	r2, pc, r2
	ldr	r1, .L64+12
.LPIC91:
	add	r1, pc, r1
	mov	r0, #69
	bl	siFormattedMessage_SC(PLT)
	mvn	r3, #256
	str	r3, [fp, #-8]
	b	.L60
.L59:
	.loc 1 219 3 is_stmt 1
	ldr	r3, [fp, #-20]
	cmp	r3, #0
	bne	.L61
	.loc 1 219 3 is_stmt 0 discriminator 1
	ldr	r3, .L64+16
.LPIC92:
	add	r3, pc, r3
	str	r3, [sp, #8]
	ldr	r3, .L64+20
.LPIC93:
	add	r3, pc, r3
	str	r3, [sp, #4]
	mvn	r3, #256
	str	r3, [sp]
	mov	r3, #219
	ldr	r2, .L64+24
.LPIC94:
	add	r2, pc, r2
	ldr	r1, .L64+28
.LPIC95:
	add	r1, pc, r1
	mov	r0, #69
	bl	siFormattedMessage_SC(PLT)
	mvn	r3, #256
	str	r3, [fp, #-8]
	b	.L60
.L61:
	.loc 1 224 3 is_stmt 1
	mov	r2, #0
	ldr	r1, [fp, #-20]
	ldr	r0, [fp, #-16]
	bl	CleanStruct_sub(PLT)
	str	r0, [fp, #-8]
	ldr	r3, [fp, #-8]
	cmp	r3, #0
	beq	.L63
	.loc 1 224 3 is_stmt 0 discriminator 1
	ldr	r3, .L64+32
.LPIC96:
	add	r3, pc, r3
	str	r3, [sp, #8]
	ldr	r3, .L64+36
.LPIC97:
	add	r3, pc, r3
	str	r3, [sp, #4]
	ldr	r3, [fp, #-8]
	str	r3, [sp]
	mov	r3, #224
	ldr	r2, .L64+40
.LPIC98:
	add	r2, pc, r2
	ldr	r1, .L64+44
.LPIC99:
	add	r1, pc, r1
	mov	r0, #69
	bl	siFormattedMessage_SC(PLT)
	b	.L60
.L63:
	.loc 1 225 1 is_stmt 1
	nop
.L60:
	.loc 1 226 10
	ldr	r3, [fp, #-8]
	.loc 1 227 1
	mov	r0, r3
	sub	sp, fp, #4
	.cfi_def_cfa 13, 8
	@ sp needed
	pop	{fp, pc}
.L65:
	.align	2
.L64:
	.word	.LC3-(.LPIC88+8)
	.word	.LC4-(.LPIC89+8)
	.word	.LC26-(.LPIC90+8)
	.word	.LC2-(.LPIC91+8)
	.word	.LC5-(.LPIC92+8)
	.word	.LC4-(.LPIC93+8)
	.word	.LC26-(.LPIC94+8)
	.word	.LC2-(.LPIC95+8)
	.word	.LC27-(.LPIC96+8)
	.word	.LC4-(.LPIC97+8)
	.word	.LC9-(.LPIC98+8)
	.word	.LC2-(.LPIC99+8)
	.cfi_endproc
.LFE4:
	.size	CleanStruct, .-CleanStruct
	.section	.rodata
	.align	2
.LC28:
	.ascii	"GetElementDesc\000"
	.align	2
.LC29:
	.ascii	"(pDesc==NULL)\000"
	.align	2
.LC30:
	.ascii	"(ppNodeDesc==NULL)\000"
	.align	2
.LC31:
	.ascii	"(cszElementName==NULL)\000"
	.text
	.align	2
	.global	GetElementDesc
	.syntax unified
	.arm
	.fpu vfpv3
	.type	GetElementDesc, %function
GetElementDesc:
.LFB5:
	.loc 1 235 1
	.cfi_startproc
	@ args = 0, pretend = 0, frame = 32
	@ frame_needed = 1, uses_anonymous_args = 0
	push	{fp, lr}
	.cfi_def_cfa_offset 8
	.cfi_offset 11, -8
	.cfi_offset 14, -4
	add	fp, sp, #4
	.cfi_def_cfa 11, 4
	sub	sp, sp, #48
	str	r0, [fp, #-24]
	str	r1, [fp, #-28]
	str	r2, [fp, #-32]
	str	r3, [fp, #-36]
	.loc 1 236 16
	mvn	r3, #1024
	str	r3, [fp, #-16]
	.loc 1 240 3
	ldr	r3, [fp, #-24]
	cmp	r3, #0
	bne	.L67
	.loc 1 240 3 is_stmt 0 discriminator 1
	ldr	r3, .L75
.LPIC100:
	add	r3, pc, r3
	str	r3, [sp, #8]
	ldr	r3, .L75+4
.LPIC101:
	add	r3, pc, r3
	str	r3, [sp, #4]
	mvn	r3, #256
	str	r3, [sp]
	mov	r3, #240
	ldr	r2, .L75+8
.LPIC102:
	add	r2, pc, r2
	ldr	r1, .L75+12
.LPIC103:
	add	r1, pc, r1
	mov	r0, #69
	bl	siFormattedMessage_SC(PLT)
	mvn	r3, #256
	str	r3, [fp, #-16]
	b	.L68
.L67:
	.loc 1 245 3 is_stmt 1
	ldr	r3, [fp, #-28]
	cmp	r3, #0
	bne	.L69
	.loc 1 245 3 is_stmt 0 discriminator 1
	ldr	r3, .L75+16
.LPIC104:
	add	r3, pc, r3
	str	r3, [sp, #8]
	ldr	r3, .L75+20
.LPIC105:
	add	r3, pc, r3
	str	r3, [sp, #4]
	mvn	r3, #256
	str	r3, [sp]
	mov	r3, #245
	ldr	r2, .L75+24
.LPIC106:
	add	r2, pc, r2
	ldr	r1, .L75+28
.LPIC107:
	add	r1, pc, r1
	mov	r0, #69
	bl	siFormattedMessage_SC(PLT)
	mvn	r3, #256
	str	r3, [fp, #-16]
	b	.L68
.L69:
	.loc 1 250 3 is_stmt 1
	ldr	r3, [fp, #-32]
	cmp	r3, #0
	bne	.L70
	.loc 1 250 3 is_stmt 0 discriminator 1
	ldr	r3, .L75+32
.LPIC108:
	add	r3, pc, r3
	str	r3, [sp, #8]
	ldr	r3, .L75+36
.LPIC109:
	add	r3, pc, r3
	str	r3, [sp, #4]
	mvn	r3, #256
	str	r3, [sp]
	mov	r3, #250
	ldr	r2, .L75+40
.LPIC110:
	add	r2, pc, r2
	ldr	r1, .L75+44
.LPIC111:
	add	r1, pc, r1
	mov	r0, #69
	bl	siFormattedMessage_SC(PLT)
	mvn	r3, #256
	str	r3, [fp, #-16]
	b	.L68
.L70:
	.loc 1 255 14 is_stmt 1
	ldr	r3, [fp, #-28]
	mov	r2, #0
	str	r2, [r3]
	.loc 1 257 35
	ldr	r3, [fp, #-24]
	ldr	r3, [r3, #12]
	.loc 1 257 8
	str	r3, [fp, #-8]
	.loc 1 258 16
	ldr	r3, [fp, #-24]
	ldr	r3, [r3, #28]
	str	r3, [fp, #-12]
	.loc 1 256 3
	b	.L71
.L73:
	.loc 1 264 26
	ldr	r3, [fp, #-12]
	ldr	r3, [r3]
	.loc 1 264 7
	ldr	r2, [fp, #-36]
	cmp	r2, r3
	bne	.L72
	.loc 1 265 11
	ldr	r3, [fp, #-12]
	ldr	r3, [r3, #4]
	mov	r1, r3
	ldr	r0, [fp, #-32]
	bl	strcmp(PLT)
	mov	r3, r0
	.loc 1 265 9
	cmp	r3, #0
	bne	.L72
	.loc 1 267 20
	ldr	r3, [fp, #-28]
	ldr	r2, [fp, #-12]
	str	r2, [r3]
	.loc 1 268 19
	mov	r3, #0
	str	r3, [fp, #-16]
	.loc 1 269 9
	b	.L68
.L72:
	.loc 1 260 16
	ldr	r3, [fp, #-12]
	add	r3, r3, #56
	str	r3, [fp, #-12]
.L71:
	.loc 1 259 8
	ldr	r3, [fp, #-8]
	sub	r2, r3, #1
	str	r2, [fp, #-8]
	.loc 1 259 7
	cmp	r3, #0
	bne	.L73
	.loc 1 274 1
	nop
.L68:
	.loc 1 275 10
	ldr	r3, [fp, #-16]
	.loc 1 276 1
	mov	r0, r3
	sub	sp, fp, #4
	.cfi_def_cfa 13, 8
	@ sp needed
	pop	{fp, pc}
.L76:
	.align	2
.L75:
	.word	.LC29-(.LPIC100+8)
	.word	.LC4-(.LPIC101+8)
	.word	.LC28-(.LPIC102+8)
	.word	.LC2-(.LPIC103+8)
	.word	.LC30-(.LPIC104+8)
	.word	.LC4-(.LPIC105+8)
	.word	.LC28-(.LPIC106+8)
	.word	.LC2-(.LPIC107+8)
	.word	.LC31-(.LPIC108+8)
	.word	.LC4-(.LPIC109+8)
	.word	.LC28-(.LPIC110+8)
	.word	.LC2-(.LPIC111+8)
	.cfi_endproc
.LFE5:
	.size	GetElementDesc, .-GetElementDesc
	.section	.rodata
	.align	2
.LC32:
	.ascii	"ParseCfgFile_sub\000"
	.align	2
.LC33:
	.ascii	"(pCtxt==NULL)\000"
	.align	2
.LC34:
	.ascii	";#\012\015\000"
	.align	2
.LC35:
	.ascii	"]\000"
	.align	2
.LC36:
	.ascii	"(%04lu)%s\012\000"
	.align	2
.LC37:
	.ascii	"Expected '[/%s]' Got (%lu)'[/%s]'\012\000"
	.align	2
.LC38:
	.ascii	"Missing Required Block '%s' in Block (%lu)'%s'\012\000"
	.align	2
.LC39:
	.ascii	"Missing Required Element '%s' in Block (%lu)'%s'\012"
	.ascii	"\000"
	.align	2
.LC40:
	.ascii	"ParseCfgFile_sub(pCtxt, pCurBlockDesc, stRequired&&"
	.ascii	"pCurBlockDesc->Block.cuiRequired)\000"
	.align	2
.LC41:
	.ascii	"Unknown Block on line %li, '%s'\012\000"
	.align	2
.LC42:
	.ascii	"(%04lu) : %s\012\000"
	.align	2
.LC43:
	.ascii	"Invalid Block\000"
	.align	2
.LC44:
	.ascii	"Invalid Line\000"
	.align	2
.LC45:
	.ascii	"ERROR Too Many Instances of %s at line %li\012\000"
	.align	2
.LC46:
	.ascii	"ERROR Parsing Line %li, %s\012\000"
	.align	2
.LC47:
	.ascii	"Unknown Block Element on line %li, '%s'\012\000"
	.text
	.align	2
	.global	ParseCfgFile_sub
	.syntax unified
	.arm
	.fpu vfpv3
	.type	ParseCfgFile_sub, %function
ParseCfgFile_sub:
.LFB6:
	.loc 1 293 1
	.cfi_startproc
	@ args = 0, pretend = 0, frame = 56
	@ frame_needed = 1, uses_anonymous_args = 0
	push	{fp, lr}
	.cfi_def_cfa_offset 8
	.cfi_offset 11, -8
	.cfi_offset 14, -4
	add	fp, sp, #4
	.cfi_def_cfa 11, 4
	sub	sp, sp, #80
	str	r0, [fp, #-48]
	str	r1, [fp, #-52]
	str	r2, [fp, #-56]
	.loc 1 293 1
	ldr	r2, .L118
.LPIC158:
	add	r2, pc, r2
	ldr	r3, .L118+4
	ldr	r3, [r2, r3]
	ldr	r3, [r3]
	str	r3, [fp, #-8]
	mov	r3, #0
	.loc 1 294 16
	mov	r3, #0
	str	r3, [fp, #-36]
	.loc 1 298 17
	ldr	r3, [fp, #-48]
	ldr	r3, [r3, #8]
	str	r3, [fp, #-28]
	.loc 1 301 3
	ldr	r3, [fp, #-48]
	cmp	r3, #0
	bne	.L78
	.loc 1 301 3 is_stmt 0 discriminator 1
	ldr	r3, .L118+8
.LPIC112:
	add	r3, pc, r3
	str	r3, [sp, #8]
	ldr	r3, .L118+12
.LPIC113:
	add	r3, pc, r3
	str	r3, [sp, #4]
	mvn	r3, #256
	str	r3, [sp]
	movw	r3, #301
	ldr	r2, .L118+16
.LPIC114:
	add	r2, pc, r2
	ldr	r1, .L118+20
.LPIC115:
	add	r1, pc, r1
	mov	r0, #69
	bl	siFormattedMessage_SC(PLT)
	mvn	r3, #256
	str	r3, [fp, #-36]
	b	.L79
.L78:
	.loc 1 306 3 is_stmt 1
	ldr	r3, [fp, #-52]
	cmp	r3, #0
	bne	.L80
	.loc 1 306 3 is_stmt 0 discriminator 1
	ldr	r3, .L118+24
.LPIC116:
	add	r3, pc, r3
	str	r3, [sp, #8]
	ldr	r3, .L118+28
.LPIC117:
	add	r3, pc, r3
	str	r3, [sp, #4]
	mvn	r3, #256
	str	r3, [sp]
	movw	r3, #306
	ldr	r2, .L118+32
.LPIC118:
	add	r2, pc, r2
	ldr	r1, .L118+36
.LPIC119:
	add	r1, pc, r1
	mov	r0, #69
	bl	siFormattedMessage_SC(PLT)
	mvn	r3, #256
	str	r3, [fp, #-36]
	b	.L79
.L80:
	.loc 1 312 11 is_stmt 1
	ldr	r3, [fp, #-48]
	ldr	r3, [r3, #12]
	.loc 1 312 3
	add	r2, r3, #1
	ldr	r3, [fp, #-48]
	str	r2, [r3, #12]
	.loc 1 316 8
	b	.L81
.L112:
	.loc 1 317 23
	ldr	r3, [fp, #-48]
	add	r0, r3, #16
	.loc 1 317 12
	ldr	r3, [fp, #-48]
	ldr	r3, [r3, #4]
	mov	r2, r3
	mov	r1, #2048
	bl	fgets(PLT)
	str	r0, [fp, #-24]
	.loc 1 318 10
	ldr	r3, [fp, #-48]
	ldr	r3, [r3, #8]
	.loc 1 318 21
	add	r2, r3, #1
	ldr	r3, [fp, #-48]
	str	r2, [r3, #8]
	.loc 1 326 25
	ldr	r3, [fp, #-48]
	add	r3, r3, #16
	.loc 1 326 12
	ldr	r2, .L118+40
.LPIC120:
	add	r2, pc, r2
	mov	r1, r2
	mov	r0, r3
	bl	strpbrk(PLT)
	str	r0, [fp, #-24]
	.loc 1 327 7
	ldr	r3, [fp, #-24]
	cmp	r3, #0
	beq	.L82
	.loc 1 327 29 discriminator 1
	ldr	r3, [fp, #-24]
	mov	r2, #0
	strb	r2, [r3]
.L82:
	.loc 1 328 33
	ldr	r3, [fp, #-48]
	add	r3, r3, #16
	.loc 1 328 12
	mov	r0, r3
	bl	skipWhiteSpaces(PLT)
	str	r0, [fp, #-24]
	.loc 1 329 8
	ldr	r3, [fp, #-24]
	ldrb	r3, [r3]	@ zero_extendqisi2
	.loc 1 329 7
	cmp	r3, #0
	bne	.L83
	.loc 1 329 54 discriminator 1
	b	.L81
.L83:
	.loc 1 335 14
	ldr	r3, [fp, #-24]
	ldrb	r3, [r3]	@ zero_extendqisi2
	.loc 1 335 7
	cmp	r3, #91
	bne	.L84
.LBB2:
	.loc 1 336 21
	mov	r3, #0
	str	r3, [fp, #-40]
	.loc 1 337 14
	ldr	r3, [fp, #-24]
	add	r3, r3, #1
	str	r3, [fp, #-24]
	.loc 1 337 25
	ldr	r3, .L118+44
.LPIC121:
	add	r3, pc, r3
	mov	r1, r3
	ldr	r0, [fp, #-24]
	bl	strcspn(PLT)
	str	r0, [fp, #-12]
	.loc 1 338 9
	ldr	r3, [fp, #-12]
	cmp	r3, #0
	bne	.L85
	.loc 1 339 9
	ldr	r3, [fp, #-48]
	ldr	r3, [r3, #8]
	.loc 1 340 49
	ldr	r2, [fp, #-48]
	add	r2, r2, #16
	.loc 1 339 9
	str	r2, [sp, #12]
	str	r3, [sp, #8]
	ldr	r3, .L118+48
.LPIC122:
	add	r3, pc, r3
	str	r3, [sp, #4]
	ldr	r3, [fp, #-36]
	str	r3, [sp]
	movw	r3, #339
	ldr	r2, .L118+52
.LPIC123:
	add	r2, pc, r2
	ldr	r1, .L118+56
.LPIC124:
	add	r1, pc, r1
	mov	r0, #76
	bl	siFormattedMessage_SC(PLT)
.L85:
	.loc 1 346 16
	ldr	r3, [fp, #-24]
	ldrb	r3, [r3]	@ zero_extendqisi2
	.loc 1 346 9
	cmp	r3, #47
	bne	.L86
	.loc 1 347 15
	ldr	r2, [fp, #-24]
	ldr	r3, [fp, #-12]
	add	r3, r2, r3
	.loc 1 347 27
	mov	r2, #0
	strb	r2, [r3]
	.loc 1 348 9
	ldr	r3, [fp, #-24]
	add	r3, r3, #1
	str	r3, [fp, #-24]
	.loc 1 353 12
	ldr	r3, [fp, #-52]
	ldr	r3, [r3, #4]
	mov	r1, r3
	ldr	r0, [fp, #-24]
	bl	strcmp(PLT)
	mov	r3, r0
	.loc 1 353 11
	cmp	r3, #0
	beq	.L87
	.loc 1 355 21
	mvn	r3, #3840
	str	r3, [fp, #-36]
	.loc 1 356 11
	ldr	r3, [fp, #-52]
	ldr	r3, [r3, #4]
	ldr	r2, [fp, #-24]
	str	r2, [sp, #16]
	ldr	r2, [fp, #-28]
	str	r2, [sp, #12]
	str	r3, [sp, #8]
	ldr	r3, .L118+60
.LPIC125:
	add	r3, pc, r3
	str	r3, [sp, #4]
	ldr	r3, [fp, #-36]
	str	r3, [sp]
	mov	r3, #356
	ldr	r2, .L118+64
.LPIC126:
	add	r2, pc, r2
	ldr	r1, .L118+68
.LPIC127:
	add	r1, pc, r1
	mov	r0, #87
	bl	siFormattedMessage_SC(PLT)
	b	.L88
.L87:
	.loc 1 367 20
	ldr	r3, [fp, #-52]
	ldr	r3, [r3, #12]
	str	r3, [fp, #-32]
	.loc 1 368 56
	ldr	r3, [fp, #-52]
	ldr	r3, [r3, #28]
	.loc 1 368 30
	str	r3, [fp, #-44]
	.loc 1 366 13
	b	.L89
.L97:
	.loc 1 373 31
	ldr	r3, [fp, #-44]
	.loc 1 373 47
	ldr	r3, [r3, #16]
	.loc 1 373 19
	cmp	r3, #0
	beq	.L90
	.loc 1 374 37
	ldr	r3, [fp, #-44]
	.loc 1 374 42
	ldr	r3, [r3]
	.loc 1 374 19
	cmp	r3, #1
	beq	.L91
	cmp	r3, #2
	beq	.L92
	.loc 1 402 23
	b	.L90
.L91:
	.loc 1 376 37
	ldr	r3, [fp, #-44]
	.loc 1 376 44
	ldr	r2, [r3, #8]
	.loc 1 376 68
	ldr	r3, [fp, #-44]
	.loc 1 376 75
	ldr	r3, [r3, #40]
	.loc 1 376 25
	cmp	r2, r3
	bls	.L115
	.loc 1 378 35
	mvn	r3, #3840
	str	r3, [fp, #-36]
	.loc 1 381 40
	ldr	r3, [fp, #-44]
	.loc 1 379 25
	ldr	r3, [r3, #4]
	ldr	r2, [fp, #-52]
	ldr	r2, [r2, #4]
	str	r2, [sp, #16]
	ldr	r2, [fp, #-28]
	str	r2, [sp, #12]
	str	r3, [sp, #8]
	ldr	r3, .L118+72
.LPIC128:
	add	r3, pc, r3
	str	r3, [sp, #4]
	ldr	r3, [fp, #-36]
	str	r3, [sp]
	movw	r3, #379
	ldr	r2, .L118+76
.LPIC129:
	add	r2, pc, r2
	ldr	r1, .L118+80
.LPIC130:
	add	r1, pc, r1
	mov	r0, #87
	bl	siFormattedMessage_SC(PLT)
	.loc 1 385 27
	b	.L79
.L92:
	.loc 1 389 37
	ldr	r3, [fp, #-44]
	.loc 1 389 46
	ldr	r2, [r3, #8]
	.loc 1 389 70
	ldr	r3, [fp, #-44]
	.loc 1 389 89
	ldr	r3, [r3, #12]
	.loc 1 389 25
	cmp	r2, r3
	bls	.L116
	.loc 1 391 35
	mvn	r3, #3840
	str	r3, [fp, #-36]
	.loc 1 394 40
	ldr	r3, [fp, #-44]
	.loc 1 392 25
	ldr	r3, [r3, #4]
	ldr	r2, [fp, #-52]
	ldr	r2, [r2, #4]
	str	r2, [sp, #16]
	ldr	r2, [fp, #-28]
	str	r2, [sp, #12]
	str	r3, [sp, #8]
	ldr	r3, .L118+84
.LPIC131:
	add	r3, pc, r3
	str	r3, [sp, #4]
	ldr	r3, [fp, #-36]
	str	r3, [sp]
	mov	r3, #392
	ldr	r2, .L118+88
.LPIC132:
	add	r2, pc, r2
	ldr	r1, .L118+92
.LPIC133:
	add	r1, pc, r1
	mov	r0, #87
	bl	siFormattedMessage_SC(PLT)
	.loc 1 398 27
	b	.L79
.L115:
	.loc 1 387 23
	nop
	b	.L90
.L116:
	.loc 1 400 23
	nop
.L90:
	.loc 1 370 30
	ldr	r3, [fp, #-44]
	add	r3, r3, #56
	str	r3, [fp, #-44]
.L89:
	.loc 1 369 20
	ldr	r3, [fp, #-32]
	sub	r2, r3, #1
	str	r2, [fp, #-32]
	.loc 1 369 19
	cmp	r3, #0
	bne	.L97
.L88:
	.loc 1 408 29
	ldr	r3, [fp, #-48]
	mov	r2, #0
	strb	r2, [r3, #16]
	.loc 1 409 9
	b	.L79
.L86:
	.loc 1 411 15
	ldr	r2, [fp, #-24]
	ldr	r3, [fp, #-12]
	add	r3, r2, r3
	.loc 1 411 27
	mov	r2, #0
	strb	r2, [r3]
	.loc 1 412 20
	sub	r1, fp, #40
	mov	r3, #1
	ldr	r2, [fp, #-24]
	ldr	r0, [fp, #-52]
	bl	GetElementDesc(PLT)
	str	r0, [fp, #-36]
	.loc 1 413 15
	ldr	r2, [fp, #-24]
	ldr	r3, [fp, #-12]
	add	r3, r2, r3
	.loc 1 413 27
	mov	r2, #93
	strb	r2, [r3]
	.loc 1 414 9
	ldr	r3, [fp, #-36]
	cmp	r3, #0
	beq	.L98
	ldr	r3, [fp, #-36]
	mvn	r2, #1024
	cmp	r3, r2
	beq	.L99
	.loc 1 426 13
	b	.L79
.L98:
	.loc 1 416 26
	ldr	r3, [fp, #-40]
	.loc 1 416 41
	mvn	r2, #0
	str	r2, [r3, #40]
	.loc 1 417 13
	ldr	r1, [fp, #-40]
	ldr	r3, [fp, #-56]
	cmp	r3, #0
	beq	.L101
	.loc 1 417 13 is_stmt 0 discriminator 1
	ldr	r3, [fp, #-40]
	ldr	r3, [r3, #8]
	cmp	r3, #0
	beq	.L101
	.loc 1 417 13 discriminator 3
	mov	r3, #1
	b	.L102
.L101:
	.loc 1 417 13 discriminator 4
	mov	r3, #0
.L102:
	.loc 1 417 13 discriminator 6
	mov	r2, r3
	ldr	r0, [fp, #-48]
	bl	ParseCfgFile_sub(PLT)
	str	r0, [fp, #-36]
	ldr	r3, [fp, #-36]
	cmp	r3, #0
	beq	.L117
	.loc 1 417 13 discriminator 7
	ldr	r3, .L118+96
.LPIC134:
	add	r3, pc, r3
	str	r3, [sp, #8]
	ldr	r3, .L118+100
.LPIC135:
	add	r3, pc, r3
	str	r3, [sp, #4]
	ldr	r3, [fp, #-36]
	str	r3, [sp]
	movw	r3, #417
	ldr	r2, .L118+104
.LPIC136:
	add	r2, pc, r2
	ldr	r1, .L118+108
.LPIC137:
	add	r1, pc, r1
	mov	r0, #69
	bl	siFormattedMessage_SC(PLT)
	b	.L79
.L99:
	.loc 1 420 13 is_stmt 1
	ldr	r3, [fp, #-48]
	ldr	r3, [r3, #8]
	ldr	r2, [fp, #-24]
	str	r2, [sp, #12]
	str	r3, [sp, #8]
	ldr	r3, .L118+112
.LPIC138:
	add	r3, pc, r3
	str	r3, [sp, #4]
	ldr	r3, [fp, #-36]
	str	r3, [sp]
	movw	r3, #421
	ldr	r2, .L118+116
.LPIC139:
	add	r2, pc, r2
	ldr	r1, .L118+120
.LPIC140:
	add	r1, pc, r1
	mov	r0, #69
	bl	siFormattedMessage_SC(PLT)
	.loc 1 424 13
	b	.L81
.L117:
	.loc 1 418 13
	nop
.LBE2:
	b	.L81
.L84:
.LBB3:
	.loc 1 432 20
	mov	r3, #0
	str	r3, [fp, #-20]
	.loc 1 433 9
	ldr	r3, [fp, #-52]
	cmp	r3, #0
	bne	.L105
	.loc 1 434 6 discriminator 1
	ldr	r3, [fp, #-48]
	ldr	r3, [r3, #8]
	.loc 1 437 18 discriminator 1
	ldr	r2, [fp, #-48]
	add	r2, r2, #16
	.loc 1 434 6 discriminator 1
	str	r2, [sp, #12]
	str	r3, [sp, #8]
	ldr	r3, .L118+124
.LPIC141:
	add	r3, pc, r3
	str	r3, [sp, #4]
	ldr	r3, .L118+128
.LPIC142:
	add	r3, pc, r3
	str	r3, [sp]
	movw	r3, #434
	ldr	r2, .L118+132
.LPIC143:
	add	r2, pc, r2
	ldr	r1, .L118+136
.LPIC144:
	add	r1, pc, r1
	mov	r0, #87
	bl	siFormattedMessage_M2(PLT)
	.loc 1 439 9 discriminator 1
	b	.L81
.L105:
	.loc 1 441 15
	mov	r1, #61
	ldr	r0, [fp, #-24]
	bl	strchr(PLT)
	str	r0, [fp, #-16]
	.loc 1 442 9
	ldr	r3, [fp, #-16]
	cmp	r3, #0
	bne	.L106
	.loc 1 443 6 discriminator 1
	ldr	r3, [fp, #-48]
	ldr	r3, [r3, #8]
	.loc 1 446 18 discriminator 1
	ldr	r2, [fp, #-48]
	add	r2, r2, #16
	.loc 1 443 6 discriminator 1
	str	r2, [sp, #12]
	str	r3, [sp, #8]
	ldr	r3, .L118+140
.LPIC145:
	add	r3, pc, r3
	str	r3, [sp, #4]
	ldr	r3, .L118+144
.LPIC146:
	add	r3, pc, r3
	str	r3, [sp]
	movw	r3, #443
	ldr	r2, .L118+148
.LPIC147:
	add	r2, pc, r2
	ldr	r1, .L118+152
.LPIC148:
	add	r1, pc, r1
	mov	r0, #87
	bl	siFormattedMessage_M2(PLT)
	.loc 1 448 9 discriminator 1
	b	.L81
.L106:
	.loc 1 450 15
	ldr	r3, [fp, #-16]
	add	r2, r3, #1
	str	r2, [fp, #-16]
	.loc 1 450 17
	mov	r2, #0
	strb	r2, [r3]
	.loc 1 451 7
	ldr	r0, [fp, #-24]
	bl	stripWhiteSpaces(PLT)
	.loc 1 452 15
	ldr	r0, [fp, #-16]
	bl	skipWhiteSpaces(PLT)
	str	r0, [fp, #-16]
	.loc 1 457 18
	sub	r1, fp, #44
	mov	r3, #2
	ldr	r2, [fp, #-24]
	ldr	r0, [fp, #-52]
	bl	GetElementDesc(PLT)
	str	r0, [fp, #-36]
	.loc 1 459 7
	ldr	r3, [fp, #-36]
	cmp	r3, #0
	beq	.L107
	ldr	r3, [fp, #-36]
	mvn	r2, #1024
	cmp	r3, r2
	beq	.L108
	.loc 1 494 11
	b	.L79
.L107:
	.loc 1 461 25
	ldr	r3, [fp, #-44]
	.loc 1 461 44
	ldr	r3, [r3, #12]
	.loc 1 461 54
	add	r2, r3, #1
	.loc 1 461 68
	ldr	r3, [fp, #-44]
	.loc 1 461 87
	ldr	r3, [r3, #16]
	.loc 1 461 13
	cmp	r2, r3
	bls	.L110
	.loc 1 462 13
	ldr	r3, [fp, #-48]
	ldr	r3, [r3, #8]
	str	r3, [sp, #12]
	ldr	r3, [fp, #-16]
	str	r3, [sp, #8]
	ldr	r3, .L118+156
.LPIC149:
	add	r3, pc, r3
	str	r3, [sp, #4]
	ldr	r3, [fp, #-36]
	str	r3, [sp]
	movw	r3, #463
	ldr	r2, .L118+160
.LPIC150:
	add	r2, pc, r2
	ldr	r1, .L118+164
.LPIC151:
	add	r1, pc, r1
	mov	r0, #69
	bl	siFormattedMessage_SC(PLT)
	.loc 1 466 13
	b	.L79
.L110:
	.loc 1 468 33
	ldr	r3, [fp, #-44]
	.loc 1 468 42
	ldr	r3, [r3, #48]
	.loc 1 468 52
	ldr	r3, [r3]
	.loc 1 468 22
	ldr	ip, [fp, #-44]
	.loc 1 470 17
	ldr	r2, [fp, #-44]
	ldr	r1, [r2, #28]
	ldr	r2, [fp, #-44]
	ldr	r2, [r2, #20]
	ldr	r0, [fp, #-44]
	ldr	r0, [r0, #12]
	mul	r2, r0, r2
	.loc 1 468 22
	add	r1, r1, r2
	ldr	r2, [fp, #-16]
	mov	r0, ip
	blx	r3
.LVL3:
	str	r0, [fp, #-36]
	.loc 1 477 13
	ldr	r3, [fp, #-36]
	cmp	r3, #0
	beq	.L111
	.loc 1 478 13
	ldr	r3, [fp, #-48]
	ldr	r3, [r3, #8]
	ldr	r2, [fp, #-16]
	str	r2, [sp, #12]
	str	r3, [sp, #8]
	ldr	r3, .L118+168
.LPIC152:
	add	r3, pc, r3
	str	r3, [sp, #4]
	ldr	r3, [fp, #-36]
	str	r3, [sp]
	movw	r3, #479
	ldr	r2, .L118+172
.LPIC153:
	add	r2, pc, r2
	ldr	r1, .L118+176
.LPIC154:
	add	r1, pc, r1
	mov	r0, #69
	bl	siFormattedMessage_SC(PLT)
	.loc 1 482 13
	b	.L79
.L111:
	.loc 1 484 22
	ldr	r3, [fp, #-44]
	.loc 1 484 41
	ldr	r2, [r3, #12]
	.loc 1 484 51
	add	r2, r2, #1
	str	r2, [r3, #12]
	.loc 1 485 23
	ldr	r3, [fp, #-20]
	add	r3, r3, #1
	str	r3, [fp, #-20]
	.loc 1 486 11
	b	.L81
.L108:
	.loc 1 488 11
	ldr	r3, [fp, #-48]
	ldr	r3, [r3, #8]
	ldr	r2, [fp, #-24]
	str	r2, [sp, #12]
	str	r3, [sp, #8]
	ldr	r3, .L118+180
.LPIC155:
	add	r3, pc, r3
	str	r3, [sp, #4]
	ldr	r3, [fp, #-36]
	str	r3, [sp]
	movw	r3, #489
	ldr	r2, .L118+184
.LPIC156:
	add	r2, pc, r2
	ldr	r1, .L118+188
.LPIC157:
	add	r1, pc, r1
	mov	r0, #69
	bl	siFormattedMessage_SC(PLT)
	.loc 1 492 11
	nop
.L81:
.LBE3:
	.loc 1 316 10
	ldr	r3, [fp, #-48]
	ldr	r3, [r3, #4]
	mov	r0, r3
	bl	feof(PLT)
	mov	r3, r0
	.loc 1 316 9
	cmp	r3, #0
	beq	.L112
	.loc 1 502 1
	nop
.L79:
	.loc 1 504 11
	ldr	r3, [fp, #-48]
	ldr	r3, [r3, #12]
	.loc 1 504 3
	sub	r2, r3, #1
	ldr	r3, [fp, #-48]
	str	r2, [r3, #12]
	.loc 1 506 10
	ldr	r3, [fp, #-36]
	.loc 1 293 1
	ldr	r1, .L118+192
.LPIC159:
	add	r1, pc, r1
	.loc 1 507 1
	ldr	r2, .L118+4
	ldr	r2, [r1, r2]
	ldr	r1, [r2]
	ldr	r2, [fp, #-8]
	eors	r1, r2, r1
	mov	r2, #0
	beq	.L114
	bl	__stack_chk_fail(PLT)
.L114:
	mov	r0, r3
	sub	sp, fp, #4
	.cfi_def_cfa 13, 8
	@ sp needed
	pop	{fp, pc}
.L119:
	.align	2
.L118:
	.word	_GLOBAL_OFFSET_TABLE_-(.LPIC158+8)
	.word	__stack_chk_guard(GOT)
	.word	.LC33-(.LPIC112+8)
	.word	.LC4-(.LPIC113+8)
	.word	.LC32-(.LPIC114+8)
	.word	.LC2-(.LPIC115+8)
	.word	.LC3-(.LPIC116+8)
	.word	.LC4-(.LPIC117+8)
	.word	.LC32-(.LPIC118+8)
	.word	.LC2-(.LPIC119+8)
	.word	.LC34-(.LPIC120+8)
	.word	.LC35-(.LPIC121+8)
	.word	.LC36-(.LPIC122+8)
	.word	.LC32-(.LPIC123+8)
	.word	.LC2-(.LPIC124+8)
	.word	.LC37-(.LPIC125+8)
	.word	.LC32-(.LPIC126+8)
	.word	.LC2-(.LPIC127+8)
	.word	.LC38-(.LPIC128+8)
	.word	.LC32-(.LPIC129+8)
	.word	.LC2-(.LPIC130+8)
	.word	.LC39-(.LPIC131+8)
	.word	.LC32-(.LPIC132+8)
	.word	.LC2-(.LPIC133+8)
	.word	.LC40-(.LPIC134+8)
	.word	.LC4-(.LPIC135+8)
	.word	.LC9-(.LPIC136+8)
	.word	.LC2-(.LPIC137+8)
	.word	.LC41-(.LPIC138+8)
	.word	.LC32-(.LPIC139+8)
	.word	.LC2-(.LPIC140+8)
	.word	.LC42-(.LPIC141+8)
	.word	.LC43-(.LPIC142+8)
	.word	.LC32-(.LPIC143+8)
	.word	.LC2-(.LPIC144+8)
	.word	.LC42-(.LPIC145+8)
	.word	.LC44-(.LPIC146+8)
	.word	.LC32-(.LPIC147+8)
	.word	.LC2-(.LPIC148+8)
	.word	.LC45-(.LPIC149+8)
	.word	.LC32-(.LPIC150+8)
	.word	.LC2-(.LPIC151+8)
	.word	.LC46-(.LPIC152+8)
	.word	.LC32-(.LPIC153+8)
	.word	.LC2-(.LPIC154+8)
	.word	.LC47-(.LPIC155+8)
	.word	.LC32-(.LPIC156+8)
	.word	.LC2-(.LPIC157+8)
	.word	_GLOBAL_OFFSET_TABLE_-(.LPIC159+8)
	.cfi_endproc
.LFE6:
	.size	ParseCfgFile_sub, .-ParseCfgFile_sub
	.section	.rodata
	.align	2
.LC48:
	.ascii	"_ParseCfgFile\000"
	.align	2
.LC49:
	.ascii	"(pcszCfgFileName==NULL)\000"
	.align	2
.LC50:
	.ascii	"r\000"
	.align	2
.LC51:
	.ascii	"(CCtxt.pCfgFile==NULL)\000"
	.align	2
.LC52:
	.ascii	"DummyMasterNode\000"
	.align	2
.LC53:
	.ascii	"ParseCfgFile_sub(&CCtxt, &DummyBDesc, BLOCK_REQUIRE"
	.ascii	"D)\000"
	.align	2
.LC0:
	.word	0
	.word	0
	.word	0
	.word	0
	.ascii	"\000\000"
	.space	2046
	.text
	.align	2
	.global	ParseCfgFile
	.syntax unified
	.arm
	.fpu vfpv3
	.type	ParseCfgFile, %function
ParseCfgFile:
.LFB7:
	.loc 1 515 1
	.cfi_startproc
	@ args = 0, pretend = 0, frame = 2144
	@ frame_needed = 1, uses_anonymous_args = 0
	push	{fp, lr}
	.cfi_def_cfa_offset 8
	.cfi_offset 11, -8
	.cfi_offset 14, -4
	add	fp, sp, #4
	.cfi_def_cfa 11, 4
	sub	sp, sp, #2160
	str	r0, [fp, #-2136]
	str	r1, [fp, #-2140]
	str	r2, [fp, #-2144]
	.loc 1 515 1
	ldr	r2, .L130
.LPIC183:
	add	r2, pc, r2
	ldr	r3, .L130+4
	ldr	r3, [r2, r3]
	ldr	r3, [r3]
	str	r3, [fp, #-8]
	mov	r3, #0
	.loc 1 516 16
	mov	r3, #0
	str	r3, [fp, #-2132]
	.loc 1 517 16
	sub	r3, fp, #2112
	sub	r3, r3, #4
	sub	r3, r3, #12
	mov	r2, #56
	mov	r1, #0
	mov	r0, r3
	bl	memset(PLT)
	.loc 1 518 22
	ldr	r2, .L130+8
.LPIC160:
	add	r2, pc, r2
	sub	r3, fp, #2064
	sub	r3, r3, #4
	sub	r3, r3, #4
	mov	r1, r2
	mov	r2, #2064
	mov	r0, r3
	bl	memcpy(PLT)
	.loc 1 519 3
	ldr	r3, [fp, #-2136]
	cmp	r3, #0
	bne	.L121
	.loc 1 519 3 is_stmt 0 discriminator 1
	ldr	r3, .L130+12
.LPIC161:
	add	r3, pc, r3
	str	r3, [sp, #8]
	ldr	r3, .L130+16
.LPIC162:
	add	r3, pc, r3
	str	r3, [sp, #4]
	mvn	r3, #256
	str	r3, [sp]
	movw	r3, #519
	ldr	r2, .L130+20
.LPIC163:
	add	r2, pc, r2
	ldr	r1, .L130+24
.LPIC164:
	add	r1, pc, r1
	mov	r0, #69
	bl	siFormattedMessage_SC(PLT)
	mvn	r3, #256
	str	r3, [fp, #-2132]
	b	.L122
.L121:
	.loc 1 524 3 is_stmt 1
	ldr	r3, [fp, #-2140]
	cmp	r3, #0
	bne	.L123
	.loc 1 524 3 is_stmt 0 discriminator 1
	ldr	r3, .L130+28
.LPIC165:
	add	r3, pc, r3
	str	r3, [sp, #8]
	ldr	r3, .L130+32
.LPIC166:
	add	r3, pc, r3
	str	r3, [sp, #4]
	mvn	r3, #256
	str	r3, [sp]
	mov	r3, #524
	ldr	r2, .L130+36
.LPIC167:
	add	r2, pc, r2
	ldr	r1, .L130+40
.LPIC168:
	add	r1, pc, r1
	mov	r0, #69
	bl	siFormattedMessage_SC(PLT)
	mvn	r3, #256
	str	r3, [fp, #-2132]
	b	.L122
.L123:
	.loc 1 529 3 is_stmt 1
	ldr	r3, [fp, #-2144]
	cmp	r3, #0
	bne	.L124
	.loc 1 529 3 is_stmt 0 discriminator 1
	ldr	r3, .L130+44
.LPIC169:
	add	r3, pc, r3
	str	r3, [sp, #8]
	ldr	r3, .L130+48
.LPIC170:
	add	r3, pc, r3
	str	r3, [sp, #4]
	mvn	r3, #256
	str	r3, [sp]
	movw	r3, #529
	ldr	r2, .L130+52
.LPIC171:
	add	r2, pc, r2
	ldr	r1, .L130+56
.LPIC172:
	add	r1, pc, r1
	mov	r0, #69
	bl	siFormattedMessage_SC(PLT)
	mvn	r3, #256
	str	r3, [fp, #-2132]
	b	.L122
.L124:
	.loc 1 534 24 is_stmt 1
	ldr	r3, [fp, #-2136]
	str	r3, [fp, #-2072]
	.loc 1 535 18
	ldr	r3, [fp, #-2072]
	ldr	r2, .L130+60
.LPIC173:
	add	r2, pc, r2
	mov	r1, r2
	mov	r0, r3
	bl	fopen(PLT)
	mov	r3, r0
	.loc 1 535 17
	str	r3, [fp, #-2068]
	.loc 1 537 3
	ldr	r3, [fp, #-2068]
	cmp	r3, #0
	bne	.L125
	.loc 1 537 3 is_stmt 0 discriminator 1
	ldr	r3, .L130+64
.LPIC174:
	add	r3, pc, r3
	str	r3, [sp, #8]
	ldr	r3, .L130+68
.LPIC175:
	add	r3, pc, r3
	str	r3, [sp, #4]
	mvn	r3, #1280
	str	r3, [sp]
	movw	r3, #537
	ldr	r2, .L130+72
.LPIC176:
	add	r2, pc, r2
	ldr	r1, .L130+76
.LPIC177:
	add	r1, pc, r1
	mov	r0, #69
	bl	siFormattedMessage_SC(PLT)
	mvn	r3, #1280
	str	r3, [fp, #-2132]
	b	.L122
.L125:
	.loc 1 542 18 is_stmt 1
	mov	r3, #0
	str	r3, [fp, #-2064]
	.loc 1 543 16
	mov	r3, #0
	str	r3, [fp, #-2060]
	.loc 1 544 28
	mov	r3, #1
	str	r3, [fp, #-2128]
	.loc 1 545 32
	ldr	r3, .L130+80
.LPIC178:
	add	r3, pc, r3
	str	r3, [fp, #-2124]
	.loc 1 546 34
	ldr	r3, [fp, #-2140]
	str	r3, [fp, #-2100]
	.loc 1 547 38
	ldr	r3, [fp, #-2144]
	str	r3, [fp, #-2116]
	.loc 1 548 39
	ldr	r3, [fp, #-2144]
	str	r3, [fp, #-2112]
	.loc 1 549 42
	mov	r3, #56
	str	r3, [fp, #-2108]
	.loc 1 551 3
	sub	r1, fp, #2112
	sub	r1, r1, #4
	sub	r1, r1, #12
	sub	r3, fp, #2064
	sub	r3, r3, #4
	sub	r3, r3, #4
	mvn	r2, #0
	mov	r0, r3
	bl	ParseCfgFile_sub(PLT)
	str	r0, [fp, #-2132]
	ldr	r3, [fp, #-2132]
	cmp	r3, #0
	beq	.L129
	.loc 1 551 3 is_stmt 0 discriminator 1
	ldr	r3, .L130+84
.LPIC179:
	add	r3, pc, r3
	str	r3, [sp, #8]
	ldr	r3, .L130+88
.LPIC180:
	add	r3, pc, r3
	str	r3, [sp, #4]
	ldr	r3, [fp, #-2132]
	str	r3, [sp]
	movw	r3, #551
	ldr	r2, .L130+92
.LPIC181:
	add	r2, pc, r2
	ldr	r1, .L130+96
.LPIC182:
	add	r1, pc, r1
	mov	r0, #69
	bl	siFormattedMessage_SC(PLT)
	b	.L122
.L129:
	.loc 1 553 1 is_stmt 1
	nop
.L122:
	.loc 1 554 11
	ldr	r3, [fp, #-2068]
	.loc 1 554 5
	cmp	r3, #0
	beq	.L126
	.loc 1 554 22 discriminator 1
	ldr	r3, [fp, #-2068]
	mov	r0, r3
	bl	fclose(PLT)
.L126:
	.loc 1 556 10
	ldr	r3, [fp, #-2132]
	.loc 1 515 1
	ldr	r1, .L130+100
.LPIC184:
	add	r1, pc, r1
	.loc 1 557 1
	ldr	r2, .L130+4
	ldr	r2, [r1, r2]
	ldr	r1, [r2]
	ldr	r2, [fp, #-8]
	eors	r1, r2, r1
	mov	r2, #0
	beq	.L128
	bl	__stack_chk_fail(PLT)
.L128:
	mov	r0, r3
	sub	sp, fp, #4
	.cfi_def_cfa 13, 8
	@ sp needed
	pop	{fp, pc}
.L131:
	.align	2
.L130:
	.word	_GLOBAL_OFFSET_TABLE_-(.LPIC183+8)
	.word	__stack_chk_guard(GOT)
	.word	.LC0-(.LPIC160+8)
	.word	.LC49-(.LPIC161+8)
	.word	.LC4-(.LPIC162+8)
	.word	.LC48-(.LPIC163+8)
	.word	.LC2-(.LPIC164+8)
	.word	.LC3-(.LPIC165+8)
	.word	.LC4-(.LPIC166+8)
	.word	.LC48-(.LPIC167+8)
	.word	.LC2-(.LPIC168+8)
	.word	.LC5-(.LPIC169+8)
	.word	.LC4-(.LPIC170+8)
	.word	.LC48-(.LPIC171+8)
	.word	.LC2-(.LPIC172+8)
	.word	.LC50-(.LPIC173+8)
	.word	.LC51-(.LPIC174+8)
	.word	.LC4-(.LPIC175+8)
	.word	.LC48-(.LPIC176+8)
	.word	.LC2-(.LPIC177+8)
	.word	.LC52-(.LPIC178+8)
	.word	.LC53-(.LPIC179+8)
	.word	.LC4-(.LPIC180+8)
	.word	.LC9-(.LPIC181+8)
	.word	.LC2-(.LPIC182+8)
	.word	_GLOBAL_OFFSET_TABLE_-(.LPIC184+8)
	.cfi_endproc
.LFE7:
	.size	ParseCfgFile, .-ParseCfgFile
.Letext0:
	.file 2 "/home/hkh/buildroot-2022.02/output/host/arm-buildroot-linux-musleabihf/sysroot/usr/include/bits/alltypes.h"
	.file 3 "../../../include/EApi.h"
	.file 4 "../CfgParse.h"
	.file 5 "/home/hkh/buildroot-2022.02/output/host/arm-buildroot-linux-musleabihf/sysroot/usr/include/stdio.h"
	.file 6 "/home/hkh/buildroot-2022.02/output/host/arm-buildroot-linux-musleabihf/sysroot/usr/include/string.h"
	.file 7 "../../include/DbgChk.h"
	.file 8 "../StrFuncs.h"
	.file 9 "../StrPrint.h"
	.file 10 "../../include/EApiAHStr.h"
	.section	.note.GNU-stack,"",%progbits
