ARM GAS  /tmp/cc812cGb.s 			page 1


   1              		.cpu cortex-a9
   2              		.eabi_attribute 28, 1
   3              		.eabi_attribute 20, 1
   4              		.eabi_attribute 21, 1
   5              		.eabi_attribute 23, 3
   6              		.eabi_attribute 24, 1
   7              		.eabi_attribute 25, 1
   8              		.eabi_attribute 26, 2
   9              		.eabi_attribute 30, 6
  10              		.eabi_attribute 34, 1
  11              		.eabi_attribute 18, 4
  12              		.file	"EeePProg.c"
  13              		.text
  14              	.Ltext0:
  15              		.cfi_sections	.debug_frame
  16              		.global	cszTitle
  17              		.section	.rodata
  18              		.align	2
  21              	cszTitle:
  22 0000 2B3D3D3D 		.ascii	"+=================================================="
  22      3D3D3D3D 
  22      3D3D3D3D 
  22      3D3D3D3D 
  22      3D3D3D3D 
  23 0033 3D3D3D3D 		.ascii	"===========================+\012| EeePProg.exe  Cop"
  23      3D3D3D3D 
  23      3D3D3D3D 
  23      3D3D3D3D 
  23      3D3D3D3D 
  24 0063 79726967 		.ascii	"yright (C) Kontron Embedded Modules GmbH 2010   V %"
  24      68742028 
  24      4329204B 
  24      6F6E7472 
  24      6F6E2045 
  25 0096 752E2575 		.ascii	"u.%u.%04u |\012+==================================="
  25      2E253034 
  25      75207C0A 
  25      2B3D3D3D 
  25      3D3D3D3D 
  26 00c6 3D3D3D3D 		.ascii	"==========================================+\012\012"
  26      3D3D3D3D 
  26      3D3D3D3D 
  26      3D3D3D3D 
  26      3D3D3D3D 
  27 00f3 00       		.ascii	"\000"
  28              		.global	syntaxErrMes
  29              		.align	2
  32              	syntaxErrMes:
  33 00f4 53796E74 		.ascii	"Syntax error / Use -h for info\000"
  33      61782065 
  33      72726F72 
  33      202F2055 
  33      7365202D 
  34              		.global	CurOptions
  35              		.bss
  36              		.align	2
  39              	CurOptions:
ARM GAS  /tmp/cc812cGb.s 			page 2


  40 0000 00000000 		.space	196
  40      00000000 
  40      00000000 
  40      00000000 
  40      00000000 
  41              		.global	COM0R20M_Cfg
  42              		.section	.rodata
  43 0113 00       		.align	2
  44              	.LC0:
  45 0114 3C46696C 		.ascii	"<Filename|stdout>  Destination File\000"
  45      656E616D 
  45      657C7374 
  45      646F7574 
  45      3E202044 
  46              		.section	.data.rel,"aw"
  47              		.align	2
  50              	COM0R20M_Cfg:
  51 0000 10000000 		.word	CurOptions+16
  52 0004 04000000 		.word	4
  53 0008 14010000 		.word	.LC0
  54 000c 00000000 		.word	StringArg
  55              		.global	COM0R20M_Img
  56              		.section	.rodata
  57              		.align	2
  58              	.LC1:
  59 0138 3C46696C 		.ascii	"<Filename>  Configuration Filename\000"
  59      656E616D 
  59      653E2020 
  59      436F6E66 
  59      69677572 
  60 015b 00       		.align	2
  61              	.LC2:
  62 015c 3C46696C 		.ascii	"<Filename>  Destination File\000"
  62      656E616D 
  62      653E2020 
  62      44657374 
  62      696E6174 
  63              		.section	.data.rel
  64              		.align	2
  67              	COM0R20M_Img:
  68 0010 18000000 		.word	CurOptions+24
  69 0014 04000000 		.word	4
  70 0018 38010000 		.word	.LC1
  71 001c 00000000 		.word	StringArg
  72 0020 1C000000 		.word	CurOptions+28
  73 0024 04000000 		.word	4
  74 0028 5C010000 		.word	.LC2
  75 002c 00000000 		.word	StringArg
  76              		.global	COM0R20M_EEP
  77              		.align	2
  80              	COM0R20M_EEP:
  81 0030 24000000 		.word	CurOptions+36
  82 0034 04000000 		.word	4
  83 0038 38010000 		.word	.LC1
  84 003c 00000000 		.word	StringArg
  85              		.global	COM0R20CB_Cfg
  86              		.align	2
ARM GAS  /tmp/cc812cGb.s 			page 3


  89              	COM0R20CB_Cfg:
  90 0040 2C000000 		.word	CurOptions+44
  91 0044 04000000 		.word	4
  92 0048 14010000 		.word	.LC0
  93 004c 00000000 		.word	StringArg
  94              		.global	COM0R20CB_Img
  95              		.align	2
  98              	COM0R20CB_Img:
  99 0050 34000000 		.word	CurOptions+52
 100 0054 04000000 		.word	4
 101 0058 38010000 		.word	.LC1
 102 005c 00000000 		.word	StringArg
 103 0060 38000000 		.word	CurOptions+56
 104 0064 04000000 		.word	4
 105 0068 5C010000 		.word	.LC2
 106 006c 00000000 		.word	StringArg
 107              		.global	COM0R20CB_EEP
 108              		.align	2
 111              	COM0R20CB_EEP:
 112 0070 40000000 		.word	CurOptions+64
 113 0074 04000000 		.word	4
 114 0078 38010000 		.word	.LC1
 115 007c 00000000 		.word	StringArg
 116              		.global	EeePExpEEP_Cfg
 117              		.align	2
 120              	EeePExpEEP_Cfg:
 121 0080 48000000 		.word	CurOptions+72
 122 0084 04000000 		.word	4
 123 0088 14010000 		.word	.LC0
 124 008c 00000000 		.word	StringArg
 125              		.global	EeePExpEEP_Img
 126              		.align	2
 129              	EeePExpEEP_Img:
 130 0090 50000000 		.word	CurOptions+80
 131 0094 04000000 		.word	4
 132 0098 38010000 		.word	.LC1
 133 009c 00000000 		.word	StringArg
 134 00a0 54000000 		.word	CurOptions+84
 135 00a4 04000000 		.word	4
 136 00a8 5C010000 		.word	.LC2
 137 00ac 00000000 		.word	StringArg
 138              		.global	EeePExpEEP_EEP
 139              		.section	.rodata
 140 0179 000000   		.align	2
 141              	.LC3:
 142 017c 3C454170 		.ascii	"<EApi Id>      EApi Bus Id\000"
 142      69204964 
 142      3E202020 
 142      20202045 
 142      41706920 
 143 0197 00       		.align	2
 144              	.LC4:
 145 0198 3C493243 		.ascii	"<I2C Address>  EEPROM Device Address\000"
 145      20416464 
 145      72657373 
 145      3E202045 
 145      4550524F 
ARM GAS  /tmp/cc812cGb.s 			page 4


 146              		.section	.data.rel
 147              		.align	2
 150              	EeePExpEEP_EEP:
 151 00b0 5C000000 		.word	CurOptions+92
 152 00b4 04000000 		.word	4
 153 00b8 38010000 		.word	.LC1
 154 00bc 00000000 		.word	StringArg
 155 00c0 60000000 		.word	CurOptions+96
 156 00c4 04000000 		.word	4
 157 00c8 7C010000 		.word	.LC3
 158 00cc 00000000 		.word	NumberArg
 159 00d0 64000000 		.word	CurOptions+100
 160 00d4 04000000 		.word	4
 161 00d8 98010000 		.word	.LC4
 162 00dc 00000000 		.word	NumberArg
 163              		.global	EeePExpEEP_PEEP
 164              		.section	.rodata
 165 01bd 000000   		.align	2
 166              	.LC5:
 167 01c0 3C46696C 		.ascii	"<Filename>  Binary Image Filename\000"
 167      656E616D 
 167      653E2020 
 167      42696E61 
 167      72792049 
 168              		.section	.data.rel
 169              		.align	2
 172              	EeePExpEEP_PEEP:
 173 00e0 6C000000 		.word	CurOptions+108
 174 00e4 04000000 		.word	4
 175 00e8 C0010000 		.word	.LC5
 176 00ec 00000000 		.word	StringArg
 177 00f0 70000000 		.word	CurOptions+112
 178 00f4 04000000 		.word	4
 179 00f8 7C010000 		.word	.LC3
 180 00fc 00000000 		.word	NumberArg
 181 0100 74000000 		.word	CurOptions+116
 182 0104 04000000 		.word	4
 183 0108 98010000 		.word	.LC4
 184 010c 00000000 		.word	NumberArg
 185              		.global	COM0R20CB_IMG
 186              		.align	2
 189              	COM0R20CB_IMG:
 190 0110 B8000000 		.word	CurOptions+184
 191 0114 04000000 		.word	4
 192 0118 C0010000 		.word	.LC5
 193 011c 00000000 		.word	StringArg
 194              		.global	COM0R20M_IMG
 195              		.align	2
 198              	COM0R20M_IMG:
 199 0120 C0000000 		.word	CurOptions+192
 200 0124 04000000 		.word	4
 201 0128 C0010000 		.word	.LC5
 202 012c 00000000 		.word	StringArg
 203              		.global	EeePExpEEP_IMG
 204              		.align	2
 207              	EeePExpEEP_IMG:
 208 0130 A8000000 		.word	CurOptions+168
ARM GAS  /tmp/cc812cGb.s 			page 5


 209 0134 04000000 		.word	4
 210 0138 C0010000 		.word	.LC5
 211 013c 00000000 		.word	StringArg
 212 0140 AC000000 		.word	CurOptions+172
 213 0144 04000000 		.word	4
 214 0148 7C010000 		.word	.LC3
 215 014c 00000000 		.word	NumberArg
 216 0150 B0000000 		.word	CurOptions+176
 217 0154 04000000 		.word	4
 218 0158 98010000 		.word	.LC4
 219 015c 00000000 		.word	NumberArg
 220              		.global	COM0R20CB_PEEP
 221              		.align	2
 224              	COM0R20CB_PEEP:
 225 0160 7C000000 		.word	CurOptions+124
 226 0164 04000000 		.word	4
 227 0168 C0010000 		.word	.LC5
 228 016c 00000000 		.word	StringArg
 229              		.global	COM0R20M_PEEP
 230              		.align	2
 233              	COM0R20M_PEEP:
 234 0170 84000000 		.word	CurOptions+132
 235 0174 04000000 		.word	4
 236 0178 C0010000 		.word	.LC5
 237 017c 00000000 		.word	StringArg
 238              		.global	GEN_LIST_DBLOCKS_FILE
 239              		.align	2
 242              	GEN_LIST_DBLOCKS_FILE:
 243 0180 8C000000 		.word	CurOptions+140
 244 0184 04000000 		.word	4
 245 0188 C0010000 		.word	.LC5
 246 018c 00000000 		.word	StringArg
 247              		.global	GEN_LIST_DBLOCKS_EEP
 248              		.align	2
 251              	GEN_LIST_DBLOCKS_EEP:
 252 0190 94000000 		.word	CurOptions+148
 253 0194 04000000 		.word	4
 254 0198 7C010000 		.word	.LC3
 255 019c 00000000 		.word	NumberArg
 256 01a0 98000000 		.word	CurOptions+152
 257 01a4 04000000 		.word	4
 258 01a8 98010000 		.word	.LC4
 259 01ac 00000000 		.word	NumberArg
 260              		.section	.rodata
 261 01e2 0000     		.align	2
 262              	.LC6:
 263 01e4 7374646F 		.ascii	"stdout\000"
 263      757400
 264 01eb 00       		.align	2
 265              	.LC7:
 266 01ec 263100   		.ascii	"&1\000"
 267 01ef 00       		.align	2
 268              	.LC8:
 269 01f0 73746465 		.ascii	"stderr\000"
 269      727200
 270 01f7 00       		.align	2
 271              	.LC9:
ARM GAS  /tmp/cc812cGb.s 			page 6


 272 01f8 263200   		.ascii	"&2\000"
 273 01fb 00       		.align	2
 274              	.LC10:
 275 01fc 7700     		.ascii	"w\000"
 276 01fe 0000     		.align	2
 277              	.LC11:
 278 0200 43726561 		.ascii	"CreateTxtFilePtr\000"
 278      74655478 
 278      7446696C 
 278      65507472 
 278      00
 279 0211 000000   		.align	2
 280              	.LC12:
 281 0214 2F686F6D 		.ascii	"/home/hkh/git/eapidk-code-r76-trunk/apps/EeePProg/l"
 281      652F686B 
 281      682F6769 
 281      742F6561 
 281      7069646B 
 282 0247 696E7578 		.ascii	"inux/../EeePProg.c\000"
 282      2F2E2E2F 
 282      45656550 
 282      50726F67 
 282      2E6300
 283 025a 0000     		.align	2
 284              	.LC13:
 285 025c 282A4669 		.ascii	"(*FilePtr==NULL)\000"
 285      6C655074 
 285      723D3D4E 
 285      554C4C29 
 285      00
 286 026d 000000   		.align	2
 287              	.LC14:
 288 0270 25730A00 		.ascii	"%s\012\000"
 289              		.text
 290              		.align	2
 291              		.global	CreateTxtFilePtr
 292              		.arch armv7-a
 293              		.arch_extension mp
 294              		.arch_extension sec
 295              		.syntax unified
 296              		.arm
 297              		.fpu vfpv3
 299              	CreateTxtFilePtr:
 300              	.LFB1:
 301              		.file 1 "/home/hkh/git/eapidk-code-r76-trunk/apps/EeePProg/linux/../EeePProg.c"
   1:/home/hkh/git/eapidk-code-r76-trunk/apps/EeePProg/linux/../EeePProg.c **** /*
   2:/home/hkh/git/eapidk-code-r76-trunk/apps/EeePProg/linux/../EeePProg.c ****  *<KHeader>
   3:/home/hkh/git/eapidk-code-r76-trunk/apps/EeePProg/linux/../EeePProg.c ****  *+=========================================================================
   4:/home/hkh/git/eapidk-code-r76-trunk/apps/EeePProg/linux/../EeePProg.c ****  *I  Project Name: EApiDK Embedded Application Development Kit
   5:/home/hkh/git/eapidk-code-r76-trunk/apps/EeePProg/linux/../EeePProg.c ****  *+=========================================================================
   6:/home/hkh/git/eapidk-code-r76-trunk/apps/EeePProg/linux/../EeePProg.c ****  *I  $HeadURL: file:///svn/p/eapidk/code/trunk/apps/EeePProg/EeePProg.c $
   7:/home/hkh/git/eapidk-code-r76-trunk/apps/EeePProg/linux/../EeePProg.c ****  *+=========================================================================
   8:/home/hkh/git/eapidk-code-r76-trunk/apps/EeePProg/linux/../EeePProg.c ****  *I   Copyright: Copyright (c) 2002-2010, Kontron Embedded Modules GmbH
   9:/home/hkh/git/eapidk-code-r76-trunk/apps/EeePProg/linux/../EeePProg.c ****  *I      Author: John Kearney,                  John.Kearney@kontron.com
  10:/home/hkh/git/eapidk-code-r76-trunk/apps/EeePProg/linux/../EeePProg.c ****  *I
  11:/home/hkh/git/eapidk-code-r76-trunk/apps/EeePProg/linux/../EeePProg.c ****  *I     License: All rights reserved. This program and the accompanying 
  12:/home/hkh/git/eapidk-code-r76-trunk/apps/EeePProg/linux/../EeePProg.c ****  *I              materials are licensed and made available under the 
ARM GAS  /tmp/cc812cGb.s 			page 7


  13:/home/hkh/git/eapidk-code-r76-trunk/apps/EeePProg/linux/../EeePProg.c ****  *I              terms and conditions of the BSD License which 
  14:/home/hkh/git/eapidk-code-r76-trunk/apps/EeePProg/linux/../EeePProg.c ****  *I              accompanies this distribution. The full text of the 
  15:/home/hkh/git/eapidk-code-r76-trunk/apps/EeePProg/linux/../EeePProg.c ****  *I              license may be found at 
  16:/home/hkh/git/eapidk-code-r76-trunk/apps/EeePProg/linux/../EeePProg.c ****  *I              http://opensource.org/licenses/bsd-license.php
  17:/home/hkh/git/eapidk-code-r76-trunk/apps/EeePProg/linux/../EeePProg.c ****  *I              
  18:/home/hkh/git/eapidk-code-r76-trunk/apps/EeePProg/linux/../EeePProg.c ****  *I              THE PROGRAM IS DISTRIBUTED UNDER THE BSD LICENSE ON AN "
  19:/home/hkh/git/eapidk-code-r76-trunk/apps/EeePProg/linux/../EeePProg.c ****  *I              AS IS" BASIS, WITHOUT WARRANTIES OR REPRESENTATIONS OF 
  20:/home/hkh/git/eapidk-code-r76-trunk/apps/EeePProg/linux/../EeePProg.c ****  *I              ANY KIND, EITHER EXPRESS OR IMPLIED.
  21:/home/hkh/git/eapidk-code-r76-trunk/apps/EeePProg/linux/../EeePProg.c ****  *I
  22:/home/hkh/git/eapidk-code-r76-trunk/apps/EeePProg/linux/../EeePProg.c ****  *I Description: Auto Created for EApiValidateAPI.c
  23:/home/hkh/git/eapidk-code-r76-trunk/apps/EeePProg/linux/../EeePProg.c ****  *I
  24:/home/hkh/git/eapidk-code-r76-trunk/apps/EeePProg/linux/../EeePProg.c ****  *+-------------------------------------------------------------------------
  25:/home/hkh/git/eapidk-code-r76-trunk/apps/EeePProg/linux/../EeePProg.c ****  *I
  26:/home/hkh/git/eapidk-code-r76-trunk/apps/EeePProg/linux/../EeePProg.c ****  *I  File Name            : EeePProg.c
  27:/home/hkh/git/eapidk-code-r76-trunk/apps/EeePProg/linux/../EeePProg.c ****  *I  File Location        : apps\EeePProg
  28:/home/hkh/git/eapidk-code-r76-trunk/apps/EeePProg/linux/../EeePProg.c ****  *I  Last committed       : $Revision: 74 $
  29:/home/hkh/git/eapidk-code-r76-trunk/apps/EeePProg/linux/../EeePProg.c ****  *I  Last changed by      : $Author: dethrophes $
  30:/home/hkh/git/eapidk-code-r76-trunk/apps/EeePProg/linux/../EeePProg.c ****  *I  Last changed date    : $Date: 2010-06-23 19:26:50 +0000 (Wed, 23 Jun 2010) $
  31:/home/hkh/git/eapidk-code-r76-trunk/apps/EeePProg/linux/../EeePProg.c ****  *I  ID                   : $Id: EeePProg.c 74 2010-06-23 19:26:50Z dethrophes $
  32:/home/hkh/git/eapidk-code-r76-trunk/apps/EeePProg/linux/../EeePProg.c ****  *I
  33:/home/hkh/git/eapidk-code-r76-trunk/apps/EeePProg/linux/../EeePProg.c ****  *+=========================================================================
  34:/home/hkh/git/eapidk-code-r76-trunk/apps/EeePProg/linux/../EeePProg.c ****  *</KHeader>
  35:/home/hkh/git/eapidk-code-r76-trunk/apps/EeePProg/linux/../EeePProg.c ****  */
  36:/home/hkh/git/eapidk-code-r76-trunk/apps/EeePProg/linux/../EeePProg.c ****   #include <EeePApp.h>
  37:/home/hkh/git/eapidk-code-r76-trunk/apps/EeePProg/linux/../EeePProg.c **** 
  38:/home/hkh/git/eapidk-code-r76-trunk/apps/EeePProg/linux/../EeePProg.c **** const char cszTitle[]= 
  39:/home/hkh/git/eapidk-code-r76-trunk/apps/EeePProg/linux/../EeePProg.c ****   "+=============================================================================+\n"
  40:/home/hkh/git/eapidk-code-r76-trunk/apps/EeePProg/linux/../EeePProg.c ****   "| EeePProg.exe  Copyright (C) Kontron Embedded Modules GmbH 2010   V %u.%u.%04u |\n"
  41:/home/hkh/git/eapidk-code-r76-trunk/apps/EeePProg/linux/../EeePProg.c ****   "+=============================================================================+\n"
  42:/home/hkh/git/eapidk-code-r76-trunk/apps/EeePProg/linux/../EeePProg.c ****   "\n"
  43:/home/hkh/git/eapidk-code-r76-trunk/apps/EeePProg/linux/../EeePProg.c **** ;
  44:/home/hkh/git/eapidk-code-r76-trunk/apps/EeePProg/linux/../EeePProg.c **** 
  45:/home/hkh/git/eapidk-code-r76-trunk/apps/EeePProg/linux/../EeePProg.c **** const char syntaxErrMes[]  = "Syntax error / Use -h for info";
  46:/home/hkh/git/eapidk-code-r76-trunk/apps/EeePProg/linux/../EeePProg.c **** 
  47:/home/hkh/git/eapidk-code-r76-trunk/apps/EeePProg/linux/../EeePProg.c **** 
  48:/home/hkh/git/eapidk-code-r76-trunk/apps/EeePProg/linux/../EeePProg.c **** Options_t CurOptions;
  49:/home/hkh/git/eapidk-code-r76-trunk/apps/EeePProg/linux/../EeePProg.c **** 
  50:/home/hkh/git/eapidk-code-r76-trunk/apps/EeePProg/linux/../EeePProg.c **** ArgDesc_t  COM0R20M_Cfg[]={
  51:/home/hkh/git/eapidk-code-r76-trunk/apps/EeePProg/linux/../EeePProg.c ****   {
  52:/home/hkh/git/eapidk-code-r76-trunk/apps/EeePProg/linux/../EeePProg.c ****   &CurOptions.szCOM0R20M_Cfg_File        ,
  53:/home/hkh/git/eapidk-code-r76-trunk/apps/EeePProg/linux/../EeePProg.c ****   sizeof(CurOptions.szCOM0R20M_Cfg_File) ,
  54:/home/hkh/git/eapidk-code-r76-trunk/apps/EeePProg/linux/../EeePProg.c ****   "<Filename|stdout>  Destination File"  ,
  55:/home/hkh/git/eapidk-code-r76-trunk/apps/EeePProg/linux/../EeePProg.c ****   StringArg
  56:/home/hkh/git/eapidk-code-r76-trunk/apps/EeePProg/linux/../EeePProg.c ****   },
  57:/home/hkh/git/eapidk-code-r76-trunk/apps/EeePProg/linux/../EeePProg.c **** };
  58:/home/hkh/git/eapidk-code-r76-trunk/apps/EeePProg/linux/../EeePProg.c **** ArgDesc_t  COM0R20M_Img[]={
  59:/home/hkh/git/eapidk-code-r76-trunk/apps/EeePProg/linux/../EeePProg.c ****   {
  60:/home/hkh/git/eapidk-code-r76-trunk/apps/EeePProg/linux/../EeePProg.c ****   &CurOptions.CreateCOM0R20M.InFile       ,
  61:/home/hkh/git/eapidk-code-r76-trunk/apps/EeePProg/linux/../EeePProg.c ****   sizeof(CurOptions.CreateCOM0R20M.InFile) ,
  62:/home/hkh/git/eapidk-code-r76-trunk/apps/EeePProg/linux/../EeePProg.c ****   "<Filename>  Configuration Filename"   ,
  63:/home/hkh/git/eapidk-code-r76-trunk/apps/EeePProg/linux/../EeePProg.c ****   StringArg
  64:/home/hkh/git/eapidk-code-r76-trunk/apps/EeePProg/linux/../EeePProg.c ****   },
  65:/home/hkh/git/eapidk-code-r76-trunk/apps/EeePProg/linux/../EeePProg.c ****   {
  66:/home/hkh/git/eapidk-code-r76-trunk/apps/EeePProg/linux/../EeePProg.c ****   &CurOptions.CreateCOM0R20M.OutFile        ,
  67:/home/hkh/git/eapidk-code-r76-trunk/apps/EeePProg/linux/../EeePProg.c ****   sizeof(CurOptions.CreateCOM0R20M.OutFile) ,
  68:/home/hkh/git/eapidk-code-r76-trunk/apps/EeePProg/linux/../EeePProg.c ****   "<Filename>  Destination File"         ,
  69:/home/hkh/git/eapidk-code-r76-trunk/apps/EeePProg/linux/../EeePProg.c ****   StringArg
ARM GAS  /tmp/cc812cGb.s 			page 8


  70:/home/hkh/git/eapidk-code-r76-trunk/apps/EeePProg/linux/../EeePProg.c ****   },
  71:/home/hkh/git/eapidk-code-r76-trunk/apps/EeePProg/linux/../EeePProg.c **** };
  72:/home/hkh/git/eapidk-code-r76-trunk/apps/EeePProg/linux/../EeePProg.c **** ArgDesc_t  COM0R20M_EEP[]={
  73:/home/hkh/git/eapidk-code-r76-trunk/apps/EeePProg/linux/../EeePProg.c ****   {
  74:/home/hkh/git/eapidk-code-r76-trunk/apps/EeePProg/linux/../EeePProg.c ****   &CurOptions.szCOM0R20M_S2Cfg_File        ,
  75:/home/hkh/git/eapidk-code-r76-trunk/apps/EeePProg/linux/../EeePProg.c ****   sizeof(CurOptions.szCOM0R20M_S2Cfg_File) ,
  76:/home/hkh/git/eapidk-code-r76-trunk/apps/EeePProg/linux/../EeePProg.c ****   "<Filename>  Configuration Filename"   ,
  77:/home/hkh/git/eapidk-code-r76-trunk/apps/EeePProg/linux/../EeePProg.c ****   StringArg
  78:/home/hkh/git/eapidk-code-r76-trunk/apps/EeePProg/linux/../EeePProg.c ****   },
  79:/home/hkh/git/eapidk-code-r76-trunk/apps/EeePProg/linux/../EeePProg.c **** };
  80:/home/hkh/git/eapidk-code-r76-trunk/apps/EeePProg/linux/../EeePProg.c **** ArgDesc_t  COM0R20CB_Cfg[]={
  81:/home/hkh/git/eapidk-code-r76-trunk/apps/EeePProg/linux/../EeePProg.c ****   {
  82:/home/hkh/git/eapidk-code-r76-trunk/apps/EeePProg/linux/../EeePProg.c ****   &CurOptions.szCOM0R20CB_Cfg_File       ,
  83:/home/hkh/git/eapidk-code-r76-trunk/apps/EeePProg/linux/../EeePProg.c ****   sizeof(CurOptions.szCOM0R20CB_Cfg_File),
  84:/home/hkh/git/eapidk-code-r76-trunk/apps/EeePProg/linux/../EeePProg.c ****   "<Filename|stdout>  Destination File"  ,
  85:/home/hkh/git/eapidk-code-r76-trunk/apps/EeePProg/linux/../EeePProg.c ****   StringArg
  86:/home/hkh/git/eapidk-code-r76-trunk/apps/EeePProg/linux/../EeePProg.c ****   },
  87:/home/hkh/git/eapidk-code-r76-trunk/apps/EeePProg/linux/../EeePProg.c **** };
  88:/home/hkh/git/eapidk-code-r76-trunk/apps/EeePProg/linux/../EeePProg.c **** ArgDesc_t  COM0R20CB_Img[]={
  89:/home/hkh/git/eapidk-code-r76-trunk/apps/EeePProg/linux/../EeePProg.c ****   {
  90:/home/hkh/git/eapidk-code-r76-trunk/apps/EeePProg/linux/../EeePProg.c ****   &CurOptions.CreateCOM0R20CB.InFile       ,
  91:/home/hkh/git/eapidk-code-r76-trunk/apps/EeePProg/linux/../EeePProg.c ****   sizeof(CurOptions.CreateCOM0R20CB.InFile) ,
  92:/home/hkh/git/eapidk-code-r76-trunk/apps/EeePProg/linux/../EeePProg.c ****   "<Filename>  Configuration Filename"   ,
  93:/home/hkh/git/eapidk-code-r76-trunk/apps/EeePProg/linux/../EeePProg.c ****   StringArg
  94:/home/hkh/git/eapidk-code-r76-trunk/apps/EeePProg/linux/../EeePProg.c ****   },
  95:/home/hkh/git/eapidk-code-r76-trunk/apps/EeePProg/linux/../EeePProg.c ****   {
  96:/home/hkh/git/eapidk-code-r76-trunk/apps/EeePProg/linux/../EeePProg.c ****   &CurOptions.CreateCOM0R20CB.OutFile       ,
  97:/home/hkh/git/eapidk-code-r76-trunk/apps/EeePProg/linux/../EeePProg.c ****   sizeof(CurOptions.CreateCOM0R20CB.OutFile),
  98:/home/hkh/git/eapidk-code-r76-trunk/apps/EeePProg/linux/../EeePProg.c ****   "<Filename>  Destination File"          ,
  99:/home/hkh/git/eapidk-code-r76-trunk/apps/EeePProg/linux/../EeePProg.c ****   StringArg
 100:/home/hkh/git/eapidk-code-r76-trunk/apps/EeePProg/linux/../EeePProg.c ****   },
 101:/home/hkh/git/eapidk-code-r76-trunk/apps/EeePProg/linux/../EeePProg.c **** };
 102:/home/hkh/git/eapidk-code-r76-trunk/apps/EeePProg/linux/../EeePProg.c **** ArgDesc_t  COM0R20CB_EEP[]={
 103:/home/hkh/git/eapidk-code-r76-trunk/apps/EeePProg/linux/../EeePProg.c ****   {
 104:/home/hkh/git/eapidk-code-r76-trunk/apps/EeePProg/linux/../EeePProg.c ****   &CurOptions.szCOM0R20CB_S2Cfg_File        ,
 105:/home/hkh/git/eapidk-code-r76-trunk/apps/EeePProg/linux/../EeePProg.c ****   sizeof(CurOptions.szCOM0R20CB_S2Cfg_File) ,
 106:/home/hkh/git/eapidk-code-r76-trunk/apps/EeePProg/linux/../EeePProg.c ****   "<Filename>  Configuration Filename"   ,
 107:/home/hkh/git/eapidk-code-r76-trunk/apps/EeePProg/linux/../EeePProg.c ****   StringArg
 108:/home/hkh/git/eapidk-code-r76-trunk/apps/EeePProg/linux/../EeePProg.c ****   },
 109:/home/hkh/git/eapidk-code-r76-trunk/apps/EeePProg/linux/../EeePProg.c **** };
 110:/home/hkh/git/eapidk-code-r76-trunk/apps/EeePProg/linux/../EeePProg.c **** ArgDesc_t  EeePExpEEP_Cfg[]={
 111:/home/hkh/git/eapidk-code-r76-trunk/apps/EeePProg/linux/../EeePProg.c ****   {
 112:/home/hkh/git/eapidk-code-r76-trunk/apps/EeePProg/linux/../EeePProg.c ****   &CurOptions.szEeePExpEEP_Cfg_File        ,
 113:/home/hkh/git/eapidk-code-r76-trunk/apps/EeePProg/linux/../EeePProg.c ****   sizeof(CurOptions.szEeePExpEEP_Cfg_File) ,
 114:/home/hkh/git/eapidk-code-r76-trunk/apps/EeePProg/linux/../EeePProg.c ****   "<Filename|stdout>  Destination File"  ,
 115:/home/hkh/git/eapidk-code-r76-trunk/apps/EeePProg/linux/../EeePProg.c ****   StringArg
 116:/home/hkh/git/eapidk-code-r76-trunk/apps/EeePProg/linux/../EeePProg.c ****   },
 117:/home/hkh/git/eapidk-code-r76-trunk/apps/EeePProg/linux/../EeePProg.c **** };
 118:/home/hkh/git/eapidk-code-r76-trunk/apps/EeePProg/linux/../EeePProg.c **** ArgDesc_t  EeePExpEEP_Img[]={
 119:/home/hkh/git/eapidk-code-r76-trunk/apps/EeePProg/linux/../EeePProg.c ****   {
 120:/home/hkh/git/eapidk-code-r76-trunk/apps/EeePProg/linux/../EeePProg.c ****   &CurOptions.CreateEeePExpEEP.InFile       ,
 121:/home/hkh/git/eapidk-code-r76-trunk/apps/EeePProg/linux/../EeePProg.c ****   sizeof(CurOptions.CreateEeePExpEEP.InFile) ,
 122:/home/hkh/git/eapidk-code-r76-trunk/apps/EeePProg/linux/../EeePProg.c ****   "<Filename>  Configuration Filename"   ,
 123:/home/hkh/git/eapidk-code-r76-trunk/apps/EeePProg/linux/../EeePProg.c ****   StringArg
 124:/home/hkh/git/eapidk-code-r76-trunk/apps/EeePProg/linux/../EeePProg.c ****   },
 125:/home/hkh/git/eapidk-code-r76-trunk/apps/EeePProg/linux/../EeePProg.c ****   {
 126:/home/hkh/git/eapidk-code-r76-trunk/apps/EeePProg/linux/../EeePProg.c ****   &CurOptions.CreateEeePExpEEP.OutFile       ,
ARM GAS  /tmp/cc812cGb.s 			page 9


 127:/home/hkh/git/eapidk-code-r76-trunk/apps/EeePProg/linux/../EeePProg.c ****   sizeof(CurOptions.CreateEeePExpEEP.OutFile) ,
 128:/home/hkh/git/eapidk-code-r76-trunk/apps/EeePProg/linux/../EeePProg.c ****   "<Filename>  Destination File"            ,
 129:/home/hkh/git/eapidk-code-r76-trunk/apps/EeePProg/linux/../EeePProg.c ****   StringArg
 130:/home/hkh/git/eapidk-code-r76-trunk/apps/EeePProg/linux/../EeePProg.c ****   },
 131:/home/hkh/git/eapidk-code-r76-trunk/apps/EeePProg/linux/../EeePProg.c **** };
 132:/home/hkh/git/eapidk-code-r76-trunk/apps/EeePProg/linux/../EeePProg.c **** ArgDesc_t  EeePExpEEP_EEP[]={
 133:/home/hkh/git/eapidk-code-r76-trunk/apps/EeePProg/linux/../EeePProg.c ****   {
 134:/home/hkh/git/eapidk-code-r76-trunk/apps/EeePProg/linux/../EeePProg.c ****   &CurOptions.CreateEeePExpEEP_EEP.FileName   ,
 135:/home/hkh/git/eapidk-code-r76-trunk/apps/EeePProg/linux/../EeePProg.c ****   sizeof(CurOptions.CreateEeePExpEEP_EEP.FileName) ,
 136:/home/hkh/git/eapidk-code-r76-trunk/apps/EeePProg/linux/../EeePProg.c ****   "<Filename>  Configuration Filename"   ,
 137:/home/hkh/git/eapidk-code-r76-trunk/apps/EeePProg/linux/../EeePProg.c ****   StringArg
 138:/home/hkh/git/eapidk-code-r76-trunk/apps/EeePProg/linux/../EeePProg.c ****   },
 139:/home/hkh/git/eapidk-code-r76-trunk/apps/EeePProg/linux/../EeePProg.c ****   {
 140:/home/hkh/git/eapidk-code-r76-trunk/apps/EeePProg/linux/../EeePProg.c ****   &CurOptions.CreateEeePExpEEP_EEP.I2CBus     ,
 141:/home/hkh/git/eapidk-code-r76-trunk/apps/EeePProg/linux/../EeePProg.c ****   sizeof(CurOptions.CreateEeePExpEEP_EEP.I2CBus),
 142:/home/hkh/git/eapidk-code-r76-trunk/apps/EeePProg/linux/../EeePProg.c ****   "<EApi Id>      EApi Bus Id"             ,
 143:/home/hkh/git/eapidk-code-r76-trunk/apps/EeePProg/linux/../EeePProg.c ****   NumberArg
 144:/home/hkh/git/eapidk-code-r76-trunk/apps/EeePProg/linux/../EeePProg.c ****   },
 145:/home/hkh/git/eapidk-code-r76-trunk/apps/EeePProg/linux/../EeePProg.c ****   {
 146:/home/hkh/git/eapidk-code-r76-trunk/apps/EeePProg/linux/../EeePProg.c ****   &CurOptions.CreateEeePExpEEP_EEP.I2CDevAddr     ,
 147:/home/hkh/git/eapidk-code-r76-trunk/apps/EeePProg/linux/../EeePProg.c ****   sizeof(CurOptions.CreateEeePExpEEP_EEP.I2CDevAddr),
 148:/home/hkh/git/eapidk-code-r76-trunk/apps/EeePProg/linux/../EeePProg.c ****   "<I2C Address>  EEPROM Device Address"   ,
 149:/home/hkh/git/eapidk-code-r76-trunk/apps/EeePProg/linux/../EeePProg.c ****   NumberArg
 150:/home/hkh/git/eapidk-code-r76-trunk/apps/EeePProg/linux/../EeePProg.c ****   },
 151:/home/hkh/git/eapidk-code-r76-trunk/apps/EeePProg/linux/../EeePProg.c **** };
 152:/home/hkh/git/eapidk-code-r76-trunk/apps/EeePProg/linux/../EeePProg.c **** ArgDesc_t  EeePExpEEP_PEEP[]={
 153:/home/hkh/git/eapidk-code-r76-trunk/apps/EeePProg/linux/../EeePProg.c ****   {
 154:/home/hkh/git/eapidk-code-r76-trunk/apps/EeePProg/linux/../EeePProg.c ****   &CurOptions.ProgramEeePExpEEP_EEP.FileName   ,
 155:/home/hkh/git/eapidk-code-r76-trunk/apps/EeePProg/linux/../EeePProg.c ****   sizeof(CurOptions.ProgramEeePExpEEP_EEP.FileName) ,
 156:/home/hkh/git/eapidk-code-r76-trunk/apps/EeePProg/linux/../EeePProg.c ****   "<Filename>  Binary Image Filename"       ,
 157:/home/hkh/git/eapidk-code-r76-trunk/apps/EeePProg/linux/../EeePProg.c ****   StringArg
 158:/home/hkh/git/eapidk-code-r76-trunk/apps/EeePProg/linux/../EeePProg.c ****   },
 159:/home/hkh/git/eapidk-code-r76-trunk/apps/EeePProg/linux/../EeePProg.c ****   {
 160:/home/hkh/git/eapidk-code-r76-trunk/apps/EeePProg/linux/../EeePProg.c ****   &CurOptions.ProgramEeePExpEEP_EEP.I2CBus   ,
 161:/home/hkh/git/eapidk-code-r76-trunk/apps/EeePProg/linux/../EeePProg.c ****   sizeof(CurOptions.ProgramEeePExpEEP_EEP.I2CBus) ,
 162:/home/hkh/git/eapidk-code-r76-trunk/apps/EeePProg/linux/../EeePProg.c ****   "<EApi Id>      EApi Bus Id"             ,
 163:/home/hkh/git/eapidk-code-r76-trunk/apps/EeePProg/linux/../EeePProg.c ****   NumberArg
 164:/home/hkh/git/eapidk-code-r76-trunk/apps/EeePProg/linux/../EeePProg.c ****   },
 165:/home/hkh/git/eapidk-code-r76-trunk/apps/EeePProg/linux/../EeePProg.c ****   {
 166:/home/hkh/git/eapidk-code-r76-trunk/apps/EeePProg/linux/../EeePProg.c ****   &CurOptions.ProgramEeePExpEEP_EEP.I2CDevAddr   ,
 167:/home/hkh/git/eapidk-code-r76-trunk/apps/EeePProg/linux/../EeePProg.c ****   sizeof(CurOptions.ProgramEeePExpEEP_EEP.I2CDevAddr) ,
 168:/home/hkh/git/eapidk-code-r76-trunk/apps/EeePProg/linux/../EeePProg.c ****   "<I2C Address>  EEPROM Device Address"   ,
 169:/home/hkh/git/eapidk-code-r76-trunk/apps/EeePProg/linux/../EeePProg.c ****   NumberArg
 170:/home/hkh/git/eapidk-code-r76-trunk/apps/EeePProg/linux/../EeePProg.c ****   },
 171:/home/hkh/git/eapidk-code-r76-trunk/apps/EeePProg/linux/../EeePProg.c **** };
 172:/home/hkh/git/eapidk-code-r76-trunk/apps/EeePProg/linux/../EeePProg.c **** ArgDesc_t  COM0R20CB_IMG[]={
 173:/home/hkh/git/eapidk-code-r76-trunk/apps/EeePProg/linux/../EeePProg.c ****   {
 174:/home/hkh/git/eapidk-code-r76-trunk/apps/EeePProg/linux/../EeePProg.c ****   &CurOptions.szCOM0R20CBEEP_To_Img_FName        ,
 175:/home/hkh/git/eapidk-code-r76-trunk/apps/EeePProg/linux/../EeePProg.c ****   sizeof(CurOptions.szCOM0R20CBEEP_To_Img_FName) ,
 176:/home/hkh/git/eapidk-code-r76-trunk/apps/EeePProg/linux/../EeePProg.c ****   "<Filename>  Binary Image Filename"       ,
 177:/home/hkh/git/eapidk-code-r76-trunk/apps/EeePProg/linux/../EeePProg.c ****   StringArg
 178:/home/hkh/git/eapidk-code-r76-trunk/apps/EeePProg/linux/../EeePProg.c ****   },
 179:/home/hkh/git/eapidk-code-r76-trunk/apps/EeePProg/linux/../EeePProg.c **** };
 180:/home/hkh/git/eapidk-code-r76-trunk/apps/EeePProg/linux/../EeePProg.c **** ArgDesc_t  COM0R20M_IMG[]={
 181:/home/hkh/git/eapidk-code-r76-trunk/apps/EeePProg/linux/../EeePProg.c ****   {
 182:/home/hkh/git/eapidk-code-r76-trunk/apps/EeePProg/linux/../EeePProg.c ****   &CurOptions.szCOM0R20MEEP_To_Img_FName        ,
 183:/home/hkh/git/eapidk-code-r76-trunk/apps/EeePProg/linux/../EeePProg.c ****   sizeof(CurOptions.szCOM0R20MEEP_To_Img_FName) ,
ARM GAS  /tmp/cc812cGb.s 			page 10


 184:/home/hkh/git/eapidk-code-r76-trunk/apps/EeePProg/linux/../EeePProg.c ****   "<Filename>  Binary Image Filename"       ,
 185:/home/hkh/git/eapidk-code-r76-trunk/apps/EeePProg/linux/../EeePProg.c ****   StringArg
 186:/home/hkh/git/eapidk-code-r76-trunk/apps/EeePProg/linux/../EeePProg.c ****   },
 187:/home/hkh/git/eapidk-code-r76-trunk/apps/EeePProg/linux/../EeePProg.c **** };
 188:/home/hkh/git/eapidk-code-r76-trunk/apps/EeePProg/linux/../EeePProg.c **** ArgDesc_t  EeePExpEEP_IMG[]={
 189:/home/hkh/git/eapidk-code-r76-trunk/apps/EeePProg/linux/../EeePProg.c ****   {
 190:/home/hkh/git/eapidk-code-r76-trunk/apps/EeePProg/linux/../EeePProg.c ****   &CurOptions.StoreEeePExpEEP_EEP.FileName   ,
 191:/home/hkh/git/eapidk-code-r76-trunk/apps/EeePProg/linux/../EeePProg.c ****   sizeof(CurOptions.StoreEeePExpEEP_EEP.FileName) ,
 192:/home/hkh/git/eapidk-code-r76-trunk/apps/EeePProg/linux/../EeePProg.c ****   "<Filename>  Binary Image Filename"       ,
 193:/home/hkh/git/eapidk-code-r76-trunk/apps/EeePProg/linux/../EeePProg.c ****   StringArg
 194:/home/hkh/git/eapidk-code-r76-trunk/apps/EeePProg/linux/../EeePProg.c ****   },
 195:/home/hkh/git/eapidk-code-r76-trunk/apps/EeePProg/linux/../EeePProg.c ****   {
 196:/home/hkh/git/eapidk-code-r76-trunk/apps/EeePProg/linux/../EeePProg.c ****   &CurOptions.StoreEeePExpEEP_EEP.I2CBus     ,
 197:/home/hkh/git/eapidk-code-r76-trunk/apps/EeePProg/linux/../EeePProg.c ****   sizeof(CurOptions.StoreEeePExpEEP_EEP.I2CBus),
 198:/home/hkh/git/eapidk-code-r76-trunk/apps/EeePProg/linux/../EeePProg.c ****   "<EApi Id>      EApi Bus Id"             ,
 199:/home/hkh/git/eapidk-code-r76-trunk/apps/EeePProg/linux/../EeePProg.c ****   NumberArg
 200:/home/hkh/git/eapidk-code-r76-trunk/apps/EeePProg/linux/../EeePProg.c ****   },
 201:/home/hkh/git/eapidk-code-r76-trunk/apps/EeePProg/linux/../EeePProg.c ****   {
 202:/home/hkh/git/eapidk-code-r76-trunk/apps/EeePProg/linux/../EeePProg.c ****   &CurOptions.StoreEeePExpEEP_EEP.I2CDevAddr     ,
 203:/home/hkh/git/eapidk-code-r76-trunk/apps/EeePProg/linux/../EeePProg.c ****   sizeof(CurOptions.StoreEeePExpEEP_EEP.I2CDevAddr),
 204:/home/hkh/git/eapidk-code-r76-trunk/apps/EeePProg/linux/../EeePProg.c ****   "<I2C Address>  EEPROM Device Address"   ,
 205:/home/hkh/git/eapidk-code-r76-trunk/apps/EeePProg/linux/../EeePProg.c ****   NumberArg
 206:/home/hkh/git/eapidk-code-r76-trunk/apps/EeePProg/linux/../EeePProg.c ****   },
 207:/home/hkh/git/eapidk-code-r76-trunk/apps/EeePProg/linux/../EeePProg.c **** };
 208:/home/hkh/git/eapidk-code-r76-trunk/apps/EeePProg/linux/../EeePProg.c **** ArgDesc_t  COM0R20CB_PEEP[]={
 209:/home/hkh/git/eapidk-code-r76-trunk/apps/EeePProg/linux/../EeePProg.c ****   {
 210:/home/hkh/git/eapidk-code-r76-trunk/apps/EeePProg/linux/../EeePProg.c ****   &CurOptions.szCOM0R20CB_SBIN_File        ,
 211:/home/hkh/git/eapidk-code-r76-trunk/apps/EeePProg/linux/../EeePProg.c ****   sizeof(CurOptions.szCOM0R20CB_SBIN_File) ,
 212:/home/hkh/git/eapidk-code-r76-trunk/apps/EeePProg/linux/../EeePProg.c ****   "<Filename>  Binary Image Filename"       ,
 213:/home/hkh/git/eapidk-code-r76-trunk/apps/EeePProg/linux/../EeePProg.c ****   StringArg
 214:/home/hkh/git/eapidk-code-r76-trunk/apps/EeePProg/linux/../EeePProg.c ****   },
 215:/home/hkh/git/eapidk-code-r76-trunk/apps/EeePProg/linux/../EeePProg.c **** };
 216:/home/hkh/git/eapidk-code-r76-trunk/apps/EeePProg/linux/../EeePProg.c **** ArgDesc_t  COM0R20M_PEEP[]={
 217:/home/hkh/git/eapidk-code-r76-trunk/apps/EeePProg/linux/../EeePProg.c ****   {
 218:/home/hkh/git/eapidk-code-r76-trunk/apps/EeePProg/linux/../EeePProg.c ****   &CurOptions.szCOM0R20M_SBIN_File        ,
 219:/home/hkh/git/eapidk-code-r76-trunk/apps/EeePProg/linux/../EeePProg.c ****   sizeof(CurOptions.szCOM0R20M_SBIN_File) ,
 220:/home/hkh/git/eapidk-code-r76-trunk/apps/EeePProg/linux/../EeePProg.c ****   "<Filename>  Binary Image Filename"       ,
 221:/home/hkh/git/eapidk-code-r76-trunk/apps/EeePProg/linux/../EeePProg.c ****   StringArg
 222:/home/hkh/git/eapidk-code-r76-trunk/apps/EeePProg/linux/../EeePProg.c ****   },
 223:/home/hkh/git/eapidk-code-r76-trunk/apps/EeePProg/linux/../EeePProg.c **** };
 224:/home/hkh/git/eapidk-code-r76-trunk/apps/EeePProg/linux/../EeePProg.c **** ArgDesc_t  GEN_LIST_DBLOCKS_FILE[]={
 225:/home/hkh/git/eapidk-code-r76-trunk/apps/EeePProg/linux/../EeePProg.c ****   {
 226:/home/hkh/git/eapidk-code-r76-trunk/apps/EeePProg/linux/../EeePProg.c ****   &CurOptions.szGEN_List_DBlocks_File        ,
 227:/home/hkh/git/eapidk-code-r76-trunk/apps/EeePProg/linux/../EeePProg.c ****   sizeof(CurOptions.szGEN_List_DBlocks_File) ,
 228:/home/hkh/git/eapidk-code-r76-trunk/apps/EeePProg/linux/../EeePProg.c ****   "<Filename>  Binary Image Filename"       ,
 229:/home/hkh/git/eapidk-code-r76-trunk/apps/EeePProg/linux/../EeePProg.c ****   StringArg
 230:/home/hkh/git/eapidk-code-r76-trunk/apps/EeePProg/linux/../EeePProg.c ****   },
 231:/home/hkh/git/eapidk-code-r76-trunk/apps/EeePProg/linux/../EeePProg.c **** };
 232:/home/hkh/git/eapidk-code-r76-trunk/apps/EeePProg/linux/../EeePProg.c **** ArgDesc_t  GEN_LIST_DBLOCKS_EEP[]={
 233:/home/hkh/git/eapidk-code-r76-trunk/apps/EeePProg/linux/../EeePProg.c ****   {
 234:/home/hkh/git/eapidk-code-r76-trunk/apps/EeePProg/linux/../EeePProg.c ****   &CurOptions.ulEEP_Img.I2CBus                ,
 235:/home/hkh/git/eapidk-code-r76-trunk/apps/EeePProg/linux/../EeePProg.c ****   sizeof(CurOptions.ulEEP_Img.I2CBus)         ,
 236:/home/hkh/git/eapidk-code-r76-trunk/apps/EeePProg/linux/../EeePProg.c ****   "<EApi Id>      EApi Bus Id"                ,
 237:/home/hkh/git/eapidk-code-r76-trunk/apps/EeePProg/linux/../EeePProg.c ****   NumberArg
 238:/home/hkh/git/eapidk-code-r76-trunk/apps/EeePProg/linux/../EeePProg.c ****   },
 239:/home/hkh/git/eapidk-code-r76-trunk/apps/EeePProg/linux/../EeePProg.c ****   {
 240:/home/hkh/git/eapidk-code-r76-trunk/apps/EeePProg/linux/../EeePProg.c ****   &CurOptions.ulEEP_Img.I2CDevAddr            ,
ARM GAS  /tmp/cc812cGb.s 			page 11


 241:/home/hkh/git/eapidk-code-r76-trunk/apps/EeePProg/linux/../EeePProg.c ****   sizeof(CurOptions.ulEEP_Img.I2CDevAddr)     ,
 242:/home/hkh/git/eapidk-code-r76-trunk/apps/EeePProg/linux/../EeePProg.c ****   "<I2C Address>  EEPROM Device Address"      ,
 243:/home/hkh/git/eapidk-code-r76-trunk/apps/EeePProg/linux/../EeePProg.c ****   NumberArg
 244:/home/hkh/git/eapidk-code-r76-trunk/apps/EeePProg/linux/../EeePProg.c ****   },
 245:/home/hkh/git/eapidk-code-r76-trunk/apps/EeePProg/linux/../EeePProg.c **** };
 246:/home/hkh/git/eapidk-code-r76-trunk/apps/EeePProg/linux/../EeePProg.c **** 
 247:/home/hkh/git/eapidk-code-r76-trunk/apps/EeePProg/linux/../EeePProg.c **** EApiStatus_t
 248:/home/hkh/git/eapidk-code-r76-trunk/apps/EeePProg/linux/../EeePProg.c **** CreateTxtFilePtr(
 249:/home/hkh/git/eapidk-code-r76-trunk/apps/EeePProg/linux/../EeePProg.c ****     const char *Destination,
 250:/home/hkh/git/eapidk-code-r76-trunk/apps/EeePProg/linux/../EeePProg.c ****     FILE **     FilePtr
 251:/home/hkh/git/eapidk-code-r76-trunk/apps/EeePProg/linux/../EeePProg.c ****     )
 252:/home/hkh/git/eapidk-code-r76-trunk/apps/EeePProg/linux/../EeePProg.c **** {
 302              		.loc 1 252 1
 303              		.cfi_startproc
 304              		@ args = 0, pretend = 0, frame = 16
 305              		@ frame_needed = 1, uses_anonymous_args = 0
 306 0000 10482DE9 		push	{r4, fp, lr}
 307              		.cfi_def_cfa_offset 12
 308              		.cfi_offset 4, -12
 309              		.cfi_offset 11, -8
 310              		.cfi_offset 14, -4
 311 0004 08B08DE2 		add	fp, sp, #8
 312              		.cfi_def_cfa 11, 4
 313 0008 24D04DE2 		sub	sp, sp, #36
 314 000c 18000BE5 		str	r0, [fp, #-24]
 315 0010 1C100BE5 		str	r1, [fp, #-28]
 316 0014 7C419FE5 		ldr	r4, .L9
 317              	.LPIC1:
 318 0018 04408FE0 		add	r4, pc, r4
 253:/home/hkh/git/eapidk-code-r76-trunk/apps/EeePProg/linux/../EeePProg.c ****   EApiStatus_t StatusCode=EAPI_STATUS_SUCCESS;
 319              		.loc 1 253 16
 320 001c 0030A0E3 		mov	r3, #0
 321 0020 10300BE5 		str	r3, [fp, #-16]
 254:/home/hkh/git/eapidk-code-r76-trunk/apps/EeePProg/linux/../EeePProg.c ****   if(!strcmp(Destination, "stdout")){
 322              		.loc 1 254 7
 323 0024 70319FE5 		ldr	r3, .L9+4
 324              	.LPIC0:
 325 0028 03308FE0 		add	r3, pc, r3
 326 002c 0310A0E1 		mov	r1, r3
 327 0030 18001BE5 		ldr	r0, [fp, #-24]
 328 0034 FEFFFFEB 		bl	strcmp(PLT)
 329 0038 0030A0E1 		mov	r3, r0
 330              		.loc 1 254 5
 331 003c 000053E3 		cmp	r3, #0
 332 0040 0500001A 		bne	.L2
 255:/home/hkh/git/eapidk-code-r76-trunk/apps/EeePProg/linux/../EeePProg.c ****      *FilePtr=stdout;
 333              		.loc 1 255 14
 334 0044 54319FE5 		ldr	r3, .L9+8
 335 0048 033094E7 		ldr	r3, [r4, r3]
 336 004c 002093E5 		ldr	r2, [r3]
 337 0050 1C301BE5 		ldr	r3, [fp, #-28]
 338 0054 002083E5 		str	r2, [r3]
 339 0058 4A0000EA 		b	.L3
 340              	.L2:
 256:/home/hkh/git/eapidk-code-r76-trunk/apps/EeePProg/linux/../EeePProg.c ****   }else if(!strcmp(Destination, "&1")){
 341              		.loc 1 256 13
 342 005c 40319FE5 		ldr	r3, .L9+12
ARM GAS  /tmp/cc812cGb.s 			page 12


 343              	.LPIC2:
 344 0060 03308FE0 		add	r3, pc, r3
 345 0064 0310A0E1 		mov	r1, r3
 346 0068 18001BE5 		ldr	r0, [fp, #-24]
 347 006c FEFFFFEB 		bl	strcmp(PLT)
 348 0070 0030A0E1 		mov	r3, r0
 349              		.loc 1 256 11
 350 0074 000053E3 		cmp	r3, #0
 351 0078 0500001A 		bne	.L4
 257:/home/hkh/git/eapidk-code-r76-trunk/apps/EeePProg/linux/../EeePProg.c ****      *FilePtr=stdout;
 352              		.loc 1 257 14
 353 007c 1C319FE5 		ldr	r3, .L9+8
 354 0080 033094E7 		ldr	r3, [r4, r3]
 355 0084 002093E5 		ldr	r2, [r3]
 356 0088 1C301BE5 		ldr	r3, [fp, #-28]
 357 008c 002083E5 		str	r2, [r3]
 358 0090 3C0000EA 		b	.L3
 359              	.L4:
 258:/home/hkh/git/eapidk-code-r76-trunk/apps/EeePProg/linux/../EeePProg.c ****   }else if(!strcmp(Destination, "stderr")){
 360              		.loc 1 258 13
 361 0094 0C319FE5 		ldr	r3, .L9+16
 362              	.LPIC3:
 363 0098 03308FE0 		add	r3, pc, r3
 364 009c 0310A0E1 		mov	r1, r3
 365 00a0 18001BE5 		ldr	r0, [fp, #-24]
 366 00a4 FEFFFFEB 		bl	strcmp(PLT)
 367 00a8 0030A0E1 		mov	r3, r0
 368              		.loc 1 258 11
 369 00ac 000053E3 		cmp	r3, #0
 370 00b0 0500001A 		bne	.L5
 259:/home/hkh/git/eapidk-code-r76-trunk/apps/EeePProg/linux/../EeePProg.c ****      *FilePtr=stderr;
 371              		.loc 1 259 14
 372 00b4 F0309FE5 		ldr	r3, .L9+20
 373 00b8 033094E7 		ldr	r3, [r4, r3]
 374 00bc 002093E5 		ldr	r2, [r3]
 375 00c0 1C301BE5 		ldr	r3, [fp, #-28]
 376 00c4 002083E5 		str	r2, [r3]
 377 00c8 2E0000EA 		b	.L3
 378              	.L5:
 260:/home/hkh/git/eapidk-code-r76-trunk/apps/EeePProg/linux/../EeePProg.c ****   }else if(!strcmp(Destination, "&2")){
 379              		.loc 1 260 13
 380 00cc DC309FE5 		ldr	r3, .L9+24
 381              	.LPIC4:
 382 00d0 03308FE0 		add	r3, pc, r3
 383 00d4 0310A0E1 		mov	r1, r3
 384 00d8 18001BE5 		ldr	r0, [fp, #-24]
 385 00dc FEFFFFEB 		bl	strcmp(PLT)
 386 00e0 0030A0E1 		mov	r3, r0
 387              		.loc 1 260 11
 388 00e4 000053E3 		cmp	r3, #0
 389 00e8 0500001A 		bne	.L6
 261:/home/hkh/git/eapidk-code-r76-trunk/apps/EeePProg/linux/../EeePProg.c ****      *FilePtr=stderr;
 390              		.loc 1 261 14
 391 00ec B8309FE5 		ldr	r3, .L9+20
 392 00f0 033094E7 		ldr	r3, [r4, r3]
 393 00f4 002093E5 		ldr	r2, [r3]
 394 00f8 1C301BE5 		ldr	r3, [fp, #-28]
ARM GAS  /tmp/cc812cGb.s 			page 13


 395 00fc 002083E5 		str	r2, [r3]
 396 0100 200000EA 		b	.L3
 397              	.L6:
 262:/home/hkh/git/eapidk-code-r76-trunk/apps/EeePProg/linux/../EeePProg.c ****   }else {
 263:/home/hkh/git/eapidk-code-r76-trunk/apps/EeePProg/linux/../EeePProg.c ****     *FilePtr=fopen(Destination, "w");
 398              		.loc 1 263 14
 399 0104 A8309FE5 		ldr	r3, .L9+28
 400              	.LPIC5:
 401 0108 03308FE0 		add	r3, pc, r3
 402 010c 0310A0E1 		mov	r1, r3
 403 0110 18001BE5 		ldr	r0, [fp, #-24]
 404 0114 FEFFFFEB 		bl	fopen(PLT)
 405 0118 0020A0E1 		mov	r2, r0
 406              		.loc 1 263 13
 407 011c 1C301BE5 		ldr	r3, [fp, #-28]
 408 0120 002083E5 		str	r2, [r3]
 264:/home/hkh/git/eapidk-code-r76-trunk/apps/EeePProg/linux/../EeePProg.c ****     EAPI_APP_RETURN_ERROR_IF_S(
 409              		.loc 1 264 5
 410 0124 1C301BE5 		ldr	r3, [fp, #-28]
 411 0128 003093E5 		ldr	r3, [r3]
 412 012c 000053E3 		cmp	r3, #0
 413 0130 1300001A 		bne	.L8
 414              		.loc 1 264 5 is_stmt 0 discriminator 1
 415 0134 7C309FE5 		ldr	r3, .L9+32
 416              	.LPIC6:
 417 0138 03308FE0 		add	r3, pc, r3
 418 013c 08308DE5 		str	r3, [sp, #8]
 419 0140 74309FE5 		ldr	r3, .L9+36
 420              	.LPIC7:
 421 0144 03308FE0 		add	r3, pc, r3
 422 0148 04308DE5 		str	r3, [sp, #4]
 423 014c FE3A0FE3 		movw	r3, #64254
 424 0150 FF3F4FE3 		movt	r3, 65535
 425 0154 00308DE5 		str	r3, [sp]
 426 0158 423FA0E3 		mov	r3, #264
 427 015c 5C209FE5 		ldr	r2, .L9+40
 428              	.LPIC8:
 429 0160 02208FE0 		add	r2, pc, r2
 430 0164 58109FE5 		ldr	r1, .L9+44
 431              	.LPIC9:
 432 0168 01108FE0 		add	r1, pc, r1
 433 016c 4500A0E3 		mov	r0, #69
 434 0170 FEFFFFEB 		bl	siFormattedMessage_SC(PLT)
 435 0174 FE3A0FE3 		movw	r3, #64254
 436 0178 FF3F4FE3 		movt	r3, 65535
 437 017c 10300BE5 		str	r3, [fp, #-16]
 438 0180 000000EA 		b	.L3
 439              	.L8:
 265:/home/hkh/git/eapidk-code-r76-trunk/apps/EeePProg/linux/../EeePProg.c ****          CreateTxtFilePtr,
 266:/home/hkh/git/eapidk-code-r76-trunk/apps/EeePProg/linux/../EeePProg.c ****          (*FilePtr==NULL),
 267:/home/hkh/git/eapidk-code-r76-trunk/apps/EeePProg/linux/../EeePProg.c ****          EAPI_STATUS_WRITE_ERROR
 268:/home/hkh/git/eapidk-code-r76-trunk/apps/EeePProg/linux/../EeePProg.c ****       );
 269:/home/hkh/git/eapidk-code-r76-trunk/apps/EeePProg/linux/../EeePProg.c ****   }
 270:/home/hkh/git/eapidk-code-r76-trunk/apps/EeePProg/linux/../EeePProg.c **** EAPI_APP_ASSERT_EXIT
 440              		.loc 1 270 1 is_stmt 1
 441 0184 00F020E3 		nop
 442              	.L3:
ARM GAS  /tmp/cc812cGb.s 			page 14


 271:/home/hkh/git/eapidk-code-r76-trunk/apps/EeePProg/linux/../EeePProg.c ****   return StatusCode;
 443              		.loc 1 271 10
 444 0188 10301BE5 		ldr	r3, [fp, #-16]
 272:/home/hkh/git/eapidk-code-r76-trunk/apps/EeePProg/linux/../EeePProg.c **** }
 445              		.loc 1 272 1
 446 018c 0300A0E1 		mov	r0, r3
 447 0190 08D04BE2 		sub	sp, fp, #8
 448              		.cfi_def_cfa 13, 12
 449              		@ sp needed
 450 0194 1088BDE8 		pop	{r4, fp, pc}
 451              	.L10:
 452              		.align	2
 453              	.L9:
 454 0198 78010000 		.word	_GLOBAL_OFFSET_TABLE_-(.LPIC1+8)
 455 019c 50030000 		.word	.LC6-(.LPIC0+8)
 456 01a0 00000000 		.word	stdout(GOT)
 457 01a4 28030000 		.word	.LC7-(.LPIC2+8)
 458 01a8 F8020000 		.word	.LC8-(.LPIC3+8)
 459 01ac 00000000 		.word	stderr(GOT)
 460 01b0 D0020000 		.word	.LC9-(.LPIC4+8)
 461 01b4 A0020000 		.word	.LC10-(.LPIC5+8)
 462 01b8 D4020000 		.word	.LC13-(.LPIC6+8)
 463 01bc E0020000 		.word	.LC14-(.LPIC7+8)
 464 01c0 58020000 		.word	.LC11-(.LPIC8+8)
 465 01c4 68020000 		.word	.LC12-(.LPIC9+8)
 466              		.cfi_endproc
 467              	.LFE1:
 469              		.align	2
 470              		.global	FreeFilePtr
 471              		.syntax unified
 472              		.arm
 473              		.fpu vfpv3
 475              	FreeFilePtr:
 476              	.LFB2:
 273:/home/hkh/git/eapidk-code-r76-trunk/apps/EeePProg/linux/../EeePProg.c **** EApiStatus_t
 274:/home/hkh/git/eapidk-code-r76-trunk/apps/EeePProg/linux/../EeePProg.c **** FreeFilePtr(
 275:/home/hkh/git/eapidk-code-r76-trunk/apps/EeePProg/linux/../EeePProg.c ****     FILE **     FilePtr
 276:/home/hkh/git/eapidk-code-r76-trunk/apps/EeePProg/linux/../EeePProg.c ****     )
 277:/home/hkh/git/eapidk-code-r76-trunk/apps/EeePProg/linux/../EeePProg.c **** {
 477              		.loc 1 277 1
 478              		.cfi_startproc
 479              		@ args = 0, pretend = 0, frame = 16
 480              		@ frame_needed = 1, uses_anonymous_args = 0
 481 01c8 00482DE9 		push	{fp, lr}
 482              		.cfi_def_cfa_offset 8
 483              		.cfi_offset 11, -8
 484              		.cfi_offset 14, -4
 485 01cc 04B08DE2 		add	fp, sp, #4
 486              		.cfi_def_cfa 11, 4
 487 01d0 10D04DE2 		sub	sp, sp, #16
 488 01d4 10000BE5 		str	r0, [fp, #-16]
 489 01d8 6C309FE5 		ldr	r3, .L14
 490              	.LPIC10:
 491 01dc 03308FE0 		add	r3, pc, r3
 278:/home/hkh/git/eapidk-code-r76-trunk/apps/EeePProg/linux/../EeePProg.c ****   FILE *     LclFilePtr=*FilePtr;
 492              		.loc 1 278 14
 493 01e0 10201BE5 		ldr	r2, [fp, #-16]
ARM GAS  /tmp/cc812cGb.s 			page 15


 494 01e4 002092E5 		ldr	r2, [r2]
 495 01e8 08200BE5 		str	r2, [fp, #-8]
 279:/home/hkh/git/eapidk-code-r76-trunk/apps/EeePProg/linux/../EeePProg.c ****   if(LclFilePtr!=stdout&&LclFilePtr!=stderr&&LclFilePtr!=NULL){
 496              		.loc 1 279 16
 497 01ec 5C209FE5 		ldr	r2, .L14+4
 498 01f0 022093E7 		ldr	r2, [r3, r2]
 499 01f4 002092E5 		ldr	r2, [r2]
 500              		.loc 1 279 5
 501 01f8 08101BE5 		ldr	r1, [fp, #-8]
 502 01fc 020051E1 		cmp	r1, r2
 503 0200 0A00000A 		beq	.L12
 504              		.loc 1 279 36 discriminator 1
 505 0204 48209FE5 		ldr	r2, .L14+8
 506 0208 023093E7 		ldr	r3, [r3, r2]
 507 020c 003093E5 		ldr	r3, [r3]
 508              		.loc 1 279 24 discriminator 1
 509 0210 08201BE5 		ldr	r2, [fp, #-8]
 510 0214 030052E1 		cmp	r2, r3
 511 0218 0400000A 		beq	.L12
 512              		.loc 1 279 44 discriminator 2
 513 021c 08301BE5 		ldr	r3, [fp, #-8]
 514 0220 000053E3 		cmp	r3, #0
 515 0224 0100000A 		beq	.L12
 280:/home/hkh/git/eapidk-code-r76-trunk/apps/EeePProg/linux/../EeePProg.c ****     fclose(LclFilePtr);
 516              		.loc 1 280 5
 517 0228 08001BE5 		ldr	r0, [fp, #-8]
 518 022c FEFFFFEB 		bl	fclose(PLT)
 519              	.L12:
 281:/home/hkh/git/eapidk-code-r76-trunk/apps/EeePProg/linux/../EeePProg.c ****   };
 282:/home/hkh/git/eapidk-code-r76-trunk/apps/EeePProg/linux/../EeePProg.c ****   *FilePtr=NULL;
 520              		.loc 1 282 11
 521 0230 10301BE5 		ldr	r3, [fp, #-16]
 522 0234 0020A0E3 		mov	r2, #0
 523 0238 002083E5 		str	r2, [r3]
 283:/home/hkh/git/eapidk-code-r76-trunk/apps/EeePProg/linux/../EeePProg.c ****   return EAPI_STATUS_SUCCESS;
 524              		.loc 1 283 10
 525 023c 0030A0E3 		mov	r3, #0
 284:/home/hkh/git/eapidk-code-r76-trunk/apps/EeePProg/linux/../EeePProg.c **** }
 526              		.loc 1 284 1
 527 0240 0300A0E1 		mov	r0, r3
 528 0244 04D04BE2 		sub	sp, fp, #4
 529              		.cfi_def_cfa 13, 8
 530              		@ sp needed
 531 0248 0088BDE8 		pop	{fp, pc}
 532              	.L15:
 533              		.align	2
 534              	.L14:
 535 024c 68000000 		.word	_GLOBAL_OFFSET_TABLE_-(.LPIC10+8)
 536 0250 00000000 		.word	stdout(GOT)
 537 0254 00000000 		.word	stderr(GOT)
 538              		.cfi_endproc
 539              	.LFE2:
 541              		.section	.rodata
 542              		.align	2
 543              	.LC15:
 544 0274 54422000 		.ascii	"TB \000"
 545              		.align	2
ARM GAS  /tmp/cc812cGb.s 			page 16


 546              	.LC16:
 547 0278 43726561 		.ascii	"CreateTxtFilePtr(*(char**)pArgData, &lclStream)\000"
 547      74655478 
 547      7446696C 
 547      65507472 
 547      282A2863 
 548              		.align	2
 549              	.LC17:
 550 02a8 45656550 		.ascii	"EeeP_CreateCOM0R20_MEEPCfg(lclStream)\000"
 550      5F437265 
 550      61746543 
 550      4F4D3052 
 550      32305F4D 
 551              		.text
 552              		.align	2
 553              		.global	CMD_CreateCOM0R20_MEEPCfg
 554              		.syntax unified
 555              		.arm
 556              		.fpu vfpv3
 558              	CMD_CreateCOM0R20_MEEPCfg:
 559              	.LFB3:
 285:/home/hkh/git/eapidk-code-r76-trunk/apps/EeePProg/linux/../EeePProg.c **** #define FREE_BUFFER(x) \
 286:/home/hkh/git/eapidk-code-r76-trunk/apps/EeePProg/linux/../EeePProg.c ****       if(x!=NULL){\
 287:/home/hkh/git/eapidk-code-r76-trunk/apps/EeePProg/linux/../EeePProg.c ****           free(x);\
 288:/home/hkh/git/eapidk-code-r76-trunk/apps/EeePProg/linux/../EeePProg.c ****           x=NULL;\
 289:/home/hkh/git/eapidk-code-r76-trunk/apps/EeePProg/linux/../EeePProg.c ****       }
 290:/home/hkh/git/eapidk-code-r76-trunk/apps/EeePProg/linux/../EeePProg.c **** 
 291:/home/hkh/git/eapidk-code-r76-trunk/apps/EeePProg/linux/../EeePProg.c **** EApiStatus_t 
 292:/home/hkh/git/eapidk-code-r76-trunk/apps/EeePProg/linux/../EeePProg.c **** CMD_CreateCOM0R20_MEEPCfg(
 293:/home/hkh/git/eapidk-code-r76-trunk/apps/EeePProg/linux/../EeePProg.c ****     void *pArgData
 294:/home/hkh/git/eapidk-code-r76-trunk/apps/EeePProg/linux/../EeePProg.c ****     )
 295:/home/hkh/git/eapidk-code-r76-trunk/apps/EeePProg/linux/../EeePProg.c **** {
 560              		.loc 1 295 1
 561              		.cfi_startproc
 562              		@ args = 0, pretend = 0, frame = 24
 563              		@ frame_needed = 1, uses_anonymous_args = 0
 564 0258 00482DE9 		push	{fp, lr}
 565              		.cfi_def_cfa_offset 8
 566              		.cfi_offset 11, -8
 567              		.cfi_offset 14, -4
 568 025c 04B08DE2 		add	fp, sp, #4
 569              		.cfi_def_cfa 11, 4
 570 0260 28D04DE2 		sub	sp, sp, #40
 571 0264 18000BE5 		str	r0, [fp, #-24]
 572              		.loc 1 295 1
 573 0268 30219FE5 		ldr	r2, .L22
 574              	.LPIC19:
 575 026c 02208FE0 		add	r2, pc, r2
 576 0270 2C319FE5 		ldr	r3, .L22+4
 577 0274 033092E7 		ldr	r3, [r2, r3]
 578 0278 003093E5 		ldr	r3, [r3]
 579 027c 08300BE5 		str	r3, [fp, #-8]
 580 0280 0030A0E3 		mov	r3, #0
 296:/home/hkh/git/eapidk-code-r76-trunk/apps/EeePProg/linux/../EeePProg.c ****   EApiStatus_t StatusCode=EAPI_STATUS_SUCCESS;
 581              		.loc 1 296 16
 582 0284 0030A0E3 		mov	r3, #0
 583 0288 0C300BE5 		str	r3, [fp, #-12]
ARM GAS  /tmp/cc812cGb.s 			page 17


 297:/home/hkh/git/eapidk-code-r76-trunk/apps/EeePProg/linux/../EeePProg.c ****   FILE *lclStream=NULL;
 584              		.loc 1 297 9
 585 028c 0030A0E3 		mov	r3, #0
 586 0290 10300BE5 		str	r3, [fp, #-16]
 298:/home/hkh/git/eapidk-code-r76-trunk/apps/EeePProg/linux/../EeePProg.c **** 
 299:/home/hkh/git/eapidk-code-r76-trunk/apps/EeePProg/linux/../EeePProg.c ****   DO(CreateTxtFilePtr(*(char**)pArgData, &lclStream));
 587              		.loc 1 299 3
 588 0294 18301BE5 		ldr	r3, [fp, #-24]
 589 0298 003093E5 		ldr	r3, [r3]
 590 029c 10204BE2 		sub	r2, fp, #16
 591 02a0 0210A0E1 		mov	r1, r2
 592 02a4 0300A0E1 		mov	r0, r3
 593 02a8 FEFFFFEB 		bl	CreateTxtFilePtr(PLT)
 594 02ac 0C000BE5 		str	r0, [fp, #-12]
 595 02b0 0C301BE5 		ldr	r3, [fp, #-12]
 596 02b4 000053E3 		cmp	r3, #0
 597 02b8 0F00000A 		beq	.L17
 598              		.loc 1 299 3 is_stmt 0 discriminator 1
 599 02bc E4309FE5 		ldr	r3, .L22+8
 600              	.LPIC11:
 601 02c0 03308FE0 		add	r3, pc, r3
 602 02c4 08308DE5 		str	r3, [sp, #8]
 603 02c8 DC309FE5 		ldr	r3, .L22+12
 604              	.LPIC12:
 605 02cc 03308FE0 		add	r3, pc, r3
 606 02d0 04308DE5 		str	r3, [sp, #4]
 607 02d4 0C301BE5 		ldr	r3, [fp, #-12]
 608 02d8 00308DE5 		str	r3, [sp]
 609 02dc 2B3100E3 		movw	r3, #299
 610 02e0 C8209FE5 		ldr	r2, .L22+16
 611              	.LPIC13:
 612 02e4 02208FE0 		add	r2, pc, r2
 613 02e8 C4109FE5 		ldr	r1, .L22+20
 614              	.LPIC14:
 615 02ec 01108FE0 		add	r1, pc, r1
 616 02f0 4500A0E3 		mov	r0, #69
 617 02f4 FEFFFFEB 		bl	siFormattedMessage_SC(PLT)
 618 02f8 170000EA 		b	.L18
 619              	.L17:
 300:/home/hkh/git/eapidk-code-r76-trunk/apps/EeePProg/linux/../EeePProg.c ****   DO(EeeP_CreateCOM0R20_MEEPCfg(lclStream));
 620              		.loc 1 300 3 is_stmt 1
 621 02fc 10301BE5 		ldr	r3, [fp, #-16]
 622 0300 0300A0E1 		mov	r0, r3
 623 0304 FEFFFFEB 		bl	EeeP_CreateCOM0R20_MEEPCfg(PLT)
 624 0308 0C000BE5 		str	r0, [fp, #-12]
 625 030c 0C301BE5 		ldr	r3, [fp, #-12]
 626 0310 000053E3 		cmp	r3, #0
 627 0314 0F00000A 		beq	.L21
 628              		.loc 1 300 3 is_stmt 0 discriminator 1
 629 0318 98309FE5 		ldr	r3, .L22+24
 630              	.LPIC15:
 631 031c 03308FE0 		add	r3, pc, r3
 632 0320 08308DE5 		str	r3, [sp, #8]
 633 0324 90309FE5 		ldr	r3, .L22+28
 634              	.LPIC16:
 635 0328 03308FE0 		add	r3, pc, r3
 636 032c 04308DE5 		str	r3, [sp, #4]
ARM GAS  /tmp/cc812cGb.s 			page 18


 637 0330 0C301BE5 		ldr	r3, [fp, #-12]
 638 0334 00308DE5 		str	r3, [sp]
 639 0338 4B3FA0E3 		mov	r3, #300
 640 033c 7C209FE5 		ldr	r2, .L22+32
 641              	.LPIC17:
 642 0340 02208FE0 		add	r2, pc, r2
 643 0344 78109FE5 		ldr	r1, .L22+36
 644              	.LPIC18:
 645 0348 01108FE0 		add	r1, pc, r1
 646 034c 4500A0E3 		mov	r0, #69
 647 0350 FEFFFFEB 		bl	siFormattedMessage_SC(PLT)
 648 0354 000000EA 		b	.L18
 649              	.L21:
 301:/home/hkh/git/eapidk-code-r76-trunk/apps/EeePProg/linux/../EeePProg.c **** 
 302:/home/hkh/git/eapidk-code-r76-trunk/apps/EeePProg/linux/../EeePProg.c **** EAPI_APP_ASSERT_EXIT
 650              		.loc 1 302 1 is_stmt 1
 651 0358 00F020E3 		nop
 652              	.L18:
 303:/home/hkh/git/eapidk-code-r76-trunk/apps/EeePProg/linux/../EeePProg.c ****   FreeFilePtr(&lclStream);
 653              		.loc 1 303 3
 654 035c 10304BE2 		sub	r3, fp, #16
 655 0360 0300A0E1 		mov	r0, r3
 656 0364 FEFFFFEB 		bl	FreeFilePtr(PLT)
 304:/home/hkh/git/eapidk-code-r76-trunk/apps/EeePProg/linux/../EeePProg.c ****   return StatusCode;
 657              		.loc 1 304 10
 658 0368 0C301BE5 		ldr	r3, [fp, #-12]
 295:/home/hkh/git/eapidk-code-r76-trunk/apps/EeePProg/linux/../EeePProg.c ****   EApiStatus_t StatusCode=EAPI_STATUS_SUCCESS;
 659              		.loc 1 295 1
 660 036c 54109FE5 		ldr	r1, .L22+40
 661              	.LPIC20:
 662 0370 01108FE0 		add	r1, pc, r1
 305:/home/hkh/git/eapidk-code-r76-trunk/apps/EeePProg/linux/../EeePProg.c **** }
 663              		.loc 1 305 1
 664 0374 28209FE5 		ldr	r2, .L22+4
 665 0378 022091E7 		ldr	r2, [r1, r2]
 666 037c 001092E5 		ldr	r1, [r2]
 667 0380 08201BE5 		ldr	r2, [fp, #-8]
 668 0384 011032E0 		eors	r1, r2, r1
 669 0388 0020A0E3 		mov	r2, #0
 670 038c 0000000A 		beq	.L20
 671 0390 FEFFFFEB 		bl	__stack_chk_fail(PLT)
 672              	.L20:
 673 0394 0300A0E1 		mov	r0, r3
 674 0398 04D04BE2 		sub	sp, fp, #4
 675              		.cfi_def_cfa 13, 8
 676              		@ sp needed
 677 039c 0088BDE8 		pop	{fp, pc}
 678              	.L23:
 679              		.align	2
 680              	.L22:
 681 03a0 2C010000 		.word	_GLOBAL_OFFSET_TABLE_-(.LPIC19+8)
 682 03a4 00000000 		.word	__stack_chk_guard(GOT)
 683 03a8 58030000 		.word	.LC16-(.LPIC11+8)
 684 03ac 48030000 		.word	.LC14-(.LPIC12+8)
 685 03b0 38030000 		.word	.LC15-(.LPIC13+8)
 686 03b4 D4020000 		.word	.LC12-(.LPIC14+8)
 687 03b8 3C030000 		.word	.LC17-(.LPIC15+8)
ARM GAS  /tmp/cc812cGb.s 			page 19


 688 03bc FC020000 		.word	.LC14-(.LPIC16+8)
 689 03c0 EC020000 		.word	.LC15-(.LPIC17+8)
 690 03c4 88020000 		.word	.LC12-(.LPIC18+8)
 691 03c8 50000000 		.word	_GLOBAL_OFFSET_TABLE_-(.LPIC20+8)
 692              		.cfi_endproc
 693              	.LFE3:
 695              		.section	.rodata
 696 02ce 0000     		.align	2
 697              	.LC18:
 698 02d0 45656550 		.ascii	"EeeP_CreateCOM0R20_CBCfg(lclStream)\000"
 698      5F437265 
 698      61746543 
 698      4F4D3052 
 698      32305F43 
 699              		.text
 700              		.align	2
 701              		.global	CMD_CreateCOM0R20_CBCfg
 702              		.syntax unified
 703              		.arm
 704              		.fpu vfpv3
 706              	CMD_CreateCOM0R20_CBCfg:
 707              	.LFB4:
 306:/home/hkh/git/eapidk-code-r76-trunk/apps/EeePProg/linux/../EeePProg.c **** EApiStatus_t 
 307:/home/hkh/git/eapidk-code-r76-trunk/apps/EeePProg/linux/../EeePProg.c **** CMD_CreateCOM0R20_CBCfg(
 308:/home/hkh/git/eapidk-code-r76-trunk/apps/EeePProg/linux/../EeePProg.c ****     void *pArgData
 309:/home/hkh/git/eapidk-code-r76-trunk/apps/EeePProg/linux/../EeePProg.c ****     )
 310:/home/hkh/git/eapidk-code-r76-trunk/apps/EeePProg/linux/../EeePProg.c **** {
 708              		.loc 1 310 1
 709              		.cfi_startproc
 710              		@ args = 0, pretend = 0, frame = 24
 711              		@ frame_needed = 1, uses_anonymous_args = 0
 712 03cc 00482DE9 		push	{fp, lr}
 713              		.cfi_def_cfa_offset 8
 714              		.cfi_offset 11, -8
 715              		.cfi_offset 14, -4
 716 03d0 04B08DE2 		add	fp, sp, #4
 717              		.cfi_def_cfa 11, 4
 718 03d4 28D04DE2 		sub	sp, sp, #40
 719 03d8 18000BE5 		str	r0, [fp, #-24]
 720              		.loc 1 310 1
 721 03dc 30219FE5 		ldr	r2, .L30
 722              	.LPIC29:
 723 03e0 02208FE0 		add	r2, pc, r2
 724 03e4 2C319FE5 		ldr	r3, .L30+4
 725 03e8 033092E7 		ldr	r3, [r2, r3]
 726 03ec 003093E5 		ldr	r3, [r3]
 727 03f0 08300BE5 		str	r3, [fp, #-8]
 728 03f4 0030A0E3 		mov	r3, #0
 311:/home/hkh/git/eapidk-code-r76-trunk/apps/EeePProg/linux/../EeePProg.c ****   EApiStatus_t StatusCode=EAPI_STATUS_SUCCESS;
 729              		.loc 1 311 16
 730 03f8 0030A0E3 		mov	r3, #0
 731 03fc 0C300BE5 		str	r3, [fp, #-12]
 312:/home/hkh/git/eapidk-code-r76-trunk/apps/EeePProg/linux/../EeePProg.c ****   FILE *lclStream=NULL;
 732              		.loc 1 312 9
 733 0400 0030A0E3 		mov	r3, #0
 734 0404 10300BE5 		str	r3, [fp, #-16]
 313:/home/hkh/git/eapidk-code-r76-trunk/apps/EeePProg/linux/../EeePProg.c **** 
ARM GAS  /tmp/cc812cGb.s 			page 20


 314:/home/hkh/git/eapidk-code-r76-trunk/apps/EeePProg/linux/../EeePProg.c ****   DO(CreateTxtFilePtr(*(char**)pArgData, &lclStream));
 735              		.loc 1 314 3
 736 0408 18301BE5 		ldr	r3, [fp, #-24]
 737 040c 003093E5 		ldr	r3, [r3]
 738 0410 10204BE2 		sub	r2, fp, #16
 739 0414 0210A0E1 		mov	r1, r2
 740 0418 0300A0E1 		mov	r0, r3
 741 041c FEFFFFEB 		bl	CreateTxtFilePtr(PLT)
 742 0420 0C000BE5 		str	r0, [fp, #-12]
 743 0424 0C301BE5 		ldr	r3, [fp, #-12]
 744 0428 000053E3 		cmp	r3, #0
 745 042c 0F00000A 		beq	.L25
 746              		.loc 1 314 3 is_stmt 0 discriminator 1
 747 0430 E4309FE5 		ldr	r3, .L30+8
 748              	.LPIC21:
 749 0434 03308FE0 		add	r3, pc, r3
 750 0438 08308DE5 		str	r3, [sp, #8]
 751 043c DC309FE5 		ldr	r3, .L30+12
 752              	.LPIC22:
 753 0440 03308FE0 		add	r3, pc, r3
 754 0444 04308DE5 		str	r3, [sp, #4]
 755 0448 0C301BE5 		ldr	r3, [fp, #-12]
 756 044c 00308DE5 		str	r3, [sp]
 757 0450 3A3100E3 		movw	r3, #314
 758 0454 C8209FE5 		ldr	r2, .L30+16
 759              	.LPIC23:
 760 0458 02208FE0 		add	r2, pc, r2
 761 045c C4109FE5 		ldr	r1, .L30+20
 762              	.LPIC24:
 763 0460 01108FE0 		add	r1, pc, r1
 764 0464 4500A0E3 		mov	r0, #69
 765 0468 FEFFFFEB 		bl	siFormattedMessage_SC(PLT)
 766 046c 170000EA 		b	.L26
 767              	.L25:
 315:/home/hkh/git/eapidk-code-r76-trunk/apps/EeePProg/linux/../EeePProg.c ****   DO(EeeP_CreateCOM0R20_CBCfg(lclStream));
 768              		.loc 1 315 3 is_stmt 1
 769 0470 10301BE5 		ldr	r3, [fp, #-16]
 770 0474 0300A0E1 		mov	r0, r3
 771 0478 FEFFFFEB 		bl	EeeP_CreateCOM0R20_CBCfg(PLT)
 772 047c 0C000BE5 		str	r0, [fp, #-12]
 773 0480 0C301BE5 		ldr	r3, [fp, #-12]
 774 0484 000053E3 		cmp	r3, #0
 775 0488 0F00000A 		beq	.L29
 776              		.loc 1 315 3 is_stmt 0 discriminator 1
 777 048c 98309FE5 		ldr	r3, .L30+24
 778              	.LPIC25:
 779 0490 03308FE0 		add	r3, pc, r3
 780 0494 08308DE5 		str	r3, [sp, #8]
 781 0498 90309FE5 		ldr	r3, .L30+28
 782              	.LPIC26:
 783 049c 03308FE0 		add	r3, pc, r3
 784 04a0 04308DE5 		str	r3, [sp, #4]
 785 04a4 0C301BE5 		ldr	r3, [fp, #-12]
 786 04a8 00308DE5 		str	r3, [sp]
 787 04ac 3B3100E3 		movw	r3, #315
 788 04b0 7C209FE5 		ldr	r2, .L30+32
 789              	.LPIC27:
ARM GAS  /tmp/cc812cGb.s 			page 21


 790 04b4 02208FE0 		add	r2, pc, r2
 791 04b8 78109FE5 		ldr	r1, .L30+36
 792              	.LPIC28:
 793 04bc 01108FE0 		add	r1, pc, r1
 794 04c0 4500A0E3 		mov	r0, #69
 795 04c4 FEFFFFEB 		bl	siFormattedMessage_SC(PLT)
 796 04c8 000000EA 		b	.L26
 797              	.L29:
 316:/home/hkh/git/eapidk-code-r76-trunk/apps/EeePProg/linux/../EeePProg.c **** 
 317:/home/hkh/git/eapidk-code-r76-trunk/apps/EeePProg/linux/../EeePProg.c **** EAPI_APP_ASSERT_EXIT
 798              		.loc 1 317 1 is_stmt 1
 799 04cc 00F020E3 		nop
 800              	.L26:
 318:/home/hkh/git/eapidk-code-r76-trunk/apps/EeePProg/linux/../EeePProg.c ****   FreeFilePtr(&lclStream);
 801              		.loc 1 318 3
 802 04d0 10304BE2 		sub	r3, fp, #16
 803 04d4 0300A0E1 		mov	r0, r3
 804 04d8 FEFFFFEB 		bl	FreeFilePtr(PLT)
 319:/home/hkh/git/eapidk-code-r76-trunk/apps/EeePProg/linux/../EeePProg.c ****   return StatusCode;
 805              		.loc 1 319 10
 806 04dc 0C301BE5 		ldr	r3, [fp, #-12]
 310:/home/hkh/git/eapidk-code-r76-trunk/apps/EeePProg/linux/../EeePProg.c ****   EApiStatus_t StatusCode=EAPI_STATUS_SUCCESS;
 807              		.loc 1 310 1
 808 04e0 54109FE5 		ldr	r1, .L30+40
 809              	.LPIC30:
 810 04e4 01108FE0 		add	r1, pc, r1
 320:/home/hkh/git/eapidk-code-r76-trunk/apps/EeePProg/linux/../EeePProg.c **** }
 811              		.loc 1 320 1
 812 04e8 28209FE5 		ldr	r2, .L30+4
 813 04ec 022091E7 		ldr	r2, [r1, r2]
 814 04f0 001092E5 		ldr	r1, [r2]
 815 04f4 08201BE5 		ldr	r2, [fp, #-8]
 816 04f8 011032E0 		eors	r1, r2, r1
 817 04fc 0020A0E3 		mov	r2, #0
 818 0500 0000000A 		beq	.L28
 819 0504 FEFFFFEB 		bl	__stack_chk_fail(PLT)
 820              	.L28:
 821 0508 0300A0E1 		mov	r0, r3
 822 050c 04D04BE2 		sub	sp, fp, #4
 823              		.cfi_def_cfa 13, 8
 824              		@ sp needed
 825 0510 0088BDE8 		pop	{fp, pc}
 826              	.L31:
 827              		.align	2
 828              	.L30:
 829 0514 2C010000 		.word	_GLOBAL_OFFSET_TABLE_-(.LPIC29+8)
 830 0518 00000000 		.word	__stack_chk_guard(GOT)
 831 051c 58030000 		.word	.LC16-(.LPIC21+8)
 832 0520 48030000 		.word	.LC14-(.LPIC22+8)
 833 0524 38030000 		.word	.LC15-(.LPIC23+8)
 834 0528 D4020000 		.word	.LC12-(.LPIC24+8)
 835 052c 64030000 		.word	.LC18-(.LPIC25+8)
 836 0530 FC020000 		.word	.LC14-(.LPIC26+8)
 837 0534 EC020000 		.word	.LC15-(.LPIC27+8)
 838 0538 88020000 		.word	.LC12-(.LPIC28+8)
 839 053c 50000000 		.word	_GLOBAL_OFFSET_TABLE_-(.LPIC30+8)
 840              		.cfi_endproc
ARM GAS  /tmp/cc812cGb.s 			page 22


 841              	.LFE4:
 843              		.section	.rodata
 844              		.align	2
 845              	.LC19:
 846 02f4 45656550 		.ascii	"EeeP_CreateEeePExtEEPCfg(lclStream)\000"
 846      5F437265 
 846      61746545 
 846      65655045 
 846      78744545 
 847              		.text
 848              		.align	2
 849              		.global	CMD_CreateCOM0R20_EeePExtCfg
 850              		.syntax unified
 851              		.arm
 852              		.fpu vfpv3
 854              	CMD_CreateCOM0R20_EeePExtCfg:
 855              	.LFB5:
 321:/home/hkh/git/eapidk-code-r76-trunk/apps/EeePProg/linux/../EeePProg.c **** EApiStatus_t 
 322:/home/hkh/git/eapidk-code-r76-trunk/apps/EeePProg/linux/../EeePProg.c **** CMD_CreateCOM0R20_EeePExtCfg(
 323:/home/hkh/git/eapidk-code-r76-trunk/apps/EeePProg/linux/../EeePProg.c ****     void *pArgData
 324:/home/hkh/git/eapidk-code-r76-trunk/apps/EeePProg/linux/../EeePProg.c ****     )
 325:/home/hkh/git/eapidk-code-r76-trunk/apps/EeePProg/linux/../EeePProg.c **** {
 856              		.loc 1 325 1
 857              		.cfi_startproc
 858              		@ args = 0, pretend = 0, frame = 24
 859              		@ frame_needed = 1, uses_anonymous_args = 0
 860 0540 00482DE9 		push	{fp, lr}
 861              		.cfi_def_cfa_offset 8
 862              		.cfi_offset 11, -8
 863              		.cfi_offset 14, -4
 864 0544 04B08DE2 		add	fp, sp, #4
 865              		.cfi_def_cfa 11, 4
 866 0548 28D04DE2 		sub	sp, sp, #40
 867 054c 18000BE5 		str	r0, [fp, #-24]
 868              		.loc 1 325 1
 869 0550 30219FE5 		ldr	r2, .L38
 870              	.LPIC39:
 871 0554 02208FE0 		add	r2, pc, r2
 872 0558 2C319FE5 		ldr	r3, .L38+4
 873 055c 033092E7 		ldr	r3, [r2, r3]
 874 0560 003093E5 		ldr	r3, [r3]
 875 0564 08300BE5 		str	r3, [fp, #-8]
 876 0568 0030A0E3 		mov	r3, #0
 326:/home/hkh/git/eapidk-code-r76-trunk/apps/EeePProg/linux/../EeePProg.c ****   EApiStatus_t StatusCode=EAPI_STATUS_SUCCESS;
 877              		.loc 1 326 16
 878 056c 0030A0E3 		mov	r3, #0
 879 0570 0C300BE5 		str	r3, [fp, #-12]
 327:/home/hkh/git/eapidk-code-r76-trunk/apps/EeePProg/linux/../EeePProg.c ****   FILE *lclStream=NULL;
 880              		.loc 1 327 9
 881 0574 0030A0E3 		mov	r3, #0
 882 0578 10300BE5 		str	r3, [fp, #-16]
 328:/home/hkh/git/eapidk-code-r76-trunk/apps/EeePProg/linux/../EeePProg.c **** 
 329:/home/hkh/git/eapidk-code-r76-trunk/apps/EeePProg/linux/../EeePProg.c ****   DO(CreateTxtFilePtr(*(char**)pArgData, &lclStream));
 883              		.loc 1 329 3
 884 057c 18301BE5 		ldr	r3, [fp, #-24]
 885 0580 003093E5 		ldr	r3, [r3]
 886 0584 10204BE2 		sub	r2, fp, #16
ARM GAS  /tmp/cc812cGb.s 			page 23


 887 0588 0210A0E1 		mov	r1, r2
 888 058c 0300A0E1 		mov	r0, r3
 889 0590 FEFFFFEB 		bl	CreateTxtFilePtr(PLT)
 890 0594 0C000BE5 		str	r0, [fp, #-12]
 891 0598 0C301BE5 		ldr	r3, [fp, #-12]
 892 059c 000053E3 		cmp	r3, #0
 893 05a0 0F00000A 		beq	.L33
 894              		.loc 1 329 3 is_stmt 0 discriminator 1
 895 05a4 E4309FE5 		ldr	r3, .L38+8
 896              	.LPIC31:
 897 05a8 03308FE0 		add	r3, pc, r3
 898 05ac 08308DE5 		str	r3, [sp, #8]
 899 05b0 DC309FE5 		ldr	r3, .L38+12
 900              	.LPIC32:
 901 05b4 03308FE0 		add	r3, pc, r3
 902 05b8 04308DE5 		str	r3, [sp, #4]
 903 05bc 0C301BE5 		ldr	r3, [fp, #-12]
 904 05c0 00308DE5 		str	r3, [sp]
 905 05c4 493100E3 		movw	r3, #329
 906 05c8 C8209FE5 		ldr	r2, .L38+16
 907              	.LPIC33:
 908 05cc 02208FE0 		add	r2, pc, r2
 909 05d0 C4109FE5 		ldr	r1, .L38+20
 910              	.LPIC34:
 911 05d4 01108FE0 		add	r1, pc, r1
 912 05d8 4500A0E3 		mov	r0, #69
 913 05dc FEFFFFEB 		bl	siFormattedMessage_SC(PLT)
 914 05e0 170000EA 		b	.L34
 915              	.L33:
 330:/home/hkh/git/eapidk-code-r76-trunk/apps/EeePProg/linux/../EeePProg.c ****   DO(EeeP_CreateEeePExtEEPCfg(lclStream));
 916              		.loc 1 330 3 is_stmt 1
 917 05e4 10301BE5 		ldr	r3, [fp, #-16]
 918 05e8 0300A0E1 		mov	r0, r3
 919 05ec FEFFFFEB 		bl	EeeP_CreateEeePExtEEPCfg(PLT)
 920 05f0 0C000BE5 		str	r0, [fp, #-12]
 921 05f4 0C301BE5 		ldr	r3, [fp, #-12]
 922 05f8 000053E3 		cmp	r3, #0
 923 05fc 0F00000A 		beq	.L37
 924              		.loc 1 330 3 is_stmt 0 discriminator 1
 925 0600 98309FE5 		ldr	r3, .L38+24
 926              	.LPIC35:
 927 0604 03308FE0 		add	r3, pc, r3
 928 0608 08308DE5 		str	r3, [sp, #8]
 929 060c 90309FE5 		ldr	r3, .L38+28
 930              	.LPIC36:
 931 0610 03308FE0 		add	r3, pc, r3
 932 0614 04308DE5 		str	r3, [sp, #4]
 933 0618 0C301BE5 		ldr	r3, [fp, #-12]
 934 061c 00308DE5 		str	r3, [sp]
 935 0620 4A3100E3 		movw	r3, #330
 936 0624 7C209FE5 		ldr	r2, .L38+32
 937              	.LPIC37:
 938 0628 02208FE0 		add	r2, pc, r2
 939 062c 78109FE5 		ldr	r1, .L38+36
 940              	.LPIC38:
 941 0630 01108FE0 		add	r1, pc, r1
 942 0634 4500A0E3 		mov	r0, #69
ARM GAS  /tmp/cc812cGb.s 			page 24


 943 0638 FEFFFFEB 		bl	siFormattedMessage_SC(PLT)
 944 063c 000000EA 		b	.L34
 945              	.L37:
 331:/home/hkh/git/eapidk-code-r76-trunk/apps/EeePProg/linux/../EeePProg.c **** 
 332:/home/hkh/git/eapidk-code-r76-trunk/apps/EeePProg/linux/../EeePProg.c **** EAPI_APP_ASSERT_EXIT
 946              		.loc 1 332 1 is_stmt 1
 947 0640 00F020E3 		nop
 948              	.L34:
 333:/home/hkh/git/eapidk-code-r76-trunk/apps/EeePProg/linux/../EeePProg.c ****   FreeFilePtr(&lclStream);
 949              		.loc 1 333 3
 950 0644 10304BE2 		sub	r3, fp, #16
 951 0648 0300A0E1 		mov	r0, r3
 952 064c FEFFFFEB 		bl	FreeFilePtr(PLT)
 334:/home/hkh/git/eapidk-code-r76-trunk/apps/EeePProg/linux/../EeePProg.c ****   return StatusCode;
 953              		.loc 1 334 10
 954 0650 0C301BE5 		ldr	r3, [fp, #-12]
 325:/home/hkh/git/eapidk-code-r76-trunk/apps/EeePProg/linux/../EeePProg.c ****   EApiStatus_t StatusCode=EAPI_STATUS_SUCCESS;
 955              		.loc 1 325 1
 956 0654 54109FE5 		ldr	r1, .L38+40
 957              	.LPIC40:
 958 0658 01108FE0 		add	r1, pc, r1
 335:/home/hkh/git/eapidk-code-r76-trunk/apps/EeePProg/linux/../EeePProg.c **** }
 959              		.loc 1 335 1
 960 065c 28209FE5 		ldr	r2, .L38+4
 961 0660 022091E7 		ldr	r2, [r1, r2]
 962 0664 001092E5 		ldr	r1, [r2]
 963 0668 08201BE5 		ldr	r2, [fp, #-8]
 964 066c 011032E0 		eors	r1, r2, r1
 965 0670 0020A0E3 		mov	r2, #0
 966 0674 0000000A 		beq	.L36
 967 0678 FEFFFFEB 		bl	__stack_chk_fail(PLT)
 968              	.L36:
 969 067c 0300A0E1 		mov	r0, r3
 970 0680 04D04BE2 		sub	sp, fp, #4
 971              		.cfi_def_cfa 13, 8
 972              		@ sp needed
 973 0684 0088BDE8 		pop	{fp, pc}
 974              	.L39:
 975              		.align	2
 976              	.L38:
 977 0688 2C010000 		.word	_GLOBAL_OFFSET_TABLE_-(.LPIC39+8)
 978 068c 00000000 		.word	__stack_chk_guard(GOT)
 979 0690 58030000 		.word	.LC16-(.LPIC31+8)
 980 0694 48030000 		.word	.LC14-(.LPIC32+8)
 981 0698 38030000 		.word	.LC15-(.LPIC33+8)
 982 069c D4020000 		.word	.LC12-(.LPIC34+8)
 983 06a0 88030000 		.word	.LC19-(.LPIC35+8)
 984 06a4 FC020000 		.word	.LC14-(.LPIC36+8)
 985 06a8 EC020000 		.word	.LC15-(.LPIC37+8)
 986 06ac 88020000 		.word	.LC12-(.LPIC38+8)
 987 06b0 50000000 		.word	_GLOBAL_OFFSET_TABLE_-(.LPIC40+8)
 988              		.cfi_endproc
 989              	.LFE5:
 991              		.section	.rodata
 992              		.align	2
 993              	.LC20:
 994 0318 45656550 		.ascii	"EeeP_CreateCOM0R20_CBImage( &BHandel , *(char**)pAr"
ARM GAS  /tmp/cc812cGb.s 			page 25


 994      5F437265 
 994      61746543 
 994      4F4D3052 
 994      32305F43 
 995 034b 67446174 		.ascii	"gData )\000"
 995      61202900 
 996 0353 00       		.align	2
 997              	.LC21:
 998 0354 45656550 		.ascii	"EeePWriteBufferToEEP(BHandel, EAPI_ID_I2C_EXTERNAL,"
 998      57726974 
 998      65427566 
 998      66657254 
 998      6F454550 
 999 0387 20434F4D 		.ascii	" COM0R20_CB_EEP_DEV_ADDR)\000"
 999      30523230 
 999      5F43425F 
 999      4545505F 
 999      4445565F 
 1000              		.text
 1001              		.align	2
 1002              		.global	CMD_CreateCOM0R20CB_EEP
 1003              		.syntax unified
 1004              		.arm
 1005              		.fpu vfpv3
 1007              	CMD_CreateCOM0R20CB_EEP:
 1008              	.LFB6:
 336:/home/hkh/git/eapidk-code-r76-trunk/apps/EeePProg/linux/../EeePProg.c **** 
 337:/home/hkh/git/eapidk-code-r76-trunk/apps/EeePProg/linux/../EeePProg.c **** EApiStatus_t 
 338:/home/hkh/git/eapidk-code-r76-trunk/apps/EeePProg/linux/../EeePProg.c **** CMD_CreateCOM0R20CB_EEP(
 339:/home/hkh/git/eapidk-code-r76-trunk/apps/EeePProg/linux/../EeePProg.c ****     void *pArgData
 340:/home/hkh/git/eapidk-code-r76-trunk/apps/EeePProg/linux/../EeePProg.c ****     )
 341:/home/hkh/git/eapidk-code-r76-trunk/apps/EeePProg/linux/../EeePProg.c **** {
 1009              		.loc 1 341 1
 1010              		.cfi_startproc
 1011              		@ args = 0, pretend = 0, frame = 24
 1012              		@ frame_needed = 1, uses_anonymous_args = 0
 1013 06b4 00482DE9 		push	{fp, lr}
 1014              		.cfi_def_cfa_offset 8
 1015              		.cfi_offset 11, -8
 1016              		.cfi_offset 14, -4
 1017 06b8 04B08DE2 		add	fp, sp, #4
 1018              		.cfi_def_cfa 11, 4
 1019 06bc 28D04DE2 		sub	sp, sp, #40
 1020 06c0 18000BE5 		str	r0, [fp, #-24]
 1021              		.loc 1 341 1
 1022 06c4 38219FE5 		ldr	r2, .L46
 1023              	.LPIC49:
 1024 06c8 02208FE0 		add	r2, pc, r2
 1025 06cc 34319FE5 		ldr	r3, .L46+4
 1026 06d0 033092E7 		ldr	r3, [r2, r3]
 1027 06d4 003093E5 		ldr	r3, [r3]
 1028 06d8 08300BE5 		str	r3, [fp, #-8]
 1029 06dc 0030A0E3 		mov	r3, #0
 342:/home/hkh/git/eapidk-code-r76-trunk/apps/EeePProg/linux/../EeePProg.c ****   EApiStatus_t StatusCode=EAPI_STATUS_SUCCESS;
 1030              		.loc 1 342 16
 1031 06e0 0030A0E3 		mov	r3, #0
 1032 06e4 0C300BE5 		str	r3, [fp, #-12]
ARM GAS  /tmp/cc812cGb.s 			page 26


 343:/home/hkh/git/eapidk-code-r76-trunk/apps/EeePProg/linux/../EeePProg.c ****   EeePHandel_t BHandel=NULL;
 1033              		.loc 1 343 16
 1034 06e8 0030A0E3 		mov	r3, #0
 1035 06ec 10300BE5 		str	r3, [fp, #-16]
 344:/home/hkh/git/eapidk-code-r76-trunk/apps/EeePProg/linux/../EeePProg.c **** 
 345:/home/hkh/git/eapidk-code-r76-trunk/apps/EeePProg/linux/../EeePProg.c ****   DO(EeeP_CreateCOM0R20_CBImage(
 1036              		.loc 1 345 3
 1037 06f0 18301BE5 		ldr	r3, [fp, #-24]
 1038 06f4 002093E5 		ldr	r2, [r3]
 1039 06f8 10304BE2 		sub	r3, fp, #16
 1040 06fc 0210A0E1 		mov	r1, r2
 1041 0700 0300A0E1 		mov	r0, r3
 1042 0704 FEFFFFEB 		bl	EeeP_CreateCOM0R20_CBImage(PLT)
 1043 0708 0C000BE5 		str	r0, [fp, #-12]
 1044 070c 0C301BE5 		ldr	r3, [fp, #-12]
 1045 0710 000053E3 		cmp	r3, #0
 1046 0714 0F00000A 		beq	.L41
 1047              		.loc 1 345 3 is_stmt 0 discriminator 1
 1048 0718 EC309FE5 		ldr	r3, .L46+8
 1049              	.LPIC41:
 1050 071c 03308FE0 		add	r3, pc, r3
 1051 0720 08308DE5 		str	r3, [sp, #8]
 1052 0724 E4309FE5 		ldr	r3, .L46+12
 1053              	.LPIC42:
 1054 0728 03308FE0 		add	r3, pc, r3
 1055 072c 04308DE5 		str	r3, [sp, #4]
 1056 0730 0C301BE5 		ldr	r3, [fp, #-12]
 1057 0734 00308DE5 		str	r3, [sp]
 1058 0738 593100E3 		movw	r3, #345
 1059 073c D0209FE5 		ldr	r2, .L46+16
 1060              	.LPIC43:
 1061 0740 02208FE0 		add	r2, pc, r2
 1062 0744 CC109FE5 		ldr	r1, .L46+20
 1063              	.LPIC44:
 1064 0748 01108FE0 		add	r1, pc, r1
 1065 074c 4500A0E3 		mov	r0, #69
 1066 0750 FEFFFFEB 		bl	siFormattedMessage_SC(PLT)
 1067 0754 190000EA 		b	.L42
 1068              	.L41:
 346:/home/hkh/git/eapidk-code-r76-trunk/apps/EeePProg/linux/../EeePProg.c ****         &BHandel                              ,
 347:/home/hkh/git/eapidk-code-r76-trunk/apps/EeePProg/linux/../EeePProg.c ****         *(char**)pArgData
 348:/home/hkh/git/eapidk-code-r76-trunk/apps/EeePProg/linux/../EeePProg.c ****       ));
 349:/home/hkh/git/eapidk-code-r76-trunk/apps/EeePProg/linux/../EeePProg.c ****   DO(EeePWriteBufferToEEP(BHandel, EAPI_ID_I2C_EXTERNAL, COM0R20_CB_EEP_DEV_ADDR));
 1069              		.loc 1 349 3 is_stmt 1
 1070 0758 10301BE5 		ldr	r3, [fp, #-16]
 1071 075c AE20A0E3 		mov	r2, #174
 1072 0760 0010A0E3 		mov	r1, #0
 1073 0764 0300A0E1 		mov	r0, r3
 1074 0768 FEFFFFEB 		bl	EeePWriteBufferToEEP(PLT)
 1075 076c 0C000BE5 		str	r0, [fp, #-12]
 1076 0770 0C301BE5 		ldr	r3, [fp, #-12]
 1077 0774 000053E3 		cmp	r3, #0
 1078 0778 0F00000A 		beq	.L45
 1079              		.loc 1 349 3 is_stmt 0 discriminator 1
 1080 077c 98309FE5 		ldr	r3, .L46+24
 1081              	.LPIC45:
 1082 0780 03308FE0 		add	r3, pc, r3
ARM GAS  /tmp/cc812cGb.s 			page 27


 1083 0784 08308DE5 		str	r3, [sp, #8]
 1084 0788 90309FE5 		ldr	r3, .L46+28
 1085              	.LPIC46:
 1086 078c 03308FE0 		add	r3, pc, r3
 1087 0790 04308DE5 		str	r3, [sp, #4]
 1088 0794 0C301BE5 		ldr	r3, [fp, #-12]
 1089 0798 00308DE5 		str	r3, [sp]
 1090 079c 5D3100E3 		movw	r3, #349
 1091 07a0 7C209FE5 		ldr	r2, .L46+32
 1092              	.LPIC47:
 1093 07a4 02208FE0 		add	r2, pc, r2
 1094 07a8 78109FE5 		ldr	r1, .L46+36
 1095              	.LPIC48:
 1096 07ac 01108FE0 		add	r1, pc, r1
 1097 07b0 4500A0E3 		mov	r0, #69
 1098 07b4 FEFFFFEB 		bl	siFormattedMessage_SC(PLT)
 1099 07b8 000000EA 		b	.L42
 1100              	.L45:
 350:/home/hkh/git/eapidk-code-r76-trunk/apps/EeePProg/linux/../EeePProg.c **** 
 351:/home/hkh/git/eapidk-code-r76-trunk/apps/EeePProg/linux/../EeePProg.c **** EAPI_APP_ASSERT_EXIT
 1101              		.loc 1 351 1 is_stmt 1
 1102 07bc 00F020E3 		nop
 1103              	.L42:
 352:/home/hkh/git/eapidk-code-r76-trunk/apps/EeePProg/linux/../EeePProg.c ****   EeePFreeBuffer(&BHandel);
 1104              		.loc 1 352 3
 1105 07c0 10304BE2 		sub	r3, fp, #16
 1106 07c4 0300A0E1 		mov	r0, r3
 1107 07c8 FEFFFFEB 		bl	EeePFreeBuffer(PLT)
 353:/home/hkh/git/eapidk-code-r76-trunk/apps/EeePProg/linux/../EeePProg.c ****   return StatusCode;
 1108              		.loc 1 353 10
 1109 07cc 0C301BE5 		ldr	r3, [fp, #-12]
 341:/home/hkh/git/eapidk-code-r76-trunk/apps/EeePProg/linux/../EeePProg.c ****   EApiStatus_t StatusCode=EAPI_STATUS_SUCCESS;
 1110              		.loc 1 341 1
 1111 07d0 54109FE5 		ldr	r1, .L46+40
 1112              	.LPIC50:
 1113 07d4 01108FE0 		add	r1, pc, r1
 354:/home/hkh/git/eapidk-code-r76-trunk/apps/EeePProg/linux/../EeePProg.c **** }
 1114              		.loc 1 354 1
 1115 07d8 28209FE5 		ldr	r2, .L46+4
 1116 07dc 022091E7 		ldr	r2, [r1, r2]
 1117 07e0 001092E5 		ldr	r1, [r2]
 1118 07e4 08201BE5 		ldr	r2, [fp, #-8]
 1119 07e8 011032E0 		eors	r1, r2, r1
 1120 07ec 0020A0E3 		mov	r2, #0
 1121 07f0 0000000A 		beq	.L44
 1122 07f4 FEFFFFEB 		bl	__stack_chk_fail(PLT)
 1123              	.L44:
 1124 07f8 0300A0E1 		mov	r0, r3
 1125 07fc 04D04BE2 		sub	sp, fp, #4
 1126              		.cfi_def_cfa 13, 8
 1127              		@ sp needed
 1128 0800 0088BDE8 		pop	{fp, pc}
 1129              	.L47:
 1130              		.align	2
 1131              	.L46:
 1132 0804 34010000 		.word	_GLOBAL_OFFSET_TABLE_-(.LPIC49+8)
 1133 0808 00000000 		.word	__stack_chk_guard(GOT)
ARM GAS  /tmp/cc812cGb.s 			page 28


 1134 080c 00040000 		.word	.LC20-(.LPIC41+8)
 1135 0810 50030000 		.word	.LC14-(.LPIC42+8)
 1136 0814 40030000 		.word	.LC15-(.LPIC43+8)
 1137 0818 DC020000 		.word	.LC12-(.LPIC44+8)
 1138 081c E8030000 		.word	.LC21-(.LPIC45+8)
 1139 0820 FC020000 		.word	.LC14-(.LPIC46+8)
 1140 0824 EC020000 		.word	.LC15-(.LPIC47+8)
 1141 0828 88020000 		.word	.LC12-(.LPIC48+8)
 1142 082c 50000000 		.word	_GLOBAL_OFFSET_TABLE_-(.LPIC50+8)
 1143              		.cfi_endproc
 1144              	.LFE6:
 1146              		.section	.rodata
 1147 03a1 000000   		.align	2
 1148              	.LC22:
 1149 03a4 45656550 		.ascii	"EeeP_CreateCOM0R20_MEEPImage( &BHandel , *(char**)p"
 1149      5F437265 
 1149      61746543 
 1149      4F4D3052 
 1149      32305F4D 
 1150 03d7 41726744 		.ascii	"ArgData )\000"
 1150      61746120 
 1150      2900
 1151 03e1 000000   		.align	2
 1152              	.LC23:
 1153 03e4 45656550 		.ascii	"EeePWriteBufferToEEP(BHandel, EAPI_ID_I2C_EXTERNAL,"
 1153      57726974 
 1153      65427566 
 1153      66657254 
 1153      6F454550 
 1154 0417 20434F4D 		.ascii	" COM0R20_M_EEP_DEV_ADDR)\000"
 1154      30523230 
 1154      5F4D5F45 
 1154      45505F44 
 1154      45565F41 
 1155              		.text
 1156              		.align	2
 1157              		.global	CMD_CreateCOM0R20M_EEP
 1158              		.syntax unified
 1159              		.arm
 1160              		.fpu vfpv3
 1162              	CMD_CreateCOM0R20M_EEP:
 1163              	.LFB7:
 355:/home/hkh/git/eapidk-code-r76-trunk/apps/EeePProg/linux/../EeePProg.c **** 
 356:/home/hkh/git/eapidk-code-r76-trunk/apps/EeePProg/linux/../EeePProg.c **** EApiStatus_t 
 357:/home/hkh/git/eapidk-code-r76-trunk/apps/EeePProg/linux/../EeePProg.c **** CMD_CreateCOM0R20M_EEP(
 358:/home/hkh/git/eapidk-code-r76-trunk/apps/EeePProg/linux/../EeePProg.c ****     void *pArgData
 359:/home/hkh/git/eapidk-code-r76-trunk/apps/EeePProg/linux/../EeePProg.c ****     )
 360:/home/hkh/git/eapidk-code-r76-trunk/apps/EeePProg/linux/../EeePProg.c **** {
 1164              		.loc 1 360 1
 1165              		.cfi_startproc
 1166              		@ args = 0, pretend = 0, frame = 24
 1167              		@ frame_needed = 1, uses_anonymous_args = 0
 1168 0830 00482DE9 		push	{fp, lr}
 1169              		.cfi_def_cfa_offset 8
 1170              		.cfi_offset 11, -8
 1171              		.cfi_offset 14, -4
 1172 0834 04B08DE2 		add	fp, sp, #4
ARM GAS  /tmp/cc812cGb.s 			page 29


 1173              		.cfi_def_cfa 11, 4
 1174 0838 28D04DE2 		sub	sp, sp, #40
 1175 083c 18000BE5 		str	r0, [fp, #-24]
 1176              		.loc 1 360 1
 1177 0840 38219FE5 		ldr	r2, .L54
 1178              	.LPIC59:
 1179 0844 02208FE0 		add	r2, pc, r2
 1180 0848 34319FE5 		ldr	r3, .L54+4
 1181 084c 033092E7 		ldr	r3, [r2, r3]
 1182 0850 003093E5 		ldr	r3, [r3]
 1183 0854 08300BE5 		str	r3, [fp, #-8]
 1184 0858 0030A0E3 		mov	r3, #0
 361:/home/hkh/git/eapidk-code-r76-trunk/apps/EeePProg/linux/../EeePProg.c ****   EApiStatus_t StatusCode=EAPI_STATUS_SUCCESS;
 1185              		.loc 1 361 16
 1186 085c 0030A0E3 		mov	r3, #0
 1187 0860 0C300BE5 		str	r3, [fp, #-12]
 362:/home/hkh/git/eapidk-code-r76-trunk/apps/EeePProg/linux/../EeePProg.c ****   EeePHandel_t BHandel=NULL;
 1188              		.loc 1 362 16
 1189 0864 0030A0E3 		mov	r3, #0
 1190 0868 10300BE5 		str	r3, [fp, #-16]
 363:/home/hkh/git/eapidk-code-r76-trunk/apps/EeePProg/linux/../EeePProg.c **** 
 364:/home/hkh/git/eapidk-code-r76-trunk/apps/EeePProg/linux/../EeePProg.c ****   DO(EeeP_CreateCOM0R20_MEEPImage(
 1191              		.loc 1 364 3
 1192 086c 18301BE5 		ldr	r3, [fp, #-24]
 1193 0870 002093E5 		ldr	r2, [r3]
 1194 0874 10304BE2 		sub	r3, fp, #16
 1195 0878 0210A0E1 		mov	r1, r2
 1196 087c 0300A0E1 		mov	r0, r3
 1197 0880 FEFFFFEB 		bl	EeeP_CreateCOM0R20_MEEPImage(PLT)
 1198 0884 0C000BE5 		str	r0, [fp, #-12]
 1199 0888 0C301BE5 		ldr	r3, [fp, #-12]
 1200 088c 000053E3 		cmp	r3, #0
 1201 0890 0F00000A 		beq	.L49
 1202              		.loc 1 364 3 is_stmt 0 discriminator 1
 1203 0894 EC309FE5 		ldr	r3, .L54+8
 1204              	.LPIC51:
 1205 0898 03308FE0 		add	r3, pc, r3
 1206 089c 08308DE5 		str	r3, [sp, #8]
 1207 08a0 E4309FE5 		ldr	r3, .L54+12
 1208              	.LPIC52:
 1209 08a4 03308FE0 		add	r3, pc, r3
 1210 08a8 04308DE5 		str	r3, [sp, #4]
 1211 08ac 0C301BE5 		ldr	r3, [fp, #-12]
 1212 08b0 00308DE5 		str	r3, [sp]
 1213 08b4 5B3FA0E3 		mov	r3, #364
 1214 08b8 D0209FE5 		ldr	r2, .L54+16
 1215              	.LPIC53:
 1216 08bc 02208FE0 		add	r2, pc, r2
 1217 08c0 CC109FE5 		ldr	r1, .L54+20
 1218              	.LPIC54:
 1219 08c4 01108FE0 		add	r1, pc, r1
 1220 08c8 4500A0E3 		mov	r0, #69
 1221 08cc FEFFFFEB 		bl	siFormattedMessage_SC(PLT)
 1222 08d0 190000EA 		b	.L50
 1223              	.L49:
 365:/home/hkh/git/eapidk-code-r76-trunk/apps/EeePProg/linux/../EeePProg.c ****         &BHandel                              ,
 366:/home/hkh/git/eapidk-code-r76-trunk/apps/EeePProg/linux/../EeePProg.c ****         *(char**)pArgData
ARM GAS  /tmp/cc812cGb.s 			page 30


 367:/home/hkh/git/eapidk-code-r76-trunk/apps/EeePProg/linux/../EeePProg.c ****       ));
 368:/home/hkh/git/eapidk-code-r76-trunk/apps/EeePProg/linux/../EeePProg.c ****   DO(EeePWriteBufferToEEP(BHandel, EAPI_ID_I2C_EXTERNAL, COM0R20_M_EEP_DEV_ADDR));
 1224              		.loc 1 368 3 is_stmt 1
 1225 08d4 10301BE5 		ldr	r3, [fp, #-16]
 1226 08d8 A020A0E3 		mov	r2, #160
 1227 08dc 0010A0E3 		mov	r1, #0
 1228 08e0 0300A0E1 		mov	r0, r3
 1229 08e4 FEFFFFEB 		bl	EeePWriteBufferToEEP(PLT)
 1230 08e8 0C000BE5 		str	r0, [fp, #-12]
 1231 08ec 0C301BE5 		ldr	r3, [fp, #-12]
 1232 08f0 000053E3 		cmp	r3, #0
 1233 08f4 0F00000A 		beq	.L53
 1234              		.loc 1 368 3 is_stmt 0 discriminator 1
 1235 08f8 98309FE5 		ldr	r3, .L54+24
 1236              	.LPIC55:
 1237 08fc 03308FE0 		add	r3, pc, r3
 1238 0900 08308DE5 		str	r3, [sp, #8]
 1239 0904 90309FE5 		ldr	r3, .L54+28
 1240              	.LPIC56:
 1241 0908 03308FE0 		add	r3, pc, r3
 1242 090c 04308DE5 		str	r3, [sp, #4]
 1243 0910 0C301BE5 		ldr	r3, [fp, #-12]
 1244 0914 00308DE5 		str	r3, [sp]
 1245 0918 173EA0E3 		mov	r3, #368
 1246 091c 7C209FE5 		ldr	r2, .L54+32
 1247              	.LPIC57:
 1248 0920 02208FE0 		add	r2, pc, r2
 1249 0924 78109FE5 		ldr	r1, .L54+36
 1250              	.LPIC58:
 1251 0928 01108FE0 		add	r1, pc, r1
 1252 092c 4500A0E3 		mov	r0, #69
 1253 0930 FEFFFFEB 		bl	siFormattedMessage_SC(PLT)
 1254 0934 000000EA 		b	.L50
 1255              	.L53:
 369:/home/hkh/git/eapidk-code-r76-trunk/apps/EeePProg/linux/../EeePProg.c **** 
 370:/home/hkh/git/eapidk-code-r76-trunk/apps/EeePProg/linux/../EeePProg.c **** EAPI_APP_ASSERT_EXIT
 1256              		.loc 1 370 1 is_stmt 1
 1257 0938 00F020E3 		nop
 1258              	.L50:
 371:/home/hkh/git/eapidk-code-r76-trunk/apps/EeePProg/linux/../EeePProg.c ****   EeePFreeBuffer(&BHandel);
 1259              		.loc 1 371 3
 1260 093c 10304BE2 		sub	r3, fp, #16
 1261 0940 0300A0E1 		mov	r0, r3
 1262 0944 FEFFFFEB 		bl	EeePFreeBuffer(PLT)
 372:/home/hkh/git/eapidk-code-r76-trunk/apps/EeePProg/linux/../EeePProg.c ****   return StatusCode;
 1263              		.loc 1 372 10
 1264 0948 0C301BE5 		ldr	r3, [fp, #-12]
 360:/home/hkh/git/eapidk-code-r76-trunk/apps/EeePProg/linux/../EeePProg.c ****   EApiStatus_t StatusCode=EAPI_STATUS_SUCCESS;
 1265              		.loc 1 360 1
 1266 094c 54109FE5 		ldr	r1, .L54+40
 1267              	.LPIC60:
 1268 0950 01108FE0 		add	r1, pc, r1
 373:/home/hkh/git/eapidk-code-r76-trunk/apps/EeePProg/linux/../EeePProg.c **** }
 1269              		.loc 1 373 1
 1270 0954 28209FE5 		ldr	r2, .L54+4
 1271 0958 022091E7 		ldr	r2, [r1, r2]
 1272 095c 001092E5 		ldr	r1, [r2]
ARM GAS  /tmp/cc812cGb.s 			page 31


 1273 0960 08201BE5 		ldr	r2, [fp, #-8]
 1274 0964 011032E0 		eors	r1, r2, r1
 1275 0968 0020A0E3 		mov	r2, #0
 1276 096c 0000000A 		beq	.L52
 1277 0970 FEFFFFEB 		bl	__stack_chk_fail(PLT)
 1278              	.L52:
 1279 0974 0300A0E1 		mov	r0, r3
 1280 0978 04D04BE2 		sub	sp, fp, #4
 1281              		.cfi_def_cfa 13, 8
 1282              		@ sp needed
 1283 097c 0088BDE8 		pop	{fp, pc}
 1284              	.L55:
 1285              		.align	2
 1286              	.L54:
 1287 0980 34010000 		.word	_GLOBAL_OFFSET_TABLE_-(.LPIC59+8)
 1288 0984 00000000 		.word	__stack_chk_guard(GOT)
 1289 0988 8C040000 		.word	.LC22-(.LPIC51+8)
 1290 098c 50030000 		.word	.LC14-(.LPIC52+8)
 1291 0990 40030000 		.word	.LC15-(.LPIC53+8)
 1292 0994 DC020000 		.word	.LC12-(.LPIC54+8)
 1293 0998 78040000 		.word	.LC23-(.LPIC55+8)
 1294 099c FC020000 		.word	.LC14-(.LPIC56+8)
 1295 09a0 EC020000 		.word	.LC15-(.LPIC57+8)
 1296 09a4 88020000 		.word	.LC12-(.LPIC58+8)
 1297 09a8 50000000 		.word	_GLOBAL_OFFSET_TABLE_-(.LPIC60+8)
 1298              		.cfi_endproc
 1299              	.LFE7:
 1301              		.section	.rodata
 1302              		.align	2
 1303              	.LC24:
 1304 0430 45656550 		.ascii	"EeeP_CreateEeePExtEEPImage( &BHandel , ((WriteEepCf"
 1304      5F437265 
 1304      61746545 
 1304      65655045 
 1304      78744545 
 1305 0463 675F742A 		.ascii	"g_t*)pArgData)->FileName )\000"
 1305      29704172 
 1305      67446174 
 1305      61292D3E 
 1305      46696C65 
 1306 047e 0000     		.align	2
 1307              	.LC25:
 1308 0480 45656550 		.ascii	"EeePWriteBufferToEEP(BHandel, (uint16_t)((WriteEepC"
 1308      57726974 
 1308      65427566 
 1308      66657254 
 1308      6F454550 
 1309 04b3 66675F74 		.ascii	"fg_t*)pArgData)->I2CBus, (uint16_t)((WriteEepCfg_t*"
 1309      2A297041 
 1309      72674461 
 1309      7461292D 
 1309      3E493243 
 1310 04e6 29704172 		.ascii	")pArgData)->I2CDevAddr )\000"
 1310      67446174 
 1310      61292D3E 
 1310      49324344 
 1310      65764164 
ARM GAS  /tmp/cc812cGb.s 			page 32


 1311              		.text
 1312              		.align	2
 1313              		.global	CMD_CreateEeePExt_EEP
 1314              		.syntax unified
 1315              		.arm
 1316              		.fpu vfpv3
 1318              	CMD_CreateEeePExt_EEP:
 1319              	.LFB8:
 374:/home/hkh/git/eapidk-code-r76-trunk/apps/EeePProg/linux/../EeePProg.c **** 
 375:/home/hkh/git/eapidk-code-r76-trunk/apps/EeePProg/linux/../EeePProg.c **** EApiStatus_t 
 376:/home/hkh/git/eapidk-code-r76-trunk/apps/EeePProg/linux/../EeePProg.c **** CMD_CreateEeePExt_EEP(
 377:/home/hkh/git/eapidk-code-r76-trunk/apps/EeePProg/linux/../EeePProg.c ****     void *pArgData
 378:/home/hkh/git/eapidk-code-r76-trunk/apps/EeePProg/linux/../EeePProg.c ****     )
 379:/home/hkh/git/eapidk-code-r76-trunk/apps/EeePProg/linux/../EeePProg.c **** {
 1320              		.loc 1 379 1
 1321              		.cfi_startproc
 1322              		@ args = 0, pretend = 0, frame = 24
 1323              		@ frame_needed = 1, uses_anonymous_args = 0
 1324 09ac 00482DE9 		push	{fp, lr}
 1325              		.cfi_def_cfa_offset 8
 1326              		.cfi_offset 11, -8
 1327              		.cfi_offset 14, -4
 1328 09b0 04B08DE2 		add	fp, sp, #4
 1329              		.cfi_def_cfa 11, 4
 1330 09b4 28D04DE2 		sub	sp, sp, #40
 1331 09b8 18000BE5 		str	r0, [fp, #-24]
 1332              		.loc 1 379 1
 1333 09bc 4C219FE5 		ldr	r2, .L62
 1334              	.LPIC69:
 1335 09c0 02208FE0 		add	r2, pc, r2
 1336 09c4 48319FE5 		ldr	r3, .L62+4
 1337 09c8 033092E7 		ldr	r3, [r2, r3]
 1338 09cc 003093E5 		ldr	r3, [r3]
 1339 09d0 08300BE5 		str	r3, [fp, #-8]
 1340 09d4 0030A0E3 		mov	r3, #0
 380:/home/hkh/git/eapidk-code-r76-trunk/apps/EeePProg/linux/../EeePProg.c ****   EApiStatus_t StatusCode=EAPI_STATUS_SUCCESS;
 1341              		.loc 1 380 16
 1342 09d8 0030A0E3 		mov	r3, #0
 1343 09dc 0C300BE5 		str	r3, [fp, #-12]
 381:/home/hkh/git/eapidk-code-r76-trunk/apps/EeePProg/linux/../EeePProg.c ****   EeePHandel_t BHandel=NULL;
 1344              		.loc 1 381 16
 1345 09e0 0030A0E3 		mov	r3, #0
 1346 09e4 10300BE5 		str	r3, [fp, #-16]
 382:/home/hkh/git/eapidk-code-r76-trunk/apps/EeePProg/linux/../EeePProg.c **** 
 383:/home/hkh/git/eapidk-code-r76-trunk/apps/EeePProg/linux/../EeePProg.c ****   DO(EeeP_CreateEeePExtEEPImage(
 1347              		.loc 1 383 3
 1348 09e8 18301BE5 		ldr	r3, [fp, #-24]
 1349 09ec 002093E5 		ldr	r2, [r3]
 1350 09f0 10304BE2 		sub	r3, fp, #16
 1351 09f4 0210A0E1 		mov	r1, r2
 1352 09f8 0300A0E1 		mov	r0, r3
 1353 09fc FEFFFFEB 		bl	EeeP_CreateEeePExtEEPImage(PLT)
 1354 0a00 0C000BE5 		str	r0, [fp, #-12]
 1355 0a04 0C301BE5 		ldr	r3, [fp, #-12]
 1356 0a08 000053E3 		cmp	r3, #0
 1357 0a0c 0F00000A 		beq	.L57
 1358              		.loc 1 383 3 is_stmt 0 discriminator 1
ARM GAS  /tmp/cc812cGb.s 			page 33


 1359 0a10 00319FE5 		ldr	r3, .L62+8
 1360              	.LPIC61:
 1361 0a14 03308FE0 		add	r3, pc, r3
 1362 0a18 08308DE5 		str	r3, [sp, #8]
 1363 0a1c F8309FE5 		ldr	r3, .L62+12
 1364              	.LPIC62:
 1365 0a20 03308FE0 		add	r3, pc, r3
 1366 0a24 04308DE5 		str	r3, [sp, #4]
 1367 0a28 0C301BE5 		ldr	r3, [fp, #-12]
 1368 0a2c 00308DE5 		str	r3, [sp]
 1369 0a30 7F3100E3 		movw	r3, #383
 1370 0a34 E4209FE5 		ldr	r2, .L62+16
 1371              	.LPIC63:
 1372 0a38 02208FE0 		add	r2, pc, r2
 1373 0a3c E0109FE5 		ldr	r1, .L62+20
 1374              	.LPIC64:
 1375 0a40 01108FE0 		add	r1, pc, r1
 1376 0a44 4500A0E3 		mov	r0, #69
 1377 0a48 FEFFFFEB 		bl	siFormattedMessage_SC(PLT)
 1378 0a4c 1E0000EA 		b	.L58
 1379              	.L57:
 384:/home/hkh/git/eapidk-code-r76-trunk/apps/EeePProg/linux/../EeePProg.c ****         &BHandel                              ,
 385:/home/hkh/git/eapidk-code-r76-trunk/apps/EeePProg/linux/../EeePProg.c ****         ((WriteEepCfg_t*)pArgData)->FileName
 386:/home/hkh/git/eapidk-code-r76-trunk/apps/EeePProg/linux/../EeePProg.c ****       ));
 387:/home/hkh/git/eapidk-code-r76-trunk/apps/EeePProg/linux/../EeePProg.c ****   DO(EeePWriteBufferToEEP(BHandel, 
 1380              		.loc 1 387 3 is_stmt 1
 1381 0a50 10001BE5 		ldr	r0, [fp, #-16]
 1382 0a54 18301BE5 		ldr	r3, [fp, #-24]
 1383 0a58 043093E5 		ldr	r3, [r3, #4]
 1384 0a5c 7330FFE6 		uxth	r3, r3
 1385 0a60 0310A0E1 		mov	r1, r3
 1386 0a64 18301BE5 		ldr	r3, [fp, #-24]
 1387 0a68 083093E5 		ldr	r3, [r3, #8]
 1388 0a6c 7330FFE6 		uxth	r3, r3
 1389 0a70 0320A0E1 		mov	r2, r3
 1390 0a74 FEFFFFEB 		bl	EeePWriteBufferToEEP(PLT)
 1391 0a78 0C000BE5 		str	r0, [fp, #-12]
 1392 0a7c 0C301BE5 		ldr	r3, [fp, #-12]
 1393 0a80 000053E3 		cmp	r3, #0
 1394 0a84 0F00000A 		beq	.L61
 1395              		.loc 1 387 3 is_stmt 0 discriminator 1
 1396 0a88 98309FE5 		ldr	r3, .L62+24
 1397              	.LPIC65:
 1398 0a8c 03308FE0 		add	r3, pc, r3
 1399 0a90 08308DE5 		str	r3, [sp, #8]
 1400 0a94 90309FE5 		ldr	r3, .L62+28
 1401              	.LPIC66:
 1402 0a98 03308FE0 		add	r3, pc, r3
 1403 0a9c 04308DE5 		str	r3, [sp, #4]
 1404 0aa0 0C301BE5 		ldr	r3, [fp, #-12]
 1405 0aa4 00308DE5 		str	r3, [sp]
 1406 0aa8 833100E3 		movw	r3, #387
 1407 0aac 7C209FE5 		ldr	r2, .L62+32
 1408              	.LPIC67:
 1409 0ab0 02208FE0 		add	r2, pc, r2
 1410 0ab4 78109FE5 		ldr	r1, .L62+36
 1411              	.LPIC68:
ARM GAS  /tmp/cc812cGb.s 			page 34


 1412 0ab8 01108FE0 		add	r1, pc, r1
 1413 0abc 4500A0E3 		mov	r0, #69
 1414 0ac0 FEFFFFEB 		bl	siFormattedMessage_SC(PLT)
 1415 0ac4 000000EA 		b	.L58
 1416              	.L61:
 388:/home/hkh/git/eapidk-code-r76-trunk/apps/EeePProg/linux/../EeePProg.c ****         (uint16_t)((WriteEepCfg_t*)pArgData)->I2CBus, 
 389:/home/hkh/git/eapidk-code-r76-trunk/apps/EeePProg/linux/../EeePProg.c ****         (uint16_t)((WriteEepCfg_t*)pArgData)->I2CDevAddr
 390:/home/hkh/git/eapidk-code-r76-trunk/apps/EeePProg/linux/../EeePProg.c ****         )
 391:/home/hkh/git/eapidk-code-r76-trunk/apps/EeePProg/linux/../EeePProg.c ****       );
 392:/home/hkh/git/eapidk-code-r76-trunk/apps/EeePProg/linux/../EeePProg.c **** 
 393:/home/hkh/git/eapidk-code-r76-trunk/apps/EeePProg/linux/../EeePProg.c **** EAPI_APP_ASSERT_EXIT
 1417              		.loc 1 393 1 is_stmt 1
 1418 0ac8 00F020E3 		nop
 1419              	.L58:
 394:/home/hkh/git/eapidk-code-r76-trunk/apps/EeePProg/linux/../EeePProg.c ****   EeePFreeBuffer(&BHandel);
 1420              		.loc 1 394 3
 1421 0acc 10304BE2 		sub	r3, fp, #16
 1422 0ad0 0300A0E1 		mov	r0, r3
 1423 0ad4 FEFFFFEB 		bl	EeePFreeBuffer(PLT)
 395:/home/hkh/git/eapidk-code-r76-trunk/apps/EeePProg/linux/../EeePProg.c ****   return StatusCode;
 1424              		.loc 1 395 10
 1425 0ad8 0C301BE5 		ldr	r3, [fp, #-12]
 379:/home/hkh/git/eapidk-code-r76-trunk/apps/EeePProg/linux/../EeePProg.c ****   EApiStatus_t StatusCode=EAPI_STATUS_SUCCESS;
 1426              		.loc 1 379 1
 1427 0adc 54109FE5 		ldr	r1, .L62+40
 1428              	.LPIC70:
 1429 0ae0 01108FE0 		add	r1, pc, r1
 396:/home/hkh/git/eapidk-code-r76-trunk/apps/EeePProg/linux/../EeePProg.c **** }
 1430              		.loc 1 396 1
 1431 0ae4 28209FE5 		ldr	r2, .L62+4
 1432 0ae8 022091E7 		ldr	r2, [r1, r2]
 1433 0aec 001092E5 		ldr	r1, [r2]
 1434 0af0 08201BE5 		ldr	r2, [fp, #-8]
 1435 0af4 011032E0 		eors	r1, r2, r1
 1436 0af8 0020A0E3 		mov	r2, #0
 1437 0afc 0000000A 		beq	.L60
 1438 0b00 FEFFFFEB 		bl	__stack_chk_fail(PLT)
 1439              	.L60:
 1440 0b04 0300A0E1 		mov	r0, r3
 1441 0b08 04D04BE2 		sub	sp, fp, #4
 1442              		.cfi_def_cfa 13, 8
 1443              		@ sp needed
 1444 0b0c 0088BDE8 		pop	{fp, pc}
 1445              	.L63:
 1446              		.align	2
 1447              	.L62:
 1448 0b10 48010000 		.word	_GLOBAL_OFFSET_TABLE_-(.LPIC69+8)
 1449 0b14 00000000 		.word	__stack_chk_guard(GOT)
 1450 0b18 2C050000 		.word	.LC24-(.LPIC61+8)
 1451 0b1c 64030000 		.word	.LC14-(.LPIC62+8)
 1452 0b20 54030000 		.word	.LC15-(.LPIC63+8)
 1453 0b24 F0020000 		.word	.LC12-(.LPIC64+8)
 1454 0b28 14050000 		.word	.LC25-(.LPIC65+8)
 1455 0b2c FC020000 		.word	.LC14-(.LPIC66+8)
 1456 0b30 EC020000 		.word	.LC15-(.LPIC67+8)
 1457 0b34 88020000 		.word	.LC12-(.LPIC68+8)
 1458 0b38 50000000 		.word	_GLOBAL_OFFSET_TABLE_-(.LPIC70+8)
ARM GAS  /tmp/cc812cGb.s 			page 35


 1459              		.cfi_endproc
 1460              	.LFE8:
 1462              		.section	.rodata
 1463 04ff 00       		.align	2
 1464              	.LC26:
 1465 0500 45656550 		.ascii	"EeePReadBufferFromFile( &BHandel , *(char**)pArgDat"
 1465      52656164 
 1465      42756666 
 1465      65724672 
 1465      6F6D4669 
 1466 0533 61202900 		.ascii	"a )\000"
 1467 0537 00       		.align	2
 1468              	.LC27:
 1469 0538 436F6D30 		.ascii	"Com0\000"
 1469      00
 1470 053d 000000   		.align	2
 1471              	.LC28:
 1472 0540 434D445F 		.ascii	"CMD_ProgramCOM0R20CB_EEP\000"
 1472      50726F67 
 1472      72616D43 
 1472      4F4D3052 
 1472      32304342 
 1473 0559 000000   		.align	2
 1474              	.LC29:
 1475 055c 4E6F7420 		.ascii	"Not Valid COM0 R2.0 Carrier Board Image\000"
 1475      56616C69 
 1475      6420434F 
 1475      4D302052 
 1475      322E3020 
 1476              		.text
 1477              		.align	2
 1478              		.global	CMD_ProgramCOM0R20CB_EEP
 1479              		.syntax unified
 1480              		.arm
 1481              		.fpu vfpv3
 1483              	CMD_ProgramCOM0R20CB_EEP:
 1484              	.LFB9:
 397:/home/hkh/git/eapidk-code-r76-trunk/apps/EeePProg/linux/../EeePProg.c **** 
 398:/home/hkh/git/eapidk-code-r76-trunk/apps/EeePProg/linux/../EeePProg.c **** 
 399:/home/hkh/git/eapidk-code-r76-trunk/apps/EeePProg/linux/../EeePProg.c **** EApiStatus_t 
 400:/home/hkh/git/eapidk-code-r76-trunk/apps/EeePProg/linux/../EeePProg.c **** CMD_ProgramCOM0R20CB_EEP(
 401:/home/hkh/git/eapidk-code-r76-trunk/apps/EeePProg/linux/../EeePProg.c ****     void *pArgData
 402:/home/hkh/git/eapidk-code-r76-trunk/apps/EeePProg/linux/../EeePProg.c ****     )
 403:/home/hkh/git/eapidk-code-r76-trunk/apps/EeePProg/linux/../EeePProg.c **** {
 1485              		.loc 1 403 1
 1486              		.cfi_startproc
 1487              		@ args = 0, pretend = 0, frame = 24
 1488              		@ frame_needed = 1, uses_anonymous_args = 0
 1489 0b3c 00482DE9 		push	{fp, lr}
 1490              		.cfi_def_cfa_offset 8
 1491              		.cfi_offset 11, -8
 1492              		.cfi_offset 14, -4
 1493 0b40 04B08DE2 		add	fp, sp, #4
 1494              		.cfi_def_cfa 11, 4
 1495 0b44 28D04DE2 		sub	sp, sp, #40
 1496 0b48 18000BE5 		str	r0, [fp, #-24]
 1497              		.loc 1 403 1
ARM GAS  /tmp/cc812cGb.s 			page 36


 1498 0b4c A8219FE5 		ldr	r2, .L71
 1499              	.LPIC84:
 1500 0b50 02208FE0 		add	r2, pc, r2
 1501 0b54 A4319FE5 		ldr	r3, .L71+4
 1502 0b58 033092E7 		ldr	r3, [r2, r3]
 1503 0b5c 003093E5 		ldr	r3, [r3]
 1504 0b60 08300BE5 		str	r3, [fp, #-8]
 1505 0b64 0030A0E3 		mov	r3, #0
 404:/home/hkh/git/eapidk-code-r76-trunk/apps/EeePProg/linux/../EeePProg.c ****   EApiStatus_t StatusCode=EAPI_STATUS_SUCCESS;
 1506              		.loc 1 404 16
 1507 0b68 0030A0E3 		mov	r3, #0
 1508 0b6c 0C300BE5 		str	r3, [fp, #-12]
 405:/home/hkh/git/eapidk-code-r76-trunk/apps/EeePProg/linux/../EeePProg.c ****   EeePHandel_t BHandel=NULL;
 1509              		.loc 1 405 16
 1510 0b70 0030A0E3 		mov	r3, #0
 1511 0b74 10300BE5 		str	r3, [fp, #-16]
 406:/home/hkh/git/eapidk-code-r76-trunk/apps/EeePProg/linux/../EeePProg.c **** 
 407:/home/hkh/git/eapidk-code-r76-trunk/apps/EeePProg/linux/../EeePProg.c ****   DO(EeePReadBufferFromFile(
 1512              		.loc 1 407 3
 1513 0b78 18301BE5 		ldr	r3, [fp, #-24]
 1514 0b7c 002093E5 		ldr	r2, [r3]
 1515 0b80 10304BE2 		sub	r3, fp, #16
 1516 0b84 0210A0E1 		mov	r1, r2
 1517 0b88 0300A0E1 		mov	r0, r3
 1518 0b8c FEFFFFEB 		bl	EeePReadBufferFromFile(PLT)
 1519 0b90 0C000BE5 		str	r0, [fp, #-12]
 1520 0b94 0C301BE5 		ldr	r3, [fp, #-12]
 1521 0b98 000053E3 		cmp	r3, #0
 1522 0b9c 0F00000A 		beq	.L65
 1523              		.loc 1 407 3 is_stmt 0 discriminator 1
 1524 0ba0 5C319FE5 		ldr	r3, .L71+8
 1525              	.LPIC71:
 1526 0ba4 03308FE0 		add	r3, pc, r3
 1527 0ba8 08308DE5 		str	r3, [sp, #8]
 1528 0bac 54319FE5 		ldr	r3, .L71+12
 1529              	.LPIC72:
 1530 0bb0 03308FE0 		add	r3, pc, r3
 1531 0bb4 04308DE5 		str	r3, [sp, #4]
 1532 0bb8 0C301BE5 		ldr	r3, [fp, #-12]
 1533 0bbc 00308DE5 		str	r3, [sp]
 1534 0bc0 973100E3 		movw	r3, #407
 1535 0bc4 40219FE5 		ldr	r2, .L71+16
 1536              	.LPIC73:
 1537 0bc8 02208FE0 		add	r2, pc, r2
 1538 0bcc 3C119FE5 		ldr	r1, .L71+20
 1539              	.LPIC74:
 1540 0bd0 01108FE0 		add	r1, pc, r1
 1541 0bd4 4500A0E3 		mov	r0, #69
 1542 0bd8 FEFFFFEB 		bl	siFormattedMessage_SC(PLT)
 1543 0bdc 350000EA 		b	.L66
 1544              	.L65:
 408:/home/hkh/git/eapidk-code-r76-trunk/apps/EeePProg/linux/../EeePProg.c ****         &BHandel                              ,
 409:/home/hkh/git/eapidk-code-r76-trunk/apps/EeePProg/linux/../EeePProg.c ****         *(char**)pArgData
 410:/home/hkh/git/eapidk-code-r76-trunk/apps/EeePProg/linux/../EeePProg.c ****       ));
 411:/home/hkh/git/eapidk-code-r76-trunk/apps/EeePProg/linux/../EeePProg.c ****   if(memcmp(((COM0R20_CB_t *)BHandel)->GenId, COM0R20_CB_HEADER_ID, sizeof(COM0R20_CB_HEADER_ID)-1)
 1545              		.loc 1 411 14 is_stmt 1
 1546 0be0 10301BE5 		ldr	r3, [fp, #-16]
ARM GAS  /tmp/cc812cGb.s 			page 37


 1547              		.loc 1 411 38
 1548 0be4 063083E2 		add	r3, r3, #6
 1549              		.loc 1 411 6
 1550 0be8 0420A0E3 		mov	r2, #4
 1551 0bec 20119FE5 		ldr	r1, .L71+24
 1552              	.LPIC75:
 1553 0bf0 01108FE0 		add	r1, pc, r1
 1554 0bf4 0300A0E1 		mov	r0, r3
 1555 0bf8 FEFFFFEB 		bl	memcmp(PLT)
 1556 0bfc 0030A0E1 		mov	r3, r0
 1557              		.loc 1 411 5
 1558 0c00 000053E3 		cmp	r3, #0
 1559 0c04 1100000A 		beq	.L67
 412:/home/hkh/git/eapidk-code-r76-trunk/apps/EeePProg/linux/../EeePProg.c ****     EAPI_APP_RETURN_ERROR(
 1560              		.loc 1 412 5
 1561 0c08 08319FE5 		ldr	r3, .L71+28
 1562              	.LPIC76:
 1563 0c0c 03308FE0 		add	r3, pc, r3
 1564 0c10 08308DE5 		str	r3, [sp, #8]
 1565 0c14 00319FE5 		ldr	r3, .L71+32
 1566              	.LPIC77:
 1567 0c18 03308FE0 		add	r3, pc, r3
 1568 0c1c 04308DE5 		str	r3, [sp, #4]
 1569 0c20 0F3CE0E3 		mvn	r3, #3840
 1570 0c24 00308DE5 		str	r3, [sp]
 1571 0c28 673FA0E3 		mov	r3, #412
 1572 0c2c EC209FE5 		ldr	r2, .L71+36
 1573              	.LPIC78:
 1574 0c30 02208FE0 		add	r2, pc, r2
 1575 0c34 E8109FE5 		ldr	r1, .L71+40
 1576              	.LPIC79:
 1577 0c38 01108FE0 		add	r1, pc, r1
 1578 0c3c 4500A0E3 		mov	r0, #69
 1579 0c40 FEFFFFEB 		bl	siFormattedMessage_SC(PLT)
 1580 0c44 0F3CE0E3 		mvn	r3, #3840
 1581 0c48 0C300BE5 		str	r3, [fp, #-12]
 1582 0c4c 190000EA 		b	.L66
 1583              	.L67:
 413:/home/hkh/git/eapidk-code-r76-trunk/apps/EeePProg/linux/../EeePProg.c ****         CMD_ProgramCOM0R20CB_EEP,
 414:/home/hkh/git/eapidk-code-r76-trunk/apps/EeePProg/linux/../EeePProg.c ****         EAPI_STATUS_ERROR,
 415:/home/hkh/git/eapidk-code-r76-trunk/apps/EeePProg/linux/../EeePProg.c ****         "Not Valid COM0 R2.0 Carrier Board Image"
 416:/home/hkh/git/eapidk-code-r76-trunk/apps/EeePProg/linux/../EeePProg.c ****       );
 417:/home/hkh/git/eapidk-code-r76-trunk/apps/EeePProg/linux/../EeePProg.c ****   }
 418:/home/hkh/git/eapidk-code-r76-trunk/apps/EeePProg/linux/../EeePProg.c ****   DO(EeePWriteBufferToEEP(BHandel, EAPI_ID_I2C_EXTERNAL, COM0R20_CB_EEP_DEV_ADDR));
 1584              		.loc 1 418 3
 1585 0c50 10301BE5 		ldr	r3, [fp, #-16]
 1586 0c54 AE20A0E3 		mov	r2, #174
 1587 0c58 0010A0E3 		mov	r1, #0
 1588 0c5c 0300A0E1 		mov	r0, r3
 1589 0c60 FEFFFFEB 		bl	EeePWriteBufferToEEP(PLT)
 1590 0c64 0C000BE5 		str	r0, [fp, #-12]
 1591 0c68 0C301BE5 		ldr	r3, [fp, #-12]
 1592 0c6c 000053E3 		cmp	r3, #0
 1593 0c70 0F00000A 		beq	.L70
 1594              		.loc 1 418 3 is_stmt 0 discriminator 1
 1595 0c74 AC309FE5 		ldr	r3, .L71+44
 1596              	.LPIC80:
ARM GAS  /tmp/cc812cGb.s 			page 38


 1597 0c78 03308FE0 		add	r3, pc, r3
 1598 0c7c 08308DE5 		str	r3, [sp, #8]
 1599 0c80 A4309FE5 		ldr	r3, .L71+48
 1600              	.LPIC81:
 1601 0c84 03308FE0 		add	r3, pc, r3
 1602 0c88 04308DE5 		str	r3, [sp, #4]
 1603 0c8c 0C301BE5 		ldr	r3, [fp, #-12]
 1604 0c90 00308DE5 		str	r3, [sp]
 1605 0c94 A23100E3 		movw	r3, #418
 1606 0c98 90209FE5 		ldr	r2, .L71+52
 1607              	.LPIC82:
 1608 0c9c 02208FE0 		add	r2, pc, r2
 1609 0ca0 8C109FE5 		ldr	r1, .L71+56
 1610              	.LPIC83:
 1611 0ca4 01108FE0 		add	r1, pc, r1
 1612 0ca8 4500A0E3 		mov	r0, #69
 1613 0cac FEFFFFEB 		bl	siFormattedMessage_SC(PLT)
 1614 0cb0 000000EA 		b	.L66
 1615              	.L70:
 419:/home/hkh/git/eapidk-code-r76-trunk/apps/EeePProg/linux/../EeePProg.c **** 
 420:/home/hkh/git/eapidk-code-r76-trunk/apps/EeePProg/linux/../EeePProg.c **** EAPI_APP_ASSERT_EXIT
 1616              		.loc 1 420 1 is_stmt 1
 1617 0cb4 00F020E3 		nop
 1618              	.L66:
 421:/home/hkh/git/eapidk-code-r76-trunk/apps/EeePProg/linux/../EeePProg.c ****   EeePFreeBuffer(&BHandel);
 1619              		.loc 1 421 3
 1620 0cb8 10304BE2 		sub	r3, fp, #16
 1621 0cbc 0300A0E1 		mov	r0, r3
 1622 0cc0 FEFFFFEB 		bl	EeePFreeBuffer(PLT)
 422:/home/hkh/git/eapidk-code-r76-trunk/apps/EeePProg/linux/../EeePProg.c ****   return StatusCode;
 1623              		.loc 1 422 10
 1624 0cc4 0C301BE5 		ldr	r3, [fp, #-12]
 403:/home/hkh/git/eapidk-code-r76-trunk/apps/EeePProg/linux/../EeePProg.c ****   EApiStatus_t StatusCode=EAPI_STATUS_SUCCESS;
 1625              		.loc 1 403 1
 1626 0cc8 68109FE5 		ldr	r1, .L71+60
 1627              	.LPIC85:
 1628 0ccc 01108FE0 		add	r1, pc, r1
 423:/home/hkh/git/eapidk-code-r76-trunk/apps/EeePProg/linux/../EeePProg.c **** }
 1629              		.loc 1 423 1
 1630 0cd0 28209FE5 		ldr	r2, .L71+4
 1631 0cd4 022091E7 		ldr	r2, [r1, r2]
 1632 0cd8 001092E5 		ldr	r1, [r2]
 1633 0cdc 08201BE5 		ldr	r2, [fp, #-8]
 1634 0ce0 011032E0 		eors	r1, r2, r1
 1635 0ce4 0020A0E3 		mov	r2, #0
 1636 0ce8 0000000A 		beq	.L69
 1637 0cec FEFFFFEB 		bl	__stack_chk_fail(PLT)
 1638              	.L69:
 1639 0cf0 0300A0E1 		mov	r0, r3
 1640 0cf4 04D04BE2 		sub	sp, fp, #4
 1641              		.cfi_def_cfa 13, 8
 1642              		@ sp needed
 1643 0cf8 0088BDE8 		pop	{fp, pc}
 1644              	.L72:
 1645              		.align	2
 1646              	.L71:
 1647 0cfc A4010000 		.word	_GLOBAL_OFFSET_TABLE_-(.LPIC84+8)
ARM GAS  /tmp/cc812cGb.s 			page 39


 1648 0d00 00000000 		.word	__stack_chk_guard(GOT)
 1649 0d04 58060000 		.word	.LC26-(.LPIC71+8)
 1650 0d08 C0030000 		.word	.LC14-(.LPIC72+8)
 1651 0d0c B0030000 		.word	.LC15-(.LPIC73+8)
 1652 0d10 4C030000 		.word	.LC12-(.LPIC74+8)
 1653 0d14 54060000 		.word	.LC27-(.LPIC75+8)
 1654 0d18 60060000 		.word	.LC29-(.LPIC76+8)
 1655 0d1c 6C030000 		.word	.LC14-(.LPIC77+8)
 1656 0d20 28060000 		.word	.LC28-(.LPIC78+8)
 1657 0d24 F8020000 		.word	.LC12-(.LPIC79+8)
 1658 0d28 FC030000 		.word	.LC21-(.LPIC80+8)
 1659 0d2c 10030000 		.word	.LC14-(.LPIC81+8)
 1660 0d30 00030000 		.word	.LC15-(.LPIC82+8)
 1661 0d34 9C020000 		.word	.LC12-(.LPIC83+8)
 1662 0d38 64000000 		.word	_GLOBAL_OFFSET_TABLE_-(.LPIC85+8)
 1663              		.cfi_endproc
 1664              	.LFE9:
 1666              		.section	.rodata
 1667              		.align	2
 1668              	.LC30:
 1669 0584 636F4D30 		.ascii	"coM0\000"
 1669      00
 1670 0589 000000   		.align	2
 1671              	.LC31:
 1672 058c 434D445F 		.ascii	"CMD_ProgramCOM0R20M_EEP\000"
 1672      50726F67 
 1672      72616D43 
 1672      4F4D3052 
 1672      32304D5F 
 1673              		.align	2
 1674              	.LC32:
 1675 05a4 4E6F7420 		.ascii	"Not Valid COM0 R2.0 Module Image\000"
 1675      56616C69 
 1675      6420434F 
 1675      4D302052 
 1675      322E3020 
 1676              		.text
 1677              		.align	2
 1678              		.global	CMD_ProgramCOM0R20M_EEP
 1679              		.syntax unified
 1680              		.arm
 1681              		.fpu vfpv3
 1683              	CMD_ProgramCOM0R20M_EEP:
 1684              	.LFB10:
 424:/home/hkh/git/eapidk-code-r76-trunk/apps/EeePProg/linux/../EeePProg.c **** 
 425:/home/hkh/git/eapidk-code-r76-trunk/apps/EeePProg/linux/../EeePProg.c **** EApiStatus_t 
 426:/home/hkh/git/eapidk-code-r76-trunk/apps/EeePProg/linux/../EeePProg.c **** CMD_ProgramCOM0R20M_EEP(
 427:/home/hkh/git/eapidk-code-r76-trunk/apps/EeePProg/linux/../EeePProg.c ****     void *pArgData
 428:/home/hkh/git/eapidk-code-r76-trunk/apps/EeePProg/linux/../EeePProg.c ****     )
 429:/home/hkh/git/eapidk-code-r76-trunk/apps/EeePProg/linux/../EeePProg.c **** {
 1685              		.loc 1 429 1
 1686              		.cfi_startproc
 1687              		@ args = 0, pretend = 0, frame = 24
 1688              		@ frame_needed = 1, uses_anonymous_args = 0
 1689 0d3c 00482DE9 		push	{fp, lr}
 1690              		.cfi_def_cfa_offset 8
 1691              		.cfi_offset 11, -8
ARM GAS  /tmp/cc812cGb.s 			page 40


 1692              		.cfi_offset 14, -4
 1693 0d40 04B08DE2 		add	fp, sp, #4
 1694              		.cfi_def_cfa 11, 4
 1695 0d44 28D04DE2 		sub	sp, sp, #40
 1696 0d48 18000BE5 		str	r0, [fp, #-24]
 1697              		.loc 1 429 1
 1698 0d4c A8219FE5 		ldr	r2, .L80
 1699              	.LPIC99:
 1700 0d50 02208FE0 		add	r2, pc, r2
 1701 0d54 A4319FE5 		ldr	r3, .L80+4
 1702 0d58 033092E7 		ldr	r3, [r2, r3]
 1703 0d5c 003093E5 		ldr	r3, [r3]
 1704 0d60 08300BE5 		str	r3, [fp, #-8]
 1705 0d64 0030A0E3 		mov	r3, #0
 430:/home/hkh/git/eapidk-code-r76-trunk/apps/EeePProg/linux/../EeePProg.c ****   EApiStatus_t StatusCode=EAPI_STATUS_SUCCESS;
 1706              		.loc 1 430 16
 1707 0d68 0030A0E3 		mov	r3, #0
 1708 0d6c 0C300BE5 		str	r3, [fp, #-12]
 431:/home/hkh/git/eapidk-code-r76-trunk/apps/EeePProg/linux/../EeePProg.c ****   EeePHandel_t BHandel=NULL;
 1709              		.loc 1 431 16
 1710 0d70 0030A0E3 		mov	r3, #0
 1711 0d74 10300BE5 		str	r3, [fp, #-16]
 432:/home/hkh/git/eapidk-code-r76-trunk/apps/EeePProg/linux/../EeePProg.c **** 
 433:/home/hkh/git/eapidk-code-r76-trunk/apps/EeePProg/linux/../EeePProg.c ****   DO(EeePReadBufferFromFile(
 1712              		.loc 1 433 3
 1713 0d78 18301BE5 		ldr	r3, [fp, #-24]
 1714 0d7c 002093E5 		ldr	r2, [r3]
 1715 0d80 10304BE2 		sub	r3, fp, #16
 1716 0d84 0210A0E1 		mov	r1, r2
 1717 0d88 0300A0E1 		mov	r0, r3
 1718 0d8c FEFFFFEB 		bl	EeePReadBufferFromFile(PLT)
 1719 0d90 0C000BE5 		str	r0, [fp, #-12]
 1720 0d94 0C301BE5 		ldr	r3, [fp, #-12]
 1721 0d98 000053E3 		cmp	r3, #0
 1722 0d9c 0F00000A 		beq	.L74
 1723              		.loc 1 433 3 is_stmt 0 discriminator 1
 1724 0da0 5C319FE5 		ldr	r3, .L80+8
 1725              	.LPIC86:
 1726 0da4 03308FE0 		add	r3, pc, r3
 1727 0da8 08308DE5 		str	r3, [sp, #8]
 1728 0dac 54319FE5 		ldr	r3, .L80+12
 1729              	.LPIC87:
 1730 0db0 03308FE0 		add	r3, pc, r3
 1731 0db4 04308DE5 		str	r3, [sp, #4]
 1732 0db8 0C301BE5 		ldr	r3, [fp, #-12]
 1733 0dbc 00308DE5 		str	r3, [sp]
 1734 0dc0 B13100E3 		movw	r3, #433
 1735 0dc4 40219FE5 		ldr	r2, .L80+16
 1736              	.LPIC88:
 1737 0dc8 02208FE0 		add	r2, pc, r2
 1738 0dcc 3C119FE5 		ldr	r1, .L80+20
 1739              	.LPIC89:
 1740 0dd0 01108FE0 		add	r1, pc, r1
 1741 0dd4 4500A0E3 		mov	r0, #69
 1742 0dd8 FEFFFFEB 		bl	siFormattedMessage_SC(PLT)
 1743 0ddc 350000EA 		b	.L75
 1744              	.L74:
ARM GAS  /tmp/cc812cGb.s 			page 41


 434:/home/hkh/git/eapidk-code-r76-trunk/apps/EeePProg/linux/../EeePProg.c ****         &BHandel                              ,
 435:/home/hkh/git/eapidk-code-r76-trunk/apps/EeePProg/linux/../EeePProg.c ****         *(char**)pArgData
 436:/home/hkh/git/eapidk-code-r76-trunk/apps/EeePProg/linux/../EeePProg.c ****       ));
 437:/home/hkh/git/eapidk-code-r76-trunk/apps/EeePProg/linux/../EeePProg.c ****   if(memcmp(((COM0R20_M_t *)BHandel)->GenId, COM0R20_M_HEADER_ID, sizeof(COM0R20_M_HEADER_ID)-1)){
 1745              		.loc 1 437 14 is_stmt 1
 1746 0de0 10301BE5 		ldr	r3, [fp, #-16]
 1747              		.loc 1 437 37
 1748 0de4 063083E2 		add	r3, r3, #6
 1749              		.loc 1 437 6
 1750 0de8 0420A0E3 		mov	r2, #4
 1751 0dec 20119FE5 		ldr	r1, .L80+24
 1752              	.LPIC90:
 1753 0df0 01108FE0 		add	r1, pc, r1
 1754 0df4 0300A0E1 		mov	r0, r3
 1755 0df8 FEFFFFEB 		bl	memcmp(PLT)
 1756 0dfc 0030A0E1 		mov	r3, r0
 1757              		.loc 1 437 5
 1758 0e00 000053E3 		cmp	r3, #0
 1759 0e04 1100000A 		beq	.L76
 438:/home/hkh/git/eapidk-code-r76-trunk/apps/EeePProg/linux/../EeePProg.c ****     EAPI_APP_RETURN_ERROR(
 1760              		.loc 1 438 5
 1761 0e08 08319FE5 		ldr	r3, .L80+28
 1762              	.LPIC91:
 1763 0e0c 03308FE0 		add	r3, pc, r3
 1764 0e10 08308DE5 		str	r3, [sp, #8]
 1765 0e14 00319FE5 		ldr	r3, .L80+32
 1766              	.LPIC92:
 1767 0e18 03308FE0 		add	r3, pc, r3
 1768 0e1c 04308DE5 		str	r3, [sp, #4]
 1769 0e20 0F3CE0E3 		mvn	r3, #3840
 1770 0e24 00308DE5 		str	r3, [sp]
 1771 0e28 B63100E3 		movw	r3, #438
 1772 0e2c EC209FE5 		ldr	r2, .L80+36
 1773              	.LPIC93:
 1774 0e30 02208FE0 		add	r2, pc, r2
 1775 0e34 E8109FE5 		ldr	r1, .L80+40
 1776              	.LPIC94:
 1777 0e38 01108FE0 		add	r1, pc, r1
 1778 0e3c 4500A0E3 		mov	r0, #69
 1779 0e40 FEFFFFEB 		bl	siFormattedMessage_SC(PLT)
 1780 0e44 0F3CE0E3 		mvn	r3, #3840
 1781 0e48 0C300BE5 		str	r3, [fp, #-12]
 1782 0e4c 190000EA 		b	.L75
 1783              	.L76:
 439:/home/hkh/git/eapidk-code-r76-trunk/apps/EeePProg/linux/../EeePProg.c ****         CMD_ProgramCOM0R20M_EEP,
 440:/home/hkh/git/eapidk-code-r76-trunk/apps/EeePProg/linux/../EeePProg.c ****         EAPI_STATUS_ERROR,
 441:/home/hkh/git/eapidk-code-r76-trunk/apps/EeePProg/linux/../EeePProg.c ****         "Not Valid COM0 R2.0 Module Image"
 442:/home/hkh/git/eapidk-code-r76-trunk/apps/EeePProg/linux/../EeePProg.c ****       );
 443:/home/hkh/git/eapidk-code-r76-trunk/apps/EeePProg/linux/../EeePProg.c ****   }
 444:/home/hkh/git/eapidk-code-r76-trunk/apps/EeePProg/linux/../EeePProg.c ****   DO(EeePWriteBufferToEEP(BHandel, EAPI_ID_I2C_EXTERNAL, COM0R20_M_EEP_DEV_ADDR));
 1784              		.loc 1 444 3
 1785 0e50 10301BE5 		ldr	r3, [fp, #-16]
 1786 0e54 A020A0E3 		mov	r2, #160
 1787 0e58 0010A0E3 		mov	r1, #0
 1788 0e5c 0300A0E1 		mov	r0, r3
 1789 0e60 FEFFFFEB 		bl	EeePWriteBufferToEEP(PLT)
 1790 0e64 0C000BE5 		str	r0, [fp, #-12]
ARM GAS  /tmp/cc812cGb.s 			page 42


 1791 0e68 0C301BE5 		ldr	r3, [fp, #-12]
 1792 0e6c 000053E3 		cmp	r3, #0
 1793 0e70 0F00000A 		beq	.L79
 1794              		.loc 1 444 3 is_stmt 0 discriminator 1
 1795 0e74 AC309FE5 		ldr	r3, .L80+44
 1796              	.LPIC95:
 1797 0e78 03308FE0 		add	r3, pc, r3
 1798 0e7c 08308DE5 		str	r3, [sp, #8]
 1799 0e80 A4309FE5 		ldr	r3, .L80+48
 1800              	.LPIC96:
 1801 0e84 03308FE0 		add	r3, pc, r3
 1802 0e88 04308DE5 		str	r3, [sp, #4]
 1803 0e8c 0C301BE5 		ldr	r3, [fp, #-12]
 1804 0e90 00308DE5 		str	r3, [sp]
 1805 0e94 6F3FA0E3 		mov	r3, #444
 1806 0e98 90209FE5 		ldr	r2, .L80+52
 1807              	.LPIC97:
 1808 0e9c 02208FE0 		add	r2, pc, r2
 1809 0ea0 8C109FE5 		ldr	r1, .L80+56
 1810              	.LPIC98:
 1811 0ea4 01108FE0 		add	r1, pc, r1
 1812 0ea8 4500A0E3 		mov	r0, #69
 1813 0eac FEFFFFEB 		bl	siFormattedMessage_SC(PLT)
 1814 0eb0 000000EA 		b	.L75
 1815              	.L79:
 445:/home/hkh/git/eapidk-code-r76-trunk/apps/EeePProg/linux/../EeePProg.c **** 
 446:/home/hkh/git/eapidk-code-r76-trunk/apps/EeePProg/linux/../EeePProg.c **** EAPI_APP_ASSERT_EXIT
 1816              		.loc 1 446 1 is_stmt 1
 1817 0eb4 00F020E3 		nop
 1818              	.L75:
 447:/home/hkh/git/eapidk-code-r76-trunk/apps/EeePProg/linux/../EeePProg.c ****   EeePFreeBuffer(&BHandel);
 1819              		.loc 1 447 3
 1820 0eb8 10304BE2 		sub	r3, fp, #16
 1821 0ebc 0300A0E1 		mov	r0, r3
 1822 0ec0 FEFFFFEB 		bl	EeePFreeBuffer(PLT)
 448:/home/hkh/git/eapidk-code-r76-trunk/apps/EeePProg/linux/../EeePProg.c ****   return StatusCode;
 1823              		.loc 1 448 10
 1824 0ec4 0C301BE5 		ldr	r3, [fp, #-12]
 429:/home/hkh/git/eapidk-code-r76-trunk/apps/EeePProg/linux/../EeePProg.c ****   EApiStatus_t StatusCode=EAPI_STATUS_SUCCESS;
 1825              		.loc 1 429 1
 1826 0ec8 68109FE5 		ldr	r1, .L80+60
 1827              	.LPIC100:
 1828 0ecc 01108FE0 		add	r1, pc, r1
 449:/home/hkh/git/eapidk-code-r76-trunk/apps/EeePProg/linux/../EeePProg.c **** }
 1829              		.loc 1 449 1
 1830 0ed0 28209FE5 		ldr	r2, .L80+4
 1831 0ed4 022091E7 		ldr	r2, [r1, r2]
 1832 0ed8 001092E5 		ldr	r1, [r2]
 1833 0edc 08201BE5 		ldr	r2, [fp, #-8]
 1834 0ee0 011032E0 		eors	r1, r2, r1
 1835 0ee4 0020A0E3 		mov	r2, #0
 1836 0ee8 0000000A 		beq	.L78
 1837 0eec FEFFFFEB 		bl	__stack_chk_fail(PLT)
 1838              	.L78:
 1839 0ef0 0300A0E1 		mov	r0, r3
 1840 0ef4 04D04BE2 		sub	sp, fp, #4
 1841              		.cfi_def_cfa 13, 8
ARM GAS  /tmp/cc812cGb.s 			page 43


 1842              		@ sp needed
 1843 0ef8 0088BDE8 		pop	{fp, pc}
 1844              	.L81:
 1845              		.align	2
 1846              	.L80:
 1847 0efc A4010000 		.word	_GLOBAL_OFFSET_TABLE_-(.LPIC99+8)
 1848 0f00 00000000 		.word	__stack_chk_guard(GOT)
 1849 0f04 58060000 		.word	.LC26-(.LPIC86+8)
 1850 0f08 C0030000 		.word	.LC14-(.LPIC87+8)
 1851 0f0c B0030000 		.word	.LC15-(.LPIC88+8)
 1852 0f10 4C030000 		.word	.LC12-(.LPIC89+8)
 1853 0f14 A0060000 		.word	.LC30-(.LPIC90+8)
 1854 0f18 A8060000 		.word	.LC32-(.LPIC91+8)
 1855 0f1c 6C030000 		.word	.LC14-(.LPIC92+8)
 1856 0f20 74060000 		.word	.LC31-(.LPIC93+8)
 1857 0f24 F8020000 		.word	.LC12-(.LPIC94+8)
 1858 0f28 8C040000 		.word	.LC23-(.LPIC95+8)
 1859 0f2c 10030000 		.word	.LC14-(.LPIC96+8)
 1860 0f30 00030000 		.word	.LC15-(.LPIC97+8)
 1861 0f34 9C020000 		.word	.LC12-(.LPIC98+8)
 1862 0f38 64000000 		.word	_GLOBAL_OFFSET_TABLE_-(.LPIC100+8)
 1863              		.cfi_endproc
 1864              	.LFE10:
 1866              		.section	.rodata
 1867 05c5 000000   		.align	2
 1868              	.LC33:
 1869 05c8 45656550 		.ascii	"EeePReadBufferFromFile( &BHandel , ((WriteEepCfg_t*"
 1869      52656164 
 1869      42756666 
 1869      65724672 
 1869      6F6D4669 
 1870 05fb 29704172 		.ascii	")pArgData)->FileName )\000"
 1870      67446174 
 1870      61292D3E 
 1870      46696C65 
 1870      4E616D65 
 1871 0612 0000     		.align	2
 1872              	.LC34:
 1873 0614 45585031 		.ascii	"EXP1\000"
 1873      00
 1874 0619 000000   		.align	2
 1875              	.LC35:
 1876 061c 434D445F 		.ascii	"CMD_ProgramEeePExt_EEP\000"
 1876      50726F67 
 1876      72616D45 
 1876      65655045 
 1876      78745F45 
 1877 0633 00       		.align	2
 1878              	.LC36:
 1879 0634 4E6F7420 		.ascii	"Not Valid EeeP Extended EEP Image\000"
 1879      56616C69 
 1879      64204565 
 1879      65502045 
 1879      7874656E 
 1880 0656 0000     		.align	2
 1881              	.LC37:
 1882 0658 45656550 		.ascii	"EeePWriteBufferToEEP( BHandel, (uint16_t)((WriteEep"
ARM GAS  /tmp/cc812cGb.s 			page 44


 1882      57726974 
 1882      65427566 
 1882      66657254 
 1882      6F454550 
 1883 068b 4366675F 		.ascii	"Cfg_t*)pArgData)->I2CBus, (uint16_t)((WriteEepCfg_t"
 1883      742A2970 
 1883      41726744 
 1883      61746129 
 1883      2D3E4932 
 1884 06be 2A297041 		.ascii	"*)pArgData)->I2CDevAddr )\000"
 1884      72674461 
 1884      7461292D 
 1884      3E493243 
 1884      44657641 
 1885              		.text
 1886              		.align	2
 1887              		.global	CMD_ProgramEeePExt_EEP
 1888              		.syntax unified
 1889              		.arm
 1890              		.fpu vfpv3
 1892              	CMD_ProgramEeePExt_EEP:
 1893              	.LFB11:
 450:/home/hkh/git/eapidk-code-r76-trunk/apps/EeePProg/linux/../EeePProg.c **** 
 451:/home/hkh/git/eapidk-code-r76-trunk/apps/EeePProg/linux/../EeePProg.c **** 
 452:/home/hkh/git/eapidk-code-r76-trunk/apps/EeePProg/linux/../EeePProg.c **** EApiStatus_t 
 453:/home/hkh/git/eapidk-code-r76-trunk/apps/EeePProg/linux/../EeePProg.c **** CMD_ProgramEeePExt_EEP(
 454:/home/hkh/git/eapidk-code-r76-trunk/apps/EeePProg/linux/../EeePProg.c ****     void *pArgData
 455:/home/hkh/git/eapidk-code-r76-trunk/apps/EeePProg/linux/../EeePProg.c ****     )
 456:/home/hkh/git/eapidk-code-r76-trunk/apps/EeePProg/linux/../EeePProg.c **** {
 1894              		.loc 1 456 1
 1895              		.cfi_startproc
 1896              		@ args = 0, pretend = 0, frame = 24
 1897              		@ frame_needed = 1, uses_anonymous_args = 0
 1898 0f3c 00482DE9 		push	{fp, lr}
 1899              		.cfi_def_cfa_offset 8
 1900              		.cfi_offset 11, -8
 1901              		.cfi_offset 14, -4
 1902 0f40 04B08DE2 		add	fp, sp, #4
 1903              		.cfi_def_cfa 11, 4
 1904 0f44 28D04DE2 		sub	sp, sp, #40
 1905 0f48 18000BE5 		str	r0, [fp, #-24]
 1906              		.loc 1 456 1
 1907 0f4c BC219FE5 		ldr	r2, .L89
 1908              	.LPIC114:
 1909 0f50 02208FE0 		add	r2, pc, r2
 1910 0f54 B8319FE5 		ldr	r3, .L89+4
 1911 0f58 033092E7 		ldr	r3, [r2, r3]
 1912 0f5c 003093E5 		ldr	r3, [r3]
 1913 0f60 08300BE5 		str	r3, [fp, #-8]
 1914 0f64 0030A0E3 		mov	r3, #0
 457:/home/hkh/git/eapidk-code-r76-trunk/apps/EeePProg/linux/../EeePProg.c ****   EApiStatus_t StatusCode=EAPI_STATUS_SUCCESS;
 1915              		.loc 1 457 16
 1916 0f68 0030A0E3 		mov	r3, #0
 1917 0f6c 0C300BE5 		str	r3, [fp, #-12]
 458:/home/hkh/git/eapidk-code-r76-trunk/apps/EeePProg/linux/../EeePProg.c ****   EeePHandel_t BHandel=NULL;
 1918              		.loc 1 458 16
 1919 0f70 0030A0E3 		mov	r3, #0
ARM GAS  /tmp/cc812cGb.s 			page 45


 1920 0f74 10300BE5 		str	r3, [fp, #-16]
 459:/home/hkh/git/eapidk-code-r76-trunk/apps/EeePProg/linux/../EeePProg.c **** 
 460:/home/hkh/git/eapidk-code-r76-trunk/apps/EeePProg/linux/../EeePProg.c ****   DO(EeePReadBufferFromFile(
 1921              		.loc 1 460 3
 1922 0f78 18301BE5 		ldr	r3, [fp, #-24]
 1923 0f7c 002093E5 		ldr	r2, [r3]
 1924 0f80 10304BE2 		sub	r3, fp, #16
 1925 0f84 0210A0E1 		mov	r1, r2
 1926 0f88 0300A0E1 		mov	r0, r3
 1927 0f8c FEFFFFEB 		bl	EeePReadBufferFromFile(PLT)
 1928 0f90 0C000BE5 		str	r0, [fp, #-12]
 1929 0f94 0C301BE5 		ldr	r3, [fp, #-12]
 1930 0f98 000053E3 		cmp	r3, #0
 1931 0f9c 0F00000A 		beq	.L83
 1932              		.loc 1 460 3 is_stmt 0 discriminator 1
 1933 0fa0 70319FE5 		ldr	r3, .L89+8
 1934              	.LPIC101:
 1935 0fa4 03308FE0 		add	r3, pc, r3
 1936 0fa8 08308DE5 		str	r3, [sp, #8]
 1937 0fac 68319FE5 		ldr	r3, .L89+12
 1938              	.LPIC102:
 1939 0fb0 03308FE0 		add	r3, pc, r3
 1940 0fb4 04308DE5 		str	r3, [sp, #4]
 1941 0fb8 0C301BE5 		ldr	r3, [fp, #-12]
 1942 0fbc 00308DE5 		str	r3, [sp]
 1943 0fc0 733FA0E3 		mov	r3, #460
 1944 0fc4 54219FE5 		ldr	r2, .L89+16
 1945              	.LPIC103:
 1946 0fc8 02208FE0 		add	r2, pc, r2
 1947 0fcc 50119FE5 		ldr	r1, .L89+20
 1948              	.LPIC104:
 1949 0fd0 01108FE0 		add	r1, pc, r1
 1950 0fd4 4500A0E3 		mov	r0, #69
 1951 0fd8 FEFFFFEB 		bl	siFormattedMessage_SC(PLT)
 1952 0fdc 3A0000EA 		b	.L84
 1953              	.L83:
 461:/home/hkh/git/eapidk-code-r76-trunk/apps/EeePProg/linux/../EeePProg.c ****         &BHandel                              ,
 462:/home/hkh/git/eapidk-code-r76-trunk/apps/EeePProg/linux/../EeePProg.c ****         ((WriteEepCfg_t*)pArgData)->FileName
 463:/home/hkh/git/eapidk-code-r76-trunk/apps/EeePProg/linux/../EeePProg.c ****       ));
 464:/home/hkh/git/eapidk-code-r76-trunk/apps/EeePProg/linux/../EeePProg.c ****   if(memcmp(((Exp_EEP_t *)BHandel)->GenId, EEEP_EXP_HEADER_ID, sizeof(EEEP_EXP_HEADER_ID)-1)){
 1954              		.loc 1 464 14 is_stmt 1
 1955 0fe0 10301BE5 		ldr	r3, [fp, #-16]
 1956              		.loc 1 464 35
 1957 0fe4 063083E2 		add	r3, r3, #6
 1958              		.loc 1 464 6
 1959 0fe8 0420A0E3 		mov	r2, #4
 1960 0fec 34119FE5 		ldr	r1, .L89+24
 1961              	.LPIC105:
 1962 0ff0 01108FE0 		add	r1, pc, r1
 1963 0ff4 0300A0E1 		mov	r0, r3
 1964 0ff8 FEFFFFEB 		bl	memcmp(PLT)
 1965 0ffc 0030A0E1 		mov	r3, r0
 1966              		.loc 1 464 5
 1967 1000 000053E3 		cmp	r3, #0
 1968 1004 1100000A 		beq	.L85
 465:/home/hkh/git/eapidk-code-r76-trunk/apps/EeePProg/linux/../EeePProg.c ****     EAPI_APP_RETURN_ERROR(
 1969              		.loc 1 465 5
ARM GAS  /tmp/cc812cGb.s 			page 46


 1970 1008 1C319FE5 		ldr	r3, .L89+28
 1971              	.LPIC106:
 1972 100c 03308FE0 		add	r3, pc, r3
 1973 1010 08308DE5 		str	r3, [sp, #8]
 1974 1014 14319FE5 		ldr	r3, .L89+32
 1975              	.LPIC107:
 1976 1018 03308FE0 		add	r3, pc, r3
 1977 101c 04308DE5 		str	r3, [sp, #4]
 1978 1020 0F3CE0E3 		mvn	r3, #3840
 1979 1024 00308DE5 		str	r3, [sp]
 1980 1028 D13100E3 		movw	r3, #465
 1981 102c 00219FE5 		ldr	r2, .L89+36
 1982              	.LPIC108:
 1983 1030 02208FE0 		add	r2, pc, r2
 1984 1034 FC109FE5 		ldr	r1, .L89+40
 1985              	.LPIC109:
 1986 1038 01108FE0 		add	r1, pc, r1
 1987 103c 4500A0E3 		mov	r0, #69
 1988 1040 FEFFFFEB 		bl	siFormattedMessage_SC(PLT)
 1989 1044 0F3CE0E3 		mvn	r3, #3840
 1990 1048 0C300BE5 		str	r3, [fp, #-12]
 1991 104c 1E0000EA 		b	.L84
 1992              	.L85:
 466:/home/hkh/git/eapidk-code-r76-trunk/apps/EeePProg/linux/../EeePProg.c ****         CMD_ProgramEeePExt_EEP,
 467:/home/hkh/git/eapidk-code-r76-trunk/apps/EeePProg/linux/../EeePProg.c ****         EAPI_STATUS_ERROR,
 468:/home/hkh/git/eapidk-code-r76-trunk/apps/EeePProg/linux/../EeePProg.c ****         "Not Valid EeeP Extended EEP Image"
 469:/home/hkh/git/eapidk-code-r76-trunk/apps/EeePProg/linux/../EeePProg.c ****       );
 470:/home/hkh/git/eapidk-code-r76-trunk/apps/EeePProg/linux/../EeePProg.c ****   }
 471:/home/hkh/git/eapidk-code-r76-trunk/apps/EeePProg/linux/../EeePProg.c ****   DO(EeePWriteBufferToEEP(
 1993              		.loc 1 471 3
 1994 1050 10001BE5 		ldr	r0, [fp, #-16]
 1995 1054 18301BE5 		ldr	r3, [fp, #-24]
 1996 1058 043093E5 		ldr	r3, [r3, #4]
 1997 105c 7330FFE6 		uxth	r3, r3
 1998 1060 0310A0E1 		mov	r1, r3
 1999 1064 18301BE5 		ldr	r3, [fp, #-24]
 2000 1068 083093E5 		ldr	r3, [r3, #8]
 2001 106c 7330FFE6 		uxth	r3, r3
 2002 1070 0320A0E1 		mov	r2, r3
 2003 1074 FEFFFFEB 		bl	EeePWriteBufferToEEP(PLT)
 2004 1078 0C000BE5 		str	r0, [fp, #-12]
 2005 107c 0C301BE5 		ldr	r3, [fp, #-12]
 2006 1080 000053E3 		cmp	r3, #0
 2007 1084 0F00000A 		beq	.L88
 2008              		.loc 1 471 3 is_stmt 0 discriminator 1
 2009 1088 AC309FE5 		ldr	r3, .L89+44
 2010              	.LPIC110:
 2011 108c 03308FE0 		add	r3, pc, r3
 2012 1090 08308DE5 		str	r3, [sp, #8]
 2013 1094 A4309FE5 		ldr	r3, .L89+48
 2014              	.LPIC111:
 2015 1098 03308FE0 		add	r3, pc, r3
 2016 109c 04308DE5 		str	r3, [sp, #4]
 2017 10a0 0C301BE5 		ldr	r3, [fp, #-12]
 2018 10a4 00308DE5 		str	r3, [sp]
 2019 10a8 D73100E3 		movw	r3, #471
 2020 10ac 90209FE5 		ldr	r2, .L89+52
ARM GAS  /tmp/cc812cGb.s 			page 47


 2021              	.LPIC112:
 2022 10b0 02208FE0 		add	r2, pc, r2
 2023 10b4 8C109FE5 		ldr	r1, .L89+56
 2024              	.LPIC113:
 2025 10b8 01108FE0 		add	r1, pc, r1
 2026 10bc 4500A0E3 		mov	r0, #69
 2027 10c0 FEFFFFEB 		bl	siFormattedMessage_SC(PLT)
 2028 10c4 000000EA 		b	.L84
 2029              	.L88:
 472:/home/hkh/git/eapidk-code-r76-trunk/apps/EeePProg/linux/../EeePProg.c ****           BHandel, 
 473:/home/hkh/git/eapidk-code-r76-trunk/apps/EeePProg/linux/../EeePProg.c ****           (uint16_t)((WriteEepCfg_t*)pArgData)->I2CBus, 
 474:/home/hkh/git/eapidk-code-r76-trunk/apps/EeePProg/linux/../EeePProg.c ****           (uint16_t)((WriteEepCfg_t*)pArgData)->I2CDevAddr
 475:/home/hkh/git/eapidk-code-r76-trunk/apps/EeePProg/linux/../EeePProg.c ****       ));
 476:/home/hkh/git/eapidk-code-r76-trunk/apps/EeePProg/linux/../EeePProg.c **** 
 477:/home/hkh/git/eapidk-code-r76-trunk/apps/EeePProg/linux/../EeePProg.c **** EAPI_APP_ASSERT_EXIT
 2030              		.loc 1 477 1 is_stmt 1
 2031 10c8 00F020E3 		nop
 2032              	.L84:
 478:/home/hkh/git/eapidk-code-r76-trunk/apps/EeePProg/linux/../EeePProg.c ****   EeePFreeBuffer(&BHandel);
 2033              		.loc 1 478 3
 2034 10cc 10304BE2 		sub	r3, fp, #16
 2035 10d0 0300A0E1 		mov	r0, r3
 2036 10d4 FEFFFFEB 		bl	EeePFreeBuffer(PLT)
 479:/home/hkh/git/eapidk-code-r76-trunk/apps/EeePProg/linux/../EeePProg.c ****   return StatusCode;
 2037              		.loc 1 479 10
 2038 10d8 0C301BE5 		ldr	r3, [fp, #-12]
 456:/home/hkh/git/eapidk-code-r76-trunk/apps/EeePProg/linux/../EeePProg.c ****   EApiStatus_t StatusCode=EAPI_STATUS_SUCCESS;
 2039              		.loc 1 456 1
 2040 10dc 68109FE5 		ldr	r1, .L89+60
 2041              	.LPIC115:
 2042 10e0 01108FE0 		add	r1, pc, r1
 480:/home/hkh/git/eapidk-code-r76-trunk/apps/EeePProg/linux/../EeePProg.c **** }
 2043              		.loc 1 480 1
 2044 10e4 28209FE5 		ldr	r2, .L89+4
 2045 10e8 022091E7 		ldr	r2, [r1, r2]
 2046 10ec 001092E5 		ldr	r1, [r2]
 2047 10f0 08201BE5 		ldr	r2, [fp, #-8]
 2048 10f4 011032E0 		eors	r1, r2, r1
 2049 10f8 0020A0E3 		mov	r2, #0
 2050 10fc 0000000A 		beq	.L87
 2051 1100 FEFFFFEB 		bl	__stack_chk_fail(PLT)
 2052              	.L87:
 2053 1104 0300A0E1 		mov	r0, r3
 2054 1108 04D04BE2 		sub	sp, fp, #4
 2055              		.cfi_def_cfa 13, 8
 2056              		@ sp needed
 2057 110c 0088BDE8 		pop	{fp, pc}
 2058              	.L90:
 2059              		.align	2
 2060              	.L89:
 2061 1110 B8010000 		.word	_GLOBAL_OFFSET_TABLE_-(.LPIC114+8)
 2062 1114 00000000 		.word	__stack_chk_guard(GOT)
 2063 1118 34070000 		.word	.LC33-(.LPIC101+8)
 2064 111c D4030000 		.word	.LC14-(.LPIC102+8)
 2065 1120 C4030000 		.word	.LC15-(.LPIC103+8)
 2066 1124 60030000 		.word	.LC12-(.LPIC104+8)
 2067 1128 44070000 		.word	.LC34-(.LPIC105+8)
ARM GAS  /tmp/cc812cGb.s 			page 48


 2068 112c 4C070000 		.word	.LC36-(.LPIC106+8)
 2069 1130 80030000 		.word	.LC14-(.LPIC107+8)
 2070 1134 18070000 		.word	.LC35-(.LPIC108+8)
 2071 1138 0C030000 		.word	.LC12-(.LPIC109+8)
 2072 113c 00070000 		.word	.LC37-(.LPIC110+8)
 2073 1140 10030000 		.word	.LC14-(.LPIC111+8)
 2074 1144 00030000 		.word	.LC15-(.LPIC112+8)
 2075 1148 9C020000 		.word	.LC12-(.LPIC113+8)
 2076 114c 64000000 		.word	_GLOBAL_OFFSET_TABLE_-(.LPIC115+8)
 2077              		.cfi_endproc
 2078              	.LFE11:
 2080              		.section	.rodata
 2081              		.align	2
 2082              	.LC38:
 2083 06d8 45656550 		.ascii	"EeePReadBufferFromEEP( &BHandel, (uint16_t)((WriteE"
 2083      52656164 
 2083      42756666 
 2083      65724672 
 2083      6F6D4545 
 2084 070b 65704366 		.ascii	"epCfg_t*)pArgData)->I2CBus, (uint16_t)((WriteEepCfg"
 2084      675F742A 
 2084      29704172 
 2084      67446174 
 2084      61292D3E 
 2085 073e 5F742A29 		.ascii	"_t*)pArgData)->I2CDevAddr )\000"
 2085      70417267 
 2085      44617461 
 2085      292D3E49 
 2085      32434465 
 2086 075a 0000     		.align	2
 2087              	.LC39:
 2088 075c 45656550 		.ascii	"EeePWriteBufferToFile(BHandel, ((WriteEepCfg_t*)pAr"
 2088      57726974 
 2088      65427566 
 2088      66657254 
 2088      6F46696C 
 2089 078f 67446174 		.ascii	"gData)->FileName)\000"
 2089      61292D3E 
 2089      46696C65 
 2089      4E616D65 
 2089      2900
 2090              		.text
 2091              		.align	2
 2092              		.global	CMD_StoreEeePExt_EEP
 2093              		.syntax unified
 2094              		.arm
 2095              		.fpu vfpv3
 2097              	CMD_StoreEeePExt_EEP:
 2098              	.LFB12:
 481:/home/hkh/git/eapidk-code-r76-trunk/apps/EeePProg/linux/../EeePProg.c **** 
 482:/home/hkh/git/eapidk-code-r76-trunk/apps/EeePProg/linux/../EeePProg.c **** EApiStatus_t 
 483:/home/hkh/git/eapidk-code-r76-trunk/apps/EeePProg/linux/../EeePProg.c **** CMD_StoreEeePExt_EEP(
 484:/home/hkh/git/eapidk-code-r76-trunk/apps/EeePProg/linux/../EeePProg.c ****     void *pArgData
 485:/home/hkh/git/eapidk-code-r76-trunk/apps/EeePProg/linux/../EeePProg.c ****     )
 486:/home/hkh/git/eapidk-code-r76-trunk/apps/EeePProg/linux/../EeePProg.c **** {
 2099              		.loc 1 486 1
 2100              		.cfi_startproc
ARM GAS  /tmp/cc812cGb.s 			page 49


 2101              		@ args = 0, pretend = 0, frame = 24
 2102              		@ frame_needed = 1, uses_anonymous_args = 0
 2103 1150 00482DE9 		push	{fp, lr}
 2104              		.cfi_def_cfa_offset 8
 2105              		.cfi_offset 11, -8
 2106              		.cfi_offset 14, -4
 2107 1154 04B08DE2 		add	fp, sp, #4
 2108              		.cfi_def_cfa 11, 4
 2109 1158 28D04DE2 		sub	sp, sp, #40
 2110 115c 18000BE5 		str	r0, [fp, #-24]
 2111              		.loc 1 486 1
 2112 1160 4C219FE5 		ldr	r2, .L97
 2113              	.LPIC124:
 2114 1164 02208FE0 		add	r2, pc, r2
 2115 1168 48319FE5 		ldr	r3, .L97+4
 2116 116c 033092E7 		ldr	r3, [r2, r3]
 2117 1170 003093E5 		ldr	r3, [r3]
 2118 1174 08300BE5 		str	r3, [fp, #-8]
 2119 1178 0030A0E3 		mov	r3, #0
 487:/home/hkh/git/eapidk-code-r76-trunk/apps/EeePProg/linux/../EeePProg.c ****   EApiStatus_t StatusCode=EAPI_STATUS_SUCCESS;
 2120              		.loc 1 487 16
 2121 117c 0030A0E3 		mov	r3, #0
 2122 1180 0C300BE5 		str	r3, [fp, #-12]
 488:/home/hkh/git/eapidk-code-r76-trunk/apps/EeePProg/linux/../EeePProg.c ****   EeePHandel_t BHandel=NULL;
 2123              		.loc 1 488 16
 2124 1184 0030A0E3 		mov	r3, #0
 2125 1188 10300BE5 		str	r3, [fp, #-16]
 489:/home/hkh/git/eapidk-code-r76-trunk/apps/EeePProg/linux/../EeePProg.c ****   DO(EeePReadBufferFromEEP(
 2126              		.loc 1 489 3
 2127 118c 18301BE5 		ldr	r3, [fp, #-24]
 2128 1190 043093E5 		ldr	r3, [r3, #4]
 2129 1194 7330FFE6 		uxth	r3, r3
 2130 1198 0310A0E1 		mov	r1, r3
 2131 119c 18301BE5 		ldr	r3, [fp, #-24]
 2132 11a0 083093E5 		ldr	r3, [r3, #8]
 2133 11a4 7320FFE6 		uxth	r2, r3
 2134 11a8 10304BE2 		sub	r3, fp, #16
 2135 11ac 0300A0E1 		mov	r0, r3
 2136 11b0 FEFFFFEB 		bl	EeePReadBufferFromEEP(PLT)
 2137 11b4 0C000BE5 		str	r0, [fp, #-12]
 2138 11b8 0C301BE5 		ldr	r3, [fp, #-12]
 2139 11bc 000053E3 		cmp	r3, #0
 2140 11c0 0F00000A 		beq	.L92
 2141              		.loc 1 489 3 is_stmt 0 discriminator 1
 2142 11c4 F0309FE5 		ldr	r3, .L97+8
 2143              	.LPIC116:
 2144 11c8 03308FE0 		add	r3, pc, r3
 2145 11cc 08308DE5 		str	r3, [sp, #8]
 2146 11d0 E8309FE5 		ldr	r3, .L97+12
 2147              	.LPIC117:
 2148 11d4 03308FE0 		add	r3, pc, r3
 2149 11d8 04308DE5 		str	r3, [sp, #4]
 2150 11dc 0C301BE5 		ldr	r3, [fp, #-12]
 2151 11e0 00308DE5 		str	r3, [sp]
 2152 11e4 E93100E3 		movw	r3, #489
 2153 11e8 D4209FE5 		ldr	r2, .L97+16
 2154              	.LPIC118:
ARM GAS  /tmp/cc812cGb.s 			page 50


 2155 11ec 02208FE0 		add	r2, pc, r2
 2156 11f0 D0109FE5 		ldr	r1, .L97+20
 2157              	.LPIC119:
 2158 11f4 01108FE0 		add	r1, pc, r1
 2159 11f8 4500A0E3 		mov	r0, #69
 2160 11fc FEFFFFEB 		bl	siFormattedMessage_SC(PLT)
 2161 1200 1A0000EA 		b	.L93
 2162              	.L92:
 490:/home/hkh/git/eapidk-code-r76-trunk/apps/EeePProg/linux/../EeePProg.c ****           &BHandel, 
 491:/home/hkh/git/eapidk-code-r76-trunk/apps/EeePProg/linux/../EeePProg.c ****           (uint16_t)((WriteEepCfg_t*)pArgData)->I2CBus, 
 492:/home/hkh/git/eapidk-code-r76-trunk/apps/EeePProg/linux/../EeePProg.c ****           (uint16_t)((WriteEepCfg_t*)pArgData)->I2CDevAddr
 493:/home/hkh/git/eapidk-code-r76-trunk/apps/EeePProg/linux/../EeePProg.c ****       ));
 494:/home/hkh/git/eapidk-code-r76-trunk/apps/EeePProg/linux/../EeePProg.c ****   DO(EeePWriteBufferToFile(BHandel, ((WriteEepCfg_t*)pArgData)->FileName));
 2163              		.loc 1 494 3 is_stmt 1
 2164 1204 10201BE5 		ldr	r2, [fp, #-16]
 2165 1208 18301BE5 		ldr	r3, [fp, #-24]
 2166 120c 003093E5 		ldr	r3, [r3]
 2167 1210 0310A0E1 		mov	r1, r3
 2168 1214 0200A0E1 		mov	r0, r2
 2169 1218 FEFFFFEB 		bl	EeePWriteBufferToFile(PLT)
 2170 121c 0C000BE5 		str	r0, [fp, #-12]
 2171 1220 0C301BE5 		ldr	r3, [fp, #-12]
 2172 1224 000053E3 		cmp	r3, #0
 2173 1228 0F00000A 		beq	.L96
 2174              		.loc 1 494 3 is_stmt 0 discriminator 1
 2175 122c 98309FE5 		ldr	r3, .L97+24
 2176              	.LPIC120:
 2177 1230 03308FE0 		add	r3, pc, r3
 2178 1234 08308DE5 		str	r3, [sp, #8]
 2179 1238 90309FE5 		ldr	r3, .L97+28
 2180              	.LPIC121:
 2181 123c 03308FE0 		add	r3, pc, r3
 2182 1240 04308DE5 		str	r3, [sp, #4]
 2183 1244 0C301BE5 		ldr	r3, [fp, #-12]
 2184 1248 00308DE5 		str	r3, [sp]
 2185 124c EE3100E3 		movw	r3, #494
 2186 1250 7C209FE5 		ldr	r2, .L97+32
 2187              	.LPIC122:
 2188 1254 02208FE0 		add	r2, pc, r2
 2189 1258 78109FE5 		ldr	r1, .L97+36
 2190              	.LPIC123:
 2191 125c 01108FE0 		add	r1, pc, r1
 2192 1260 4500A0E3 		mov	r0, #69
 2193 1264 FEFFFFEB 		bl	siFormattedMessage_SC(PLT)
 2194 1268 000000EA 		b	.L93
 2195              	.L96:
 495:/home/hkh/git/eapidk-code-r76-trunk/apps/EeePProg/linux/../EeePProg.c **** 
 496:/home/hkh/git/eapidk-code-r76-trunk/apps/EeePProg/linux/../EeePProg.c **** EAPI_APP_ASSERT_EXIT
 2196              		.loc 1 496 1 is_stmt 1
 2197 126c 00F020E3 		nop
 2198              	.L93:
 497:/home/hkh/git/eapidk-code-r76-trunk/apps/EeePProg/linux/../EeePProg.c ****   EeePFreeBuffer(&BHandel);
 2199              		.loc 1 497 3
 2200 1270 10304BE2 		sub	r3, fp, #16
 2201 1274 0300A0E1 		mov	r0, r3
 2202 1278 FEFFFFEB 		bl	EeePFreeBuffer(PLT)
 498:/home/hkh/git/eapidk-code-r76-trunk/apps/EeePProg/linux/../EeePProg.c ****   return StatusCode;
ARM GAS  /tmp/cc812cGb.s 			page 51


 2203              		.loc 1 498 10
 2204 127c 0C301BE5 		ldr	r3, [fp, #-12]
 486:/home/hkh/git/eapidk-code-r76-trunk/apps/EeePProg/linux/../EeePProg.c ****   EApiStatus_t StatusCode=EAPI_STATUS_SUCCESS;
 2205              		.loc 1 486 1
 2206 1280 54109FE5 		ldr	r1, .L97+40
 2207              	.LPIC125:
 2208 1284 01108FE0 		add	r1, pc, r1
 499:/home/hkh/git/eapidk-code-r76-trunk/apps/EeePProg/linux/../EeePProg.c **** }
 2209              		.loc 1 499 1
 2210 1288 28209FE5 		ldr	r2, .L97+4
 2211 128c 022091E7 		ldr	r2, [r1, r2]
 2212 1290 001092E5 		ldr	r1, [r2]
 2213 1294 08201BE5 		ldr	r2, [fp, #-8]
 2214 1298 011032E0 		eors	r1, r2, r1
 2215 129c 0020A0E3 		mov	r2, #0
 2216 12a0 0000000A 		beq	.L95
 2217 12a4 FEFFFFEB 		bl	__stack_chk_fail(PLT)
 2218              	.L95:
 2219 12a8 0300A0E1 		mov	r0, r3
 2220 12ac 04D04BE2 		sub	sp, fp, #4
 2221              		.cfi_def_cfa 13, 8
 2222              		@ sp needed
 2223 12b0 0088BDE8 		pop	{fp, pc}
 2224              	.L98:
 2225              		.align	2
 2226              	.L97:
 2227 12b4 48010000 		.word	_GLOBAL_OFFSET_TABLE_-(.LPIC124+8)
 2228 12b8 00000000 		.word	__stack_chk_guard(GOT)
 2229 12bc C4070000 		.word	.LC38-(.LPIC116+8)
 2230 12c0 54030000 		.word	.LC14-(.LPIC117+8)
 2231 12c4 44030000 		.word	.LC15-(.LPIC118+8)
 2232 12c8 E0020000 		.word	.LC12-(.LPIC119+8)
 2233 12cc F0070000 		.word	.LC39-(.LPIC120+8)
 2234 12d0 FC020000 		.word	.LC14-(.LPIC121+8)
 2235 12d4 EC020000 		.word	.LC15-(.LPIC122+8)
 2236 12d8 88020000 		.word	.LC12-(.LPIC123+8)
 2237 12dc 50000000 		.word	_GLOBAL_OFFSET_TABLE_-(.LPIC125+8)
 2238              		.cfi_endproc
 2239              	.LFE12:
 2241              		.align	2
 2242              		.global	CMD_StoreCOM0R20_CB_EEP
 2243              		.syntax unified
 2244              		.arm
 2245              		.fpu vfpv3
 2247              	CMD_StoreCOM0R20_CB_EEP:
 2248              	.LFB13:
 500:/home/hkh/git/eapidk-code-r76-trunk/apps/EeePProg/linux/../EeePProg.c **** 
 501:/home/hkh/git/eapidk-code-r76-trunk/apps/EeePProg/linux/../EeePProg.c **** EApiStatus_t 
 502:/home/hkh/git/eapidk-code-r76-trunk/apps/EeePProg/linux/../EeePProg.c **** CMD_StoreCOM0R20_CB_EEP(
 503:/home/hkh/git/eapidk-code-r76-trunk/apps/EeePProg/linux/../EeePProg.c ****     void *pArgData
 504:/home/hkh/git/eapidk-code-r76-trunk/apps/EeePProg/linux/../EeePProg.c ****     )
 505:/home/hkh/git/eapidk-code-r76-trunk/apps/EeePProg/linux/../EeePProg.c **** {
 2249              		.loc 1 505 1
 2250              		.cfi_startproc
 2251              		@ args = 0, pretend = 0, frame = 24
 2252              		@ frame_needed = 1, uses_anonymous_args = 0
 2253 12e0 00482DE9 		push	{fp, lr}
ARM GAS  /tmp/cc812cGb.s 			page 52


 2254              		.cfi_def_cfa_offset 8
 2255              		.cfi_offset 11, -8
 2256              		.cfi_offset 14, -4
 2257 12e4 04B08DE2 		add	fp, sp, #4
 2258              		.cfi_def_cfa 11, 4
 2259 12e8 18D04DE2 		sub	sp, sp, #24
 2260 12ec 18000BE5 		str	r0, [fp, #-24]
 2261              		.loc 1 505 1
 2262 12f0 7C209FE5 		ldr	r2, .L102
 2263              	.LPIC126:
 2264 12f4 02208FE0 		add	r2, pc, r2
 2265 12f8 78309FE5 		ldr	r3, .L102+4
 2266 12fc 033092E7 		ldr	r3, [r2, r3]
 2267 1300 003093E5 		ldr	r3, [r3]
 2268 1304 08300BE5 		str	r3, [fp, #-8]
 2269 1308 0030A0E3 		mov	r3, #0
 506:/home/hkh/git/eapidk-code-r76-trunk/apps/EeePProg/linux/../EeePProg.c ****   WriteEepCfg_t WriteEep={NULL, EAPI_ID_I2C_EXTERNAL, COM0R20_CB_EEP_DEV_ADDR};
 2270              		.loc 1 506 17
 2271 130c 0030A0E3 		mov	r3, #0
 2272 1310 14300BE5 		str	r3, [fp, #-20]
 2273 1314 0030A0E3 		mov	r3, #0
 2274 1318 10300BE5 		str	r3, [fp, #-16]
 2275 131c AE30A0E3 		mov	r3, #174
 2276 1320 0C300BE5 		str	r3, [fp, #-12]
 507:/home/hkh/git/eapidk-code-r76-trunk/apps/EeePProg/linux/../EeePProg.c ****   WriteEep.FileName=*(char**)pArgData;
 2277              		.loc 1 507 21
 2278 1324 18301BE5 		ldr	r3, [fp, #-24]
 2279 1328 003093E5 		ldr	r3, [r3]
 2280              		.loc 1 507 20
 2281 132c 14300BE5 		str	r3, [fp, #-20]
 508:/home/hkh/git/eapidk-code-r76-trunk/apps/EeePProg/linux/../EeePProg.c ****   return CMD_StoreEeePExt_EEP(&WriteEep);
 2282              		.loc 1 508 10
 2283 1330 14304BE2 		sub	r3, fp, #20
 2284 1334 0300A0E1 		mov	r0, r3
 2285 1338 FEFFFFEB 		bl	CMD_StoreEeePExt_EEP(PLT)
 2286 133c 0030A0E1 		mov	r3, r0
 505:/home/hkh/git/eapidk-code-r76-trunk/apps/EeePProg/linux/../EeePProg.c ****   WriteEepCfg_t WriteEep={NULL, EAPI_ID_I2C_EXTERNAL, COM0R20_CB_EEP_DEV_ADDR};
 2287              		.loc 1 505 1
 2288 1340 34109FE5 		ldr	r1, .L102+8
 2289              	.LPIC127:
 2290 1344 01108FE0 		add	r1, pc, r1
 509:/home/hkh/git/eapidk-code-r76-trunk/apps/EeePProg/linux/../EeePProg.c **** }
 2291              		.loc 1 509 1
 2292 1348 28209FE5 		ldr	r2, .L102+4
 2293 134c 022091E7 		ldr	r2, [r1, r2]
 2294 1350 001092E5 		ldr	r1, [r2]
 2295 1354 08201BE5 		ldr	r2, [fp, #-8]
 2296 1358 011032E0 		eors	r1, r2, r1
 2297 135c 0020A0E3 		mov	r2, #0
 2298 1360 0000000A 		beq	.L101
 2299 1364 FEFFFFEB 		bl	__stack_chk_fail(PLT)
 2300              	.L101:
 2301 1368 0300A0E1 		mov	r0, r3
 2302 136c 04D04BE2 		sub	sp, fp, #4
 2303              		.cfi_def_cfa 13, 8
 2304              		@ sp needed
 2305 1370 0088BDE8 		pop	{fp, pc}
ARM GAS  /tmp/cc812cGb.s 			page 53


 2306              	.L103:
 2307              		.align	2
 2308              	.L102:
 2309 1374 78000000 		.word	_GLOBAL_OFFSET_TABLE_-(.LPIC126+8)
 2310 1378 00000000 		.word	__stack_chk_guard(GOT)
 2311 137c 30000000 		.word	_GLOBAL_OFFSET_TABLE_-(.LPIC127+8)
 2312              		.cfi_endproc
 2313              	.LFE13:
 2315              		.align	2
 2316              		.global	CMD_StoreCOM0R20_M_EEP
 2317              		.syntax unified
 2318              		.arm
 2319              		.fpu vfpv3
 2321              	CMD_StoreCOM0R20_M_EEP:
 2322              	.LFB14:
 510:/home/hkh/git/eapidk-code-r76-trunk/apps/EeePProg/linux/../EeePProg.c **** 
 511:/home/hkh/git/eapidk-code-r76-trunk/apps/EeePProg/linux/../EeePProg.c **** EApiStatus_t 
 512:/home/hkh/git/eapidk-code-r76-trunk/apps/EeePProg/linux/../EeePProg.c **** CMD_StoreCOM0R20_M_EEP(
 513:/home/hkh/git/eapidk-code-r76-trunk/apps/EeePProg/linux/../EeePProg.c ****     void *pArgData
 514:/home/hkh/git/eapidk-code-r76-trunk/apps/EeePProg/linux/../EeePProg.c ****     )
 515:/home/hkh/git/eapidk-code-r76-trunk/apps/EeePProg/linux/../EeePProg.c **** {
 2323              		.loc 1 515 1
 2324              		.cfi_startproc
 2325              		@ args = 0, pretend = 0, frame = 24
 2326              		@ frame_needed = 1, uses_anonymous_args = 0
 2327 1380 00482DE9 		push	{fp, lr}
 2328              		.cfi_def_cfa_offset 8
 2329              		.cfi_offset 11, -8
 2330              		.cfi_offset 14, -4
 2331 1384 04B08DE2 		add	fp, sp, #4
 2332              		.cfi_def_cfa 11, 4
 2333 1388 18D04DE2 		sub	sp, sp, #24
 2334 138c 18000BE5 		str	r0, [fp, #-24]
 2335              		.loc 1 515 1
 2336 1390 7C209FE5 		ldr	r2, .L107
 2337              	.LPIC128:
 2338 1394 02208FE0 		add	r2, pc, r2
 2339 1398 78309FE5 		ldr	r3, .L107+4
 2340 139c 033092E7 		ldr	r3, [r2, r3]
 2341 13a0 003093E5 		ldr	r3, [r3]
 2342 13a4 08300BE5 		str	r3, [fp, #-8]
 2343 13a8 0030A0E3 		mov	r3, #0
 516:/home/hkh/git/eapidk-code-r76-trunk/apps/EeePProg/linux/../EeePProg.c ****   WriteEepCfg_t WriteEep={NULL, EAPI_ID_I2C_EXTERNAL, COM0R20_M_EEP_DEV_ADDR};
 2344              		.loc 1 516 17
 2345 13ac 0030A0E3 		mov	r3, #0
 2346 13b0 14300BE5 		str	r3, [fp, #-20]
 2347 13b4 0030A0E3 		mov	r3, #0
 2348 13b8 10300BE5 		str	r3, [fp, #-16]
 2349 13bc A030A0E3 		mov	r3, #160
 2350 13c0 0C300BE5 		str	r3, [fp, #-12]
 517:/home/hkh/git/eapidk-code-r76-trunk/apps/EeePProg/linux/../EeePProg.c ****   WriteEep.FileName=*(char**)pArgData;
 2351              		.loc 1 517 21
 2352 13c4 18301BE5 		ldr	r3, [fp, #-24]
 2353 13c8 003093E5 		ldr	r3, [r3]
 2354              		.loc 1 517 20
 2355 13cc 14300BE5 		str	r3, [fp, #-20]
 518:/home/hkh/git/eapidk-code-r76-trunk/apps/EeePProg/linux/../EeePProg.c ****   return CMD_StoreEeePExt_EEP(&WriteEep);
ARM GAS  /tmp/cc812cGb.s 			page 54


 2356              		.loc 1 518 10
 2357 13d0 14304BE2 		sub	r3, fp, #20
 2358 13d4 0300A0E1 		mov	r0, r3
 2359 13d8 FEFFFFEB 		bl	CMD_StoreEeePExt_EEP(PLT)
 2360 13dc 0030A0E1 		mov	r3, r0
 515:/home/hkh/git/eapidk-code-r76-trunk/apps/EeePProg/linux/../EeePProg.c ****   WriteEepCfg_t WriteEep={NULL, EAPI_ID_I2C_EXTERNAL, COM0R20_M_EEP_DEV_ADDR};
 2361              		.loc 1 515 1
 2362 13e0 34109FE5 		ldr	r1, .L107+8
 2363              	.LPIC129:
 2364 13e4 01108FE0 		add	r1, pc, r1
 519:/home/hkh/git/eapidk-code-r76-trunk/apps/EeePProg/linux/../EeePProg.c **** }
 2365              		.loc 1 519 1
 2366 13e8 28209FE5 		ldr	r2, .L107+4
 2367 13ec 022091E7 		ldr	r2, [r1, r2]
 2368 13f0 001092E5 		ldr	r1, [r2]
 2369 13f4 08201BE5 		ldr	r2, [fp, #-8]
 2370 13f8 011032E0 		eors	r1, r2, r1
 2371 13fc 0020A0E3 		mov	r2, #0
 2372 1400 0000000A 		beq	.L106
 2373 1404 FEFFFFEB 		bl	__stack_chk_fail(PLT)
 2374              	.L106:
 2375 1408 0300A0E1 		mov	r0, r3
 2376 140c 04D04BE2 		sub	sp, fp, #4
 2377              		.cfi_def_cfa 13, 8
 2378              		@ sp needed
 2379 1410 0088BDE8 		pop	{fp, pc}
 2380              	.L108:
 2381              		.align	2
 2382              	.L107:
 2383 1414 78000000 		.word	_GLOBAL_OFFSET_TABLE_-(.LPIC128+8)
 2384 1418 00000000 		.word	__stack_chk_guard(GOT)
 2385 141c 30000000 		.word	_GLOBAL_OFFSET_TABLE_-(.LPIC129+8)
 2386              		.cfi_endproc
 2387              	.LFE14:
 2389              		.section	.rodata
 2390 07a1 000000   		.align	2
 2391              	.LC40:
 2392 07a4 45656550 		.ascii	"EeePReadBufferFromEEP( &BHandel, (uint16_t)((I2CAdd"
 2392      52656164 
 2392      42756666 
 2392      65724672 
 2392      6F6D4545 
 2393 07d7 72436667 		.ascii	"rCfg_t*)pArgData)->I2CBus, (uint16_t)((I2CAddrCfg_t"
 2393      5F742A29 
 2393      70417267 
 2393      44617461 
 2393      292D3E49 
 2394 080a 2A297041 		.ascii	"*)pArgData)->I2CDevAddr )\000"
 2394      72674461 
 2394      7461292D 
 2394      3E493243 
 2394      44657641 
 2395              		.align	2
 2396              	.LC41:
 2397 0824 45656550 		.ascii	"EeePListBlocks( BHandel, 0)\000"
 2397      4C697374 
 2397      426C6F63 
ARM GAS  /tmp/cc812cGb.s 			page 55


 2397      6B732820 
 2397      4248616E 
 2398              		.text
 2399              		.align	2
 2400              		.global	CMD_ListDBlocksEeePExt_EEP
 2401              		.syntax unified
 2402              		.arm
 2403              		.fpu vfpv3
 2405              	CMD_ListDBlocksEeePExt_EEP:
 2406              	.LFB15:
 520:/home/hkh/git/eapidk-code-r76-trunk/apps/EeePProg/linux/../EeePProg.c **** 
 521:/home/hkh/git/eapidk-code-r76-trunk/apps/EeePProg/linux/../EeePProg.c **** EApiStatus_t 
 522:/home/hkh/git/eapidk-code-r76-trunk/apps/EeePProg/linux/../EeePProg.c **** CMD_ListDBlocksEeePExt_EEP(
 523:/home/hkh/git/eapidk-code-r76-trunk/apps/EeePProg/linux/../EeePProg.c ****     void *pArgData
 524:/home/hkh/git/eapidk-code-r76-trunk/apps/EeePProg/linux/../EeePProg.c ****     )
 525:/home/hkh/git/eapidk-code-r76-trunk/apps/EeePProg/linux/../EeePProg.c **** {
 2407              		.loc 1 525 1
 2408              		.cfi_startproc
 2409              		@ args = 0, pretend = 0, frame = 24
 2410              		@ frame_needed = 1, uses_anonymous_args = 0
 2411 1420 00482DE9 		push	{fp, lr}
 2412              		.cfi_def_cfa_offset 8
 2413              		.cfi_offset 11, -8
 2414              		.cfi_offset 14, -4
 2415 1424 04B08DE2 		add	fp, sp, #4
 2416              		.cfi_def_cfa 11, 4
 2417 1428 28D04DE2 		sub	sp, sp, #40
 2418 142c 18000BE5 		str	r0, [fp, #-24]
 2419              		.loc 1 525 1
 2420 1430 44219FE5 		ldr	r2, .L115
 2421              	.LPIC138:
 2422 1434 02208FE0 		add	r2, pc, r2
 2423 1438 40319FE5 		ldr	r3, .L115+4
 2424 143c 033092E7 		ldr	r3, [r2, r3]
 2425 1440 003093E5 		ldr	r3, [r3]
 2426 1444 08300BE5 		str	r3, [fp, #-8]
 2427 1448 0030A0E3 		mov	r3, #0
 526:/home/hkh/git/eapidk-code-r76-trunk/apps/EeePProg/linux/../EeePProg.c ****   EApiStatus_t StatusCode=EAPI_STATUS_SUCCESS;
 2428              		.loc 1 526 16
 2429 144c 0030A0E3 		mov	r3, #0
 2430 1450 0C300BE5 		str	r3, [fp, #-12]
 527:/home/hkh/git/eapidk-code-r76-trunk/apps/EeePProg/linux/../EeePProg.c ****   EeePHandel_t BHandel=NULL;
 2431              		.loc 1 527 16
 2432 1454 0030A0E3 		mov	r3, #0
 2433 1458 10300BE5 		str	r3, [fp, #-16]
 528:/home/hkh/git/eapidk-code-r76-trunk/apps/EeePProg/linux/../EeePProg.c ****   DO(EeePReadBufferFromEEP(
 2434              		.loc 1 528 3
 2435 145c 18301BE5 		ldr	r3, [fp, #-24]
 2436 1460 003093E5 		ldr	r3, [r3]
 2437 1464 7330FFE6 		uxth	r3, r3
 2438 1468 0310A0E1 		mov	r1, r3
 2439 146c 18301BE5 		ldr	r3, [fp, #-24]
 2440 1470 043093E5 		ldr	r3, [r3, #4]
 2441 1474 7320FFE6 		uxth	r2, r3
 2442 1478 10304BE2 		sub	r3, fp, #16
 2443 147c 0300A0E1 		mov	r0, r3
 2444 1480 FEFFFFEB 		bl	EeePReadBufferFromEEP(PLT)
ARM GAS  /tmp/cc812cGb.s 			page 56


 2445 1484 0C000BE5 		str	r0, [fp, #-12]
 2446 1488 0C301BE5 		ldr	r3, [fp, #-12]
 2447 148c 000053E3 		cmp	r3, #0
 2448 1490 0F00000A 		beq	.L110
 2449              		.loc 1 528 3 is_stmt 0 discriminator 1
 2450 1494 E8309FE5 		ldr	r3, .L115+8
 2451              	.LPIC130:
 2452 1498 03308FE0 		add	r3, pc, r3
 2453 149c 08308DE5 		str	r3, [sp, #8]
 2454 14a0 E0309FE5 		ldr	r3, .L115+12
 2455              	.LPIC131:
 2456 14a4 03308FE0 		add	r3, pc, r3
 2457 14a8 04308DE5 		str	r3, [sp, #4]
 2458 14ac 0C301BE5 		ldr	r3, [fp, #-12]
 2459 14b0 00308DE5 		str	r3, [sp]
 2460 14b4 213EA0E3 		mov	r3, #528
 2461 14b8 CC209FE5 		ldr	r2, .L115+16
 2462              	.LPIC132:
 2463 14bc 02208FE0 		add	r2, pc, r2
 2464 14c0 C8109FE5 		ldr	r1, .L115+20
 2465              	.LPIC133:
 2466 14c4 01108FE0 		add	r1, pc, r1
 2467 14c8 4500A0E3 		mov	r0, #69
 2468 14cc FEFFFFEB 		bl	siFormattedMessage_SC(PLT)
 2469 14d0 180000EA 		b	.L111
 2470              	.L110:
 529:/home/hkh/git/eapidk-code-r76-trunk/apps/EeePProg/linux/../EeePProg.c ****           &BHandel, 
 530:/home/hkh/git/eapidk-code-r76-trunk/apps/EeePProg/linux/../EeePProg.c ****           (uint16_t)((I2CAddrCfg_t*)pArgData)->I2CBus, 
 531:/home/hkh/git/eapidk-code-r76-trunk/apps/EeePProg/linux/../EeePProg.c ****           (uint16_t)((I2CAddrCfg_t*)pArgData)->I2CDevAddr
 532:/home/hkh/git/eapidk-code-r76-trunk/apps/EeePProg/linux/../EeePProg.c ****       ));
 533:/home/hkh/git/eapidk-code-r76-trunk/apps/EeePProg/linux/../EeePProg.c ****   DO(EeePListBlocks( BHandel, 0));
 2471              		.loc 1 533 3 is_stmt 1
 2472 14d4 10301BE5 		ldr	r3, [fp, #-16]
 2473 14d8 0010A0E3 		mov	r1, #0
 2474 14dc 0300A0E1 		mov	r0, r3
 2475 14e0 FEFFFFEB 		bl	EeePListBlocks(PLT)
 2476 14e4 0C000BE5 		str	r0, [fp, #-12]
 2477 14e8 0C301BE5 		ldr	r3, [fp, #-12]
 2478 14ec 000053E3 		cmp	r3, #0
 2479 14f0 0F00000A 		beq	.L114
 2480              		.loc 1 533 3 is_stmt 0 discriminator 1
 2481 14f4 98309FE5 		ldr	r3, .L115+24
 2482              	.LPIC134:
 2483 14f8 03308FE0 		add	r3, pc, r3
 2484 14fc 08308DE5 		str	r3, [sp, #8]
 2485 1500 90309FE5 		ldr	r3, .L115+28
 2486              	.LPIC135:
 2487 1504 03308FE0 		add	r3, pc, r3
 2488 1508 04308DE5 		str	r3, [sp, #4]
 2489 150c 0C301BE5 		ldr	r3, [fp, #-12]
 2490 1510 00308DE5 		str	r3, [sp]
 2491 1514 153200E3 		movw	r3, #533
 2492 1518 7C209FE5 		ldr	r2, .L115+32
 2493              	.LPIC136:
 2494 151c 02208FE0 		add	r2, pc, r2
 2495 1520 78109FE5 		ldr	r1, .L115+36
 2496              	.LPIC137:
ARM GAS  /tmp/cc812cGb.s 			page 57


 2497 1524 01108FE0 		add	r1, pc, r1
 2498 1528 4500A0E3 		mov	r0, #69
 2499 152c FEFFFFEB 		bl	siFormattedMessage_SC(PLT)
 2500 1530 000000EA 		b	.L111
 2501              	.L114:
 534:/home/hkh/git/eapidk-code-r76-trunk/apps/EeePProg/linux/../EeePProg.c **** 
 535:/home/hkh/git/eapidk-code-r76-trunk/apps/EeePProg/linux/../EeePProg.c **** EAPI_APP_ASSERT_EXIT
 2502              		.loc 1 535 1 is_stmt 1
 2503 1534 00F020E3 		nop
 2504              	.L111:
 536:/home/hkh/git/eapidk-code-r76-trunk/apps/EeePProg/linux/../EeePProg.c ****   EeePFreeBuffer(&BHandel);
 2505              		.loc 1 536 3
 2506 1538 10304BE2 		sub	r3, fp, #16
 2507 153c 0300A0E1 		mov	r0, r3
 2508 1540 FEFFFFEB 		bl	EeePFreeBuffer(PLT)
 537:/home/hkh/git/eapidk-code-r76-trunk/apps/EeePProg/linux/../EeePProg.c ****   return StatusCode;
 2509              		.loc 1 537 10
 2510 1544 0C301BE5 		ldr	r3, [fp, #-12]
 525:/home/hkh/git/eapidk-code-r76-trunk/apps/EeePProg/linux/../EeePProg.c ****   EApiStatus_t StatusCode=EAPI_STATUS_SUCCESS;
 2511              		.loc 1 525 1
 2512 1548 54109FE5 		ldr	r1, .L115+40
 2513              	.LPIC139:
 2514 154c 01108FE0 		add	r1, pc, r1
 538:/home/hkh/git/eapidk-code-r76-trunk/apps/EeePProg/linux/../EeePProg.c **** }
 2515              		.loc 1 538 1
 2516 1550 28209FE5 		ldr	r2, .L115+4
 2517 1554 022091E7 		ldr	r2, [r1, r2]
 2518 1558 001092E5 		ldr	r1, [r2]
 2519 155c 08201BE5 		ldr	r2, [fp, #-8]
 2520 1560 011032E0 		eors	r1, r2, r1
 2521 1564 0020A0E3 		mov	r2, #0
 2522 1568 0000000A 		beq	.L113
 2523 156c FEFFFFEB 		bl	__stack_chk_fail(PLT)
 2524              	.L113:
 2525 1570 0300A0E1 		mov	r0, r3
 2526 1574 04D04BE2 		sub	sp, fp, #4
 2527              		.cfi_def_cfa 13, 8
 2528              		@ sp needed
 2529 1578 0088BDE8 		pop	{fp, pc}
 2530              	.L116:
 2531              		.align	2
 2532              	.L115:
 2533 157c 40010000 		.word	_GLOBAL_OFFSET_TABLE_-(.LPIC138+8)
 2534 1580 00000000 		.word	__stack_chk_guard(GOT)
 2535 1584 88080000 		.word	.LC40-(.LPIC130+8)
 2536 1588 4C030000 		.word	.LC14-(.LPIC131+8)
 2537 158c 3C030000 		.word	.LC15-(.LPIC132+8)
 2538 1590 D8020000 		.word	.LC12-(.LPIC133+8)
 2539 1594 B8080000 		.word	.LC41-(.LPIC134+8)
 2540 1598 FC020000 		.word	.LC14-(.LPIC135+8)
 2541 159c EC020000 		.word	.LC15-(.LPIC136+8)
 2542 15a0 88020000 		.word	.LC12-(.LPIC137+8)
 2543 15a4 50000000 		.word	_GLOBAL_OFFSET_TABLE_-(.LPIC139+8)
 2544              		.cfi_endproc
 2545              	.LFE15:
 2547              		.align	2
 2548              		.global	CMD_ListDBlocksCOM0R20_CB_EEP
ARM GAS  /tmp/cc812cGb.s 			page 58


 2549              		.syntax unified
 2550              		.arm
 2551              		.fpu vfpv3
 2553              	CMD_ListDBlocksCOM0R20_CB_EEP:
 2554              	.LFB16:
 539:/home/hkh/git/eapidk-code-r76-trunk/apps/EeePProg/linux/../EeePProg.c **** 
 540:/home/hkh/git/eapidk-code-r76-trunk/apps/EeePProg/linux/../EeePProg.c **** 
 541:/home/hkh/git/eapidk-code-r76-trunk/apps/EeePProg/linux/../EeePProg.c **** EApiStatus_t 
 542:/home/hkh/git/eapidk-code-r76-trunk/apps/EeePProg/linux/../EeePProg.c **** CMD_ListDBlocksCOM0R20_CB_EEP(
 543:/home/hkh/git/eapidk-code-r76-trunk/apps/EeePProg/linux/../EeePProg.c ****     void *pArgData
 544:/home/hkh/git/eapidk-code-r76-trunk/apps/EeePProg/linux/../EeePProg.c ****     )
 545:/home/hkh/git/eapidk-code-r76-trunk/apps/EeePProg/linux/../EeePProg.c **** {
 2555              		.loc 1 545 1
 2556              		.cfi_startproc
 2557              		@ args = 0, pretend = 0, frame = 24
 2558              		@ frame_needed = 1, uses_anonymous_args = 0
 2559 15a8 00482DE9 		push	{fp, lr}
 2560              		.cfi_def_cfa_offset 8
 2561              		.cfi_offset 11, -8
 2562              		.cfi_offset 14, -4
 2563 15ac 04B08DE2 		add	fp, sp, #4
 2564              		.cfi_def_cfa 11, 4
 2565 15b0 18D04DE2 		sub	sp, sp, #24
 2566 15b4 18000BE5 		str	r0, [fp, #-24]
 2567              		.loc 1 545 1
 2568 15b8 68209FE5 		ldr	r2, .L120
 2569              	.LPIC140:
 2570 15bc 02208FE0 		add	r2, pc, r2
 2571 15c0 64309FE5 		ldr	r3, .L120+4
 2572 15c4 033092E7 		ldr	r3, [r2, r3]
 2573 15c8 003093E5 		ldr	r3, [r3]
 2574 15cc 08300BE5 		str	r3, [fp, #-8]
 2575 15d0 0030A0E3 		mov	r3, #0
 546:/home/hkh/git/eapidk-code-r76-trunk/apps/EeePProg/linux/../EeePProg.c ****   I2CAddrCfg_t DevDesc={EAPI_ID_I2C_EXTERNAL, COM0R20_CB_EEP_DEV_ADDR};
 2576              		.loc 1 546 16
 2577 15d4 0030A0E3 		mov	r3, #0
 2578 15d8 10300BE5 		str	r3, [fp, #-16]
 2579 15dc AE30A0E3 		mov	r3, #174
 2580 15e0 0C300BE5 		str	r3, [fp, #-12]
 547:/home/hkh/git/eapidk-code-r76-trunk/apps/EeePProg/linux/../EeePProg.c ****   pArgData=pArgData;
 548:/home/hkh/git/eapidk-code-r76-trunk/apps/EeePProg/linux/../EeePProg.c ****   return CMD_ListDBlocksEeePExt_EEP(&DevDesc);
 2581              		.loc 1 548 10
 2582 15e4 10304BE2 		sub	r3, fp, #16
 2583 15e8 0300A0E1 		mov	r0, r3
 2584 15ec FEFFFFEB 		bl	CMD_ListDBlocksEeePExt_EEP(PLT)
 2585 15f0 0030A0E1 		mov	r3, r0
 545:/home/hkh/git/eapidk-code-r76-trunk/apps/EeePProg/linux/../EeePProg.c ****   I2CAddrCfg_t DevDesc={EAPI_ID_I2C_EXTERNAL, COM0R20_CB_EEP_DEV_ADDR};
 2586              		.loc 1 545 1
 2587 15f4 34109FE5 		ldr	r1, .L120+8
 2588              	.LPIC141:
 2589 15f8 01108FE0 		add	r1, pc, r1
 549:/home/hkh/git/eapidk-code-r76-trunk/apps/EeePProg/linux/../EeePProg.c **** }
 2590              		.loc 1 549 1
 2591 15fc 28209FE5 		ldr	r2, .L120+4
 2592 1600 022091E7 		ldr	r2, [r1, r2]
 2593 1604 001092E5 		ldr	r1, [r2]
 2594 1608 08201BE5 		ldr	r2, [fp, #-8]
ARM GAS  /tmp/cc812cGb.s 			page 59


 2595 160c 011032E0 		eors	r1, r2, r1
 2596 1610 0020A0E3 		mov	r2, #0
 2597 1614 0000000A 		beq	.L119
 2598 1618 FEFFFFEB 		bl	__stack_chk_fail(PLT)
 2599              	.L119:
 2600 161c 0300A0E1 		mov	r0, r3
 2601 1620 04D04BE2 		sub	sp, fp, #4
 2602              		.cfi_def_cfa 13, 8
 2603              		@ sp needed
 2604 1624 0088BDE8 		pop	{fp, pc}
 2605              	.L121:
 2606              		.align	2
 2607              	.L120:
 2608 1628 64000000 		.word	_GLOBAL_OFFSET_TABLE_-(.LPIC140+8)
 2609 162c 00000000 		.word	__stack_chk_guard(GOT)
 2610 1630 30000000 		.word	_GLOBAL_OFFSET_TABLE_-(.LPIC141+8)
 2611              		.cfi_endproc
 2612              	.LFE16:
 2614              		.align	2
 2615              		.global	CMD_ListDBlocksCOM0R20_M_EEP
 2616              		.syntax unified
 2617              		.arm
 2618              		.fpu vfpv3
 2620              	CMD_ListDBlocksCOM0R20_M_EEP:
 2621              	.LFB17:
 550:/home/hkh/git/eapidk-code-r76-trunk/apps/EeePProg/linux/../EeePProg.c **** EApiStatus_t 
 551:/home/hkh/git/eapidk-code-r76-trunk/apps/EeePProg/linux/../EeePProg.c **** CMD_ListDBlocksCOM0R20_M_EEP(
 552:/home/hkh/git/eapidk-code-r76-trunk/apps/EeePProg/linux/../EeePProg.c ****     void *pArgData
 553:/home/hkh/git/eapidk-code-r76-trunk/apps/EeePProg/linux/../EeePProg.c ****     )
 554:/home/hkh/git/eapidk-code-r76-trunk/apps/EeePProg/linux/../EeePProg.c **** {
 2622              		.loc 1 554 1
 2623              		.cfi_startproc
 2624              		@ args = 0, pretend = 0, frame = 24
 2625              		@ frame_needed = 1, uses_anonymous_args = 0
 2626 1634 00482DE9 		push	{fp, lr}
 2627              		.cfi_def_cfa_offset 8
 2628              		.cfi_offset 11, -8
 2629              		.cfi_offset 14, -4
 2630 1638 04B08DE2 		add	fp, sp, #4
 2631              		.cfi_def_cfa 11, 4
 2632 163c 18D04DE2 		sub	sp, sp, #24
 2633 1640 18000BE5 		str	r0, [fp, #-24]
 2634              		.loc 1 554 1
 2635 1644 68209FE5 		ldr	r2, .L125
 2636              	.LPIC142:
 2637 1648 02208FE0 		add	r2, pc, r2
 2638 164c 64309FE5 		ldr	r3, .L125+4
 2639 1650 033092E7 		ldr	r3, [r2, r3]
 2640 1654 003093E5 		ldr	r3, [r3]
 2641 1658 08300BE5 		str	r3, [fp, #-8]
 2642 165c 0030A0E3 		mov	r3, #0
 555:/home/hkh/git/eapidk-code-r76-trunk/apps/EeePProg/linux/../EeePProg.c ****   I2CAddrCfg_t DevDesc={EAPI_ID_I2C_EXTERNAL, COM0R20_M_EEP_DEV_ADDR};
 2643              		.loc 1 555 16
 2644 1660 0030A0E3 		mov	r3, #0
 2645 1664 10300BE5 		str	r3, [fp, #-16]
 2646 1668 A030A0E3 		mov	r3, #160
 2647 166c 0C300BE5 		str	r3, [fp, #-12]
ARM GAS  /tmp/cc812cGb.s 			page 60


 556:/home/hkh/git/eapidk-code-r76-trunk/apps/EeePProg/linux/../EeePProg.c ****   pArgData=pArgData;
 557:/home/hkh/git/eapidk-code-r76-trunk/apps/EeePProg/linux/../EeePProg.c ****   return CMD_ListDBlocksEeePExt_EEP(&DevDesc);
 2648              		.loc 1 557 10
 2649 1670 10304BE2 		sub	r3, fp, #16
 2650 1674 0300A0E1 		mov	r0, r3
 2651 1678 FEFFFFEB 		bl	CMD_ListDBlocksEeePExt_EEP(PLT)
 2652 167c 0030A0E1 		mov	r3, r0
 554:/home/hkh/git/eapidk-code-r76-trunk/apps/EeePProg/linux/../EeePProg.c ****   I2CAddrCfg_t DevDesc={EAPI_ID_I2C_EXTERNAL, COM0R20_M_EEP_DEV_ADDR};
 2653              		.loc 1 554 1
 2654 1680 34109FE5 		ldr	r1, .L125+8
 2655              	.LPIC143:
 2656 1684 01108FE0 		add	r1, pc, r1
 558:/home/hkh/git/eapidk-code-r76-trunk/apps/EeePProg/linux/../EeePProg.c **** }
 2657              		.loc 1 558 1
 2658 1688 28209FE5 		ldr	r2, .L125+4
 2659 168c 022091E7 		ldr	r2, [r1, r2]
 2660 1690 001092E5 		ldr	r1, [r2]
 2661 1694 08201BE5 		ldr	r2, [fp, #-8]
 2662 1698 011032E0 		eors	r1, r2, r1
 2663 169c 0020A0E3 		mov	r2, #0
 2664 16a0 0000000A 		beq	.L124
 2665 16a4 FEFFFFEB 		bl	__stack_chk_fail(PLT)
 2666              	.L124:
 2667 16a8 0300A0E1 		mov	r0, r3
 2668 16ac 04D04BE2 		sub	sp, fp, #4
 2669              		.cfi_def_cfa 13, 8
 2670              		@ sp needed
 2671 16b0 0088BDE8 		pop	{fp, pc}
 2672              	.L126:
 2673              		.align	2
 2674              	.L125:
 2675 16b4 64000000 		.word	_GLOBAL_OFFSET_TABLE_-(.LPIC142+8)
 2676 16b8 00000000 		.word	__stack_chk_guard(GOT)
 2677 16bc 30000000 		.word	_GLOBAL_OFFSET_TABLE_-(.LPIC143+8)
 2678              		.cfi_endproc
 2679              	.LFE17:
 2681              		.section	.rodata
 2682              		.align	2
 2683              	.LC42:
 2684 0840 45656550 		.ascii	"EeeP_CreateEeePExtEEPImage( &BHandel , ((InOutFiles"
 2684      5F437265 
 2684      61746545 
 2684      65655045 
 2684      78744545 
 2685 0873 5F742A29 		.ascii	"_t*)pArgData)->InFile )\000"
 2685      70417267 
 2685      44617461 
 2685      292D3E49 
 2685      6E46696C 
 2686 088b 00       		.align	2
 2687              	.LC43:
 2688 088c 45656550 		.ascii	"EeePWriteBufferToFile(BHandel, ((InOutFiles_t*)pArg"
 2688      57726974 
 2688      65427566 
 2688      66657254 
 2688      6F46696C 
 2689 08bf 44617461 		.ascii	"Data)->OutFile)\000"
ARM GAS  /tmp/cc812cGb.s 			page 61


 2689      292D3E4F 
 2689      75744669 
 2689      6C652900 
 2690              		.text
 2691              		.align	2
 2692              		.global	CMD_CreateExtEepEEP_IMG
 2693              		.syntax unified
 2694              		.arm
 2695              		.fpu vfpv3
 2697              	CMD_CreateExtEepEEP_IMG:
 2698              	.LFB18:
 559:/home/hkh/git/eapidk-code-r76-trunk/apps/EeePProg/linux/../EeePProg.c **** 
 560:/home/hkh/git/eapidk-code-r76-trunk/apps/EeePProg/linux/../EeePProg.c **** EApiStatus_t 
 561:/home/hkh/git/eapidk-code-r76-trunk/apps/EeePProg/linux/../EeePProg.c **** CMD_CreateExtEepEEP_IMG(
 562:/home/hkh/git/eapidk-code-r76-trunk/apps/EeePProg/linux/../EeePProg.c ****     void *pArgData
 563:/home/hkh/git/eapidk-code-r76-trunk/apps/EeePProg/linux/../EeePProg.c ****     )
 564:/home/hkh/git/eapidk-code-r76-trunk/apps/EeePProg/linux/../EeePProg.c **** {
 2699              		.loc 1 564 1
 2700              		.cfi_startproc
 2701              		@ args = 0, pretend = 0, frame = 24
 2702              		@ frame_needed = 1, uses_anonymous_args = 0
 2703 16c0 00482DE9 		push	{fp, lr}
 2704              		.cfi_def_cfa_offset 8
 2705              		.cfi_offset 11, -8
 2706              		.cfi_offset 14, -4
 2707 16c4 04B08DE2 		add	fp, sp, #4
 2708              		.cfi_def_cfa 11, 4
 2709 16c8 28D04DE2 		sub	sp, sp, #40
 2710 16cc 18000BE5 		str	r0, [fp, #-24]
 2711              		.loc 1 564 1
 2712 16d0 3C219FE5 		ldr	r2, .L133
 2713              	.LPIC152:
 2714 16d4 02208FE0 		add	r2, pc, r2
 2715 16d8 38319FE5 		ldr	r3, .L133+4
 2716 16dc 033092E7 		ldr	r3, [r2, r3]
 2717 16e0 003093E5 		ldr	r3, [r3]
 2718 16e4 08300BE5 		str	r3, [fp, #-8]
 2719 16e8 0030A0E3 		mov	r3, #0
 565:/home/hkh/git/eapidk-code-r76-trunk/apps/EeePProg/linux/../EeePProg.c ****   EApiStatus_t StatusCode=EAPI_STATUS_SUCCESS;
 2720              		.loc 1 565 16
 2721 16ec 0030A0E3 		mov	r3, #0
 2722 16f0 0C300BE5 		str	r3, [fp, #-12]
 566:/home/hkh/git/eapidk-code-r76-trunk/apps/EeePProg/linux/../EeePProg.c ****   EeePHandel_t BHandel=NULL;
 2723              		.loc 1 566 16
 2724 16f4 0030A0E3 		mov	r3, #0
 2725 16f8 10300BE5 		str	r3, [fp, #-16]
 567:/home/hkh/git/eapidk-code-r76-trunk/apps/EeePProg/linux/../EeePProg.c **** 
 568:/home/hkh/git/eapidk-code-r76-trunk/apps/EeePProg/linux/../EeePProg.c ****   DO(EeeP_CreateEeePExtEEPImage(
 2726              		.loc 1 568 3
 2727 16fc 18301BE5 		ldr	r3, [fp, #-24]
 2728 1700 002093E5 		ldr	r2, [r3]
 2729 1704 10304BE2 		sub	r3, fp, #16
 2730 1708 0210A0E1 		mov	r1, r2
 2731 170c 0300A0E1 		mov	r0, r3
 2732 1710 FEFFFFEB 		bl	EeeP_CreateEeePExtEEPImage(PLT)
 2733 1714 0C000BE5 		str	r0, [fp, #-12]
 2734 1718 0C301BE5 		ldr	r3, [fp, #-12]
ARM GAS  /tmp/cc812cGb.s 			page 62


 2735 171c 000053E3 		cmp	r3, #0
 2736 1720 0F00000A 		beq	.L128
 2737              		.loc 1 568 3 is_stmt 0 discriminator 1
 2738 1724 F0309FE5 		ldr	r3, .L133+8
 2739              	.LPIC144:
 2740 1728 03308FE0 		add	r3, pc, r3
 2741 172c 08308DE5 		str	r3, [sp, #8]
 2742 1730 E8309FE5 		ldr	r3, .L133+12
 2743              	.LPIC145:
 2744 1734 03308FE0 		add	r3, pc, r3
 2745 1738 04308DE5 		str	r3, [sp, #4]
 2746 173c 0C301BE5 		ldr	r3, [fp, #-12]
 2747 1740 00308DE5 		str	r3, [sp]
 2748 1744 8E3FA0E3 		mov	r3, #568
 2749 1748 D4209FE5 		ldr	r2, .L133+16
 2750              	.LPIC146:
 2751 174c 02208FE0 		add	r2, pc, r2
 2752 1750 D0109FE5 		ldr	r1, .L133+20
 2753              	.LPIC147:
 2754 1754 01108FE0 		add	r1, pc, r1
 2755 1758 4500A0E3 		mov	r0, #69
 2756 175c FEFFFFEB 		bl	siFormattedMessage_SC(PLT)
 2757 1760 1A0000EA 		b	.L129
 2758              	.L128:
 569:/home/hkh/git/eapidk-code-r76-trunk/apps/EeePProg/linux/../EeePProg.c ****         &BHandel                              ,
 570:/home/hkh/git/eapidk-code-r76-trunk/apps/EeePProg/linux/../EeePProg.c ****         ((InOutFiles_t*)pArgData)->InFile
 571:/home/hkh/git/eapidk-code-r76-trunk/apps/EeePProg/linux/../EeePProg.c ****       ));
 572:/home/hkh/git/eapidk-code-r76-trunk/apps/EeePProg/linux/../EeePProg.c ****   DO(EeePWriteBufferToFile(BHandel, ((InOutFiles_t*)pArgData)->OutFile));
 2759              		.loc 1 572 3 is_stmt 1
 2760 1764 10201BE5 		ldr	r2, [fp, #-16]
 2761 1768 18301BE5 		ldr	r3, [fp, #-24]
 2762 176c 043093E5 		ldr	r3, [r3, #4]
 2763 1770 0310A0E1 		mov	r1, r3
 2764 1774 0200A0E1 		mov	r0, r2
 2765 1778 FEFFFFEB 		bl	EeePWriteBufferToFile(PLT)
 2766 177c 0C000BE5 		str	r0, [fp, #-12]
 2767 1780 0C301BE5 		ldr	r3, [fp, #-12]
 2768 1784 000053E3 		cmp	r3, #0
 2769 1788 0F00000A 		beq	.L132
 2770              		.loc 1 572 3 is_stmt 0 discriminator 1
 2771 178c 98309FE5 		ldr	r3, .L133+24
 2772              	.LPIC148:
 2773 1790 03308FE0 		add	r3, pc, r3
 2774 1794 08308DE5 		str	r3, [sp, #8]
 2775 1798 90309FE5 		ldr	r3, .L133+28
 2776              	.LPIC149:
 2777 179c 03308FE0 		add	r3, pc, r3
 2778 17a0 04308DE5 		str	r3, [sp, #4]
 2779 17a4 0C301BE5 		ldr	r3, [fp, #-12]
 2780 17a8 00308DE5 		str	r3, [sp]
 2781 17ac 8F3FA0E3 		mov	r3, #572
 2782 17b0 7C209FE5 		ldr	r2, .L133+32
 2783              	.LPIC150:
 2784 17b4 02208FE0 		add	r2, pc, r2
 2785 17b8 78109FE5 		ldr	r1, .L133+36
 2786              	.LPIC151:
 2787 17bc 01108FE0 		add	r1, pc, r1
ARM GAS  /tmp/cc812cGb.s 			page 63


 2788 17c0 4500A0E3 		mov	r0, #69
 2789 17c4 FEFFFFEB 		bl	siFormattedMessage_SC(PLT)
 2790 17c8 000000EA 		b	.L129
 2791              	.L132:
 573:/home/hkh/git/eapidk-code-r76-trunk/apps/EeePProg/linux/../EeePProg.c **** 
 574:/home/hkh/git/eapidk-code-r76-trunk/apps/EeePProg/linux/../EeePProg.c **** EAPI_APP_ASSERT_EXIT
 2792              		.loc 1 574 1 is_stmt 1
 2793 17cc 00F020E3 		nop
 2794              	.L129:
 575:/home/hkh/git/eapidk-code-r76-trunk/apps/EeePProg/linux/../EeePProg.c ****   EeePFreeBuffer(&BHandel);
 2795              		.loc 1 575 3
 2796 17d0 10304BE2 		sub	r3, fp, #16
 2797 17d4 0300A0E1 		mov	r0, r3
 2798 17d8 FEFFFFEB 		bl	EeePFreeBuffer(PLT)
 576:/home/hkh/git/eapidk-code-r76-trunk/apps/EeePProg/linux/../EeePProg.c ****   return StatusCode;
 2799              		.loc 1 576 10
 2800 17dc 0C301BE5 		ldr	r3, [fp, #-12]
 564:/home/hkh/git/eapidk-code-r76-trunk/apps/EeePProg/linux/../EeePProg.c ****   EApiStatus_t StatusCode=EAPI_STATUS_SUCCESS;
 2801              		.loc 1 564 1
 2802 17e0 54109FE5 		ldr	r1, .L133+40
 2803              	.LPIC153:
 2804 17e4 01108FE0 		add	r1, pc, r1
 577:/home/hkh/git/eapidk-code-r76-trunk/apps/EeePProg/linux/../EeePProg.c **** }
 2805              		.loc 1 577 1
 2806 17e8 28209FE5 		ldr	r2, .L133+4
 2807 17ec 022091E7 		ldr	r2, [r1, r2]
 2808 17f0 001092E5 		ldr	r1, [r2]
 2809 17f4 08201BE5 		ldr	r2, [fp, #-8]
 2810 17f8 011032E0 		eors	r1, r2, r1
 2811 17fc 0020A0E3 		mov	r2, #0
 2812 1800 0000000A 		beq	.L131
 2813 1804 FEFFFFEB 		bl	__stack_chk_fail(PLT)
 2814              	.L131:
 2815 1808 0300A0E1 		mov	r0, r3
 2816 180c 04D04BE2 		sub	sp, fp, #4
 2817              		.cfi_def_cfa 13, 8
 2818              		@ sp needed
 2819 1810 0088BDE8 		pop	{fp, pc}
 2820              	.L134:
 2821              		.align	2
 2822              	.L133:
 2823 1814 38010000 		.word	_GLOBAL_OFFSET_TABLE_-(.LPIC152+8)
 2824 1818 00000000 		.word	__stack_chk_guard(GOT)
 2825 181c 2C090000 		.word	.LC42-(.LPIC144+8)
 2826 1820 54030000 		.word	.LC14-(.LPIC145+8)
 2827 1824 44030000 		.word	.LC15-(.LPIC146+8)
 2828 1828 E0020000 		.word	.LC12-(.LPIC147+8)
 2829 182c 20090000 		.word	.LC43-(.LPIC148+8)
 2830 1830 FC020000 		.word	.LC14-(.LPIC149+8)
 2831 1834 EC020000 		.word	.LC15-(.LPIC150+8)
 2832 1838 88020000 		.word	.LC12-(.LPIC151+8)
 2833 183c 50000000 		.word	_GLOBAL_OFFSET_TABLE_-(.LPIC153+8)
 2834              		.cfi_endproc
 2835              	.LFE18:
 2837              		.section	.rodata
 2838 08cf 00       		.align	2
 2839              	.LC44:
ARM GAS  /tmp/cc812cGb.s 			page 64


 2840 08d0 45656550 		.ascii	"EeeP_CreateCOM0R20_MEEPImage( &BHandel , ((InOutFil"
 2840      5F437265 
 2840      61746543 
 2840      4F4D3052 
 2840      32305F4D 
 2841 0903 65735F74 		.ascii	"es_t*)pArgData)->InFile )\000"
 2841      2A297041 
 2841      72674461 
 2841      7461292D 
 2841      3E496E46 
 2842              		.text
 2843              		.align	2
 2844              		.global	CMD_CreateCOM0R20M_IMG
 2845              		.syntax unified
 2846              		.arm
 2847              		.fpu vfpv3
 2849              	CMD_CreateCOM0R20M_IMG:
 2850              	.LFB19:
 578:/home/hkh/git/eapidk-code-r76-trunk/apps/EeePProg/linux/../EeePProg.c **** EApiStatus_t 
 579:/home/hkh/git/eapidk-code-r76-trunk/apps/EeePProg/linux/../EeePProg.c **** CMD_CreateCOM0R20M_IMG(
 580:/home/hkh/git/eapidk-code-r76-trunk/apps/EeePProg/linux/../EeePProg.c ****     void *pArgData
 581:/home/hkh/git/eapidk-code-r76-trunk/apps/EeePProg/linux/../EeePProg.c ****     )
 582:/home/hkh/git/eapidk-code-r76-trunk/apps/EeePProg/linux/../EeePProg.c **** {
 2851              		.loc 1 582 1
 2852              		.cfi_startproc
 2853              		@ args = 0, pretend = 0, frame = 24
 2854              		@ frame_needed = 1, uses_anonymous_args = 0
 2855 1840 00482DE9 		push	{fp, lr}
 2856              		.cfi_def_cfa_offset 8
 2857              		.cfi_offset 11, -8
 2858              		.cfi_offset 14, -4
 2859 1844 04B08DE2 		add	fp, sp, #4
 2860              		.cfi_def_cfa 11, 4
 2861 1848 28D04DE2 		sub	sp, sp, #40
 2862 184c 18000BE5 		str	r0, [fp, #-24]
 2863              		.loc 1 582 1
 2864 1850 3C219FE5 		ldr	r2, .L141
 2865              	.LPIC162:
 2866 1854 02208FE0 		add	r2, pc, r2
 2867 1858 38319FE5 		ldr	r3, .L141+4
 2868 185c 033092E7 		ldr	r3, [r2, r3]
 2869 1860 003093E5 		ldr	r3, [r3]
 2870 1864 08300BE5 		str	r3, [fp, #-8]
 2871 1868 0030A0E3 		mov	r3, #0
 583:/home/hkh/git/eapidk-code-r76-trunk/apps/EeePProg/linux/../EeePProg.c ****   EApiStatus_t StatusCode=EAPI_STATUS_SUCCESS;
 2872              		.loc 1 583 16
 2873 186c 0030A0E3 		mov	r3, #0
 2874 1870 0C300BE5 		str	r3, [fp, #-12]
 584:/home/hkh/git/eapidk-code-r76-trunk/apps/EeePProg/linux/../EeePProg.c ****   EeePHandel_t BHandel=NULL;
 2875              		.loc 1 584 16
 2876 1874 0030A0E3 		mov	r3, #0
 2877 1878 10300BE5 		str	r3, [fp, #-16]
 585:/home/hkh/git/eapidk-code-r76-trunk/apps/EeePProg/linux/../EeePProg.c **** 
 586:/home/hkh/git/eapidk-code-r76-trunk/apps/EeePProg/linux/../EeePProg.c ****   DO(EeeP_CreateCOM0R20_MEEPImage(
 2878              		.loc 1 586 3
 2879 187c 18301BE5 		ldr	r3, [fp, #-24]
 2880 1880 002093E5 		ldr	r2, [r3]
ARM GAS  /tmp/cc812cGb.s 			page 65


 2881 1884 10304BE2 		sub	r3, fp, #16
 2882 1888 0210A0E1 		mov	r1, r2
 2883 188c 0300A0E1 		mov	r0, r3
 2884 1890 FEFFFFEB 		bl	EeeP_CreateCOM0R20_MEEPImage(PLT)
 2885 1894 0C000BE5 		str	r0, [fp, #-12]
 2886 1898 0C301BE5 		ldr	r3, [fp, #-12]
 2887 189c 000053E3 		cmp	r3, #0
 2888 18a0 0F00000A 		beq	.L136
 2889              		.loc 1 586 3 is_stmt 0 discriminator 1
 2890 18a4 F0309FE5 		ldr	r3, .L141+8
 2891              	.LPIC154:
 2892 18a8 03308FE0 		add	r3, pc, r3
 2893 18ac 08308DE5 		str	r3, [sp, #8]
 2894 18b0 E8309FE5 		ldr	r3, .L141+12
 2895              	.LPIC155:
 2896 18b4 03308FE0 		add	r3, pc, r3
 2897 18b8 04308DE5 		str	r3, [sp, #4]
 2898 18bc 0C301BE5 		ldr	r3, [fp, #-12]
 2899 18c0 00308DE5 		str	r3, [sp]
 2900 18c4 4A3200E3 		movw	r3, #586
 2901 18c8 D4209FE5 		ldr	r2, .L141+16
 2902              	.LPIC156:
 2903 18cc 02208FE0 		add	r2, pc, r2
 2904 18d0 D0109FE5 		ldr	r1, .L141+20
 2905              	.LPIC157:
 2906 18d4 01108FE0 		add	r1, pc, r1
 2907 18d8 4500A0E3 		mov	r0, #69
 2908 18dc FEFFFFEB 		bl	siFormattedMessage_SC(PLT)
 2909 18e0 1A0000EA 		b	.L137
 2910              	.L136:
 587:/home/hkh/git/eapidk-code-r76-trunk/apps/EeePProg/linux/../EeePProg.c ****         &BHandel                              ,
 588:/home/hkh/git/eapidk-code-r76-trunk/apps/EeePProg/linux/../EeePProg.c ****         ((InOutFiles_t*)pArgData)->InFile
 589:/home/hkh/git/eapidk-code-r76-trunk/apps/EeePProg/linux/../EeePProg.c ****       ));
 590:/home/hkh/git/eapidk-code-r76-trunk/apps/EeePProg/linux/../EeePProg.c ****   DO(EeePWriteBufferToFile(BHandel, ((InOutFiles_t*)pArgData)->OutFile));
 2911              		.loc 1 590 3 is_stmt 1
 2912 18e4 10201BE5 		ldr	r2, [fp, #-16]
 2913 18e8 18301BE5 		ldr	r3, [fp, #-24]
 2914 18ec 043093E5 		ldr	r3, [r3, #4]
 2915 18f0 0310A0E1 		mov	r1, r3
 2916 18f4 0200A0E1 		mov	r0, r2
 2917 18f8 FEFFFFEB 		bl	EeePWriteBufferToFile(PLT)
 2918 18fc 0C000BE5 		str	r0, [fp, #-12]
 2919 1900 0C301BE5 		ldr	r3, [fp, #-12]
 2920 1904 000053E3 		cmp	r3, #0
 2921 1908 0F00000A 		beq	.L140
 2922              		.loc 1 590 3 is_stmt 0 discriminator 1
 2923 190c 98309FE5 		ldr	r3, .L141+24
 2924              	.LPIC158:
 2925 1910 03308FE0 		add	r3, pc, r3
 2926 1914 08308DE5 		str	r3, [sp, #8]
 2927 1918 90309FE5 		ldr	r3, .L141+28
 2928              	.LPIC159:
 2929 191c 03308FE0 		add	r3, pc, r3
 2930 1920 04308DE5 		str	r3, [sp, #4]
 2931 1924 0C301BE5 		ldr	r3, [fp, #-12]
 2932 1928 00308DE5 		str	r3, [sp]
 2933 192c 4E3200E3 		movw	r3, #590
ARM GAS  /tmp/cc812cGb.s 			page 66


 2934 1930 7C209FE5 		ldr	r2, .L141+32
 2935              	.LPIC160:
 2936 1934 02208FE0 		add	r2, pc, r2
 2937 1938 78109FE5 		ldr	r1, .L141+36
 2938              	.LPIC161:
 2939 193c 01108FE0 		add	r1, pc, r1
 2940 1940 4500A0E3 		mov	r0, #69
 2941 1944 FEFFFFEB 		bl	siFormattedMessage_SC(PLT)
 2942 1948 000000EA 		b	.L137
 2943              	.L140:
 591:/home/hkh/git/eapidk-code-r76-trunk/apps/EeePProg/linux/../EeePProg.c **** 
 592:/home/hkh/git/eapidk-code-r76-trunk/apps/EeePProg/linux/../EeePProg.c **** EAPI_APP_ASSERT_EXIT
 2944              		.loc 1 592 1 is_stmt 1
 2945 194c 00F020E3 		nop
 2946              	.L137:
 593:/home/hkh/git/eapidk-code-r76-trunk/apps/EeePProg/linux/../EeePProg.c ****   EeePFreeBuffer(&BHandel);
 2947              		.loc 1 593 3
 2948 1950 10304BE2 		sub	r3, fp, #16
 2949 1954 0300A0E1 		mov	r0, r3
 2950 1958 FEFFFFEB 		bl	EeePFreeBuffer(PLT)
 594:/home/hkh/git/eapidk-code-r76-trunk/apps/EeePProg/linux/../EeePProg.c ****   return StatusCode;
 2951              		.loc 1 594 10
 2952 195c 0C301BE5 		ldr	r3, [fp, #-12]
 582:/home/hkh/git/eapidk-code-r76-trunk/apps/EeePProg/linux/../EeePProg.c ****   EApiStatus_t StatusCode=EAPI_STATUS_SUCCESS;
 2953              		.loc 1 582 1
 2954 1960 54109FE5 		ldr	r1, .L141+40
 2955              	.LPIC163:
 2956 1964 01108FE0 		add	r1, pc, r1
 595:/home/hkh/git/eapidk-code-r76-trunk/apps/EeePProg/linux/../EeePProg.c **** }
 2957              		.loc 1 595 1
 2958 1968 28209FE5 		ldr	r2, .L141+4
 2959 196c 022091E7 		ldr	r2, [r1, r2]
 2960 1970 001092E5 		ldr	r1, [r2]
 2961 1974 08201BE5 		ldr	r2, [fp, #-8]
 2962 1978 011032E0 		eors	r1, r2, r1
 2963 197c 0020A0E3 		mov	r2, #0
 2964 1980 0000000A 		beq	.L139
 2965 1984 FEFFFFEB 		bl	__stack_chk_fail(PLT)
 2966              	.L139:
 2967 1988 0300A0E1 		mov	r0, r3
 2968 198c 04D04BE2 		sub	sp, fp, #4
 2969              		.cfi_def_cfa 13, 8
 2970              		@ sp needed
 2971 1990 0088BDE8 		pop	{fp, pc}
 2972              	.L142:
 2973              		.align	2
 2974              	.L141:
 2975 1994 38010000 		.word	_GLOBAL_OFFSET_TABLE_-(.LPIC162+8)
 2976 1998 00000000 		.word	__stack_chk_guard(GOT)
 2977 199c BC090000 		.word	.LC44-(.LPIC154+8)
 2978 19a0 54030000 		.word	.LC14-(.LPIC155+8)
 2979 19a4 44030000 		.word	.LC15-(.LPIC156+8)
 2980 19a8 E0020000 		.word	.LC12-(.LPIC157+8)
 2981 19ac 20090000 		.word	.LC43-(.LPIC158+8)
 2982 19b0 FC020000 		.word	.LC14-(.LPIC159+8)
 2983 19b4 EC020000 		.word	.LC15-(.LPIC160+8)
 2984 19b8 88020000 		.word	.LC12-(.LPIC161+8)
ARM GAS  /tmp/cc812cGb.s 			page 67


 2985 19bc 50000000 		.word	_GLOBAL_OFFSET_TABLE_-(.LPIC163+8)
 2986              		.cfi_endproc
 2987              	.LFE19:
 2989              		.section	.rodata
 2990 091d 000000   		.align	2
 2991              	.LC45:
 2992 0920 45656550 		.ascii	"EeeP_CreateCOM0R20_CBImage( &BHandel , ((InOutFiles"
 2992      5F437265 
 2992      61746543 
 2992      4F4D3052 
 2992      32305F43 
 2993 0953 5F742A29 		.ascii	"_t*)pArgData)->InFile )\000"
 2993      70417267 
 2993      44617461 
 2993      292D3E49 
 2993      6E46696C 
 2994              		.text
 2995              		.align	2
 2996              		.global	CMD_CreateCOM0R20CB_IMG
 2997              		.syntax unified
 2998              		.arm
 2999              		.fpu vfpv3
 3001              	CMD_CreateCOM0R20CB_IMG:
 3002              	.LFB20:
 596:/home/hkh/git/eapidk-code-r76-trunk/apps/EeePProg/linux/../EeePProg.c **** EApiStatus_t 
 597:/home/hkh/git/eapidk-code-r76-trunk/apps/EeePProg/linux/../EeePProg.c **** CMD_CreateCOM0R20CB_IMG(
 598:/home/hkh/git/eapidk-code-r76-trunk/apps/EeePProg/linux/../EeePProg.c ****     void *pArgData
 599:/home/hkh/git/eapidk-code-r76-trunk/apps/EeePProg/linux/../EeePProg.c ****     )
 600:/home/hkh/git/eapidk-code-r76-trunk/apps/EeePProg/linux/../EeePProg.c **** {
 3003              		.loc 1 600 1
 3004              		.cfi_startproc
 3005              		@ args = 0, pretend = 0, frame = 24
 3006              		@ frame_needed = 1, uses_anonymous_args = 0
 3007 19c0 00482DE9 		push	{fp, lr}
 3008              		.cfi_def_cfa_offset 8
 3009              		.cfi_offset 11, -8
 3010              		.cfi_offset 14, -4
 3011 19c4 04B08DE2 		add	fp, sp, #4
 3012              		.cfi_def_cfa 11, 4
 3013 19c8 28D04DE2 		sub	sp, sp, #40
 3014 19cc 18000BE5 		str	r0, [fp, #-24]
 3015              		.loc 1 600 1
 3016 19d0 3C219FE5 		ldr	r2, .L149
 3017              	.LPIC172:
 3018 19d4 02208FE0 		add	r2, pc, r2
 3019 19d8 38319FE5 		ldr	r3, .L149+4
 3020 19dc 033092E7 		ldr	r3, [r2, r3]
 3021 19e0 003093E5 		ldr	r3, [r3]
 3022 19e4 08300BE5 		str	r3, [fp, #-8]
 3023 19e8 0030A0E3 		mov	r3, #0
 601:/home/hkh/git/eapidk-code-r76-trunk/apps/EeePProg/linux/../EeePProg.c ****   EApiStatus_t StatusCode=EAPI_STATUS_SUCCESS;
 3024              		.loc 1 601 16
 3025 19ec 0030A0E3 		mov	r3, #0
 3026 19f0 0C300BE5 		str	r3, [fp, #-12]
 602:/home/hkh/git/eapidk-code-r76-trunk/apps/EeePProg/linux/../EeePProg.c ****   EeePHandel_t BHandel=NULL;
 3027              		.loc 1 602 16
 3028 19f4 0030A0E3 		mov	r3, #0
ARM GAS  /tmp/cc812cGb.s 			page 68


 3029 19f8 10300BE5 		str	r3, [fp, #-16]
 603:/home/hkh/git/eapidk-code-r76-trunk/apps/EeePProg/linux/../EeePProg.c **** 
 604:/home/hkh/git/eapidk-code-r76-trunk/apps/EeePProg/linux/../EeePProg.c ****   DO(EeeP_CreateCOM0R20_CBImage(
 3030              		.loc 1 604 3
 3031 19fc 18301BE5 		ldr	r3, [fp, #-24]
 3032 1a00 002093E5 		ldr	r2, [r3]
 3033 1a04 10304BE2 		sub	r3, fp, #16
 3034 1a08 0210A0E1 		mov	r1, r2
 3035 1a0c 0300A0E1 		mov	r0, r3
 3036 1a10 FEFFFFEB 		bl	EeeP_CreateCOM0R20_CBImage(PLT)
 3037 1a14 0C000BE5 		str	r0, [fp, #-12]
 3038 1a18 0C301BE5 		ldr	r3, [fp, #-12]
 3039 1a1c 000053E3 		cmp	r3, #0
 3040 1a20 0F00000A 		beq	.L144
 3041              		.loc 1 604 3 is_stmt 0 discriminator 1
 3042 1a24 F0309FE5 		ldr	r3, .L149+8
 3043              	.LPIC164:
 3044 1a28 03308FE0 		add	r3, pc, r3
 3045 1a2c 08308DE5 		str	r3, [sp, #8]
 3046 1a30 E8309FE5 		ldr	r3, .L149+12
 3047              	.LPIC165:
 3048 1a34 03308FE0 		add	r3, pc, r3
 3049 1a38 04308DE5 		str	r3, [sp, #4]
 3050 1a3c 0C301BE5 		ldr	r3, [fp, #-12]
 3051 1a40 00308DE5 		str	r3, [sp]
 3052 1a44 973FA0E3 		mov	r3, #604
 3053 1a48 D4209FE5 		ldr	r2, .L149+16
 3054              	.LPIC166:
 3055 1a4c 02208FE0 		add	r2, pc, r2
 3056 1a50 D0109FE5 		ldr	r1, .L149+20
 3057              	.LPIC167:
 3058 1a54 01108FE0 		add	r1, pc, r1
 3059 1a58 4500A0E3 		mov	r0, #69
 3060 1a5c FEFFFFEB 		bl	siFormattedMessage_SC(PLT)
 3061 1a60 1A0000EA 		b	.L145
 3062              	.L144:
 605:/home/hkh/git/eapidk-code-r76-trunk/apps/EeePProg/linux/../EeePProg.c ****         &BHandel                              ,
 606:/home/hkh/git/eapidk-code-r76-trunk/apps/EeePProg/linux/../EeePProg.c ****         ((InOutFiles_t*)pArgData)->InFile
 607:/home/hkh/git/eapidk-code-r76-trunk/apps/EeePProg/linux/../EeePProg.c ****       ));
 608:/home/hkh/git/eapidk-code-r76-trunk/apps/EeePProg/linux/../EeePProg.c ****   DO(EeePWriteBufferToFile(BHandel, ((InOutFiles_t*)pArgData)->OutFile));
 3063              		.loc 1 608 3 is_stmt 1
 3064 1a64 10201BE5 		ldr	r2, [fp, #-16]
 3065 1a68 18301BE5 		ldr	r3, [fp, #-24]
 3066 1a6c 043093E5 		ldr	r3, [r3, #4]
 3067 1a70 0310A0E1 		mov	r1, r3
 3068 1a74 0200A0E1 		mov	r0, r2
 3069 1a78 FEFFFFEB 		bl	EeePWriteBufferToFile(PLT)
 3070 1a7c 0C000BE5 		str	r0, [fp, #-12]
 3071 1a80 0C301BE5 		ldr	r3, [fp, #-12]
 3072 1a84 000053E3 		cmp	r3, #0
 3073 1a88 0F00000A 		beq	.L148
 3074              		.loc 1 608 3 is_stmt 0 discriminator 1
 3075 1a8c 98309FE5 		ldr	r3, .L149+24
 3076              	.LPIC168:
 3077 1a90 03308FE0 		add	r3, pc, r3
 3078 1a94 08308DE5 		str	r3, [sp, #8]
 3079 1a98 90309FE5 		ldr	r3, .L149+28
ARM GAS  /tmp/cc812cGb.s 			page 69


 3080              	.LPIC169:
 3081 1a9c 03308FE0 		add	r3, pc, r3
 3082 1aa0 04308DE5 		str	r3, [sp, #4]
 3083 1aa4 0C301BE5 		ldr	r3, [fp, #-12]
 3084 1aa8 00308DE5 		str	r3, [sp]
 3085 1aac 263EA0E3 		mov	r3, #608
 3086 1ab0 7C209FE5 		ldr	r2, .L149+32
 3087              	.LPIC170:
 3088 1ab4 02208FE0 		add	r2, pc, r2
 3089 1ab8 78109FE5 		ldr	r1, .L149+36
 3090              	.LPIC171:
 3091 1abc 01108FE0 		add	r1, pc, r1
 3092 1ac0 4500A0E3 		mov	r0, #69
 3093 1ac4 FEFFFFEB 		bl	siFormattedMessage_SC(PLT)
 3094 1ac8 000000EA 		b	.L145
 3095              	.L148:
 609:/home/hkh/git/eapidk-code-r76-trunk/apps/EeePProg/linux/../EeePProg.c **** 
 610:/home/hkh/git/eapidk-code-r76-trunk/apps/EeePProg/linux/../EeePProg.c **** EAPI_APP_ASSERT_EXIT
 3096              		.loc 1 610 1 is_stmt 1
 3097 1acc 00F020E3 		nop
 3098              	.L145:
 611:/home/hkh/git/eapidk-code-r76-trunk/apps/EeePProg/linux/../EeePProg.c ****   EeePFreeBuffer(&BHandel);
 3099              		.loc 1 611 3
 3100 1ad0 10304BE2 		sub	r3, fp, #16
 3101 1ad4 0300A0E1 		mov	r0, r3
 3102 1ad8 FEFFFFEB 		bl	EeePFreeBuffer(PLT)
 612:/home/hkh/git/eapidk-code-r76-trunk/apps/EeePProg/linux/../EeePProg.c ****   return StatusCode;
 3103              		.loc 1 612 10
 3104 1adc 0C301BE5 		ldr	r3, [fp, #-12]
 600:/home/hkh/git/eapidk-code-r76-trunk/apps/EeePProg/linux/../EeePProg.c ****   EApiStatus_t StatusCode=EAPI_STATUS_SUCCESS;
 3105              		.loc 1 600 1
 3106 1ae0 54109FE5 		ldr	r1, .L149+40
 3107              	.LPIC173:
 3108 1ae4 01108FE0 		add	r1, pc, r1
 613:/home/hkh/git/eapidk-code-r76-trunk/apps/EeePProg/linux/../EeePProg.c **** }
 3109              		.loc 1 613 1
 3110 1ae8 28209FE5 		ldr	r2, .L149+4
 3111 1aec 022091E7 		ldr	r2, [r1, r2]
 3112 1af0 001092E5 		ldr	r1, [r2]
 3113 1af4 08201BE5 		ldr	r2, [fp, #-8]
 3114 1af8 011032E0 		eors	r1, r2, r1
 3115 1afc 0020A0E3 		mov	r2, #0
 3116 1b00 0000000A 		beq	.L147
 3117 1b04 FEFFFFEB 		bl	__stack_chk_fail(PLT)
 3118              	.L147:
 3119 1b08 0300A0E1 		mov	r0, r3
 3120 1b0c 04D04BE2 		sub	sp, fp, #4
 3121              		.cfi_def_cfa 13, 8
 3122              		@ sp needed
 3123 1b10 0088BDE8 		pop	{fp, pc}
 3124              	.L150:
 3125              		.align	2
 3126              	.L149:
 3127 1b14 38010000 		.word	_GLOBAL_OFFSET_TABLE_-(.LPIC172+8)
 3128 1b18 00000000 		.word	__stack_chk_guard(GOT)
 3129 1b1c 0C0A0000 		.word	.LC45-(.LPIC164+8)
 3130 1b20 54030000 		.word	.LC14-(.LPIC165+8)
ARM GAS  /tmp/cc812cGb.s 			page 70


 3131 1b24 44030000 		.word	.LC15-(.LPIC166+8)
 3132 1b28 E0020000 		.word	.LC12-(.LPIC167+8)
 3133 1b2c 20090000 		.word	.LC43-(.LPIC168+8)
 3134 1b30 FC020000 		.word	.LC14-(.LPIC169+8)
 3135 1b34 EC020000 		.word	.LC15-(.LPIC170+8)
 3136 1b38 88020000 		.word	.LC12-(.LPIC171+8)
 3137 1b3c 50000000 		.word	_GLOBAL_OFFSET_TABLE_-(.LPIC173+8)
 3138              		.cfi_endproc
 3139              	.LFE20:
 3141              		.align	2
 3142              		.global	CMD_ListDBlocks_IMG
 3143              		.syntax unified
 3144              		.arm
 3145              		.fpu vfpv3
 3147              	CMD_ListDBlocks_IMG:
 3148              	.LFB21:
 614:/home/hkh/git/eapidk-code-r76-trunk/apps/EeePProg/linux/../EeePProg.c **** 
 615:/home/hkh/git/eapidk-code-r76-trunk/apps/EeePProg/linux/../EeePProg.c **** EApiStatus_t 
 616:/home/hkh/git/eapidk-code-r76-trunk/apps/EeePProg/linux/../EeePProg.c **** CMD_ListDBlocks_IMG(
 617:/home/hkh/git/eapidk-code-r76-trunk/apps/EeePProg/linux/../EeePProg.c ****     void *pArgData
 618:/home/hkh/git/eapidk-code-r76-trunk/apps/EeePProg/linux/../EeePProg.c ****     )
 619:/home/hkh/git/eapidk-code-r76-trunk/apps/EeePProg/linux/../EeePProg.c **** {
 3149              		.loc 1 619 1
 3150              		.cfi_startproc
 3151              		@ args = 0, pretend = 0, frame = 24
 3152              		@ frame_needed = 1, uses_anonymous_args = 0
 3153 1b40 00482DE9 		push	{fp, lr}
 3154              		.cfi_def_cfa_offset 8
 3155              		.cfi_offset 11, -8
 3156              		.cfi_offset 14, -4
 3157 1b44 04B08DE2 		add	fp, sp, #4
 3158              		.cfi_def_cfa 11, 4
 3159 1b48 28D04DE2 		sub	sp, sp, #40
 3160 1b4c 18000BE5 		str	r0, [fp, #-24]
 3161              		.loc 1 619 1
 3162 1b50 34219FE5 		ldr	r2, .L157
 3163              	.LPIC182:
 3164 1b54 02208FE0 		add	r2, pc, r2
 3165 1b58 30319FE5 		ldr	r3, .L157+4
 3166 1b5c 033092E7 		ldr	r3, [r2, r3]
 3167 1b60 003093E5 		ldr	r3, [r3]
 3168 1b64 08300BE5 		str	r3, [fp, #-8]
 3169 1b68 0030A0E3 		mov	r3, #0
 620:/home/hkh/git/eapidk-code-r76-trunk/apps/EeePProg/linux/../EeePProg.c ****   EApiStatus_t StatusCode=EAPI_STATUS_SUCCESS;
 3170              		.loc 1 620 16
 3171 1b6c 0030A0E3 		mov	r3, #0
 3172 1b70 0C300BE5 		str	r3, [fp, #-12]
 621:/home/hkh/git/eapidk-code-r76-trunk/apps/EeePProg/linux/../EeePProg.c ****   EeePHandel_t BHandel=NULL;
 3173              		.loc 1 621 16
 3174 1b74 0030A0E3 		mov	r3, #0
 3175 1b78 10300BE5 		str	r3, [fp, #-16]
 622:/home/hkh/git/eapidk-code-r76-trunk/apps/EeePProg/linux/../EeePProg.c **** 
 623:/home/hkh/git/eapidk-code-r76-trunk/apps/EeePProg/linux/../EeePProg.c ****   DO(EeePReadBufferFromFile(
 3176              		.loc 1 623 3
 3177 1b7c 18301BE5 		ldr	r3, [fp, #-24]
 3178 1b80 002093E5 		ldr	r2, [r3]
 3179 1b84 10304BE2 		sub	r3, fp, #16
ARM GAS  /tmp/cc812cGb.s 			page 71


 3180 1b88 0210A0E1 		mov	r1, r2
 3181 1b8c 0300A0E1 		mov	r0, r3
 3182 1b90 FEFFFFEB 		bl	EeePReadBufferFromFile(PLT)
 3183 1b94 0C000BE5 		str	r0, [fp, #-12]
 3184 1b98 0C301BE5 		ldr	r3, [fp, #-12]
 3185 1b9c 000053E3 		cmp	r3, #0
 3186 1ba0 0F00000A 		beq	.L152
 3187              		.loc 1 623 3 is_stmt 0 discriminator 1
 3188 1ba4 E8309FE5 		ldr	r3, .L157+8
 3189              	.LPIC174:
 3190 1ba8 03308FE0 		add	r3, pc, r3
 3191 1bac 08308DE5 		str	r3, [sp, #8]
 3192 1bb0 E0309FE5 		ldr	r3, .L157+12
 3193              	.LPIC175:
 3194 1bb4 03308FE0 		add	r3, pc, r3
 3195 1bb8 04308DE5 		str	r3, [sp, #4]
 3196 1bbc 0C301BE5 		ldr	r3, [fp, #-12]
 3197 1bc0 00308DE5 		str	r3, [sp]
 3198 1bc4 6F3200E3 		movw	r3, #623
 3199 1bc8 CC209FE5 		ldr	r2, .L157+16
 3200              	.LPIC176:
 3201 1bcc 02208FE0 		add	r2, pc, r2
 3202 1bd0 C8109FE5 		ldr	r1, .L157+20
 3203              	.LPIC177:
 3204 1bd4 01108FE0 		add	r1, pc, r1
 3205 1bd8 4500A0E3 		mov	r0, #69
 3206 1bdc FEFFFFEB 		bl	siFormattedMessage_SC(PLT)
 3207 1be0 180000EA 		b	.L153
 3208              	.L152:
 624:/home/hkh/git/eapidk-code-r76-trunk/apps/EeePProg/linux/../EeePProg.c ****         &BHandel                              ,
 625:/home/hkh/git/eapidk-code-r76-trunk/apps/EeePProg/linux/../EeePProg.c ****         *(char**)pArgData
 626:/home/hkh/git/eapidk-code-r76-trunk/apps/EeePProg/linux/../EeePProg.c ****       ));
 627:/home/hkh/git/eapidk-code-r76-trunk/apps/EeePProg/linux/../EeePProg.c ****   DO(EeePListBlocks( BHandel, 0));
 3209              		.loc 1 627 3 is_stmt 1
 3210 1be4 10301BE5 		ldr	r3, [fp, #-16]
 3211 1be8 0010A0E3 		mov	r1, #0
 3212 1bec 0300A0E1 		mov	r0, r3
 3213 1bf0 FEFFFFEB 		bl	EeePListBlocks(PLT)
 3214 1bf4 0C000BE5 		str	r0, [fp, #-12]
 3215 1bf8 0C301BE5 		ldr	r3, [fp, #-12]
 3216 1bfc 000053E3 		cmp	r3, #0
 3217 1c00 0F00000A 		beq	.L156
 3218              		.loc 1 627 3 is_stmt 0 discriminator 1
 3219 1c04 98309FE5 		ldr	r3, .L157+24
 3220              	.LPIC178:
 3221 1c08 03308FE0 		add	r3, pc, r3
 3222 1c0c 08308DE5 		str	r3, [sp, #8]
 3223 1c10 90309FE5 		ldr	r3, .L157+28
 3224              	.LPIC179:
 3225 1c14 03308FE0 		add	r3, pc, r3
 3226 1c18 04308DE5 		str	r3, [sp, #4]
 3227 1c1c 0C301BE5 		ldr	r3, [fp, #-12]
 3228 1c20 00308DE5 		str	r3, [sp]
 3229 1c24 733200E3 		movw	r3, #627
 3230 1c28 7C209FE5 		ldr	r2, .L157+32
 3231              	.LPIC180:
 3232 1c2c 02208FE0 		add	r2, pc, r2
ARM GAS  /tmp/cc812cGb.s 			page 72


 3233 1c30 78109FE5 		ldr	r1, .L157+36
 3234              	.LPIC181:
 3235 1c34 01108FE0 		add	r1, pc, r1
 3236 1c38 4500A0E3 		mov	r0, #69
 3237 1c3c FEFFFFEB 		bl	siFormattedMessage_SC(PLT)
 3238 1c40 000000EA 		b	.L153
 3239              	.L156:
 628:/home/hkh/git/eapidk-code-r76-trunk/apps/EeePProg/linux/../EeePProg.c **** 
 629:/home/hkh/git/eapidk-code-r76-trunk/apps/EeePProg/linux/../EeePProg.c **** EAPI_APP_ASSERT_EXIT
 3240              		.loc 1 629 1 is_stmt 1
 3241 1c44 00F020E3 		nop
 3242              	.L153:
 630:/home/hkh/git/eapidk-code-r76-trunk/apps/EeePProg/linux/../EeePProg.c ****   EeePFreeBuffer(&BHandel);
 3243              		.loc 1 630 3
 3244 1c48 10304BE2 		sub	r3, fp, #16
 3245 1c4c 0300A0E1 		mov	r0, r3
 3246 1c50 FEFFFFEB 		bl	EeePFreeBuffer(PLT)
 631:/home/hkh/git/eapidk-code-r76-trunk/apps/EeePProg/linux/../EeePProg.c ****   return StatusCode;
 3247              		.loc 1 631 10
 3248 1c54 0C301BE5 		ldr	r3, [fp, #-12]
 619:/home/hkh/git/eapidk-code-r76-trunk/apps/EeePProg/linux/../EeePProg.c ****   EApiStatus_t StatusCode=EAPI_STATUS_SUCCESS;
 3249              		.loc 1 619 1
 3250 1c58 54109FE5 		ldr	r1, .L157+40
 3251              	.LPIC183:
 3252 1c5c 01108FE0 		add	r1, pc, r1
 632:/home/hkh/git/eapidk-code-r76-trunk/apps/EeePProg/linux/../EeePProg.c **** }
 3253              		.loc 1 632 1
 3254 1c60 28209FE5 		ldr	r2, .L157+4
 3255 1c64 022091E7 		ldr	r2, [r1, r2]
 3256 1c68 001092E5 		ldr	r1, [r2]
 3257 1c6c 08201BE5 		ldr	r2, [fp, #-8]
 3258 1c70 011032E0 		eors	r1, r2, r1
 3259 1c74 0020A0E3 		mov	r2, #0
 3260 1c78 0000000A 		beq	.L155
 3261 1c7c FEFFFFEB 		bl	__stack_chk_fail(PLT)
 3262              	.L155:
 3263 1c80 0300A0E1 		mov	r0, r3
 3264 1c84 04D04BE2 		sub	sp, fp, #4
 3265              		.cfi_def_cfa 13, 8
 3266              		@ sp needed
 3267 1c88 0088BDE8 		pop	{fp, pc}
 3268              	.L158:
 3269              		.align	2
 3270              	.L157:
 3271 1c8c 30010000 		.word	_GLOBAL_OFFSET_TABLE_-(.LPIC182+8)
 3272 1c90 00000000 		.word	__stack_chk_guard(GOT)
 3273 1c94 E4050000 		.word	.LC26-(.LPIC174+8)
 3274 1c98 4C030000 		.word	.LC14-(.LPIC175+8)
 3275 1c9c 3C030000 		.word	.LC15-(.LPIC176+8)
 3276 1ca0 D8020000 		.word	.LC12-(.LPIC177+8)
 3277 1ca4 B8080000 		.word	.LC41-(.LPIC178+8)
 3278 1ca8 FC020000 		.word	.LC14-(.LPIC179+8)
 3279 1cac EC020000 		.word	.LC15-(.LPIC180+8)
 3280 1cb0 88020000 		.word	.LC12-(.LPIC181+8)
 3281 1cb4 50000000 		.word	_GLOBAL_OFFSET_TABLE_-(.LPIC183+8)
 3282              		.cfi_endproc
 3283              	.LFE21:
ARM GAS  /tmp/cc812cGb.s 			page 73


 3285              		.global	ArgsDesc
 3286              		.section	.rodata
 3287 096b 00       		.align	2
 3288              	.LC46:
 3289 096c 71756965 		.ascii	"quiet\000"
 3289      7400
 3290 0972 0000     		.align	2
 3291              	.LC47:
 3292 0974 4D696E69 		.ascii	"Minimises Output\000"
 3292      6D697365 
 3292      73204F75 
 3292      74707574 
 3292      00
 3293 0985 000000   		.align	2
 3294              	.LC48:
 3295 0988 68656C70 		.ascii	"help\000"
 3295      00
 3296 098d 000000   		.align	2
 3297              	.LC49:
 3298 0990 5072696E 		.ascii	"Print this usage message\000"
 3298      74207468 
 3298      69732075 
 3298      73616765 
 3298      206D6573 
 3299 09a9 000000   		.align	2
 3300              	.LC50:
 3301 09ac 76657262 		.ascii	"verbose\000"
 3301      6F736500 
 3302              		.align	2
 3303              	.LC51:
 3304 09b4 496E6372 		.ascii	"Increases Verbosity Level\000"
 3304      65617365 
 3304      73205665 
 3304      72626F73 
 3304      69747920 
 3305 09ce 0000     		.align	2
 3306              	.LC52:
 3307 09d0 43524541 		.ascii	"CREATE-COM0R20M-CFG\000"
 3307      54452D43 
 3307      4F4D3052 
 3307      32304D2D 
 3307      43464700 
 3308              		.align	2
 3309              	.LC53:
 3310 09e4 43726561 		.ascii	"Create COM0 Module Config File Template\000"
 3310      74652043 
 3310      4F4D3020 
 3310      4D6F6475 
 3310      6C652043 
 3311              		.align	2
 3312              	.LC54:
 3313 0a0c 43524541 		.ascii	"CREATE-COM0R20M-IMG\000"
 3313      54452D43 
 3313      4F4D3052 
 3313      32304D2D 
 3313      494D4700 
 3314              		.align	2
ARM GAS  /tmp/cc812cGb.s 			page 74


 3315              	.LC55:
 3316 0a20 43726561 		.ascii	"Create COM0 Module Binary File\000"
 3316      74652043 
 3316      4F4D3020 
 3316      4D6F6475 
 3316      6C652042 
 3317 0a3f 00       		.align	2
 3318              	.LC56:
 3319 0a40 43524541 		.ascii	"CREATE-COM0R20M-EEP\000"
 3319      54452D43 
 3319      4F4D3052 
 3319      32304D2D 
 3319      45455000 
 3320              		.align	2
 3321              	.LC57:
 3322 0a54 43726561 		.ascii	"Create COM0 Module Content and Program over EApi\000"
 3322      74652043 
 3322      4F4D3020 
 3322      4D6F6475 
 3322      6C652043 
 3323 0a85 000000   		.align	2
 3324              	.LC58:
 3325 0a88 43524541 		.ascii	"CREATE-COM0R20CB-CFG\000"
 3325      54452D43 
 3325      4F4D3052 
 3325      32304342 
 3325      2D434647 
 3326 0a9d 000000   		.align	2
 3327              	.LC59:
 3328 0aa0 43726561 		.ascii	"Create COM0 Carrier Config File Template\000"
 3328      74652043 
 3328      4F4D3020 
 3328      43617272 
 3328      69657220 
 3329 0ac9 000000   		.align	2
 3330              	.LC60:
 3331 0acc 43524541 		.ascii	"CREATE-COM0R20CB-EEP\000"
 3331      54452D43 
 3331      4F4D3052 
 3331      32304342 
 3331      2D454550 
 3332 0ae1 000000   		.align	2
 3333              	.LC61:
 3334 0ae4 43726561 		.ascii	"Create COM0 Carrier Content and Program over EApi\000"
 3334      74652043 
 3334      4F4D3020 
 3334      43617272 
 3334      69657220 
 3335 0b16 0000     		.align	2
 3336              	.LC62:
 3337 0b18 43524541 		.ascii	"CREATE-COM0R20CB-IMG\000"
 3337      54452D43 
 3337      4F4D3052 
 3337      32304342 
 3337      2D494D47 
 3338 0b2d 000000   		.align	2
 3339              	.LC63:
ARM GAS  /tmp/cc812cGb.s 			page 75


 3340 0b30 43726561 		.ascii	"Create COM0 Carrier Binary File\000"
 3340      74652043 
 3340      4F4D3020 
 3340      43617272 
 3340      69657220 
 3341              		.align	2
 3342              	.LC64:
 3343 0b50 43524541 		.ascii	"CREATE-EeePExpEEP-CFG\000"
 3343      54452D45 
 3343      65655045 
 3343      78704545 
 3343      502D4346 
 3344 0b66 0000     		.align	2
 3345              	.LC65:
 3346 0b68 43726561 		.ascii	"Create EeeP Expansion EEP Config File Template\000"
 3346      74652045 
 3346      65655020 
 3346      45787061 
 3346      6E73696F 
 3347 0b97 00       		.align	2
 3348              	.LC66:
 3349 0b98 43524541 		.ascii	"CREATE-EeePExpEEP-IMG\000"
 3349      54452D45 
 3349      65655045 
 3349      78704545 
 3349      502D494D 
 3350 0bae 0000     		.align	2
 3351              	.LC67:
 3352 0bb0 43726561 		.ascii	"Create EeeP Expansion EEP Binary File\000"
 3352      74652045 
 3352      65655020 
 3352      45787061 
 3352      6E73696F 
 3353 0bd6 0000     		.align	2
 3354              	.LC68:
 3355 0bd8 43524541 		.ascii	"CREATE-EeePExpEEP-EEP\000"
 3355      54452D45 
 3355      65655045 
 3355      78704545 
 3355      502D4545 
 3356 0bee 0000     		.align	2
 3357              	.LC69:
 3358 0bf0 43726561 		.ascii	"Create EeeP Expansion EEP Image and Program over EA"
 3358      74652045 
 3358      65655020 
 3358      45787061 
 3358      6E73696F 
 3359 0c23 706900   		.ascii	"pi\000"
 3360 0c26 0000     		.align	2
 3361              	.LC70:
 3362 0c28 50524F47 		.ascii	"PROGRAM-EeePExpEEP-EEP\000"
 3362      52414D2D 
 3362      45656550 
 3362      45787045 
 3362      45502D45 
 3363 0c3f 00       		.align	2
 3364              	.LC71:
ARM GAS  /tmp/cc812cGb.s 			page 76


 3365 0c40 50726F67 		.ascii	"Program EeeP Expansion EEP Image file over EApi\000"
 3365      72616D20 
 3365      45656550 
 3365      20457870 
 3365      616E7369 
 3366              		.align	2
 3367              	.LC72:
 3368 0c70 50524F47 		.ascii	"PROGRAM-COM0R20CB-EEP\000"
 3368      52414D2D 
 3368      434F4D30 
 3368      52323043 
 3368      422D4545 
 3369 0c86 0000     		.align	2
 3370              	.LC73:
 3371 0c88 50726F67 		.ascii	"Program COM0 R2.0 Carrier Board EEP Image file over"
 3371      72616D20 
 3371      434F4D30 
 3371      2052322E 
 3371      30204361 
 3372 0cbb 20454170 		.ascii	" EApi\000"
 3372      6900
 3373 0cc1 000000   		.align	2
 3374              	.LC74:
 3375 0cc4 50524F47 		.ascii	"PROGRAM-COM0R20M-EEP\000"
 3375      52414D2D 
 3375      434F4D30 
 3375      5232304D 
 3375      2D454550 
 3376 0cd9 000000   		.align	2
 3377              	.LC75:
 3378 0cdc 50726F67 		.ascii	"Program COM0 R2.0 Module EEP Image file over EApi\000"
 3378      72616D20 
 3378      434F4D30 
 3378      2052322E 
 3378      30204D6F 
 3379 0d0e 0000     		.align	2
 3380              	.LC76:
 3381 0d10 53415645 		.ascii	"SAVE-EeePExpEEP-IMG\000"
 3381      2D456565 
 3381      50457870 
 3381      4545502D 
 3381      494D4700 
 3382              		.align	2
 3383              	.LC77:
 3384 0d24 53746F72 		.ascii	"Stores EeeP Expansion EEP to Image file over EApi\000"
 3384      65732045 
 3384      65655020 
 3384      45787061 
 3384      6E73696F 
 3385 0d56 0000     		.align	2
 3386              	.LC78:
 3387 0d58 53415645 		.ascii	"SAVE-COM0R20CB-IMG\000"
 3387      2D434F4D 
 3387      30523230 
 3387      43422D49 
 3387      4D4700
 3388 0d6b 00       		.align	2
ARM GAS  /tmp/cc812cGb.s 			page 77


 3389              	.LC79:
 3390 0d6c 53746F72 		.ascii	"Stores COM0 R2.0 Carrier Board EEP to Image file ov"
 3390      65732043 
 3390      4F4D3020 
 3390      52322E30 
 3390      20436172 
 3391 0d9f 65722045 		.ascii	"er EApi\000"
 3391      41706900 
 3392 0da7 00       		.align	2
 3393              	.LC80:
 3394 0da8 53415645 		.ascii	"SAVE-COM0R20M-IMG\000"
 3394      2D434F4D 
 3394      30523230 
 3394      4D2D494D 
 3394      4700
 3395 0dba 0000     		.align	2
 3396              	.LC81:
 3397 0dbc 53746F72 		.ascii	"Stores COM0 R2.0 Module EEP to Image file over EApi"
 3397      65732043 
 3397      4F4D3020 
 3397      52322E30 
 3397      204D6F64 
 3398 0def 00       		.ascii	"\000"
 3399              		.align	2
 3400              	.LC82:
 3401 0df0 4C495354 		.ascii	"LIST-DBLOCKS-IMG\000"
 3401      2D44424C 
 3401      4F434B53 
 3401      2D494D47 
 3401      00
 3402 0e01 000000   		.align	2
 3403              	.LC83:
 3404 0e04 4C697374 		.ascii	"Lists Dynamic Blocks in Binary Image file\000"
 3404      73204479 
 3404      6E616D69 
 3404      6320426C 
 3404      6F636B73 
 3405 0e2e 0000     		.align	2
 3406              	.LC84:
 3407 0e30 4C495354 		.ascii	"LIST-DBLOCKS-EEP\000"
 3407      2D44424C 
 3407      4F434B53 
 3407      2D454550 
 3407      00
 3408 0e41 000000   		.align	2
 3409              	.LC85:
 3410 0e44 4C495354 		.ascii	"LIST-DBLOCKS-COM0R20CBEEP\000"
 3410      2D44424C 
 3410      4F434B53 
 3410      2D434F4D 
 3410      30523230 
 3411 0e5e 0000     		.align	2
 3412              	.LC86:
 3413 0e60 4C697374 		.ascii	"Lists Dynamic Blocks in COM0 R2.0 Carrier Board EEP"
 3413      73204479 
 3413      6E616D69 
 3413      6320426C 
ARM GAS  /tmp/cc812cGb.s 			page 78


 3413      6F636B73 
 3414 0e93 524F4D00 		.ascii	"ROM\000"
 3415 0e97 00       		.align	2
 3416              	.LC87:
 3417 0e98 4C495354 		.ascii	"LIST-DBLOCKS-COM0R20MEEP\000"
 3417      2D44424C 
 3417      4F434B53 
 3417      2D434F4D 
 3417      30523230 
 3418 0eb1 000000   		.align	2
 3419              	.LC88:
 3420 0eb4 4C697374 		.ascii	"Lists Dynamic Blocks in COM0 R2.0 Module EEPROM\000"
 3420      73204479 
 3420      6E616D69 
 3420      6320426C 
 3420      6F636B73 
 3421              		.section	.data.rel.local,"aw"
 3422              		.align	2
 3425              	ArgsDesc:
 3426 0000 71       		.byte	113
 3427 0001 000000   		.space	3
 3428 0004 6C090000 		.word	.LC46
 3429 0008 04000000 		.word	CurOptions+4
 3430 000c 74090000 		.word	.LC47
 3431 0010 00000000 		.word	0
 3432 0014 00000000 		.word	0
 3433 0018 00000000 		.word	0
 3434 001c 00000000 		.word	0
 3435 0020 68       		.byte	104
 3436 0021 000000   		.space	3
 3437 0024 88090000 		.word	.LC48
 3438 0028 00000000 		.word	CurOptions
 3439 002c 90090000 		.word	.LC49
 3440 0030 00000000 		.word	0
 3441 0034 00000000 		.word	0
 3442 0038 00000000 		.word	0
 3443 003c 00000000 		.word	0
 3444 0040 3F       		.byte	63
 3445 0041 000000   		.space	3
 3446 0044 00000000 		.word	0
 3447 0048 00000000 		.word	CurOptions
 3448 004c 90090000 		.word	.LC49
 3449 0050 00000000 		.word	0
 3450 0054 00000000 		.word	0
 3451 0058 00000000 		.word	0
 3452 005c 00000000 		.word	0
 3453 0060 76       		.byte	118
 3454 0061 000000   		.space	3
 3455 0064 AC090000 		.word	.LC50
 3456 0068 08000000 		.word	CurOptions+8
 3457 006c B4090000 		.word	.LC51
 3458 0070 00000000 		.word	0
 3459 0074 00000000 		.word	0
 3460 0078 00000000 		.word	0
 3461 007c 00000000 		.word	0
 3462 0080 00       		.byte	0
 3463 0081 000000   		.space	3
ARM GAS  /tmp/cc812cGb.s 			page 79


 3464 0084 D0090000 		.word	.LC52
 3465 0088 0C000000 		.word	CurOptions+12
 3466 008c E4090000 		.word	.LC53
 3467 0090 00000000 		.word	COM0R20M_Cfg
 3468 0094 01000000 		.word	1
 3469 0098 10000000 		.word	CurOptions+16
 3470 009c 00000000 		.word	CMD_CreateCOM0R20_MEEPCfg
 3471 00a0 00       		.byte	0
 3472 00a1 000000   		.space	3
 3473 00a4 0C0A0000 		.word	.LC54
 3474 00a8 14000000 		.word	CurOptions+20
 3475 00ac 200A0000 		.word	.LC55
 3476 00b0 00000000 		.word	COM0R20M_Img
 3477 00b4 02000000 		.word	2
 3478 00b8 18000000 		.word	CurOptions+24
 3479 00bc 00000000 		.word	CMD_CreateCOM0R20M_IMG
 3480 00c0 00       		.byte	0
 3481 00c1 000000   		.space	3
 3482 00c4 400A0000 		.word	.LC56
 3483 00c8 20000000 		.word	CurOptions+32
 3484 00cc 540A0000 		.word	.LC57
 3485 00d0 00000000 		.word	COM0R20M_EEP
 3486 00d4 01000000 		.word	1
 3487 00d8 24000000 		.word	CurOptions+36
 3488 00dc 00000000 		.word	CMD_CreateCOM0R20M_EEP
 3489 00e0 00       		.byte	0
 3490 00e1 000000   		.space	3
 3491 00e4 880A0000 		.word	.LC58
 3492 00e8 28000000 		.word	CurOptions+40
 3493 00ec A00A0000 		.word	.LC59
 3494 00f0 00000000 		.word	COM0R20CB_Cfg
 3495 00f4 01000000 		.word	1
 3496 00f8 2C000000 		.word	CurOptions+44
 3497 00fc 00000000 		.word	CMD_CreateCOM0R20_CBCfg
 3498 0100 00       		.byte	0
 3499 0101 000000   		.space	3
 3500 0104 CC0A0000 		.word	.LC60
 3501 0108 3C000000 		.word	CurOptions+60
 3502 010c E40A0000 		.word	.LC61
 3503 0110 00000000 		.word	COM0R20CB_EEP
 3504 0114 01000000 		.word	1
 3505 0118 40000000 		.word	CurOptions+64
 3506 011c 00000000 		.word	CMD_CreateCOM0R20CB_EEP
 3507 0120 00       		.byte	0
 3508 0121 000000   		.space	3
 3509 0124 180B0000 		.word	.LC62
 3510 0128 30000000 		.word	CurOptions+48
 3511 012c 300B0000 		.word	.LC63
 3512 0130 00000000 		.word	COM0R20CB_Img
 3513 0134 02000000 		.word	2
 3514 0138 34000000 		.word	CurOptions+52
 3515 013c 00000000 		.word	CMD_CreateCOM0R20CB_IMG
 3516 0140 00       		.byte	0
 3517 0141 000000   		.space	3
 3518 0144 500B0000 		.word	.LC64
 3519 0148 44000000 		.word	CurOptions+68
 3520 014c 680B0000 		.word	.LC65
ARM GAS  /tmp/cc812cGb.s 			page 80


 3521 0150 00000000 		.word	EeePExpEEP_Cfg
 3522 0154 01000000 		.word	1
 3523 0158 48000000 		.word	CurOptions+72
 3524 015c 00000000 		.word	CMD_CreateCOM0R20_EeePExtCfg
 3525 0160 00       		.byte	0
 3526 0161 000000   		.space	3
 3527 0164 980B0000 		.word	.LC66
 3528 0168 4C000000 		.word	CurOptions+76
 3529 016c B00B0000 		.word	.LC67
 3530 0170 00000000 		.word	EeePExpEEP_Img
 3531 0174 02000000 		.word	2
 3532 0178 50000000 		.word	CurOptions+80
 3533 017c 00000000 		.word	CMD_CreateExtEepEEP_IMG
 3534 0180 00       		.byte	0
 3535 0181 000000   		.space	3
 3536 0184 D80B0000 		.word	.LC68
 3537 0188 58000000 		.word	CurOptions+88
 3538 018c F00B0000 		.word	.LC69
 3539 0190 00000000 		.word	EeePExpEEP_EEP
 3540 0194 03000000 		.word	3
 3541 0198 5C000000 		.word	CurOptions+92
 3542 019c 00000000 		.word	CMD_CreateEeePExt_EEP
 3543 01a0 00       		.byte	0
 3544 01a1 000000   		.space	3
 3545 01a4 280C0000 		.word	.LC70
 3546 01a8 68000000 		.word	CurOptions+104
 3547 01ac 400C0000 		.word	.LC71
 3548 01b0 00000000 		.word	EeePExpEEP_PEEP
 3549 01b4 03000000 		.word	3
 3550 01b8 6C000000 		.word	CurOptions+108
 3551 01bc 00000000 		.word	CMD_ProgramEeePExt_EEP
 3552 01c0 00       		.byte	0
 3553 01c1 000000   		.space	3
 3554 01c4 700C0000 		.word	.LC72
 3555 01c8 78000000 		.word	CurOptions+120
 3556 01cc 880C0000 		.word	.LC73
 3557 01d0 00000000 		.word	COM0R20CB_PEEP
 3558 01d4 01000000 		.word	1
 3559 01d8 7C000000 		.word	CurOptions+124
 3560 01dc 00000000 		.word	CMD_ProgramCOM0R20CB_EEP
 3561 01e0 00       		.byte	0
 3562 01e1 000000   		.space	3
 3563 01e4 C40C0000 		.word	.LC74
 3564 01e8 80000000 		.word	CurOptions+128
 3565 01ec DC0C0000 		.word	.LC75
 3566 01f0 00000000 		.word	COM0R20M_PEEP
 3567 01f4 01000000 		.word	1
 3568 01f8 84000000 		.word	CurOptions+132
 3569 01fc 00000000 		.word	CMD_ProgramCOM0R20M_EEP
 3570 0200 00       		.byte	0
 3571 0201 000000   		.space	3
 3572 0204 100D0000 		.word	.LC76
 3573 0208 A4000000 		.word	CurOptions+164
 3574 020c 240D0000 		.word	.LC77
 3575 0210 00000000 		.word	EeePExpEEP_IMG
 3576 0214 03000000 		.word	3
 3577 0218 A8000000 		.word	CurOptions+168
ARM GAS  /tmp/cc812cGb.s 			page 81


 3578 021c 00000000 		.word	CMD_StoreEeePExt_EEP
 3579 0220 00       		.byte	0
 3580 0221 000000   		.space	3
 3581 0224 580D0000 		.word	.LC78
 3582 0228 B4000000 		.word	CurOptions+180
 3583 022c 6C0D0000 		.word	.LC79
 3584 0230 00000000 		.word	COM0R20CB_IMG
 3585 0234 01000000 		.word	1
 3586 0238 B8000000 		.word	CurOptions+184
 3587 023c 00000000 		.word	CMD_StoreCOM0R20_CB_EEP
 3588 0240 00       		.byte	0
 3589 0241 000000   		.space	3
 3590 0244 A80D0000 		.word	.LC80
 3591 0248 BC000000 		.word	CurOptions+188
 3592 024c BC0D0000 		.word	.LC81
 3593 0250 00000000 		.word	COM0R20M_IMG
 3594 0254 01000000 		.word	1
 3595 0258 C0000000 		.word	CurOptions+192
 3596 025c 00000000 		.word	CMD_StoreCOM0R20_M_EEP
 3597 0260 00       		.byte	0
 3598 0261 000000   		.space	3
 3599 0264 F00D0000 		.word	.LC82
 3600 0268 88000000 		.word	CurOptions+136
 3601 026c 040E0000 		.word	.LC83
 3602 0270 00000000 		.word	GEN_LIST_DBLOCKS_FILE
 3603 0274 01000000 		.word	1
 3604 0278 8C000000 		.word	CurOptions+140
 3605 027c 00000000 		.word	CMD_ListDBlocks_IMG
 3606 0280 00       		.byte	0
 3607 0281 000000   		.space	3
 3608 0284 300E0000 		.word	.LC84
 3609 0288 90000000 		.word	CurOptions+144
 3610 028c 040E0000 		.word	.LC83
 3611 0290 00000000 		.word	GEN_LIST_DBLOCKS_EEP
 3612 0294 02000000 		.word	2
 3613 0298 94000000 		.word	CurOptions+148
 3614 029c 00000000 		.word	CMD_ListDBlocksEeePExt_EEP
 3615 02a0 00       		.byte	0
 3616 02a1 000000   		.space	3
 3617 02a4 440E0000 		.word	.LC85
 3618 02a8 9C000000 		.word	CurOptions+156
 3619 02ac 600E0000 		.word	.LC86
 3620 02b0 00000000 		.word	0
 3621 02b4 00000000 		.word	0
 3622 02b8 00000000 		.word	0
 3623 02bc 00000000 		.word	CMD_ListDBlocksCOM0R20_CB_EEP
 3624 02c0 00       		.byte	0
 3625 02c1 000000   		.space	3
 3626 02c4 980E0000 		.word	.LC87
 3627 02c8 A0000000 		.word	CurOptions+160
 3628 02cc B40E0000 		.word	.LC88
 3629 02d0 00000000 		.word	0
 3630 02d4 00000000 		.word	0
 3631 02d8 00000000 		.word	0
 3632 02dc 00000000 		.word	CMD_ListDBlocksCOM0R20_M_EEP
 3633              		.section	.rodata
 3634              		.align	2
ARM GAS  /tmp/cc812cGb.s 			page 82


 3635              	.LC89:
 3636 0ee4 6D61696E 		.ascii	"main\000"
 3636      00
 3637 0ee9 000000   		.align	2
 3638              	.LC90:
 3639 0eec 45417069 		.ascii	"EApiLibInitialize()\000"
 3639      4C696249 
 3639      6E697469 
 3639      616C697A 
 3639      65282900 
 3640              		.align	2
 3641              	.LC91:
 3642 0f00 257300   		.ascii	"%s\000"
 3643 0f03 00       		.align	2
 3644              	.LC92:
 3645 0f04 50617273 		.ascii	"ParseArgs(argc, argv, ArgsDesc, ARRAY_SIZE(ArgsDesc"
 3645      65417267 
 3645      73286172 
 3645      67632C20 
 3645      61726776 
 3646 0f37 292900   		.ascii	"))\000"
 3647 0f3a 0000     		.align	2
 3648              	.LC93:
 3649 0f3c 45417069 		.ascii	"EApiLibUnInitialize()\000"
 3649      4C696255 
 3649      6E496E69 
 3649      7469616C 
 3649      697A6528 
 3650              		.text
 3651              		.align	2
 3652              		.global	main
 3653              		.syntax unified
 3654              		.arm
 3655              		.fpu vfpv3
 3657              	main:
 3658              	.LFB22:
 633:/home/hkh/git/eapidk-code-r76-trunk/apps/EeePProg/linux/../EeePProg.c **** 
 634:/home/hkh/git/eapidk-code-r76-trunk/apps/EeePProg/linux/../EeePProg.c **** 
 635:/home/hkh/git/eapidk-code-r76-trunk/apps/EeePProg/linux/../EeePProg.c **** 
 636:/home/hkh/git/eapidk-code-r76-trunk/apps/EeePProg/linux/../EeePProg.c **** CmdDesc_t ArgsDesc[]={
 637:/home/hkh/git/eapidk-code-r76-trunk/apps/EeePProg/linux/../EeePProg.c ****   {
 638:/home/hkh/git/eapidk-code-r76-trunk/apps/EeePProg/linux/../EeePProg.c ****     'q'                                             , 
 639:/home/hkh/git/eapidk-code-r76-trunk/apps/EeePProg/linux/../EeePProg.c ****     "quiet"                                         , 
 640:/home/hkh/git/eapidk-code-r76-trunk/apps/EeePProg/linux/../EeePProg.c ****     &CurOptions.uiQuiet                             , 
 641:/home/hkh/git/eapidk-code-r76-trunk/apps/EeePProg/linux/../EeePProg.c ****     "Minimises Output"                              , 
 642:/home/hkh/git/eapidk-code-r76-trunk/apps/EeePProg/linux/../EeePProg.c ****     NULL                                            ,
 643:/home/hkh/git/eapidk-code-r76-trunk/apps/EeePProg/linux/../EeePProg.c ****     0                                               ,
 644:/home/hkh/git/eapidk-code-r76-trunk/apps/EeePProg/linux/../EeePProg.c ****     NULL                                            ,
 645:/home/hkh/git/eapidk-code-r76-trunk/apps/EeePProg/linux/../EeePProg.c ****     NULL
 646:/home/hkh/git/eapidk-code-r76-trunk/apps/EeePProg/linux/../EeePProg.c ****   },
 647:/home/hkh/git/eapidk-code-r76-trunk/apps/EeePProg/linux/../EeePProg.c ****   {
 648:/home/hkh/git/eapidk-code-r76-trunk/apps/EeePProg/linux/../EeePProg.c ****     'h'                                             , 
 649:/home/hkh/git/eapidk-code-r76-trunk/apps/EeePProg/linux/../EeePProg.c ****     "help"                                          , 
 650:/home/hkh/git/eapidk-code-r76-trunk/apps/EeePProg/linux/../EeePProg.c ****     &CurOptions.uiHelp                              , 
 651:/home/hkh/git/eapidk-code-r76-trunk/apps/EeePProg/linux/../EeePProg.c ****     "Print this usage message"                      , 
 652:/home/hkh/git/eapidk-code-r76-trunk/apps/EeePProg/linux/../EeePProg.c ****     NULL                                            ,
 653:/home/hkh/git/eapidk-code-r76-trunk/apps/EeePProg/linux/../EeePProg.c ****     0                                               ,
ARM GAS  /tmp/cc812cGb.s 			page 83


 654:/home/hkh/git/eapidk-code-r76-trunk/apps/EeePProg/linux/../EeePProg.c ****     NULL                                            ,
 655:/home/hkh/git/eapidk-code-r76-trunk/apps/EeePProg/linux/../EeePProg.c ****     NULL
 656:/home/hkh/git/eapidk-code-r76-trunk/apps/EeePProg/linux/../EeePProg.c ****   },
 657:/home/hkh/git/eapidk-code-r76-trunk/apps/EeePProg/linux/../EeePProg.c ****   {
 658:/home/hkh/git/eapidk-code-r76-trunk/apps/EeePProg/linux/../EeePProg.c ****     '?'                                             , 
 659:/home/hkh/git/eapidk-code-r76-trunk/apps/EeePProg/linux/../EeePProg.c ****     NULL                                            , 
 660:/home/hkh/git/eapidk-code-r76-trunk/apps/EeePProg/linux/../EeePProg.c ****     &CurOptions.uiHelp                              , 
 661:/home/hkh/git/eapidk-code-r76-trunk/apps/EeePProg/linux/../EeePProg.c ****     "Print this usage message"                      , 
 662:/home/hkh/git/eapidk-code-r76-trunk/apps/EeePProg/linux/../EeePProg.c ****     NULL                                            ,
 663:/home/hkh/git/eapidk-code-r76-trunk/apps/EeePProg/linux/../EeePProg.c ****     0                                               ,
 664:/home/hkh/git/eapidk-code-r76-trunk/apps/EeePProg/linux/../EeePProg.c ****     NULL                                            ,
 665:/home/hkh/git/eapidk-code-r76-trunk/apps/EeePProg/linux/../EeePProg.c ****     NULL
 666:/home/hkh/git/eapidk-code-r76-trunk/apps/EeePProg/linux/../EeePProg.c ****   },
 667:/home/hkh/git/eapidk-code-r76-trunk/apps/EeePProg/linux/../EeePProg.c ****   {
 668:/home/hkh/git/eapidk-code-r76-trunk/apps/EeePProg/linux/../EeePProg.c ****     'v'                                             , 
 669:/home/hkh/git/eapidk-code-r76-trunk/apps/EeePProg/linux/../EeePProg.c ****     "verbose"                                       , 
 670:/home/hkh/git/eapidk-code-r76-trunk/apps/EeePProg/linux/../EeePProg.c ****     &CurOptions.uiVerbose                           , 
 671:/home/hkh/git/eapidk-code-r76-trunk/apps/EeePProg/linux/../EeePProg.c ****     "Increases Verbosity Level"                     , 
 672:/home/hkh/git/eapidk-code-r76-trunk/apps/EeePProg/linux/../EeePProg.c ****     NULL                                            ,
 673:/home/hkh/git/eapidk-code-r76-trunk/apps/EeePProg/linux/../EeePProg.c ****     0                                               ,
 674:/home/hkh/git/eapidk-code-r76-trunk/apps/EeePProg/linux/../EeePProg.c ****     NULL                                            ,
 675:/home/hkh/git/eapidk-code-r76-trunk/apps/EeePProg/linux/../EeePProg.c ****     NULL
 676:/home/hkh/git/eapidk-code-r76-trunk/apps/EeePProg/linux/../EeePProg.c ****   },
 677:/home/hkh/git/eapidk-code-r76-trunk/apps/EeePProg/linux/../EeePProg.c ****   {
 678:/home/hkh/git/eapidk-code-r76-trunk/apps/EeePProg/linux/../EeePProg.c ****     0x00                                            , 
 679:/home/hkh/git/eapidk-code-r76-trunk/apps/EeePProg/linux/../EeePProg.c ****     "CREATE-COM0R20M-CFG"                           , 
 680:/home/hkh/git/eapidk-code-r76-trunk/apps/EeePProg/linux/../EeePProg.c ****     &CurOptions.uiCreateCOM0R20M_CFG                , 
 681:/home/hkh/git/eapidk-code-r76-trunk/apps/EeePProg/linux/../EeePProg.c ****     "Create COM0 Module Config File Template"       , 
 682:/home/hkh/git/eapidk-code-r76-trunk/apps/EeePProg/linux/../EeePProg.c ****     COM0R20M_Cfg                                    ,
 683:/home/hkh/git/eapidk-code-r76-trunk/apps/EeePProg/linux/../EeePProg.c ****     ARRAY_SIZE(COM0R20M_Cfg)                        ,
 684:/home/hkh/git/eapidk-code-r76-trunk/apps/EeePProg/linux/../EeePProg.c ****     &CurOptions.szCOM0R20M_Cfg_File                 ,
 685:/home/hkh/git/eapidk-code-r76-trunk/apps/EeePProg/linux/../EeePProg.c ****     CMD_CreateCOM0R20_MEEPCfg
 686:/home/hkh/git/eapidk-code-r76-trunk/apps/EeePProg/linux/../EeePProg.c ****   },
 687:/home/hkh/git/eapidk-code-r76-trunk/apps/EeePProg/linux/../EeePProg.c ****   {
 688:/home/hkh/git/eapidk-code-r76-trunk/apps/EeePProg/linux/../EeePProg.c ****     0x00                                            , 
 689:/home/hkh/git/eapidk-code-r76-trunk/apps/EeePProg/linux/../EeePProg.c ****     "CREATE-COM0R20M-IMG"                           , 
 690:/home/hkh/git/eapidk-code-r76-trunk/apps/EeePProg/linux/../EeePProg.c ****     &CurOptions.uiCreateCOM0R20M_IMG                , 
 691:/home/hkh/git/eapidk-code-r76-trunk/apps/EeePProg/linux/../EeePProg.c ****     "Create COM0 Module Binary File"                , 
 692:/home/hkh/git/eapidk-code-r76-trunk/apps/EeePProg/linux/../EeePProg.c ****     COM0R20M_Img                                    ,
 693:/home/hkh/git/eapidk-code-r76-trunk/apps/EeePProg/linux/../EeePProg.c ****     ARRAY_SIZE(COM0R20M_Img)                        ,
 694:/home/hkh/git/eapidk-code-r76-trunk/apps/EeePProg/linux/../EeePProg.c ****     &CurOptions.CreateCOM0R20M                      ,
 695:/home/hkh/git/eapidk-code-r76-trunk/apps/EeePProg/linux/../EeePProg.c ****     CMD_CreateCOM0R20M_IMG
 696:/home/hkh/git/eapidk-code-r76-trunk/apps/EeePProg/linux/../EeePProg.c ****   },
 697:/home/hkh/git/eapidk-code-r76-trunk/apps/EeePProg/linux/../EeePProg.c ****   {
 698:/home/hkh/git/eapidk-code-r76-trunk/apps/EeePProg/linux/../EeePProg.c ****     0x00                                            , 
 699:/home/hkh/git/eapidk-code-r76-trunk/apps/EeePProg/linux/../EeePProg.c ****     "CREATE-COM0R20M-EEP"                           , 
 700:/home/hkh/git/eapidk-code-r76-trunk/apps/EeePProg/linux/../EeePProg.c ****     &CurOptions.uiCreateCOM0R20M_EEP                , 
 701:/home/hkh/git/eapidk-code-r76-trunk/apps/EeePProg/linux/../EeePProg.c ****     "Create COM0 Module Content and Program over EApi", 
 702:/home/hkh/git/eapidk-code-r76-trunk/apps/EeePProg/linux/../EeePProg.c ****     COM0R20M_EEP                                    ,
 703:/home/hkh/git/eapidk-code-r76-trunk/apps/EeePProg/linux/../EeePProg.c ****     ARRAY_SIZE(COM0R20M_EEP)                        ,
 704:/home/hkh/git/eapidk-code-r76-trunk/apps/EeePProg/linux/../EeePProg.c ****     &CurOptions.szCOM0R20M_S2Cfg_File               ,
 705:/home/hkh/git/eapidk-code-r76-trunk/apps/EeePProg/linux/../EeePProg.c ****     CMD_CreateCOM0R20M_EEP
 706:/home/hkh/git/eapidk-code-r76-trunk/apps/EeePProg/linux/../EeePProg.c ****   },
 707:/home/hkh/git/eapidk-code-r76-trunk/apps/EeePProg/linux/../EeePProg.c ****   {
 708:/home/hkh/git/eapidk-code-r76-trunk/apps/EeePProg/linux/../EeePProg.c ****     0x00, 
 709:/home/hkh/git/eapidk-code-r76-trunk/apps/EeePProg/linux/../EeePProg.c ****     "CREATE-COM0R20CB-CFG" , 
 710:/home/hkh/git/eapidk-code-r76-trunk/apps/EeePProg/linux/../EeePProg.c ****     &CurOptions.uiCreateCOM0R20CB_CFG               , 
ARM GAS  /tmp/cc812cGb.s 			page 84


 711:/home/hkh/git/eapidk-code-r76-trunk/apps/EeePProg/linux/../EeePProg.c ****     "Create COM0 Carrier Config File Template"      , 
 712:/home/hkh/git/eapidk-code-r76-trunk/apps/EeePProg/linux/../EeePProg.c ****     COM0R20CB_Cfg                                   ,
 713:/home/hkh/git/eapidk-code-r76-trunk/apps/EeePProg/linux/../EeePProg.c ****     ARRAY_SIZE(COM0R20CB_Cfg)                       ,
 714:/home/hkh/git/eapidk-code-r76-trunk/apps/EeePProg/linux/../EeePProg.c ****     &CurOptions.szCOM0R20CB_Cfg_File                ,
 715:/home/hkh/git/eapidk-code-r76-trunk/apps/EeePProg/linux/../EeePProg.c ****     CMD_CreateCOM0R20_CBCfg
 716:/home/hkh/git/eapidk-code-r76-trunk/apps/EeePProg/linux/../EeePProg.c ****   },
 717:/home/hkh/git/eapidk-code-r76-trunk/apps/EeePProg/linux/../EeePProg.c ****   {
 718:/home/hkh/git/eapidk-code-r76-trunk/apps/EeePProg/linux/../EeePProg.c ****     0x00                                            , 
 719:/home/hkh/git/eapidk-code-r76-trunk/apps/EeePProg/linux/../EeePProg.c ****     "CREATE-COM0R20CB-EEP"                          , 
 720:/home/hkh/git/eapidk-code-r76-trunk/apps/EeePProg/linux/../EeePProg.c ****     &CurOptions.uiCreateCOM0R20CB_EEP               , 
 721:/home/hkh/git/eapidk-code-r76-trunk/apps/EeePProg/linux/../EeePProg.c ****     "Create COM0 Carrier Content and Program over EApi", 
 722:/home/hkh/git/eapidk-code-r76-trunk/apps/EeePProg/linux/../EeePProg.c ****     COM0R20CB_EEP                                   ,
 723:/home/hkh/git/eapidk-code-r76-trunk/apps/EeePProg/linux/../EeePProg.c ****     ARRAY_SIZE(COM0R20CB_EEP)                       ,
 724:/home/hkh/git/eapidk-code-r76-trunk/apps/EeePProg/linux/../EeePProg.c ****     &CurOptions.szCOM0R20CB_S2Cfg_File              ,
 725:/home/hkh/git/eapidk-code-r76-trunk/apps/EeePProg/linux/../EeePProg.c ****     CMD_CreateCOM0R20CB_EEP
 726:/home/hkh/git/eapidk-code-r76-trunk/apps/EeePProg/linux/../EeePProg.c ****   },
 727:/home/hkh/git/eapidk-code-r76-trunk/apps/EeePProg/linux/../EeePProg.c ****   {
 728:/home/hkh/git/eapidk-code-r76-trunk/apps/EeePProg/linux/../EeePProg.c ****     0x00                                            , 
 729:/home/hkh/git/eapidk-code-r76-trunk/apps/EeePProg/linux/../EeePProg.c ****     "CREATE-COM0R20CB-IMG"                          , 
 730:/home/hkh/git/eapidk-code-r76-trunk/apps/EeePProg/linux/../EeePProg.c ****     &CurOptions.uiCreateCOM0R20CB_IMG               , 
 731:/home/hkh/git/eapidk-code-r76-trunk/apps/EeePProg/linux/../EeePProg.c ****     "Create COM0 Carrier Binary File"               , 
 732:/home/hkh/git/eapidk-code-r76-trunk/apps/EeePProg/linux/../EeePProg.c ****     COM0R20CB_Img                                   ,
 733:/home/hkh/git/eapidk-code-r76-trunk/apps/EeePProg/linux/../EeePProg.c ****     ARRAY_SIZE(COM0R20CB_Img)                       ,
 734:/home/hkh/git/eapidk-code-r76-trunk/apps/EeePProg/linux/../EeePProg.c ****     &CurOptions.CreateCOM0R20CB                     ,
 735:/home/hkh/git/eapidk-code-r76-trunk/apps/EeePProg/linux/../EeePProg.c ****     CMD_CreateCOM0R20CB_IMG
 736:/home/hkh/git/eapidk-code-r76-trunk/apps/EeePProg/linux/../EeePProg.c ****   },
 737:/home/hkh/git/eapidk-code-r76-trunk/apps/EeePProg/linux/../EeePProg.c ****   {
 738:/home/hkh/git/eapidk-code-r76-trunk/apps/EeePProg/linux/../EeePProg.c ****     0x00                                            , 
 739:/home/hkh/git/eapidk-code-r76-trunk/apps/EeePProg/linux/../EeePProg.c ****     "CREATE-EeePExpEEP-CFG"                         , 
 740:/home/hkh/git/eapidk-code-r76-trunk/apps/EeePProg/linux/../EeePProg.c ****     &CurOptions.uiCreateEeePExpEEP_CFG              , 
 741:/home/hkh/git/eapidk-code-r76-trunk/apps/EeePProg/linux/../EeePProg.c ****     "Create EeeP Expansion EEP Config File Template", 
 742:/home/hkh/git/eapidk-code-r76-trunk/apps/EeePProg/linux/../EeePProg.c ****     EeePExpEEP_Cfg                                  ,
 743:/home/hkh/git/eapidk-code-r76-trunk/apps/EeePProg/linux/../EeePProg.c ****     ARRAY_SIZE(EeePExpEEP_Cfg)                      ,
 744:/home/hkh/git/eapidk-code-r76-trunk/apps/EeePProg/linux/../EeePProg.c ****     &CurOptions.szEeePExpEEP_Cfg_File               ,
 745:/home/hkh/git/eapidk-code-r76-trunk/apps/EeePProg/linux/../EeePProg.c ****     CMD_CreateCOM0R20_EeePExtCfg
 746:/home/hkh/git/eapidk-code-r76-trunk/apps/EeePProg/linux/../EeePProg.c ****   },
 747:/home/hkh/git/eapidk-code-r76-trunk/apps/EeePProg/linux/../EeePProg.c ****   {
 748:/home/hkh/git/eapidk-code-r76-trunk/apps/EeePProg/linux/../EeePProg.c ****     0x00                                            , 
 749:/home/hkh/git/eapidk-code-r76-trunk/apps/EeePProg/linux/../EeePProg.c ****     "CREATE-EeePExpEEP-IMG"                         , 
 750:/home/hkh/git/eapidk-code-r76-trunk/apps/EeePProg/linux/../EeePProg.c ****     &CurOptions.uiCreateEeePExpEEP_IMG              , 
 751:/home/hkh/git/eapidk-code-r76-trunk/apps/EeePProg/linux/../EeePProg.c ****     "Create EeeP Expansion EEP Binary File"         , 
 752:/home/hkh/git/eapidk-code-r76-trunk/apps/EeePProg/linux/../EeePProg.c ****     EeePExpEEP_Img                                  ,
 753:/home/hkh/git/eapidk-code-r76-trunk/apps/EeePProg/linux/../EeePProg.c ****     ARRAY_SIZE(EeePExpEEP_Img)                      ,
 754:/home/hkh/git/eapidk-code-r76-trunk/apps/EeePProg/linux/../EeePProg.c ****     &CurOptions.CreateEeePExpEEP                    ,
 755:/home/hkh/git/eapidk-code-r76-trunk/apps/EeePProg/linux/../EeePProg.c ****     CMD_CreateExtEepEEP_IMG
 756:/home/hkh/git/eapidk-code-r76-trunk/apps/EeePProg/linux/../EeePProg.c ****   },
 757:/home/hkh/git/eapidk-code-r76-trunk/apps/EeePProg/linux/../EeePProg.c ****   {
 758:/home/hkh/git/eapidk-code-r76-trunk/apps/EeePProg/linux/../EeePProg.c ****     0x00                                            , 
 759:/home/hkh/git/eapidk-code-r76-trunk/apps/EeePProg/linux/../EeePProg.c ****     "CREATE-EeePExpEEP-EEP"                         , 
 760:/home/hkh/git/eapidk-code-r76-trunk/apps/EeePProg/linux/../EeePProg.c ****     &CurOptions.uiCreateEeePExpEEP_EEP              , 
 761:/home/hkh/git/eapidk-code-r76-trunk/apps/EeePProg/linux/../EeePProg.c ****     "Create EeeP Expansion EEP Image and Program over EApi", 
 762:/home/hkh/git/eapidk-code-r76-trunk/apps/EeePProg/linux/../EeePProg.c ****     EeePExpEEP_EEP                                  ,
 763:/home/hkh/git/eapidk-code-r76-trunk/apps/EeePProg/linux/../EeePProg.c ****     ARRAY_SIZE(EeePExpEEP_EEP)                      ,
 764:/home/hkh/git/eapidk-code-r76-trunk/apps/EeePProg/linux/../EeePProg.c ****     &CurOptions.CreateEeePExpEEP_EEP                ,
 765:/home/hkh/git/eapidk-code-r76-trunk/apps/EeePProg/linux/../EeePProg.c ****     CMD_CreateEeePExt_EEP
 766:/home/hkh/git/eapidk-code-r76-trunk/apps/EeePProg/linux/../EeePProg.c ****   },
 767:/home/hkh/git/eapidk-code-r76-trunk/apps/EeePProg/linux/../EeePProg.c ****   {
ARM GAS  /tmp/cc812cGb.s 			page 85


 768:/home/hkh/git/eapidk-code-r76-trunk/apps/EeePProg/linux/../EeePProg.c ****     0x00                                            , 
 769:/home/hkh/git/eapidk-code-r76-trunk/apps/EeePProg/linux/../EeePProg.c ****     "PROGRAM-EeePExpEEP-EEP"                        , 
 770:/home/hkh/git/eapidk-code-r76-trunk/apps/EeePProg/linux/../EeePProg.c ****     &CurOptions.uiProgramEeePExpEEP_EEP             , 
 771:/home/hkh/git/eapidk-code-r76-trunk/apps/EeePProg/linux/../EeePProg.c ****     "Program EeeP Expansion EEP Image file over EApi", 
 772:/home/hkh/git/eapidk-code-r76-trunk/apps/EeePProg/linux/../EeePProg.c ****     EeePExpEEP_PEEP                                 ,
 773:/home/hkh/git/eapidk-code-r76-trunk/apps/EeePProg/linux/../EeePProg.c ****     ARRAY_SIZE(EeePExpEEP_PEEP)                     ,
 774:/home/hkh/git/eapidk-code-r76-trunk/apps/EeePProg/linux/../EeePProg.c ****     &CurOptions.ProgramEeePExpEEP_EEP               ,
 775:/home/hkh/git/eapidk-code-r76-trunk/apps/EeePProg/linux/../EeePProg.c ****     CMD_ProgramEeePExt_EEP
 776:/home/hkh/git/eapidk-code-r76-trunk/apps/EeePProg/linux/../EeePProg.c ****   },
 777:/home/hkh/git/eapidk-code-r76-trunk/apps/EeePProg/linux/../EeePProg.c ****   {
 778:/home/hkh/git/eapidk-code-r76-trunk/apps/EeePProg/linux/../EeePProg.c ****     0x00                                            , 
 779:/home/hkh/git/eapidk-code-r76-trunk/apps/EeePProg/linux/../EeePProg.c ****     "PROGRAM-COM0R20CB-EEP"                         , 
 780:/home/hkh/git/eapidk-code-r76-trunk/apps/EeePProg/linux/../EeePProg.c ****     &CurOptions.uiProgramCOM0R20CB_EEP              , 
 781:/home/hkh/git/eapidk-code-r76-trunk/apps/EeePProg/linux/../EeePProg.c ****     "Program COM0 R2.0 Carrier Board EEP Image file over EApi", 
 782:/home/hkh/git/eapidk-code-r76-trunk/apps/EeePProg/linux/../EeePProg.c ****     COM0R20CB_PEEP                                  ,
 783:/home/hkh/git/eapidk-code-r76-trunk/apps/EeePProg/linux/../EeePProg.c ****     ARRAY_SIZE(COM0R20CB_PEEP)                      ,
 784:/home/hkh/git/eapidk-code-r76-trunk/apps/EeePProg/linux/../EeePProg.c ****     &CurOptions.szCOM0R20CB_SBIN_File               ,
 785:/home/hkh/git/eapidk-code-r76-trunk/apps/EeePProg/linux/../EeePProg.c ****     CMD_ProgramCOM0R20CB_EEP
 786:/home/hkh/git/eapidk-code-r76-trunk/apps/EeePProg/linux/../EeePProg.c ****   },
 787:/home/hkh/git/eapidk-code-r76-trunk/apps/EeePProg/linux/../EeePProg.c ****   {
 788:/home/hkh/git/eapidk-code-r76-trunk/apps/EeePProg/linux/../EeePProg.c ****     0x00                                            , 
 789:/home/hkh/git/eapidk-code-r76-trunk/apps/EeePProg/linux/../EeePProg.c ****     "PROGRAM-COM0R20M-EEP"                          , 
 790:/home/hkh/git/eapidk-code-r76-trunk/apps/EeePProg/linux/../EeePProg.c ****     &CurOptions.uiProgramCOM0R20M_EEP               , 
 791:/home/hkh/git/eapidk-code-r76-trunk/apps/EeePProg/linux/../EeePProg.c ****     "Program COM0 R2.0 Module EEP Image file over EApi", 
 792:/home/hkh/git/eapidk-code-r76-trunk/apps/EeePProg/linux/../EeePProg.c ****     COM0R20M_PEEP                                   ,
 793:/home/hkh/git/eapidk-code-r76-trunk/apps/EeePProg/linux/../EeePProg.c ****     ARRAY_SIZE(COM0R20M_PEEP)                       ,
 794:/home/hkh/git/eapidk-code-r76-trunk/apps/EeePProg/linux/../EeePProg.c ****     &CurOptions.szCOM0R20M_SBIN_File                ,
 795:/home/hkh/git/eapidk-code-r76-trunk/apps/EeePProg/linux/../EeePProg.c ****     CMD_ProgramCOM0R20M_EEP
 796:/home/hkh/git/eapidk-code-r76-trunk/apps/EeePProg/linux/../EeePProg.c ****   },
 797:/home/hkh/git/eapidk-code-r76-trunk/apps/EeePProg/linux/../EeePProg.c ****   {
 798:/home/hkh/git/eapidk-code-r76-trunk/apps/EeePProg/linux/../EeePProg.c ****     0x00                                                , 
 799:/home/hkh/git/eapidk-code-r76-trunk/apps/EeePProg/linux/../EeePProg.c ****     "SAVE-EeePExpEEP-IMG"                               , 
 800:/home/hkh/git/eapidk-code-r76-trunk/apps/EeePProg/linux/../EeePProg.c ****     &CurOptions.uiStoreEeePExpEEP_EEP                   , 
 801:/home/hkh/git/eapidk-code-r76-trunk/apps/EeePProg/linux/../EeePProg.c ****     "Stores EeeP Expansion EEP to Image file over EApi" , 
 802:/home/hkh/git/eapidk-code-r76-trunk/apps/EeePProg/linux/../EeePProg.c ****     EeePExpEEP_IMG                                      ,
 803:/home/hkh/git/eapidk-code-r76-trunk/apps/EeePProg/linux/../EeePProg.c ****     ARRAY_SIZE(EeePExpEEP_IMG)                          ,
 804:/home/hkh/git/eapidk-code-r76-trunk/apps/EeePProg/linux/../EeePProg.c ****     &CurOptions.StoreEeePExpEEP_EEP                     ,
 805:/home/hkh/git/eapidk-code-r76-trunk/apps/EeePProg/linux/../EeePProg.c ****     CMD_StoreEeePExt_EEP
 806:/home/hkh/git/eapidk-code-r76-trunk/apps/EeePProg/linux/../EeePProg.c ****   },
 807:/home/hkh/git/eapidk-code-r76-trunk/apps/EeePProg/linux/../EeePProg.c ****   {
 808:/home/hkh/git/eapidk-code-r76-trunk/apps/EeePProg/linux/../EeePProg.c ****     0x00                                                , 
 809:/home/hkh/git/eapidk-code-r76-trunk/apps/EeePProg/linux/../EeePProg.c ****     "SAVE-COM0R20CB-IMG"                                , 
 810:/home/hkh/git/eapidk-code-r76-trunk/apps/EeePProg/linux/../EeePProg.c ****     &CurOptions.uiStoreCOM0R20CB_EEP                    ,
 811:/home/hkh/git/eapidk-code-r76-trunk/apps/EeePProg/linux/../EeePProg.c ****     "Stores COM0 R2.0 Carrier Board EEP to Image file over EApi", 
 812:/home/hkh/git/eapidk-code-r76-trunk/apps/EeePProg/linux/../EeePProg.c ****     COM0R20CB_IMG                                       ,
 813:/home/hkh/git/eapidk-code-r76-trunk/apps/EeePProg/linux/../EeePProg.c ****     ARRAY_SIZE(COM0R20CB_IMG )                          ,
 814:/home/hkh/git/eapidk-code-r76-trunk/apps/EeePProg/linux/../EeePProg.c ****     &CurOptions.szCOM0R20CBEEP_To_Img_FName             ,
 815:/home/hkh/git/eapidk-code-r76-trunk/apps/EeePProg/linux/../EeePProg.c ****     CMD_StoreCOM0R20_CB_EEP
 816:/home/hkh/git/eapidk-code-r76-trunk/apps/EeePProg/linux/../EeePProg.c ****   },
 817:/home/hkh/git/eapidk-code-r76-trunk/apps/EeePProg/linux/../EeePProg.c ****   {
 818:/home/hkh/git/eapidk-code-r76-trunk/apps/EeePProg/linux/../EeePProg.c ****     0x00                                                ,
 819:/home/hkh/git/eapidk-code-r76-trunk/apps/EeePProg/linux/../EeePProg.c ****     "SAVE-COM0R20M-IMG"                                 ,
 820:/home/hkh/git/eapidk-code-r76-trunk/apps/EeePProg/linux/../EeePProg.c ****     &CurOptions.uiStoreCOM0R20M_EEP                     ,
 821:/home/hkh/git/eapidk-code-r76-trunk/apps/EeePProg/linux/../EeePProg.c ****     "Stores COM0 R2.0 Module EEP to Image file over EApi", 
 822:/home/hkh/git/eapidk-code-r76-trunk/apps/EeePProg/linux/../EeePProg.c ****     COM0R20M_IMG                                        ,
 823:/home/hkh/git/eapidk-code-r76-trunk/apps/EeePProg/linux/../EeePProg.c ****     ARRAY_SIZE(COM0R20M_IMG)                            ,
 824:/home/hkh/git/eapidk-code-r76-trunk/apps/EeePProg/linux/../EeePProg.c ****     &CurOptions.szCOM0R20MEEP_To_Img_FName              ,
ARM GAS  /tmp/cc812cGb.s 			page 86


 825:/home/hkh/git/eapidk-code-r76-trunk/apps/EeePProg/linux/../EeePProg.c ****     CMD_StoreCOM0R20_M_EEP
 826:/home/hkh/git/eapidk-code-r76-trunk/apps/EeePProg/linux/../EeePProg.c ****   },
 827:/home/hkh/git/eapidk-code-r76-trunk/apps/EeePProg/linux/../EeePProg.c ****   {
 828:/home/hkh/git/eapidk-code-r76-trunk/apps/EeePProg/linux/../EeePProg.c ****     0x00                                            , 
 829:/home/hkh/git/eapidk-code-r76-trunk/apps/EeePProg/linux/../EeePProg.c ****     "LIST-DBLOCKS-IMG"                              , 
 830:/home/hkh/git/eapidk-code-r76-trunk/apps/EeePProg/linux/../EeePProg.c ****     &CurOptions.uiListDBlocks_IMG                   , 
 831:/home/hkh/git/eapidk-code-r76-trunk/apps/EeePProg/linux/../EeePProg.c ****     "Lists Dynamic Blocks in Binary Image file"     , 
 832:/home/hkh/git/eapidk-code-r76-trunk/apps/EeePProg/linux/../EeePProg.c ****     GEN_LIST_DBLOCKS_FILE                           ,
 833:/home/hkh/git/eapidk-code-r76-trunk/apps/EeePProg/linux/../EeePProg.c ****     ARRAY_SIZE(GEN_LIST_DBLOCKS_FILE)               ,
 834:/home/hkh/git/eapidk-code-r76-trunk/apps/EeePProg/linux/../EeePProg.c ****     &CurOptions.szGEN_List_DBlocks_File             ,
 835:/home/hkh/git/eapidk-code-r76-trunk/apps/EeePProg/linux/../EeePProg.c ****     CMD_ListDBlocks_IMG
 836:/home/hkh/git/eapidk-code-r76-trunk/apps/EeePProg/linux/../EeePProg.c ****   },
 837:/home/hkh/git/eapidk-code-r76-trunk/apps/EeePProg/linux/../EeePProg.c ****   {
 838:/home/hkh/git/eapidk-code-r76-trunk/apps/EeePProg/linux/../EeePProg.c ****     0x00                                            , 
 839:/home/hkh/git/eapidk-code-r76-trunk/apps/EeePProg/linux/../EeePProg.c ****     "LIST-DBLOCKS-EEP"                              , 
 840:/home/hkh/git/eapidk-code-r76-trunk/apps/EeePProg/linux/../EeePProg.c ****     &CurOptions.uiListDBlocks_EEP                   , 
 841:/home/hkh/git/eapidk-code-r76-trunk/apps/EeePProg/linux/../EeePProg.c ****     "Lists Dynamic Blocks in Binary Image file"     , 
 842:/home/hkh/git/eapidk-code-r76-trunk/apps/EeePProg/linux/../EeePProg.c ****     GEN_LIST_DBLOCKS_EEP                            ,
 843:/home/hkh/git/eapidk-code-r76-trunk/apps/EeePProg/linux/../EeePProg.c ****     ARRAY_SIZE(GEN_LIST_DBLOCKS_EEP)                ,
 844:/home/hkh/git/eapidk-code-r76-trunk/apps/EeePProg/linux/../EeePProg.c ****     &CurOptions.ulEEP_Img                           ,
 845:/home/hkh/git/eapidk-code-r76-trunk/apps/EeePProg/linux/../EeePProg.c ****     CMD_ListDBlocksEeePExt_EEP
 846:/home/hkh/git/eapidk-code-r76-trunk/apps/EeePProg/linux/../EeePProg.c ****   },
 847:/home/hkh/git/eapidk-code-r76-trunk/apps/EeePProg/linux/../EeePProg.c ****   {
 848:/home/hkh/git/eapidk-code-r76-trunk/apps/EeePProg/linux/../EeePProg.c ****     0x00                                            , 
 849:/home/hkh/git/eapidk-code-r76-trunk/apps/EeePProg/linux/../EeePProg.c ****     "LIST-DBLOCKS-COM0R20CBEEP"                     , 
 850:/home/hkh/git/eapidk-code-r76-trunk/apps/EeePProg/linux/../EeePProg.c ****     &CurOptions.uiListDBlocks_COM0R20_CB_EEP        , 
 851:/home/hkh/git/eapidk-code-r76-trunk/apps/EeePProg/linux/../EeePProg.c ****     "Lists Dynamic Blocks in COM0 R2.0 Carrier Board EEPROM", 
 852:/home/hkh/git/eapidk-code-r76-trunk/apps/EeePProg/linux/../EeePProg.c ****     NULL                                            ,
 853:/home/hkh/git/eapidk-code-r76-trunk/apps/EeePProg/linux/../EeePProg.c ****     0                                               ,
 854:/home/hkh/git/eapidk-code-r76-trunk/apps/EeePProg/linux/../EeePProg.c ****     NULL                                            ,
 855:/home/hkh/git/eapidk-code-r76-trunk/apps/EeePProg/linux/../EeePProg.c ****     CMD_ListDBlocksCOM0R20_CB_EEP                                
 856:/home/hkh/git/eapidk-code-r76-trunk/apps/EeePProg/linux/../EeePProg.c ****   },
 857:/home/hkh/git/eapidk-code-r76-trunk/apps/EeePProg/linux/../EeePProg.c ****   {
 858:/home/hkh/git/eapidk-code-r76-trunk/apps/EeePProg/linux/../EeePProg.c ****     0x00                                              , 
 859:/home/hkh/git/eapidk-code-r76-trunk/apps/EeePProg/linux/../EeePProg.c ****     "LIST-DBLOCKS-COM0R20MEEP"                        , 
 860:/home/hkh/git/eapidk-code-r76-trunk/apps/EeePProg/linux/../EeePProg.c ****     &CurOptions.uiListDBlocks_COM0R20_M_EEP           , 
 861:/home/hkh/git/eapidk-code-r76-trunk/apps/EeePProg/linux/../EeePProg.c ****     "Lists Dynamic Blocks in COM0 R2.0 Module EEPROM" , 
 862:/home/hkh/git/eapidk-code-r76-trunk/apps/EeePProg/linux/../EeePProg.c ****     NULL                                              ,
 863:/home/hkh/git/eapidk-code-r76-trunk/apps/EeePProg/linux/../EeePProg.c ****     0                                                 ,
 864:/home/hkh/git/eapidk-code-r76-trunk/apps/EeePProg/linux/../EeePProg.c ****     NULL                                              ,
 865:/home/hkh/git/eapidk-code-r76-trunk/apps/EeePProg/linux/../EeePProg.c ****     CMD_ListDBlocksCOM0R20_M_EEP                                 
 866:/home/hkh/git/eapidk-code-r76-trunk/apps/EeePProg/linux/../EeePProg.c ****   },
 867:/home/hkh/git/eapidk-code-r76-trunk/apps/EeePProg/linux/../EeePProg.c **** };
 868:/home/hkh/git/eapidk-code-r76-trunk/apps/EeePProg/linux/../EeePProg.c **** 
 869:/home/hkh/git/eapidk-code-r76-trunk/apps/EeePProg/linux/../EeePProg.c ****   
 870:/home/hkh/git/eapidk-code-r76-trunk/apps/EeePProg/linux/../EeePProg.c **** 
 871:/home/hkh/git/eapidk-code-r76-trunk/apps/EeePProg/linux/../EeePProg.c **** 
 872:/home/hkh/git/eapidk-code-r76-trunk/apps/EeePProg/linux/../EeePProg.c **** 
 873:/home/hkh/git/eapidk-code-r76-trunk/apps/EeePProg/linux/../EeePProg.c **** 
 874:/home/hkh/git/eapidk-code-r76-trunk/apps/EeePProg/linux/../EeePProg.c **** #define DO_MAIN(x) \
 875:/home/hkh/git/eapidk-code-r76-trunk/apps/EeePProg/linux/../EeePProg.c ****   StatusCode=x;\
 876:/home/hkh/git/eapidk-code-r76-trunk/apps/EeePProg/linux/../EeePProg.c ****   if(!EAPI_TEST_SUCCESS(StatusCode)){ \
 877:/home/hkh/git/eapidk-code-r76-trunk/apps/EeePProg/linux/../EeePProg.c ****     EAPI_FORMATED_MES('E', main, StatusCode, #x);\
 878:/home/hkh/git/eapidk-code-r76-trunk/apps/EeePProg/linux/../EeePProg.c ****     goto ExitPoint;\
 879:/home/hkh/git/eapidk-code-r76-trunk/apps/EeePProg/linux/../EeePProg.c ****   }
 880:/home/hkh/git/eapidk-code-r76-trunk/apps/EeePProg/linux/../EeePProg.c **** 
 881:/home/hkh/git/eapidk-code-r76-trunk/apps/EeePProg/linux/../EeePProg.c **** /*
ARM GAS  /tmp/cc812cGb.s 			page 87


 882:/home/hkh/git/eapidk-code-r76-trunk/apps/EeePProg/linux/../EeePProg.c ****  * Create Block Content
 883:/home/hkh/git/eapidk-code-r76-trunk/apps/EeePProg/linux/../EeePProg.c ****  */
 884:/home/hkh/git/eapidk-code-r76-trunk/apps/EeePProg/linux/../EeePProg.c **** int 
 885:/home/hkh/git/eapidk-code-r76-trunk/apps/EeePProg/linux/../EeePProg.c **** __cdecl 
 886:/home/hkh/git/eapidk-code-r76-trunk/apps/EeePProg/linux/../EeePProg.c **** main(
 887:/home/hkh/git/eapidk-code-r76-trunk/apps/EeePProg/linux/../EeePProg.c ****     signed int argc,
 888:/home/hkh/git/eapidk-code-r76-trunk/apps/EeePProg/linux/../EeePProg.c ****     const char **argv
 889:/home/hkh/git/eapidk-code-r76-trunk/apps/EeePProg/linux/../EeePProg.c ****   )
 890:/home/hkh/git/eapidk-code-r76-trunk/apps/EeePProg/linux/../EeePProg.c **** {
 3659              		.loc 1 890 1
 3660              		.cfi_startproc
 3661              		@ args = 0, pretend = 0, frame = 16
 3662              		@ frame_needed = 1, uses_anonymous_args = 0
 3663 1cb8 10482DE9 		push	{r4, fp, lr}
 3664              		.cfi_def_cfa_offset 12
 3665              		.cfi_offset 4, -12
 3666              		.cfi_offset 11, -8
 3667              		.cfi_offset 14, -4
 3668 1cbc 08B08DE2 		add	fp, sp, #8
 3669              		.cfi_def_cfa 11, 4
 3670 1cc0 24D04DE2 		sub	sp, sp, #36
 3671 1cc4 18000BE5 		str	r0, [fp, #-24]
 3672 1cc8 1C100BE5 		str	r1, [fp, #-28]
 3673 1ccc E0419FE5 		ldr	r4, .L171
 3674              	.LPIC196:
 3675 1cd0 04408FE0 		add	r4, pc, r4
 891:/home/hkh/git/eapidk-code-r76-trunk/apps/EeePProg/linux/../EeePProg.c ****   EApiStatus_t StatusCode;
 892:/home/hkh/git/eapidk-code-r76-trunk/apps/EeePProg/linux/../EeePProg.c **** 
 893:/home/hkh/git/eapidk-code-r76-trunk/apps/EeePProg/linux/../EeePProg.c ****   DO_MAIN(EApiLibInitialize());
 3676              		.loc 1 893 3
 3677 1cd4 FEFFFFEB 		bl	EApiLibInitialize(PLT)
 3678 1cd8 10000BE5 		str	r0, [fp, #-16]
 3679 1cdc 10301BE5 		ldr	r3, [fp, #-16]
 3680 1ce0 000053E3 		cmp	r3, #0
 3681 1ce4 0F00000A 		beq	.L160
 3682              		.loc 1 893 3 is_stmt 0 discriminator 1
 3683 1ce8 C8319FE5 		ldr	r3, .L171+4
 3684              	.LPIC184:
 3685 1cec 03308FE0 		add	r3, pc, r3
 3686 1cf0 08308DE5 		str	r3, [sp, #8]
 3687 1cf4 C0319FE5 		ldr	r3, .L171+8
 3688              	.LPIC185:
 3689 1cf8 03308FE0 		add	r3, pc, r3
 3690 1cfc 04308DE5 		str	r3, [sp, #4]
 3691 1d00 10301BE5 		ldr	r3, [fp, #-16]
 3692 1d04 00308DE5 		str	r3, [sp]
 3693 1d08 7D3300E3 		movw	r3, #893
 3694 1d0c AC219FE5 		ldr	r2, .L171+12
 3695              	.LPIC186:
 3696 1d10 02208FE0 		add	r2, pc, r2
 3697 1d14 A8119FE5 		ldr	r1, .L171+16
 3698              	.LPIC187:
 3699 1d18 01108FE0 		add	r1, pc, r1
 3700 1d1c 4500A0E3 		mov	r0, #69
 3701 1d20 FEFFFFEB 		bl	siFormattedMessage_SC(PLT)
 3702 1d24 4A0000EA 		b	.L168
 3703              	.L160:
ARM GAS  /tmp/cc812cGb.s 			page 88


 894:/home/hkh/git/eapidk-code-r76-trunk/apps/EeePProg/linux/../EeePProg.c **** 
 895:/home/hkh/git/eapidk-code-r76-trunk/apps/EeePProg/linux/../EeePProg.c ****   StatusCode=ParseArgs(argc - 1, argv + 1, ArgsDesc, ARRAY_SIZE(ArgsDesc));
 3704              		.loc 1 895 14 is_stmt 1
 3705 1d28 18301BE5 		ldr	r3, [fp, #-24]
 3706 1d2c 010043E2 		sub	r0, r3, #1
 3707 1d30 1C301BE5 		ldr	r3, [fp, #-28]
 3708 1d34 041083E2 		add	r1, r3, #4
 3709 1d38 1730A0E3 		mov	r3, #23
 3710 1d3c 84219FE5 		ldr	r2, .L171+20
 3711              	.LPIC188:
 3712 1d40 02208FE0 		add	r2, pc, r2
 3713 1d44 FEFFFFEB 		bl	ParseArgs(PLT)
 3714 1d48 10000BE5 		str	r0, [fp, #-16]
 896:/home/hkh/git/eapidk-code-r76-trunk/apps/EeePProg/linux/../EeePProg.c ****   switch(StatusCode){
 3715              		.loc 1 896 3
 3716 1d4c 10301BE5 		ldr	r3, [fp, #-16]
 3717 1d50 000053E3 		cmp	r3, #0
 3718 1d54 1F00000A 		beq	.L169
 3719 1d58 10301BE5 		ldr	r3, [fp, #-16]
 3720 1d5c 012CE0E3 		mvn	r2, #256
 3721 1d60 020053E1 		cmp	r3, r2
 3722 1d64 0900001A 		bne	.L163
 897:/home/hkh/git/eapidk-code-r76-trunk/apps/EeePProg/linux/../EeePProg.c ****     case EAPI_STATUS_INVALID_PARAMETER:
 898:/home/hkh/git/eapidk-code-r76-trunk/apps/EeePProg/linux/../EeePProg.c ****       printf("%s", syntaxErrMes);
 3723              		.loc 1 898 7
 3724 1d68 5C319FE5 		ldr	r3, .L171+24
 3725              	.LPIC189:
 3726 1d6c 03308FE0 		add	r3, pc, r3
 3727 1d70 0310A0E1 		mov	r1, r3
 3728 1d74 54319FE5 		ldr	r3, .L171+28
 3729              	.LPIC190:
 3730 1d78 03308FE0 		add	r3, pc, r3
 3731 1d7c 0300A0E1 		mov	r0, r3
 3732 1d80 FEFFFFEB 		bl	printf(PLT)
