	.cpu cortex-a9
	.eabi_attribute 28, 1
	.eabi_attribute 20, 1
	.eabi_attribute 21, 1
	.eabi_attribute 23, 3
	.eabi_attribute 24, 1
	.eabi_attribute 25, 1
	.eabi_attribute 26, 2
	.eabi_attribute 30, 6
	.eabi_attribute 34, 1
	.eabi_attribute 18, 4
	.file	"Str2Value.c"
	.text
.Ltext0:
	.cfi_sections	.debug_frame
	.align	2
	.global	ReturnEnvVar
	.arch armv7-a
	.arch_extension mp
	.arch_extension sec
	.syntax unified
	.arm
	.fpu vfpv3
	.type	ReturnEnvVar, %function
ReturnEnvVar:
.LFB1:
	.file 1 "/home/hkh/git/eapidk-code-r76-trunk/apps/EeePProg/linux/../Str2Value.c"
	.loc 1 39 1
	.cfi_startproc
	@ args = 0, pretend = 0, frame = 16
	@ frame_needed = 1, uses_anonymous_args = 0
	push	{fp, lr}
	.cfi_def_cfa_offset 8
	.cfi_offset 11, -8
	.cfi_offset 14, -4
	add	fp, sp, #4
	.cfi_def_cfa 11, 4
	sub	sp, sp, #16
	str	r0, [fp, #-16]
	.loc 1 40 11
	mov	r3, #0
	str	r3, [fp, #-8]
	.loc 1 58 12
	ldr	r0, [fp, #-16]
	bl	getenv(PLT)
	str	r0, [fp, #-8]
	.loc 1 59 7
	ldr	r3, [fp, #-8]
	cmp	r3, #0
	beq	.L5
	.loc 1 60 12
	ldr	r0, [fp, #-8]
	bl	strdup(PLT)
	mov	r3, r0
	str	r3, [fp, #-8]
	b	.L3
.L5:
	.loc 1 59 22
	nop
.L3:
	.loc 1 64 12
	ldr	r3, [fp, #-8]
	.loc 1 65 1
	mov	r0, r3
	sub	sp, fp, #4
	.cfi_def_cfa 13, 8
	@ sp needed
	pop	{fp, pc}
	.cfi_endproc
.LFE1:
	.size	ReturnEnvVar, .-ReturnEnvVar
	.section	.rodata
	.align	2
.LC0:
	.ascii	"0x\000"
	.text
	.align	2
	.global	ulConvertStr2NumEx
	.syntax unified
	.arm
	.fpu vfpv3
	.type	ulConvertStr2NumEx, %function
ulConvertStr2NumEx:
.LFB2:
	.loc 1 143 3
	.cfi_startproc
	@ args = 0, pretend = 0, frame = 24
	@ frame_needed = 1, uses_anonymous_args = 0
	push	{fp, lr}
	.cfi_def_cfa_offset 8
	.cfi_offset 11, -8
	.cfi_offset 14, -4
	add	fp, sp, #4
	.cfi_def_cfa 11, 4
	sub	sp, sp, #24
	str	r0, [fp, #-24]
	str	r1, [fp, #-28]
	.loc 1 143 3
	ldr	r2, .L15
.LPIC1:
	add	r2, pc, r2
	ldr	r3, .L15+4
	ldr	r3, [r2, r3]
	ldr	r3, [r3]
	str	r3, [fp, #-8]
	mov	r3, #0
	.loc 1 144 19
	mov	r3, #0
	str	r3, [fp, #-12]
	.loc 1 147 7
	ldr	r3, [fp, #-28]
	cmp	r3, #0
	bne	.L7
	.loc 1 147 27 discriminator 1
	sub	r3, fp, #16
	str	r3, [fp, #-28]
.L7:
	.loc 1 148 15
	ldr	r0, [fp, #-24]
	bl	skipWhiteSpaces(PLT)
	str	r0, [fp, #-24]
	.loc 1 149 15
	sub	r3, fp, #20
	mov	r2, #16
	mov	r1, r3
	ldr	r0, [fp, #-24]
	bl	strtoul(PLT)
	str	r0, [fp, #-12]
	.loc 1 150 15
	sub	r3, fp, #16
	mov	r2, #2
	mov	r1, r3
	ldr	r0, [fp, #-24]
	bl	strtoul(PLT)
	str	r0, [fp, #-12]
	.loc 1 154 10
	mov	r2, #2
	ldr	r1, [fp, #-24]
	ldr	r3, .L15+8
.LPIC0:
	add	r3, pc, r3
	mov	r0, r3
	bl	memcmp(PLT)
	mov	r3, r0
	.loc 1 154 7
	cmp	r3, #0
	bne	.L8
	.loc 1 155 21
	ldr	r3, [fp, #-24]
	add	r3, r3, #2
	mov	r2, #16
	ldr	r1, [fp, #-28]
	mov	r0, r3
	bl	strtoul(PLT)
	str	r0, [fp, #-12]
	b	.L9
.L8:
	.loc 1 159 14
	ldr	r3, [fp, #-24]
	ldrb	r3, [r3]	@ zero_extendqisi2
	sub	r3, r3, #48
	.loc 1 159 13
	cmp	r3, #9
	bhi	.L10
	.loc 1 159 46 discriminator 1
	ldr	r3, [fp, #-20]
	ldrb	r3, [r3]	@ zero_extendqisi2
	.loc 1 159 38 discriminator 1
	mov	r0, r3
	bl	toupper(PLT)
	mov	r3, r0
	.loc 1 159 34 discriminator 1
	cmp	r3, #72
	bne	.L10
	.loc 1 160 21
	mov	r2, #16
	ldr	r1, [fp, #-28]
	ldr	r0, [fp, #-24]
	bl	strtoul(PLT)
	str	r0, [fp, #-12]
	.loc 1 161 12
	ldr	r3, [fp, #-28]
	ldr	r3, [r3]
	.loc 1 161 9
	add	r2, r3, #1
	ldr	r3, [fp, #-28]
	str	r2, [r3]
	b	.L9
.L10:
	.loc 1 165 14
	ldr	r3, [fp, #-24]
	ldrb	r3, [r3]	@ zero_extendqisi2
	.loc 1 165 13
	cmp	r3, #48
	beq	.L11
	.loc 1 165 14 discriminator 2
	ldr	r3, [fp, #-24]
	ldrb	r3, [r3]	@ zero_extendqisi2
	cmp	r3, #49
	bne	.L12
.L11:
	.loc 1 165 47 discriminator 3
	ldr	r3, [fp, #-16]
	ldrb	r3, [r3]	@ zero_extendqisi2
	.loc 1 165 39 discriminator 3
	mov	r0, r3
	bl	toupper(PLT)
	mov	r3, r0
	.loc 1 165 35 discriminator 3
	cmp	r3, #66
	bne	.L12
	.loc 1 166 21
	mov	r2, #2
	ldr	r1, [fp, #-28]
	ldr	r0, [fp, #-24]
	bl	strtoul(PLT)
	str	r0, [fp, #-12]
	.loc 1 167 12
	ldr	r3, [fp, #-28]
	ldr	r3, [r3]
	.loc 1 167 9
	add	r2, r3, #1
	ldr	r3, [fp, #-28]
	str	r2, [r3]
	b	.L9
.L12:
	.loc 1 172 21
	mov	r2, #10
	ldr	r1, [fp, #-28]
	ldr	r0, [fp, #-24]
	bl	strtoul(PLT)
	str	r0, [fp, #-12]
	.loc 1 173 21
	ldr	r3, [fp, #-28]
	ldr	r3, [r3]
	.loc 1 173 20
	ldrb	r3, [r3]	@ zero_extendqisi2
	.loc 1 173 12
	mov	r0, r3
	bl	toupper(PLT)
	mov	r3, r0
	.loc 1 173 11
	cmp	r3, #84
	bne	.L9
	.loc 1 173 38 discriminator 1
	ldr	r3, [fp, #-28]
	ldr	r3, [r3]
	.loc 1 173 35 discriminator 1
	add	r2, r3, #1
	ldr	r3, [fp, #-28]
	str	r2, [r3]
.L9:
	.loc 1 180 12
	ldr	r3, [fp, #-12]
	.loc 1 143 3
	ldr	r1, .L15+12
.LPIC2:
	add	r1, pc, r1
	.loc 1 181 3
	ldr	r2, .L15+4
	ldr	r2, [r1, r2]
	ldr	r1, [r2]
	ldr	r2, [fp, #-8]
	eors	r1, r2, r1
	mov	r2, #0
	beq	.L14
	bl	__stack_chk_fail(PLT)
.L14:
	mov	r0, r3
	sub	sp, fp, #4
	.cfi_def_cfa 13, 8
	@ sp needed
	pop	{fp, pc}
.L16:
	.align	2
.L15:
	.word	_GLOBAL_OFFSET_TABLE_-(.LPIC1+8)
	.word	__stack_chk_guard(GOT)
	.word	.LC0-(.LPIC0+8)
	.word	_GLOBAL_OFFSET_TABLE_-(.LPIC2+8)
	.cfi_endproc
.LFE2:
	.size	ulConvertStr2NumEx, .-ulConvertStr2NumEx
	.global	__aeabi_ldivmod
	.section	.rodata
	.align	2
.LC1:
	.ascii	"DoOperation\000"
	.align	2
.LC2:
	.ascii	"/home/hkh/git/eapidk-code-r76-trunk/apps/EeePProg/l"
	.ascii	"inux/../Str2Value.c\000"
	.align	2
.LC3:
	.ascii	"Invalid Operation\000"
	.align	2
.LC4:
	.ascii	"%s\012\000"
	.text
	.align	2
	.global	DoOperation
	.syntax unified
	.arm
	.fpu vfpv3
	.type	DoOperation, %function
DoOperation:
.LFB3:
	.loc 1 212 1
	.cfi_startproc
	@ args = 0, pretend = 0, frame = 152
	@ frame_needed = 1, uses_anonymous_args = 0
	push	{r4, r5, r6, r7, r8, r9, fp, lr}
	.cfi_def_cfa_offset 32
	.cfi_offset 4, -32
	.cfi_offset 5, -28
	.cfi_offset 6, -24
	.cfi_offset 7, -20
	.cfi_offset 8, -16
	.cfi_offset 9, -12
	.cfi_offset 11, -8
	.cfi_offset 14, -4
	add	fp, sp, #28
	.cfi_def_cfa 11, 4
	sub	sp, sp, #168
	str	r0, [fp, #-40]
	str	r1, [fp, #-44]
	strd	r2, [fp, #-52]
	.loc 1 213 16
	mov	r3, #0
	str	r3, [fp, #-32]
	.loc 1 214 3
	ldr	r3, [fp, #-40]
	cmp	r3, #21
	addls	pc, pc, r3, asl #2
	b	.L18
.L20:
	b	.L50
	b	.L40
	b	.L39
	b	.L38
	b	.L37
	b	.L36
	b	.L35
	b	.L34
	b	.L33
	b	.L32
	b	.L31
	b	.L30
	b	.L29
	b	.L28
	b	.L27
	b	.L26
	b	.L25
	b	.L24
	b	.L23
	b	.L22
	b	.L21
	b	.L19
	.p2align 1
.L38:
	.loc 1 218 18
	ldr	r3, [fp, #-44]
	ldrd	r2, [r3]
	.loc 1 218 28
	orrs	r3, r2, r3
	bne	.L43
	.loc 1 218 28 is_stmt 0 discriminator 2
	ldrd	r2, [fp, #-52]
	orrs	r3, r2, r3
	beq	.L44
.L43:
	.loc 1 218 28 discriminator 3
	mov	r3, #1
	b	.L45
.L44:
	.loc 1 218 28 discriminator 4
	mov	r3, #0
.L45:
	.loc 1 218 28 discriminator 6
	asr	r2, r3, #31
	str	r3, [fp, #-60]
	str	r2, [fp, #-56]
	.loc 1 218 17 is_stmt 1 discriminator 6
	ldr	r3, [fp, #-44]
	ldrd	r0, [fp, #-60]
	strd	r0, [r3]
	.loc 1 219 7 discriminator 6
	b	.L42
.L37:
	.loc 1 221 18
	ldr	r3, [fp, #-44]
	ldrd	r2, [r3]
	.loc 1 221 28
	orrs	r3, r2, r3
	beq	.L46
	.loc 1 221 28 is_stmt 0 discriminator 1
	ldrd	r2, [fp, #-52]
	orrs	r3, r2, r3
	beq	.L46
	.loc 1 221 28 discriminator 3
	mov	r3, #1
	b	.L47
.L46:
	.loc 1 221 28 discriminator 4
	mov	r3, #0
.L47:
	.loc 1 221 28 discriminator 6
	asr	r2, r3, #31
	str	r3, [fp, #-68]
	str	r2, [fp, #-64]
	.loc 1 221 17 is_stmt 1 discriminator 6
	ldr	r3, [fp, #-44]
	ldrd	r0, [fp, #-68]
	strd	r0, [r3]
	.loc 1 222 7 discriminator 6
	b	.L42
.L32:
	.loc 1 224 18
	ldr	r2, [fp, #-52]
	ldr	r3, [fp, #-48]
	orr	r3, r2, r3
	cmp	r3, #0
	moveq	r3, #1
	movne	r3, #0
	uxtb	r3, r3
	uxtb	r3, r3
	mov	r2, #0
	str	r3, [fp, #-76]
	str	r2, [fp, #-72]
	.loc 1 224 17
	ldr	r3, [fp, #-44]
	ldrd	r0, [fp, #-76]
	strd	r0, [r3]
	.loc 1 225 7
	b	.L42
.L36:
	.loc 1 227 18
	ldr	r3, [fp, #-44]
	ldrd	r2, [r3]
	.loc 1 227 28
	ldrd	r0, [fp, #-52]
	cmp	r0, r2
	sbcs	r3, r1, r3
	movlt	r3, #1
	movge	r3, #0
	uxtb	r3, r3
	uxtb	r3, r3
	mov	r2, #0
	str	r3, [fp, #-84]
	str	r2, [fp, #-80]
	.loc 1 227 17
	ldr	r3, [fp, #-44]
	ldrd	r0, [fp, #-84]
	strd	r0, [r3]
	.loc 1 228 7
	b	.L42
.L35:
	.loc 1 230 18
	ldr	r3, [fp, #-44]
	ldrd	r0, [r3]
	.loc 1 230 28
	ldrd	r2, [fp, #-52]
	cmp	r0, r2
	sbcs	r3, r1, r3
	movge	r3, #1
	movlt	r3, #0
	uxtb	r3, r3
	uxtb	r3, r3
	mov	r2, #0
	str	r3, [fp, #-92]
	str	r2, [fp, #-88]
	.loc 1 230 17
	ldr	r3, [fp, #-44]
	ldrd	r0, [fp, #-92]
	strd	r0, [r3]
	.loc 1 231 7
	b	.L42
.L34:
	.loc 1 233 18
	ldr	r3, [fp, #-44]
	ldrd	r0, [r3]
	.loc 1 233 28
	ldrd	r2, [fp, #-52]
	cmp	r0, r2
	sbcs	r3, r1, r3
	movlt	r3, #1
	movge	r3, #0
	uxtb	r3, r3
	uxtb	r3, r3
	mov	r2, #0
	str	r3, [fp, #-100]
	str	r2, [fp, #-96]
	.loc 1 233 17
	ldr	r3, [fp, #-44]
	ldrd	r0, [fp, #-100]
	strd	r0, [r3]
	.loc 1 234 7
	b	.L42
.L33:
	.loc 1 236 18
	ldr	r3, [fp, #-44]
	ldrd	r2, [r3]
	.loc 1 236 28
	ldrd	r0, [fp, #-52]
	cmp	r0, r2
	sbcs	r3, r1, r3
	movge	r3, #1
	movlt	r3, #0
	uxtb	r3, r3
	uxtb	r3, r3
	mov	r2, #0
	str	r3, [fp, #-108]
	str	r2, [fp, #-104]
	.loc 1 236 17
	ldr	r3, [fp, #-44]
	ldrd	r0, [fp, #-108]
	strd	r0, [r3]
	.loc 1 237 7
	b	.L42
.L31:
	.loc 1 239 17
	ldr	r3, [fp, #-44]
	ldrd	r0, [r3]
	ldrd	r2, [fp, #-52]
	and	ip, r0, r2
	str	ip, [fp, #-116]
	and	r3, r1, r3
	str	r3, [fp, #-112]
	ldr	r3, [fp, #-44]
	ldrd	r0, [fp, #-116]
	strd	r0, [r3]
	.loc 1 240 7
	b	.L42
.L29:
	.loc 1 242 17
	ldr	r3, [fp, #-44]
	ldrd	r0, [r3]
	ldrd	r2, [fp, #-52]
	eor	ip, r0, r2
	str	ip, [fp, #-124]
	eor	r3, r1, r3
	str	r3, [fp, #-120]
	ldr	r3, [fp, #-44]
	ldrd	r0, [fp, #-124]
	strd	r0, [r3]
	.loc 1 243 7
	b	.L42
.L30:
	.loc 1 245 17
	ldr	r3, [fp, #-44]
	ldrd	r0, [r3]
	ldrd	r2, [fp, #-52]
	orr	ip, r0, r2
	str	ip, [fp, #-132]
	orr	r3, r1, r3
	str	r3, [fp, #-128]
	ldr	r3, [fp, #-44]
	ldrd	r0, [fp, #-132]
	strd	r0, [r3]
	.loc 1 246 7
	b	.L42
.L22:
	.loc 1 248 18
	ldrd	r2, [fp, #-52]
	rsbs	r1, r2, #0
	str	r1, [fp, #-140]
	rsc	r3, r3, #0
	str	r3, [fp, #-136]
	.loc 1 248 17
	ldr	r3, [fp, #-44]
	ldrd	r0, [fp, #-140]
	strd	r0, [r3]
	.loc 1 249 7
	b	.L42
.L28:
	.loc 1 251 18
	ldrd	r2, [fp, #-52]
	mvn	r1, r2
	str	r1, [fp, #-148]
	mvn	r3, r3
	str	r3, [fp, #-144]
	.loc 1 251 17
	ldr	r3, [fp, #-44]
	ldrd	r0, [fp, #-148]
	strd	r0, [r3]
	.loc 1 252 7
	b	.L42
.L27:
	.loc 1 254 17
	ldr	r3, [fp, #-44]
	ldrd	r2, [r3]
	ldr	r1, [fp, #-52]
	mul	r0, r3, r1
	ldr	r1, [fp, #-48]
	mul	r1, r2, r1
	add	r1, r0, r1
	ldr	r0, [fp, #-52]
	umull	r8, r9, r0, r2
	add	r3, r1, r9
	mov	r9, r3
	ldr	r3, [fp, #-44]
	strd	r8, [r3]
	.loc 1 255 7
	b	.L42
.L26:
	.loc 1 257 17
	ldr	r3, [fp, #-44]
	ldrd	r0, [r3]
	ldrd	r2, [fp, #-52]
	bl	__aeabi_ldivmod(PLT)
	ldr	r1, [fp, #-44]
	strd	r2, [r1]
	.loc 1 258 7
	b	.L42
.L25:
	.loc 1 260 17
	ldr	r3, [fp, #-44]
	ldrd	r0, [r3]
	ldrd	r2, [fp, #-52]
	bl	__aeabi_ldivmod(PLT)
	mov	r2, r0
	mov	r3, r1
	ldr	r1, [fp, #-44]
	strd	r2, [r1]
	.loc 1 261 7
	b	.L42
.L24:
	.loc 1 263 17
	ldr	r3, [fp, #-44]
	ldrd	r0, [r3]
	ldrd	r2, [fp, #-52]
	adds	ip, r0, r2
	str	ip, [fp, #-156]
	adc	r3, r1, r3
	str	r3, [fp, #-152]
	ldr	r3, [fp, #-44]
	ldrd	r0, [fp, #-156]
	strd	r0, [r3]
	.loc 1 264 7
	b	.L42
.L23:
	.loc 1 266 17
	ldr	r3, [fp, #-44]
	ldrd	r0, [r3]
	ldrd	r2, [fp, #-52]
	subs	ip, r0, r2
	str	ip, [fp, #-164]
	sbc	r3, r1, r3
	str	r3, [fp, #-160]
	ldr	r3, [fp, #-44]
	ldrd	r0, [fp, #-164]
	strd	r0, [r3]
	.loc 1 267 7
	b	.L42
.L21:
	.loc 1 269 17
	ldr	r3, [fp, #-44]
	ldrd	r2, [r3]
	ldr	r1, [fp, #-52]
	sub	ip, r1, #32
	rsb	r0, r1, #32
	lsl	r7, r3, r1
	orr	r7, r7, r2, lsl ip
	orr	r7, r7, r2, lsr r0
	lsl	r6, r2, r1
	ldr	r3, [fp, #-44]
	strd	r6, [r3]
	.loc 1 270 7
	b	.L42
.L19:
	.loc 1 272 17
	ldr	r3, [fp, #-44]
	ldrd	r2, [r3]
	ldr	r1, [fp, #-52]
	rsb	ip, r1, #32
	subs	r0, r1, #32
	lsr	r4, r2, r1
	orr	r4, r4, r3, lsl ip
	bmi	.L48
	orr	r4, r4, r3, asr r0
.L48:
	asr	r5, r3, r1
	ldr	r3, [fp, #-44]
	strd	r4, [r3]
	.loc 1 273 7
	b	.L42
.L39:
	.loc 1 275 18
	ldr	r3, [fp, #-44]
	ldrd	r2, [r3]
	.loc 1 275 28
	ldrd	r0, [fp, #-52]
	cmp	r1, r3
	cmpeq	r0, r2
	movne	r3, #1
	moveq	r3, #0
	uxtb	r3, r3
	uxtb	r3, r3
	mov	r2, #0
	str	r3, [fp, #-172]
	str	r2, [fp, #-168]
	.loc 1 275 17
	ldr	r3, [fp, #-44]
	ldrd	r0, [fp, #-172]
	strd	r0, [r3]
	.loc 1 276 7
	b	.L42
.L40:
	.loc 1 278 18
	ldr	r3, [fp, #-44]
	ldrd	r2, [r3]
	.loc 1 278 28
	ldrd	r0, [fp, #-52]
	cmp	r1, r3
	cmpeq	r0, r2
	moveq	r3, #1
	movne	r3, #0
	uxtb	r3, r3
	uxtb	r3, r3
	mov	r2, #0
	str	r3, [fp, #-180]
	str	r2, [fp, #-176]
	.loc 1 278 17
	ldr	r3, [fp, #-44]
	ldrd	r0, [fp, #-180]
	strd	r0, [r3]
	.loc 1 279 7
	b	.L42
.L18:
	.loc 1 281 7
	ldr	r3, .L51
.LPIC3:
	add	r3, pc, r3
	str	r3, [sp, #8]
	ldr	r3, .L51+4
.LPIC4:
	add	r3, pc, r3
	str	r3, [sp, #4]
	mvn	r3, #3840
	str	r3, [sp]
	movw	r3, #281
	ldr	r2, .L51+8
.LPIC5:
	add	r2, pc, r2
	ldr	r1, .L51+12
.LPIC6:
	add	r1, pc, r1
	mov	r0, #69
	bl	siFormattedMessage_SC(PLT)
	mvn	r3, #3840
	str	r3, [fp, #-32]
	b	.L42
.L50:
	.loc 1 216 7
	nop
.L42:
	.loc 1 289 10
	ldr	r3, [fp, #-32]
	.loc 1 290 1
	mov	r0, r3
	sub	sp, fp, #28
	.cfi_def_cfa 13, 32
	@ sp needed
	pop	{r4, r5, r6, r7, r8, r9, fp, pc}
.L52:
	.align	2
.L51:
	.word	.LC3-(.LPIC3+8)
	.word	.LC4-(.LPIC4+8)
	.word	.LC1-(.LPIC5+8)
	.word	.LC2-(.LPIC6+8)
	.cfi_endproc
.LFE3:
	.size	DoOperation, .-DoOperation
	.align	2
	.global	ParserWrapper
	.syntax unified
	.arm
	.fpu vfpv3
	.type	ParserWrapper, %function
ParserWrapper:
.LFB4:
	.loc 1 307 1
	.cfi_startproc
	@ args = 0, pretend = 0, frame = 24
	@ frame_needed = 1, uses_anonymous_args = 0
	push	{fp, lr}
	.cfi_def_cfa_offset 8
	.cfi_offset 11, -8
	.cfi_offset 14, -4
	add	fp, sp, #4
	.cfi_def_cfa 11, 4
	sub	sp, sp, #24
	str	r0, [fp, #-16]
	str	r1, [fp, #-20]
	str	r2, [fp, #-24]
	str	r3, [fp, #-28]
	.loc 1 308 8
	mov	r3, #0
	strb	r3, [fp, #-9]
	.loc 1 309 16
	mov	r3, #0
	str	r3, [fp, #-8]
	.loc 1 310 5
	ldr	r3, [fp, #-24]
	cmp	r3, #0
	beq	.L54
	.loc 1 311 13
	ldr	r3, [fp, #-24]
	ldrb	r3, [r3]
	strb	r3, [fp, #-9]
	.loc 1 312 17
	ldr	r3, [fp, #-24]
	mov	r2, #0
	strb	r2, [r3]
.L54:
	.loc 1 314 22
	ldr	r3, [fp, #-16]
	ldr	r3, [r3, #4]
	.loc 1 314 41
	ldr	r2, [fp, #-16]
	add	r0, r2, #20
	.loc 1 314 14
	ldr	r2, [fp, #-28]
	ldr	r1, [fp, #-20]
	blx	r3
.LVL0:
	str	r0, [fp, #-8]
	.loc 1 315 5
	ldr	r3, [fp, #-24]
	cmp	r3, #0
	beq	.L55
	.loc 1 316 17
	ldr	r3, [fp, #-24]
	ldrb	r2, [fp, #-9]
	strb	r2, [r3]
.L55:
	.loc 1 318 10
	ldr	r3, [fp, #-8]
	.loc 1 319 1
	mov	r0, r3
	sub	sp, fp, #4
	.cfi_def_cfa 13, 8
	@ sp needed
	pop	{fp, pc}
	.cfi_endproc
.LFE4:
	.size	ParserWrapper, .-ParserWrapper
	.align	2
	.global	ParseOpcodeTokensAscii
	.syntax unified
	.arm
	.fpu vfpv3
	.type	ParseOpcodeTokensAscii, %function
ParseOpcodeTokensAscii:
.LFB5:
	.loc 1 327 1
	.cfi_startproc
	@ args = 0, pretend = 0, frame = 32
	@ frame_needed = 1, uses_anonymous_args = 0
	push	{fp, lr}
	.cfi_def_cfa_offset 8
	.cfi_offset 11, -8
	.cfi_offset 14, -4
	add	fp, sp, #4
	.cfi_def_cfa 11, 4
	sub	sp, sp, #32
	str	r0, [fp, #-24]
	str	r1, [fp, #-28]
	str	r2, [fp, #-32]
	str	r3, [fp, #-36]
	.loc 1 327 1
	ldr	r2, .L62
.LPIC7:
	add	r2, pc, r2
	ldr	r3, .L62+4
	ldr	r3, [r2, r3]
	ldr	r3, [r3]
	str	r3, [fp, #-8]
	mov	r3, #0
	.loc 1 329 9
	ldr	r3, [fp, #-28]
	ldr	r3, [r3]
	str	r3, [fp, #-16]
	.loc 1 330 16
	mov	r3, #0
	str	r3, [fp, #-12]
	.loc 1 331 9
	sub	r3, fp, #20
	mov	r2, r3
	ldr	r1, [fp, #-24]
	ldr	r0, [fp, #-16]
	bl	szFindStr(PLT)
	str	r0, [fp, #-16]
	.loc 1 332 13
	ldr	r3, [fp, #-32]
	ldr	r2, [fp, #-16]
	str	r2, [r3]
	.loc 1 333 5
	ldr	r3, [fp, #-16]
	cmp	r3, #0
	bne	.L58
	.loc 1 334 15
	ldr	r3, [fp, #-28]
	mov	r2, #0
	str	r2, [r3]
	.loc 1 335 22
	ldr	r3, [fp, #-36]
	mov	r2, #0
	str	r2, [r3]
	.loc 1 336 12
	ldr	r3, [fp, #-12]
	b	.L60
.L58:
	.loc 1 339 29
	ldr	r3, [fp, #-20]
	ldr	r3, [r3, #4]
	mov	r2, r3
	.loc 1 339 20
	ldr	r3, [fp, #-36]
	str	r2, [r3]
	.loc 1 340 35
	ldr	r3, [fp, #-20]
	ldr	r3, [r3]
	.loc 1 340 20
	mov	r0, r3
	bl	strlen(PLT)
	mov	r2, r0
	.loc 1 340 19
	ldr	r3, [fp, #-16]
	add	r2, r3, r2
	.loc 1 340 13
	ldr	r3, [fp, #-28]
	str	r2, [r3]
	.loc 1 341 11
	ldr	r3, [fp, #-12]
.L60:
	.loc 1 327 1 discriminator 1
	ldr	r1, .L62+8
.LPIC8:
	add	r1, pc, r1
	.loc 1 342 1 discriminator 1
	ldr	r2, .L62+4
	ldr	r2, [r1, r2]
	ldr	r1, [r2]
	ldr	r2, [fp, #-8]
	eors	r1, r2, r1
	mov	r2, #0
	beq	.L61
	.loc 1 342 1 is_stmt 0
	bl	__stack_chk_fail(PLT)
.L61:
	mov	r0, r3
	sub	sp, fp, #4
	.cfi_def_cfa 13, 8
	@ sp needed
	pop	{fp, pc}
.L63:
	.align	2
.L62:
	.word	_GLOBAL_OFFSET_TABLE_-(.LPIC7+8)
	.word	__stack_chk_guard(GOT)
	.word	_GLOBAL_OFFSET_TABLE_-(.LPIC8+8)
	.cfi_endproc
.LFE5:
	.size	ParseOpcodeTokensAscii, .-ParseOpcodeTokensAscii
	.section	.rodata
	.align	2
.LC5:
	.ascii	"TB \000"
	.align	2
.LC6:
	.ascii	"ParseAsciiEqu_13(pContext, szString+1, &CurValue)\000"
	.align	2
.LC7:
	.ascii	"DoOperation(Op_LogicalNot, psllValue, CurValue)\000"
	.align	2
.LC8:
	.ascii	"DoOperation(Op_BitwiseNot, psllValue, CurValue)\000"
	.align	2
.LC9:
	.ascii	"DoOperation(Op_Negate, psllValue, CurValue)\000"
	.align	2
.LC10:
	.ascii	"ParseAsciiEqu_13(pContext, szString+1, psllValue)\000"
	.align	2
.LC11:
	.ascii	"ParseAsciiEqu_13\000"
	.align	2
.LC12:
	.ascii	"^ Here\000"
	.align	2
.LC13:
	.ascii	"\000"
	.align	2
.LC14:
	.ascii	"%*s%s\012\000"
	.text
	.align	2
	.global	ParseAsciiEqu_13
	.syntax unified
	.arm
	.fpu vfpv3
	.type	ParseAsciiEqu_13, %function
ParseAsciiEqu_13:
.LFB6:
	.loc 1 351 1 is_stmt 1
	.cfi_startproc
	@ args = 0, pretend = 0, frame = 40
	@ frame_needed = 1, uses_anonymous_args = 0
	push	{r4, r5, fp, lr}
	.cfi_def_cfa_offset 16
	.cfi_offset 4, -16
	.cfi_offset 5, -12
	.cfi_offset 11, -8
	.cfi_offset 14, -4
	add	fp, sp, #12
	.cfi_def_cfa 11, 4
	sub	sp, sp, #64
	str	r0, [fp, #-40]
	str	r1, [fp, #-44]
	str	r2, [fp, #-48]
	.loc 1 351 1
	ldr	r2, .L87
.LPIC45:
	add	r2, pc, r2
	ldr	r3, .L87+4
	ldr	r3, [r2, r3]
	ldr	r3, [r3]
	str	r3, [fp, #-16]
	mov	r3, #0
	.loc 1 354 18
	mov	r3, #0
	str	r3, [fp, #-32]
	.loc 1 355 14
	ldr	r0, [fp, #-44]
	bl	skipWhiteSpaces(PLT)
	str	r0, [fp, #-44]
	.loc 1 358 12
	ldr	r3, [fp, #-44]
	ldrb	r3, [r3]	@ zero_extendqisi2
	.loc 1 358 5
	cmp	r3, #126
	beq	.L65
	cmp	r3, #126
	bgt	.L66
	cmp	r3, #45
	beq	.L67
	cmp	r3, #45
	bgt	.L66
	cmp	r3, #33
	beq	.L68
	cmp	r3, #43
	beq	.L69
	b	.L66
.L68:
	.loc 1 364 9
	ldr	r3, [fp, #-44]
	add	r3, r3, #1
	sub	r2, fp, #28
	mov	r1, r3
	ldr	r0, [fp, #-40]
	bl	ParseAsciiEqu_13(PLT)
	str	r0, [fp, #-32]
	ldr	r3, [fp, #-32]
	cmp	r3, #0
	beq	.L70
	.loc 1 364 9 is_stmt 0 discriminator 1
	ldr	r3, .L87+8
.LPIC9:
	add	r3, pc, r3
	str	r3, [sp, #8]
	ldr	r3, .L87+12
.LPIC10:
	add	r3, pc, r3
	str	r3, [sp, #4]
	ldr	r3, [fp, #-32]
	str	r3, [sp]
	mov	r3, #364
	ldr	r2, .L87+16
.LPIC11:
	add	r2, pc, r2
	ldr	r1, .L87+20
.LPIC12:
	add	r1, pc, r1
	mov	r0, #69
	bl	siFormattedMessage_SC(PLT)
	b	.L71
.L70:
	.loc 1 365 9 is_stmt 1
	ldrd	r2, [fp, #-28]
	ldr	r1, [fp, #-48]
	mov	r0, #9
	bl	DoOperation(PLT)
	str	r0, [fp, #-32]
	ldr	r3, [fp, #-32]
	cmp	r3, #0
	beq	.L82
	.loc 1 365 9 is_stmt 0 discriminator 1
	ldr	r3, .L87+24
.LPIC13:
	add	r3, pc, r3
	str	r3, [sp, #8]
	ldr	r3, .L87+28
.LPIC14:
	add	r3, pc, r3
	str	r3, [sp, #4]
	ldr	r3, [fp, #-32]
	str	r3, [sp]
	movw	r3, #365
	ldr	r2, .L87+32
.LPIC15:
	add	r2, pc, r2
	ldr	r1, .L87+36
.LPIC16:
	add	r1, pc, r1
	mov	r0, #69
	bl	siFormattedMessage_SC(PLT)
	b	.L71
.L65:
	.loc 1 372 9 is_stmt 1
	ldr	r3, [fp, #-44]
	add	r3, r3, #1
	sub	r2, fp, #28
	mov	r1, r3
	ldr	r0, [fp, #-40]
	bl	ParseAsciiEqu_13(PLT)
	str	r0, [fp, #-32]
	ldr	r3, [fp, #-32]
	cmp	r3, #0
	beq	.L73
	.loc 1 372 9 is_stmt 0 discriminator 1
	ldr	r3, .L87+40
.LPIC17:
	add	r3, pc, r3
	str	r3, [sp, #8]
	ldr	r3, .L87+44
.LPIC18:
	add	r3, pc, r3
	str	r3, [sp, #4]
	ldr	r3, [fp, #-32]
	str	r3, [sp]
	mov	r3, #372
	ldr	r2, .L87+48
.LPIC19:
	add	r2, pc, r2
	ldr	r1, .L87+52
.LPIC20:
	add	r1, pc, r1
	mov	r0, #69
	bl	siFormattedMessage_SC(PLT)
	b	.L71
.L73:
	.loc 1 373 9 is_stmt 1
	ldrd	r2, [fp, #-28]
	ldr	r1, [fp, #-48]
	mov	r0, #13
	bl	DoOperation(PLT)
	str	r0, [fp, #-32]
	ldr	r3, [fp, #-32]
	cmp	r3, #0
	beq	.L83
	.loc 1 373 9 is_stmt 0 discriminator 1
	ldr	r3, .L87+56
.LPIC21:
	add	r3, pc, r3
	str	r3, [sp, #8]
	ldr	r3, .L87+60
.LPIC22:
	add	r3, pc, r3
	str	r3, [sp, #4]
	ldr	r3, [fp, #-32]
	str	r3, [sp]
	movw	r3, #373
	ldr	r2, .L87+64
.LPIC23:
	add	r2, pc, r2
	ldr	r1, .L87+68
.LPIC24:
	add	r1, pc, r1
	mov	r0, #69
	bl	siFormattedMessage_SC(PLT)
	b	.L71
.L67:
	.loc 1 380 9 is_stmt 1
	ldr	r3, [fp, #-44]
	add	r3, r3, #1
	sub	r2, fp, #28
	mov	r1, r3
	ldr	r0, [fp, #-40]
	bl	ParseAsciiEqu_13(PLT)
	str	r0, [fp, #-32]
	ldr	r3, [fp, #-32]
	cmp	r3, #0
	beq	.L75
	.loc 1 380 9 is_stmt 0 discriminator 1
	ldr	r3, .L87+72
.LPIC25:
	add	r3, pc, r3
	str	r3, [sp, #8]
	ldr	r3, .L87+76
.LPIC26:
	add	r3, pc, r3
	str	r3, [sp, #4]
	ldr	r3, [fp, #-32]
	str	r3, [sp]
	mov	r3, #380
	ldr	r2, .L87+80
.LPIC27:
	add	r2, pc, r2
	ldr	r1, .L87+84
.LPIC28:
	add	r1, pc, r1
	mov	r0, #69
	bl	siFormattedMessage_SC(PLT)
	b	.L71
.L75:
	.loc 1 381 9 is_stmt 1
	ldrd	r2, [fp, #-28]
	ldr	r1, [fp, #-48]
	mov	r0, #19
	bl	DoOperation(PLT)
	str	r0, [fp, #-32]
	ldr	r3, [fp, #-32]
	cmp	r3, #0
	beq	.L84
	.loc 1 381 9 is_stmt 0 discriminator 1
	ldr	r3, .L87+88
.LPIC29:
	add	r3, pc, r3
	str	r3, [sp, #8]
	ldr	r3, .L87+92
.LPIC30:
	add	r3, pc, r3
	str	r3, [sp, #4]
	ldr	r3, [fp, #-32]
	str	r3, [sp]
	movw	r3, #381
	ldr	r2, .L87+96
.LPIC31:
	add	r2, pc, r2
	ldr	r1, .L87+100
.LPIC32:
	add	r1, pc, r1
	mov	r0, #69
	bl	siFormattedMessage_SC(PLT)
	b	.L71
.L69:
	.loc 1 388 9 is_stmt 1
	ldr	r3, [fp, #-44]
	add	r3, r3, #1
	ldr	r2, [fp, #-48]
	mov	r1, r3
	ldr	r0, [fp, #-40]
	bl	ParseAsciiEqu_13(PLT)
	str	r0, [fp, #-32]
	ldr	r3, [fp, #-32]
	cmp	r3, #0
	beq	.L85
	.loc 1 388 9 is_stmt 0 discriminator 1
	ldr	r3, .L87+104
.LPIC33:
	add	r3, pc, r3
	str	r3, [sp, #8]
	ldr	r3, .L87+108
.LPIC34:
	add	r3, pc, r3
	str	r3, [sp, #4]
	ldr	r3, [fp, #-32]
	str	r3, [sp]
	mov	r3, #388
	ldr	r2, .L87+112
.LPIC35:
	add	r2, pc, r2
	ldr	r1, .L87+116
.LPIC36:
	add	r1, pc, r1
	mov	r0, #69
	bl	siFormattedMessage_SC(PLT)
	b	.L71
.L66:
	.loc 1 391 20 is_stmt 1
	sub	r3, fp, #36
	mov	r1, r3
	ldr	r0, [fp, #-44]
	bl	ulConvertStr2NumEx(PLT)
	mov	r3, r0
	mov	r2, #0
	mov	r4, r3
	mov	r5, r2
	.loc 1 391 19
	ldr	r3, [fp, #-48]
	strd	r4, [r3]
	.loc 1 392 16
	ldr	r3, [fp, #-36]
	mov	r0, r3
	bl	skipWhiteSpaces(PLT)
	mov	r3, r0
	.loc 1 392 15
	str	r3, [fp, #-36]
	.loc 1 393 12
	ldr	r3, [fp, #-36]
	ldrb	r3, [r3]	@ zero_extendqisi2
	.loc 1 393 11
	cmp	r3, #0
	beq	.L86
	.loc 1 394 11
	ldr	r3, [fp, #-44]
	str	r3, [sp, #8]
	ldr	r3, .L87+120
.LPIC37:
	add	r3, pc, r3
	str	r3, [sp, #4]
	mvn	r3, #3840
	str	r3, [sp]
	movw	r3, #394
	ldr	r2, .L87+124
.LPIC38:
	add	r2, pc, r2
	ldr	r1, .L87+128
.LPIC39:
	add	r1, pc, r1
	mov	r0, #69
	bl	siFormattedMessage_SC(PLT)
	.loc 1 397 11
	ldr	r2, [fp, #-36]
	ldr	r3, [fp, #-44]
	sub	r3, r2, r3
	ldr	r2, .L87+132
.LPIC40:
	add	r2, pc, r2
	str	r2, [sp, #16]
	ldr	r2, .L87+136
.LPIC41:
	add	r2, pc, r2
	str	r2, [sp, #12]
	str	r3, [sp, #8]
	ldr	r3, .L87+140
.LPIC42:
	add	r3, pc, r3
	str	r3, [sp, #4]
	mvn	r3, #3840
	str	r3, [sp]
	movw	r3, #397
	ldr	r2, .L87+144
.LPIC43:
	add	r2, pc, r2
	ldr	r1, .L87+148
.LPIC44:
	add	r1, pc, r1
	mov	r0, #69
	bl	siFormattedMessage_SC(PLT)
	.loc 1 400 18
	mvn	r3, #3840
	b	.L80
.L82:
	.loc 1 366 9
	nop
	b	.L71
.L83:
	.loc 1 374 9
	nop
	b	.L71
.L84:
	.loc 1 382 9
	nop
	b	.L71
.L85:
	.loc 1 389 9
	nop
	b	.L71
.L86:
	.loc 1 402 9
	nop
.L71:
	.loc 1 405 12
	ldr	r3, [fp, #-32]
.L80:
	.loc 1 351 1 discriminator 1
	ldr	r1, .L87+152
.LPIC46:
	add	r1, pc, r1
	.loc 1 406 1 discriminator 1
	ldr	r2, .L87+4
	ldr	r2, [r1, r2]
	ldr	r1, [r2]
	ldr	r2, [fp, #-16]
	eors	r1, r2, r1
	mov	r2, #0
	beq	.L81
	.loc 1 406 1 is_stmt 0
	bl	__stack_chk_fail(PLT)
.L81:
	mov	r0, r3
	sub	sp, fp, #12
	.cfi_def_cfa 13, 16
	@ sp needed
	pop	{r4, r5, fp, pc}
.L88:
	.align	2
.L87:
	.word	_GLOBAL_OFFSET_TABLE_-(.LPIC45+8)
	.word	__stack_chk_guard(GOT)
	.word	.LC6-(.LPIC9+8)
	.word	.LC4-(.LPIC10+8)
	.word	.LC5-(.LPIC11+8)
	.word	.LC2-(.LPIC12+8)
	.word	.LC7-(.LPIC13+8)
	.word	.LC4-(.LPIC14+8)
	.word	.LC5-(.LPIC15+8)
	.word	.LC2-(.LPIC16+8)
	.word	.LC6-(.LPIC17+8)
	.word	.LC4-(.LPIC18+8)
	.word	.LC5-(.LPIC19+8)
	.word	.LC2-(.LPIC20+8)
	.word	.LC8-(.LPIC21+8)
	.word	.LC4-(.LPIC22+8)
	.word	.LC5-(.LPIC23+8)
	.word	.LC2-(.LPIC24+8)
	.word	.LC6-(.LPIC25+8)
	.word	.LC4-(.LPIC26+8)
	.word	.LC5-(.LPIC27+8)
	.word	.LC2-(.LPIC28+8)
	.word	.LC9-(.LPIC29+8)
	.word	.LC4-(.LPIC30+8)
	.word	.LC5-(.LPIC31+8)
	.word	.LC2-(.LPIC32+8)
	.word	.LC10-(.LPIC33+8)
	.word	.LC4-(.LPIC34+8)
	.word	.LC5-(.LPIC35+8)
	.word	.LC2-(.LPIC36+8)
	.word	.LC4-(.LPIC37+8)
	.word	.LC11-(.LPIC38+8)
	.word	.LC2-(.LPIC39+8)
	.word	.LC12-(.LPIC40+8)
	.word	.LC13-(.LPIC41+8)
	.word	.LC14-(.LPIC42+8)
	.word	.LC11-(.LPIC43+8)
	.word	.LC2-(.LPIC44+8)
	.word	_GLOBAL_OFFSET_TABLE_-(.LPIC46+8)
	.cfi_endproc
.LFE6:
	.size	ParseAsciiEqu_13, .-ParseAsciiEqu_13
	.section	.rodata
	.align	2
.LC15:
	.ascii	"pContext->pParser(pContext->pContext, &szPos2, &szO"
	.ascii	"pt, &OperationType)\000"
	.align	2
.LC16:
	.ascii	"ParserWrapper(pContext, szString, szOpt, psllValue)"
	.ascii	"\000"
	.align	2
.LC17:
	.ascii	"ParserWrapper(pContext, szPos1, szOpt, &CurValue)\000"
	.align	2
.LC18:
	.ascii	"DoOperation(LOperationType, psllValue, CurValue)\000"
	.text
	.align	2
	.global	ParseAsciiEqu_cmn
	.syntax unified
	.arm
	.fpu vfpv3
	.type	ParseAsciiEqu_cmn, %function
ParseAsciiEqu_cmn:
.LFB7:
	.loc 1 417 1 is_stmt 1
	.cfi_startproc
	@ args = 0, pretend = 0, frame = 64
	@ frame_needed = 1, uses_anonymous_args = 0
	push	{r4, fp, lr}
	.cfi_def_cfa_offset 12
	.cfi_offset 4, -12
	.cfi_offset 11, -8
	.cfi_offset 14, -4
	add	fp, sp, #8
	.cfi_def_cfa 11, 4
	sub	sp, sp, #84
	str	r0, [fp, #-64]
	str	r1, [fp, #-68]
	str	r2, [fp, #-72]
	.loc 1 417 1
	ldr	r2, .L100
.LPIC67:
	add	r2, pc, r2
	ldr	r3, .L100+4
	ldr	r3, [r2, r3]
	ldr	r3, [r3]
	str	r3, [fp, #-16]
	mov	r3, #0
	.loc 1 418 32
	ldr	r3, [fp, #-68]
	str	r3, [fp, #-52]
	.loc 1 419 10
	mov	r3, #0
	str	r3, [fp, #-48]
	.loc 1 421 16
	mov	r3, #0
	str	r3, [fp, #-44]
	.loc 1 423 8
	mov	r3, #0
	str	r3, [fp, #-56]
	.loc 1 425 14
	ldr	r3, [fp, #-64]
	ldr	r3, [r3, #8]
	.loc 1 425 5
	cmp	r3, #0
	beq	.L90
	.loc 1 426 5
	ldr	r3, [fp, #-64]
	ldr	r4, [r3, #8]
	ldr	r3, [fp, #-64]
	ldr	r0, [r3, #12]
	sub	r3, fp, #48
	sub	r2, fp, #56
	sub	r1, fp, #52
	blx	r4
.LVL1:
	str	r0, [fp, #-44]
	ldr	r3, [fp, #-44]
	cmp	r3, #0
	beq	.L90
	.loc 1 426 5 is_stmt 0 discriminator 1
	ldr	r3, .L100+8
.LPIC47:
	add	r3, pc, r3
	str	r3, [sp, #8]
	ldr	r3, .L100+12
.LPIC48:
	add	r3, pc, r3
	str	r3, [sp, #4]
	ldr	r3, [fp, #-44]
	str	r3, [sp]
	movw	r3, #426
	ldr	r2, .L100+16
.LPIC49:
	add	r2, pc, r2
	ldr	r1, .L100+20
.LPIC50:
	add	r1, pc, r1
	mov	r0, #69
	bl	siFormattedMessage_SC(PLT)
	b	.L91
.L90:
	.loc 1 428 11 is_stmt 1
	ldr	r3, [fp, #-56]
	.loc 1 428 5
	cmp	r3, #0
	beq	.L92
	.loc 1 433 5
	ldr	r2, [fp, #-56]
	ldr	r3, [fp, #-72]
	ldr	r1, [fp, #-68]
	ldr	r0, [fp, #-64]
	bl	ParserWrapper(PLT)
	str	r0, [fp, #-44]
	ldr	r3, [fp, #-44]
	cmp	r3, #0
	beq	.L93
	.loc 1 433 5 is_stmt 0 discriminator 1
	ldr	r3, .L100+24
.LPIC51:
	add	r3, pc, r3
	str	r3, [sp, #8]
	ldr	r3, .L100+28
.LPIC52:
	add	r3, pc, r3
	str	r3, [sp, #4]
	ldr	r3, [fp, #-44]
	str	r3, [sp]
	movw	r3, #433
	ldr	r2, .L100+32
.LPIC53:
	add	r2, pc, r2
	ldr	r1, .L100+36
.LPIC54:
	add	r1, pc, r1
	mov	r0, #69
	bl	siFormattedMessage_SC(PLT)
	b	.L91
.L93:
	.loc 1 436 21 is_stmt 1
	ldr	r3, [fp, #-48]
	str	r3, [fp, #-40]
	.loc 1 437 14
	ldr	r3, [fp, #-52]
	mov	r0, r3
	bl	skipWhiteSpaces(PLT)
	str	r0, [fp, #-36]
.L95:
	.loc 1 439 16
	ldr	r3, [fp, #-52]
	mov	r0, r3
	bl	skipWhiteSpaces(PLT)
	str	r0, [fp, #-32]
	.loc 1 440 9
	ldr	r3, [fp, #-64]
	ldr	r4, [r3, #8]
	ldr	r3, [fp, #-64]
	ldr	r0, [r3, #12]
	sub	r3, fp, #48
	sub	r2, fp, #56
	sub	r1, fp, #52
	blx	r4
.LVL2:
	str	r0, [fp, #-44]
	ldr	r3, [fp, #-44]
	cmp	r3, #0
	beq	.L94
	.loc 1 440 9 is_stmt 0 discriminator 1
	ldr	r3, .L100+40
.LPIC55:
	add	r3, pc, r3
	str	r3, [sp, #8]
	ldr	r3, .L100+44
.LPIC56:
	add	r3, pc, r3
	str	r3, [sp, #4]
	ldr	r3, [fp, #-44]
	str	r3, [sp]
	mov	r3, #440
	ldr	r2, .L100+48
.LPIC57:
	add	r2, pc, r2
	ldr	r1, .L100+52
.LPIC58:
	add	r1, pc, r1
	mov	r0, #69
	bl	siFormattedMessage_SC(PLT)
	b	.L91
.L94:
	.loc 1 441 20 is_stmt 1
	ldr	r3, [fp, #-56]
	ldr	r2, [fp, #-32]
	cmp	r2, r3
	beq	.L95
	.loc 1 443 7
	ldr	r2, [fp, #-56]
	sub	r3, fp, #28
	ldr	r1, [fp, #-36]
	ldr	r0, [fp, #-64]
	bl	ParserWrapper(PLT)
	str	r0, [fp, #-44]
	ldr	r3, [fp, #-44]
	cmp	r3, #0
	beq	.L96
	.loc 1 443 7 is_stmt 0 discriminator 1
	ldr	r3, .L100+56
.LPIC59:
	add	r3, pc, r3
	str	r3, [sp, #8]
	ldr	r3, .L100+60
.LPIC60:
	add	r3, pc, r3
	str	r3, [sp, #4]
	ldr	r3, [fp, #-44]
	str	r3, [sp]
	movw	r3, #443
	ldr	r2, .L100+64
.LPIC61:
	add	r2, pc, r2
	ldr	r1, .L100+68
.LPIC62:
	add	r1, pc, r1
	mov	r0, #69
	bl	siFormattedMessage_SC(PLT)
	b	.L91
.L96:
	.loc 1 445 7 is_stmt 1
	ldr	r0, [fp, #-40]
	ldrd	r2, [fp, #-28]
	ldr	r1, [fp, #-72]
	bl	DoOperation(PLT)
	str	r0, [fp, #-44]
	ldr	r3, [fp, #-44]
	cmp	r3, #0
	beq	.L97
	.loc 1 445 7 is_stmt 0 discriminator 1
	ldr	r3, .L100+72
.LPIC63:
	add	r3, pc, r3
	str	r3, [sp, #8]
	ldr	r3, .L100+76
.LPIC64:
	add	r3, pc, r3
	str	r3, [sp, #4]
	ldr	r3, [fp, #-44]
	str	r3, [sp]
	movw	r3, #445
	ldr	r2, .L100+80
.LPIC65:
	add	r2, pc, r2
	ldr	r1, .L100+84
.LPIC66:
	add	r1, pc, r1
	mov	r0, #69
	bl	siFormattedMessage_SC(PLT)
	b	.L91
.L97:
	.loc 1 446 17 is_stmt 1
	ldr	r3, [fp, #-56]
	cmp	r3, #0
	bne	.L93
	b	.L91
.L92:
	.loc 1 448 24
	ldr	r3, [fp, #-64]
	ldr	r3, [r3, #4]
	.loc 1 448 43
	ldr	r2, [fp, #-64]
	add	r0, r2, #20
	.loc 1 448 16
	ldr	r2, [fp, #-72]
	ldr	r1, [fp, #-68]
	blx	r3
.LVL3:
	str	r0, [fp, #-44]
.L91:
	.loc 1 451 10
	ldr	r3, [fp, #-44]
	.loc 1 417 1
	ldr	r1, .L100+88
.LPIC68:
	add	r1, pc, r1
	.loc 1 452 1
	ldr	r2, .L100+4
	ldr	r2, [r1, r2]
	ldr	r1, [r2]
	ldr	r2, [fp, #-16]
	eors	r1, r2, r1
	mov	r2, #0
	beq	.L99
	bl	__stack_chk_fail(PLT)
.L99:
	mov	r0, r3
	sub	sp, fp, #8
	.cfi_def_cfa 13, 12
	@ sp needed
	pop	{r4, fp, pc}
.L101:
	.align	2
.L100:
	.word	_GLOBAL_OFFSET_TABLE_-(.LPIC67+8)
	.word	__stack_chk_guard(GOT)
	.word	.LC15-(.LPIC47+8)
	.word	.LC4-(.LPIC48+8)
	.word	.LC5-(.LPIC49+8)
	.word	.LC2-(.LPIC50+8)
	.word	.LC16-(.LPIC51+8)
	.word	.LC4-(.LPIC52+8)
	.word	.LC5-(.LPIC53+8)
	.word	.LC2-(.LPIC54+8)
	.word	.LC15-(.LPIC55+8)
	.word	.LC4-(.LPIC56+8)
	.word	.LC5-(.LPIC57+8)
	.word	.LC2-(.LPIC58+8)
	.word	.LC17-(.LPIC59+8)
	.word	.LC4-(.LPIC60+8)
	.word	.LC5-(.LPIC61+8)
	.word	.LC2-(.LPIC62+8)
	.word	.LC18-(.LPIC63+8)
	.word	.LC4-(.LPIC64+8)
	.word	.LC5-(.LPIC65+8)
	.word	.LC2-(.LPIC66+8)
	.word	_GLOBAL_OFFSET_TABLE_-(.LPIC68+8)
	.cfi_endproc
.LFE7:
	.size	ParseAsciiEqu_cmn, .-ParseAsciiEqu_cmn
	.global	cMultDiv
	.section	.rodata
	.align	2
.LC19:
	.ascii	"*\000"
	.align	2
.LC20:
	.ascii	"%\000"
	.align	2
.LC21:
	.ascii	"/\000"
	.section	.data.rel.ro.local,"aw"
	.align	2
	.type	cMultDiv, %object
	.size	cMultDiv, 24
cMultDiv:
	.word	.LC19
	.word	14
	.word	.LC20
	.word	15
	.word	.LC21
	.word	16
	.global	cMultDiv_desc
	.section	.data.rel.local,"aw"
	.align	2
	.type	cMultDiv_desc, %object
	.size	cMultDiv_desc, 8
cMultDiv_desc:
	.word	3
	.word	cMultDiv
	.global	cAddSub
	.section	.rodata
	.align	2
.LC22:
	.ascii	"+\000"
	.align	2
.LC23:
	.ascii	"-\000"
	.section	.data.rel.ro.local
	.align	2
	.type	cAddSub, %object
	.size	cAddSub, 16
cAddSub:
	.word	.LC22
	.word	17
	.word	.LC23
	.word	18
	.global	cAddSub_desc
	.section	.data.rel.local
	.align	2
	.type	cAddSub_desc, %object
	.size	cAddSub_desc, 8
cAddSub_desc:
	.word	2
	.word	cAddSub
	.global	cBitShift
	.section	.rodata
	.align	2
.LC24:
	.ascii	"<<\000"
	.align	2
.LC25:
	.ascii	">>\000"
	.section	.data.rel.ro.local
	.align	2
	.type	cBitShift, %object
	.size	cBitShift, 16
cBitShift:
	.word	.LC24
	.word	20
	.word	.LC25
	.word	21
	.global	cBitShift_desc
	.section	.data.rel.local
	.align	2
	.type	cBitShift_desc, %object
	.size	cBitShift_desc, 8
cBitShift_desc:
	.word	2
	.word	cBitShift
	.section	.rodata
	.align	2
.LC26:
	.ascii	"<>\000"
	.text
	.align	2
	.global	ParseAscii_8
	.syntax unified
	.arm
	.fpu vfpv3
	.type	ParseAscii_8, %function
ParseAscii_8:
.LFB8:
	.loc 1 480 1
	.cfi_startproc
	@ args = 0, pretend = 0, frame = 32
	@ frame_needed = 1, uses_anonymous_args = 0
	push	{fp, lr}
	.cfi_def_cfa_offset 8
	.cfi_offset 11, -8
	.cfi_offset 14, -4
	add	fp, sp, #4
	.cfi_def_cfa 11, 4
	sub	sp, sp, #32
	str	r0, [fp, #-24]
	str	r1, [fp, #-28]
	str	r2, [fp, #-32]
	str	r3, [fp, #-36]
	.loc 1 480 1
	ldr	r2, .L121
.LPIC70:
	add	r2, pc, r2
	ldr	r3, .L121+4
	ldr	r3, [r2, r3]
	ldr	r3, [r3]
	str	r3, [fp, #-8]
	mov	r3, #0
	.loc 1 481 16
	mov	r3, #0
	str	r3, [fp, #-16]
	.loc 1 482 9
	ldr	r3, [fp, #-28]
	ldr	r3, [r3]
	str	r3, [fp, #-20]
	.loc 1 483 8
	ldr	r2, .L121+8
.LPIC69:
	add	r2, pc, r2
	sub	r3, fp, #12
	ldr	r2, [r2]
	strh	r2, [r3]	@ movhi
	add	r3, r3, #2
	lsr	r2, r2, #16
	strb	r2, [r3]
	.loc 1 485 8
	b	.L103
.L107:
	.loc 1 486 15
	ldr	r3, [fp, #-20]
	add	r3, r3, #1
	ldrb	r3, [r3]	@ zero_extendqisi2
	.loc 1 486 7
	cmp	r3, #60
	beq	.L104
	.loc 1 486 33 discriminator 2
	ldr	r3, [fp, #-20]
	add	r3, r3, #1
	ldrb	r3, [r3]	@ zero_extendqisi2
	.loc 1 486 24 discriminator 2
	cmp	r3, #62
	bne	.L119
.L104:
	.loc 1 487 13 discriminator 3
	ldr	r3, [fp, #-20]
	add	r3, r3, #2
	str	r3, [fp, #-20]
	.loc 1 488 7 discriminator 3
	nop
.L103:
	.loc 1 485 17
	sub	r3, fp, #12
	mov	r1, r3
	ldr	r0, [fp, #-20]
	bl	strpbrk(PLT)
	str	r0, [fp, #-20]
	.loc 1 485 39
	ldr	r3, [fp, #-20]
	cmp	r3, #0
	bne	.L107
	b	.L106
.L119:
	.loc 1 490 5
	nop
.L106:
	.loc 1 493 13
	ldr	r3, [fp, #-32]
	ldr	r2, [fp, #-20]
	str	r2, [r3]
	.loc 1 494 5
	ldr	r3, [fp, #-20]
	cmp	r3, #0
	bne	.L108
	.loc 1 495 15
	ldr	r3, [fp, #-28]
	mov	r2, #0
	str	r2, [r3]
	.loc 1 496 22
	ldr	r3, [fp, #-36]
	mov	r2, #0
	str	r2, [r3]
	.loc 1 497 12
	ldr	r3, [fp, #-16]
	b	.L117
.L108:
	.loc 1 499 17
	ldr	r3, [fp, #-20]
	add	r2, r3, #1
	str	r2, [fp, #-20]
	.loc 1 499 10
	ldrb	r3, [r3]	@ zero_extendqisi2
	.loc 1 499 3
	cmp	r3, #60
	beq	.L110
	cmp	r3, #62
	beq	.L111
	b	.L112
.L110:
	.loc 1 501 10
	ldr	r3, [fp, #-20]
	ldrb	r3, [r3]	@ zero_extendqisi2
	.loc 1 501 9
	cmp	r3, #61
	bne	.L113
	.loc 1 502 26
	ldr	r3, [fp, #-36]
	mov	r2, #8
	str	r2, [r3]
	.loc 1 503 15
	ldr	r3, [fp, #-20]
	add	r3, r3, #1
	str	r3, [fp, #-20]
	.loc 1 507 7
	b	.L112
.L113:
	.loc 1 505 26
	ldr	r3, [fp, #-36]
	mov	r2, #7
	str	r2, [r3]
	.loc 1 507 7
	b	.L112
.L111:
	.loc 1 509 10
	ldr	r3, [fp, #-20]
	ldrb	r3, [r3]	@ zero_extendqisi2
	.loc 1 509 9
	cmp	r3, #61
	bne	.L115
	.loc 1 510 26
	ldr	r3, [fp, #-36]
	mov	r2, #6
	str	r2, [r3]
	.loc 1 511 15
	ldr	r3, [fp, #-20]
	add	r3, r3, #1
	str	r3, [fp, #-20]
	.loc 1 515 7
	b	.L120
.L115:
	.loc 1 513 26
	ldr	r3, [fp, #-36]
	mov	r2, #5
	str	r2, [r3]
.L120:
	.loc 1 515 7
	nop
.L112:
	.loc 1 518 13
	ldr	r3, [fp, #-28]
	ldr	r2, [fp, #-20]
	str	r2, [r3]
	.loc 1 519 10
	ldr	r3, [fp, #-16]
.L117:
	.loc 1 480 1 discriminator 1
	ldr	r1, .L121+12
.LPIC71:
	add	r1, pc, r1
	.loc 1 520 1 discriminator 1
	ldr	r2, .L121+4
	ldr	r2, [r1, r2]
	ldr	r1, [r2]
	ldr	r2, [fp, #-8]
	eors	r1, r2, r1
	mov	r2, #0
	beq	.L118
	.loc 1 520 1 is_stmt 0
	bl	__stack_chk_fail(PLT)
.L118:
	mov	r0, r3
	sub	sp, fp, #4
	.cfi_def_cfa 13, 8
	@ sp needed
	pop	{fp, pc}
.L122:
	.align	2
.L121:
	.word	_GLOBAL_OFFSET_TABLE_-(.LPIC70+8)
	.word	__stack_chk_guard(GOT)
	.word	.LC26-(.LPIC69+8)
	.word	_GLOBAL_OFFSET_TABLE_-(.LPIC71+8)
	.cfi_endproc
.LFE8:
	.size	ParseAscii_8, .-ParseAscii_8
	.global	cCompare
	.section	.rodata
	.align	2
.LC27:
	.ascii	"==\000"
	.align	2
.LC28:
	.ascii	"!=\000"
	.section	.data.rel.ro.local
	.align	2
	.type	cCompare, %object
	.size	cCompare, 16
cCompare:
	.word	.LC27
	.word	1
	.word	.LC28
	.word	2
	.global	cCompare_desc
	.section	.data.rel.local
	.align	2
	.type	cCompare_desc, %object
	.size	cCompare_desc, 8
cCompare_desc:
	.word	2
	.word	cCompare
	.global	cBitwiseAnd
	.section	.rodata
	.align	2
.LC29:
	.ascii	"&\000"
	.section	.data.rel.ro.local
	.align	2
	.type	cBitwiseAnd, %object
	.size	cBitwiseAnd, 8
cBitwiseAnd:
	.word	.LC29
	.word	10
	.global	cBitwiseAnd_desc
	.section	.data.rel.local
	.align	2
	.type	cBitwiseAnd_desc, %object
	.size	cBitwiseAnd_desc, 8
cBitwiseAnd_desc:
	.word	1
	.word	cBitwiseAnd
	.global	cBitwiseXor
	.section	.rodata
	.align	2
.LC30:
	.ascii	"^\000"
	.section	.data.rel.ro.local
	.align	2
	.type	cBitwiseXor, %object
	.size	cBitwiseXor, 8
cBitwiseXor:
	.word	.LC30
	.word	12
	.global	cBitwiseXor_desc
	.section	.data.rel.local
	.align	2
	.type	cBitwiseXor_desc, %object
	.size	cBitwiseXor_desc, 8
cBitwiseXor_desc:
	.word	1
	.word	cBitwiseXor
	.global	cBitwiseOr
	.section	.rodata
	.align	2
.LC31:
	.ascii	"|\000"
	.section	.data.rel.ro.local
	.align	2
	.type	cBitwiseOr, %object
	.size	cBitwiseOr, 8
cBitwiseOr:
	.word	.LC31
	.word	11
	.global	cBitwiseOr_desc
	.section	.data.rel.local
	.align	2
	.type	cBitwiseOr_desc, %object
	.size	cBitwiseOr_desc, 8
cBitwiseOr_desc:
	.word	1
	.word	cBitwiseOr
	.global	cLogicalAnd
	.section	.rodata
	.align	2
.LC32:
	.ascii	"&&\000"
	.section	.data.rel.ro.local
	.align	2
	.type	cLogicalAnd, %object
	.size	cLogicalAnd, 8
cLogicalAnd:
	.word	.LC32
	.word	4
	.global	cLogicalAnd_desc
	.section	.data.rel.local
	.align	2
	.type	cLogicalAnd_desc, %object
	.size	cLogicalAnd_desc, 8
cLogicalAnd_desc:
	.word	1
	.word	cLogicalAnd
	.global	cLogicalOr
	.section	.rodata
	.align	2
.LC33:
	.ascii	"||\000"
	.section	.data.rel.ro.local
	.align	2
	.type	cLogicalOr, %object
	.size	cLogicalOr, 8
cLogicalOr:
	.word	.LC33
	.word	3
	.global	cLogicalOr_desc
	.section	.data.rel.local
	.align	2
	.type	cLogicalOr_desc, %object
	.size	cLogicalOr_desc, 8
cLogicalOr_desc:
	.word	1
	.word	cLogicalOr
	.section	.rodata
	.align	2
.LC34:
	.ascii	"ParserWrapper(pContext, szString, szCondition , &Co"
	.ascii	"ndition)\000"
	.align	2
.LC35:
	.ascii	"ParseAsciiEqu_2\000"
	.align	2
.LC36:
	.ascii	"Missing Right ':'\000"
	.align	2
.LC37:
	.ascii	"ParserWrapper(pContext, szCondition+1 , szSelBracke"
	.ascii	"t, psllValue)\000"
	.align	2
.LC38:
	.ascii	"ParserWrapper(pContext - 1, szSelBracket+1, NULL, p"
	.ascii	"sllValue)\000"
	.text
	.align	2
	.global	ParseAsciiEqu_2
	.syntax unified
	.arm
	.fpu vfpv3
	.type	ParseAsciiEqu_2, %function
ParseAsciiEqu_2:
.LFB9:
	.loc 1 561 1 is_stmt 1
	.cfi_startproc
	@ args = 0, pretend = 0, frame = 48
	@ frame_needed = 1, uses_anonymous_args = 0
	push	{fp, lr}
	.cfi_def_cfa_offset 8
	.cfi_offset 11, -8
	.cfi_offset 14, -4
	add	fp, sp, #4
	.cfi_def_cfa 11, 4
	sub	sp, sp, #64
	str	r0, [fp, #-40]
	str	r1, [fp, #-44]
	str	r2, [fp, #-48]
	.loc 1 561 1
	ldr	r2, .L131
.LPIC88:
	add	r2, pc, r2
	ldr	r3, .L131+4
	ldr	r3, [r2, r3]
	ldr	r3, [r3]
	str	r3, [fp, #-8]
	mov	r3, #0
	.loc 1 564 20
	mov	r2, #0
	mov	r3, #0
	strd	r2, [fp, #-20]
	.loc 1 565 16
	mov	r3, #0
	str	r3, [fp, #-32]
	.loc 1 566 15
	mov	r1, #63
	ldr	r0, [fp, #-44]
	bl	strchr(PLT)
	str	r0, [fp, #-28]
	.loc 1 567 5
	ldr	r3, [fp, #-28]
	cmp	r3, #0
	beq	.L124
	.loc 1 572 5
	sub	r3, fp, #20
	ldr	r2, [fp, #-28]
	ldr	r1, [fp, #-44]
	ldr	r0, [fp, #-40]
	bl	ParserWrapper(PLT)
	str	r0, [fp, #-32]
	ldr	r3, [fp, #-32]
	cmp	r3, #0
	beq	.L125
	.loc 1 572 5 is_stmt 0 discriminator 1
	ldr	r3, .L131+8
.LPIC72:
	add	r3, pc, r3
	str	r3, [sp, #8]
	ldr	r3, .L131+12
.LPIC73:
	add	r3, pc, r3
	str	r3, [sp, #4]
	ldr	r3, [fp, #-32]
	str	r3, [sp]
	mov	r3, #572
	ldr	r2, .L131+16
.LPIC74:
	add	r2, pc, r2
	ldr	r1, .L131+20
.LPIC75:
	add	r1, pc, r1
	mov	r0, #69
	bl	siFormattedMessage_SC(PLT)
	b	.L126
.L125:
	.loc 1 573 18 is_stmt 1
	mov	r1, #58
	ldr	r0, [fp, #-28]
	bl	strchr(PLT)
	str	r0, [fp, #-24]
	.loc 1 574 7
	ldr	r3, [fp, #-24]
	cmp	r3, #0
	bne	.L127
	.loc 1 575 7
	ldr	r3, .L131+24
.LPIC76:
	add	r3, pc, r3
	str	r3, [sp, #8]
	ldr	r3, .L131+28
.LPIC77:
	add	r3, pc, r3
	str	r3, [sp, #4]
	mvn	r3, #3840
	str	r3, [sp]
	movw	r3, #575
	ldr	r2, .L131+32
.LPIC78:
	add	r2, pc, r2
	ldr	r1, .L131+36
.LPIC79:
	add	r1, pc, r1
	mov	r0, #69
	bl	siFormattedMessage_SC(PLT)
	mvn	r3, #3840
	str	r3, [fp, #-32]
	b	.L126
.L127:
	.loc 1 582 8
	ldrd	r2, [fp, #-20]
	.loc 1 582 7
	orrs	r3, r2, r3
	beq	.L128
	.loc 1 583 7
	ldr	r3, [fp, #-28]
	add	r1, r3, #1
	ldr	r3, [fp, #-48]
	ldr	r2, [fp, #-24]
	ldr	r0, [fp, #-40]
	bl	ParserWrapper(PLT)
	str	r0, [fp, #-32]
	ldr	r3, [fp, #-32]
	cmp	r3, #0
	beq	.L126
	.loc 1 583 7 is_stmt 0 discriminator 1
	ldr	r3, .L131+40
.LPIC80:
	add	r3, pc, r3
	str	r3, [sp, #8]
	ldr	r3, .L131+44
.LPIC81:
	add	r3, pc, r3
	str	r3, [sp, #4]
	ldr	r3, [fp, #-32]
	str	r3, [sp]
	movw	r3, #583
	ldr	r2, .L131+48
.LPIC82:
	add	r2, pc, r2
	ldr	r1, .L131+52
.LPIC83:
	add	r1, pc, r1
	mov	r0, #69
	bl	siFormattedMessage_SC(PLT)
	b	.L126
.L128:
	.loc 1 585 7 is_stmt 1
	ldr	r3, [fp, #-40]
	sub	r0, r3, #20
	ldr	r3, [fp, #-24]
	add	r1, r3, #1
	ldr	r3, [fp, #-48]
	mov	r2, #0
	bl	ParserWrapper(PLT)
	str	r0, [fp, #-32]
	ldr	r3, [fp, #-32]
	cmp	r3, #0
	beq	.L126
	.loc 1 585 7 is_stmt 0 discriminator 1
	ldr	r3, .L131+56
.LPIC84:
	add	r3, pc, r3
	str	r3, [sp, #8]
	ldr	r3, .L131+60
.LPIC85:
	add	r3, pc, r3
	str	r3, [sp, #4]
	ldr	r3, [fp, #-32]
	str	r3, [sp]
	movw	r3, #585
	ldr	r2, .L131+64
.LPIC86:
	add	r2, pc, r2
	ldr	r1, .L131+68
.LPIC87:
	add	r1, pc, r1
	mov	r0, #69
	bl	siFormattedMessage_SC(PLT)
	b	.L126
.L124:
	.loc 1 588 24 is_stmt 1
	ldr	r3, [fp, #-40]
	ldr	r3, [r3, #4]
	.loc 1 588 43
	ldr	r2, [fp, #-40]
	add	r0, r2, #20
	.loc 1 588 16
	ldr	r2, [fp, #-48]
	ldr	r1, [fp, #-44]
	blx	r3
.LVL4:
	str	r0, [fp, #-32]
.L126:
	.loc 1 591 10
	ldr	r3, [fp, #-32]
	.loc 1 561 1
	ldr	r1, .L131+72
.LPIC89:
	add	r1, pc, r1
	.loc 1 592 1
	ldr	r2, .L131+4
	ldr	r2, [r1, r2]
	ldr	r1, [r2]
	ldr	r2, [fp, #-8]
	eors	r1, r2, r1
	mov	r2, #0
	beq	.L130
	bl	__stack_chk_fail(PLT)
.L130:
	mov	r0, r3
	sub	sp, fp, #4
	.cfi_def_cfa 13, 8
	@ sp needed
	pop	{fp, pc}
.L132:
	.align	2
.L131:
	.word	_GLOBAL_OFFSET_TABLE_-(.LPIC88+8)
	.word	__stack_chk_guard(GOT)
	.word	.LC34-(.LPIC72+8)
	.word	.LC4-(.LPIC73+8)
	.word	.LC5-(.LPIC74+8)
	.word	.LC2-(.LPIC75+8)
	.word	.LC36-(.LPIC76+8)
	.word	.LC4-(.LPIC77+8)
	.word	.LC35-(.LPIC78+8)
	.word	.LC2-(.LPIC79+8)
	.word	.LC37-(.LPIC80+8)
	.word	.LC4-(.LPIC81+8)
	.word	.LC5-(.LPIC82+8)
	.word	.LC2-(.LPIC83+8)
	.word	.LC38-(.LPIC84+8)
	.word	.LC4-(.LPIC85+8)
	.word	.LC5-(.LPIC86+8)
	.word	.LC2-(.LPIC87+8)
	.word	_GLOBAL_OFFSET_TABLE_-(.LPIC89+8)
	.cfi_endproc
.LFE9:
	.size	ParseAsciiEqu_2, .-ParseAsciiEqu_2
	.global	cAS
	.section	.rodata
	.align	2
.LC39:
	.ascii	"ParseAsciiEqu_1\000"
	.align	2
.LC40:
	.ascii	"()\000"
	.align	2
.LC41:
	.ascii	"cond?Vara:Varb\000"
	.align	2
.LC42:
	.ascii	"ParseAsciiEqu_3\000"
	.align	2
.LC43:
	.ascii	"ParseAsciiEqu_4\000"
	.align	2
.LC44:
	.ascii	"ParseAsciiEqu_5\000"
	.align	2
.LC45:
	.ascii	"ParseAsciiEqu_6\000"
	.align	2
.LC46:
	.ascii	"ParseAsciiEqu_7\000"
	.align	2
.LC47:
	.ascii	"ParseAsciiEqu_8\000"
	.align	2
.LC48:
	.ascii	"==,!=\000"
	.align	2
.LC49:
	.ascii	"ParseAsciiEqu_9\000"
	.align	2
.LC50:
	.ascii	">,>=,<,<=\000"
	.align	2
.LC51:
	.ascii	"ParseAsciiEqu_10\000"
	.align	2
.LC52:
	.ascii	"<<,>>\000"
	.align	2
.LC53:
	.ascii	"ParseAsciiEqu_11\000"
	.align	2
.LC54:
	.ascii	"+,-\000"
	.align	2
.LC55:
	.ascii	"ParseAsciiEqu_12\000"
	.align	2
.LC56:
	.ascii	"*,/,%\000"
	.section	.data.rel.local
	.align	2
	.type	cAS, %object
	.size	cAS, 240
cAS:
	.word	.LC39
	.word	ParseAsciiEqu_2
	.word	0
	.word	0
	.word	.LC40
	.word	.LC35
	.word	ParseAsciiEqu_cmn
	.word	0
	.word	0
	.word	.LC41
	.word	.LC42
	.word	ParseAsciiEqu_cmn
	.word	ParseOpcodeTokensAscii
	.word	cLogicalOr_desc
	.word	.LC33
	.word	.LC43
	.word	ParseAsciiEqu_cmn
	.word	ParseOpcodeTokensAscii
	.word	cLogicalAnd_desc
	.word	.LC32
	.word	.LC44
	.word	ParseAsciiEqu_cmn
	.word	ParseOpcodeTokensAscii
	.word	cBitwiseOr_desc
	.word	.LC31
	.word	.LC45
	.word	ParseAsciiEqu_cmn
	.word	ParseOpcodeTokensAscii
	.word	cBitwiseXor_desc
	.word	.LC30
	.word	.LC46
	.word	ParseAsciiEqu_cmn
	.word	ParseOpcodeTokensAscii
	.word	cBitwiseAnd_desc
	.word	.LC29
	.word	.LC47
	.word	ParseAsciiEqu_cmn
	.word	ParseOpcodeTokensAscii
	.word	cCompare_desc
	.word	.LC48
	.word	.LC49
	.word	ParseAsciiEqu_cmn
	.word	ParseAscii_8
	.word	0
	.word	.LC50
	.word	.LC51
	.word	ParseAsciiEqu_cmn
	.word	ParseOpcodeTokensAscii
	.word	cBitShift_desc
	.word	.LC52
	.word	.LC53
	.word	ParseAsciiEqu_cmn
	.word	ParseOpcodeTokensAscii
	.word	cAddSub_desc
	.word	.LC54
	.word	.LC55
	.word	ParseAsciiEqu_13
	.word	ParseOpcodeTokensAscii
	.word	cMultDiv_desc
	.word	.LC56
	.section	.rodata
	.align	2
.LC57:
	.ascii	"ParseAsciiEqu_cmn(cAS, szStartBracket+1, &CurValue)"
	.ascii	"\000"
	.align	2
.LC58:
	.ascii	"%lld\000"
	.align	2
.LC59:
	.ascii	"ReplaceSubStr(pStrDesc, szStartBracket - pStrDesc->"
	.ascii	"szStr, szEndBracket+1 - pStrDesc->szStr, szValue)\000"
	.align	2
.LC60:
	.ascii	"Missing Right ')'\000"
	.text
	.align	2
	.global	ParseAsciiEqu_1
	.syntax unified
	.arm
	.fpu vfpv3
	.type	ParseAsciiEqu_1, %function
ParseAsciiEqu_1:
.LFB10:
	.loc 1 616 1
	.cfi_startproc
	@ args = 0, pretend = 0, frame = 56
	@ frame_needed = 1, uses_anonymous_args = 0
	push	{fp, lr}
	.cfi_def_cfa_offset 8
	.cfi_offset 11, -8
	.cfi_offset 14, -4
	add	fp, sp, #4
	.cfi_def_cfa 11, 4
	sub	sp, sp, #72
	str	r0, [fp, #-56]
	str	r1, [fp, #-60]
	.loc 1 616 1
	ldr	r2, .L142
.LPIC105:
	add	r2, pc, r2
	ldr	r3, .L142+4
	ldr	r3, [r2, r3]
	ldr	r3, [r3]
	str	r3, [fp, #-8]
	mov	r3, #0
	.loc 1 622 16
	mov	r3, #0
	str	r3, [fp, #-52]
	.loc 1 623 13
	ldr	r1, [fp, #-60]
	mov	r2, #0
	mov	r3, #0
	strd	r2, [r1]
	.loc 1 624 8
	b	.L134
.L138:
	.loc 1 629 18
	mov	r1, #41
	ldr	r0, [fp, #-48]
	bl	strchr(PLT)
	str	r0, [fp, #-44]
	.loc 1 630 7
	ldr	r3, [fp, #-44]
	cmp	r3, #0
	beq	.L135
	.loc 1 632 20
	ldr	r3, [fp, #-44]
	mov	r2, #0
	strb	r2, [r3]
	.loc 1 633 7
	ldr	r3, [fp, #-48]
	add	r3, r3, #1
	sub	r2, fp, #36
	mov	r1, r3
	ldr	r3, .L142+8
.LPIC90:
	add	r3, pc, r3
	mov	r0, r3
	bl	ParseAsciiEqu_cmn(PLT)
	str	r0, [fp, #-52]
	ldr	r3, [fp, #-52]
	cmp	r3, #0
	beq	.L136
	.loc 1 633 7 is_stmt 0 discriminator 1
	ldr	r3, .L142+12
.LPIC91:
	add	r3, pc, r3
	str	r3, [sp, #8]
	ldr	r3, .L142+16
.LPIC92:
	add	r3, pc, r3
	str	r3, [sp, #4]
	ldr	r3, [fp, #-52]
	str	r3, [sp]
	movw	r3, #633
	ldr	r2, .L142+20
.LPIC93:
	add	r2, pc, r2
	ldr	r1, .L142+24
.LPIC94:
	add	r1, pc, r1
	mov	r0, #69
	bl	siFormattedMessage_SC(PLT)
	b	.L137
.L136:
	.loc 1 634 29 is_stmt 1
	ldr	r2, [fp, #-44]
	ldr	r3, [fp, #-48]
	sub	r3, r2, r3
	.loc 1 634 15
	str	r3, [fp, #-40]
	.loc 1 635 7
	ldrd	r2, [fp, #-36]
	sub	r0, fp, #24
	strd	r2, [sp]
	ldr	r3, .L142+28
.LPIC95:
	add	r3, pc, r3
	mov	r2, r3
	mov	r1, #16
	bl	EApiSprintfA(PLT)
	.loc 1 636 7
	ldr	r3, [fp, #-56]
	ldr	r3, [r3]
	ldr	r2, [fp, #-48]
	sub	r3, r2, r3
	mov	r1, r3
	ldr	r3, [fp, #-44]
	add	r2, r3, #1
	ldr	r3, [fp, #-56]
	ldr	r3, [r3]
	sub	r3, r2, r3
	mov	r2, r3
	sub	r3, fp, #24
	ldr	r0, [fp, #-56]
	bl	ReplaceSubStr(PLT)
	str	r0, [fp, #-52]
	ldr	r3, [fp, #-52]
	cmp	r3, #0
	beq	.L134
	.loc 1 636 7 is_stmt 0 discriminator 1
	ldr	r3, .L142+32
.LPIC96:
	add	r3, pc, r3
	str	r3, [sp, #8]
	ldr	r3, .L142+36
.LPIC97:
	add	r3, pc, r3
	str	r3, [sp, #4]
	ldr	r3, [fp, #-52]
	str	r3, [sp]
	mov	r3, #636
	ldr	r2, .L142+40
.LPIC98:
	add	r2, pc, r2
	ldr	r1, .L142+44
.LPIC99:
	add	r1, pc, r1
	mov	r0, #69
	bl	siFormattedMessage_SC(PLT)
	b	.L137
.L135:
	.loc 1 640 7 is_stmt 1
	ldr	r3, .L142+48
.LPIC100:
	add	r3, pc, r3
	str	r3, [sp, #8]
	ldr	r3, .L142+52
.LPIC101:
	add	r3, pc, r3
	str	r3, [sp, #4]
	mvn	r3, #3840
	str	r3, [sp]
	mov	r3, #640
	ldr	r2, .L142+56
.LPIC102:
	add	r2, pc, r2
	ldr	r1, .L142+60
.LPIC103:
	add	r1, pc, r1
	mov	r0, #69
	bl	siFormattedMessage_SC(PLT)
	mvn	r3, #3840
	str	r3, [fp, #-52]
	b	.L137
.L134:
	.loc 1 624 41
	ldr	r3, [fp, #-56]
	ldr	r3, [r3]
	.loc 1 624 25
	mov	r1, #40
	mov	r0, r3
	bl	strrchr(PLT)
	str	r0, [fp, #-48]
	.loc 1 624 55
	ldr	r3, [fp, #-48]
	cmp	r3, #0
	bne	.L138
	.loc 1 647 5
	ldr	r3, [fp, #-52]
	cmp	r3, #0
	bne	.L141
	.loc 1 648 16
	ldr	r3, [fp, #-56]
	ldr	r3, [r3]
	ldr	r2, [fp, #-60]
	mov	r1, r3
	ldr	r3, .L142+64
.LPIC104:
	add	r3, pc, r3
	mov	r0, r3
	bl	ParseAsciiEqu_cmn(PLT)
	str	r0, [fp, #-52]
	b	.L137
.L141:
	.loc 1 649 1
	nop
.L137:
	.loc 1 650 10
	ldr	r3, [fp, #-52]
	.loc 1 616 1
	ldr	r1, .L142+68
.LPIC106:
	add	r1, pc, r1
	.loc 1 651 1
	ldr	r2, .L142+4
	ldr	r2, [r1, r2]
	ldr	r1, [r2]
	ldr	r2, [fp, #-8]
	eors	r1, r2, r1
	mov	r2, #0
	beq	.L140
	bl	__stack_chk_fail(PLT)
.L140:
	mov	r0, r3
	sub	sp, fp, #4
	.cfi_def_cfa 13, 8
	@ sp needed
	pop	{fp, pc}
.L143:
	.align	2
.L142:
	.word	_GLOBAL_OFFSET_TABLE_-(.LPIC105+8)
	.word	__stack_chk_guard(GOT)
	.word	cAS-(.LPIC90+8)
	.word	.LC57-(.LPIC91+8)
	.word	.LC4-(.LPIC92+8)
	.word	.LC5-(.LPIC93+8)
	.word	.LC2-(.LPIC94+8)
	.word	.LC58-(.LPIC95+8)
	.word	.LC59-(.LPIC96+8)
	.word	.LC4-(.LPIC97+8)
	.word	.LC5-(.LPIC98+8)
	.word	.LC2-(.LPIC99+8)
	.word	.LC60-(.LPIC100+8)
	.word	.LC4-(.LPIC101+8)
	.word	.LC39-(.LPIC102+8)
	.word	.LC2-(.LPIC103+8)
	.word	cAS-(.LPIC104+8)
	.word	_GLOBAL_OFFSET_TABLE_-(.LPIC106+8)
	.cfi_endproc
.LFE10:
	.size	ParseAsciiEqu_1, .-ParseAsciiEqu_1
	.global	cszEnvStartMarker
	.section	.rodata
	.align	2
	.type	cszEnvStartMarker, %object
	.size	cszEnvStartMarker, 3
cszEnvStartMarker:
	.ascii	"$(\000"
	.global	cszEnvEndMarker
	.align	2
	.type	cszEnvEndMarker, %object
	.size	cszEnvEndMarker, 2
cszEnvEndMarker:
	.ascii	")\000"
	.align	2
.LC61:
	.ascii	"ExpandEnviromentVariables\000"
	.align	2
.LC62:
	.ascii	"(pStrDesc==NULL)\000"
	.align	2
.LC63:
	.ascii	"(pStrDesc->szStr==NULL)\000"
	.align	2
.LC64:
	.ascii	"Missing Right Bracket '%s'\000"
	.align	2
.LC65:
	.ascii	"ReplaceSubStr(pStrDesc, szVarPosS - pStrDesc->szStr"
	.ascii	", szVarPosE - pStrDesc->szStr, szVarValue)\000"
	.text
	.align	2
	.global	ExpandEnviromentVariables
	.syntax unified
	.arm
	.fpu vfpv3
	.type	ExpandEnviromentVariables, %function
ExpandEnviromentVariables:
.LFB11:
	.loc 1 660 1
	.cfi_startproc
	@ args = 0, pretend = 0, frame = 24
	@ frame_needed = 1, uses_anonymous_args = 0
	push	{fp, lr}
	.cfi_def_cfa_offset 8
	.cfi_offset 11, -8
	.cfi_offset 14, -4
	add	fp, sp, #4
	.cfi_def_cfa 11, 4
	sub	sp, sp, #40
	str	r0, [fp, #-24]
	.loc 1 661 16
	mov	r3, #0
	str	r3, [fp, #-20]
	.loc 1 662 32
	mov	r3, #0
	str	r3, [fp, #-16]
	.loc 1 663 3
	ldr	r3, [fp, #-24]
	cmp	r3, #0
	bne	.L145
	.loc 1 663 3 is_stmt 0 discriminator 1
	ldr	r3, .L154
.LPIC107:
	add	r3, pc, r3
	str	r3, [sp, #8]
	ldr	r3, .L154+4
.LPIC108:
	add	r3, pc, r3
	str	r3, [sp, #4]
	mvn	r3, #256
	str	r3, [sp]
	movw	r3, #663
	ldr	r2, .L154+8
.LPIC109:
	add	r2, pc, r2
	ldr	r1, .L154+12
.LPIC110:
	add	r1, pc, r1
	mov	r0, #69
	bl	siFormattedMessage_SC(PLT)
	mvn	r3, #256
	str	r3, [fp, #-20]
	b	.L146
.L145:
	.loc 1 668 3 is_stmt 1
	ldr	r3, [fp, #-24]
	ldr	r3, [r3]
	cmp	r3, #0
	bne	.L148
	.loc 1 668 3 is_stmt 0 discriminator 1
	ldr	r3, .L154+16
.LPIC111:
	add	r3, pc, r3
	str	r3, [sp, #8]
	ldr	r3, .L154+20
.LPIC112:
	add	r3, pc, r3
	str	r3, [sp, #4]
	mvn	r3, #256
	str	r3, [sp]
	mov	r3, #668
	ldr	r2, .L154+24
.LPIC113:
	add	r2, pc, r2
	ldr	r1, .L154+28
.LPIC114:
	add	r1, pc, r1
	mov	r0, #69
	bl	siFormattedMessage_SC(PLT)
	mvn	r3, #256
	str	r3, [fp, #-20]
	b	.L146
.L151:
	.loc 1 681 15 is_stmt 1
	mov	r1, #41
	ldr	r0, [fp, #-12]
	bl	strchr(PLT)
	str	r0, [fp, #-8]
	.loc 1 682 7
	ldr	r3, [fp, #-8]
	cmp	r3, #0
	bne	.L149
	.loc 1 683 7
	ldr	r3, .L154+32
.LPIC115:
	add	r3, pc, r3
	str	r3, [sp, #8]
	ldr	r3, .L154+36
.LPIC116:
	add	r3, pc, r3
	str	r3, [sp, #4]
	mvn	r3, #3840
	str	r3, [sp]
	movw	r3, #683
	ldr	r2, .L154+40
.LPIC117:
	add	r2, pc, r2
	ldr	r1, .L154+44
.LPIC118:
	add	r1, pc, r1
	mov	r0, #69
	bl	siFormattedMessage_SC(PLT)
	.loc 1 686 7
	ldr	r3, .L154+48
.LPIC119:
	add	r3, pc, r3
	str	r3, [sp, #8]
	ldr	r3, .L154+52
.LPIC120:
	add	r3, pc, r3
	str	r3, [sp, #4]
	mvn	r3, #3840
	str	r3, [sp]
	movw	r3, #686
	ldr	r2, .L154+56
.LPIC121:
	add	r2, pc, r2
	ldr	r1, .L154+60
.LPIC122:
	add	r1, pc, r1
	mov	r0, #69
	bl	siFormattedMessage_SC(PLT)
	mvn	r3, #3840
	str	r3, [fp, #-20]
	b	.L146
.L149:
	.loc 1 692 15
	ldr	r3, [fp, #-8]
	mov	r2, #0
	strb	r2, [r3]
	.loc 1 693 38
	ldr	r3, [fp, #-12]
	add	r3, r3, #2
	.loc 1 693 16
	mov	r0, r3
	bl	ReturnEnvVar(PLT)
	str	r0, [fp, #-16]
	.loc 1 694 5
	ldr	r3, [fp, #-24]
	ldr	r3, [r3]
	ldr	r2, [fp, #-12]
	sub	r3, r2, r3
	mov	r1, r3
	ldr	r3, [fp, #-24]
	ldr	r3, [r3]
	ldr	r2, [fp, #-8]
	sub	r3, r2, r3
	mov	r2, r3
	ldr	r3, [fp, #-16]
	ldr	r0, [fp, #-24]
	bl	ReplaceSubStr(PLT)
	str	r0, [fp, #-20]
	ldr	r3, [fp, #-20]
	cmp	r3, #0
	beq	.L150
	.loc 1 694 5 is_stmt 0 discriminator 1
	ldr	r3, .L154+64
.LPIC123:
	add	r3, pc, r3
	str	r3, [sp, #8]
	ldr	r3, .L154+68
.LPIC124:
	add	r3, pc, r3
	str	r3, [sp, #4]
	ldr	r3, [fp, #-20]
	str	r3, [sp]
	movw	r3, #694
	ldr	r2, .L154+72
.LPIC125:
	add	r2, pc, r2
	ldr	r1, .L154+76
.LPIC126:
	add	r1, pc, r1
	mov	r0, #69
	bl	siFormattedMessage_SC(PLT)
	b	.L146
.L150:
	.loc 1 695 7 is_stmt 1
	ldr	r3, [fp, #-16]
	cmp	r3, #0
	beq	.L148
	.loc 1 696 7
	ldr	r0, [fp, #-16]
	bl	free(PLT)
	.loc 1 697 17
	mov	r3, #0
	str	r3, [fp, #-16]
.L148:
	.loc 1 673 36
	ldr	r3, [fp, #-24]
	ldr	r3, [r3]
	.loc 1 673 20
	ldr	r2, .L154+80
.LPIC127:
	add	r2, pc, r2
	mov	r1, r2
	mov	r0, r3
	bl	strrstr(PLT)
	str	r0, [fp, #-12]
	.loc 1 673 64
	ldr	r3, [fp, #-12]
	cmp	r3, #0
	bne	.L151
	.loc 1 710 3
	nop
.L146:
	.loc 1 713 5
	ldr	r3, [fp, #-16]
	cmp	r3, #0
	beq	.L152
	.loc 1 714 5
	ldr	r0, [fp, #-16]
	bl	free(PLT)
.L152:
	.loc 1 717 10
	ldr	r3, [fp, #-20]
	.loc 1 718 1
	mov	r0, r3
	sub	sp, fp, #4
	.cfi_def_cfa 13, 8
	@ sp needed
	pop	{fp, pc}
.L155:
	.align	2
.L154:
	.word	.LC62-(.LPIC107+8)
	.word	.LC4-(.LPIC108+8)
	.word	.LC61-(.LPIC109+8)
	.word	.LC2-(.LPIC110+8)
	.word	.LC63-(.LPIC111+8)
	.word	.LC4-(.LPIC112+8)
	.word	.LC61-(.LPIC113+8)
	.word	.LC2-(.LPIC114+8)
	.word	cszEnvEndMarker-(.LPIC115+8)
	.word	.LC64-(.LPIC116+8)
	.word	.LC61-(.LPIC117+8)
	.word	.LC2-(.LPIC118+8)
	.word	.LC13-(.LPIC119+8)
	.word	.LC4-(.LPIC120+8)
	.word	.LC61-(.LPIC121+8)
	.word	.LC2-(.LPIC122+8)
	.word	.LC65-(.LPIC123+8)
	.word	.LC4-(.LPIC124+8)
	.word	.LC5-(.LPIC125+8)
	.word	.LC2-(.LPIC126+8)
	.word	cszEnvStartMarker-(.LPIC127+8)
	.cfi_endproc
.LFE11:
	.size	ExpandEnviromentVariables, .-ExpandEnviromentVariables
	.section	.rodata
	.align	2
.LC66:
	.ascii	"ExpandMacros\000"
	.align	2
.LC67:
	.ascii	"(pMacros==NULL)\000"
	.align	2
.LC68:
	.ascii	"ReplaceSubStr(pStrDesc, szVarPosS - pStrDesc->szStr"
	.ascii	", szVarPosS - pStrDesc->szStr + stMacroLen, pCurMac"
	.ascii	"ro->cszMacroValue)\000"
	.text
	.align	2
	.global	ExpandMacros
	.syntax unified
	.arm
	.fpu vfpv3
	.type	ExpandMacros, %function
ExpandMacros:
.LFB12:
	.loc 1 727 1
	.cfi_startproc
	@ args = 0, pretend = 0, frame = 32
	@ frame_needed = 1, uses_anonymous_args = 0
	push	{fp, lr}
	.cfi_def_cfa_offset 8
	.cfi_offset 11, -8
	.cfi_offset 14, -4
	add	fp, sp, #4
	.cfi_def_cfa 11, 4
	sub	sp, sp, #48
	str	r0, [fp, #-32]
	str	r1, [fp, #-36]
	.loc 1 727 1
	ldr	r2, .L165
.LPIC144:
	add	r2, pc, r2
	ldr	r3, .L165+4
	ldr	r3, [r2, r3]
	ldr	r3, [r3]
	str	r3, [fp, #-8]
	mov	r3, #0
	.loc 1 728 16
	mov	r3, #0
	str	r3, [fp, #-20]
	.loc 1 732 3
	ldr	r3, [fp, #-32]
	cmp	r3, #0
	bne	.L157
	.loc 1 732 3 is_stmt 0 discriminator 1
	ldr	r3, .L165+8
.LPIC128:
	add	r3, pc, r3
	str	r3, [sp, #8]
	ldr	r3, .L165+12
.LPIC129:
	add	r3, pc, r3
	str	r3, [sp, #4]
	mvn	r3, #256
	str	r3, [sp]
	mov	r3, #732
	ldr	r2, .L165+16
.LPIC130:
	add	r2, pc, r2
	ldr	r1, .L165+20
.LPIC131:
	add	r1, pc, r1
	mov	r0, #69
	bl	siFormattedMessage_SC(PLT)
	mvn	r3, #256
	str	r3, [fp, #-20]
	b	.L158
.L157:
	.loc 1 737 3 is_stmt 1
	ldr	r3, [fp, #-32]
	ldr	r3, [r3]
	cmp	r3, #0
	bne	.L159
	.loc 1 737 3 is_stmt 0 discriminator 1
	ldr	r3, .L165+24
.LPIC132:
	add	r3, pc, r3
	str	r3, [sp, #8]
	ldr	r3, .L165+28
.LPIC133:
	add	r3, pc, r3
	str	r3, [sp, #4]
	mvn	r3, #256
	str	r3, [sp]
	movw	r3, #737
	ldr	r2, .L165+32
.LPIC134:
	add	r2, pc, r2
	ldr	r1, .L165+36
.LPIC135:
	add	r1, pc, r1
	mov	r0, #69
	bl	siFormattedMessage_SC(PLT)
	mvn	r3, #256
	str	r3, [fp, #-20]
	b	.L158
.L159:
	.loc 1 742 3 is_stmt 1
	ldr	r3, [fp, #-36]
	cmp	r3, #0
	bne	.L161
	.loc 1 742 3 is_stmt 0 discriminator 1
	ldr	r3, .L165+40
.LPIC136:
	add	r3, pc, r3
	str	r3, [sp, #8]
	ldr	r3, .L165+44
.LPIC137:
	add	r3, pc, r3
	str	r3, [sp, #4]
	mvn	r3, #256
	str	r3, [sp]
	movw	r3, #742
	ldr	r2, .L165+48
.LPIC138:
	add	r2, pc, r2
	ldr	r1, .L165+52
.LPIC139:
	add	r1, pc, r1
	mov	r0, #69
	bl	siFormattedMessage_SC(PLT)
	mvn	r3, #256
	str	r3, [fp, #-20]
	b	.L158
.L162:
	.loc 1 755 32 is_stmt 1
	ldr	r3, [fp, #-24]
	ldr	r3, [r3]
	.loc 1 755 16
	mov	r0, r3
	bl	strlen(PLT)
	str	r0, [fp, #-12]
	.loc 1 757 5
	ldr	r3, [fp, #-32]
	ldr	r3, [r3]
	ldr	r2, [fp, #-16]
	sub	r3, r2, r3
	mov	r1, r3
	ldr	r3, [fp, #-32]
	ldr	r3, [r3]
	ldr	r2, [fp, #-16]
	sub	r3, r2, r3
	mov	r2, r3
	ldr	r3, [fp, #-12]
	add	r2, r2, r3
	ldr	r3, [fp, #-24]
	ldr	r3, [r3, #4]
	ldr	r0, [fp, #-32]
	bl	ReplaceSubStr(PLT)
	str	r0, [fp, #-20]
	ldr	r3, [fp, #-20]
	cmp	r3, #0
	beq	.L161
	.loc 1 757 5 is_stmt 0 discriminator 1
	ldr	r3, .L165+56
.LPIC140:
	add	r3, pc, r3
	str	r3, [sp, #8]
	ldr	r3, .L165+60
.LPIC141:
	add	r3, pc, r3
	str	r3, [sp, #4]
	ldr	r3, [fp, #-20]
	str	r3, [sp]
	movw	r3, #757
	ldr	r2, .L165+64
.LPIC142:
	add	r2, pc, r2
	ldr	r1, .L165+68
.LPIC143:
	add	r1, pc, r1
	mov	r0, #69
	bl	siFormattedMessage_SC(PLT)
	b	.L158
.L161:
	.loc 1 747 39 is_stmt 1
	ldr	r3, [fp, #-32]
	ldr	r3, [r3]
	.loc 1 747 20
	sub	r2, fp, #24
	ldr	r1, [fp, #-36]
	mov	r0, r3
	bl	szFindWord(PLT)
	str	r0, [fp, #-16]
	.loc 1 747 69
	ldr	r3, [fp, #-16]
	cmp	r3, #0
	bne	.L162
	.loc 1 765 3
	nop
.L158:
	.loc 1 770 10
	ldr	r3, [fp, #-20]
	.loc 1 727 1
	ldr	r1, .L165+72
.LPIC145:
	add	r1, pc, r1
	.loc 1 771 1
	ldr	r2, .L165+4
	ldr	r2, [r1, r2]
	ldr	r1, [r2]
	ldr	r2, [fp, #-8]
	eors	r1, r2, r1
	mov	r2, #0
	beq	.L164
	bl	__stack_chk_fail(PLT)
.L164:
	mov	r0, r3
	sub	sp, fp, #4
	.cfi_def_cfa 13, 8
	@ sp needed
	pop	{fp, pc}
.L166:
	.align	2
.L165:
	.word	_GLOBAL_OFFSET_TABLE_-(.LPIC144+8)
	.word	__stack_chk_guard(GOT)
	.word	.LC62-(.LPIC128+8)
	.word	.LC4-(.LPIC129+8)
	.word	.LC66-(.LPIC130+8)
	.word	.LC2-(.LPIC131+8)
	.word	.LC63-(.LPIC132+8)
	.word	.LC4-(.LPIC133+8)
	.word	.LC66-(.LPIC134+8)
	.word	.LC2-(.LPIC135+8)
	.word	.LC67-(.LPIC136+8)
	.word	.LC4-(.LPIC137+8)
	.word	.LC66-(.LPIC138+8)
	.word	.LC2-(.LPIC139+8)
	.word	.LC68-(.LPIC140+8)
	.word	.LC4-(.LPIC141+8)
	.word	.LC5-(.LPIC142+8)
	.word	.LC2-(.LPIC143+8)
	.word	_GLOBAL_OFFSET_TABLE_-(.LPIC145+8)
	.cfi_endproc
.LFE12:
	.size	ExpandMacros, .-ExpandMacros
	.section	.rodata
	.align	2
.LC69:
	.ascii	"ParseAsciiEqu\000"
	.align	2
.LC70:
	.ascii	"(cszString==NULL)\000"
	.align	2
.LC71:
	.ascii	"(psllValue==NULL)\000"
	.align	2
.LC72:
	.ascii	"InitStrDesc(&lclStrDesc, cszString)\000"
	.align	2
.LC73:
	.ascii	"ExpandEnviromentVariables(&lclStrDesc)\000"
	.align	2
.LC74:
	.ascii	"ExpandMacros(&lclStrDesc, pMacros)\000"
	.align	2
.LC75:
	.ascii	"ParseAsciiEqu_1(&lclStrDesc, psllValue)\000"
	.text
	.align	2
	.global	ParseAsciiEquEx
	.syntax unified
	.arm
	.fpu vfpv3
	.type	ParseAsciiEquEx, %function
ParseAsciiEquEx:
.LFB13:
	.loc 1 787 1
	.cfi_startproc
	@ args = 0, pretend = 0, frame = 40
	@ frame_needed = 1, uses_anonymous_args = 0
	push	{fp, lr}
	.cfi_def_cfa_offset 8
	.cfi_offset 11, -8
	.cfi_offset 14, -4
	add	fp, sp, #4
	.cfi_def_cfa 11, 4
	sub	sp, sp, #56
	str	r0, [fp, #-32]
	str	r1, [fp, #-36]
	str	r2, [fp, #-40]
	.loc 1 787 1
	ldr	r2, .L177
.LPIC170:
	add	r2, pc, r2
	ldr	r3, .L177+4
	ldr	r3, [r2, r3]
	ldr	r3, [r3]
	str	r3, [fp, #-8]
	mov	r3, #0
	.loc 1 789 14
	mov	r3, #0
	str	r3, [fp, #-20]
	mov	r3, #0
	str	r3, [fp, #-16]
	mov	r3, #0
	str	r3, [fp, #-12]
	.loc 1 790 3
	ldr	r3, [fp, #-32]
	cmp	r3, #0
	bne	.L168
	.loc 1 790 3 is_stmt 0 discriminator 1
	ldr	r3, .L177+8
.LPIC146:
	add	r3, pc, r3
	str	r3, [sp, #8]
	ldr	r3, .L177+12
.LPIC147:
	add	r3, pc, r3
	str	r3, [sp, #4]
	mvn	r3, #256
	str	r3, [sp]
	movw	r3, #790
	ldr	r2, .L177+16
.LPIC148:
	add	r2, pc, r2
	ldr	r1, .L177+20
.LPIC149:
	add	r1, pc, r1
	mov	r0, #69
	bl	siFormattedMessage_SC(PLT)
	mvn	r3, #256
	str	r3, [fp, #-24]
	b	.L169
.L168:
	.loc 1 795 3 is_stmt 1
	ldr	r3, [fp, #-40]
	cmp	r3, #0
	bne	.L170
	.loc 1 795 3 is_stmt 0 discriminator 1
	ldr	r3, .L177+24
.LPIC150:
	add	r3, pc, r3
	str	r3, [sp, #8]
	ldr	r3, .L177+28
.LPIC151:
	add	r3, pc, r3
	str	r3, [sp, #4]
	mvn	r3, #256
	str	r3, [sp]
	movw	r3, #795
	ldr	r2, .L177+32
.LPIC152:
	add	r2, pc, r2
	ldr	r1, .L177+36
.LPIC153:
	add	r1, pc, r1
	mov	r0, #69
	bl	siFormattedMessage_SC(PLT)
	mvn	r3, #256
	str	r3, [fp, #-24]
	b	.L169
.L170:
	.loc 1 800 13 is_stmt 1
	ldr	r1, [fp, #-40]
	mov	r2, #0
	mov	r3, #0
	strd	r2, [r1]
	.loc 1 801 3
	sub	r3, fp, #20
	ldr	r1, [fp, #-32]
	mov	r0, r3
	bl	InitStrDesc(PLT)
	str	r0, [fp, #-24]
	ldr	r3, [fp, #-24]
	cmp	r3, #0
	beq	.L171
	.loc 1 801 3 is_stmt 0 discriminator 1
	ldr	r3, .L177+40
.LPIC154:
	add	r3, pc, r3
	str	r3, [sp, #8]
	ldr	r3, .L177+44
.LPIC155:
	add	r3, pc, r3
	str	r3, [sp, #4]
	ldr	r3, [fp, #-24]
	str	r3, [sp]
	movw	r3, #801
	ldr	r2, .L177+48
.LPIC156:
	add	r2, pc, r2
	ldr	r1, .L177+52
.LPIC157:
	add	r1, pc, r1
	mov	r0, #69
	bl	siFormattedMessage_SC(PLT)
	b	.L169
.L171:
	.loc 1 803 3 is_stmt 1
	sub	r3, fp, #20
	mov	r0, r3
	bl	ExpandEnviromentVariables(PLT)
	str	r0, [fp, #-24]
	ldr	r3, [fp, #-24]
	cmp	r3, #0
	beq	.L172
	.loc 1 803 3 is_stmt 0 discriminator 1
	ldr	r3, .L177+56
.LPIC158:
	add	r3, pc, r3
	str	r3, [sp, #8]
	ldr	r3, .L177+60
.LPIC159:
	add	r3, pc, r3
	str	r3, [sp, #4]
	ldr	r3, [fp, #-24]
	str	r3, [sp]
	movw	r3, #803
	ldr	r2, .L177+64
.LPIC160:
	add	r2, pc, r2
	ldr	r1, .L177+68
.LPIC161:
	add	r1, pc, r1
	mov	r0, #69
	bl	siFormattedMessage_SC(PLT)
	b	.L169
.L172:
	.loc 1 804 5 is_stmt 1
	ldr	r3, [fp, #-36]
	cmp	r3, #0
	beq	.L173
	.loc 1 805 5
	sub	r3, fp, #20
	ldr	r1, [fp, #-36]
	mov	r0, r3
	bl	ExpandMacros(PLT)
	str	r0, [fp, #-24]
	ldr	r3, [fp, #-24]
	cmp	r3, #0
	beq	.L173
	.loc 1 805 5 is_stmt 0 discriminator 1
	ldr	r3, .L177+72
.LPIC162:
	add	r3, pc, r3
	str	r3, [sp, #8]
	ldr	r3, .L177+76
.LPIC163:
	add	r3, pc, r3
	str	r3, [sp, #4]
	ldr	r3, [fp, #-24]
	str	r3, [sp]
	movw	r3, #805
	ldr	r2, .L177+80
.LPIC164:
	add	r2, pc, r2
	ldr	r1, .L177+84
.LPIC165:
	add	r1, pc, r1
	mov	r0, #69
	bl	siFormattedMessage_SC(PLT)
	b	.L169
.L173:
	.loc 1 812 3 is_stmt 1
	sub	r3, fp, #20
	ldr	r1, [fp, #-40]
	mov	r0, r3
	bl	ParseAsciiEqu_1(PLT)
	str	r0, [fp, #-24]
	ldr	r3, [fp, #-24]
	cmp	r3, #0
	beq	.L176
	.loc 1 812 3 is_stmt 0 discriminator 1
	ldr	r3, .L177+88
.LPIC166:
	add	r3, pc, r3
	str	r3, [sp, #8]
	ldr	r3, .L177+92
.LPIC167:
	add	r3, pc, r3
	str	r3, [sp, #4]
	ldr	r3, [fp, #-24]
	str	r3, [sp]
	mov	r3, #812
	ldr	r2, .L177+96
.LPIC168:
	add	r2, pc, r2
	ldr	r1, .L177+100
.LPIC169:
	add	r1, pc, r1
	mov	r0, #69
	bl	siFormattedMessage_SC(PLT)
	b	.L169
.L176:
	.loc 1 813 1 is_stmt 1
	nop
.L169:
	.loc 1 814 3
	sub	r3, fp, #20
	mov	r0, r3
	bl	FreeStrDesc(PLT)
	.loc 1 815 10
	ldr	r3, [fp, #-24]
	.loc 1 787 1
	ldr	r1, .L177+104
.LPIC171:
	add	r1, pc, r1
	.loc 1 816 1
	ldr	r2, .L177+4
	ldr	r2, [r1, r2]
	ldr	r1, [r2]
	ldr	r2, [fp, #-8]
	eors	r1, r2, r1
	mov	r2, #0
	beq	.L175
	bl	__stack_chk_fail(PLT)
.L175:
	mov	r0, r3
	sub	sp, fp, #4
	.cfi_def_cfa 13, 8
	@ sp needed
	pop	{fp, pc}
.L178:
	.align	2
.L177:
	.word	_GLOBAL_OFFSET_TABLE_-(.LPIC170+8)
	.word	__stack_chk_guard(GOT)
	.word	.LC70-(.LPIC146+8)
	.word	.LC4-(.LPIC147+8)
	.word	.LC69-(.LPIC148+8)
	.word	.LC2-(.LPIC149+8)
	.word	.LC71-(.LPIC150+8)
	.word	.LC4-(.LPIC151+8)
	.word	.LC69-(.LPIC152+8)
	.word	.LC2-(.LPIC153+8)
	.word	.LC72-(.LPIC154+8)
	.word	.LC4-(.LPIC155+8)
	.word	.LC5-(.LPIC156+8)
	.word	.LC2-(.LPIC157+8)
	.word	.LC73-(.LPIC158+8)
	.word	.LC4-(.LPIC159+8)
	.word	.LC5-(.LPIC160+8)
	.word	.LC2-(.LPIC161+8)
	.word	.LC74-(.LPIC162+8)
	.word	.LC4-(.LPIC163+8)
	.word	.LC5-(.LPIC164+8)
	.word	.LC2-(.LPIC165+8)
	.word	.LC75-(.LPIC166+8)
	.word	.LC4-(.LPIC167+8)
	.word	.LC5-(.LPIC168+8)
	.word	.LC2-(.LPIC169+8)
	.word	_GLOBAL_OFFSET_TABLE_-(.LPIC171+8)
	.cfi_endproc
.LFE13:
	.size	ParseAsciiEquEx, .-ParseAsciiEquEx
	.align	2
	.global	ParseAsciiEqu
	.syntax unified
	.arm
	.fpu vfpv3
	.type	ParseAsciiEqu, %function
ParseAsciiEqu:
.LFB14:
	.loc 1 822 1
	.cfi_startproc
	@ args = 0, pretend = 0, frame = 8
	@ frame_needed = 1, uses_anonymous_args = 0
	push	{fp, lr}
	.cfi_def_cfa_offset 8
	.cfi_offset 11, -8
	.cfi_offset 14, -4
	add	fp, sp, #4
	.cfi_def_cfa 11, 4
	sub	sp, sp, #8
	str	r0, [fp, #-8]
	str	r1, [fp, #-12]
	.loc 1 823 10
	ldr	r2, [fp, #-12]
	mov	r1, #0
	ldr	r0, [fp, #-8]
	bl	ParseAsciiEquEx(PLT)
	mov	r3, r0
	.loc 1 824 1
	mov	r0, r3
	sub	sp, fp, #4
	.cfi_def_cfa 13, 8
	@ sp needed
	pop	{fp, pc}
	.cfi_endproc
.LFE14:
	.size	ParseAsciiEqu, .-ParseAsciiEqu
	.section	.rodata
	.align	2
.LC76:
	.ascii	"ParseAsciiEqu_VA\000"
	.align	2
.LC77:
	.ascii	"(pvalue==NULL)\000"
	.align	2
.LC78:
	.ascii	"(siElementSize==0)\000"
	.align	2
.LC79:
	.ascii	"Value Too Large for unsigned long\000"
	.align	2
.LC80:
	.ascii	"Value Too Large for unsigned int\000"
	.align	2
.LC81:
	.ascii	"Value Too Large for unsigned short\000"
	.align	2
.LC82:
	.ascii	"Value Too Large for unsigned char\000"
	.align	2
.LC83:
	.ascii	"Unsupported Variable Lenght\000"
	.text
	.align	2
	.global	AssignValue_VA
	.syntax unified
	.arm
	.fpu vfpv3
	.type	AssignValue_VA, %function
AssignValue_VA:
.LFB15:
	.loc 1 831 1
	.cfi_startproc
	@ args = 0, pretend = 0, frame = 32
	@ frame_needed = 1, uses_anonymous_args = 0
	push	{r4, r5, r6, r7, r8, r9, fp, lr}
	.cfi_def_cfa_offset 32
	.cfi_offset 4, -32
	.cfi_offset 5, -28
	.cfi_offset 6, -24
	.cfi_offset 7, -20
	.cfi_offset 8, -16
	.cfi_offset 9, -12
	.cfi_offset 11, -8
	.cfi_offset 14, -4
	add	fp, sp, #28
	.cfi_def_cfa 11, 4
	sub	sp, sp, #48
	strd	r0, [fp, #-44]
	str	r2, [fp, #-48]
	str	r3, [fp, #-52]
	.loc 1 832 16
	mov	r3, #0
	str	r3, [fp, #-32]
	.loc 1 834 3
	ldr	r3, [fp, #-48]
	cmp	r3, #0
	bne	.L182
	.loc 1 834 3 is_stmt 0 discriminator 1
	ldr	r3, .L203
.LPIC172:
	add	r3, pc, r3
	str	r3, [sp, #8]
	ldr	r3, .L203+4
.LPIC173:
	add	r3, pc, r3
	str	r3, [sp, #4]
	mvn	r3, #256
	str	r3, [sp]
	movw	r3, #834
	ldr	r2, .L203+8
.LPIC174:
	add	r2, pc, r2
	ldr	r1, .L203+12
.LPIC175:
	add	r1, pc, r1
	mov	r0, #69
	bl	siFormattedMessage_SC(PLT)
	mvn	r3, #256
	str	r3, [fp, #-32]
	b	.L183
.L182:
	.loc 1 839 3 is_stmt 1
	ldr	r3, [fp, #-52]
	cmp	r3, #0
	bne	.L184
	.loc 1 839 3 is_stmt 0 discriminator 1
	ldr	r3, .L203+16
.LPIC176:
	add	r3, pc, r3
	str	r3, [sp, #8]
	ldr	r3, .L203+20
.LPIC177:
	add	r3, pc, r3
	str	r3, [sp, #4]
	mvn	r3, #256
	str	r3, [sp]
	movw	r3, #839
	ldr	r2, .L203+24
.LPIC178:
	add	r2, pc, r2
	ldr	r1, .L203+28
.LPIC179:
	add	r1, pc, r1
	mov	r0, #69
	bl	siFormattedMessage_SC(PLT)
	mvn	r3, #256
	str	r3, [fp, #-32]
	b	.L183
.L184:
	.loc 1 844 3 is_stmt 1
	ldr	r3, [fp, #-52]
	mov	r2, r3
	mov	r1, #0
	ldr	r0, [fp, #-48]
	bl	memset(PLT)
	.loc 1 845 5
	ldr	r3, [fp, #-52]
	cmp	r3, #8
	bne	.L185
	.loc 1 846 36
	ldrd	r2, [fp, #-44]
	.loc 1 846 35
	ldr	r1, [fp, #-48]
	strd	r2, [r1]
	b	.L183
.L185:
	.loc 1 848 11
	ldr	r3, [fp, #-52]
	cmp	r3, #4
	bne	.L186
	.loc 1 849 9
	ldrd	r2, [fp, #-44]
	cmp	r3, #0
	blt	.L187
	.loc 1 849 29 discriminator 1
	ldrd	r2, [fp, #-44]
	.loc 1 849 24 discriminator 1
	cmp	r3, #1
	bcs	.L188
.L187:
	.loc 1 849 73 discriminator 3
	ldrd	r2, [fp, #-44]
	cmp	r3, #0
	bge	.L189
	.loc 1 850 49
	ldrd	r2, [fp, #-44]
	rsbs	r1, r2, #0
	str	r1, [fp, #-60]
	rsc	r3, r3, #0
	str	r3, [fp, #-56]
	.loc 1 850 29
	ldrd	r2, [fp, #-60]
	.loc 1 850 24
	cmp	r2, #-2147483648
	sbcs	r3, r3, #0
	bcc	.L189
.L188:
	.loc 1 853 9
	ldr	r3, .L203+32
.LPIC180:
	add	r3, pc, r3
	str	r3, [sp, #8]
	ldr	r3, .L203+36
.LPIC181:
	add	r3, pc, r3
	str	r3, [sp, #4]
	mvn	r3, #1536
	str	r3, [sp]
	movw	r3, #853
	ldr	r2, .L203+40
.LPIC182:
	add	r2, pc, r2
	ldr	r1, .L203+44
.LPIC183:
	add	r1, pc, r1
	mov	r0, #69
	bl	siFormattedMessage_SC(PLT)
	mvn	r3, #1536
	str	r3, [fp, #-32]
	b	.L183
.L189:
	.loc 1 859 31
	ldr	r2, [fp, #-44]
	.loc 1 859 30
	ldr	r3, [fp, #-48]
	str	r2, [r3]
	b	.L183
.L186:
	.loc 1 860 11
	ldr	r3, [fp, #-52]
	cmp	r3, #4
	bne	.L190
	.loc 1 861 9
	ldrd	r2, [fp, #-44]
	cmp	r3, #0
	blt	.L191
	.loc 1 861 29 discriminator 1
	ldrd	r2, [fp, #-44]
	.loc 1 861 24 discriminator 1
	cmp	r3, #1
	bcs	.L192
.L191:
	.loc 1 861 71 discriminator 3
	ldrd	r2, [fp, #-44]
	cmp	r3, #0
	bge	.L193
	.loc 1 862 49
	ldrd	r2, [fp, #-44]
	rsbs	r8, r2, #0
	rsc	r9, r3, #0
	.loc 1 862 29
	mov	r2, r8
	mov	r3, r9
	.loc 1 862 24
	cmp	r2, #-2147483648
	sbcs	r3, r3, #0
	bcc	.L193
.L192:
	.loc 1 865 9
	ldr	r3, .L203+48
.LPIC184:
	add	r3, pc, r3
	str	r3, [sp, #8]
	ldr	r3, .L203+52
.LPIC185:
	add	r3, pc, r3
	str	r3, [sp, #4]
	mvn	r3, #1536
	str	r3, [sp]
	movw	r3, #865
	ldr	r2, .L203+56
.LPIC186:
	add	r2, pc, r2
	ldr	r1, .L203+60
.LPIC187:
	add	r1, pc, r1
	mov	r0, #69
	bl	siFormattedMessage_SC(PLT)
	mvn	r3, #1536
	str	r3, [fp, #-32]
	b	.L183
.L193:
	.loc 1 871 31
	ldr	r2, [fp, #-44]
	.loc 1 871 30
	ldr	r3, [fp, #-48]
	str	r2, [r3]
	b	.L183
.L190:
	.loc 1 872 12
	ldr	r3, [fp, #-52]
	cmp	r3, #2
	bne	.L194
	.loc 1 873 9
	ldrd	r2, [fp, #-44]
	cmp	r3, #0
	blt	.L195
	.loc 1 873 29 discriminator 1
	ldrd	r2, [fp, #-44]
	.loc 1 873 24 discriminator 1
	cmp	r2, #65536
	sbcs	r3, r3, #0
	bcs	.L196
.L195:
	.loc 1 873 72 discriminator 3
	ldrd	r2, [fp, #-44]
	cmp	r3, #0
	bge	.L197
	.loc 1 874 49
	ldrd	r2, [fp, #-44]
	rsbs	r6, r2, #0
	rsc	r7, r3, #0
	.loc 1 874 29
	mov	r2, r6
	mov	r3, r7
	.loc 1 874 24
	cmp	r2, #32768
	sbcs	r3, r3, #0
	bcc	.L197
.L196:
	.loc 1 877 9
	ldr	r3, .L203+64
.LPIC188:
	add	r3, pc, r3
	str	r3, [sp, #8]
	ldr	r3, .L203+68
.LPIC189:
	add	r3, pc, r3
	str	r3, [sp, #4]
	mvn	r3, #1536
	str	r3, [sp]
	movw	r3, #877
	ldr	r2, .L203+72
.LPIC190:
	add	r2, pc, r2
	ldr	r1, .L203+76
.LPIC191:
	add	r1, pc, r1
	mov	r0, #69
	bl	siFormattedMessage_SC(PLT)
	mvn	r3, #1536
	str	r3, [fp, #-32]
	b	.L183
.L197:
	.loc 1 883 32
	ldrh	r2, [fp, #-44]
	.loc 1 883 31
	ldr	r3, [fp, #-48]
	strh	r2, [r3]	@ movhi
	b	.L183
.L194:
	.loc 1 884 11
	ldr	r3, [fp, #-52]
	cmp	r3, #1
	bne	.L198
	.loc 1 885 9
	ldrd	r2, [fp, #-44]
	cmp	r3, #0
	blt	.L199
	.loc 1 885 29 discriminator 1
	ldrd	r2, [fp, #-44]
	.loc 1 885 24 discriminator 1
	cmp	r2, #256
	sbcs	r3, r3, #0
	bcs	.L200
.L199:
	.loc 1 885 72 discriminator 3
	ldrd	r2, [fp, #-44]
	cmp	r3, #0
	bge	.L201
	.loc 1 886 49
	ldrd	r2, [fp, #-44]
	rsbs	r4, r2, #0
	rsc	r5, r3, #0
	.loc 1 886 29
	mov	r2, r4
	mov	r3, r5
	.loc 1 886 24
	cmp	r2, #256
	sbcs	r3, r3, #0
	bcc	.L201
.L200:
	.loc 1 889 9
	ldr	r3, .L203+80
.LPIC192:
	add	r3, pc, r3
	str	r3, [sp, #8]
	ldr	r3, .L203+84
.LPIC193:
	add	r3, pc, r3
	str	r3, [sp, #4]
	mvn	r3, #1536
	str	r3, [sp]
	movw	r3, #889
	ldr	r2, .L203+88
.LPIC194:
	add	r2, pc, r2
	ldr	r1, .L203+92
.LPIC195:
	add	r1, pc, r1
	mov	r0, #69
	bl	siFormattedMessage_SC(PLT)
	mvn	r3, #1536
	str	r3, [fp, #-32]
	b	.L183
.L201:
	.loc 1 895 31
	ldrb	r2, [fp, #-44]	@ zero_extendqisi2
	.loc 1 895 30
	ldr	r3, [fp, #-48]
	strb	r2, [r3]
	b	.L183
.L198:
	.loc 1 897 7
	ldr	r3, .L203+96
.LPIC196:
	add	r3, pc, r3
	str	r3, [sp, #8]
	ldr	r3, .L203+100
.LPIC197:
	add	r3, pc, r3
	str	r3, [sp, #4]
	mvn	r3, #3840
	str	r3, [sp]
	movw	r3, #897
	ldr	r2, .L203+104
.LPIC198:
	add	r2, pc, r2
	ldr	r1, .L203+108
.LPIC199:
	add	r1, pc, r1
	mov	r0, #69
	bl	siFormattedMessage_SC(PLT)
	mvn	r3, #3840
	str	r3, [fp, #-32]
	nop
.L183:
	.loc 1 905 10
	ldr	r3, [fp, #-32]
	.loc 1 906 1
	mov	r0, r3
	sub	sp, fp, #28
	.cfi_def_cfa 13, 32
	@ sp needed
	pop	{r4, r5, r6, r7, r8, r9, fp, pc}
.L204:
	.align	2
.L203:
	.word	.LC77-(.LPIC172+8)
	.word	.LC4-(.LPIC173+8)
	.word	.LC76-(.LPIC174+8)
	.word	.LC2-(.LPIC175+8)
	.word	.LC78-(.LPIC176+8)
	.word	.LC4-(.LPIC177+8)
	.word	.LC76-(.LPIC178+8)
	.word	.LC2-(.LPIC179+8)
	.word	.LC79-(.LPIC180+8)
	.word	.LC4-(.LPIC181+8)
	.word	.LC76-(.LPIC182+8)
	.word	.LC2-(.LPIC183+8)
	.word	.LC80-(.LPIC184+8)
	.word	.LC4-(.LPIC185+8)
	.word	.LC76-(.LPIC186+8)
	.word	.LC2-(.LPIC187+8)
	.word	.LC81-(.LPIC188+8)
	.word	.LC4-(.LPIC189+8)
	.word	.LC76-(.LPIC190+8)
	.word	.LC2-(.LPIC191+8)
	.word	.LC82-(.LPIC192+8)
	.word	.LC4-(.LPIC193+8)
	.word	.LC76-(.LPIC194+8)
	.word	.LC2-(.LPIC195+8)
	.word	.LC83-(.LPIC196+8)
	.word	.LC4-(.LPIC197+8)
	.word	.LC76-(.LPIC198+8)
	.word	.LC2-(.LPIC199+8)
	.cfi_endproc
.LFE15:
	.size	AssignValue_VA, .-AssignValue_VA
	.section	.rodata
	.align	2
.LC84:
	.ascii	"AssignValue_VAB\000"
	.align	2
.LC85:
	.ascii	"(pValue==NULL)\000"
	.align	2
.LC86:
	.ascii	"sizeof(unsigned long)*8<(unsigned)(siBitOffset+siBi"
	.ascii	"tLen)\000"
	.align	2
.LC87:
	.ascii	"(unsigned long long)csllValue>ulMask\000"
	.align	2
.LC88:
	.ascii	"AssignValue_VA(csllValue, pulValue, siBitLen/8)\000"
	.text
	.align	2
	.global	AssignValue_VAB
	.syntax unified
	.arm
	.fpu vfpv3
	.type	AssignValue_VAB, %function
AssignValue_VAB:
.LFB16:
	.loc 1 916 1
	.cfi_startproc
	@ args = 8, pretend = 0, frame = 40
	@ frame_needed = 1, uses_anonymous_args = 0
	push	{r4, r5, r6, r7, r8, r9, fp, lr}
	.cfi_def_cfa_offset 32
	.cfi_offset 4, -32
	.cfi_offset 5, -28
	.cfi_offset 6, -24
	.cfi_offset 7, -20
	.cfi_offset 8, -16
	.cfi_offset 9, -12
	.cfi_offset 11, -8
	.cfi_offset 14, -4
	add	fp, sp, #28
	.cfi_def_cfa 11, 4
	sub	sp, sp, #56
	strd	r0, [fp, #-52]
	str	r2, [fp, #-56]
	str	r3, [fp, #-60]
	.loc 1 917 16
	mov	r3, #0
	str	r3, [fp, #-40]
	.loc 1 918 27
	ldr	r3, [fp, #-60]
	add	r2, r3, #7
	cmp	r3, #0
	movlt	r3, r2
	movge	r3, r3
	asr	r3, r3, #3
	mov	r2, r3
	.loc 1 918 18
	ldr	r3, [fp, #-56]
	add	r3, r3, r2
	str	r3, [fp, #-36]
	.loc 1 919 14
	ldr	r3, [fp, #-60]
	rsbs	r2, r3, #0
	and	r3, r3, #7
	and	r2, r2, #7
	rsbpl	r3, r2, #0
	str	r3, [fp, #-60]
	.loc 1 921 3
	ldr	r3, [fp, #-56]
	cmp	r3, #0
	bne	.L206
	.loc 1 921 3 is_stmt 0 discriminator 1
	ldr	r3, .L215
.LPIC200:
	add	r3, pc, r3
	str	r3, [sp, #8]
	ldr	r3, .L215+4
.LPIC201:
	add	r3, pc, r3
	str	r3, [sp, #4]
	mvn	r3, #256
	str	r3, [sp]
	movw	r3, #921
	ldr	r2, .L215+8
.LPIC202:
	add	r2, pc, r2
	ldr	r1, .L215+12
.LPIC203:
	add	r1, pc, r1
	mov	r0, #69
	bl	siFormattedMessage_SC(PLT)
	mvn	r3, #256
	str	r3, [fp, #-40]
	b	.L207
.L206:
	.loc 1 926 3 is_stmt 1
	ldr	r3, [fp, #8]
	cmp	r3, #0
	bne	.L208
	.loc 1 926 3 is_stmt 0 discriminator 1
	ldr	r3, .L215+16
.LPIC204:
	add	r3, pc, r3
	str	r3, [sp, #8]
	ldr	r3, .L215+20
.LPIC205:
	add	r3, pc, r3
	str	r3, [sp, #4]
	mvn	r3, #256
	str	r3, [sp]
	movw	r3, #926
	ldr	r2, .L215+24
.LPIC206:
	add	r2, pc, r2
	ldr	r1, .L215+28
.LPIC207:
	add	r1, pc, r1
	mov	r0, #69
	bl	siFormattedMessage_SC(PLT)
	mvn	r3, #256
	str	r3, [fp, #-40]
	b	.L207
.L208:
	.loc 1 931 5 is_stmt 1
	ldr	r3, [fp, #-60]
	cmp	r3, #0
	bne	.L209
	.loc 1 931 42 discriminator 1
	ldr	r3, [fp, #8]
	lsl	r3, r3, #3
	.loc 1 931 17 discriminator 1
	ldr	r2, [fp, #4]
	cmp	r2, r3
	beq	.L210
.L209:
.LBB2:
	.loc 1 932 45
	mov	r2, #1
	ldr	r3, [fp, #4]
	lsl	r3, r2, r3
	.loc 1 932 19
	sub	r3, r3, #1
	str	r3, [fp, #-32]
	.loc 1 933 5
	ldr	r2, [fp, #-60]
	ldr	r3, [fp, #4]
	add	r3, r2, r3
	cmp	r3, #32
	bls	.L211
	.loc 1 933 5 is_stmt 0 discriminator 1
	ldr	r3, .L215+32
.LPIC208:
	add	r3, pc, r3
	str	r3, [sp, #8]
	ldr	r3, .L215+36
.LPIC209:
	add	r3, pc, r3
	str	r3, [sp, #4]
	mvn	r3, #256
	str	r3, [sp]
	movw	r3, #933
	ldr	r2, .L215+40
.LPIC210:
	add	r2, pc, r2
	ldr	r1, .L215+44
.LPIC211:
	add	r1, pc, r1
	mov	r0, #69
	bl	siFormattedMessage_SC(PLT)
	mvn	r3, #256
	str	r3, [fp, #-40]
	b	.L207
.L211:
	.loc 1 938 5 is_stmt 1
	ldr	r3, [fp, #-32]
	mov	r2, #0
	str	r3, [fp, #-68]
	str	r2, [fp, #-64]
	ldrd	r2, [fp, #-52]
	ldrd	r0, [fp, #-68]
	mov	ip, r0
	cmp	ip, r2
	sbcs	r3, r1, r3
	bcs	.L212
	.loc 1 938 5 is_stmt 0 discriminator 1
	ldr	r3, .L215+48
.LPIC212:
	add	r3, pc, r3
	str	r3, [sp, #8]
	ldr	r3, .L215+52
.LPIC213:
	add	r3, pc, r3
	str	r3, [sp, #4]
	mvn	r3, #1536
	str	r3, [sp]
	movw	r3, #938
	ldr	r2, .L215+56
.LPIC214:
	add	r2, pc, r2
	ldr	r1, .L215+60
.LPIC215:
	add	r1, pc, r1
	mov	r0, #69
	bl	siFormattedMessage_SC(PLT)
	mvn	r3, #1536
	str	r3, [fp, #-40]
	b	.L207
.L212:
	.loc 1 943 14 is_stmt 1
	ldr	r3, [fp, #-36]
	ldr	r2, [r3]
	.loc 1 943 24
	ldr	r1, [fp, #-32]
	ldr	r3, [fp, #-60]
	lsl	r3, r1, r3
	.loc 1 943 16
	mvn	r3, r3
	.loc 1 943 14
	and	r2, r2, r3
	ldr	r3, [fp, #-36]
	str	r2, [r3]
	.loc 1 944 14
	ldr	r3, [fp, #-36]
	ldr	r3, [r3]
	mov	r0, r3
	.loc 1 944 27
	ldr	r3, [fp, #-32]
	mov	r2, #0
	mov	r8, r3
	mov	r9, r2
	ldrd	r2, [fp, #-52]
	and	r6, r8, r2
	and	r7, r9, r3
	.loc 1 944 35
	ldr	r3, [fp, #-60]
	sub	r1, r3, #32
	rsb	r2, r3, #32
	lsl	r5, r7, r3
	orr	r5, r5, r6, lsl r1
	orr	r5, r5, r6, lsr r2
	lsl	r4, r6, r3
	.loc 1 944 14
	mov	r3, r4
	orr	r3, r0, r3
	mov	r2, r3
	ldr	r3, [fp, #-36]
	str	r2, [r3]
.LBE2:
	.loc 1 931 45
	b	.L207
.L210:
	.loc 1 946 5
	ldr	r3, [fp, #4]
	add	r2, r3, #7
	cmp	r3, #0
	movlt	r3, r2
	movge	r3, r3
	asr	r3, r3, #3
	ldr	r2, [fp, #-36]
	ldrd	r0, [fp, #-52]
	bl	AssignValue_VA(PLT)
	str	r0, [fp, #-40]
	ldr	r3, [fp, #-40]
	cmp	r3, #0
	beq	.L214
	.loc 1 946 5 is_stmt 0 discriminator 1
	ldr	r3, .L215+64
.LPIC216:
	add	r3, pc, r3
	str	r3, [sp, #8]
	ldr	r3, .L215+68
.LPIC217:
	add	r3, pc, r3
	str	r3, [sp, #4]
	ldr	r3, [fp, #-40]
	str	r3, [sp]
	movw	r3, #946
	ldr	r2, .L215+72
.LPIC218:
	add	r2, pc, r2
	ldr	r1, .L215+76
.LPIC219:
	add	r1, pc, r1
	mov	r0, #69
	bl	siFormattedMessage_SC(PLT)
	b	.L207
.L214:
	.loc 1 949 1 is_stmt 1
	nop
.L207:
	.loc 1 950 10
	ldr	r3, [fp, #-40]
	.loc 1 951 1
	mov	r0, r3
	sub	sp, fp, #28
	.cfi_def_cfa 13, 32
	@ sp needed
	pop	{r4, r5, r6, r7, r8, r9, fp, pc}
.L216:
	.align	2
.L215:
	.word	.LC85-(.LPIC200+8)
	.word	.LC4-(.LPIC201+8)
	.word	.LC84-(.LPIC202+8)
	.word	.LC2-(.LPIC203+8)
	.word	.LC78-(.LPIC204+8)
	.word	.LC4-(.LPIC205+8)
	.word	.LC84-(.LPIC206+8)
	.word	.LC2-(.LPIC207+8)
	.word	.LC86-(.LPIC208+8)
	.word	.LC4-(.LPIC209+8)
	.word	.LC84-(.LPIC210+8)
	.word	.LC2-(.LPIC211+8)
	.word	.LC87-(.LPIC212+8)
	.word	.LC4-(.LPIC213+8)
	.word	.LC84-(.LPIC214+8)
	.word	.LC2-(.LPIC215+8)
	.word	.LC88-(.LPIC216+8)
	.word	.LC4-(.LPIC217+8)
	.word	.LC5-(.LPIC218+8)
	.word	.LC2-(.LPIC219+8)
	.cfi_endproc
.LFE16:
	.size	AssignValue_VAB, .-AssignValue_VAB
	.align	2
	.global	RecoverValue_VA
	.syntax unified
	.arm
	.fpu vfpv3
	.type	RecoverValue_VA, %function
RecoverValue_VA:
.LFB17:
	.loc 1 959 1
	.cfi_startproc
	@ args = 0, pretend = 0, frame = 32
	@ frame_needed = 1, uses_anonymous_args = 0
	push	{r4, r5, r6, r7, r8, r9, fp, lr}
	.cfi_def_cfa_offset 32
	.cfi_offset 4, -32
	.cfi_offset 5, -28
	.cfi_offset 6, -24
	.cfi_offset 7, -20
	.cfi_offset 8, -16
	.cfi_offset 9, -12
	.cfi_offset 11, -8
	.cfi_offset 14, -4
	add	fp, sp, #28
	.cfi_def_cfa 11, 4
	sub	sp, sp, #48
	str	r0, [fp, #-40]
	str	r1, [fp, #-44]
	str	r2, [fp, #-48]
	.loc 1 960 16
	mov	r3, #0
	str	r3, [fp, #-32]
	.loc 1 962 3
	ldr	r3, [fp, #-40]
	cmp	r3, #0
	bne	.L218
	.loc 1 962 3 is_stmt 0 discriminator 1
	ldr	r3, .L228
.LPIC220:
	add	r3, pc, r3
	str	r3, [sp, #8]
	ldr	r3, .L228+4
.LPIC221:
	add	r3, pc, r3
	str	r3, [sp, #4]
	mvn	r3, #256
	str	r3, [sp]
	movw	r3, #962
	ldr	r2, .L228+8
.LPIC222:
	add	r2, pc, r2
	ldr	r1, .L228+12
.LPIC223:
	add	r1, pc, r1
	mov	r0, #69
	bl	siFormattedMessage_SC(PLT)
	mvn	r3, #256
	str	r3, [fp, #-32]
	b	.L219
.L218:
	.loc 1 967 3 is_stmt 1
	ldr	r3, [fp, #-44]
	cmp	r3, #0
	bne	.L220
	.loc 1 967 3 is_stmt 0 discriminator 1
	ldr	r3, .L228+16
.LPIC224:
	add	r3, pc, r3
	str	r3, [sp, #8]
	ldr	r3, .L228+20
.LPIC225:
	add	r3, pc, r3
	str	r3, [sp, #4]
	mvn	r3, #256
	str	r3, [sp]
	movw	r3, #967
	ldr	r2, .L228+24
.LPIC226:
	add	r2, pc, r2
	ldr	r1, .L228+28
.LPIC227:
	add	r1, pc, r1
	mov	r0, #69
	bl	siFormattedMessage_SC(PLT)
	mvn	r3, #256
	str	r3, [fp, #-32]
	b	.L219
.L220:
	.loc 1 972 3 is_stmt 1
	ldr	r3, [fp, #-48]
	cmp	r3, #0
	bne	.L221
	.loc 1 972 3 is_stmt 0 discriminator 1
	ldr	r3, .L228+32
.LPIC228:
	add	r3, pc, r3
	str	r3, [sp, #8]
	ldr	r3, .L228+36
.LPIC229:
	add	r3, pc, r3
	str	r3, [sp, #4]
	mvn	r3, #256
	str	r3, [sp]
	mov	r3, #972
	ldr	r2, .L228+40
.LPIC230:
	add	r2, pc, r2
	ldr	r1, .L228+44
.LPIC231:
	add	r1, pc, r1
	mov	r0, #69
	bl	siFormattedMessage_SC(PLT)
	mvn	r3, #256
	str	r3, [fp, #-32]
	b	.L219
.L221:
	.loc 1 977 5 is_stmt 1
	ldr	r3, [fp, #-48]
	cmp	r3, #8
	bne	.L222
	.loc 1 978 39
	ldr	r3, [fp, #-44]
	ldrd	r2, [r3]
	.loc 1 978 38
	ldr	r1, [fp, #-40]
	strd	r2, [r1]
	b	.L219
.L222:
	.loc 1 979 11
	ldr	r3, [fp, #-48]
	cmp	r3, #4
	bne	.L223
	.loc 1 980 39
	ldr	r3, [fp, #-44]
	ldr	r3, [r3]
	mov	r2, #0
	str	r3, [fp, #-60]
	str	r2, [fp, #-56]
	.loc 1 980 38
	ldr	r3, [fp, #-40]
	ldrd	r0, [fp, #-60]
	strd	r0, [r3]
	b	.L219
.L223:
	.loc 1 981 11
	ldr	r3, [fp, #-48]
	cmp	r3, #4
	bne	.L224
	.loc 1 982 39
	ldr	r3, [fp, #-44]
	ldr	r3, [r3]
	mov	r2, #0
	mov	r8, r3
	mov	r9, r2
	.loc 1 982 38
	ldr	r3, [fp, #-40]
	strd	r8, [r3]
	b	.L219
.L224:
	.loc 1 983 12
	ldr	r3, [fp, #-48]
	cmp	r3, #2
	bne	.L225
	.loc 1 984 39
	ldr	r3, [fp, #-44]
	ldrh	r3, [r3]
	uxth	r3, r3
	mov	r2, #0
	mov	r6, r3
	mov	r7, r2
	.loc 1 984 38
	ldr	r3, [fp, #-40]
	strd	r6, [r3]
	b	.L219
.L225:
	.loc 1 985 11
	ldr	r3, [fp, #-48]
	cmp	r3, #1
	bne	.L226
	.loc 1 986 39
	ldr	r3, [fp, #-44]
	ldrb	r3, [r3]	@ zero_extendqisi2
	uxtb	r3, r3
	mov	r2, #0
	mov	r4, r3
	mov	r5, r2
	.loc 1 986 38
	ldr	r3, [fp, #-40]
	strd	r4, [r3]
	b	.L219
.L226:
	.loc 1 988 7
	ldr	r3, .L228+48
.LPIC232:
	add	r3, pc, r3
	str	r3, [sp, #8]
	ldr	r3, .L228+52
.LPIC233:
	add	r3, pc, r3
	str	r3, [sp, #4]
	mvn	r3, #3840
	str	r3, [sp]
	mov	r3, #988
	ldr	r2, .L228+56
.LPIC234:
	add	r2, pc, r2
	ldr	r1, .L228+60
.LPIC235:
	add	r1, pc, r1
	mov	r0, #69
	bl	siFormattedMessage_SC(PLT)
	mvn	r3, #3840
	str	r3, [fp, #-32]
	nop
.L219:
	.loc 1 996 10
	ldr	r3, [fp, #-32]
	.loc 1 997 1
	mov	r0, r3
	sub	sp, fp, #28
	.cfi_def_cfa 13, 32
	@ sp needed
	pop	{r4, r5, r6, r7, r8, r9, fp, pc}
.L229:
	.align	2
.L228:
	.word	.LC71-(.LPIC220+8)
	.word	.LC4-(.LPIC221+8)
	.word	.LC76-(.LPIC222+8)
	.word	.LC2-(.LPIC223+8)
	.word	.LC77-(.LPIC224+8)
	.word	.LC4-(.LPIC225+8)
	.word	.LC76-(.LPIC226+8)
	.word	.LC2-(.LPIC227+8)
	.word	.LC78-(.LPIC228+8)
	.word	.LC4-(.LPIC229+8)
	.word	.LC76-(.LPIC230+8)
	.word	.LC2-(.LPIC231+8)
	.word	.LC83-(.LPIC232+8)
	.word	.LC4-(.LPIC233+8)
	.word	.LC76-(.LPIC234+8)
	.word	.LC2-(.LPIC235+8)
	.cfi_endproc
.LFE17:
	.size	RecoverValue_VA, .-RecoverValue_VA
	.section	.rodata
	.align	2
.LC89:
	.ascii	"RecoverValue_VAB\000"
	.align	2
.LC90:
	.ascii	"RecoverValue_VA(psllValue, pulValue, siBitLen/8)\000"
	.text
	.align	2
	.global	RecoverValue_VAB
	.syntax unified
	.arm
	.fpu vfpv3
	.type	RecoverValue_VAB, %function
RecoverValue_VAB:
.LFB18:
	.loc 1 1007 1
	.cfi_startproc
	@ args = 4, pretend = 0, frame = 32
	@ frame_needed = 1, uses_anonymous_args = 0
	push	{r4, r5, fp, lr}
	.cfi_def_cfa_offset 16
	.cfi_offset 4, -16
	.cfi_offset 5, -12
	.cfi_offset 11, -8
	.cfi_offset 14, -4
	add	fp, sp, #12
	.cfi_def_cfa 11, 4
	sub	sp, sp, #48
	str	r0, [fp, #-32]
	str	r1, [fp, #-36]
	str	r2, [fp, #-40]
	str	r3, [fp, #-44]
	.loc 1 1008 16
	mov	r3, #0
	str	r3, [fp, #-24]
	.loc 1 1009 27
	ldr	r3, [fp, #-40]
	add	r2, r3, #7
	cmp	r3, #0
	movlt	r3, r2
	movge	r3, r3
	asr	r3, r3, #3
	mov	r2, r3
	.loc 1 1009 18
	ldr	r3, [fp, #-36]
	add	r3, r3, r2
	str	r3, [fp, #-20]
	.loc 1 1010 14
	ldr	r3, [fp, #-40]
	rsbs	r2, r3, #0
	and	r3, r3, #7
	and	r2, r2, #7
	rsbpl	r3, r2, #0
	str	r3, [fp, #-40]
	.loc 1 1012 3
	ldr	r3, [fp, #-32]
	cmp	r3, #0
	bne	.L231
	.loc 1 1012 3 is_stmt 0 discriminator 1
	ldr	r3, .L240
.LPIC236:
	add	r3, pc, r3
	str	r3, [sp, #8]
	ldr	r3, .L240+4
.LPIC237:
	add	r3, pc, r3
	str	r3, [sp, #4]
	mvn	r3, #256
	str	r3, [sp]
	mov	r3, #1012
	ldr	r2, .L240+8
.LPIC238:
	add	r2, pc, r2
	ldr	r1, .L240+12
.LPIC239:
	add	r1, pc, r1
	mov	r0, #69
	bl	siFormattedMessage_SC(PLT)
	mvn	r3, #256
	str	r3, [fp, #-24]
	b	.L232
.L231:
	.loc 1 1017 3 is_stmt 1
	ldr	r3, [fp, #-36]
	cmp	r3, #0
	bne	.L233
	.loc 1 1017 3 is_stmt 0 discriminator 1
	ldr	r3, .L240+16
.LPIC240:
	add	r3, pc, r3
	str	r3, [sp, #8]
	ldr	r3, .L240+20
.LPIC241:
	add	r3, pc, r3
	str	r3, [sp, #4]
	mvn	r3, #256
	str	r3, [sp]
	movw	r3, #1017
	ldr	r2, .L240+24
.LPIC242:
	add	r2, pc, r2
	ldr	r1, .L240+28
.LPIC243:
	add	r1, pc, r1
	mov	r0, #69
	bl	siFormattedMessage_SC(PLT)
	mvn	r3, #256
	str	r3, [fp, #-24]
	b	.L232
.L233:
	.loc 1 1022 3 is_stmt 1
	ldr	r3, [fp, #4]
	cmp	r3, #0
	bne	.L234
	.loc 1 1022 3 is_stmt 0 discriminator 1
	ldr	r3, .L240+32
.LPIC244:
	add	r3, pc, r3
	str	r3, [sp, #8]
	ldr	r3, .L240+36
.LPIC245:
	add	r3, pc, r3
	str	r3, [sp, #4]
	mvn	r3, #256
	str	r3, [sp]
	movw	r3, #1022
	ldr	r2, .L240+40
.LPIC246:
	add	r2, pc, r2
	ldr	r1, .L240+44
.LPIC247:
	add	r1, pc, r1
	mov	r0, #69
	bl	siFormattedMessage_SC(PLT)
	mvn	r3, #256
	str	r3, [fp, #-24]
	b	.L232
.L234:
	.loc 1 1027 5 is_stmt 1
	ldr	r3, [fp, #-40]
	cmp	r3, #0
	bne	.L235
	.loc 1 1027 17 discriminator 1
	ldr	r3, [fp, #-44]
	and	r3, r3, #7
	cmp	r3, #0
	beq	.L236
.L235:
.LBB3:
	.loc 1 1028 44
	mov	r2, #1
	ldr	r3, [fp, #-44]
	lsl	r3, r2, r3
	.loc 1 1028 19
	sub	r3, r3, #1
	str	r3, [fp, #-16]
	.loc 1 1029 5
	ldr	r2, [fp, #-40]
	ldr	r3, [fp, #-44]
	add	r3, r2, r3
	cmp	r3, #32
	bls	.L237
	.loc 1 1029 5 is_stmt 0 discriminator 1
	ldr	r3, .L240+48
.LPIC248:
	add	r3, pc, r3
	str	r3, [sp, #8]
	ldr	r3, .L240+52
.LPIC249:
	add	r3, pc, r3
	str	r3, [sp, #4]
	mvn	r3, #256
	str	r3, [sp]
	movw	r3, #1029
	ldr	r2, .L240+56
.LPIC250:
	add	r2, pc, r2
	ldr	r1, .L240+60
.LPIC251:
	add	r1, pc, r1
	mov	r0, #69
	bl	siFormattedMessage_SC(PLT)
	mvn	r3, #256
	str	r3, [fp, #-24]
	b	.L232
.L237:
	.loc 1 1034 38 is_stmt 1
	ldr	r3, [fp, #-20]
	ldr	r2, [r3]
	.loc 1 1034 47
	ldr	r3, [fp, #-40]
	lsr	r2, r2, r3
	.loc 1 1034 61
	ldr	r3, [fp, #-16]
	and	r3, r3, r2
	mov	r2, #0
	mov	r4, r3
	mov	r5, r2
	.loc 1 1034 36
	ldr	r3, [fp, #-32]
	strd	r4, [r3]
.LBE3:
	.loc 1 1027 30
	b	.L232
.L236:
	.loc 1 1036 5
	ldr	r3, [fp, #-44]
	add	r2, r3, #7
	cmp	r3, #0
	movlt	r3, r2
	movge	r3, r3
	asr	r3, r3, #3
	mov	r2, r3
	ldr	r1, [fp, #-20]
	ldr	r0, [fp, #-32]
	bl	RecoverValue_VA(PLT)
	str	r0, [fp, #-24]
	ldr	r3, [fp, #-24]
	cmp	r3, #0
	beq	.L239
	.loc 1 1036 5 is_stmt 0 discriminator 1
	ldr	r3, .L240+64
.LPIC252:
	add	r3, pc, r3
	str	r3, [sp, #8]
	ldr	r3, .L240+68
.LPIC253:
	add	r3, pc, r3
	str	r3, [sp, #4]
	ldr	r3, [fp, #-24]
	str	r3, [sp]
	movw	r3, #1036
	ldr	r2, .L240+72
.LPIC254:
	add	r2, pc, r2
	ldr	r1, .L240+76
.LPIC255:
	add	r1, pc, r1
	mov	r0, #69
	bl	siFormattedMessage_SC(PLT)
	b	.L232
.L239:
	.loc 1 1039 1 is_stmt 1
	nop
.L232:
	.loc 1 1040 10
	ldr	r3, [fp, #-24]
	.loc 1 1041 1
	mov	r0, r3
	sub	sp, fp, #12
	.cfi_def_cfa 13, 16
	@ sp needed
	pop	{r4, r5, fp, pc}
.L241:
	.align	2
.L240:
	.word	.LC71-(.LPIC236+8)
	.word	.LC4-(.LPIC237+8)
	.word	.LC89-(.LPIC238+8)
	.word	.LC2-(.LPIC239+8)
	.word	.LC85-(.LPIC240+8)
	.word	.LC4-(.LPIC241+8)
	.word	.LC89-(.LPIC242+8)
	.word	.LC2-(.LPIC243+8)
	.word	.LC78-(.LPIC244+8)
	.word	.LC4-(.LPIC245+8)
	.word	.LC89-(.LPIC246+8)
	.word	.LC2-(.LPIC247+8)
	.word	.LC86-(.LPIC248+8)
	.word	.LC4-(.LPIC249+8)
	.word	.LC89-(.LPIC250+8)
	.word	.LC2-(.LPIC251+8)
	.word	.LC90-(.LPIC252+8)
	.word	.LC4-(.LPIC253+8)
	.word	.LC5-(.LPIC254+8)
	.word	.LC2-(.LPIC255+8)
	.cfi_endproc
.LFE18:
	.size	RecoverValue_VAB, .-RecoverValue_VAB
	.section	.rodata
	.align	2
.LC91:
	.ascii	"ParseAsciiEquEx(cszString, NULL, &sllValue)\000"
	.align	2
.LC92:
	.ascii	"AssignValue_VA(sllValue, pvalue, siElementSize)\000"
	.text
	.align	2
	.global	ParseAsciiEqu_VA
	.syntax unified
	.arm
	.fpu vfpv3
	.type	ParseAsciiEqu_VA, %function
ParseAsciiEqu_VA:
.LFB19:
	.loc 1 1050 1
	.cfi_startproc
	@ args = 0, pretend = 0, frame = 40
	@ frame_needed = 1, uses_anonymous_args = 0
	push	{fp, lr}
	.cfi_def_cfa_offset 8
	.cfi_offset 11, -8
	.cfi_offset 14, -4
	add	fp, sp, #4
	.cfi_def_cfa 11, 4
	sub	sp, sp, #56
	str	r0, [fp, #-32]
	str	r1, [fp, #-36]
	str	r2, [fp, #-40]
	.loc 1 1050 1
	ldr	r2, .L250
.LPIC272:
	add	r2, pc, r2
	ldr	r3, .L250+4
	ldr	r3, [r2, r3]
	ldr	r3, [r3]
	str	r3, [fp, #-8]
	mov	r3, #0
	.loc 1 1052 16
	mov	r3, #0
	str	r3, [fp, #-24]
	.loc 1 1054 3
	ldr	r3, [fp, #-32]
	cmp	r3, #0
	bne	.L243
	.loc 1 1054 3 is_stmt 0 discriminator 1
	ldr	r3, .L250+8
.LPIC256:
	add	r3, pc, r3
	str	r3, [sp, #8]
	ldr	r3, .L250+12
.LPIC257:
	add	r3, pc, r3
	str	r3, [sp, #4]
	mvn	r3, #256
	str	r3, [sp]
	movw	r3, #1054
	ldr	r2, .L250+16
.LPIC258:
	add	r2, pc, r2
	ldr	r1, .L250+20
.LPIC259:
	add	r1, pc, r1
	mov	r0, #69
	bl	siFormattedMessage_SC(PLT)
	mvn	r3, #256
	str	r3, [fp, #-24]
	b	.L244
.L243:
	.loc 1 1059 3 is_stmt 1
	ldr	r3, [fp, #-36]
	cmp	r3, #0
	bne	.L245
	.loc 1 1059 3 is_stmt 0 discriminator 1
	ldr	r3, .L250+24
.LPIC260:
	add	r3, pc, r3
	str	r3, [sp, #8]
	ldr	r3, .L250+28
.LPIC261:
	add	r3, pc, r3
	str	r3, [sp, #4]
	mvn	r3, #256
	str	r3, [sp]
	movw	r3, #1059
	ldr	r2, .L250+32
.LPIC262:
	add	r2, pc, r2
	ldr	r1, .L250+36
.LPIC263:
	add	r1, pc, r1
	mov	r0, #69
	bl	siFormattedMessage_SC(PLT)
	mvn	r3, #256
	str	r3, [fp, #-24]
	b	.L244
.L245:
	.loc 1 1064 3 is_stmt 1
	ldr	r3, [fp, #-40]
	mov	r2, r3
	mov	r1, #0
	ldr	r0, [fp, #-36]
	bl	memset(PLT)
	.loc 1 1065 3
	sub	r3, fp, #20
	mov	r2, r3
	mov	r1, #0
	ldr	r0, [fp, #-32]
	bl	ParseAsciiEquEx(PLT)
	str	r0, [fp, #-24]
	ldr	r3, [fp, #-24]
	cmp	r3, #0
	beq	.L246
	.loc 1 1065 3 is_stmt 0 discriminator 1
	ldr	r3, .L250+40
.LPIC264:
	add	r3, pc, r3
	str	r3, [sp, #8]
	ldr	r3, .L250+44
.LPIC265:
	add	r3, pc, r3
	str	r3, [sp, #4]
	ldr	r3, [fp, #-24]
	str	r3, [sp]
	movw	r3, #1065
	ldr	r2, .L250+48
.LPIC266:
	add	r2, pc, r2
	ldr	r1, .L250+52
.LPIC267:
	add	r1, pc, r1
	mov	r0, #69
	bl	siFormattedMessage_SC(PLT)
	b	.L244
.L246:
	.loc 1 1066 3 is_stmt 1
	ldrd	r0, [fp, #-20]
	ldr	r3, [fp, #-40]
	ldr	r2, [fp, #-36]
	bl	AssignValue_VA(PLT)
	str	r0, [fp, #-24]
	ldr	r3, [fp, #-24]
	cmp	r3, #0
	beq	.L249
	.loc 1 1066 3 is_stmt 0 discriminator 1
	ldr	r3, .L250+56
.LPIC268:
	add	r3, pc, r3
	str	r3, [sp, #8]
	ldr	r3, .L250+60
.LPIC269:
	add	r3, pc, r3
	str	r3, [sp, #4]
	ldr	r3, [fp, #-24]
	str	r3, [sp]
	movw	r3, #1066
	ldr	r2, .L250+64
.LPIC270:
	add	r2, pc, r2
	ldr	r1, .L250+68
.LPIC271:
	add	r1, pc, r1
	mov	r0, #69
	bl	siFormattedMessage_SC(PLT)
	b	.L244
.L249:
	.loc 1 1068 1 is_stmt 1
	nop
.L244:
	.loc 1 1069 10
	ldr	r3, [fp, #-24]
	.loc 1 1050 1
	ldr	r1, .L250+72
.LPIC273:
	add	r1, pc, r1
	.loc 1 1070 1
	ldr	r2, .L250+4
	ldr	r2, [r1, r2]
	ldr	r1, [r2]
	ldr	r2, [fp, #-8]
	eors	r1, r2, r1
	mov	r2, #0
	beq	.L248
	bl	__stack_chk_fail(PLT)
.L248:
	mov	r0, r3
	sub	sp, fp, #4
	.cfi_def_cfa 13, 8
	@ sp needed
	pop	{fp, pc}
.L251:
	.align	2
.L250:
	.word	_GLOBAL_OFFSET_TABLE_-(.LPIC272+8)
	.word	__stack_chk_guard(GOT)
	.word	.LC70-(.LPIC256+8)
	.word	.LC4-(.LPIC257+8)
	.word	.LC76-(.LPIC258+8)
	.word	.LC2-(.LPIC259+8)
	.word	.LC77-(.LPIC260+8)
	.word	.LC4-(.LPIC261+8)
	.word	.LC76-(.LPIC262+8)
	.word	.LC2-(.LPIC263+8)
	.word	.LC91-(.LPIC264+8)
	.word	.LC4-(.LPIC265+8)
	.word	.LC5-(.LPIC266+8)
	.word	.LC2-(.LPIC267+8)
	.word	.LC92-(.LPIC268+8)
	.word	.LC4-(.LPIC269+8)
	.word	.LC5-(.LPIC270+8)
	.word	.LC2-(.LPIC271+8)
	.word	_GLOBAL_OFFSET_TABLE_-(.LPIC273+8)
	.cfi_endproc
.LFE19:
	.size	ParseAsciiEqu_VA, .-ParseAsciiEqu_VA
	.section	.rodata
	.align	2
.LC93:
	.ascii	"ParseAsciiEquEx_VA\000"
	.align	2
.LC94:
	.ascii	"ParseAsciiEquEx(cszString, pMacros, &sllValue)\000"
	.text
	.align	2
	.global	ParseAsciiEquEx_VA
	.syntax unified
	.arm
	.fpu vfpv3
	.type	ParseAsciiEquEx_VA, %function
ParseAsciiEquEx_VA:
.LFB20:
	.loc 1 1078 1
	.cfi_startproc
	@ args = 0, pretend = 0, frame = 40
	@ frame_needed = 1, uses_anonymous_args = 0
	push	{fp, lr}
	.cfi_def_cfa_offset 8
	.cfi_offset 11, -8
	.cfi_offset 14, -4
	add	fp, sp, #4
	.cfi_def_cfa 11, 4
	sub	sp, sp, #56
	str	r0, [fp, #-32]
	str	r1, [fp, #-36]
	str	r2, [fp, #-40]
	str	r3, [fp, #-44]
	.loc 1 1078 1
	ldr	r2, .L260
.LPIC290:
	add	r2, pc, r2
	ldr	r3, .L260+4
	ldr	r3, [r2, r3]
	ldr	r3, [r3]
	str	r3, [fp, #-8]
	mov	r3, #0
	.loc 1 1080 16
	mov	r3, #0
	str	r3, [fp, #-24]
	.loc 1 1082 3
	ldr	r3, [fp, #-32]
	cmp	r3, #0
	bne	.L253
	.loc 1 1082 3 is_stmt 0 discriminator 1
	ldr	r3, .L260+8
.LPIC274:
	add	r3, pc, r3
	str	r3, [sp, #8]
	ldr	r3, .L260+12
.LPIC275:
	add	r3, pc, r3
	str	r3, [sp, #4]
	mvn	r3, #256
	str	r3, [sp]
	movw	r3, #1082
	ldr	r2, .L260+16
.LPIC276:
	add	r2, pc, r2
	ldr	r1, .L260+20
.LPIC277:
	add	r1, pc, r1
	mov	r0, #69
	bl	siFormattedMessage_SC(PLT)
	mvn	r3, #256
	str	r3, [fp, #-24]
	b	.L254
.L253:
	.loc 1 1087 3 is_stmt 1
	ldr	r3, [fp, #-40]
	cmp	r3, #0
	bne	.L255
	.loc 1 1087 3 is_stmt 0 discriminator 1
	ldr	r3, .L260+24
.LPIC278:
	add	r3, pc, r3
	str	r3, [sp, #8]
	ldr	r3, .L260+28
.LPIC279:
	add	r3, pc, r3
	str	r3, [sp, #4]
	mvn	r3, #256
	str	r3, [sp]
	movw	r3, #1087
	ldr	r2, .L260+32
.LPIC280:
	add	r2, pc, r2
	ldr	r1, .L260+36
.LPIC281:
	add	r1, pc, r1
	mov	r0, #69
	bl	siFormattedMessage_SC(PLT)
	mvn	r3, #256
	str	r3, [fp, #-24]
	b	.L254
.L255:
	.loc 1 1092 3 is_stmt 1
	ldr	r3, [fp, #-44]
	mov	r2, r3
	mov	r1, #0
	ldr	r0, [fp, #-40]
	bl	memset(PLT)
	.loc 1 1093 3
	sub	r3, fp, #20
	mov	r2, r3
	ldr	r1, [fp, #-36]
	ldr	r0, [fp, #-32]
	bl	ParseAsciiEquEx(PLT)
	str	r0, [fp, #-24]
	ldr	r3, [fp, #-24]
	cmp	r3, #0
	beq	.L256
	.loc 1 1093 3 is_stmt 0 discriminator 1
	ldr	r3, .L260+40
.LPIC282:
	add	r3, pc, r3
	str	r3, [sp, #8]
	ldr	r3, .L260+44
.LPIC283:
	add	r3, pc, r3
	str	r3, [sp, #4]
	ldr	r3, [fp, #-24]
	str	r3, [sp]
	movw	r3, #1093
	ldr	r2, .L260+48
.LPIC284:
	add	r2, pc, r2
	ldr	r1, .L260+52
.LPIC285:
	add	r1, pc, r1
	mov	r0, #69
	bl	siFormattedMessage_SC(PLT)
	b	.L254
.L256:
	.loc 1 1094 3 is_stmt 1
	ldrd	r0, [fp, #-20]
	ldr	r3, [fp, #-44]
	ldr	r2, [fp, #-40]
	bl	AssignValue_VA(PLT)
	str	r0, [fp, #-24]
	ldr	r3, [fp, #-24]
	cmp	r3, #0
	beq	.L259
	.loc 1 1094 3 is_stmt 0 discriminator 1
	ldr	r3, .L260+56
.LPIC286:
	add	r3, pc, r3
	str	r3, [sp, #8]
	ldr	r3, .L260+60
.LPIC287:
	add	r3, pc, r3
	str	r3, [sp, #4]
	ldr	r3, [fp, #-24]
	str	r3, [sp]
	movw	r3, #1094
	ldr	r2, .L260+64
.LPIC288:
	add	r2, pc, r2
	ldr	r1, .L260+68
.LPIC289:
	add	r1, pc, r1
	mov	r0, #69
	bl	siFormattedMessage_SC(PLT)
	b	.L254
.L259:
	.loc 1 1096 1 is_stmt 1
	nop
.L254:
	.loc 1 1097 10
	ldr	r3, [fp, #-24]
	.loc 1 1078 1
	ldr	r1, .L260+72
.LPIC291:
	add	r1, pc, r1
	.loc 1 1098 1
	ldr	r2, .L260+4
	ldr	r2, [r1, r2]
	ldr	r1, [r2]
	ldr	r2, [fp, #-8]
	eors	r1, r2, r1
	mov	r2, #0
	beq	.L258
	bl	__stack_chk_fail(PLT)
.L258:
	mov	r0, r3
	sub	sp, fp, #4
	.cfi_def_cfa 13, 8
	@ sp needed
	pop	{fp, pc}
.L261:
	.align	2
.L260:
	.word	_GLOBAL_OFFSET_TABLE_-(.LPIC290+8)
	.word	__stack_chk_guard(GOT)
	.word	.LC70-(.LPIC274+8)
	.word	.LC4-(.LPIC275+8)
	.word	.LC93-(.LPIC276+8)
	.word	.LC2-(.LPIC277+8)
	.word	.LC77-(.LPIC278+8)
	.word	.LC4-(.LPIC279+8)
	.word	.LC93-(.LPIC280+8)
	.word	.LC2-(.LPIC281+8)
	.word	.LC94-(.LPIC282+8)
	.word	.LC4-(.LPIC283+8)
	.word	.LC5-(.LPIC284+8)
	.word	.LC2-(.LPIC285+8)
	.word	.LC92-(.LPIC286+8)
	.word	.LC4-(.LPIC287+8)
	.word	.LC5-(.LPIC288+8)
	.word	.LC2-(.LPIC289+8)
	.word	_GLOBAL_OFFSET_TABLE_-(.LPIC291+8)
	.cfi_endproc
.LFE20:
	.size	ParseAsciiEquEx_VA, .-ParseAsciiEquEx_VA
.Letext0:
	.file 2 "/home/hkh/buildroot-2022.02/output/host/arm-buildroot-linux-musleabihf/sysroot/usr/include/bits/alltypes.h"
	.file 3 "../../../include/EApi.h"
	.file 4 "../StrFuncs.h"
	.file 5 "/home/hkh/buildroot-2022.02/output/host/arm-buildroot-linux-musleabihf/sysroot/usr/include/string.h"
	.file 6 "../../include/EApiAHStr.h"
	.file 7 "../../include/DbgChk.h"
	.file 8 "/home/hkh/buildroot-2022.02/output/host/arm-buildroot-linux-musleabihf/sysroot/usr/include/ctype.h"
	.file 9 "/home/hkh/buildroot-2022.02/output/host/arm-buildroot-linux-musleabihf/sysroot/usr/include/stdlib.h"
	.section	.note.GNU-stack,"",%progbits
