	.cpu cortex-a9
	.eabi_attribute 28, 1
	.eabi_attribute 20, 1
	.eabi_attribute 21, 1
	.eabi_attribute 23, 3
	.eabi_attribute 24, 1
	.eabi_attribute 25, 1
	.eabi_attribute 26, 2
	.eabi_attribute 30, 6
	.eabi_attribute 34, 1
	.eabi_attribute 18, 4
	.file	"TokenFunc.c"
	.text
.Ltext0:
	.cfi_sections	.debug_frame
	.section	.rodata
	.align	2
.LC0:
	.ascii	"\000"
	.text
	.align	2
	.global	GetTokenFlags
	.arch armv7-a
	.arch_extension mp
	.arch_extension sec
	.syntax unified
	.arm
	.fpu vfpv3
	.type	GetTokenFlags, %function
GetTokenFlags:
.LFB1:
	.file 1 "/home/hkh/git/eapidk-code-r76-trunk/apps/EeePProg/linux/../TokenFunc.c"
	.loc 1 43 1
	.cfi_startproc
	@ args = 12, pretend = 0, frame = 32
	@ frame_needed = 1, uses_anonymous_args = 0
	push	{fp, lr}
	.cfi_def_cfa_offset 8
	.cfi_offset 11, -8
	.cfi_offset 14, -4
	add	fp, sp, #4
	.cfi_def_cfa 11, 4
	sub	sp, sp, #40
	str	r0, [fp, #-24]
	str	r1, [fp, #-28]
	str	r2, [fp, #-32]
	str	r3, [fp, #-36]
	.loc 1 44 22
	ldr	r3, [fp, #8]
	ldr	r3, [r3, #4]
	str	r3, [fp, #-16]
	.loc 1 45 22
	ldr	r3, [fp, #8]
	ldr	r3, [r3]
	str	r3, [fp, #-12]
	.loc 1 46 16
	mov	r3, #0
	str	r3, [fp, #-8]
	.loc 1 47 3
	b	.L2
.L5:
	.loc 1 48 27
	ldr	r3, [fp, #-16]
	ldr	r2, [r3, #4]
	.loc 1 48 15
	ldr	r3, [fp, #12]
	and	r3, r3, r2
	.loc 1 48 7
	cmp	r3, #0
	beq	.L3
	.loc 1 49 9
	ldr	r3, [fp, #-8]
	cmp	r3, #0
	beq	.L4
	.loc 1 50 19
	ldr	r2, [fp, #-24]
	ldr	r3, [fp, #-8]
	add	r0, r2, r3
	.loc 1 52 13
	ldr	r3, [fp, #-28]
	ldr	r3, [r3]
	mov	r2, r3
	.loc 1 50 19
	ldr	r3, [fp, #-8]
	sub	r1, r2, r3
	.loc 1 54 24
	ldr	r3, [fp, #-16]
	ldr	r3, [r3]
	.loc 1 50 19
	ldr	r2, [fp, #-36]
	bl	EApiSprintfA(PLT)
	mov	r3, r0
	mov	r2, r3
	.loc 1 50 17
	ldr	r3, [fp, #-8]
	add	r3, r3, r2
	str	r3, [fp, #-8]
	b	.L3
.L4:
	.loc 1 57 19
	ldr	r2, [fp, #-24]
	ldr	r3, [fp, #-8]
	add	r0, r2, r3
	.loc 1 59 13
	ldr	r3, [fp, #-28]
	ldr	r3, [r3]
	mov	r2, r3
	.loc 1 57 19
	ldr	r3, [fp, #-8]
	sub	r1, r2, r3
	.loc 1 62 24
	ldr	r3, [fp, #-16]
	ldr	r3, [r3]
	.loc 1 57 19
	str	r3, [sp]
	ldr	r3, [fp, #4]
	ldr	r2, [fp, #-32]
	bl	EApiSprintfA(PLT)
	mov	r3, r0
	mov	r2, r3
	.loc 1 57 17
	ldr	r3, [fp, #-8]
	add	r3, r3, r2
	str	r3, [fp, #-8]
.L3:
	.loc 1 47 34
	ldr	r3, [fp, #-16]
	add	r3, r3, #8
	str	r3, [fp, #-16]
.L2:
	.loc 1 47 20 discriminator 1
	ldr	r3, [fp, #-12]
	sub	r2, r3, #1
	str	r2, [fp, #-12]
	.loc 1 47 8 discriminator 1
	cmp	r3, #0
	bne	.L5
	.loc 1 67 5
	ldr	r3, [fp, #-8]
	cmp	r3, #0
	bne	.L6
	.loc 1 68 19
	ldr	r2, [fp, #-24]
	ldr	r3, [fp, #-8]
	add	r0, r2, r3
	.loc 1 70 13
	ldr	r3, [fp, #-28]
	ldr	r3, [r3]
	mov	r2, r3
	.loc 1 68 19
	ldr	r3, [fp, #-8]
	sub	r1, r2, r3
	ldr	r3, .L8
.LPIC0:
	add	r3, pc, r3
	str	r3, [sp]
	ldr	r3, [fp, #4]
	ldr	r2, [fp, #-32]
	bl	EApiSprintfA(PLT)
	mov	r3, r0
	mov	r2, r3
	.loc 1 68 17
	ldr	r3, [fp, #-8]
	add	r3, r3, r2
	str	r3, [fp, #-8]
.L6:
	.loc 1 75 16
	ldr	r2, [fp, #-8]
	ldr	r3, [fp, #-28]
	str	r2, [r3]
	.loc 1 76 10
	mov	r3, #0
	.loc 1 77 1
	mov	r0, r3
	sub	sp, fp, #4
	.cfi_def_cfa 13, 8
	@ sp needed
	pop	{fp, pc}
.L9:
	.align	2
.L8:
	.word	.LC0-(.LPIC0+8)
	.cfi_endproc
.LFE1:
	.size	GetTokenFlags, .-GetTokenFlags
	.section	.rodata
	.align	2
.LC1:
	.ascii	"%s\000"
	.align	2
.LC2:
	.ascii	"UNKNOWN VALUE(0x%08lX)\000"
	.text
	.align	2
	.global	GetValueToken
	.syntax unified
	.arm
	.fpu vfpv3
	.type	GetValueToken, %function
GetValueToken:
.LFB2:
	.loc 1 85 1
	.cfi_startproc
	@ args = 0, pretend = 0, frame = 24
	@ frame_needed = 1, uses_anonymous_args = 0
	push	{fp, lr}
	.cfi_def_cfa_offset 8
	.cfi_offset 11, -8
	.cfi_offset 14, -4
	add	fp, sp, #4
	.cfi_def_cfa 11, 4
	sub	sp, sp, #24
	str	r0, [fp, #-16]
	str	r1, [fp, #-20]
	str	r2, [fp, #-24]
	str	r3, [fp, #-28]
	.loc 1 86 22
	ldr	r3, [fp, #-24]
	ldr	r3, [r3, #4]
	str	r3, [fp, #-12]
	.loc 1 87 22
	ldr	r3, [fp, #-24]
	ldr	r3, [r3]
	str	r3, [fp, #-8]
	.loc 1 88 3
	b	.L11
.L14:
	.loc 1 89 28
	ldr	r3, [fp, #-12]
	ldr	r3, [r3, #4]
	.loc 1 89 7
	ldr	r2, [fp, #-28]
	cmp	r2, r3
	bne	.L12
	.loc 1 90 58
	ldr	r3, [fp, #-12]
	ldr	r3, [r3]
	.loc 1 90 7
	ldr	r2, .L15
.LPIC1:
	add	r2, pc, r2
	ldr	r1, [fp, #-20]
	ldr	r0, [fp, #-16]
	bl	EApiSprintfA(PLT)
	.loc 1 91 14
	mov	r3, #0
	b	.L13
.L12:
	.loc 1 88 34
	ldr	r3, [fp, #-12]
	add	r3, r3, #8
	str	r3, [fp, #-12]
.L11:
	.loc 1 88 20 discriminator 1
	ldr	r3, [fp, #-8]
	sub	r2, r3, #1
	str	r2, [fp, #-8]
	.loc 1 88 8 discriminator 1
	cmp	r3, #0
	bne	.L14
	.loc 1 94 3
	ldr	r3, [fp, #-28]
	ldr	r2, .L15+4
.LPIC2:
	add	r2, pc, r2
	ldr	r1, [fp, #-20]
	ldr	r0, [fp, #-16]
	bl	EApiSprintfA(PLT)
	.loc 1 95 10
	mvn	r3, #3840
.L13:
	.loc 1 96 1
	mov	r0, r3
	sub	sp, fp, #4
	.cfi_def_cfa 13, 8
	@ sp needed
	pop	{fp, pc}
.L16:
	.align	2
.L15:
	.word	.LC1-(.LPIC1+8)
	.word	.LC2-(.LPIC2+8)
	.cfi_endproc
.LFE2:
	.size	GetValueToken, .-GetValueToken
	.align	2
	.global	GetTokenValue
	.syntax unified
	.arm
	.fpu vfpv3
	.type	GetTokenValue, %function
GetTokenValue:
.LFB3:
	.loc 1 104 1
	.cfi_startproc
	@ args = 0, pretend = 0, frame = 24
	@ frame_needed = 1, uses_anonymous_args = 0
	push	{fp, lr}
	.cfi_def_cfa_offset 8
	.cfi_offset 11, -8
	.cfi_offset 14, -4
	add	fp, sp, #4
	.cfi_def_cfa 11, 4
	sub	sp, sp, #24
	str	r0, [fp, #-16]
	str	r1, [fp, #-20]
	str	r2, [fp, #-24]
	.loc 1 105 22
	ldr	r3, [fp, #-16]
	ldr	r3, [r3, #4]
	str	r3, [fp, #-12]
	.loc 1 106 22
	ldr	r3, [fp, #-16]
	ldr	r3, [r3]
	str	r3, [fp, #-8]
	.loc 1 107 12
	ldr	r3, [fp, #-24]
	mov	r2, #0
	str	r2, [r3]
	.loc 1 108 3
	b	.L18
.L21:
	.loc 1 109 27
	ldr	r3, [fp, #-12]
	ldr	r3, [r3]
	.loc 1 109 9
	ldr	r1, [fp, #-20]
	mov	r0, r3
	bl	strcmp(PLT)
	mov	r3, r0
	.loc 1 109 7
	cmp	r3, #0
	bne	.L19
	.loc 1 110 28
	ldr	r3, [fp, #-12]
	ldr	r2, [r3, #4]
	.loc 1 110 16
	ldr	r3, [fp, #-24]
	str	r2, [r3]
	.loc 1 111 14
	mov	r3, #0
	b	.L20
.L19:
	.loc 1 108 34
	ldr	r3, [fp, #-12]
	add	r3, r3, #8
	str	r3, [fp, #-12]
.L18:
	.loc 1 108 20 discriminator 1
	ldr	r3, [fp, #-8]
	sub	r2, r3, #1
	str	r2, [fp, #-8]
	.loc 1 108 8 discriminator 1
	cmp	r3, #0
	bne	.L21
	.loc 1 114 10
	mvn	r3, #3840
.L20:
	.loc 1 116 1
	mov	r0, r3
	sub	sp, fp, #4
	.cfi_def_cfa 13, 8
	@ sp needed
	pop	{fp, pc}
	.cfi_endproc
.LFE3:
	.size	GetTokenValue, .-GetTokenValue
	.align	2
	.global	GetTokenValueStrip
	.syntax unified
	.arm
	.fpu vfpv3
	.type	GetTokenValueStrip, %function
GetTokenValueStrip:
.LFB4:
	.loc 1 124 1
	.cfi_startproc
	@ args = 0, pretend = 0, frame = 16
	@ frame_needed = 1, uses_anonymous_args = 0
	push	{fp, lr}
	.cfi_def_cfa_offset 8
	.cfi_offset 11, -8
	.cfi_offset 14, -4
	add	fp, sp, #4
	.cfi_def_cfa 11, 4
	sub	sp, sp, #16
	str	r0, [fp, #-8]
	str	r1, [fp, #-12]
	str	r2, [fp, #-16]
	.loc 1 125 11
	ldr	r0, [fp, #-12]
	bl	skipWhiteSpaces(PLT)
	str	r0, [fp, #-12]
	.loc 1 126 3
	ldr	r0, [fp, #-12]
	bl	stripWhiteSpaces(PLT)
	.loc 1 127 10
	ldr	r2, [fp, #-16]
	ldr	r1, [fp, #-12]
	ldr	r0, [fp, #-8]
	bl	GetTokenValue(PLT)
	mov	r3, r0
	.loc 1 128 1
	mov	r0, r3
	sub	sp, fp, #4
	.cfi_def_cfa 13, 8
	@ sp needed
	pop	{fp, pc}
	.cfi_endproc
.LFE4:
	.size	GetTokenValueStrip, .-GetTokenValueStrip
.Letext0:
	.file 2 "/home/hkh/buildroot-2022.02/output/host/arm-buildroot-linux-musleabihf/sysroot/usr/include/bits/alltypes.h"
	.file 3 "../../../include/EApi.h"
	.file 4 "../TokenFunc.h"
	.file 5 "../StrFuncs.h"
	.file 6 "/home/hkh/buildroot-2022.02/output/host/arm-buildroot-linux-musleabihf/sysroot/usr/include/string.h"
	.file 7 "../../include/EApiAHStr.h"
	.section	.note.GNU-stack,"",%progbits
