	.file	"EApiEmulBacklight.c"
	.text
.Ltext0:
	.data
	.align 16
	.type	BacklightLookup, @object
	.size	BacklightLookup, 24
BacklightLookup:
	.long	0
	.long	0
	.long	0
	.long	1
	.long	-1
	.long	255
	.section	.rodata
.LC0:
	.string	"%s\n"
.LC1:
	.string	"EApiVgaGetBacklightEnableEmul"
	.align 8
.LC2:
	.string	"/home/hkh/git/eapidk-code-r76-trunk/lib/linux/../EApiEmulBacklight.c"
.LC3:
	.string	""
.LC4:
	.string	"Unrecognised Backlight ID"
	.text
	.globl	EApiVgaGetBacklightEnableEmul
	.hidden	EApiVgaGetBacklightEnableEmul
	.type	EApiVgaGetBacklightEnableEmul, @function
EApiVgaGetBacklightEnableEmul:
.LFB6:
	.file 1 "/home/hkh/git/eapidk-code-r76-trunk/lib/linux/../EApiEmulBacklight.c"
	.loc 1 64 1
	.cfi_startproc
	endbr64
	pushq	%rbp
	.cfi_def_cfa_offset 16
	.cfi_offset 6, -16
	movq	%rsp, %rbp
	.cfi_def_cfa_register 6
	subq	$32, %rsp
	movl	%edi, -20(%rbp)
	movq	%rsi, -32(%rbp)
	.loc 1 65 16
	movl	$0, -8(%rbp)
	.loc 1 68 8
	movl	$0, -4(%rbp)
	.loc 1 68 3
	jmp	.L2
.L5:
	.loc 1 70 28
	movl	-4(%rbp), %edx
	movq	%rdx, %rax
	addq	%rax, %rax
	addq	%rdx, %rax
	salq	$2, %rax
	movq	%rax, %rdx
	leaq	BacklightLookup(%rip), %rax
	movl	(%rdx,%rax), %eax
	.loc 1 70 9
	cmpl	%eax, -20(%rbp)
	jne	.L3
	.loc 1 72 36
	movl	-4(%rbp), %edx
	movq	%rdx, %rax
	addq	%rax, %rax
	addq	%rdx, %rax
	salq	$2, %rax
	movq	%rax, %rdx
	leaq	4+BacklightLookup(%rip), %rax
	movl	(%rdx,%rax), %edx
	.loc 1 72 17
	movq	-32(%rbp), %rax
	movl	%edx, (%rax)
	.loc 1 73 9
	subq	$8, %rsp
	leaq	.LC3(%rip), %rax
	pushq	%rax
	leaq	.LC0(%rip), %r9
	movl	$0, %r8d
	movl	$73, %ecx
	leaq	.LC1(%rip), %rdx
	leaq	.LC2(%rip), %rsi
	movl	$76, %edi
	movl	$0, %eax
	call	siFormattedMessage_SC@PLT
	addq	$16, %rsp
	movl	$0, -8(%rbp)
	jmp	.L4
.L3:
	.loc 1 68 42 discriminator 2
	addl	$1, -4(%rbp)
.L2:
	.loc 1 68 3 discriminator 1
	cmpl	$1, -4(%rbp)
	jbe	.L5
	.loc 1 79 3
	subq	$8, %rsp
	leaq	.LC4(%rip), %rax
	pushq	%rax
	leaq	.LC0(%rip), %r9
	movl	$-769, %r8d
	movl	$79, %ecx
	leaq	.LC1(%rip), %rdx
	leaq	.LC2(%rip), %rsi
	movl	$69, %edi
	movl	$0, %eax
	call	siFormattedMessage_SC@PLT
	addq	$16, %rsp
	movl	$-769, -8(%rbp)
	nop
.L4:
	.loc 1 86 10
	movl	-8(%rbp), %eax
	.loc 1 87 1
	leave
	.cfi_def_cfa 7, 8
	ret
	.cfi_endproc
.LFE6:
	.size	EApiVgaGetBacklightEnableEmul, .-EApiVgaGetBacklightEnableEmul
	.section	.rodata
.LC5:
	.string	"EApiVgaSetBacklightEnableEmul"
	.text
	.globl	EApiVgaSetBacklightEnableEmul
	.hidden	EApiVgaSetBacklightEnableEmul
	.type	EApiVgaSetBacklightEnableEmul, @function
EApiVgaSetBacklightEnableEmul:
.LFB7:
	.loc 1 94 1
	.cfi_startproc
	endbr64
	pushq	%rbp
	.cfi_def_cfa_offset 16
	.cfi_offset 6, -16
	movq	%rsp, %rbp
	.cfi_def_cfa_register 6
	subq	$32, %rsp
	movl	%edi, -20(%rbp)
	movl	%esi, -24(%rbp)
	.loc 1 95 16
	movl	$0, -8(%rbp)
	.loc 1 98 8
	movl	$0, -4(%rbp)
	.loc 1 98 3
	jmp	.L8
.L11:
	.loc 1 100 28
	movl	-4(%rbp), %edx
	movq	%rdx, %rax
	addq	%rax, %rax
	addq	%rdx, %rax
	salq	$2, %rax
	movq	%rax, %rdx
	leaq	BacklightLookup(%rip), %rax
	movl	(%rdx,%rax), %eax
	.loc 1 100 9
	cmpl	%eax, -20(%rbp)
	jne	.L9
	.loc 1 102 35
	movl	-4(%rbp), %edx
	movq	%rdx, %rax
	addq	%rax, %rax
	addq	%rdx, %rax
	salq	$2, %rax
	movq	%rax, %rcx
	leaq	4+BacklightLookup(%rip), %rdx
	movl	-24(%rbp), %eax
	movl	%eax, (%rcx,%rdx)
	.loc 1 103 9
	subq	$8, %rsp
	leaq	.LC3(%rip), %rax
	pushq	%rax
	leaq	.LC0(%rip), %r9
	movl	$0, %r8d
	movl	$103, %ecx
	leaq	.LC5(%rip), %rdx
	leaq	.LC2(%rip), %rsi
	movl	$76, %edi
	movl	$0, %eax
	call	siFormattedMessage_SC@PLT
	addq	$16, %rsp
	movl	$0, -8(%rbp)
	jmp	.L10
.L9:
	.loc 1 98 42 discriminator 2
	addl	$1, -4(%rbp)
.L8:
	.loc 1 98 3 discriminator 1
	cmpl	$1, -4(%rbp)
	jbe	.L11
	.loc 1 109 3
	subq	$8, %rsp
	leaq	.LC4(%rip), %rax
	pushq	%rax
	leaq	.LC0(%rip), %r9
	movl	$-769, %r8d
	movl	$109, %ecx
	leaq	.LC5(%rip), %rdx
	leaq	.LC2(%rip), %rsi
	movl	$69, %edi
	movl	$0, %eax
	call	siFormattedMessage_SC@PLT
	addq	$16, %rsp
	movl	$-769, -8(%rbp)
	nop
.L10:
	.loc 1 116 10
	movl	-8(%rbp), %eax
	.loc 1 117 1
	leave
	.cfi_def_cfa 7, 8
	ret
	.cfi_endproc
.LFE7:
	.size	EApiVgaSetBacklightEnableEmul, .-EApiVgaSetBacklightEnableEmul
	.section	.rodata
	.align 8
.LC6:
	.string	"EApiVgaGetBacklightBrightnessEmul"
	.text
	.globl	EApiVgaGetBacklightBrightnessEmul
	.hidden	EApiVgaGetBacklightBrightnessEmul
	.type	EApiVgaGetBacklightBrightnessEmul, @function
EApiVgaGetBacklightBrightnessEmul:
.LFB8:
	.loc 1 123 1
	.cfi_startproc
	endbr64
	pushq	%rbp
	.cfi_def_cfa_offset 16
	.cfi_offset 6, -16
	movq	%rsp, %rbp
	.cfi_def_cfa_register 6
	subq	$32, %rsp
	movl	%edi, -20(%rbp)
	movq	%rsi, -32(%rbp)
	.loc 1 124 16
	movl	$0, -8(%rbp)
	.loc 1 127 8
	movl	$0, -4(%rbp)
	.loc 1 127 3
	jmp	.L14
.L17:
	.loc 1 129 28
	movl	-4(%rbp), %edx
	movq	%rdx, %rax
	addq	%rax, %rax
	addq	%rdx, %rax
	salq	$2, %rax
	movq	%rax, %rdx
	leaq	BacklightLookup(%rip), %rax
	movl	(%rdx,%rax), %eax
	.loc 1 129 9
	cmpl	%eax, -20(%rbp)
	jne	.L15
	.loc 1 131 40
	movl	-4(%rbp), %edx
	movq	%rdx, %rax
	addq	%rax, %rax
	addq	%rdx, %rax
	salq	$2, %rax
	movq	%rax, %rdx
	leaq	8+BacklightLookup(%rip), %rax
	movl	(%rdx,%rax), %edx
	.loc 1 131 21
	movq	-32(%rbp), %rax
	movl	%edx, (%rax)
	.loc 1 132 9
	subq	$8, %rsp
	leaq	.LC3(%rip), %rax
	pushq	%rax
	leaq	.LC0(%rip), %r9
	movl	$0, %r8d
	movl	$132, %ecx
	leaq	.LC6(%rip), %rdx
	leaq	.LC2(%rip), %rsi
	movl	$76, %edi
	movl	$0, %eax
	call	siFormattedMessage_SC@PLT
	addq	$16, %rsp
	movl	$0, -8(%rbp)
	jmp	.L16
.L15:
	.loc 1 127 42 discriminator 2
	addl	$1, -4(%rbp)
.L14:
	.loc 1 127 3 discriminator 1
	cmpl	$1, -4(%rbp)
	jbe	.L17
	.loc 1 138 3
	subq	$8, %rsp
	leaq	.LC4(%rip), %rax
	pushq	%rax
	leaq	.LC0(%rip), %r9
	movl	$-769, %r8d
	movl	$138, %ecx
	leaq	.LC6(%rip), %rdx
	leaq	.LC2(%rip), %rsi
	movl	$69, %edi
	movl	$0, %eax
	call	siFormattedMessage_SC@PLT
	addq	$16, %rsp
	movl	$-769, -8(%rbp)
	nop
.L16:
	.loc 1 145 10
	movl	-8(%rbp), %eax
	.loc 1 146 1
	leave
	.cfi_def_cfa 7, 8
	ret
	.cfi_endproc
.LFE8:
	.size	EApiVgaGetBacklightBrightnessEmul, .-EApiVgaGetBacklightBrightnessEmul
	.section	.rodata
.LC7:
	.string	"EApiVgaSetBacklightBrightness"
	.align 8
.LC8:
	.string	"EApiVgaSetBacklightBrightnessEmul"
	.text
	.globl	EApiVgaSetBacklightBrightnessEmul
	.hidden	EApiVgaSetBacklightBrightnessEmul
	.type	EApiVgaSetBacklightBrightnessEmul, @function
EApiVgaSetBacklightBrightnessEmul:
.LFB9:
	.loc 1 153 1
	.cfi_startproc
	endbr64
	pushq	%rbp
	.cfi_def_cfa_offset 16
	.cfi_offset 6, -16
	movq	%rsp, %rbp
	.cfi_def_cfa_register 6
	subq	$32, %rsp
	movl	%edi, -20(%rbp)
	movl	%esi, -24(%rbp)
	.loc 1 154 16
	movl	$0, -8(%rbp)
	.loc 1 157 8
	movl	$0, -4(%rbp)
	.loc 1 157 3
	jmp	.L20
.L23:
	.loc 1 159 28
	movl	-4(%rbp), %edx
	movq	%rdx, %rax
	addq	%rax, %rax
	addq	%rdx, %rax
	salq	$2, %rax
	movq	%rax, %rdx
	leaq	BacklightLookup(%rip), %rax
	movl	(%rdx,%rax), %eax
	.loc 1 159 9
	cmpl	%eax, -20(%rbp)
	jne	.L21
	.loc 1 161 38
	movl	-4(%rbp), %edx
	movq	%rdx, %rax
	addq	%rax, %rax
	addq	%rdx, %rax
	salq	$2, %rax
	movq	%rax, %rcx
	leaq	8+BacklightLookup(%rip), %rdx
	movl	-24(%rbp), %eax
	movl	%eax, (%rcx,%rdx)
	.loc 1 162 9
	subq	$8, %rsp
	leaq	.LC3(%rip), %rax
	pushq	%rax
	leaq	.LC0(%rip), %r9
	movl	$0, %r8d
	movl	$162, %ecx
	leaq	.LC7(%rip), %rdx
	leaq	.LC2(%rip), %rsi
	movl	$76, %edi
	movl	$0, %eax
	call	siFormattedMessage_SC@PLT
	addq	$16, %rsp
	movl	$0, -8(%rbp)
	jmp	.L22
.L21:
	.loc 1 157 42 discriminator 2
	addl	$1, -4(%rbp)
.L20:
	.loc 1 157 3 discriminator 1
	cmpl	$1, -4(%rbp)
	jbe	.L23
	.loc 1 168 3
	subq	$8, %rsp
	leaq	.LC4(%rip), %rax
	pushq	%rax
	leaq	.LC0(%rip), %r9
	movl	$-769, %r8d
	movl	$168, %ecx
	leaq	.LC8(%rip), %rdx
	leaq	.LC2(%rip), %rsi
	movl	$69, %edi
	movl	$0, %eax
	call	siFormattedMessage_SC@PLT
	addq	$16, %rsp
	movl	$-769, -8(%rbp)
	nop
.L22:
	.loc 1 175 10
	movl	-8(%rbp), %eax
	.loc 1 176 1
	leave
	.cfi_def_cfa 7, 8
	ret
	.cfi_endproc
.LFE9:
	.size	EApiVgaSetBacklightBrightnessEmul, .-EApiVgaSetBacklightBrightnessEmul
.Letext0:
	.file 2 "/usr/include/x86_64-linux-gnu/bits/types.h"
	.file 3 "/usr/include/x86_64-linux-gnu/bits/stdint-uintn.h"
	.file 4 "/usr/include/stdint.h"
	.file 5 "/usr/include/unistd.h"
	.file 6 "/usr/include/x86_64-linux-gnu/bits/getopt_core.h"
	.file 7 "/usr/include/time.h"
	.file 8 "../../include/EApi.h"
	.section	.note.GNU-stack,"",@progbits
	.section	.note.gnu.property,"a"
	.align 8
	.long	 1f - 0f
	.long	 4f - 1f
	.long	 5
0:
	.string	 "GNU"
1:
	.align 8
	.long	 0xc0000002
	.long	 3f - 2f
2:
	.long	 0x3
3:
	.align 8
4:
