GAS LISTING /tmp/ccAG33yV.s 			page 1


   1              		.file	"EApiEmulGPIO.c"
   2              		.text
   3              	.Ltext0:
   4              		.data
   5              		.align 16
   8              	EmulatedIoBlock:
   9 0000 00A08200 		.long	8560640
  10 0004 00008200 		.long	8519680
  11 0008 00A08200 		.long	8560640
  12 000c 00008200 		.long	8519680
  13              		.text
  14              		.globl	EApiReadIO32
  15              		.hidden	EApiReadIO32
  17              	EApiReadIO32:
  18              	.LFB6:
  19              		.file 1 "/home/hkh/git/eapidk-code-r76-trunk/lib/linux/../EApiEmulGPIO.c"
   1:/home/hkh/git/eapidk-code-r76-trunk/lib/linux/../EApiEmulGPIO.c **** /*
   2:/home/hkh/git/eapidk-code-r76-trunk/lib/linux/../EApiEmulGPIO.c ****  *<KHeader>
   3:/home/hkh/git/eapidk-code-r76-trunk/lib/linux/../EApiEmulGPIO.c ****  *+=========================================================================
   4:/home/hkh/git/eapidk-code-r76-trunk/lib/linux/../EApiEmulGPIO.c ****  *I  Project Name: EApiDK Embedded Application Development Kit
   5:/home/hkh/git/eapidk-code-r76-trunk/lib/linux/../EApiEmulGPIO.c ****  *+=========================================================================
   6:/home/hkh/git/eapidk-code-r76-trunk/lib/linux/../EApiEmulGPIO.c ****  *I  $HeadURL: file:///svn/p/eapidk/code/trunk/lib/EApiEmulGPIO.c $
   7:/home/hkh/git/eapidk-code-r76-trunk/lib/linux/../EApiEmulGPIO.c ****  *+=========================================================================
   8:/home/hkh/git/eapidk-code-r76-trunk/lib/linux/../EApiEmulGPIO.c ****  *I   Copyright: Copyright (c) 2002-2009, Kontron Embedded Modules GmbH
   9:/home/hkh/git/eapidk-code-r76-trunk/lib/linux/../EApiEmulGPIO.c ****  *I      Author: John Kearney,                  John.Kearney@kontron.com
  10:/home/hkh/git/eapidk-code-r76-trunk/lib/linux/../EApiEmulGPIO.c ****  *I
  11:/home/hkh/git/eapidk-code-r76-trunk/lib/linux/../EApiEmulGPIO.c ****  *I     License: All rights reserved. This program and the accompanying 
  12:/home/hkh/git/eapidk-code-r76-trunk/lib/linux/../EApiEmulGPIO.c ****  *I              materials are licensed and made available under the 
  13:/home/hkh/git/eapidk-code-r76-trunk/lib/linux/../EApiEmulGPIO.c ****  *I              terms and conditions of the BSD License which 
  14:/home/hkh/git/eapidk-code-r76-trunk/lib/linux/../EApiEmulGPIO.c ****  *I              accompanies this distribution. The full text of the 
  15:/home/hkh/git/eapidk-code-r76-trunk/lib/linux/../EApiEmulGPIO.c ****  *I              license may be found at 
  16:/home/hkh/git/eapidk-code-r76-trunk/lib/linux/../EApiEmulGPIO.c ****  *I              http://opensource.org/licenses/bsd-license.php
  17:/home/hkh/git/eapidk-code-r76-trunk/lib/linux/../EApiEmulGPIO.c ****  *I              
  18:/home/hkh/git/eapidk-code-r76-trunk/lib/linux/../EApiEmulGPIO.c ****  *I              THE PROGRAM IS DISTRIBUTED UNDER THE BSD LICENSE ON AN "
  19:/home/hkh/git/eapidk-code-r76-trunk/lib/linux/../EApiEmulGPIO.c ****  *I              AS IS" BASIS, WITHOUT WARRANTIES OR REPRESENTATIONS OF 
  20:/home/hkh/git/eapidk-code-r76-trunk/lib/linux/../EApiEmulGPIO.c ****  *I              ANY KIND, EITHER EXPRESS OR IMPLIED.
  21:/home/hkh/git/eapidk-code-r76-trunk/lib/linux/../EApiEmulGPIO.c ****  *I
  22:/home/hkh/git/eapidk-code-r76-trunk/lib/linux/../EApiEmulGPIO.c ****  *I Description: Auto Created for EApiEmulGPIO.c
  23:/home/hkh/git/eapidk-code-r76-trunk/lib/linux/../EApiEmulGPIO.c ****  *I
  24:/home/hkh/git/eapidk-code-r76-trunk/lib/linux/../EApiEmulGPIO.c ****  *+-------------------------------------------------------------------------
  25:/home/hkh/git/eapidk-code-r76-trunk/lib/linux/../EApiEmulGPIO.c ****  *I
  26:/home/hkh/git/eapidk-code-r76-trunk/lib/linux/../EApiEmulGPIO.c ****  *I  File Name            : EApiEmulGPIO.c
  27:/home/hkh/git/eapidk-code-r76-trunk/lib/linux/../EApiEmulGPIO.c ****  *I  File Location        : lib
  28:/home/hkh/git/eapidk-code-r76-trunk/lib/linux/../EApiEmulGPIO.c ****  *I  Last committed       : $Revision: 74 $
  29:/home/hkh/git/eapidk-code-r76-trunk/lib/linux/../EApiEmulGPIO.c ****  *I  Last changed by      : $Author: dethrophes $
  30:/home/hkh/git/eapidk-code-r76-trunk/lib/linux/../EApiEmulGPIO.c ****  *I  Last changed date    : $Date: 2010-06-23 19:26:50 +0000 (Wed, 23 Jun 2010) $
  31:/home/hkh/git/eapidk-code-r76-trunk/lib/linux/../EApiEmulGPIO.c ****  *I  ID                   : $Id: EApiEmulGPIO.c 74 2010-06-23 19:26:50Z dethrophes $
  32:/home/hkh/git/eapidk-code-r76-trunk/lib/linux/../EApiEmulGPIO.c ****  *I
  33:/home/hkh/git/eapidk-code-r76-trunk/lib/linux/../EApiEmulGPIO.c ****  *+=========================================================================
  34:/home/hkh/git/eapidk-code-r76-trunk/lib/linux/../EApiEmulGPIO.c ****  *</KHeader>
  35:/home/hkh/git/eapidk-code-r76-trunk/lib/linux/../EApiEmulGPIO.c ****  */
  36:/home/hkh/git/eapidk-code-r76-trunk/lib/linux/../EApiEmulGPIO.c **** 
  37:/home/hkh/git/eapidk-code-r76-trunk/lib/linux/../EApiEmulGPIO.c **** #include <EApiLib.h>
  38:/home/hkh/git/eapidk-code-r76-trunk/lib/linux/../EApiEmulGPIO.c **** 
  39:/home/hkh/git/eapidk-code-r76-trunk/lib/linux/../EApiEmulGPIO.c **** 
  40:/home/hkh/git/eapidk-code-r76-trunk/lib/linux/../EApiEmulGPIO.c **** 
  41:/home/hkh/git/eapidk-code-r76-trunk/lib/linux/../EApiEmulGPIO.c **** #define USE_DIRECTION_EMUL 1
GAS LISTING /tmp/ccAG33yV.s 			page 2


  42:/home/hkh/git/eapidk-code-r76-trunk/lib/linux/../EApiEmulGPIO.c **** #define END_OF_LIST_MARK ((uint32_t)-1)
  43:/home/hkh/git/eapidk-code-r76-trunk/lib/linux/../EApiEmulGPIO.c **** /*
  44:/home/hkh/git/eapidk-code-r76-trunk/lib/linux/../EApiEmulGPIO.c ****  *
  45:/home/hkh/git/eapidk-code-r76-trunk/lib/linux/../EApiEmulGPIO.c ****  *  
  46:/home/hkh/git/eapidk-code-r76-trunk/lib/linux/../EApiEmulGPIO.c ****  *
  47:/home/hkh/git/eapidk-code-r76-trunk/lib/linux/../EApiEmulGPIO.c ****  *      PSEUDO Hardware Emulation
  48:/home/hkh/git/eapidk-code-r76-trunk/lib/linux/../EApiEmulGPIO.c ****  *
  49:/home/hkh/git/eapidk-code-r76-trunk/lib/linux/../EApiEmulGPIO.c ****  *
  50:/home/hkh/git/eapidk-code-r76-trunk/lib/linux/../EApiEmulGPIO.c ****  *
  51:/home/hkh/git/eapidk-code-r76-trunk/lib/linux/../EApiEmulGPIO.c ****  */
  52:/home/hkh/git/eapidk-code-r76-trunk/lib/linux/../EApiEmulGPIO.c **** /* GPIO Port Bits
  53:/home/hkh/git/eapidk-code-r76-trunk/lib/linux/../EApiEmulGPIO.c ****  * To emulate a loop back connector set the GPIO's to the same bits
  54:/home/hkh/git/eapidk-code-r76-trunk/lib/linux/../EApiEmulGPIO.c ****  * I.E.
  55:/home/hkh/git/eapidk-code-r76-trunk/lib/linux/../EApiEmulGPIO.c ****  * GPI0_PORT_BIT 23
  56:/home/hkh/git/eapidk-code-r76-trunk/lib/linux/../EApiEmulGPIO.c ****  * GPI1_PORT_BIT 23
  57:/home/hkh/git/eapidk-code-r76-trunk/lib/linux/../EApiEmulGPIO.c ****  * GPO0_PORT_BIT 23
  58:/home/hkh/git/eapidk-code-r76-trunk/lib/linux/../EApiEmulGPIO.c ****  * means GPO0 drives both GPI0 and GPI1
  59:/home/hkh/git/eapidk-code-r76-trunk/lib/linux/../EApiEmulGPIO.c ****  */
  60:/home/hkh/git/eapidk-code-r76-trunk/lib/linux/../EApiEmulGPIO.c **** #define GPI0_PORT_BIT 23
  61:/home/hkh/git/eapidk-code-r76-trunk/lib/linux/../EApiEmulGPIO.c **** #define GPI1_PORT_BIT 15
  62:/home/hkh/git/eapidk-code-r76-trunk/lib/linux/../EApiEmulGPIO.c **** #define GPI2_PORT_BIT 13
  63:/home/hkh/git/eapidk-code-r76-trunk/lib/linux/../EApiEmulGPIO.c **** #define GPI3_PORT_BIT 17
  64:/home/hkh/git/eapidk-code-r76-trunk/lib/linux/../EApiEmulGPIO.c **** #define GPO0_PORT_BIT 4
  65:/home/hkh/git/eapidk-code-r76-trunk/lib/linux/../EApiEmulGPIO.c **** #define GPO1_PORT_BIT 6
  66:/home/hkh/git/eapidk-code-r76-trunk/lib/linux/../EApiEmulGPIO.c **** #define GPO2_PORT_BIT 31
  67:/home/hkh/git/eapidk-code-r76-trunk/lib/linux/../EApiEmulGPIO.c **** #define GPO3_PORT_BIT 0
  68:/home/hkh/git/eapidk-code-r76-trunk/lib/linux/../EApiEmulGPIO.c **** typedef uint32_t ReadPortFunction (uint32_t);
  69:/home/hkh/git/eapidk-code-r76-trunk/lib/linux/../EApiEmulGPIO.c **** typedef void     WritePortFunction (uint32_t, uint32_t);
  70:/home/hkh/git/eapidk-code-r76-trunk/lib/linux/../EApiEmulGPIO.c **** 
  71:/home/hkh/git/eapidk-code-r76-trunk/lib/linux/../EApiEmulGPIO.c **** /* Psuedo IO Ports & Defaults */
  72:/home/hkh/git/eapidk-code-r76-trunk/lib/linux/../EApiEmulGPIO.c **** #define GPIO_LEVEL_DFLT ((EAPI_GPIO_HIGH<<GPI0_PORT_BIT)| (EAPI_GPIO_LOW <<GPI1_PORT_BIT)|\
  73:/home/hkh/git/eapidk-code-r76-trunk/lib/linux/../EApiEmulGPIO.c ****                          (EAPI_GPIO_LOW <<GPI2_PORT_BIT)| (EAPI_GPIO_HIGH<<GPI3_PORT_BIT)|\
  74:/home/hkh/git/eapidk-code-r76-trunk/lib/linux/../EApiEmulGPIO.c ****                          (EAPI_GPIO_LOW <<GPO0_PORT_BIT)| (EAPI_GPIO_LOW <<GPO1_PORT_BIT)|\
  75:/home/hkh/git/eapidk-code-r76-trunk/lib/linux/../EApiEmulGPIO.c ****                          (EAPI_GPIO_LOW <<GPO2_PORT_BIT)| (EAPI_GPIO_LOW <<GPO3_PORT_BIT) \
  76:/home/hkh/git/eapidk-code-r76-trunk/lib/linux/../EApiEmulGPIO.c ****     )
  77:/home/hkh/git/eapidk-code-r76-trunk/lib/linux/../EApiEmulGPIO.c **** #define GPIO_DIR_DFLT   ((EAPI_GPIO_INPUT <<GPI0_PORT_BIT)| (EAPI_GPIO_INPUT <<GPI1_PORT_BIT)|\
  78:/home/hkh/git/eapidk-code-r76-trunk/lib/linux/../EApiEmulGPIO.c ****                          (EAPI_GPIO_INPUT <<GPI2_PORT_BIT)| (EAPI_GPIO_INPUT <<GPI3_PORT_BIT)|\
  79:/home/hkh/git/eapidk-code-r76-trunk/lib/linux/../EApiEmulGPIO.c ****                          (EAPI_GPIO_OUTPUT<<GPO0_PORT_BIT)| (EAPI_GPIO_OUTPUT<<GPO1_PORT_BIT)|\
  80:/home/hkh/git/eapidk-code-r76-trunk/lib/linux/../EApiEmulGPIO.c ****                          (EAPI_GPIO_OUTPUT<<GPO2_PORT_BIT)| (EAPI_GPIO_OUTPUT<<GPO3_PORT_BIT) \
  81:/home/hkh/git/eapidk-code-r76-trunk/lib/linux/../EApiEmulGPIO.c ****     )
  82:/home/hkh/git/eapidk-code-r76-trunk/lib/linux/../EApiEmulGPIO.c **** #define GET_U8(BitOffset,Value)  ((uint8_t )(((Value)>>(BitOffset))&0xFF))
  83:/home/hkh/git/eapidk-code-r76-trunk/lib/linux/../EApiEmulGPIO.c **** #define GET_U16(BitOffset,Value) ((uint16_t)(((Value)>>(BitOffset))&0xFFFF))
  84:/home/hkh/git/eapidk-code-r76-trunk/lib/linux/../EApiEmulGPIO.c **** #define GET_U32(BitOffset,Value) ((uint32_t )(((Value)>>(BitOffset))&0xFFFFFFFF))
  85:/home/hkh/git/eapidk-code-r76-trunk/lib/linux/../EApiEmulGPIO.c **** #define BIT(x) ((uint32_t)(1<<(x)))
  86:/home/hkh/git/eapidk-code-r76-trunk/lib/linux/../EApiEmulGPIO.c **** 
  87:/home/hkh/git/eapidk-code-r76-trunk/lib/linux/../EApiEmulGPIO.c **** static uint32_t EmulatedIoBlock[]={
  88:/home/hkh/git/eapidk-code-r76-trunk/lib/linux/../EApiEmulGPIO.c **** #define EAPI_EMUL_GPIO_DIRECTION_REG 0
  89:/home/hkh/git/eapidk-code-r76-trunk/lib/linux/../EApiEmulGPIO.c ****   GPIO_DIR_DFLT,
  90:/home/hkh/git/eapidk-code-r76-trunk/lib/linux/../EApiEmulGPIO.c **** #define EAPI_EMUL_GPIO_LEVEL_REG     4
  91:/home/hkh/git/eapidk-code-r76-trunk/lib/linux/../EApiEmulGPIO.c ****   GPIO_LEVEL_DFLT,
  92:/home/hkh/git/eapidk-code-r76-trunk/lib/linux/../EApiEmulGPIO.c **** #define EAPI_EMUL_GPIO_DIRECTION_REG2 8
  93:/home/hkh/git/eapidk-code-r76-trunk/lib/linux/../EApiEmulGPIO.c ****   GPIO_DIR_DFLT ,
  94:/home/hkh/git/eapidk-code-r76-trunk/lib/linux/../EApiEmulGPIO.c **** #define EAPI_EMUL_GPIO_LEVEL_REG2     12
  95:/home/hkh/git/eapidk-code-r76-trunk/lib/linux/../EApiEmulGPIO.c ****   GPIO_LEVEL_DFLT,
  96:/home/hkh/git/eapidk-code-r76-trunk/lib/linux/../EApiEmulGPIO.c **** };
  97:/home/hkh/git/eapidk-code-r76-trunk/lib/linux/../EApiEmulGPIO.c **** 
  98:/home/hkh/git/eapidk-code-r76-trunk/lib/linux/../EApiEmulGPIO.c **** WritePortFunction EApiWriteIO32Delay;
GAS LISTING /tmp/ccAG33yV.s 			page 3


  99:/home/hkh/git/eapidk-code-r76-trunk/lib/linux/../EApiEmulGPIO.c **** ReadPortFunction  EApiReadIO32Delay;
 100:/home/hkh/git/eapidk-code-r76-trunk/lib/linux/../EApiEmulGPIO.c **** 
 101:/home/hkh/git/eapidk-code-r76-trunk/lib/linux/../EApiEmulGPIO.c **** uint32_t EApiReadIO32(uint32_t ByteOffset)
 102:/home/hkh/git/eapidk-code-r76-trunk/lib/linux/../EApiEmulGPIO.c **** {
  20              		.loc 1 102 1
  21              		.cfi_startproc
  22 0000 F30F1EFA 		endbr64
  23 0004 55       		pushq	%rbp
  24              		.cfi_def_cfa_offset 16
  25              		.cfi_offset 6, -16
  26 0005 4889E5   		movq	%rsp, %rbp
  27              		.cfi_def_cfa_register 6
  28 0008 897DFC   		movl	%edi, -4(%rbp)
 103:/home/hkh/git/eapidk-code-r76-trunk/lib/linux/../EApiEmulGPIO.c ****   if(sizeof(EmulatedIoBlock)<ByteOffset+4)
  29              		.loc 1 103 40
  30 000b 8B45FC   		movl	-4(%rbp), %eax
  31 000e 83C004   		addl	$4, %eax
  32              		.loc 1 103 5
  33 0011 83F810   		cmpl	$16, %eax
  34 0014 7607     		jbe	.L2
 104:/home/hkh/git/eapidk-code-r76-trunk/lib/linux/../EApiEmulGPIO.c ****   {
 105:/home/hkh/git/eapidk-code-r76-trunk/lib/linux/../EApiEmulGPIO.c ****       return 0;
  35              		.loc 1 105 14
  36 0016 B8000000 		movl	$0, %eax
  36      00
  37 001b EB0F     		jmp	.L3
  38              	.L2:
 106:/home/hkh/git/eapidk-code-r76-trunk/lib/linux/../EApiEmulGPIO.c ****   }
 107:/home/hkh/git/eapidk-code-r76-trunk/lib/linux/../EApiEmulGPIO.c ****   return *(uint32_t *)&((uint8_t*)EmulatedIoBlock)[ByteOffset];
  39              		.loc 1 107 11
  40 001d 8B45FC   		movl	-4(%rbp), %eax
  41 0020 488D1500 		leaq	EmulatedIoBlock(%rip), %rdx
  41      000000
  42 0027 4801D0   		addq	%rdx, %rax
  43              		.loc 1 107 10
  44 002a 8B00     		movl	(%rax), %eax
  45              	.L3:
 108:/home/hkh/git/eapidk-code-r76-trunk/lib/linux/../EApiEmulGPIO.c **** }
  46              		.loc 1 108 1
  47 002c 5D       		popq	%rbp
  48              		.cfi_def_cfa 7, 8
  49 002d C3       		ret
  50              		.cfi_endproc
  51              	.LFE6:
  53              		.globl	EApiWriteIO32
  54              		.hidden	EApiWriteIO32
  56              	EApiWriteIO32:
  57              	.LFB7:
 109:/home/hkh/git/eapidk-code-r76-trunk/lib/linux/../EApiEmulGPIO.c **** 
 110:/home/hkh/git/eapidk-code-r76-trunk/lib/linux/../EApiEmulGPIO.c **** void EApiWriteIO32(uint32_t ByteOffset, uint32_t Data)
 111:/home/hkh/git/eapidk-code-r76-trunk/lib/linux/../EApiEmulGPIO.c **** {
  58              		.loc 1 111 1
  59              		.cfi_startproc
  60 002e F30F1EFA 		endbr64
  61 0032 55       		pushq	%rbp
  62              		.cfi_def_cfa_offset 16
  63              		.cfi_offset 6, -16
GAS LISTING /tmp/ccAG33yV.s 			page 4


  64 0033 4889E5   		movq	%rsp, %rbp
  65              		.cfi_def_cfa_register 6
  66 0036 897DFC   		movl	%edi, -4(%rbp)
  67 0039 8975F8   		movl	%esi, -8(%rbp)
 112:/home/hkh/git/eapidk-code-r76-trunk/lib/linux/../EApiEmulGPIO.c ****   if(sizeof(EmulatedIoBlock)<ByteOffset+4)
  68              		.loc 1 112 40
  69 003c 8B45FC   		movl	-4(%rbp), %eax
  70 003f 83C004   		addl	$4, %eax
  71              		.loc 1 112 5
  72 0042 83F810   		cmpl	$16, %eax
  73 0045 7714     		ja	.L7
 113:/home/hkh/git/eapidk-code-r76-trunk/lib/linux/../EApiEmulGPIO.c ****   {
 114:/home/hkh/git/eapidk-code-r76-trunk/lib/linux/../EApiEmulGPIO.c ****       return ;
 115:/home/hkh/git/eapidk-code-r76-trunk/lib/linux/../EApiEmulGPIO.c ****   }
 116:/home/hkh/git/eapidk-code-r76-trunk/lib/linux/../EApiEmulGPIO.c ****   *(uint32_t *)&((uint8_t*)&EmulatedIoBlock)[ByteOffset]=Data;
  74              		.loc 1 116 4
  75 0047 8B45FC   		movl	-4(%rbp), %eax
  76 004a 488D1500 		leaq	EmulatedIoBlock(%rip), %rdx
  76      000000
  77 0051 4801C2   		addq	%rax, %rdx
  78              		.loc 1 116 57
  79 0054 8B45F8   		movl	-8(%rbp), %eax
  80 0057 8902     		movl	%eax, (%rdx)
 117:/home/hkh/git/eapidk-code-r76-trunk/lib/linux/../EApiEmulGPIO.c ****   return ;
  81              		.loc 1 117 3
  82 0059 EB01     		jmp	.L4
  83              	.L7:
 114:/home/hkh/git/eapidk-code-r76-trunk/lib/linux/../EApiEmulGPIO.c ****   }
  84              		.loc 1 114 7
  85 005b 90       		nop
  86              	.L4:
 118:/home/hkh/git/eapidk-code-r76-trunk/lib/linux/../EApiEmulGPIO.c **** }
  87              		.loc 1 118 1
  88 005c 5D       		popq	%rbp
  89              		.cfi_def_cfa 7, 8
  90 005d C3       		ret
  91              		.cfi_endproc
  92              	.LFE7:
  94              		.globl	EApiWriteIO32Delay
  95              		.hidden	EApiWriteIO32Delay
  97              	EApiWriteIO32Delay:
  98              	.LFB8:
 119:/home/hkh/git/eapidk-code-r76-trunk/lib/linux/../EApiEmulGPIO.c **** void EApiWriteIO32Delay(uint32_t ByteOffset, uint32_t Data)
 120:/home/hkh/git/eapidk-code-r76-trunk/lib/linux/../EApiEmulGPIO.c **** {
  99              		.loc 1 120 1
 100              		.cfi_startproc
 101 005e F30F1EFA 		endbr64
 102 0062 55       		pushq	%rbp
 103              		.cfi_def_cfa_offset 16
 104              		.cfi_offset 6, -16
 105 0063 4889E5   		movq	%rsp, %rbp
 106              		.cfi_def_cfa_register 6
 107 0066 4883EC10 		subq	$16, %rsp
 108 006a 897DFC   		movl	%edi, -4(%rbp)
 109 006d 8975F8   		movl	%esi, -8(%rbp)
 121:/home/hkh/git/eapidk-code-r76-trunk/lib/linux/../EApiEmulGPIO.c ****   EAPI_EMUL_DELAY_NS(1400);
 110              		.loc 1 121 3
GAS LISTING /tmp/ccAG33yV.s 			page 5


 111 0070 BF780500 		movl	$1400, %edi
 111      00
 112 0075 E8000000 		call	EApiSleepns@PLT
 112      00
 122:/home/hkh/git/eapidk-code-r76-trunk/lib/linux/../EApiEmulGPIO.c ****   EApiWriteIO32(ByteOffset, Data);
 113              		.loc 1 122 3
 114 007a 8B55F8   		movl	-8(%rbp), %edx
 115 007d 8B45FC   		movl	-4(%rbp), %eax
 116 0080 89D6     		movl	%edx, %esi
 117 0082 89C7     		movl	%eax, %edi
 118 0084 E8000000 		call	EApiWriteIO32
 118      00
 123:/home/hkh/git/eapidk-code-r76-trunk/lib/linux/../EApiEmulGPIO.c ****   return ;
 119              		.loc 1 123 3
 120 0089 90       		nop
 124:/home/hkh/git/eapidk-code-r76-trunk/lib/linux/../EApiEmulGPIO.c **** }
 121              		.loc 1 124 1
 122 008a C9       		leave
 123              		.cfi_def_cfa 7, 8
 124 008b C3       		ret
 125              		.cfi_endproc
 126              	.LFE8:
 128              		.globl	EApiReadIO32Delay
 129              		.hidden	EApiReadIO32Delay
 131              	EApiReadIO32Delay:
 132              	.LFB9:
 125:/home/hkh/git/eapidk-code-r76-trunk/lib/linux/../EApiEmulGPIO.c **** uint32_t EApiReadIO32Delay(uint32_t ByteOffset)
 126:/home/hkh/git/eapidk-code-r76-trunk/lib/linux/../EApiEmulGPIO.c **** {
 133              		.loc 1 126 1
 134              		.cfi_startproc
 135 008c F30F1EFA 		endbr64
 136 0090 55       		pushq	%rbp
 137              		.cfi_def_cfa_offset 16
 138              		.cfi_offset 6, -16
 139 0091 4889E5   		movq	%rsp, %rbp
 140              		.cfi_def_cfa_register 6
 141 0094 4883EC10 		subq	$16, %rsp
 142 0098 897DFC   		movl	%edi, -4(%rbp)
 127:/home/hkh/git/eapidk-code-r76-trunk/lib/linux/../EApiEmulGPIO.c ****   EAPI_EMUL_DELAY_NS(1400);
 143              		.loc 1 127 3
 144 009b BF780500 		movl	$1400, %edi
 144      00
 145 00a0 E8000000 		call	EApiSleepns@PLT
 145      00
 128:/home/hkh/git/eapidk-code-r76-trunk/lib/linux/../EApiEmulGPIO.c ****   return EApiReadIO32(ByteOffset);
 146              		.loc 1 128 10
 147 00a5 8B45FC   		movl	-4(%rbp), %eax
 148 00a8 89C7     		movl	%eax, %edi
 149 00aa E8000000 		call	EApiReadIO32
 149      00
 129:/home/hkh/git/eapidk-code-r76-trunk/lib/linux/../EApiEmulGPIO.c **** }
 150              		.loc 1 129 1
 151 00af C9       		leave
 152              		.cfi_def_cfa 7, 8
 153 00b0 C3       		ret
 154              		.cfi_endproc
 155              	.LFE9:
GAS LISTING /tmp/ccAG33yV.s 			page 6


 157              		.hidden	Port1Desc
 158              		.globl	Port1Desc
 159              		.section	.data.rel.local,"aw"
 160              		.align 32
 163              	Port1Desc:
 164 0000 00000000 		.long	0
 165 0004 00000000 		.long	0
 166 0008 00000000 		.long	0
 167 000c 04000000 		.long	4
 168 0010 00000000 		.long	0
 169 0014 00000000 		.zero	4
 170 0018 00000000 		.quad	EApiWriteIO32Delay
 170      00000000 
 171 0020 00000000 		.quad	EApiReadIO32Delay
 171      00000000 
 172              		.hidden	Port2Desc
 173              		.globl	Port2Desc
 174 0028 00000000 		.align 32
 174      00000000 
 174      00000000 
 174      00000000 
 174      00000000 
 177              	Port2Desc:
 178 0040 00000000 		.long	0
 179 0044 00000000 		.long	0
 180 0048 00000000 		.long	0
 181 004c 0C000000 		.long	12
 182 0050 08000000 		.long	8
 183 0054 00000000 		.zero	4
 184 0058 00000000 		.quad	EApiWriteIO32Delay
 184      00000000 
 185 0060 00000000 		.quad	EApiReadIO32Delay
 185      00000000 
 186              		.hidden	GpioMappingID0
 187              		.globl	GpioMappingID0
 188              		.section	.data.rel.ro.local,"aw"
 189              		.align 32
 192              	GpioMappingID0:
 193 0000 00008000 		.long	8388608
 194 0004 00000000 		.zero	4
 195 0008 00000000 		.quad	Port1Desc
 195      00000000 
 196 0010 00800000 		.long	32768
 197 0014 00000000 		.zero	4
 198 0018 00000000 		.quad	Port1Desc
 198      00000000 
 199 0020 00200000 		.long	8192
 200 0024 00000000 		.zero	4
 201 0028 00000000 		.quad	Port1Desc
 201      00000000 
 202 0030 00000200 		.long	131072
 203 0034 00000000 		.zero	4
 204 0038 00000000 		.quad	Port1Desc
 204      00000000 
 205 0040 10000000 		.long	16
 206 0044 00000000 		.zero	4
 207 0048 00000000 		.quad	Port1Desc
GAS LISTING /tmp/ccAG33yV.s 			page 7


 207      00000000 
 208 0050 40000000 		.long	64
 209 0054 00000000 		.zero	4
 210 0058 00000000 		.quad	Port1Desc
 210      00000000 
 211 0060 00000080 		.long	-2147483648
 212 0064 00000000 		.zero	4
 213 0068 00000000 		.quad	Port1Desc
 213      00000000 
 214 0070 01000000 		.long	1
 215 0074 00000000 		.zero	4
 216 0078 00000000 		.quad	Port1Desc
 216      00000000 
 217 0080 FFFFFFFF 		.long	-1
 218 0084 00000000 		.zero	4
 219 0088 00000000 		.quad	0
 219      00000000 
 220              		.hidden	GpioMappingID1
 221              		.globl	GpioMappingID1
 222 0090 00000000 		.align 32
 222      00000000 
 222      00000000 
 222      00000000 
 225              	GpioMappingID1:
 226 00a0 00008000 		.long	8388608
 227 00a4 00000000 		.zero	4
 228 00a8 00000000 		.quad	Port1Desc
 228      00000000 
 229 00b0 FFFFFFFF 		.long	-1
 230 00b4 00000000 		.zero	4
 231 00b8 00000000 		.quad	0
 231      00000000 
 232              		.hidden	GpioMappingID2
 233              		.globl	GpioMappingID2
 234              		.align 32
 237              	GpioMappingID2:
 238 00c0 00800000 		.long	32768
 239 00c4 00000000 		.zero	4
 240 00c8 00000000 		.quad	Port1Desc
 240      00000000 
 241 00d0 FFFFFFFF 		.long	-1
 242 00d4 00000000 		.zero	4
 243 00d8 00000000 		.quad	0
 243      00000000 
 244              		.hidden	GpioMappingID3
 245              		.globl	GpioMappingID3
 246              		.align 32
 249              	GpioMappingID3:
 250 00e0 00200000 		.long	8192
 251 00e4 00000000 		.zero	4
 252 00e8 00000000 		.quad	Port1Desc
 252      00000000 
 253 00f0 FFFFFFFF 		.long	-1
 254 00f4 00000000 		.zero	4
 255 00f8 00000000 		.quad	0
 255      00000000 
 256              		.hidden	GpioMappingID4
GAS LISTING /tmp/ccAG33yV.s 			page 8


 257              		.globl	GpioMappingID4
 258              		.align 32
 261              	GpioMappingID4:
 262 0100 00000200 		.long	131072
 263 0104 00000000 		.zero	4
 264 0108 00000000 		.quad	Port1Desc
 264      00000000 
 265 0110 FFFFFFFF 		.long	-1
 266 0114 00000000 		.zero	4
 267 0118 00000000 		.quad	0
 267      00000000 
 268              		.hidden	GpioMappingID5
 269              		.globl	GpioMappingID5
 270              		.align 32
 273              	GpioMappingID5:
 274 0120 10000000 		.long	16
 275 0124 00000000 		.zero	4
 276 0128 00000000 		.quad	Port1Desc
 276      00000000 
 277 0130 FFFFFFFF 		.long	-1
 278 0134 00000000 		.zero	4
 279 0138 00000000 		.quad	0
 279      00000000 
 280              		.hidden	GpioMappingID6
 281              		.globl	GpioMappingID6
 282              		.align 32
 285              	GpioMappingID6:
 286 0140 40000000 		.long	64
 287 0144 00000000 		.zero	4
 288 0148 00000000 		.quad	Port1Desc
 288      00000000 
 289 0150 FFFFFFFF 		.long	-1
 290 0154 00000000 		.zero	4
 291 0158 00000000 		.quad	0
 291      00000000 
 292              		.hidden	GpioMappingID7
 293              		.globl	GpioMappingID7
 294              		.align 32
 297              	GpioMappingID7:
 298 0160 00000080 		.long	-2147483648
 299 0164 00000000 		.zero	4
 300 0168 00000000 		.quad	Port1Desc
 300      00000000 
 301 0170 FFFFFFFF 		.long	-1
 302 0174 00000000 		.zero	4
 303 0178 00000000 		.quad	0
 303      00000000 
 304              		.hidden	GpioMappingID8
 305              		.globl	GpioMappingID8
 306              		.align 32
 309              	GpioMappingID8:
 310 0180 01000000 		.long	1
 311 0184 00000000 		.zero	4
 312 0188 00000000 		.quad	Port1Desc
 312      00000000 
 313 0190 FFFFFFFF 		.long	-1
 314 0194 00000000 		.zero	4
GAS LISTING /tmp/ccAG33yV.s 			page 9


 315 0198 00000000 		.quad	0
 315      00000000 
 316              		.hidden	GPIOIDMapping
 317              		.globl	GPIOIDMapping
 318              		.align 32
 321              	GPIOIDMapping:
 322 01a0 00000100 		.long	65536
 323 01a4 00000000 		.zero	4
 324 01a8 00000000 		.quad	GpioMappingID0
 324      00000000 
 325 01b0 F0000000 		.long	240
 326 01b4 0F000000 		.long	15
 327 01b8 04000000 		.long	4
 328 01bc 00000000 		.zero	4
 329 01c0 00000000 		.quad	GpioMappingID1
 329      00000000 
 330 01c8 00000000 		.long	0
 331 01cc 01000000 		.long	1
 332 01d0 05000000 		.long	5
 333 01d4 00000000 		.zero	4
 334 01d8 00000000 		.quad	GpioMappingID2
 334      00000000 
 335 01e0 00000000 		.long	0
 336 01e4 01000000 		.long	1
 337 01e8 06000000 		.long	6
 338 01ec 00000000 		.zero	4
 339 01f0 00000000 		.quad	GpioMappingID3
 339      00000000 
 340 01f8 00000000 		.long	0
 341 01fc 01000000 		.long	1
 342 0200 07000000 		.long	7
 343 0204 00000000 		.zero	4
 344 0208 00000000 		.quad	GpioMappingID4
 344      00000000 
 345 0210 00000000 		.long	0
 346 0214 01000000 		.long	1
 347 0218 00000000 		.long	0
 348 021c 00000000 		.zero	4
 349 0220 00000000 		.quad	GpioMappingID5
 349      00000000 
 350 0228 01000000 		.long	1
 351 022c 00000000 		.long	0
 352 0230 01000000 		.long	1
 353 0234 00000000 		.zero	4
 354 0238 00000000 		.quad	GpioMappingID6
 354      00000000 
 355 0240 01000000 		.long	1
 356 0244 00000000 		.long	0
 357 0248 02000000 		.long	2
 358 024c 00000000 		.zero	4
 359 0250 00000000 		.quad	GpioMappingID7
 359      00000000 
 360 0258 01000000 		.long	1
 361 025c 00000000 		.long	0
 362 0260 03000000 		.long	3
 363 0264 00000000 		.zero	4
 364 0268 00000000 		.quad	GpioMappingID8
GAS LISTING /tmp/ccAG33yV.s 			page 10


 364      00000000 
 365 0270 01000000 		.long	1
 366 0274 00000000 		.long	0
 367              		.section	.rodata
 368              	.LC0:
 369 0000 25730A00 		.string	"%s\n"
 370              	.LC1:
 371 0004 45417069 		.string	"EApiGPIOGetLevelEmul"
 371      4750494F 
 371      4765744C 
 371      6576656C 
 371      456D756C 
 372 0019 00000000 		.align 8
 372      000000
 373              	.LC2:
 374 0020 2F686F6D 		.string	"/home/hkh/git/eapidk-code-r76-trunk/lib/linux/../EApiEmulGPIO.c"
 374      652F686B 
 374      682F6769 
 374      742F6561 
 374      7069646B 
 375              	.LC3:
 376 0060 4269742D 		.string	"Bit-mask Selects Invalid Bits"
 376      6D61736B 
 376      2053656C 
 376      65637473 
 376      20496E76 
 377              	.LC4:
 378 007e 45417069 		.string	"EApiGPIOGetLevel"
 378      4750494F 
 378      4765744C 
 378      6576656C 
 378      00
 379              	.LC5:
 380 008f 00       		.string	""
 381              	.LC6:
 382 0090 556E7265 		.string	"Unrecognised GPIO ID"
 382      636F676E 
 382      69736564 
 382      20475049 
 382      4F204944 
 383              		.text
 384              		.globl	EApiGPIOGetLevelEmul
 385              		.hidden	EApiGPIOGetLevelEmul
 387              	EApiGPIOGetLevelEmul:
 388              	.LFB10:
 130:/home/hkh/git/eapidk-code-r76-trunk/lib/linux/../EApiEmulGPIO.c **** /*
 131:/home/hkh/git/eapidk-code-r76-trunk/lib/linux/../EApiEmulGPIO.c ****  *
 132:/home/hkh/git/eapidk-code-r76-trunk/lib/linux/../EApiEmulGPIO.c ****  *  
 133:/home/hkh/git/eapidk-code-r76-trunk/lib/linux/../EApiEmulGPIO.c ****  *
 134:/home/hkh/git/eapidk-code-r76-trunk/lib/linux/../EApiEmulGPIO.c ****  *  G P I O
 135:/home/hkh/git/eapidk-code-r76-trunk/lib/linux/../EApiEmulGPIO.c ****  *
 136:/home/hkh/git/eapidk-code-r76-trunk/lib/linux/../EApiEmulGPIO.c ****  *
 137:/home/hkh/git/eapidk-code-r76-trunk/lib/linux/../EApiEmulGPIO.c ****  *
 138:/home/hkh/git/eapidk-code-r76-trunk/lib/linux/../EApiEmulGPIO.c ****  */
 139:/home/hkh/git/eapidk-code-r76-trunk/lib/linux/../EApiEmulGPIO.c **** typedef struct PortDescriptor_s{
 140:/home/hkh/git/eapidk-code-r76-trunk/lib/linux/../EApiEmulGPIO.c ****     uint32_t Dirty;
 141:/home/hkh/git/eapidk-code-r76-trunk/lib/linux/../EApiEmulGPIO.c ****     uint32_t Value;
GAS LISTING /tmp/ccAG33yV.s 			page 11


 142:/home/hkh/git/eapidk-code-r76-trunk/lib/linux/../EApiEmulGPIO.c **** #if USE_DIRECTION_EMUL
 143:/home/hkh/git/eapidk-code-r76-trunk/lib/linux/../EApiEmulGPIO.c ****     uint32_t Value2;
 144:/home/hkh/git/eapidk-code-r76-trunk/lib/linux/../EApiEmulGPIO.c **** #endif
 145:/home/hkh/git/eapidk-code-r76-trunk/lib/linux/../EApiEmulGPIO.c ****     uint32_t LevelArg1;
 146:/home/hkh/git/eapidk-code-r76-trunk/lib/linux/../EApiEmulGPIO.c ****     uint32_t DirectionArg1;
 147:/home/hkh/git/eapidk-code-r76-trunk/lib/linux/../EApiEmulGPIO.c ****     WritePortFunction *Write;
 148:/home/hkh/git/eapidk-code-r76-trunk/lib/linux/../EApiEmulGPIO.c ****     ReadPortFunction *Read;
 149:/home/hkh/git/eapidk-code-r76-trunk/lib/linux/../EApiEmulGPIO.c **** }PortDescriptor_t;
 150:/home/hkh/git/eapidk-code-r76-trunk/lib/linux/../EApiEmulGPIO.c **** typedef struct GPIOMappingsTbl_s{
 151:/home/hkh/git/eapidk-code-r76-trunk/lib/linux/../EApiEmulGPIO.c ****   uint32_t PortMask; /* Bitmask For Port (Arbitrary Values Used Here) */
 152:/home/hkh/git/eapidk-code-r76-trunk/lib/linux/../EApiEmulGPIO.c ****   PortDescriptor_t *Port;
 153:/home/hkh/git/eapidk-code-r76-trunk/lib/linux/../EApiEmulGPIO.c **** }GPIOMappingsTbl_t;
 154:/home/hkh/git/eapidk-code-r76-trunk/lib/linux/../EApiEmulGPIO.c **** PortDescriptor_t Port1Desc={
 155:/home/hkh/git/eapidk-code-r76-trunk/lib/linux/../EApiEmulGPIO.c ****   0x00, 0,
 156:/home/hkh/git/eapidk-code-r76-trunk/lib/linux/../EApiEmulGPIO.c **** #if USE_DIRECTION_EMUL
 157:/home/hkh/git/eapidk-code-r76-trunk/lib/linux/../EApiEmulGPIO.c ****    0,
 158:/home/hkh/git/eapidk-code-r76-trunk/lib/linux/../EApiEmulGPIO.c **** #endif
 159:/home/hkh/git/eapidk-code-r76-trunk/lib/linux/../EApiEmulGPIO.c ****   EAPI_EMUL_GPIO_LEVEL_REG    ,
 160:/home/hkh/git/eapidk-code-r76-trunk/lib/linux/../EApiEmulGPIO.c ****   EAPI_EMUL_GPIO_DIRECTION_REG,
 161:/home/hkh/git/eapidk-code-r76-trunk/lib/linux/../EApiEmulGPIO.c ****   &EApiWriteIO32Delay,
 162:/home/hkh/git/eapidk-code-r76-trunk/lib/linux/../EApiEmulGPIO.c ****   &EApiReadIO32Delay,
 163:/home/hkh/git/eapidk-code-r76-trunk/lib/linux/../EApiEmulGPIO.c **** };
 164:/home/hkh/git/eapidk-code-r76-trunk/lib/linux/../EApiEmulGPIO.c **** PortDescriptor_t Port2Desc={
 165:/home/hkh/git/eapidk-code-r76-trunk/lib/linux/../EApiEmulGPIO.c ****   0x00, 0,
 166:/home/hkh/git/eapidk-code-r76-trunk/lib/linux/../EApiEmulGPIO.c **** #if USE_DIRECTION_EMUL
 167:/home/hkh/git/eapidk-code-r76-trunk/lib/linux/../EApiEmulGPIO.c ****    0,
 168:/home/hkh/git/eapidk-code-r76-trunk/lib/linux/../EApiEmulGPIO.c **** #endif
 169:/home/hkh/git/eapidk-code-r76-trunk/lib/linux/../EApiEmulGPIO.c ****   EAPI_EMUL_GPIO_LEVEL_REG2    ,
 170:/home/hkh/git/eapidk-code-r76-trunk/lib/linux/../EApiEmulGPIO.c ****   EAPI_EMUL_GPIO_DIRECTION_REG2,
 171:/home/hkh/git/eapidk-code-r76-trunk/lib/linux/../EApiEmulGPIO.c ****   &EApiWriteIO32Delay,
 172:/home/hkh/git/eapidk-code-r76-trunk/lib/linux/../EApiEmulGPIO.c ****   &EApiReadIO32Delay,
 173:/home/hkh/git/eapidk-code-r76-trunk/lib/linux/../EApiEmulGPIO.c **** };
 174:/home/hkh/git/eapidk-code-r76-trunk/lib/linux/../EApiEmulGPIO.c **** const GPIOMappingsTbl_t GpioMappingID0[]={
 175:/home/hkh/git/eapidk-code-r76-trunk/lib/linux/../EApiEmulGPIO.c **** #if (GPI0_PORT_BIT>31)
 176:/home/hkh/git/eapidk-code-r76-trunk/lib/linux/../EApiEmulGPIO.c ****   {BIT(GPI0_PORT_BIT - 32) , &Port2Desc},
 177:/home/hkh/git/eapidk-code-r76-trunk/lib/linux/../EApiEmulGPIO.c **** #else
 178:/home/hkh/git/eapidk-code-r76-trunk/lib/linux/../EApiEmulGPIO.c ****   {BIT(GPI0_PORT_BIT) , &Port1Desc},
 179:/home/hkh/git/eapidk-code-r76-trunk/lib/linux/../EApiEmulGPIO.c **** #endif
 180:/home/hkh/git/eapidk-code-r76-trunk/lib/linux/../EApiEmulGPIO.c **** #if (GPI1_PORT_BIT>31)
 181:/home/hkh/git/eapidk-code-r76-trunk/lib/linux/../EApiEmulGPIO.c ****   {BIT(GPI1_PORT_BIT - 32) , &Port2Desc},
 182:/home/hkh/git/eapidk-code-r76-trunk/lib/linux/../EApiEmulGPIO.c **** #else
 183:/home/hkh/git/eapidk-code-r76-trunk/lib/linux/../EApiEmulGPIO.c ****   {BIT(GPI1_PORT_BIT) , &Port1Desc},
 184:/home/hkh/git/eapidk-code-r76-trunk/lib/linux/../EApiEmulGPIO.c **** #endif
 185:/home/hkh/git/eapidk-code-r76-trunk/lib/linux/../EApiEmulGPIO.c **** #if (GPI2_PORT_BIT>31)
 186:/home/hkh/git/eapidk-code-r76-trunk/lib/linux/../EApiEmulGPIO.c ****   {BIT(GPI2_PORT_BIT - 32) , &Port2Desc},
 187:/home/hkh/git/eapidk-code-r76-trunk/lib/linux/../EApiEmulGPIO.c **** #else
 188:/home/hkh/git/eapidk-code-r76-trunk/lib/linux/../EApiEmulGPIO.c ****   {BIT(GPI2_PORT_BIT) , &Port1Desc},
 189:/home/hkh/git/eapidk-code-r76-trunk/lib/linux/../EApiEmulGPIO.c **** #endif
 190:/home/hkh/git/eapidk-code-r76-trunk/lib/linux/../EApiEmulGPIO.c **** #if (GPI3_PORT_BIT>31)
 191:/home/hkh/git/eapidk-code-r76-trunk/lib/linux/../EApiEmulGPIO.c ****   {BIT(GPI3_PORT_BIT - 32) , &Port2Desc},
 192:/home/hkh/git/eapidk-code-r76-trunk/lib/linux/../EApiEmulGPIO.c **** #else
 193:/home/hkh/git/eapidk-code-r76-trunk/lib/linux/../EApiEmulGPIO.c ****   {BIT(GPI3_PORT_BIT) , &Port1Desc},
 194:/home/hkh/git/eapidk-code-r76-trunk/lib/linux/../EApiEmulGPIO.c **** #endif
 195:/home/hkh/git/eapidk-code-r76-trunk/lib/linux/../EApiEmulGPIO.c **** #if (GPO0_PORT_BIT>31)
 196:/home/hkh/git/eapidk-code-r76-trunk/lib/linux/../EApiEmulGPIO.c ****   {BIT(GPO0_PORT_BIT - 32) , &Port2Desc},
 197:/home/hkh/git/eapidk-code-r76-trunk/lib/linux/../EApiEmulGPIO.c **** #else
 198:/home/hkh/git/eapidk-code-r76-trunk/lib/linux/../EApiEmulGPIO.c ****   {BIT(GPO0_PORT_BIT) , &Port1Desc},
GAS LISTING /tmp/ccAG33yV.s 			page 12


 199:/home/hkh/git/eapidk-code-r76-trunk/lib/linux/../EApiEmulGPIO.c **** #endif
 200:/home/hkh/git/eapidk-code-r76-trunk/lib/linux/../EApiEmulGPIO.c **** #if (GPO1_PORT_BIT>31)
 201:/home/hkh/git/eapidk-code-r76-trunk/lib/linux/../EApiEmulGPIO.c ****   {BIT(GPO1_PORT_BIT - 32) , &Port2Desc},
 202:/home/hkh/git/eapidk-code-r76-trunk/lib/linux/../EApiEmulGPIO.c **** #else
 203:/home/hkh/git/eapidk-code-r76-trunk/lib/linux/../EApiEmulGPIO.c ****   {BIT(GPO1_PORT_BIT) , &Port1Desc},
 204:/home/hkh/git/eapidk-code-r76-trunk/lib/linux/../EApiEmulGPIO.c **** #endif
 205:/home/hkh/git/eapidk-code-r76-trunk/lib/linux/../EApiEmulGPIO.c **** #if (GPO2_PORT_BIT>31)
 206:/home/hkh/git/eapidk-code-r76-trunk/lib/linux/../EApiEmulGPIO.c ****   {BIT(GPO2_PORT_BIT - 32) , &Port2Desc},
 207:/home/hkh/git/eapidk-code-r76-trunk/lib/linux/../EApiEmulGPIO.c **** #else
 208:/home/hkh/git/eapidk-code-r76-trunk/lib/linux/../EApiEmulGPIO.c ****   {BIT(GPO2_PORT_BIT) , &Port1Desc},
 209:/home/hkh/git/eapidk-code-r76-trunk/lib/linux/../EApiEmulGPIO.c **** #endif
 210:/home/hkh/git/eapidk-code-r76-trunk/lib/linux/../EApiEmulGPIO.c **** #if (GPO3_PORT_BIT>31)
 211:/home/hkh/git/eapidk-code-r76-trunk/lib/linux/../EApiEmulGPIO.c ****   {BIT(GPO3_PORT_BIT - 32) , &Port2Desc},
 212:/home/hkh/git/eapidk-code-r76-trunk/lib/linux/../EApiEmulGPIO.c **** #else
 213:/home/hkh/git/eapidk-code-r76-trunk/lib/linux/../EApiEmulGPIO.c ****   {BIT(GPO3_PORT_BIT) , &Port1Desc},
 214:/home/hkh/git/eapidk-code-r76-trunk/lib/linux/../EApiEmulGPIO.c **** #endif
 215:/home/hkh/git/eapidk-code-r76-trunk/lib/linux/../EApiEmulGPIO.c ****   {END_OF_LIST_MARK, NULL}
 216:/home/hkh/git/eapidk-code-r76-trunk/lib/linux/../EApiEmulGPIO.c **** };
 217:/home/hkh/git/eapidk-code-r76-trunk/lib/linux/../EApiEmulGPIO.c **** const GPIOMappingsTbl_t GpioMappingID1[]={
 218:/home/hkh/git/eapidk-code-r76-trunk/lib/linux/../EApiEmulGPIO.c **** #if (GPI0_PORT_BIT>31)
 219:/home/hkh/git/eapidk-code-r76-trunk/lib/linux/../EApiEmulGPIO.c ****   {BIT(GPI0_PORT_BIT - 32) , &Port2Desc},
 220:/home/hkh/git/eapidk-code-r76-trunk/lib/linux/../EApiEmulGPIO.c **** #else
 221:/home/hkh/git/eapidk-code-r76-trunk/lib/linux/../EApiEmulGPIO.c ****   {BIT(GPI0_PORT_BIT) , &Port1Desc},
 222:/home/hkh/git/eapidk-code-r76-trunk/lib/linux/../EApiEmulGPIO.c **** #endif
 223:/home/hkh/git/eapidk-code-r76-trunk/lib/linux/../EApiEmulGPIO.c ****   {END_OF_LIST_MARK, NULL}
 224:/home/hkh/git/eapidk-code-r76-trunk/lib/linux/../EApiEmulGPIO.c **** };
 225:/home/hkh/git/eapidk-code-r76-trunk/lib/linux/../EApiEmulGPIO.c **** const GPIOMappingsTbl_t GpioMappingID2[]={
 226:/home/hkh/git/eapidk-code-r76-trunk/lib/linux/../EApiEmulGPIO.c **** #if (GPI1_PORT_BIT>31)
 227:/home/hkh/git/eapidk-code-r76-trunk/lib/linux/../EApiEmulGPIO.c ****   {BIT(GPI1_PORT_BIT - 32) , &Port2Desc},
 228:/home/hkh/git/eapidk-code-r76-trunk/lib/linux/../EApiEmulGPIO.c **** #else
 229:/home/hkh/git/eapidk-code-r76-trunk/lib/linux/../EApiEmulGPIO.c ****   {BIT(GPI1_PORT_BIT) , &Port1Desc},
 230:/home/hkh/git/eapidk-code-r76-trunk/lib/linux/../EApiEmulGPIO.c **** #endif
 231:/home/hkh/git/eapidk-code-r76-trunk/lib/linux/../EApiEmulGPIO.c ****   {END_OF_LIST_MARK, NULL}
 232:/home/hkh/git/eapidk-code-r76-trunk/lib/linux/../EApiEmulGPIO.c **** };
 233:/home/hkh/git/eapidk-code-r76-trunk/lib/linux/../EApiEmulGPIO.c **** const GPIOMappingsTbl_t GpioMappingID3[]={
 234:/home/hkh/git/eapidk-code-r76-trunk/lib/linux/../EApiEmulGPIO.c **** #if (GPI2_PORT_BIT>31)
 235:/home/hkh/git/eapidk-code-r76-trunk/lib/linux/../EApiEmulGPIO.c ****   {BIT(GPI2_PORT_BIT - 32) , &Port2Desc},
 236:/home/hkh/git/eapidk-code-r76-trunk/lib/linux/../EApiEmulGPIO.c **** #else
 237:/home/hkh/git/eapidk-code-r76-trunk/lib/linux/../EApiEmulGPIO.c ****   {BIT(GPI2_PORT_BIT) , &Port1Desc},
 238:/home/hkh/git/eapidk-code-r76-trunk/lib/linux/../EApiEmulGPIO.c **** #endif
 239:/home/hkh/git/eapidk-code-r76-trunk/lib/linux/../EApiEmulGPIO.c ****   {END_OF_LIST_MARK, NULL}
 240:/home/hkh/git/eapidk-code-r76-trunk/lib/linux/../EApiEmulGPIO.c **** };
 241:/home/hkh/git/eapidk-code-r76-trunk/lib/linux/../EApiEmulGPIO.c **** const GPIOMappingsTbl_t GpioMappingID4[]={
 242:/home/hkh/git/eapidk-code-r76-trunk/lib/linux/../EApiEmulGPIO.c **** #if (GPI3_PORT_BIT>31)
 243:/home/hkh/git/eapidk-code-r76-trunk/lib/linux/../EApiEmulGPIO.c ****   {BIT(GPI3_PORT_BIT - 32) , &Port2Desc},
 244:/home/hkh/git/eapidk-code-r76-trunk/lib/linux/../EApiEmulGPIO.c **** #else
 245:/home/hkh/git/eapidk-code-r76-trunk/lib/linux/../EApiEmulGPIO.c ****   {BIT(GPI3_PORT_BIT) , &Port1Desc},
 246:/home/hkh/git/eapidk-code-r76-trunk/lib/linux/../EApiEmulGPIO.c **** #endif
 247:/home/hkh/git/eapidk-code-r76-trunk/lib/linux/../EApiEmulGPIO.c ****   {END_OF_LIST_MARK, NULL}
 248:/home/hkh/git/eapidk-code-r76-trunk/lib/linux/../EApiEmulGPIO.c **** };
 249:/home/hkh/git/eapidk-code-r76-trunk/lib/linux/../EApiEmulGPIO.c **** const GPIOMappingsTbl_t GpioMappingID5[]={
 250:/home/hkh/git/eapidk-code-r76-trunk/lib/linux/../EApiEmulGPIO.c **** #if (GPO0_PORT_BIT>31)
 251:/home/hkh/git/eapidk-code-r76-trunk/lib/linux/../EApiEmulGPIO.c ****   {BIT(GPO0_PORT_BIT - 32) , &Port2Desc},
 252:/home/hkh/git/eapidk-code-r76-trunk/lib/linux/../EApiEmulGPIO.c **** #else
 253:/home/hkh/git/eapidk-code-r76-trunk/lib/linux/../EApiEmulGPIO.c ****   {BIT(GPO0_PORT_BIT) , &Port1Desc},
 254:/home/hkh/git/eapidk-code-r76-trunk/lib/linux/../EApiEmulGPIO.c **** #endif
 255:/home/hkh/git/eapidk-code-r76-trunk/lib/linux/../EApiEmulGPIO.c ****   {END_OF_LIST_MARK, NULL}
GAS LISTING /tmp/ccAG33yV.s 			page 13


 256:/home/hkh/git/eapidk-code-r76-trunk/lib/linux/../EApiEmulGPIO.c **** };
 257:/home/hkh/git/eapidk-code-r76-trunk/lib/linux/../EApiEmulGPIO.c **** const GPIOMappingsTbl_t GpioMappingID6[]={
 258:/home/hkh/git/eapidk-code-r76-trunk/lib/linux/../EApiEmulGPIO.c **** #if (GPO1_PORT_BIT>31)
 259:/home/hkh/git/eapidk-code-r76-trunk/lib/linux/../EApiEmulGPIO.c ****   {BIT(GPO1_PORT_BIT - 32) , &Port2Desc},
 260:/home/hkh/git/eapidk-code-r76-trunk/lib/linux/../EApiEmulGPIO.c **** #else
 261:/home/hkh/git/eapidk-code-r76-trunk/lib/linux/../EApiEmulGPIO.c ****   {BIT(GPO1_PORT_BIT) , &Port1Desc},
 262:/home/hkh/git/eapidk-code-r76-trunk/lib/linux/../EApiEmulGPIO.c **** #endif
 263:/home/hkh/git/eapidk-code-r76-trunk/lib/linux/../EApiEmulGPIO.c ****   {END_OF_LIST_MARK, NULL}
 264:/home/hkh/git/eapidk-code-r76-trunk/lib/linux/../EApiEmulGPIO.c **** };
 265:/home/hkh/git/eapidk-code-r76-trunk/lib/linux/../EApiEmulGPIO.c **** const GPIOMappingsTbl_t GpioMappingID7[]={
 266:/home/hkh/git/eapidk-code-r76-trunk/lib/linux/../EApiEmulGPIO.c **** #if (GPO2_PORT_BIT>31)
 267:/home/hkh/git/eapidk-code-r76-trunk/lib/linux/../EApiEmulGPIO.c ****   {BIT(GPO2_PORT_BIT - 32) , &Port2Desc},
 268:/home/hkh/git/eapidk-code-r76-trunk/lib/linux/../EApiEmulGPIO.c **** #else
 269:/home/hkh/git/eapidk-code-r76-trunk/lib/linux/../EApiEmulGPIO.c ****   {BIT(GPO2_PORT_BIT) , &Port1Desc},
 270:/home/hkh/git/eapidk-code-r76-trunk/lib/linux/../EApiEmulGPIO.c **** #endif
 271:/home/hkh/git/eapidk-code-r76-trunk/lib/linux/../EApiEmulGPIO.c ****   {END_OF_LIST_MARK, NULL}
 272:/home/hkh/git/eapidk-code-r76-trunk/lib/linux/../EApiEmulGPIO.c **** };
 273:/home/hkh/git/eapidk-code-r76-trunk/lib/linux/../EApiEmulGPIO.c **** const GPIOMappingsTbl_t GpioMappingID8[]={
 274:/home/hkh/git/eapidk-code-r76-trunk/lib/linux/../EApiEmulGPIO.c **** #if (GPO3_PORT_BIT>31)
 275:/home/hkh/git/eapidk-code-r76-trunk/lib/linux/../EApiEmulGPIO.c ****   {BIT(GPO3_PORT_BIT - 32) , &Port2Desc},
 276:/home/hkh/git/eapidk-code-r76-trunk/lib/linux/../EApiEmulGPIO.c **** #else
 277:/home/hkh/git/eapidk-code-r76-trunk/lib/linux/../EApiEmulGPIO.c ****   {BIT(GPO3_PORT_BIT) , &Port1Desc},
 278:/home/hkh/git/eapidk-code-r76-trunk/lib/linux/../EApiEmulGPIO.c **** #endif
 279:/home/hkh/git/eapidk-code-r76-trunk/lib/linux/../EApiEmulGPIO.c ****   {END_OF_LIST_MARK, NULL}
 280:/home/hkh/git/eapidk-code-r76-trunk/lib/linux/../EApiEmulGPIO.c **** };
 281:/home/hkh/git/eapidk-code-r76-trunk/lib/linux/../EApiEmulGPIO.c **** typedef struct GPIOIDMappingsTbl_s{
 282:/home/hkh/git/eapidk-code-r76-trunk/lib/linux/../EApiEmulGPIO.c ****   const EApiId_t Id          ; /* EAPI Temperature Id */
 283:/home/hkh/git/eapidk-code-r76-trunk/lib/linux/../EApiEmulGPIO.c ****   const GPIOMappingsTbl_t *const MapTbl   ; /* Gpio Mapping Table API Interface Bitmask -> Port Bit
 284:/home/hkh/git/eapidk-code-r76-trunk/lib/linux/../EApiEmulGPIO.c ****   const uint32_t OutputMask  ; /* Bitmask Supported Bits For Output  */
 285:/home/hkh/git/eapidk-code-r76-trunk/lib/linux/../EApiEmulGPIO.c ****   const uint32_t InputMask   ; /* Bitmask Supported Bits for Input */
 286:/home/hkh/git/eapidk-code-r76-trunk/lib/linux/../EApiEmulGPIO.c **** }GPIOIDMappingsTbl_t;
 287:/home/hkh/git/eapidk-code-r76-trunk/lib/linux/../EApiEmulGPIO.c **** const GPIOIDMappingsTbl_t GPIOIDMapping[]={
 288:/home/hkh/git/eapidk-code-r76-trunk/lib/linux/../EApiEmulGPIO.c **** #if (EAPI_PLATFORM==EAPI_PLATFORM_COM0)
 289:/home/hkh/git/eapidk-code-r76-trunk/lib/linux/../EApiEmulGPIO.c ****   {EAPI_COM0_ID_GPIO_BANK   , GpioMappingID0, 0x000000F0, 0x0000000F},
 290:/home/hkh/git/eapidk-code-r76-trunk/lib/linux/../EApiEmulGPIO.c ****   {EAPI_COM0_ID_GPIO_GPO0   , GpioMappingID1, 0x00000000, 0x00000001},
 291:/home/hkh/git/eapidk-code-r76-trunk/lib/linux/../EApiEmulGPIO.c ****   {EAPI_COM0_ID_GPIO_GPO1   , GpioMappingID2, 0x00000000, 0x00000001},
 292:/home/hkh/git/eapidk-code-r76-trunk/lib/linux/../EApiEmulGPIO.c ****   {EAPI_COM0_ID_GPIO_GPO2   , GpioMappingID3, 0x00000000, 0x00000001},
 293:/home/hkh/git/eapidk-code-r76-trunk/lib/linux/../EApiEmulGPIO.c ****   {EAPI_COM0_ID_GPIO_GPO3   , GpioMappingID4, 0x00000000, 0x00000001},
 294:/home/hkh/git/eapidk-code-r76-trunk/lib/linux/../EApiEmulGPIO.c ****   {EAPI_COM0_ID_GPIO_GPI0   , GpioMappingID5, 0x00000001, 0x00000000},
 295:/home/hkh/git/eapidk-code-r76-trunk/lib/linux/../EApiEmulGPIO.c ****   {EAPI_COM0_ID_GPIO_GPI1   , GpioMappingID6, 0x00000001, 0x00000000},
 296:/home/hkh/git/eapidk-code-r76-trunk/lib/linux/../EApiEmulGPIO.c ****   {EAPI_COM0_ID_GPIO_GPI2   , GpioMappingID7, 0x00000001, 0x00000000},
 297:/home/hkh/git/eapidk-code-r76-trunk/lib/linux/../EApiEmulGPIO.c ****   {EAPI_COM0_ID_GPIO_GPI3   , GpioMappingID8, 0x00000001, 0x00000000},
 298:/home/hkh/git/eapidk-code-r76-trunk/lib/linux/../EApiEmulGPIO.c **** #elif (EAPI_PLATFORM==EAPI_PLATFORM_ETX) || (EAPI_PLATFORM==EAPI_PLATFORM_Q7)
 299:/home/hkh/git/eapidk-code-r76-trunk/lib/linux/../EApiEmulGPIO.c ****   {0xFFFFFFFF              , NULL          ,          0,          0},
 300:/home/hkh/git/eapidk-code-r76-trunk/lib/linux/../EApiEmulGPIO.c **** #else
 301:/home/hkh/git/eapidk-code-r76-trunk/lib/linux/../EApiEmulGPIO.c ****   {0xFFFFFFFF              , NULL          ,          0,          0},
 302:/home/hkh/git/eapidk-code-r76-trunk/lib/linux/../EApiEmulGPIO.c **** #endif
 303:/home/hkh/git/eapidk-code-r76-trunk/lib/linux/../EApiEmulGPIO.c **** };
 304:/home/hkh/git/eapidk-code-r76-trunk/lib/linux/../EApiEmulGPIO.c **** 
 305:/home/hkh/git/eapidk-code-r76-trunk/lib/linux/../EApiEmulGPIO.c **** EApiStatus_t 
 306:/home/hkh/git/eapidk-code-r76-trunk/lib/linux/../EApiEmulGPIO.c **** EApiGPIOGetLevelEmul( 
 307:/home/hkh/git/eapidk-code-r76-trunk/lib/linux/../EApiEmulGPIO.c ****     __IN  EApiId_t  Id      , 
 308:/home/hkh/git/eapidk-code-r76-trunk/lib/linux/../EApiEmulGPIO.c ****     __IN  uint32_t  BitMask , 
 309:/home/hkh/git/eapidk-code-r76-trunk/lib/linux/../EApiEmulGPIO.c ****     __OUT uint32_t *pLevel
 310:/home/hkh/git/eapidk-code-r76-trunk/lib/linux/../EApiEmulGPIO.c ****     )
 311:/home/hkh/git/eapidk-code-r76-trunk/lib/linux/../EApiEmulGPIO.c **** {
 389              		.loc 1 311 1
GAS LISTING /tmp/ccAG33yV.s 			page 14


 390              		.cfi_startproc
 391 00b1 F30F1EFA 		endbr64
 392 00b5 55       		pushq	%rbp
 393              		.cfi_def_cfa_offset 16
 394              		.cfi_offset 6, -16
 395 00b6 4889E5   		movq	%rsp, %rbp
 396              		.cfi_def_cfa_register 6
 397 00b9 53       		pushq	%rbx
 398 00ba 4883EC28 		subq	$40, %rsp
 399              		.cfi_offset 3, -24
 400 00be 897DDC   		movl	%edi, -36(%rbp)
 401 00c1 8975D8   		movl	%esi, -40(%rbp)
 402 00c4 488955D0 		movq	%rdx, -48(%rbp)
 312:/home/hkh/git/eapidk-code-r76-trunk/lib/linux/../EApiEmulGPIO.c ****   EApiStatus_t StatusCode=EAPI_STATUS_SUCCESS;
 403              		.loc 1 312 16
 404 00c8 C745E000 		movl	$0, -32(%rbp)
 404      000000
 313:/home/hkh/git/eapidk-code-r76-trunk/lib/linux/../EApiEmulGPIO.c ****   unsigned i,i2;
 314:/home/hkh/git/eapidk-code-r76-trunk/lib/linux/../EApiEmulGPIO.c ****   uint32_t APIBitMask=1;
 405              		.loc 1 314 12
 406 00cf C745EC01 		movl	$1, -20(%rbp)
 406      000000
 315:/home/hkh/git/eapidk-code-r76-trunk/lib/linux/../EApiEmulGPIO.c **** 
 316:/home/hkh/git/eapidk-code-r76-trunk/lib/linux/../EApiEmulGPIO.c ****   for(i=0;i<ARRAY_SIZE(GPIOIDMapping);i++)
 407              		.loc 1 316 8
 408 00d6 C745E400 		movl	$0, -28(%rbp)
 408      000000
 409              		.loc 1 316 3
 410 00dd E9380300 		jmp	.L13
 410      00
 411              	.L23:
 317:/home/hkh/git/eapidk-code-r76-trunk/lib/linux/../EApiEmulGPIO.c ****   {
 318:/home/hkh/git/eapidk-code-r76-trunk/lib/linux/../EApiEmulGPIO.c ****       if(GPIOIDMapping[i].Id==Id)
 412              		.loc 1 318 26
 413 00e2 8B55E4   		movl	-28(%rbp), %edx
 414 00e5 4889D0   		movq	%rdx, %rax
 415 00e8 4801C0   		addq	%rax, %rax
 416 00eb 4801D0   		addq	%rdx, %rax
 417 00ee 48C1E003 		salq	$3, %rax
 418 00f2 4889C2   		movq	%rax, %rdx
 419 00f5 488D0500 		leaq	GPIOIDMapping(%rip), %rax
 419      000000
 420 00fc 8B0402   		movl	(%rdx,%rax), %eax
 421              		.loc 1 318 9
 422 00ff 3945DC   		cmpl	%eax, -36(%rbp)
 423 0102 0F850E03 		jne	.L14
 423      0000
 319:/home/hkh/git/eapidk-code-r76-trunk/lib/linux/../EApiEmulGPIO.c ****       {
 320:/home/hkh/git/eapidk-code-r76-trunk/lib/linux/../EApiEmulGPIO.c ****         EAPI_LIB_RETURN_ERROR_IF(
 424              		.loc 1 320 9
 425 0108 8B55E4   		movl	-28(%rbp), %edx
 426 010b 4889D0   		movq	%rdx, %rax
 427 010e 4801C0   		addq	%rax, %rax
 428 0111 4801D0   		addq	%rdx, %rax
 429 0114 48C1E003 		salq	$3, %rax
 430 0118 4889C2   		movq	%rax, %rdx
 431 011b 488D0500 		leaq	16+GPIOIDMapping(%rip), %rax
GAS LISTING /tmp/ccAG33yV.s 			page 15


 431      000000
 432 0122 8B0C02   		movl	(%rdx,%rax), %ecx
 433 0125 8B55E4   		movl	-28(%rbp), %edx
 434 0128 4889D0   		movq	%rdx, %rax
 435 012b 4801C0   		addq	%rax, %rax
 436 012e 4801D0   		addq	%rdx, %rax
 437 0131 48C1E003 		salq	$3, %rax
 438 0135 4889C2   		movq	%rax, %rdx
 439 0138 488D0500 		leaq	20+GPIOIDMapping(%rip), %rax
 439      000000
 440 013f 8B0402   		movl	(%rdx,%rax), %eax
 441 0142 09C8     		orl	%ecx, %eax
 442 0144 F7D0     		notl	%eax
 443 0146 2345D8   		andl	-40(%rbp), %eax
 444 0149 85C0     		testl	%eax, %eax
 445 014b 744B     		je	.L15
 446              		.loc 1 320 9 is_stmt 0 discriminator 1
 447 014d 4883EC08 		subq	$8, %rsp
 448 0151 488D0500 		leaq	.LC3(%rip), %rax
 448      000000
 449 0158 50       		pushq	%rax
 450 0159 4C8D0D00 		leaq	.LC0(%rip), %r9
 450      000000
 451 0160 41B8FBFE 		movl	$-261, %r8d
 451      FFFF
 452 0166 B9400100 		movl	$320, %ecx
 452      00
 453 016b 488D1500 		leaq	.LC1(%rip), %rdx
 453      000000
 454 0172 488D3500 		leaq	.LC2(%rip), %rsi
 454      000000
 455 0179 BF450000 		movl	$69, %edi
 455      00
 456 017e B8000000 		movl	$0, %eax
 456      00
 457 0183 E8000000 		call	siFormattedMessage_SC@PLT
 457      00
 458 0188 4883C410 		addq	$16, %rsp
 459 018c C745E0FB 		movl	$-261, -32(%rbp)
 459      FEFFFF
 460 0193 E9D30200 		jmp	.L16
 460      00
 461              	.L15:
 321:/home/hkh/git/eapidk-code-r76-trunk/lib/linux/../EApiEmulGPIO.c ****           EApiGPIOGetLevelEmul, 
 322:/home/hkh/git/eapidk-code-r76-trunk/lib/linux/../EApiEmulGPIO.c ****           (BitMask&~(GPIOIDMapping[i].OutputMask|GPIOIDMapping[i].InputMask)) , 
 323:/home/hkh/git/eapidk-code-r76-trunk/lib/linux/../EApiEmulGPIO.c ****           EAPI_STATUS_INVALID_BITMASK, 
 324:/home/hkh/git/eapidk-code-r76-trunk/lib/linux/../EApiEmulGPIO.c ****           "Bit-mask Selects Invalid Bits"
 325:/home/hkh/git/eapidk-code-r76-trunk/lib/linux/../EApiEmulGPIO.c ****           );
 326:/home/hkh/git/eapidk-code-r76-trunk/lib/linux/../EApiEmulGPIO.c ****         for(i2=0;GPIOIDMapping[i].MapTbl[i2].PortMask!=END_OF_LIST_MARK;i2++){
 462              		.loc 1 326 15 is_stmt 1
 463 0198 C745E800 		movl	$0, -24(%rbp)
 463      000000
 464              		.loc 1 326 9
 465 019f EB36     		jmp	.L17
 466              	.L18:
 327:/home/hkh/git/eapidk-code-r76-trunk/lib/linux/../EApiEmulGPIO.c ****           GPIOIDMapping[i].MapTbl[i2].Port->Dirty=0;
 467              		.loc 1 327 27 discriminator 3
GAS LISTING /tmp/ccAG33yV.s 			page 16


 468 01a1 8B55E4   		movl	-28(%rbp), %edx
 469 01a4 4889D0   		movq	%rdx, %rax
 470 01a7 4801C0   		addq	%rax, %rax
 471 01aa 4801D0   		addq	%rdx, %rax
 472 01ad 48C1E003 		salq	$3, %rax
 473 01b1 4889C2   		movq	%rax, %rdx
 474 01b4 488D0500 		leaq	8+GPIOIDMapping(%rip), %rax
 474      000000
 475 01bb 488B0402 		movq	(%rdx,%rax), %rax
 476              		.loc 1 327 34 discriminator 3
 477 01bf 8B55E8   		movl	-24(%rbp), %edx
 478 01c2 48C1E204 		salq	$4, %rdx
 479 01c6 4801D0   		addq	%rdx, %rax
 480              		.loc 1 327 38 discriminator 3
 481 01c9 488B4008 		movq	8(%rax), %rax
 482              		.loc 1 327 50 discriminator 3
 483 01cd C7000000 		movl	$0, (%rax)
 483      0000
 326:/home/hkh/git/eapidk-code-r76-trunk/lib/linux/../EApiEmulGPIO.c ****           GPIOIDMapping[i].MapTbl[i2].Port->Dirty=0;
 484              		.loc 1 326 75 discriminator 3
 485 01d3 8345E801 		addl	$1, -24(%rbp)
 486              	.L17:
 326:/home/hkh/git/eapidk-code-r76-trunk/lib/linux/../EApiEmulGPIO.c ****           GPIOIDMapping[i].MapTbl[i2].Port->Dirty=0;
 487              		.loc 1 326 34 discriminator 1
 488 01d7 8B55E4   		movl	-28(%rbp), %edx
 489 01da 4889D0   		movq	%rdx, %rax
 490 01dd 4801C0   		addq	%rax, %rax
 491 01e0 4801D0   		addq	%rdx, %rax
 492 01e3 48C1E003 		salq	$3, %rax
 493 01e7 4889C2   		movq	%rax, %rdx
 494 01ea 488D0500 		leaq	8+GPIOIDMapping(%rip), %rax
 494      000000
 495 01f1 488B0402 		movq	(%rdx,%rax), %rax
 326:/home/hkh/git/eapidk-code-r76-trunk/lib/linux/../EApiEmulGPIO.c ****           GPIOIDMapping[i].MapTbl[i2].Port->Dirty=0;
 496              		.loc 1 326 41 discriminator 1
 497 01f5 8B55E8   		movl	-24(%rbp), %edx
 498 01f8 48C1E204 		salq	$4, %rdx
 499 01fc 4801D0   		addq	%rdx, %rax
 326:/home/hkh/git/eapidk-code-r76-trunk/lib/linux/../EApiEmulGPIO.c ****           GPIOIDMapping[i].MapTbl[i2].Port->Dirty=0;
 500              		.loc 1 326 45 discriminator 1
 501 01ff 8B00     		movl	(%rax), %eax
 326:/home/hkh/git/eapidk-code-r76-trunk/lib/linux/../EApiEmulGPIO.c ****           GPIOIDMapping[i].MapTbl[i2].Port->Dirty=0;
 502              		.loc 1 326 9 discriminator 1
 503 0201 83F8FF   		cmpl	$-1, %eax
 504 0204 759B     		jne	.L18
 328:/home/hkh/git/eapidk-code-r76-trunk/lib/linux/../EApiEmulGPIO.c ****         }
 329:/home/hkh/git/eapidk-code-r76-trunk/lib/linux/../EApiEmulGPIO.c ****         *pLevel=0;
 505              		.loc 1 329 16
 506 0206 488B45D0 		movq	-48(%rbp), %rax
 507 020a C7000000 		movl	$0, (%rax)
 507      0000
 330:/home/hkh/git/eapidk-code-r76-trunk/lib/linux/../EApiEmulGPIO.c ****         for(i2=0;GPIOIDMapping[i].MapTbl[i2].PortMask!=END_OF_LIST_MARK;i2++){
 508              		.loc 1 330 15
 509 0210 C745E800 		movl	$0, -24(%rbp)
 509      000000
 510              		.loc 1 330 9
 511 0217 E97F0100 		jmp	.L19
GAS LISTING /tmp/ccAG33yV.s 			page 17


 511      00
 512              	.L22:
 331:/home/hkh/git/eapidk-code-r76-trunk/lib/linux/../EApiEmulGPIO.c ****           if((BitMask&APIBitMask))
 513              		.loc 1 331 22
 514 021c 8B45D8   		movl	-40(%rbp), %eax
 515 021f 2345EC   		andl	-20(%rbp), %eax
 516              		.loc 1 331 13
 517 0222 85C0     		testl	%eax, %eax
 518 0224 0F846A01 		je	.L20
 518      0000
 332:/home/hkh/git/eapidk-code-r76-trunk/lib/linux/../EApiEmulGPIO.c ****           {
 333:/home/hkh/git/eapidk-code-r76-trunk/lib/linux/../EApiEmulGPIO.c ****             if(GPIOIDMapping[i].MapTbl[i2].Port->Dirty==0){
 519              		.loc 1 333 32
 520 022a 8B55E4   		movl	-28(%rbp), %edx
 521 022d 4889D0   		movq	%rdx, %rax
 522 0230 4801C0   		addq	%rax, %rax
 523 0233 4801D0   		addq	%rdx, %rax
 524 0236 48C1E003 		salq	$3, %rax
 525 023a 4889C2   		movq	%rax, %rdx
 526 023d 488D0500 		leaq	8+GPIOIDMapping(%rip), %rax
 526      000000
 527 0244 488B0402 		movq	(%rdx,%rax), %rax
 528              		.loc 1 333 39
 529 0248 8B55E8   		movl	-24(%rbp), %edx
 530 024b 48C1E204 		salq	$4, %rdx
 531 024f 4801D0   		addq	%rdx, %rax
 532              		.loc 1 333 43
 533 0252 488B4008 		movq	8(%rax), %rax
 534              		.loc 1 333 48
 535 0256 8B00     		movl	(%rax), %eax
 536              		.loc 1 333 15
 537 0258 85C0     		testl	%eax, %eax
 538 025a 0F85C400 		jne	.L21
 538      0000
 334:/home/hkh/git/eapidk-code-r76-trunk/lib/linux/../EApiEmulGPIO.c ****               GPIOIDMapping[i].MapTbl[i2].Port->Value=GPIOIDMapping[i].MapTbl[i2].Port->Read(
 539              		.loc 1 334 71
 540 0260 8B55E4   		movl	-28(%rbp), %edx
 541 0263 4889D0   		movq	%rdx, %rax
 542 0266 4801C0   		addq	%rax, %rax
 543 0269 4801D0   		addq	%rdx, %rax
 544 026c 48C1E003 		salq	$3, %rax
 545 0270 4889C2   		movq	%rax, %rdx
 546 0273 488D0500 		leaq	8+GPIOIDMapping(%rip), %rax
 546      000000
 547 027a 488B0402 		movq	(%rdx,%rax), %rax
 548              		.loc 1 334 78
 549 027e 8B55E8   		movl	-24(%rbp), %edx
 550 0281 48C1E204 		salq	$4, %rdx
 551 0285 4801D0   		addq	%rdx, %rax
 552              		.loc 1 334 82
 553 0288 488B4008 		movq	8(%rax), %rax
 554              		.loc 1 334 87
 555 028c 488B7020 		movq	32(%rax), %rsi
 335:/home/hkh/git/eapidk-code-r76-trunk/lib/linux/../EApiEmulGPIO.c ****                 GPIOIDMapping[i].MapTbl[i2].Port->LevelArg1
 556              		.loc 1 335 33
 557 0290 8B55E4   		movl	-28(%rbp), %edx
 558 0293 4889D0   		movq	%rdx, %rax
GAS LISTING /tmp/ccAG33yV.s 			page 18


 559 0296 4801C0   		addq	%rax, %rax
 560 0299 4801D0   		addq	%rdx, %rax
 561 029c 48C1E003 		salq	$3, %rax
 562 02a0 4889C2   		movq	%rax, %rdx
 563 02a3 488D0500 		leaq	8+GPIOIDMapping(%rip), %rax
 563      000000
 564 02aa 488B0402 		movq	(%rdx,%rax), %rax
 565              		.loc 1 335 40
 566 02ae 8B55E8   		movl	-24(%rbp), %edx
 567 02b1 48C1E204 		salq	$4, %rdx
 568 02b5 4801D0   		addq	%rdx, %rax
 569              		.loc 1 335 44
 570 02b8 488B4008 		movq	8(%rax), %rax
 334:/home/hkh/git/eapidk-code-r76-trunk/lib/linux/../EApiEmulGPIO.c ****               GPIOIDMapping[i].MapTbl[i2].Port->Value=GPIOIDMapping[i].MapTbl[i2].Port->Read(
 571              		.loc 1 334 55
 572 02bc 8B480C   		movl	12(%rax), %ecx
 334:/home/hkh/git/eapidk-code-r76-trunk/lib/linux/../EApiEmulGPIO.c ****               GPIOIDMapping[i].MapTbl[i2].Port->Value=GPIOIDMapping[i].MapTbl[i2].Port->Read(
 573              		.loc 1 334 31
 574 02bf 8B55E4   		movl	-28(%rbp), %edx
 575 02c2 4889D0   		movq	%rdx, %rax
 576 02c5 4801C0   		addq	%rax, %rax
 577 02c8 4801D0   		addq	%rdx, %rax
 578 02cb 48C1E003 		salq	$3, %rax
 579 02cf 4889C2   		movq	%rax, %rdx
 580 02d2 488D0500 		leaq	8+GPIOIDMapping(%rip), %rax
 580      000000
 581 02d9 488B0402 		movq	(%rdx,%rax), %rax
 334:/home/hkh/git/eapidk-code-r76-trunk/lib/linux/../EApiEmulGPIO.c ****               GPIOIDMapping[i].MapTbl[i2].Port->Value=GPIOIDMapping[i].MapTbl[i2].Port->Read(
 582              		.loc 1 334 38
 583 02dd 8B55E8   		movl	-24(%rbp), %edx
 584 02e0 48C1E204 		salq	$4, %rdx
 585 02e4 4801D0   		addq	%rdx, %rax
 334:/home/hkh/git/eapidk-code-r76-trunk/lib/linux/../EApiEmulGPIO.c ****               GPIOIDMapping[i].MapTbl[i2].Port->Value=GPIOIDMapping[i].MapTbl[i2].Port->Read(
 586              		.loc 1 334 42
 587 02e7 488B5808 		movq	8(%rax), %rbx
 334:/home/hkh/git/eapidk-code-r76-trunk/lib/linux/../EApiEmulGPIO.c ****               GPIOIDMapping[i].MapTbl[i2].Port->Value=GPIOIDMapping[i].MapTbl[i2].Port->Read(
 588              		.loc 1 334 55
 589 02eb 89CF     		movl	%ecx, %edi
 590 02ed FFD6     		call	*%rsi
 591              	.LVL0:
 334:/home/hkh/git/eapidk-code-r76-trunk/lib/linux/../EApiEmulGPIO.c ****               GPIOIDMapping[i].MapTbl[i2].Port->Value=GPIOIDMapping[i].MapTbl[i2].Port->Read(
 592              		.loc 1 334 54
 593 02ef 894304   		movl	%eax, 4(%rbx)
 336:/home/hkh/git/eapidk-code-r76-trunk/lib/linux/../EApiEmulGPIO.c ****                 );
 337:/home/hkh/git/eapidk-code-r76-trunk/lib/linux/../EApiEmulGPIO.c ****               GPIOIDMapping[i].MapTbl[i2].Port->Dirty=1;
 594              		.loc 1 337 31
 595 02f2 8B55E4   		movl	-28(%rbp), %edx
 596 02f5 4889D0   		movq	%rdx, %rax
 597 02f8 4801C0   		addq	%rax, %rax
 598 02fb 4801D0   		addq	%rdx, %rax
 599 02fe 48C1E003 		salq	$3, %rax
 600 0302 4889C2   		movq	%rax, %rdx
 601 0305 488D0500 		leaq	8+GPIOIDMapping(%rip), %rax
 601      000000
 602 030c 488B0402 		movq	(%rdx,%rax), %rax
 603              		.loc 1 337 38
 604 0310 8B55E8   		movl	-24(%rbp), %edx
GAS LISTING /tmp/ccAG33yV.s 			page 19


 605 0313 48C1E204 		salq	$4, %rdx
 606 0317 4801D0   		addq	%rdx, %rax
 607              		.loc 1 337 42
 608 031a 488B4008 		movq	8(%rax), %rax
 609              		.loc 1 337 54
 610 031e C7000100 		movl	$1, (%rax)
 610      0000
 611              	.L21:
 338:/home/hkh/git/eapidk-code-r76-trunk/lib/linux/../EApiEmulGPIO.c ****             }
 339:/home/hkh/git/eapidk-code-r76-trunk/lib/linux/../EApiEmulGPIO.c ****             if(GPIOIDMapping[i].MapTbl[i2].Port->Value&GPIOIDMapping[i].MapTbl[i2].PortMask){
 612              		.loc 1 339 32
 613 0324 8B55E4   		movl	-28(%rbp), %edx
 614 0327 4889D0   		movq	%rdx, %rax
 615 032a 4801C0   		addq	%rax, %rax
 616 032d 4801D0   		addq	%rdx, %rax
 617 0330 48C1E003 		salq	$3, %rax
 618 0334 4889C2   		movq	%rax, %rdx
 619 0337 488D0500 		leaq	8+GPIOIDMapping(%rip), %rax
 619      000000
 620 033e 488B0402 		movq	(%rdx,%rax), %rax
 621              		.loc 1 339 39
 622 0342 8B55E8   		movl	-24(%rbp), %edx
 623 0345 48C1E204 		salq	$4, %rdx
 624 0349 4801D0   		addq	%rdx, %rax
 625              		.loc 1 339 43
 626 034c 488B4008 		movq	8(%rax), %rax
 627              		.loc 1 339 48
 628 0350 8B4804   		movl	4(%rax), %ecx
 629              		.loc 1 339 72
 630 0353 8B55E4   		movl	-28(%rbp), %edx
 631 0356 4889D0   		movq	%rdx, %rax
 632 0359 4801C0   		addq	%rax, %rax
 633 035c 4801D0   		addq	%rdx, %rax
 634 035f 48C1E003 		salq	$3, %rax
 635 0363 4889C2   		movq	%rax, %rdx
 636 0366 488D0500 		leaq	8+GPIOIDMapping(%rip), %rax
 636      000000
 637 036d 488B0402 		movq	(%rdx,%rax), %rax
 638              		.loc 1 339 79
 639 0371 8B55E8   		movl	-24(%rbp), %edx
 640 0374 48C1E204 		salq	$4, %rdx
 641 0378 4801D0   		addq	%rdx, %rax
 642              		.loc 1 339 83
 643 037b 8B00     		movl	(%rax), %eax
 644              		.loc 1 339 55
 645 037d 21C8     		andl	%ecx, %eax
 646              		.loc 1 339 15
 647 037f 85C0     		testl	%eax, %eax
 648 0381 7411     		je	.L20
 340:/home/hkh/git/eapidk-code-r76-trunk/lib/linux/../EApiEmulGPIO.c ****               *pLevel|=APIBitMask;
 649              		.loc 1 340 22
 650 0383 488B45D0 		movq	-48(%rbp), %rax
 651 0387 8B00     		movl	(%rax), %eax
 652 0389 0B45EC   		orl	-20(%rbp), %eax
 653 038c 89C2     		movl	%eax, %edx
 654 038e 488B45D0 		movq	-48(%rbp), %rax
 655 0392 8910     		movl	%edx, (%rax)
GAS LISTING /tmp/ccAG33yV.s 			page 20


 656              	.L20:
 341:/home/hkh/git/eapidk-code-r76-trunk/lib/linux/../EApiEmulGPIO.c ****             }
 342:/home/hkh/git/eapidk-code-r76-trunk/lib/linux/../EApiEmulGPIO.c ****           }
 343:/home/hkh/git/eapidk-code-r76-trunk/lib/linux/../EApiEmulGPIO.c ****           APIBitMask<<=1;
 657              		.loc 1 343 21 discriminator 2
 658 0394 D165EC   		sall	-20(%rbp)
 330:/home/hkh/git/eapidk-code-r76-trunk/lib/linux/../EApiEmulGPIO.c ****           if((BitMask&APIBitMask))
 659              		.loc 1 330 75 discriminator 2
 660 0397 8345E801 		addl	$1, -24(%rbp)
 661              	.L19:
 330:/home/hkh/git/eapidk-code-r76-trunk/lib/linux/../EApiEmulGPIO.c ****           if((BitMask&APIBitMask))
 662              		.loc 1 330 34 discriminator 1
 663 039b 8B55E4   		movl	-28(%rbp), %edx
 664 039e 4889D0   		movq	%rdx, %rax
 665 03a1 4801C0   		addq	%rax, %rax
 666 03a4 4801D0   		addq	%rdx, %rax
 667 03a7 48C1E003 		salq	$3, %rax
 668 03ab 4889C2   		movq	%rax, %rdx
 669 03ae 488D0500 		leaq	8+GPIOIDMapping(%rip), %rax
 669      000000
 670 03b5 488B0402 		movq	(%rdx,%rax), %rax
 330:/home/hkh/git/eapidk-code-r76-trunk/lib/linux/../EApiEmulGPIO.c ****           if((BitMask&APIBitMask))
 671              		.loc 1 330 41 discriminator 1
 672 03b9 8B55E8   		movl	-24(%rbp), %edx
 673 03bc 48C1E204 		salq	$4, %rdx
 674 03c0 4801D0   		addq	%rdx, %rax
 330:/home/hkh/git/eapidk-code-r76-trunk/lib/linux/../EApiEmulGPIO.c ****           if((BitMask&APIBitMask))
 675              		.loc 1 330 45 discriminator 1
 676 03c3 8B00     		movl	(%rax), %eax
 330:/home/hkh/git/eapidk-code-r76-trunk/lib/linux/../EApiEmulGPIO.c ****           if((BitMask&APIBitMask))
 677              		.loc 1 330 9 discriminator 1
 678 03c5 83F8FF   		cmpl	$-1, %eax
 679 03c8 0F854EFE 		jne	.L22
 679      FFFF
 344:/home/hkh/git/eapidk-code-r76-trunk/lib/linux/../EApiEmulGPIO.c ****         }
 345:/home/hkh/git/eapidk-code-r76-trunk/lib/linux/../EApiEmulGPIO.c ****         EAPI_LIB_RETURN_SUCCESS(EApiGPIOGetLevel, "");
 680              		.loc 1 345 9
 681 03ce 4883EC08 		subq	$8, %rsp
 682 03d2 488D0500 		leaq	.LC5(%rip), %rax
 682      000000
 683 03d9 50       		pushq	%rax
 684 03da 4C8D0D00 		leaq	.LC0(%rip), %r9
 684      000000
 685 03e1 41B80000 		movl	$0, %r8d
 685      0000
 686 03e7 B9590100 		movl	$345, %ecx
 686      00
 687 03ec 488D1500 		leaq	.LC4(%rip), %rdx
 687      000000
 688 03f3 488D3500 		leaq	.LC2(%rip), %rsi
 688      000000
 689 03fa BF4C0000 		movl	$76, %edi
 689      00
 690 03ff B8000000 		movl	$0, %eax
 690      00
 691 0404 E8000000 		call	siFormattedMessage_SC@PLT
 691      00
GAS LISTING /tmp/ccAG33yV.s 			page 21


 692 0409 4883C410 		addq	$16, %rsp
 693 040d C745E000 		movl	$0, -32(%rbp)
 693      000000
 694 0414 EB55     		jmp	.L16
 695              	.L14:
 316:/home/hkh/git/eapidk-code-r76-trunk/lib/linux/../EApiEmulGPIO.c ****   {
 696              		.loc 1 316 40 discriminator 2
 697 0416 8345E401 		addl	$1, -28(%rbp)
 698              	.L13:
 316:/home/hkh/git/eapidk-code-r76-trunk/lib/linux/../EApiEmulGPIO.c ****   {
 699              		.loc 1 316 3 discriminator 1
 700 041a 837DE408 		cmpl	$8, -28(%rbp)
 701 041e 0F86BEFC 		jbe	.L23
 701      FFFF
 346:/home/hkh/git/eapidk-code-r76-trunk/lib/linux/../EApiEmulGPIO.c ****       }
 347:/home/hkh/git/eapidk-code-r76-trunk/lib/linux/../EApiEmulGPIO.c ****   }
 348:/home/hkh/git/eapidk-code-r76-trunk/lib/linux/../EApiEmulGPIO.c ****   EAPI_LIB_RETURN_ERROR(
 702              		.loc 1 348 3
 703 0424 4883EC08 		subq	$8, %rsp
 704 0428 488D0500 		leaq	.LC6(%rip), %rax
 704      000000
 705 042f 50       		pushq	%rax
 706 0430 4C8D0D00 		leaq	.LC0(%rip), %r9
 706      000000
 707 0437 41B8FFFC 		movl	$-769, %r8d
 707      FFFF
 708 043d B95C0100 		movl	$348, %ecx
 708      00
 709 0442 488D1500 		leaq	.LC4(%rip), %rdx
 709      000000
 710 0449 488D3500 		leaq	.LC2(%rip), %rsi
 710      000000
 711 0450 BF450000 		movl	$69, %edi
 711      00
 712 0455 B8000000 		movl	$0, %eax
 712      00
 713 045a E8000000 		call	siFormattedMessage_SC@PLT
 713      00
 714 045f 4883C410 		addq	$16, %rsp
 715 0463 C745E0FF 		movl	$-769, -32(%rbp)
 715      FCFFFF
 716 046a 90       		nop
 717              	.L16:
 349:/home/hkh/git/eapidk-code-r76-trunk/lib/linux/../EApiEmulGPIO.c ****     EApiGPIOGetLevel, 
 350:/home/hkh/git/eapidk-code-r76-trunk/lib/linux/../EApiEmulGPIO.c ****     EAPI_STATUS_UNSUPPORTED  , 
 351:/home/hkh/git/eapidk-code-r76-trunk/lib/linux/../EApiEmulGPIO.c ****     "Unrecognised GPIO ID"
 352:/home/hkh/git/eapidk-code-r76-trunk/lib/linux/../EApiEmulGPIO.c ****     );
 353:/home/hkh/git/eapidk-code-r76-trunk/lib/linux/../EApiEmulGPIO.c **** EAPI_LIB_ASSERT_EXIT
 354:/home/hkh/git/eapidk-code-r76-trunk/lib/linux/../EApiEmulGPIO.c **** 
 355:/home/hkh/git/eapidk-code-r76-trunk/lib/linux/../EApiEmulGPIO.c ****   return StatusCode;
 718              		.loc 1 355 10
 719 046b 8B45E0   		movl	-32(%rbp), %eax
 356:/home/hkh/git/eapidk-code-r76-trunk/lib/linux/../EApiEmulGPIO.c **** }
 720              		.loc 1 356 1
 721 046e 488B5DF8 		movq	-8(%rbp), %rbx
 722 0472 C9       		leave
 723              		.cfi_def_cfa 7, 8
GAS LISTING /tmp/ccAG33yV.s 			page 22


 724 0473 C3       		ret
 725              		.cfi_endproc
 726              	.LFE10:
 728              		.section	.rodata
 729              	.LC7:
 730 00a5 45417069 		.string	"EApiGPIOSetLevelEmul"
 730      4750494F 
 730      5365744C 
 730      6576656C 
 730      456D756C 
 731              	.LC8:
 732 00ba 45417069 		.string	"EApiGPIOSetLevel"
 732      4750494F 
 732      5365744C 
 732      6576656C 
 732      00
 733 00cb 00000000 		.align 8
 733      00
 734              	.LC9:
 735 00d0 43616E74 		.string	"Cant Set Level on Pin that is set to input"
 735      20536574 
 735      204C6576 
 735      656C206F 
 735      6E205069 
 736              		.text
 737              		.globl	EApiGPIOSetLevelEmul
 738              		.hidden	EApiGPIOSetLevelEmul
 740              	EApiGPIOSetLevelEmul:
 741              	.LFB11:
 357:/home/hkh/git/eapidk-code-r76-trunk/lib/linux/../EApiEmulGPIO.c **** 
 358:/home/hkh/git/eapidk-code-r76-trunk/lib/linux/../EApiEmulGPIO.c **** EApiStatus_t 
 359:/home/hkh/git/eapidk-code-r76-trunk/lib/linux/../EApiEmulGPIO.c **** EApiGPIOSetLevelEmul( 
 360:/home/hkh/git/eapidk-code-r76-trunk/lib/linux/../EApiEmulGPIO.c ****   __IN EApiId_t Id      , 
 361:/home/hkh/git/eapidk-code-r76-trunk/lib/linux/../EApiEmulGPIO.c ****   __IN uint32_t BitMask , 
 362:/home/hkh/git/eapidk-code-r76-trunk/lib/linux/../EApiEmulGPIO.c ****   __IN uint32_t Level
 363:/home/hkh/git/eapidk-code-r76-trunk/lib/linux/../EApiEmulGPIO.c ****   )
 364:/home/hkh/git/eapidk-code-r76-trunk/lib/linux/../EApiEmulGPIO.c **** {
 742              		.loc 1 364 1
 743              		.cfi_startproc
 744 0474 F30F1EFA 		endbr64
 745 0478 55       		pushq	%rbp
 746              		.cfi_def_cfa_offset 16
 747              		.cfi_offset 6, -16
 748 0479 4889E5   		movq	%rsp, %rbp
 749              		.cfi_def_cfa_register 6
 750 047c 53       		pushq	%rbx
 751 047d 4883EC28 		subq	$40, %rsp
 752              		.cfi_offset 3, -24
 753 0481 897DDC   		movl	%edi, -36(%rbp)
 754 0484 8975D8   		movl	%esi, -40(%rbp)
 755 0487 8955D4   		movl	%edx, -44(%rbp)
 365:/home/hkh/git/eapidk-code-r76-trunk/lib/linux/../EApiEmulGPIO.c ****   EApiStatus_t StatusCode=EAPI_STATUS_SUCCESS;
 756              		.loc 1 365 16
 757 048a C745E000 		movl	$0, -32(%rbp)
 757      000000
 366:/home/hkh/git/eapidk-code-r76-trunk/lib/linux/../EApiEmulGPIO.c ****   unsigned i,i2;
 367:/home/hkh/git/eapidk-code-r76-trunk/lib/linux/../EApiEmulGPIO.c ****   uint32_t APIBitMask=1;
GAS LISTING /tmp/ccAG33yV.s 			page 23


 758              		.loc 1 367 12
 759 0491 C745EC01 		movl	$1, -20(%rbp)
 759      000000
 368:/home/hkh/git/eapidk-code-r76-trunk/lib/linux/../EApiEmulGPIO.c ****   for(i=0;i<ARRAY_SIZE(GPIOIDMapping);i++)
 760              		.loc 1 368 8
 761 0498 C745E400 		movl	$0, -28(%rbp)
 761      000000
 762              		.loc 1 368 3
 763 049f E96A0600 		jmp	.L26
 763      00
 764              	.L41:
 369:/home/hkh/git/eapidk-code-r76-trunk/lib/linux/../EApiEmulGPIO.c ****   {
 370:/home/hkh/git/eapidk-code-r76-trunk/lib/linux/../EApiEmulGPIO.c ****       if(GPIOIDMapping[i].Id==Id)
 765              		.loc 1 370 26
 766 04a4 8B55E4   		movl	-28(%rbp), %edx
 767 04a7 4889D0   		movq	%rdx, %rax
 768 04aa 4801C0   		addq	%rax, %rax
 769 04ad 4801D0   		addq	%rdx, %rax
 770 04b0 48C1E003 		salq	$3, %rax
 771 04b4 4889C2   		movq	%rax, %rdx
 772 04b7 488D0500 		leaq	GPIOIDMapping(%rip), %rax
 772      000000
 773 04be 8B0402   		movl	(%rdx,%rax), %eax
 774              		.loc 1 370 9
 775 04c1 3945DC   		cmpl	%eax, -36(%rbp)
 776 04c4 0F854006 		jne	.L27
 776      0000
 371:/home/hkh/git/eapidk-code-r76-trunk/lib/linux/../EApiEmulGPIO.c ****       {
 372:/home/hkh/git/eapidk-code-r76-trunk/lib/linux/../EApiEmulGPIO.c ****         EAPI_LIB_RETURN_ERROR_IF(
 777              		.loc 1 372 9
 778 04ca 8B55E4   		movl	-28(%rbp), %edx
 779 04cd 4889D0   		movq	%rdx, %rax
 780 04d0 4801C0   		addq	%rax, %rax
 781 04d3 4801D0   		addq	%rdx, %rax
 782 04d6 48C1E003 		salq	$3, %rax
 783 04da 4889C2   		movq	%rax, %rdx
 784 04dd 488D0500 		leaq	16+GPIOIDMapping(%rip), %rax
 784      000000
 785 04e4 8B0C02   		movl	(%rdx,%rax), %ecx
 786 04e7 8B55E4   		movl	-28(%rbp), %edx
 787 04ea 4889D0   		movq	%rdx, %rax
 788 04ed 4801C0   		addq	%rax, %rax
 789 04f0 4801D0   		addq	%rdx, %rax
 790 04f3 48C1E003 		salq	$3, %rax
 791 04f7 4889C2   		movq	%rax, %rdx
 792 04fa 488D0500 		leaq	20+GPIOIDMapping(%rip), %rax
 792      000000
 793 0501 8B0402   		movl	(%rdx,%rax), %eax
 794 0504 09C8     		orl	%ecx, %eax
 795 0506 F7D0     		notl	%eax
 796 0508 2345D8   		andl	-40(%rbp), %eax
 797 050b 85C0     		testl	%eax, %eax
 798 050d 744B     		je	.L28
 799              		.loc 1 372 9 is_stmt 0 discriminator 1
 800 050f 4883EC08 		subq	$8, %rsp
 801 0513 488D0500 		leaq	.LC3(%rip), %rax
 801      000000
GAS LISTING /tmp/ccAG33yV.s 			page 24


 802 051a 50       		pushq	%rax
 803 051b 4C8D0D00 		leaq	.LC0(%rip), %r9
 803      000000
 804 0522 41B8FBFE 		movl	$-261, %r8d
 804      FFFF
 805 0528 B9740100 		movl	$372, %ecx
 805      00
 806 052d 488D1500 		leaq	.LC7(%rip), %rdx
 806      000000
 807 0534 488D3500 		leaq	.LC2(%rip), %rsi
 807      000000
 808 053b BF450000 		movl	$69, %edi
 808      00
 809 0540 B8000000 		movl	$0, %eax
 809      00
 810 0545 E8000000 		call	siFormattedMessage_SC@PLT
 810      00
 811 054a 4883C410 		addq	$16, %rsp
 812 054e C745E0FB 		movl	$-261, -32(%rbp)
 812      FEFFFF
 813 0555 E9050600 		jmp	.L29
 813      00
 814              	.L28:
 373:/home/hkh/git/eapidk-code-r76-trunk/lib/linux/../EApiEmulGPIO.c ****           EApiGPIOSetLevelEmul, 
 374:/home/hkh/git/eapidk-code-r76-trunk/lib/linux/../EApiEmulGPIO.c ****           (BitMask&~(GPIOIDMapping[i].OutputMask|GPIOIDMapping[i].InputMask)) , 
 375:/home/hkh/git/eapidk-code-r76-trunk/lib/linux/../EApiEmulGPIO.c ****           EAPI_STATUS_INVALID_BITMASK, 
 376:/home/hkh/git/eapidk-code-r76-trunk/lib/linux/../EApiEmulGPIO.c ****           "Bit-mask Selects Invalid Bits"
 377:/home/hkh/git/eapidk-code-r76-trunk/lib/linux/../EApiEmulGPIO.c ****           );
 378:/home/hkh/git/eapidk-code-r76-trunk/lib/linux/../EApiEmulGPIO.c ****         for(i2=0;GPIOIDMapping[i].MapTbl[i2].PortMask!=END_OF_LIST_MARK;i2++){
 815              		.loc 1 378 15 is_stmt 1
 816 055a C745E800 		movl	$0, -24(%rbp)
 816      000000
 817              		.loc 1 378 9
 818 0561 EB36     		jmp	.L30
 819              	.L31:
 379:/home/hkh/git/eapidk-code-r76-trunk/lib/linux/../EApiEmulGPIO.c ****           GPIOIDMapping[i].MapTbl[i2].Port->Dirty=0;
 820              		.loc 1 379 27 discriminator 3
 821 0563 8B55E4   		movl	-28(%rbp), %edx
 822 0566 4889D0   		movq	%rdx, %rax
 823 0569 4801C0   		addq	%rax, %rax
 824 056c 4801D0   		addq	%rdx, %rax
 825 056f 48C1E003 		salq	$3, %rax
 826 0573 4889C2   		movq	%rax, %rdx
 827 0576 488D0500 		leaq	8+GPIOIDMapping(%rip), %rax
 827      000000
 828 057d 488B0402 		movq	(%rdx,%rax), %rax
 829              		.loc 1 379 34 discriminator 3
 830 0581 8B55E8   		movl	-24(%rbp), %edx
 831 0584 48C1E204 		salq	$4, %rdx
 832 0588 4801D0   		addq	%rdx, %rax
 833              		.loc 1 379 38 discriminator 3
 834 058b 488B4008 		movq	8(%rax), %rax
 835              		.loc 1 379 50 discriminator 3
 836 058f C7000000 		movl	$0, (%rax)
 836      0000
 378:/home/hkh/git/eapidk-code-r76-trunk/lib/linux/../EApiEmulGPIO.c ****           GPIOIDMapping[i].MapTbl[i2].Port->Dirty=0;
 837              		.loc 1 378 75 discriminator 3
GAS LISTING /tmp/ccAG33yV.s 			page 25


 838 0595 8345E801 		addl	$1, -24(%rbp)
 839              	.L30:
 378:/home/hkh/git/eapidk-code-r76-trunk/lib/linux/../EApiEmulGPIO.c ****           GPIOIDMapping[i].MapTbl[i2].Port->Dirty=0;
 840              		.loc 1 378 34 discriminator 1
 841 0599 8B55E4   		movl	-28(%rbp), %edx
 842 059c 4889D0   		movq	%rdx, %rax
 843 059f 4801C0   		addq	%rax, %rax
 844 05a2 4801D0   		addq	%rdx, %rax
 845 05a5 48C1E003 		salq	$3, %rax
 846 05a9 4889C2   		movq	%rax, %rdx
 847 05ac 488D0500 		leaq	8+GPIOIDMapping(%rip), %rax
 847      000000
 848 05b3 488B0402 		movq	(%rdx,%rax), %rax
 378:/home/hkh/git/eapidk-code-r76-trunk/lib/linux/../EApiEmulGPIO.c ****           GPIOIDMapping[i].MapTbl[i2].Port->Dirty=0;
 849              		.loc 1 378 41 discriminator 1
 850 05b7 8B55E8   		movl	-24(%rbp), %edx
 851 05ba 48C1E204 		salq	$4, %rdx
 852 05be 4801D0   		addq	%rdx, %rax
 378:/home/hkh/git/eapidk-code-r76-trunk/lib/linux/../EApiEmulGPIO.c ****           GPIOIDMapping[i].MapTbl[i2].Port->Dirty=0;
 853              		.loc 1 378 45 discriminator 1
 854 05c1 8B00     		movl	(%rax), %eax
 378:/home/hkh/git/eapidk-code-r76-trunk/lib/linux/../EApiEmulGPIO.c ****           GPIOIDMapping[i].MapTbl[i2].Port->Dirty=0;
 855              		.loc 1 378 9 discriminator 1
 856 05c3 83F8FF   		cmpl	$-1, %eax
 857 05c6 759B     		jne	.L31
 380:/home/hkh/git/eapidk-code-r76-trunk/lib/linux/../EApiEmulGPIO.c ****         }
 381:/home/hkh/git/eapidk-code-r76-trunk/lib/linux/../EApiEmulGPIO.c ****         for(i2=0;GPIOIDMapping[i].MapTbl[i2].PortMask!=END_OF_LIST_MARK;i2++)
 858              		.loc 1 381 15
 859 05c8 C745E800 		movl	$0, -24(%rbp)
 859      000000
 860              		.loc 1 381 9
 861 05cf E97A0300 		jmp	.L32
 861      00
 862              	.L37:
 382:/home/hkh/git/eapidk-code-r76-trunk/lib/linux/../EApiEmulGPIO.c ****         {
 383:/home/hkh/git/eapidk-code-r76-trunk/lib/linux/../EApiEmulGPIO.c ****           if((BitMask&APIBitMask))
 863              		.loc 1 383 22
 864 05d4 8B45D8   		movl	-40(%rbp), %eax
 865 05d7 2345EC   		andl	-20(%rbp), %eax
 866              		.loc 1 383 13
 867 05da 85C0     		testl	%eax, %eax
 868 05dc 0F846503 		je	.L33
 868      0000
 384:/home/hkh/git/eapidk-code-r76-trunk/lib/linux/../EApiEmulGPIO.c ****           {
 385:/home/hkh/git/eapidk-code-r76-trunk/lib/linux/../EApiEmulGPIO.c ****             if(GPIOIDMapping[i].MapTbl[i2].Port->Dirty==0){
 869              		.loc 1 385 32
 870 05e2 8B55E4   		movl	-28(%rbp), %edx
 871 05e5 4889D0   		movq	%rdx, %rax
 872 05e8 4801C0   		addq	%rax, %rax
 873 05eb 4801D0   		addq	%rdx, %rax
 874 05ee 48C1E003 		salq	$3, %rax
 875 05f2 4889C2   		movq	%rax, %rdx
 876 05f5 488D0500 		leaq	8+GPIOIDMapping(%rip), %rax
 876      000000
 877 05fc 488B0402 		movq	(%rdx,%rax), %rax
 878              		.loc 1 385 39
 879 0600 8B55E8   		movl	-24(%rbp), %edx
GAS LISTING /tmp/ccAG33yV.s 			page 26


 880 0603 48C1E204 		salq	$4, %rdx
 881 0607 4801D0   		addq	%rdx, %rax
 882              		.loc 1 385 43
 883 060a 488B4008 		movq	8(%rax), %rax
 884              		.loc 1 385 48
 885 060e 8B00     		movl	(%rax), %eax
 886              		.loc 1 385 15
 887 0610 85C0     		testl	%eax, %eax
 888 0612 0F855601 		jne	.L34
 888      0000
 386:/home/hkh/git/eapidk-code-r76-trunk/lib/linux/../EApiEmulGPIO.c ****               GPIOIDMapping[i].MapTbl[i2].Port->Value=GPIOIDMapping[i].MapTbl[i2].Port->Read(
 889              		.loc 1 386 71
 890 0618 8B55E4   		movl	-28(%rbp), %edx
 891 061b 4889D0   		movq	%rdx, %rax
 892 061e 4801C0   		addq	%rax, %rax
 893 0621 4801D0   		addq	%rdx, %rax
 894 0624 48C1E003 		salq	$3, %rax
 895 0628 4889C2   		movq	%rax, %rdx
 896 062b 488D0500 		leaq	8+GPIOIDMapping(%rip), %rax
 896      000000
 897 0632 488B0402 		movq	(%rdx,%rax), %rax
 898              		.loc 1 386 78
 899 0636 8B55E8   		movl	-24(%rbp), %edx
 900 0639 48C1E204 		salq	$4, %rdx
 901 063d 4801D0   		addq	%rdx, %rax
 902              		.loc 1 386 82
 903 0640 488B4008 		movq	8(%rax), %rax
 904              		.loc 1 386 87
 905 0644 488B7020 		movq	32(%rax), %rsi
 387:/home/hkh/git/eapidk-code-r76-trunk/lib/linux/../EApiEmulGPIO.c ****                 GPIOIDMapping[i].MapTbl[i2].Port->LevelArg1
 906              		.loc 1 387 33
 907 0648 8B55E4   		movl	-28(%rbp), %edx
 908 064b 4889D0   		movq	%rdx, %rax
 909 064e 4801C0   		addq	%rax, %rax
 910 0651 4801D0   		addq	%rdx, %rax
 911 0654 48C1E003 		salq	$3, %rax
 912 0658 4889C2   		movq	%rax, %rdx
 913 065b 488D0500 		leaq	8+GPIOIDMapping(%rip), %rax
 913      000000
 914 0662 488B0402 		movq	(%rdx,%rax), %rax
 915              		.loc 1 387 40
 916 0666 8B55E8   		movl	-24(%rbp), %edx
 917 0669 48C1E204 		salq	$4, %rdx
 918 066d 4801D0   		addq	%rdx, %rax
 919              		.loc 1 387 44
 920 0670 488B4008 		movq	8(%rax), %rax
 386:/home/hkh/git/eapidk-code-r76-trunk/lib/linux/../EApiEmulGPIO.c ****               GPIOIDMapping[i].MapTbl[i2].Port->Value=GPIOIDMapping[i].MapTbl[i2].Port->Read(
 921              		.loc 1 386 55
 922 0674 8B480C   		movl	12(%rax), %ecx
 386:/home/hkh/git/eapidk-code-r76-trunk/lib/linux/../EApiEmulGPIO.c ****               GPIOIDMapping[i].MapTbl[i2].Port->Value=GPIOIDMapping[i].MapTbl[i2].Port->Read(
 923              		.loc 1 386 31
 924 0677 8B55E4   		movl	-28(%rbp), %edx
 925 067a 4889D0   		movq	%rdx, %rax
 926 067d 4801C0   		addq	%rax, %rax
 927 0680 4801D0   		addq	%rdx, %rax
 928 0683 48C1E003 		salq	$3, %rax
 929 0687 4889C2   		movq	%rax, %rdx
GAS LISTING /tmp/ccAG33yV.s 			page 27


 930 068a 488D0500 		leaq	8+GPIOIDMapping(%rip), %rax
 930      000000
 931 0691 488B0402 		movq	(%rdx,%rax), %rax
 386:/home/hkh/git/eapidk-code-r76-trunk/lib/linux/../EApiEmulGPIO.c ****               GPIOIDMapping[i].MapTbl[i2].Port->Value=GPIOIDMapping[i].MapTbl[i2].Port->Read(
 932              		.loc 1 386 38
 933 0695 8B55E8   		movl	-24(%rbp), %edx
 934 0698 48C1E204 		salq	$4, %rdx
 935 069c 4801D0   		addq	%rdx, %rax
 386:/home/hkh/git/eapidk-code-r76-trunk/lib/linux/../EApiEmulGPIO.c ****               GPIOIDMapping[i].MapTbl[i2].Port->Value=GPIOIDMapping[i].MapTbl[i2].Port->Read(
 936              		.loc 1 386 42
 937 069f 488B5808 		movq	8(%rax), %rbx
 386:/home/hkh/git/eapidk-code-r76-trunk/lib/linux/../EApiEmulGPIO.c ****               GPIOIDMapping[i].MapTbl[i2].Port->Value=GPIOIDMapping[i].MapTbl[i2].Port->Read(
 938              		.loc 1 386 55
 939 06a3 89CF     		movl	%ecx, %edi
 940 06a5 FFD6     		call	*%rsi
 941              	.LVL1:
 386:/home/hkh/git/eapidk-code-r76-trunk/lib/linux/../EApiEmulGPIO.c ****               GPIOIDMapping[i].MapTbl[i2].Port->Value=GPIOIDMapping[i].MapTbl[i2].Port->Read(
 942              		.loc 1 386 54
 943 06a7 894304   		movl	%eax, 4(%rbx)
 388:/home/hkh/git/eapidk-code-r76-trunk/lib/linux/../EApiEmulGPIO.c ****                 );
 389:/home/hkh/git/eapidk-code-r76-trunk/lib/linux/../EApiEmulGPIO.c **** #if USE_DIRECTION_EMUL
 390:/home/hkh/git/eapidk-code-r76-trunk/lib/linux/../EApiEmulGPIO.c ****               GPIOIDMapping[i].MapTbl[i2].Port->Value2=GPIOIDMapping[i].MapTbl[i2].Port->Read(
 944              		.loc 1 390 72
 945 06aa 8B55E4   		movl	-28(%rbp), %edx
 946 06ad 4889D0   		movq	%rdx, %rax
 947 06b0 4801C0   		addq	%rax, %rax
 948 06b3 4801D0   		addq	%rdx, %rax
 949 06b6 48C1E003 		salq	$3, %rax
 950 06ba 4889C2   		movq	%rax, %rdx
 951 06bd 488D0500 		leaq	8+GPIOIDMapping(%rip), %rax
 951      000000
 952 06c4 488B0402 		movq	(%rdx,%rax), %rax
 953              		.loc 1 390 79
 954 06c8 8B55E8   		movl	-24(%rbp), %edx
 955 06cb 48C1E204 		salq	$4, %rdx
 956 06cf 4801D0   		addq	%rdx, %rax
 957              		.loc 1 390 83
 958 06d2 488B4008 		movq	8(%rax), %rax
 959              		.loc 1 390 88
 960 06d6 488B7020 		movq	32(%rax), %rsi
 391:/home/hkh/git/eapidk-code-r76-trunk/lib/linux/../EApiEmulGPIO.c ****                 GPIOIDMapping[i].MapTbl[i2].Port->DirectionArg1
 961              		.loc 1 391 33
 962 06da 8B55E4   		movl	-28(%rbp), %edx
 963 06dd 4889D0   		movq	%rdx, %rax
 964 06e0 4801C0   		addq	%rax, %rax
 965 06e3 4801D0   		addq	%rdx, %rax
 966 06e6 48C1E003 		salq	$3, %rax
 967 06ea 4889C2   		movq	%rax, %rdx
 968 06ed 488D0500 		leaq	8+GPIOIDMapping(%rip), %rax
 968      000000
 969 06f4 488B0402 		movq	(%rdx,%rax), %rax
 970              		.loc 1 391 40
 971 06f8 8B55E8   		movl	-24(%rbp), %edx
 972 06fb 48C1E204 		salq	$4, %rdx
 973 06ff 4801D0   		addq	%rdx, %rax
 974              		.loc 1 391 44
 975 0702 488B4008 		movq	8(%rax), %rax
GAS LISTING /tmp/ccAG33yV.s 			page 28


 390:/home/hkh/git/eapidk-code-r76-trunk/lib/linux/../EApiEmulGPIO.c ****                 GPIOIDMapping[i].MapTbl[i2].Port->DirectionArg1
 976              		.loc 1 390 56
 977 0706 8B4810   		movl	16(%rax), %ecx
 390:/home/hkh/git/eapidk-code-r76-trunk/lib/linux/../EApiEmulGPIO.c ****                 GPIOIDMapping[i].MapTbl[i2].Port->DirectionArg1
 978              		.loc 1 390 31
 979 0709 8B55E4   		movl	-28(%rbp), %edx
 980 070c 4889D0   		movq	%rdx, %rax
 981 070f 4801C0   		addq	%rax, %rax
 982 0712 4801D0   		addq	%rdx, %rax
 983 0715 48C1E003 		salq	$3, %rax
 984 0719 4889C2   		movq	%rax, %rdx
 985 071c 488D0500 		leaq	8+GPIOIDMapping(%rip), %rax
 985      000000
 986 0723 488B0402 		movq	(%rdx,%rax), %rax
 390:/home/hkh/git/eapidk-code-r76-trunk/lib/linux/../EApiEmulGPIO.c ****                 GPIOIDMapping[i].MapTbl[i2].Port->DirectionArg1
 987              		.loc 1 390 38
 988 0727 8B55E8   		movl	-24(%rbp), %edx
 989 072a 48C1E204 		salq	$4, %rdx
 990 072e 4801D0   		addq	%rdx, %rax
 390:/home/hkh/git/eapidk-code-r76-trunk/lib/linux/../EApiEmulGPIO.c ****                 GPIOIDMapping[i].MapTbl[i2].Port->DirectionArg1
 991              		.loc 1 390 42
 992 0731 488B5808 		movq	8(%rax), %rbx
 390:/home/hkh/git/eapidk-code-r76-trunk/lib/linux/../EApiEmulGPIO.c ****                 GPIOIDMapping[i].MapTbl[i2].Port->DirectionArg1
 993              		.loc 1 390 56
 994 0735 89CF     		movl	%ecx, %edi
 995 0737 FFD6     		call	*%rsi
 996              	.LVL2:
 390:/home/hkh/git/eapidk-code-r76-trunk/lib/linux/../EApiEmulGPIO.c ****                 GPIOIDMapping[i].MapTbl[i2].Port->DirectionArg1
 997              		.loc 1 390 55
 998 0739 894308   		movl	%eax, 8(%rbx)
 392:/home/hkh/git/eapidk-code-r76-trunk/lib/linux/../EApiEmulGPIO.c ****                 );
 393:/home/hkh/git/eapidk-code-r76-trunk/lib/linux/../EApiEmulGPIO.c **** #endif
 394:/home/hkh/git/eapidk-code-r76-trunk/lib/linux/../EApiEmulGPIO.c ****               GPIOIDMapping[i].MapTbl[i2].Port->Dirty=1;
 999              		.loc 1 394 31
 1000 073c 8B55E4   		movl	-28(%rbp), %edx
 1001 073f 4889D0   		movq	%rdx, %rax
 1002 0742 4801C0   		addq	%rax, %rax
 1003 0745 4801D0   		addq	%rdx, %rax
 1004 0748 48C1E003 		salq	$3, %rax
 1005 074c 4889C2   		movq	%rax, %rdx
 1006 074f 488D0500 		leaq	8+GPIOIDMapping(%rip), %rax
 1006      000000
 1007 0756 488B0402 		movq	(%rdx,%rax), %rax
 1008              		.loc 1 394 38
 1009 075a 8B55E8   		movl	-24(%rbp), %edx
 1010 075d 48C1E204 		salq	$4, %rdx
 1011 0761 4801D0   		addq	%rdx, %rax
 1012              		.loc 1 394 42
 1013 0764 488B4008 		movq	8(%rax), %rax
 1014              		.loc 1 394 54
 1015 0768 C7000100 		movl	$1, (%rax)
 1015      0000
 1016              	.L34:
 395:/home/hkh/git/eapidk-code-r76-trunk/lib/linux/../EApiEmulGPIO.c ****             }
 396:/home/hkh/git/eapidk-code-r76-trunk/lib/linux/../EApiEmulGPIO.c **** #if USE_DIRECTION_EMUL
 397:/home/hkh/git/eapidk-code-r76-trunk/lib/linux/../EApiEmulGPIO.c ****             EAPI_LIB_RETURN_ERROR_IF(
 1017              		.loc 1 397 13
GAS LISTING /tmp/ccAG33yV.s 			page 29


 1018 076e 8B55E4   		movl	-28(%rbp), %edx
 1019 0771 4889D0   		movq	%rdx, %rax
 1020 0774 4801C0   		addq	%rax, %rax
 1021 0777 4801D0   		addq	%rdx, %rax
 1022 077a 48C1E003 		salq	$3, %rax
 1023 077e 4889C2   		movq	%rax, %rdx
 1024 0781 488D0500 		leaq	8+GPIOIDMapping(%rip), %rax
 1024      000000
 1025 0788 488B0402 		movq	(%rdx,%rax), %rax
 1026 078c 8B55E8   		movl	-24(%rbp), %edx
 1027 078f 48C1E204 		salq	$4, %rdx
 1028 0793 4801D0   		addq	%rdx, %rax
 1029 0796 488B4008 		movq	8(%rax), %rax
 1030 079a 8B4808   		movl	8(%rax), %ecx
 1031 079d 8B55E4   		movl	-28(%rbp), %edx
 1032 07a0 4889D0   		movq	%rdx, %rax
 1033 07a3 4801C0   		addq	%rax, %rax
 1034 07a6 4801D0   		addq	%rdx, %rax
 1035 07a9 48C1E003 		salq	$3, %rax
 1036 07ad 4889C2   		movq	%rax, %rdx
 1037 07b0 488D0500 		leaq	8+GPIOIDMapping(%rip), %rax
 1037      000000
 1038 07b7 488B0402 		movq	(%rdx,%rax), %rax
 1039 07bb 8B55E8   		movl	-24(%rbp), %edx
 1040 07be 48C1E204 		salq	$4, %rdx
 1041 07c2 4801D0   		addq	%rdx, %rax
 1042 07c5 8B00     		movl	(%rax), %eax
 1043 07c7 21C8     		andl	%ecx, %eax
 1044 07c9 85C0     		testl	%eax, %eax
 1045 07cb 744B     		je	.L35
 1046              		.loc 1 397 13 is_stmt 0 discriminator 1
 1047 07cd 4883EC08 		subq	$8, %rsp
 1048 07d1 488D0500 		leaq	.LC9(%rip), %rax
 1048      000000
 1049 07d8 50       		pushq	%rax
 1050 07d9 4C8D0D00 		leaq	.LC0(%rip), %r9
 1050      000000
 1051 07e0 41B8FFFE 		movl	$-257, %r8d
 1051      FFFF
 1052 07e6 B98D0100 		movl	$397, %ecx
 1052      00
 1053 07eb 488D1500 		leaq	.LC8(%rip), %rdx
 1053      000000
 1054 07f2 488D3500 		leaq	.LC2(%rip), %rsi
 1054      000000
 1055 07f9 BF450000 		movl	$69, %edi
 1055      00
 1056 07fe B8000000 		movl	$0, %eax
 1056      00
 1057 0803 E8000000 		call	siFormattedMessage_SC@PLT
 1057      00
 1058 0808 4883C410 		addq	$16, %rsp
 1059 080c C745E0FF 		movl	$-257, -32(%rbp)
 1059      FEFFFF
 1060 0813 E9470300 		jmp	.L29
 1060      00
 1061              	.L35:
GAS LISTING /tmp/ccAG33yV.s 			page 30


 398:/home/hkh/git/eapidk-code-r76-trunk/lib/linux/../EApiEmulGPIO.c ****               EApiGPIOSetLevel, 
 399:/home/hkh/git/eapidk-code-r76-trunk/lib/linux/../EApiEmulGPIO.c ****               (GPIOIDMapping[i].MapTbl[i2].Port->Value2&GPIOIDMapping[i].MapTbl[i2].PortMask) , 
 400:/home/hkh/git/eapidk-code-r76-trunk/lib/linux/../EApiEmulGPIO.c ****               EAPI_STATUS_INVALID_PARAMETER, 
 401:/home/hkh/git/eapidk-code-r76-trunk/lib/linux/../EApiEmulGPIO.c ****               "Cant Set Level on Pin that is set to input"
 402:/home/hkh/git/eapidk-code-r76-trunk/lib/linux/../EApiEmulGPIO.c ****               );
 403:/home/hkh/git/eapidk-code-r76-trunk/lib/linux/../EApiEmulGPIO.c **** #endif
 404:/home/hkh/git/eapidk-code-r76-trunk/lib/linux/../EApiEmulGPIO.c ****             if(Level&APIBitMask)
 1062              		.loc 1 404 21 is_stmt 1
 1063 0818 8B45D4   		movl	-44(%rbp), %eax
 1064 081b 2345EC   		andl	-20(%rbp), %eax
 1065              		.loc 1 404 15
 1066 081e 85C0     		testl	%eax, %eax
 1067 0820 0F849100 		je	.L36
 1067      0000
 405:/home/hkh/git/eapidk-code-r76-trunk/lib/linux/../EApiEmulGPIO.c ****               GPIOIDMapping[i].MapTbl[i2].Port->Value|=GPIOIDMapping[i].MapTbl[i2].PortMask;
 1068              		.loc 1 405 31
 1069 0826 8B55E4   		movl	-28(%rbp), %edx
 1070 0829 4889D0   		movq	%rdx, %rax
 1071 082c 4801C0   		addq	%rax, %rax
 1072 082f 4801D0   		addq	%rdx, %rax
 1073 0832 48C1E003 		salq	$3, %rax
 1074 0836 4889C2   		movq	%rax, %rdx
 1075 0839 488D0500 		leaq	8+GPIOIDMapping(%rip), %rax
 1075      000000
 1076 0840 488B0402 		movq	(%rdx,%rax), %rax
 1077              		.loc 1 405 38
 1078 0844 8B55E8   		movl	-24(%rbp), %edx
 1079 0847 48C1E204 		salq	$4, %rdx
 1080 084b 4801D0   		addq	%rdx, %rax
 1081              		.loc 1 405 42
 1082 084e 488B4008 		movq	8(%rax), %rax
 1083              		.loc 1 405 54
 1084 0852 8B7004   		movl	4(%rax), %esi
 1085              		.loc 1 405 72
 1086 0855 8B55E4   		movl	-28(%rbp), %edx
 1087 0858 4889D0   		movq	%rdx, %rax
 1088 085b 4801C0   		addq	%rax, %rax
 1089 085e 4801D0   		addq	%rdx, %rax
 1090 0861 48C1E003 		salq	$3, %rax
 1091 0865 4889C2   		movq	%rax, %rdx
 1092 0868 488D0500 		leaq	8+GPIOIDMapping(%rip), %rax
 1092      000000
 1093 086f 488B0402 		movq	(%rdx,%rax), %rax
 1094              		.loc 1 405 79
 1095 0873 8B55E8   		movl	-24(%rbp), %edx
 1096 0876 48C1E204 		salq	$4, %rdx
 1097 087a 4801D0   		addq	%rdx, %rax
 1098              		.loc 1 405 83
 1099 087d 8B08     		movl	(%rax), %ecx
 1100              		.loc 1 405 31
 1101 087f 8B55E4   		movl	-28(%rbp), %edx
 1102 0882 4889D0   		movq	%rdx, %rax
 1103 0885 4801C0   		addq	%rax, %rax
 1104 0888 4801D0   		addq	%rdx, %rax
 1105 088b 48C1E003 		salq	$3, %rax
 1106 088f 4889C2   		movq	%rax, %rdx
 1107 0892 488D0500 		leaq	8+GPIOIDMapping(%rip), %rax
GAS LISTING /tmp/ccAG33yV.s 			page 31


 1107      000000
 1108 0899 488B0402 		movq	(%rdx,%rax), %rax
 1109              		.loc 1 405 38
 1110 089d 8B55E8   		movl	-24(%rbp), %edx
 1111 08a0 48C1E204 		salq	$4, %rdx
 1112 08a4 4801D0   		addq	%rdx, %rax
 1113              		.loc 1 405 42
 1114 08a7 488B4008 		movq	8(%rax), %rax
 1115              		.loc 1 405 54
 1116 08ab 09CE     		orl	%ecx, %esi
 1117 08ad 89F2     		movl	%esi, %edx
 1118 08af 895004   		movl	%edx, 4(%rax)
 1119 08b2 E9900000 		jmp	.L33
 1119      00
 1120              	.L36:
 406:/home/hkh/git/eapidk-code-r76-trunk/lib/linux/../EApiEmulGPIO.c ****             else
 407:/home/hkh/git/eapidk-code-r76-trunk/lib/linux/../EApiEmulGPIO.c ****               GPIOIDMapping[i].MapTbl[i2].Port->Value&=~GPIOIDMapping[i].MapTbl[i2].PortMask;
 1121              		.loc 1 407 31
 1122 08b7 8B55E4   		movl	-28(%rbp), %edx
 1123 08ba 4889D0   		movq	%rdx, %rax
 1124 08bd 4801C0   		addq	%rax, %rax
 1125 08c0 4801D0   		addq	%rdx, %rax
 1126 08c3 48C1E003 		salq	$3, %rax
 1127 08c7 4889C2   		movq	%rax, %rdx
 1128 08ca 488D0500 		leaq	8+GPIOIDMapping(%rip), %rax
 1128      000000
 1129 08d1 488B0402 		movq	(%rdx,%rax), %rax
 1130              		.loc 1 407 38
 1131 08d5 8B55E8   		movl	-24(%rbp), %edx
 1132 08d8 48C1E204 		salq	$4, %rdx
 1133 08dc 4801D0   		addq	%rdx, %rax
 1134              		.loc 1 407 42
 1135 08df 488B4008 		movq	8(%rax), %rax
 1136              		.loc 1 407 54
 1137 08e3 8B4804   		movl	4(%rax), %ecx
 1138              		.loc 1 407 73
 1139 08e6 8B55E4   		movl	-28(%rbp), %edx
 1140 08e9 4889D0   		movq	%rdx, %rax
 1141 08ec 4801C0   		addq	%rax, %rax
 1142 08ef 4801D0   		addq	%rdx, %rax
 1143 08f2 48C1E003 		salq	$3, %rax
 1144 08f6 4889C2   		movq	%rax, %rdx
 1145 08f9 488D0500 		leaq	8+GPIOIDMapping(%rip), %rax
 1145      000000
 1146 0900 488B0402 		movq	(%rdx,%rax), %rax
 1147              		.loc 1 407 80
 1148 0904 8B55E8   		movl	-24(%rbp), %edx
 1149 0907 48C1E204 		salq	$4, %rdx
 1150 090b 4801D0   		addq	%rdx, %rax
 1151              		.loc 1 407 84
 1152 090e 8B00     		movl	(%rax), %eax
 1153              		.loc 1 407 56
 1154 0910 F7D0     		notl	%eax
 1155 0912 89C6     		movl	%eax, %esi
 1156              		.loc 1 407 31
 1157 0914 8B55E4   		movl	-28(%rbp), %edx
 1158 0917 4889D0   		movq	%rdx, %rax
GAS LISTING /tmp/ccAG33yV.s 			page 32


 1159 091a 4801C0   		addq	%rax, %rax
 1160 091d 4801D0   		addq	%rdx, %rax
 1161 0920 48C1E003 		salq	$3, %rax
 1162 0924 4889C2   		movq	%rax, %rdx
 1163 0927 488D0500 		leaq	8+GPIOIDMapping(%rip), %rax
 1163      000000
 1164 092e 488B0402 		movq	(%rdx,%rax), %rax
 1165              		.loc 1 407 38
 1166 0932 8B55E8   		movl	-24(%rbp), %edx
 1167 0935 48C1E204 		salq	$4, %rdx
 1168 0939 4801D0   		addq	%rdx, %rax
 1169              		.loc 1 407 42
 1170 093c 488B4008 		movq	8(%rax), %rax
 1171              		.loc 1 407 54
 1172 0940 21F1     		andl	%esi, %ecx
 1173 0942 89CA     		movl	%ecx, %edx
 1174 0944 895004   		movl	%edx, 4(%rax)
 1175              	.L33:
 408:/home/hkh/git/eapidk-code-r76-trunk/lib/linux/../EApiEmulGPIO.c ****           }
 409:/home/hkh/git/eapidk-code-r76-trunk/lib/linux/../EApiEmulGPIO.c ****           APIBitMask<<=1;
 1176              		.loc 1 409 21 discriminator 2
 1177 0947 D165EC   		sall	-20(%rbp)
 381:/home/hkh/git/eapidk-code-r76-trunk/lib/linux/../EApiEmulGPIO.c ****         {
 1178              		.loc 1 381 75 discriminator 2
 1179 094a 8345E801 		addl	$1, -24(%rbp)
 1180              	.L32:
 381:/home/hkh/git/eapidk-code-r76-trunk/lib/linux/../EApiEmulGPIO.c ****         {
 1181              		.loc 1 381 34 discriminator 1
 1182 094e 8B55E4   		movl	-28(%rbp), %edx
 1183 0951 4889D0   		movq	%rdx, %rax
 1184 0954 4801C0   		addq	%rax, %rax
 1185 0957 4801D0   		addq	%rdx, %rax
 1186 095a 48C1E003 		salq	$3, %rax
 1187 095e 4889C2   		movq	%rax, %rdx
 1188 0961 488D0500 		leaq	8+GPIOIDMapping(%rip), %rax
 1188      000000
 1189 0968 488B0402 		movq	(%rdx,%rax), %rax
 381:/home/hkh/git/eapidk-code-r76-trunk/lib/linux/../EApiEmulGPIO.c ****         {
 1190              		.loc 1 381 41 discriminator 1
 1191 096c 8B55E8   		movl	-24(%rbp), %edx
 1192 096f 48C1E204 		salq	$4, %rdx
 1193 0973 4801D0   		addq	%rdx, %rax
 381:/home/hkh/git/eapidk-code-r76-trunk/lib/linux/../EApiEmulGPIO.c ****         {
 1194              		.loc 1 381 45 discriminator 1
 1195 0976 8B00     		movl	(%rax), %eax
 381:/home/hkh/git/eapidk-code-r76-trunk/lib/linux/../EApiEmulGPIO.c ****         {
 1196              		.loc 1 381 9 discriminator 1
 1197 0978 83F8FF   		cmpl	$-1, %eax
 1198 097b 0F8553FC 		jne	.L37
 1198      FFFF
 410:/home/hkh/git/eapidk-code-r76-trunk/lib/linux/../EApiEmulGPIO.c ****         }
 411:/home/hkh/git/eapidk-code-r76-trunk/lib/linux/../EApiEmulGPIO.c ****         for(i2=0;GPIOIDMapping[i].MapTbl[i2].PortMask!=END_OF_LIST_MARK;i2++){
 1199              		.loc 1 411 15
 1200 0981 C745E800 		movl	$0, -24(%rbp)
 1200      000000
 1201              		.loc 1 411 9
 1202 0988 E9020100 		jmp	.L38
GAS LISTING /tmp/ccAG33yV.s 			page 33


 1202      00
 1203              	.L40:
 412:/home/hkh/git/eapidk-code-r76-trunk/lib/linux/../EApiEmulGPIO.c ****           if(GPIOIDMapping[i].MapTbl[i2].Port->Dirty==1){
 1204              		.loc 1 412 30
 1205 098d 8B55E4   		movl	-28(%rbp), %edx
 1206 0990 4889D0   		movq	%rdx, %rax
 1207 0993 4801C0   		addq	%rax, %rax
 1208 0996 4801D0   		addq	%rdx, %rax
 1209 0999 48C1E003 		salq	$3, %rax
 1210 099d 4889C2   		movq	%rax, %rdx
 1211 09a0 488D0500 		leaq	8+GPIOIDMapping(%rip), %rax
 1211      000000
 1212 09a7 488B0402 		movq	(%rdx,%rax), %rax
 1213              		.loc 1 412 37
 1214 09ab 8B55E8   		movl	-24(%rbp), %edx
 1215 09ae 48C1E204 		salq	$4, %rdx
 1216 09b2 4801D0   		addq	%rdx, %rax
 1217              		.loc 1 412 41
 1218 09b5 488B4008 		movq	8(%rax), %rax
 1219              		.loc 1 412 46
 1220 09b9 8B00     		movl	(%rax), %eax
 1221              		.loc 1 412 13
 1222 09bb 83F801   		cmpl	$1, %eax
 1223 09be 0F85C700 		jne	.L39
 1223      0000
 413:/home/hkh/git/eapidk-code-r76-trunk/lib/linux/../EApiEmulGPIO.c ****             GPIOIDMapping[i].MapTbl[i2].Port->Write(
 1224              		.loc 1 413 29
 1225 09c4 8B55E4   		movl	-28(%rbp), %edx
 1226 09c7 4889D0   		movq	%rdx, %rax
 1227 09ca 4801C0   		addq	%rax, %rax
 1228 09cd 4801D0   		addq	%rdx, %rax
 1229 09d0 48C1E003 		salq	$3, %rax
 1230 09d4 4889C2   		movq	%rax, %rdx
 1231 09d7 488D0500 		leaq	8+GPIOIDMapping(%rip), %rax
 1231      000000
 1232 09de 488B0402 		movq	(%rdx,%rax), %rax
 1233              		.loc 1 413 36
 1234 09e2 8B55E8   		movl	-24(%rbp), %edx
 1235 09e5 48C1E204 		salq	$4, %rdx
 1236 09e9 4801D0   		addq	%rdx, %rax
 1237              		.loc 1 413 40
 1238 09ec 488B4008 		movq	8(%rax), %rax
 1239              		.loc 1 413 45
 1240 09f0 4C8B4018 		movq	24(%rax), %r8
 414:/home/hkh/git/eapidk-code-r76-trunk/lib/linux/../EApiEmulGPIO.c ****               GPIOIDMapping[i].MapTbl[i2].Port->LevelArg1, 
 415:/home/hkh/git/eapidk-code-r76-trunk/lib/linux/../EApiEmulGPIO.c ****               GPIOIDMapping[i].MapTbl[i2].Port->Value
 1241              		.loc 1 415 31
 1242 09f4 8B55E4   		movl	-28(%rbp), %edx
 1243 09f7 4889D0   		movq	%rdx, %rax
 1244 09fa 4801C0   		addq	%rax, %rax
 1245 09fd 4801D0   		addq	%rdx, %rax
 1246 0a00 48C1E003 		salq	$3, %rax
 1247 0a04 4889C2   		movq	%rax, %rdx
 1248 0a07 488D0500 		leaq	8+GPIOIDMapping(%rip), %rax
 1248      000000
 1249 0a0e 488B0402 		movq	(%rdx,%rax), %rax
 1250              		.loc 1 415 38
GAS LISTING /tmp/ccAG33yV.s 			page 34


 1251 0a12 8B55E8   		movl	-24(%rbp), %edx
 1252 0a15 48C1E204 		salq	$4, %rdx
 1253 0a19 4801D0   		addq	%rdx, %rax
 1254              		.loc 1 415 42
 1255 0a1c 488B4008 		movq	8(%rax), %rax
 413:/home/hkh/git/eapidk-code-r76-trunk/lib/linux/../EApiEmulGPIO.c ****             GPIOIDMapping[i].MapTbl[i2].Port->Write(
 1256              		.loc 1 413 13
 1257 0a20 8B4804   		movl	4(%rax), %ecx
 414:/home/hkh/git/eapidk-code-r76-trunk/lib/linux/../EApiEmulGPIO.c ****               GPIOIDMapping[i].MapTbl[i2].Port->LevelArg1, 
 1258              		.loc 1 414 31
 1259 0a23 8B55E4   		movl	-28(%rbp), %edx
 1260 0a26 4889D0   		movq	%rdx, %rax
 1261 0a29 4801C0   		addq	%rax, %rax
 1262 0a2c 4801D0   		addq	%rdx, %rax
 1263 0a2f 48C1E003 		salq	$3, %rax
 1264 0a33 4889C2   		movq	%rax, %rdx
 1265 0a36 488D0500 		leaq	8+GPIOIDMapping(%rip), %rax
 1265      000000
 1266 0a3d 488B0402 		movq	(%rdx,%rax), %rax
 414:/home/hkh/git/eapidk-code-r76-trunk/lib/linux/../EApiEmulGPIO.c ****               GPIOIDMapping[i].MapTbl[i2].Port->LevelArg1, 
 1267              		.loc 1 414 38
 1268 0a41 8B55E8   		movl	-24(%rbp), %edx
 1269 0a44 48C1E204 		salq	$4, %rdx
 1270 0a48 4801D0   		addq	%rdx, %rax
 414:/home/hkh/git/eapidk-code-r76-trunk/lib/linux/../EApiEmulGPIO.c ****               GPIOIDMapping[i].MapTbl[i2].Port->LevelArg1, 
 1271              		.loc 1 414 42
 1272 0a4b 488B4008 		movq	8(%rax), %rax
 413:/home/hkh/git/eapidk-code-r76-trunk/lib/linux/../EApiEmulGPIO.c ****             GPIOIDMapping[i].MapTbl[i2].Port->Write(
 1273              		.loc 1 413 13
 1274 0a4f 8B400C   		movl	12(%rax), %eax
 1275 0a52 89CE     		movl	%ecx, %esi
 1276 0a54 89C7     		movl	%eax, %edi
 1277 0a56 41FFD0   		call	*%r8
 1278              	.LVL3:
 416:/home/hkh/git/eapidk-code-r76-trunk/lib/linux/../EApiEmulGPIO.c ****               );
 417:/home/hkh/git/eapidk-code-r76-trunk/lib/linux/../EApiEmulGPIO.c ****             GPIOIDMapping[i].MapTbl[i2].Port->Dirty=0;
 1279              		.loc 1 417 29
 1280 0a59 8B55E4   		movl	-28(%rbp), %edx
 1281 0a5c 4889D0   		movq	%rdx, %rax
 1282 0a5f 4801C0   		addq	%rax, %rax
 1283 0a62 4801D0   		addq	%rdx, %rax
 1284 0a65 48C1E003 		salq	$3, %rax
 1285 0a69 4889C2   		movq	%rax, %rdx
 1286 0a6c 488D0500 		leaq	8+GPIOIDMapping(%rip), %rax
 1286      000000
 1287 0a73 488B0402 		movq	(%rdx,%rax), %rax
 1288              		.loc 1 417 36
 1289 0a77 8B55E8   		movl	-24(%rbp), %edx
 1290 0a7a 48C1E204 		salq	$4, %rdx
 1291 0a7e 4801D0   		addq	%rdx, %rax
 1292              		.loc 1 417 40
 1293 0a81 488B4008 		movq	8(%rax), %rax
 1294              		.loc 1 417 52
 1295 0a85 C7000000 		movl	$0, (%rax)
 1295      0000
 1296              	.L39:
 411:/home/hkh/git/eapidk-code-r76-trunk/lib/linux/../EApiEmulGPIO.c ****           if(GPIOIDMapping[i].MapTbl[i2].Port->Dirty==1){
GAS LISTING /tmp/ccAG33yV.s 			page 35


 1297              		.loc 1 411 75 discriminator 2
 1298 0a8b 8345E801 		addl	$1, -24(%rbp)
 1299              	.L38:
 411:/home/hkh/git/eapidk-code-r76-trunk/lib/linux/../EApiEmulGPIO.c ****           if(GPIOIDMapping[i].MapTbl[i2].Port->Dirty==1){
 1300              		.loc 1 411 34 discriminator 1
 1301 0a8f 8B55E4   		movl	-28(%rbp), %edx
 1302 0a92 4889D0   		movq	%rdx, %rax
 1303 0a95 4801C0   		addq	%rax, %rax
 1304 0a98 4801D0   		addq	%rdx, %rax
 1305 0a9b 48C1E003 		salq	$3, %rax
 1306 0a9f 4889C2   		movq	%rax, %rdx
 1307 0aa2 488D0500 		leaq	8+GPIOIDMapping(%rip), %rax
 1307      000000
 1308 0aa9 488B0402 		movq	(%rdx,%rax), %rax
 411:/home/hkh/git/eapidk-code-r76-trunk/lib/linux/../EApiEmulGPIO.c ****           if(GPIOIDMapping[i].MapTbl[i2].Port->Dirty==1){
 1309              		.loc 1 411 41 discriminator 1
 1310 0aad 8B55E8   		movl	-24(%rbp), %edx
 1311 0ab0 48C1E204 		salq	$4, %rdx
 1312 0ab4 4801D0   		addq	%rdx, %rax
 411:/home/hkh/git/eapidk-code-r76-trunk/lib/linux/../EApiEmulGPIO.c ****           if(GPIOIDMapping[i].MapTbl[i2].Port->Dirty==1){
 1313              		.loc 1 411 45 discriminator 1
 1314 0ab7 8B00     		movl	(%rax), %eax
 411:/home/hkh/git/eapidk-code-r76-trunk/lib/linux/../EApiEmulGPIO.c ****           if(GPIOIDMapping[i].MapTbl[i2].Port->Dirty==1){
 1315              		.loc 1 411 9 discriminator 1
 1316 0ab9 83F8FF   		cmpl	$-1, %eax
 1317 0abc 0F85CBFE 		jne	.L40
 1317      FFFF
 418:/home/hkh/git/eapidk-code-r76-trunk/lib/linux/../EApiEmulGPIO.c ****           }
 419:/home/hkh/git/eapidk-code-r76-trunk/lib/linux/../EApiEmulGPIO.c ****         }
 420:/home/hkh/git/eapidk-code-r76-trunk/lib/linux/../EApiEmulGPIO.c ****         EAPI_LIB_RETURN_SUCCESS(EApiGPIOSetLevel, "");
 1318              		.loc 1 420 9
 1319 0ac2 4883EC08 		subq	$8, %rsp
 1320 0ac6 488D0500 		leaq	.LC5(%rip), %rax
 1320      000000
 1321 0acd 50       		pushq	%rax
 1322 0ace 4C8D0D00 		leaq	.LC0(%rip), %r9
 1322      000000
 1323 0ad5 41B80000 		movl	$0, %r8d
 1323      0000
 1324 0adb B9A40100 		movl	$420, %ecx
 1324      00
 1325 0ae0 488D1500 		leaq	.LC8(%rip), %rdx
 1325      000000
 1326 0ae7 488D3500 		leaq	.LC2(%rip), %rsi
 1326      000000
 1327 0aee BF4C0000 		movl	$76, %edi
 1327      00
 1328 0af3 B8000000 		movl	$0, %eax
 1328      00
 1329 0af8 E8000000 		call	siFormattedMessage_SC@PLT
 1329      00
 1330 0afd 4883C410 		addq	$16, %rsp
 1331 0b01 C745E000 		movl	$0, -32(%rbp)
 1331      000000
 1332 0b08 EB55     		jmp	.L29
 1333              	.L27:
 368:/home/hkh/git/eapidk-code-r76-trunk/lib/linux/../EApiEmulGPIO.c ****   {
GAS LISTING /tmp/ccAG33yV.s 			page 36


 1334              		.loc 1 368 40 discriminator 2
 1335 0b0a 8345E401 		addl	$1, -28(%rbp)
 1336              	.L26:
 368:/home/hkh/git/eapidk-code-r76-trunk/lib/linux/../EApiEmulGPIO.c ****   {
 1337              		.loc 1 368 3 discriminator 1
 1338 0b0e 837DE408 		cmpl	$8, -28(%rbp)
 1339 0b12 0F868CF9 		jbe	.L41
 1339      FFFF
 421:/home/hkh/git/eapidk-code-r76-trunk/lib/linux/../EApiEmulGPIO.c ****       }
 422:/home/hkh/git/eapidk-code-r76-trunk/lib/linux/../EApiEmulGPIO.c ****   }
 423:/home/hkh/git/eapidk-code-r76-trunk/lib/linux/../EApiEmulGPIO.c ****   EAPI_LIB_RETURN_ERROR(
 1340              		.loc 1 423 3
 1341 0b18 4883EC08 		subq	$8, %rsp
 1342 0b1c 488D0500 		leaq	.LC6(%rip), %rax
 1342      000000
 1343 0b23 50       		pushq	%rax
 1344 0b24 4C8D0D00 		leaq	.LC0(%rip), %r9
 1344      000000
 1345 0b2b 41B8FFFC 		movl	$-769, %r8d
 1345      FFFF
 1346 0b31 B9A70100 		movl	$423, %ecx
 1346      00
 1347 0b36 488D1500 		leaq	.LC8(%rip), %rdx
 1347      000000
 1348 0b3d 488D3500 		leaq	.LC2(%rip), %rsi
 1348      000000
 1349 0b44 BF450000 		movl	$69, %edi
 1349      00
 1350 0b49 B8000000 		movl	$0, %eax
 1350      00
 1351 0b4e E8000000 		call	siFormattedMessage_SC@PLT
 1351      00
 1352 0b53 4883C410 		addq	$16, %rsp
 1353 0b57 C745E0FF 		movl	$-769, -32(%rbp)
 1353      FCFFFF
 1354 0b5e 90       		nop
 1355              	.L29:
 424:/home/hkh/git/eapidk-code-r76-trunk/lib/linux/../EApiEmulGPIO.c ****     EApiGPIOSetLevel, 
 425:/home/hkh/git/eapidk-code-r76-trunk/lib/linux/../EApiEmulGPIO.c ****     EAPI_STATUS_UNSUPPORTED, 
 426:/home/hkh/git/eapidk-code-r76-trunk/lib/linux/../EApiEmulGPIO.c ****     "Unrecognised GPIO ID"
 427:/home/hkh/git/eapidk-code-r76-trunk/lib/linux/../EApiEmulGPIO.c ****     );
 428:/home/hkh/git/eapidk-code-r76-trunk/lib/linux/../EApiEmulGPIO.c **** EAPI_LIB_ASSERT_EXIT
 429:/home/hkh/git/eapidk-code-r76-trunk/lib/linux/../EApiEmulGPIO.c **** 
 430:/home/hkh/git/eapidk-code-r76-trunk/lib/linux/../EApiEmulGPIO.c ****   return StatusCode;
 1356              		.loc 1 430 10
 1357 0b5f 8B45E0   		movl	-32(%rbp), %eax
 431:/home/hkh/git/eapidk-code-r76-trunk/lib/linux/../EApiEmulGPIO.c **** }
 1358              		.loc 1 431 1
 1359 0b62 488B5DF8 		movq	-8(%rbp), %rbx
 1360 0b66 C9       		leave
 1361              		.cfi_def_cfa 7, 8
 1362 0b67 C3       		ret
 1363              		.cfi_endproc
 1364              	.LFE11:
 1366              		.section	.rodata
 1367              	.LC10:
 1368 00fb 45417069 		.string	"EApiGPIOGetDirectionEmul"
GAS LISTING /tmp/ccAG33yV.s 			page 37


 1368      4750494F 
 1368      47657444 
 1368      69726563 
 1368      74696F6E 
 1369              	.LC11:
 1370 0114 45417069 		.string	"EApiGPIOGetDirection"
 1370      4750494F 
 1370      47657444 
 1370      69726563 
 1370      74696F6E 
 1371              		.text
 1372              		.globl	EApiGPIOGetDirectionEmul
 1373              		.hidden	EApiGPIOGetDirectionEmul
 1375              	EApiGPIOGetDirectionEmul:
 1376              	.LFB12:
 432:/home/hkh/git/eapidk-code-r76-trunk/lib/linux/../EApiEmulGPIO.c **** 
 433:/home/hkh/git/eapidk-code-r76-trunk/lib/linux/../EApiEmulGPIO.c **** EApiStatus_t 
 434:/home/hkh/git/eapidk-code-r76-trunk/lib/linux/../EApiEmulGPIO.c **** EApiGPIOGetDirectionEmul( 
 435:/home/hkh/git/eapidk-code-r76-trunk/lib/linux/../EApiEmulGPIO.c ****   __IN  EApiId_t  Id        ,
 436:/home/hkh/git/eapidk-code-r76-trunk/lib/linux/../EApiEmulGPIO.c ****   __IN  uint32_t  BitMask   ,
 437:/home/hkh/git/eapidk-code-r76-trunk/lib/linux/../EApiEmulGPIO.c ****   __OUT uint32_t *pDirection
 438:/home/hkh/git/eapidk-code-r76-trunk/lib/linux/../EApiEmulGPIO.c ****   )
 439:/home/hkh/git/eapidk-code-r76-trunk/lib/linux/../EApiEmulGPIO.c **** {
 1377              		.loc 1 439 1
 1378              		.cfi_startproc
 1379 0b68 F30F1EFA 		endbr64
 1380 0b6c 55       		pushq	%rbp
 1381              		.cfi_def_cfa_offset 16
 1382              		.cfi_offset 6, -16
 1383 0b6d 4889E5   		movq	%rsp, %rbp
 1384              		.cfi_def_cfa_register 6
 1385 0b70 53       		pushq	%rbx
 1386 0b71 4883EC28 		subq	$40, %rsp
 1387              		.cfi_offset 3, -24
 1388 0b75 897DDC   		movl	%edi, -36(%rbp)
 1389 0b78 8975D8   		movl	%esi, -40(%rbp)
 1390 0b7b 488955D0 		movq	%rdx, -48(%rbp)
 440:/home/hkh/git/eapidk-code-r76-trunk/lib/linux/../EApiEmulGPIO.c ****   EApiStatus_t StatusCode=EAPI_STATUS_SUCCESS;
 1391              		.loc 1 440 16
 1392 0b7f C745E000 		movl	$0, -32(%rbp)
 1392      000000
 441:/home/hkh/git/eapidk-code-r76-trunk/lib/linux/../EApiEmulGPIO.c ****   unsigned i,i2;
 442:/home/hkh/git/eapidk-code-r76-trunk/lib/linux/../EApiEmulGPIO.c ****   uint32_t APIBitMask=1;
 1393              		.loc 1 442 12
 1394 0b86 C745EC01 		movl	$1, -20(%rbp)
 1394      000000
 443:/home/hkh/git/eapidk-code-r76-trunk/lib/linux/../EApiEmulGPIO.c **** 
 444:/home/hkh/git/eapidk-code-r76-trunk/lib/linux/../EApiEmulGPIO.c ****   for(i=0;i<ARRAY_SIZE(GPIOIDMapping);i++)
 1395              		.loc 1 444 8
 1396 0b8d C745E400 		movl	$0, -28(%rbp)
 1396      000000
 1397              		.loc 1 444 3
 1398 0b94 E9380300 		jmp	.L44
 1398      00
 1399              	.L54:
 445:/home/hkh/git/eapidk-code-r76-trunk/lib/linux/../EApiEmulGPIO.c ****   {
 446:/home/hkh/git/eapidk-code-r76-trunk/lib/linux/../EApiEmulGPIO.c ****       if(GPIOIDMapping[i].Id==Id)
GAS LISTING /tmp/ccAG33yV.s 			page 38


 1400              		.loc 1 446 26
 1401 0b99 8B55E4   		movl	-28(%rbp), %edx
 1402 0b9c 4889D0   		movq	%rdx, %rax
 1403 0b9f 4801C0   		addq	%rax, %rax
 1404 0ba2 4801D0   		addq	%rdx, %rax
 1405 0ba5 48C1E003 		salq	$3, %rax
 1406 0ba9 4889C2   		movq	%rax, %rdx
 1407 0bac 488D0500 		leaq	GPIOIDMapping(%rip), %rax
 1407      000000
 1408 0bb3 8B0402   		movl	(%rdx,%rax), %eax
 1409              		.loc 1 446 9
 1410 0bb6 3945DC   		cmpl	%eax, -36(%rbp)
 1411 0bb9 0F850E03 		jne	.L45
 1411      0000
 447:/home/hkh/git/eapidk-code-r76-trunk/lib/linux/../EApiEmulGPIO.c ****       {
 448:/home/hkh/git/eapidk-code-r76-trunk/lib/linux/../EApiEmulGPIO.c ****         EAPI_LIB_RETURN_ERROR_IF(
 1412              		.loc 1 448 9
 1413 0bbf 8B55E4   		movl	-28(%rbp), %edx
 1414 0bc2 4889D0   		movq	%rdx, %rax
 1415 0bc5 4801C0   		addq	%rax, %rax
 1416 0bc8 4801D0   		addq	%rdx, %rax
 1417 0bcb 48C1E003 		salq	$3, %rax
 1418 0bcf 4889C2   		movq	%rax, %rdx
 1419 0bd2 488D0500 		leaq	16+GPIOIDMapping(%rip), %rax
 1419      000000
 1420 0bd9 8B0C02   		movl	(%rdx,%rax), %ecx
 1421 0bdc 8B55E4   		movl	-28(%rbp), %edx
 1422 0bdf 4889D0   		movq	%rdx, %rax
 1423 0be2 4801C0   		addq	%rax, %rax
 1424 0be5 4801D0   		addq	%rdx, %rax
 1425 0be8 48C1E003 		salq	$3, %rax
 1426 0bec 4889C2   		movq	%rax, %rdx
 1427 0bef 488D0500 		leaq	20+GPIOIDMapping(%rip), %rax
 1427      000000
 1428 0bf6 8B0402   		movl	(%rdx,%rax), %eax
 1429 0bf9 09C8     		orl	%ecx, %eax
 1430 0bfb F7D0     		notl	%eax
 1431 0bfd 2345D8   		andl	-40(%rbp), %eax
 1432 0c00 85C0     		testl	%eax, %eax
 1433 0c02 744B     		je	.L46
 1434              		.loc 1 448 9 is_stmt 0 discriminator 1
 1435 0c04 4883EC08 		subq	$8, %rsp
 1436 0c08 488D0500 		leaq	.LC3(%rip), %rax
 1436      000000
 1437 0c0f 50       		pushq	%rax
 1438 0c10 4C8D0D00 		leaq	.LC0(%rip), %r9
 1438      000000
 1439 0c17 41B8FBFE 		movl	$-261, %r8d
 1439      FFFF
 1440 0c1d B9C00100 		movl	$448, %ecx
 1440      00
 1441 0c22 488D1500 		leaq	.LC10(%rip), %rdx
 1441      000000
 1442 0c29 488D3500 		leaq	.LC2(%rip), %rsi
 1442      000000
 1443 0c30 BF450000 		movl	$69, %edi
 1443      00
GAS LISTING /tmp/ccAG33yV.s 			page 39


 1444 0c35 B8000000 		movl	$0, %eax
 1444      00
 1445 0c3a E8000000 		call	siFormattedMessage_SC@PLT
 1445      00
 1446 0c3f 4883C410 		addq	$16, %rsp
 1447 0c43 C745E0FB 		movl	$-261, -32(%rbp)
 1447      FEFFFF
 1448 0c4a E9D30200 		jmp	.L47
 1448      00
 1449              	.L46:
 449:/home/hkh/git/eapidk-code-r76-trunk/lib/linux/../EApiEmulGPIO.c ****           EApiGPIOGetDirectionEmul, 
 450:/home/hkh/git/eapidk-code-r76-trunk/lib/linux/../EApiEmulGPIO.c ****           (BitMask&~(GPIOIDMapping[i].OutputMask|GPIOIDMapping[i].InputMask)) , 
 451:/home/hkh/git/eapidk-code-r76-trunk/lib/linux/../EApiEmulGPIO.c ****           EAPI_STATUS_INVALID_BITMASK, 
 452:/home/hkh/git/eapidk-code-r76-trunk/lib/linux/../EApiEmulGPIO.c ****           "Bit-mask Selects Invalid Bits"
 453:/home/hkh/git/eapidk-code-r76-trunk/lib/linux/../EApiEmulGPIO.c ****           );
 454:/home/hkh/git/eapidk-code-r76-trunk/lib/linux/../EApiEmulGPIO.c ****         for(i2=0;GPIOIDMapping[i].MapTbl[i2].PortMask!=END_OF_LIST_MARK;i2++){
 1450              		.loc 1 454 15 is_stmt 1
 1451 0c4f C745E800 		movl	$0, -24(%rbp)
 1451      000000
 1452              		.loc 1 454 9
 1453 0c56 EB36     		jmp	.L48
 1454              	.L49:
 455:/home/hkh/git/eapidk-code-r76-trunk/lib/linux/../EApiEmulGPIO.c ****           GPIOIDMapping[i].MapTbl[i2].Port->Dirty=0;
 1455              		.loc 1 455 27 discriminator 3
 1456 0c58 8B55E4   		movl	-28(%rbp), %edx
 1457 0c5b 4889D0   		movq	%rdx, %rax
 1458 0c5e 4801C0   		addq	%rax, %rax
 1459 0c61 4801D0   		addq	%rdx, %rax
 1460 0c64 48C1E003 		salq	$3, %rax
 1461 0c68 4889C2   		movq	%rax, %rdx
 1462 0c6b 488D0500 		leaq	8+GPIOIDMapping(%rip), %rax
 1462      000000
 1463 0c72 488B0402 		movq	(%rdx,%rax), %rax
 1464              		.loc 1 455 34 discriminator 3
 1465 0c76 8B55E8   		movl	-24(%rbp), %edx
 1466 0c79 48C1E204 		salq	$4, %rdx
 1467 0c7d 4801D0   		addq	%rdx, %rax
 1468              		.loc 1 455 38 discriminator 3
 1469 0c80 488B4008 		movq	8(%rax), %rax
 1470              		.loc 1 455 50 discriminator 3
 1471 0c84 C7000000 		movl	$0, (%rax)
 1471      0000
 454:/home/hkh/git/eapidk-code-r76-trunk/lib/linux/../EApiEmulGPIO.c ****           GPIOIDMapping[i].MapTbl[i2].Port->Dirty=0;
 1472              		.loc 1 454 75 discriminator 3
 1473 0c8a 8345E801 		addl	$1, -24(%rbp)
 1474              	.L48:
 454:/home/hkh/git/eapidk-code-r76-trunk/lib/linux/../EApiEmulGPIO.c ****           GPIOIDMapping[i].MapTbl[i2].Port->Dirty=0;
 1475              		.loc 1 454 34 discriminator 1
 1476 0c8e 8B55E4   		movl	-28(%rbp), %edx
 1477 0c91 4889D0   		movq	%rdx, %rax
 1478 0c94 4801C0   		addq	%rax, %rax
 1479 0c97 4801D0   		addq	%rdx, %rax
 1480 0c9a 48C1E003 		salq	$3, %rax
 1481 0c9e 4889C2   		movq	%rax, %rdx
 1482 0ca1 488D0500 		leaq	8+GPIOIDMapping(%rip), %rax
 1482      000000
 1483 0ca8 488B0402 		movq	(%rdx,%rax), %rax
GAS LISTING /tmp/ccAG33yV.s 			page 40


 454:/home/hkh/git/eapidk-code-r76-trunk/lib/linux/../EApiEmulGPIO.c ****           GPIOIDMapping[i].MapTbl[i2].Port->Dirty=0;
 1484              		.loc 1 454 41 discriminator 1
 1485 0cac 8B55E8   		movl	-24(%rbp), %edx
 1486 0caf 48C1E204 		salq	$4, %rdx
 1487 0cb3 4801D0   		addq	%rdx, %rax
 454:/home/hkh/git/eapidk-code-r76-trunk/lib/linux/../EApiEmulGPIO.c ****           GPIOIDMapping[i].MapTbl[i2].Port->Dirty=0;
 1488              		.loc 1 454 45 discriminator 1
 1489 0cb6 8B00     		movl	(%rax), %eax
 454:/home/hkh/git/eapidk-code-r76-trunk/lib/linux/../EApiEmulGPIO.c ****           GPIOIDMapping[i].MapTbl[i2].Port->Dirty=0;
 1490              		.loc 1 454 9 discriminator 1
 1491 0cb8 83F8FF   		cmpl	$-1, %eax
 1492 0cbb 759B     		jne	.L49
 456:/home/hkh/git/eapidk-code-r76-trunk/lib/linux/../EApiEmulGPIO.c ****         }
 457:/home/hkh/git/eapidk-code-r76-trunk/lib/linux/../EApiEmulGPIO.c ****         *pDirection=0;
 1493              		.loc 1 457 20
 1494 0cbd 488B45D0 		movq	-48(%rbp), %rax
 1495 0cc1 C7000000 		movl	$0, (%rax)
 1495      0000
 458:/home/hkh/git/eapidk-code-r76-trunk/lib/linux/../EApiEmulGPIO.c ****         for(i2=0;GPIOIDMapping[i].MapTbl[i2].PortMask!=END_OF_LIST_MARK;i2++){
 1496              		.loc 1 458 15
 1497 0cc7 C745E800 		movl	$0, -24(%rbp)
 1497      000000
 1498              		.loc 1 458 9
 1499 0cce E97F0100 		jmp	.L50
 1499      00
 1500              	.L53:
 459:/home/hkh/git/eapidk-code-r76-trunk/lib/linux/../EApiEmulGPIO.c ****           if((BitMask&APIBitMask))
 1501              		.loc 1 459 22
 1502 0cd3 8B45D8   		movl	-40(%rbp), %eax
 1503 0cd6 2345EC   		andl	-20(%rbp), %eax
 1504              		.loc 1 459 13
 1505 0cd9 85C0     		testl	%eax, %eax
 1506 0cdb 0F846A01 		je	.L51
 1506      0000
 460:/home/hkh/git/eapidk-code-r76-trunk/lib/linux/../EApiEmulGPIO.c ****           {
 461:/home/hkh/git/eapidk-code-r76-trunk/lib/linux/../EApiEmulGPIO.c ****             if(GPIOIDMapping[i].MapTbl[i2].Port->Dirty==0){
 1507              		.loc 1 461 32
 1508 0ce1 8B55E4   		movl	-28(%rbp), %edx
 1509 0ce4 4889D0   		movq	%rdx, %rax
 1510 0ce7 4801C0   		addq	%rax, %rax
 1511 0cea 4801D0   		addq	%rdx, %rax
 1512 0ced 48C1E003 		salq	$3, %rax
 1513 0cf1 4889C2   		movq	%rax, %rdx
 1514 0cf4 488D0500 		leaq	8+GPIOIDMapping(%rip), %rax
 1514      000000
 1515 0cfb 488B0402 		movq	(%rdx,%rax), %rax
 1516              		.loc 1 461 39
 1517 0cff 8B55E8   		movl	-24(%rbp), %edx
 1518 0d02 48C1E204 		salq	$4, %rdx
 1519 0d06 4801D0   		addq	%rdx, %rax
 1520              		.loc 1 461 43
 1521 0d09 488B4008 		movq	8(%rax), %rax
 1522              		.loc 1 461 48
 1523 0d0d 8B00     		movl	(%rax), %eax
 1524              		.loc 1 461 15
 1525 0d0f 85C0     		testl	%eax, %eax
 1526 0d11 0F85C400 		jne	.L52
GAS LISTING /tmp/ccAG33yV.s 			page 41


 1526      0000
 462:/home/hkh/git/eapidk-code-r76-trunk/lib/linux/../EApiEmulGPIO.c ****               GPIOIDMapping[i].MapTbl[i2].Port->Value=GPIOIDMapping[i].MapTbl[i2].Port->Read(
 1527              		.loc 1 462 71
 1528 0d17 8B55E4   		movl	-28(%rbp), %edx
 1529 0d1a 4889D0   		movq	%rdx, %rax
 1530 0d1d 4801C0   		addq	%rax, %rax
 1531 0d20 4801D0   		addq	%rdx, %rax
 1532 0d23 48C1E003 		salq	$3, %rax
 1533 0d27 4889C2   		movq	%rax, %rdx
 1534 0d2a 488D0500 		leaq	8+GPIOIDMapping(%rip), %rax
 1534      000000
 1535 0d31 488B0402 		movq	(%rdx,%rax), %rax
 1536              		.loc 1 462 78
 1537 0d35 8B55E8   		movl	-24(%rbp), %edx
 1538 0d38 48C1E204 		salq	$4, %rdx
 1539 0d3c 4801D0   		addq	%rdx, %rax
 1540              		.loc 1 462 82
 1541 0d3f 488B4008 		movq	8(%rax), %rax
 1542              		.loc 1 462 87
 1543 0d43 488B7020 		movq	32(%rax), %rsi
 463:/home/hkh/git/eapidk-code-r76-trunk/lib/linux/../EApiEmulGPIO.c ****                 GPIOIDMapping[i].MapTbl[i2].Port->DirectionArg1
 1544              		.loc 1 463 33
 1545 0d47 8B55E4   		movl	-28(%rbp), %edx
 1546 0d4a 4889D0   		movq	%rdx, %rax
 1547 0d4d 4801C0   		addq	%rax, %rax
 1548 0d50 4801D0   		addq	%rdx, %rax
 1549 0d53 48C1E003 		salq	$3, %rax
 1550 0d57 4889C2   		movq	%rax, %rdx
 1551 0d5a 488D0500 		leaq	8+GPIOIDMapping(%rip), %rax
 1551      000000
 1552 0d61 488B0402 		movq	(%rdx,%rax), %rax
 1553              		.loc 1 463 40
 1554 0d65 8B55E8   		movl	-24(%rbp), %edx
 1555 0d68 48C1E204 		salq	$4, %rdx
 1556 0d6c 4801D0   		addq	%rdx, %rax
 1557              		.loc 1 463 44
 1558 0d6f 488B4008 		movq	8(%rax), %rax
 462:/home/hkh/git/eapidk-code-r76-trunk/lib/linux/../EApiEmulGPIO.c ****               GPIOIDMapping[i].MapTbl[i2].Port->Value=GPIOIDMapping[i].MapTbl[i2].Port->Read(
 1559              		.loc 1 462 55
 1560 0d73 8B4810   		movl	16(%rax), %ecx
 462:/home/hkh/git/eapidk-code-r76-trunk/lib/linux/../EApiEmulGPIO.c ****               GPIOIDMapping[i].MapTbl[i2].Port->Value=GPIOIDMapping[i].MapTbl[i2].Port->Read(
 1561              		.loc 1 462 31
 1562 0d76 8B55E4   		movl	-28(%rbp), %edx
 1563 0d79 4889D0   		movq	%rdx, %rax
 1564 0d7c 4801C0   		addq	%rax, %rax
 1565 0d7f 4801D0   		addq	%rdx, %rax
 1566 0d82 48C1E003 		salq	$3, %rax
 1567 0d86 4889C2   		movq	%rax, %rdx
 1568 0d89 488D0500 		leaq	8+GPIOIDMapping(%rip), %rax
 1568      000000
 1569 0d90 488B0402 		movq	(%rdx,%rax), %rax
 462:/home/hkh/git/eapidk-code-r76-trunk/lib/linux/../EApiEmulGPIO.c ****               GPIOIDMapping[i].MapTbl[i2].Port->Value=GPIOIDMapping[i].MapTbl[i2].Port->Read(
 1570              		.loc 1 462 38
 1571 0d94 8B55E8   		movl	-24(%rbp), %edx
 1572 0d97 48C1E204 		salq	$4, %rdx
 1573 0d9b 4801D0   		addq	%rdx, %rax
 462:/home/hkh/git/eapidk-code-r76-trunk/lib/linux/../EApiEmulGPIO.c ****               GPIOIDMapping[i].MapTbl[i2].Port->Value=GPIOIDMapping[i].MapTbl[i2].Port->Read(
GAS LISTING /tmp/ccAG33yV.s 			page 42


 1574              		.loc 1 462 42
 1575 0d9e 488B5808 		movq	8(%rax), %rbx
 462:/home/hkh/git/eapidk-code-r76-trunk/lib/linux/../EApiEmulGPIO.c ****               GPIOIDMapping[i].MapTbl[i2].Port->Value=GPIOIDMapping[i].MapTbl[i2].Port->Read(
 1576              		.loc 1 462 55
 1577 0da2 89CF     		movl	%ecx, %edi
 1578 0da4 FFD6     		call	*%rsi
 1579              	.LVL4:
 462:/home/hkh/git/eapidk-code-r76-trunk/lib/linux/../EApiEmulGPIO.c ****               GPIOIDMapping[i].MapTbl[i2].Port->Value=GPIOIDMapping[i].MapTbl[i2].Port->Read(
 1580              		.loc 1 462 54
 1581 0da6 894304   		movl	%eax, 4(%rbx)
 464:/home/hkh/git/eapidk-code-r76-trunk/lib/linux/../EApiEmulGPIO.c ****                 );
 465:/home/hkh/git/eapidk-code-r76-trunk/lib/linux/../EApiEmulGPIO.c ****               GPIOIDMapping[i].MapTbl[i2].Port->Dirty=1;
 1582              		.loc 1 465 31
 1583 0da9 8B55E4   		movl	-28(%rbp), %edx
 1584 0dac 4889D0   		movq	%rdx, %rax
 1585 0daf 4801C0   		addq	%rax, %rax
 1586 0db2 4801D0   		addq	%rdx, %rax
 1587 0db5 48C1E003 		salq	$3, %rax
 1588 0db9 4889C2   		movq	%rax, %rdx
 1589 0dbc 488D0500 		leaq	8+GPIOIDMapping(%rip), %rax
 1589      000000
 1590 0dc3 488B0402 		movq	(%rdx,%rax), %rax
 1591              		.loc 1 465 38
 1592 0dc7 8B55E8   		movl	-24(%rbp), %edx
 1593 0dca 48C1E204 		salq	$4, %rdx
 1594 0dce 4801D0   		addq	%rdx, %rax
 1595              		.loc 1 465 42
 1596 0dd1 488B4008 		movq	8(%rax), %rax
 1597              		.loc 1 465 54
 1598 0dd5 C7000100 		movl	$1, (%rax)
 1598      0000
 1599              	.L52:
 466:/home/hkh/git/eapidk-code-r76-trunk/lib/linux/../EApiEmulGPIO.c ****             }
 467:/home/hkh/git/eapidk-code-r76-trunk/lib/linux/../EApiEmulGPIO.c ****             if(GPIOIDMapping[i].MapTbl[i2].Port->Value&GPIOIDMapping[i].MapTbl[i2].PortMask)
 1600              		.loc 1 467 32
 1601 0ddb 8B55E4   		movl	-28(%rbp), %edx
 1602 0dde 4889D0   		movq	%rdx, %rax
 1603 0de1 4801C0   		addq	%rax, %rax
 1604 0de4 4801D0   		addq	%rdx, %rax
 1605 0de7 48C1E003 		salq	$3, %rax
 1606 0deb 4889C2   		movq	%rax, %rdx
 1607 0dee 488D0500 		leaq	8+GPIOIDMapping(%rip), %rax
 1607      000000
 1608 0df5 488B0402 		movq	(%rdx,%rax), %rax
 1609              		.loc 1 467 39
 1610 0df9 8B55E8   		movl	-24(%rbp), %edx
 1611 0dfc 48C1E204 		salq	$4, %rdx
 1612 0e00 4801D0   		addq	%rdx, %rax
 1613              		.loc 1 467 43
 1614 0e03 488B4008 		movq	8(%rax), %rax
 1615              		.loc 1 467 48
 1616 0e07 8B4804   		movl	4(%rax), %ecx
 1617              		.loc 1 467 72
 1618 0e0a 8B55E4   		movl	-28(%rbp), %edx
 1619 0e0d 4889D0   		movq	%rdx, %rax
 1620 0e10 4801C0   		addq	%rax, %rax
 1621 0e13 4801D0   		addq	%rdx, %rax
GAS LISTING /tmp/ccAG33yV.s 			page 43


 1622 0e16 48C1E003 		salq	$3, %rax
 1623 0e1a 4889C2   		movq	%rax, %rdx
 1624 0e1d 488D0500 		leaq	8+GPIOIDMapping(%rip), %rax
 1624      000000
 1625 0e24 488B0402 		movq	(%rdx,%rax), %rax
 1626              		.loc 1 467 79
 1627 0e28 8B55E8   		movl	-24(%rbp), %edx
 1628 0e2b 48C1E204 		salq	$4, %rdx
 1629 0e2f 4801D0   		addq	%rdx, %rax
 1630              		.loc 1 467 83
 1631 0e32 8B00     		movl	(%rax), %eax
 1632              		.loc 1 467 55
 1633 0e34 21C8     		andl	%ecx, %eax
 1634              		.loc 1 467 15
 1635 0e36 85C0     		testl	%eax, %eax
 1636 0e38 7411     		je	.L51
 468:/home/hkh/git/eapidk-code-r76-trunk/lib/linux/../EApiEmulGPIO.c ****               *pDirection|=APIBitMask;
 1637              		.loc 1 468 26
 1638 0e3a 488B45D0 		movq	-48(%rbp), %rax
 1639 0e3e 8B00     		movl	(%rax), %eax
 1640 0e40 0B45EC   		orl	-20(%rbp), %eax
 1641 0e43 89C2     		movl	%eax, %edx
 1642 0e45 488B45D0 		movq	-48(%rbp), %rax
 1643 0e49 8910     		movl	%edx, (%rax)
 1644              	.L51:
 469:/home/hkh/git/eapidk-code-r76-trunk/lib/linux/../EApiEmulGPIO.c ****           }
 470:/home/hkh/git/eapidk-code-r76-trunk/lib/linux/../EApiEmulGPIO.c ****           APIBitMask<<=1;
 1645              		.loc 1 470 21 discriminator 2
 1646 0e4b D165EC   		sall	-20(%rbp)
 458:/home/hkh/git/eapidk-code-r76-trunk/lib/linux/../EApiEmulGPIO.c ****           if((BitMask&APIBitMask))
 1647              		.loc 1 458 75 discriminator 2
 1648 0e4e 8345E801 		addl	$1, -24(%rbp)
 1649              	.L50:
 458:/home/hkh/git/eapidk-code-r76-trunk/lib/linux/../EApiEmulGPIO.c ****           if((BitMask&APIBitMask))
 1650              		.loc 1 458 34 discriminator 1
 1651 0e52 8B55E4   		movl	-28(%rbp), %edx
 1652 0e55 4889D0   		movq	%rdx, %rax
 1653 0e58 4801C0   		addq	%rax, %rax
 1654 0e5b 4801D0   		addq	%rdx, %rax
 1655 0e5e 48C1E003 		salq	$3, %rax
 1656 0e62 4889C2   		movq	%rax, %rdx
 1657 0e65 488D0500 		leaq	8+GPIOIDMapping(%rip), %rax
 1657      000000
 1658 0e6c 488B0402 		movq	(%rdx,%rax), %rax
 458:/home/hkh/git/eapidk-code-r76-trunk/lib/linux/../EApiEmulGPIO.c ****           if((BitMask&APIBitMask))
 1659              		.loc 1 458 41 discriminator 1
 1660 0e70 8B55E8   		movl	-24(%rbp), %edx
 1661 0e73 48C1E204 		salq	$4, %rdx
 1662 0e77 4801D0   		addq	%rdx, %rax
 458:/home/hkh/git/eapidk-code-r76-trunk/lib/linux/../EApiEmulGPIO.c ****           if((BitMask&APIBitMask))
 1663              		.loc 1 458 45 discriminator 1
 1664 0e7a 8B00     		movl	(%rax), %eax
 458:/home/hkh/git/eapidk-code-r76-trunk/lib/linux/../EApiEmulGPIO.c ****           if((BitMask&APIBitMask))
 1665              		.loc 1 458 9 discriminator 1
 1666 0e7c 83F8FF   		cmpl	$-1, %eax
 1667 0e7f 0F854EFE 		jne	.L53
 1667      FFFF
GAS LISTING /tmp/ccAG33yV.s 			page 44


 471:/home/hkh/git/eapidk-code-r76-trunk/lib/linux/../EApiEmulGPIO.c ****         }
 472:/home/hkh/git/eapidk-code-r76-trunk/lib/linux/../EApiEmulGPIO.c ****         EAPI_LIB_RETURN_SUCCESS(EApiGPIOGetDirection, "");
 1668              		.loc 1 472 9
 1669 0e85 4883EC08 		subq	$8, %rsp
 1670 0e89 488D0500 		leaq	.LC5(%rip), %rax
 1670      000000
 1671 0e90 50       		pushq	%rax
 1672 0e91 4C8D0D00 		leaq	.LC0(%rip), %r9
 1672      000000
 1673 0e98 41B80000 		movl	$0, %r8d
 1673      0000
 1674 0e9e B9D80100 		movl	$472, %ecx
 1674      00
 1675 0ea3 488D1500 		leaq	.LC11(%rip), %rdx
 1675      000000
 1676 0eaa 488D3500 		leaq	.LC2(%rip), %rsi
 1676      000000
 1677 0eb1 BF4C0000 		movl	$76, %edi
 1677      00
 1678 0eb6 B8000000 		movl	$0, %eax
 1678      00
 1679 0ebb E8000000 		call	siFormattedMessage_SC@PLT
 1679      00
 1680 0ec0 4883C410 		addq	$16, %rsp
 1681 0ec4 C745E000 		movl	$0, -32(%rbp)
 1681      000000
 1682 0ecb EB55     		jmp	.L47
 1683              	.L45:
 444:/home/hkh/git/eapidk-code-r76-trunk/lib/linux/../EApiEmulGPIO.c ****   {
 1684              		.loc 1 444 40 discriminator 2
 1685 0ecd 8345E401 		addl	$1, -28(%rbp)
 1686              	.L44:
 444:/home/hkh/git/eapidk-code-r76-trunk/lib/linux/../EApiEmulGPIO.c ****   {
 1687              		.loc 1 444 3 discriminator 1
 1688 0ed1 837DE408 		cmpl	$8, -28(%rbp)
 1689 0ed5 0F86BEFC 		jbe	.L54
 1689      FFFF
 473:/home/hkh/git/eapidk-code-r76-trunk/lib/linux/../EApiEmulGPIO.c ****       }
 474:/home/hkh/git/eapidk-code-r76-trunk/lib/linux/../EApiEmulGPIO.c ****   }
 475:/home/hkh/git/eapidk-code-r76-trunk/lib/linux/../EApiEmulGPIO.c ****   EAPI_LIB_RETURN_ERROR(
 1690              		.loc 1 475 3
 1691 0edb 4883EC08 		subq	$8, %rsp
 1692 0edf 488D0500 		leaq	.LC6(%rip), %rax
 1692      000000
 1693 0ee6 50       		pushq	%rax
 1694 0ee7 4C8D0D00 		leaq	.LC0(%rip), %r9
 1694      000000
 1695 0eee 41B8FFFC 		movl	$-769, %r8d
 1695      FFFF
 1696 0ef4 B9DB0100 		movl	$475, %ecx
 1696      00
 1697 0ef9 488D1500 		leaq	.LC11(%rip), %rdx
 1697      000000
 1698 0f00 488D3500 		leaq	.LC2(%rip), %rsi
 1698      000000
 1699 0f07 BF450000 		movl	$69, %edi
 1699      00
GAS LISTING /tmp/ccAG33yV.s 			page 45


 1700 0f0c B8000000 		movl	$0, %eax
 1700      00
 1701 0f11 E8000000 		call	siFormattedMessage_SC@PLT
 1701      00
 1702 0f16 4883C410 		addq	$16, %rsp
 1703 0f1a C745E0FF 		movl	$-769, -32(%rbp)
 1703      FCFFFF
 1704 0f21 90       		nop
 1705              	.L47:
 476:/home/hkh/git/eapidk-code-r76-trunk/lib/linux/../EApiEmulGPIO.c ****     EApiGPIOGetDirection, 
 477:/home/hkh/git/eapidk-code-r76-trunk/lib/linux/../EApiEmulGPIO.c ****     EAPI_STATUS_UNSUPPORTED  , 
 478:/home/hkh/git/eapidk-code-r76-trunk/lib/linux/../EApiEmulGPIO.c ****     "Unrecognised GPIO ID"
 479:/home/hkh/git/eapidk-code-r76-trunk/lib/linux/../EApiEmulGPIO.c ****     );
 480:/home/hkh/git/eapidk-code-r76-trunk/lib/linux/../EApiEmulGPIO.c **** EAPI_LIB_ASSERT_EXIT
 481:/home/hkh/git/eapidk-code-r76-trunk/lib/linux/../EApiEmulGPIO.c **** 
 482:/home/hkh/git/eapidk-code-r76-trunk/lib/linux/../EApiEmulGPIO.c ****   return StatusCode;
 1706              		.loc 1 482 10
 1707 0f22 8B45E0   		movl	-32(%rbp), %eax
 483:/home/hkh/git/eapidk-code-r76-trunk/lib/linux/../EApiEmulGPIO.c **** }
 1708              		.loc 1 483 1
 1709 0f25 488B5DF8 		movq	-8(%rbp), %rbx
 1710 0f29 C9       		leave
 1711              		.cfi_def_cfa 7, 8
 1712 0f2a C3       		ret
 1713              		.cfi_endproc
 1714              	.LFE12:
 1716              		.section	.rodata
 1717              	.LC12:
 1718 0129 45417069 		.string	"EApiGPIOSetDirectionEmul"
 1718      4750494F 
 1718      53657444 
 1718      69726563 
 1718      74696F6E 
 1719              	.LC13:
 1720 0142 556E7375 		.string	"Unsupported Input Bits"
 1720      70706F72 
 1720      74656420 
 1720      496E7075 
 1720      74204269 
 1721              	.LC14:
 1722 0159 556E7375 		.string	"Unsupported Output Bits"
 1722      70706F72 
 1722      74656420 
 1722      4F757470 
 1722      75742042 
 1723              	.LC15:
 1724 0171 45417069 		.string	"EApiGPIOSetDirection"
 1724      4750494F 
 1724      53657444 
 1724      69726563 
 1724      74696F6E 
 1725              		.text
 1726              		.globl	EApiGPIOSetDirectionEmul
 1727              		.hidden	EApiGPIOSetDirectionEmul
 1729              	EApiGPIOSetDirectionEmul:
 1730              	.LFB13:
 484:/home/hkh/git/eapidk-code-r76-trunk/lib/linux/../EApiEmulGPIO.c **** 
GAS LISTING /tmp/ccAG33yV.s 			page 46


 485:/home/hkh/git/eapidk-code-r76-trunk/lib/linux/../EApiEmulGPIO.c **** EApiStatus_t 
 486:/home/hkh/git/eapidk-code-r76-trunk/lib/linux/../EApiEmulGPIO.c **** EApiGPIOSetDirectionEmul( 
 487:/home/hkh/git/eapidk-code-r76-trunk/lib/linux/../EApiEmulGPIO.c ****     __IN EApiId_t Id        , 
 488:/home/hkh/git/eapidk-code-r76-trunk/lib/linux/../EApiEmulGPIO.c ****     __IN uint32_t BitMask   , 
 489:/home/hkh/git/eapidk-code-r76-trunk/lib/linux/../EApiEmulGPIO.c ****     __IN uint32_t Direction
 490:/home/hkh/git/eapidk-code-r76-trunk/lib/linux/../EApiEmulGPIO.c ****     )
 491:/home/hkh/git/eapidk-code-r76-trunk/lib/linux/../EApiEmulGPIO.c **** {
 1731              		.loc 1 491 1
 1732              		.cfi_startproc
 1733 0f2b F30F1EFA 		endbr64
 1734 0f2f 55       		pushq	%rbp
 1735              		.cfi_def_cfa_offset 16
 1736              		.cfi_offset 6, -16
 1737 0f30 4889E5   		movq	%rsp, %rbp
 1738              		.cfi_def_cfa_register 6
 1739 0f33 53       		pushq	%rbx
 1740 0f34 4883EC28 		subq	$40, %rsp
 1741              		.cfi_offset 3, -24
 1742 0f38 897DDC   		movl	%edi, -36(%rbp)
 1743 0f3b 8975D8   		movl	%esi, -40(%rbp)
 1744 0f3e 8955D4   		movl	%edx, -44(%rbp)
 492:/home/hkh/git/eapidk-code-r76-trunk/lib/linux/../EApiEmulGPIO.c ****   EApiStatus_t StatusCode=EAPI_STATUS_SUCCESS;
 1745              		.loc 1 492 16
 1746 0f41 C745E000 		movl	$0, -32(%rbp)
 1746      000000
 493:/home/hkh/git/eapidk-code-r76-trunk/lib/linux/../EApiEmulGPIO.c ****   unsigned i,i2;
 494:/home/hkh/git/eapidk-code-r76-trunk/lib/linux/../EApiEmulGPIO.c ****   uint32_t APIBitMask=1;
 1747              		.loc 1 494 12
 1748 0f48 C745EC01 		movl	$1, -20(%rbp)
 1748      000000
 495:/home/hkh/git/eapidk-code-r76-trunk/lib/linux/../EApiEmulGPIO.c ****   for(i=0;i<ARRAY_SIZE(GPIOIDMapping);i++)
 1749              		.loc 1 495 8
 1750 0f4f C745E400 		movl	$0, -28(%rbp)
 1750      000000
 1751              		.loc 1 495 3
 1752 0f56 E9200600 		jmp	.L57
 1752      00
 1753              	.L73:
 496:/home/hkh/git/eapidk-code-r76-trunk/lib/linux/../EApiEmulGPIO.c ****   {
 497:/home/hkh/git/eapidk-code-r76-trunk/lib/linux/../EApiEmulGPIO.c ****       if(GPIOIDMapping[i].Id==Id)
 1754              		.loc 1 497 26
 1755 0f5b 8B55E4   		movl	-28(%rbp), %edx
 1756 0f5e 4889D0   		movq	%rdx, %rax
 1757 0f61 4801C0   		addq	%rax, %rax
 1758 0f64 4801D0   		addq	%rdx, %rax
 1759 0f67 48C1E003 		salq	$3, %rax
 1760 0f6b 4889C2   		movq	%rax, %rdx
 1761 0f6e 488D0500 		leaq	GPIOIDMapping(%rip), %rax
 1761      000000
 1762 0f75 8B0402   		movl	(%rdx,%rax), %eax
 1763              		.loc 1 497 9
 1764 0f78 3945DC   		cmpl	%eax, -36(%rbp)
 1765 0f7b 0F85F605 		jne	.L58
 1765      0000
 498:/home/hkh/git/eapidk-code-r76-trunk/lib/linux/../EApiEmulGPIO.c ****       {
 499:/home/hkh/git/eapidk-code-r76-trunk/lib/linux/../EApiEmulGPIO.c ****         EAPI_LIB_RETURN_ERROR_IF(
 1766              		.loc 1 499 9
GAS LISTING /tmp/ccAG33yV.s 			page 47


 1767 0f81 8B55E4   		movl	-28(%rbp), %edx
 1768 0f84 4889D0   		movq	%rdx, %rax
 1769 0f87 4801C0   		addq	%rax, %rax
 1770 0f8a 4801D0   		addq	%rdx, %rax
 1771 0f8d 48C1E003 		salq	$3, %rax
 1772 0f91 4889C2   		movq	%rax, %rdx
 1773 0f94 488D0500 		leaq	16+GPIOIDMapping(%rip), %rax
 1773      000000
 1774 0f9b 8B0C02   		movl	(%rdx,%rax), %ecx
 1775 0f9e 8B55E4   		movl	-28(%rbp), %edx
 1776 0fa1 4889D0   		movq	%rdx, %rax
 1777 0fa4 4801C0   		addq	%rax, %rax
 1778 0fa7 4801D0   		addq	%rdx, %rax
 1779 0faa 48C1E003 		salq	$3, %rax
 1780 0fae 4889C2   		movq	%rax, %rdx
 1781 0fb1 488D0500 		leaq	20+GPIOIDMapping(%rip), %rax
 1781      000000
 1782 0fb8 8B0402   		movl	(%rdx,%rax), %eax
 1783 0fbb 09C8     		orl	%ecx, %eax
 1784 0fbd F7D0     		notl	%eax
 1785 0fbf 2345D8   		andl	-40(%rbp), %eax
 1786 0fc2 85C0     		testl	%eax, %eax
 1787 0fc4 744B     		je	.L59
 1788              		.loc 1 499 9 is_stmt 0 discriminator 1
 1789 0fc6 4883EC08 		subq	$8, %rsp
 1790 0fca 488D0500 		leaq	.LC3(%rip), %rax
 1790      000000
 1791 0fd1 50       		pushq	%rax
 1792 0fd2 4C8D0D00 		leaq	.LC0(%rip), %r9
 1792      000000
 1793 0fd9 41B8FBFE 		movl	$-261, %r8d
 1793      FFFF
 1794 0fdf B9F30100 		movl	$499, %ecx
 1794      00
 1795 0fe4 488D1500 		leaq	.LC12(%rip), %rdx
 1795      000000
 1796 0feb 488D3500 		leaq	.LC2(%rip), %rsi
 1796      000000
 1797 0ff2 BF450000 		movl	$69, %edi
 1797      00
 1798 0ff7 B8000000 		movl	$0, %eax
 1798      00
 1799 0ffc E8000000 		call	siFormattedMessage_SC@PLT
 1799      00
 1800 1001 4883C410 		addq	$16, %rsp
 1801 1005 C745E0FB 		movl	$-261, -32(%rbp)
 1801      FEFFFF
 1802 100c E9BB0500 		jmp	.L60
 1802      00
 1803              	.L59:
 500:/home/hkh/git/eapidk-code-r76-trunk/lib/linux/../EApiEmulGPIO.c ****           EApiGPIOSetDirectionEmul, 
 501:/home/hkh/git/eapidk-code-r76-trunk/lib/linux/../EApiEmulGPIO.c ****           (BitMask&~(GPIOIDMapping[i].OutputMask|GPIOIDMapping[i].InputMask)) , 
 502:/home/hkh/git/eapidk-code-r76-trunk/lib/linux/../EApiEmulGPIO.c ****           EAPI_STATUS_INVALID_BITMASK, 
 503:/home/hkh/git/eapidk-code-r76-trunk/lib/linux/../EApiEmulGPIO.c ****           "Bit-mask Selects Invalid Bits"
 504:/home/hkh/git/eapidk-code-r76-trunk/lib/linux/../EApiEmulGPIO.c ****           );
 505:/home/hkh/git/eapidk-code-r76-trunk/lib/linux/../EApiEmulGPIO.c ****         EAPI_LIB_RETURN_ERROR_IF(
 1804              		.loc 1 505 9 is_stmt 1
GAS LISTING /tmp/ccAG33yV.s 			page 48


 1805 1011 8B45D8   		movl	-40(%rbp), %eax
 1806 1014 2345D4   		andl	-44(%rbp), %eax
 1807 1017 89C1     		movl	%eax, %ecx
 1808 1019 8B55E4   		movl	-28(%rbp), %edx
 1809 101c 4889D0   		movq	%rdx, %rax
 1810 101f 4801C0   		addq	%rax, %rax
 1811 1022 4801D0   		addq	%rdx, %rax
 1812 1025 48C1E003 		salq	$3, %rax
 1813 1029 4889C2   		movq	%rax, %rdx
 1814 102c 488D0500 		leaq	20+GPIOIDMapping(%rip), %rax
 1814      000000
 1815 1033 8B0402   		movl	(%rdx,%rax), %eax
 1816 1036 F7D0     		notl	%eax
 1817 1038 21C8     		andl	%ecx, %eax
 1818 103a 85C0     		testl	%eax, %eax
 1819 103c 744B     		je	.L61
 1820              		.loc 1 505 9 is_stmt 0 discriminator 1
 1821 103e 4883EC08 		subq	$8, %rsp
 1822 1042 488D0500 		leaq	.LC13(%rip), %rax
 1822      000000
 1823 1049 50       		pushq	%rax
 1824 104a 4C8D0D00 		leaq	.LC0(%rip), %r9
 1824      000000
 1825 1051 41B8FCFE 		movl	$-260, %r8d
 1825      FFFF
 1826 1057 B9F90100 		movl	$505, %ecx
 1826      00
 1827 105c 488D1500 		leaq	.LC12(%rip), %rdx
 1827      000000
 1828 1063 488D3500 		leaq	.LC2(%rip), %rsi
 1828      000000
 1829 106a BF450000 		movl	$69, %edi
 1829      00
 1830 106f B8000000 		movl	$0, %eax
 1830      00
 1831 1074 E8000000 		call	siFormattedMessage_SC@PLT
 1831      00
 1832 1079 4883C410 		addq	$16, %rsp
 1833 107d C745E0FC 		movl	$-260, -32(%rbp)
 1833      FEFFFF
 1834 1084 E9430500 		jmp	.L60
 1834      00
 1835              	.L61:
 506:/home/hkh/git/eapidk-code-r76-trunk/lib/linux/../EApiEmulGPIO.c ****           EApiGPIOSetDirectionEmul, 
 507:/home/hkh/git/eapidk-code-r76-trunk/lib/linux/../EApiEmulGPIO.c ****           (BitMask&Direction&~GPIOIDMapping[i].InputMask) , 
 508:/home/hkh/git/eapidk-code-r76-trunk/lib/linux/../EApiEmulGPIO.c ****           EAPI_STATUS_INVALID_DIRECTION, 
 509:/home/hkh/git/eapidk-code-r76-trunk/lib/linux/../EApiEmulGPIO.c ****           "Unsupported Input Bits"
 510:/home/hkh/git/eapidk-code-r76-trunk/lib/linux/../EApiEmulGPIO.c ****           );
 511:/home/hkh/git/eapidk-code-r76-trunk/lib/linux/../EApiEmulGPIO.c ****         EAPI_LIB_RETURN_ERROR_IF(
 1836              		.loc 1 511 9 is_stmt 1
 1837 1089 8B45D4   		movl	-44(%rbp), %eax
 1838 108c F7D0     		notl	%eax
 1839 108e 2345D8   		andl	-40(%rbp), %eax
 1840 1091 89C1     		movl	%eax, %ecx
 1841 1093 8B55E4   		movl	-28(%rbp), %edx
 1842 1096 4889D0   		movq	%rdx, %rax
 1843 1099 4801C0   		addq	%rax, %rax
GAS LISTING /tmp/ccAG33yV.s 			page 49


 1844 109c 4801D0   		addq	%rdx, %rax
 1845 109f 48C1E003 		salq	$3, %rax
 1846 10a3 4889C2   		movq	%rax, %rdx
 1847 10a6 488D0500 		leaq	16+GPIOIDMapping(%rip), %rax
 1847      000000
 1848 10ad 8B0402   		movl	(%rdx,%rax), %eax
 1849 10b0 F7D0     		notl	%eax
 1850 10b2 21C8     		andl	%ecx, %eax
 1851 10b4 85C0     		testl	%eax, %eax
 1852 10b6 744B     		je	.L62
 1853              		.loc 1 511 9 is_stmt 0 discriminator 1
 1854 10b8 4883EC08 		subq	$8, %rsp
 1855 10bc 488D0500 		leaq	.LC14(%rip), %rax
 1855      000000
 1856 10c3 50       		pushq	%rax
 1857 10c4 4C8D0D00 		leaq	.LC0(%rip), %r9
 1857      000000
 1858 10cb 41B8FCFE 		movl	$-260, %r8d
 1858      FFFF
 1859 10d1 B9FF0100 		movl	$511, %ecx
 1859      00
 1860 10d6 488D1500 		leaq	.LC12(%rip), %rdx
 1860      000000
 1861 10dd 488D3500 		leaq	.LC2(%rip), %rsi
 1861      000000
 1862 10e4 BF450000 		movl	$69, %edi
 1862      00
 1863 10e9 B8000000 		movl	$0, %eax
 1863      00
 1864 10ee E8000000 		call	siFormattedMessage_SC@PLT
 1864      00
 1865 10f3 4883C410 		addq	$16, %rsp
 1866 10f7 C745E0FC 		movl	$-260, -32(%rbp)
 1866      FEFFFF
 1867 10fe E9C90400 		jmp	.L60
 1867      00
 1868              	.L62:
 512:/home/hkh/git/eapidk-code-r76-trunk/lib/linux/../EApiEmulGPIO.c ****           EApiGPIOSetDirectionEmul, 
 513:/home/hkh/git/eapidk-code-r76-trunk/lib/linux/../EApiEmulGPIO.c ****           ((BitMask&~Direction)&~GPIOIDMapping[i].OutputMask) , 
 514:/home/hkh/git/eapidk-code-r76-trunk/lib/linux/../EApiEmulGPIO.c ****           EAPI_STATUS_INVALID_DIRECTION, 
 515:/home/hkh/git/eapidk-code-r76-trunk/lib/linux/../EApiEmulGPIO.c ****           "Unsupported Output Bits"
 516:/home/hkh/git/eapidk-code-r76-trunk/lib/linux/../EApiEmulGPIO.c ****           );
 517:/home/hkh/git/eapidk-code-r76-trunk/lib/linux/../EApiEmulGPIO.c ****         for(i2=0;GPIOIDMapping[i].MapTbl[i2].PortMask!=END_OF_LIST_MARK;i2++){
 1869              		.loc 1 517 15 is_stmt 1
 1870 1103 C745E800 		movl	$0, -24(%rbp)
 1870      000000
 1871              		.loc 1 517 9
 1872 110a EB36     		jmp	.L63
 1873              	.L64:
 518:/home/hkh/git/eapidk-code-r76-trunk/lib/linux/../EApiEmulGPIO.c ****           GPIOIDMapping[i].MapTbl[i2].Port->Dirty=0;
 1874              		.loc 1 518 27 discriminator 3
 1875 110c 8B55E4   		movl	-28(%rbp), %edx
 1876 110f 4889D0   		movq	%rdx, %rax
 1877 1112 4801C0   		addq	%rax, %rax
 1878 1115 4801D0   		addq	%rdx, %rax
 1879 1118 48C1E003 		salq	$3, %rax
 1880 111c 4889C2   		movq	%rax, %rdx
GAS LISTING /tmp/ccAG33yV.s 			page 50


 1881 111f 488D0500 		leaq	8+GPIOIDMapping(%rip), %rax
 1881      000000
 1882 1126 488B0402 		movq	(%rdx,%rax), %rax
 1883              		.loc 1 518 34 discriminator 3
 1884 112a 8B55E8   		movl	-24(%rbp), %edx
 1885 112d 48C1E204 		salq	$4, %rdx
 1886 1131 4801D0   		addq	%rdx, %rax
 1887              		.loc 1 518 38 discriminator 3
 1888 1134 488B4008 		movq	8(%rax), %rax
 1889              		.loc 1 518 50 discriminator 3
 1890 1138 C7000000 		movl	$0, (%rax)
 1890      0000
 517:/home/hkh/git/eapidk-code-r76-trunk/lib/linux/../EApiEmulGPIO.c ****           GPIOIDMapping[i].MapTbl[i2].Port->Dirty=0;
 1891              		.loc 1 517 75 discriminator 3
 1892 113e 8345E801 		addl	$1, -24(%rbp)
 1893              	.L63:
 517:/home/hkh/git/eapidk-code-r76-trunk/lib/linux/../EApiEmulGPIO.c ****           GPIOIDMapping[i].MapTbl[i2].Port->Dirty=0;
 1894              		.loc 1 517 34 discriminator 1
 1895 1142 8B55E4   		movl	-28(%rbp), %edx
 1896 1145 4889D0   		movq	%rdx, %rax
 1897 1148 4801C0   		addq	%rax, %rax
 1898 114b 4801D0   		addq	%rdx, %rax
 1899 114e 48C1E003 		salq	$3, %rax
 1900 1152 4889C2   		movq	%rax, %rdx
 1901 1155 488D0500 		leaq	8+GPIOIDMapping(%rip), %rax
 1901      000000
 1902 115c 488B0402 		movq	(%rdx,%rax), %rax
 517:/home/hkh/git/eapidk-code-r76-trunk/lib/linux/../EApiEmulGPIO.c ****           GPIOIDMapping[i].MapTbl[i2].Port->Dirty=0;
 1903              		.loc 1 517 41 discriminator 1
 1904 1160 8B55E8   		movl	-24(%rbp), %edx
 1905 1163 48C1E204 		salq	$4, %rdx
 1906 1167 4801D0   		addq	%rdx, %rax
 517:/home/hkh/git/eapidk-code-r76-trunk/lib/linux/../EApiEmulGPIO.c ****           GPIOIDMapping[i].MapTbl[i2].Port->Dirty=0;
 1907              		.loc 1 517 45 discriminator 1
 1908 116a 8B00     		movl	(%rax), %eax
 517:/home/hkh/git/eapidk-code-r76-trunk/lib/linux/../EApiEmulGPIO.c ****           GPIOIDMapping[i].MapTbl[i2].Port->Dirty=0;
 1909              		.loc 1 517 9 discriminator 1
 1910 116c 83F8FF   		cmpl	$-1, %eax
 1911 116f 759B     		jne	.L64
 519:/home/hkh/git/eapidk-code-r76-trunk/lib/linux/../EApiEmulGPIO.c ****         }
 520:/home/hkh/git/eapidk-code-r76-trunk/lib/linux/../EApiEmulGPIO.c ****         for(i2=0;GPIOIDMapping[i].MapTbl[i2].PortMask!=END_OF_LIST_MARK;i2++)
 1912              		.loc 1 520 15
 1913 1171 C745E800 		movl	$0, -24(%rbp)
 1913      000000
 1914              		.loc 1 520 9
 1915 1178 E93E0200 		jmp	.L65
 1915      00
 1916              	.L69:
 521:/home/hkh/git/eapidk-code-r76-trunk/lib/linux/../EApiEmulGPIO.c ****         {
 522:/home/hkh/git/eapidk-code-r76-trunk/lib/linux/../EApiEmulGPIO.c ****           if((BitMask&APIBitMask))
 1917              		.loc 1 522 22
 1918 117d 8B45D8   		movl	-40(%rbp), %eax
 1919 1180 2345EC   		andl	-20(%rbp), %eax
 1920              		.loc 1 522 13
 1921 1183 85C0     		testl	%eax, %eax
 1922 1185 0F842902 		je	.L66
 1922      0000
GAS LISTING /tmp/ccAG33yV.s 			page 51


 523:/home/hkh/git/eapidk-code-r76-trunk/lib/linux/../EApiEmulGPIO.c ****           {
 524:/home/hkh/git/eapidk-code-r76-trunk/lib/linux/../EApiEmulGPIO.c ****             if(GPIOIDMapping[i].MapTbl[i2].Port->Dirty==0){
 1923              		.loc 1 524 32
 1924 118b 8B55E4   		movl	-28(%rbp), %edx
 1925 118e 4889D0   		movq	%rdx, %rax
 1926 1191 4801C0   		addq	%rax, %rax
 1927 1194 4801D0   		addq	%rdx, %rax
 1928 1197 48C1E003 		salq	$3, %rax
 1929 119b 4889C2   		movq	%rax, %rdx
 1930 119e 488D0500 		leaq	8+GPIOIDMapping(%rip), %rax
 1930      000000
 1931 11a5 488B0402 		movq	(%rdx,%rax), %rax
 1932              		.loc 1 524 39
 1933 11a9 8B55E8   		movl	-24(%rbp), %edx
 1934 11ac 48C1E204 		salq	$4, %rdx
 1935 11b0 4801D0   		addq	%rdx, %rax
 1936              		.loc 1 524 43
 1937 11b3 488B4008 		movq	8(%rax), %rax
 1938              		.loc 1 524 48
 1939 11b7 8B00     		movl	(%rax), %eax
 1940              		.loc 1 524 15
 1941 11b9 85C0     		testl	%eax, %eax
 1942 11bb 0F85C400 		jne	.L67
 1942      0000
 525:/home/hkh/git/eapidk-code-r76-trunk/lib/linux/../EApiEmulGPIO.c ****               GPIOIDMapping[i].MapTbl[i2].Port->Value=GPIOIDMapping[i].MapTbl[i2].Port->Read(
 1943              		.loc 1 525 71
 1944 11c1 8B55E4   		movl	-28(%rbp), %edx
 1945 11c4 4889D0   		movq	%rdx, %rax
 1946 11c7 4801C0   		addq	%rax, %rax
 1947 11ca 4801D0   		addq	%rdx, %rax
 1948 11cd 48C1E003 		salq	$3, %rax
 1949 11d1 4889C2   		movq	%rax, %rdx
 1950 11d4 488D0500 		leaq	8+GPIOIDMapping(%rip), %rax
 1950      000000
 1951 11db 488B0402 		movq	(%rdx,%rax), %rax
 1952              		.loc 1 525 78
 1953 11df 8B55E8   		movl	-24(%rbp), %edx
 1954 11e2 48C1E204 		salq	$4, %rdx
 1955 11e6 4801D0   		addq	%rdx, %rax
 1956              		.loc 1 525 82
 1957 11e9 488B4008 		movq	8(%rax), %rax
 1958              		.loc 1 525 87
 1959 11ed 488B7020 		movq	32(%rax), %rsi
 526:/home/hkh/git/eapidk-code-r76-trunk/lib/linux/../EApiEmulGPIO.c ****                 GPIOIDMapping[i].MapTbl[i2].Port->DirectionArg1
 1960              		.loc 1 526 33
 1961 11f1 8B55E4   		movl	-28(%rbp), %edx
 1962 11f4 4889D0   		movq	%rdx, %rax
 1963 11f7 4801C0   		addq	%rax, %rax
 1964 11fa 4801D0   		addq	%rdx, %rax
 1965 11fd 48C1E003 		salq	$3, %rax
 1966 1201 4889C2   		movq	%rax, %rdx
 1967 1204 488D0500 		leaq	8+GPIOIDMapping(%rip), %rax
 1967      000000
 1968 120b 488B0402 		movq	(%rdx,%rax), %rax
 1969              		.loc 1 526 40
 1970 120f 8B55E8   		movl	-24(%rbp), %edx
 1971 1212 48C1E204 		salq	$4, %rdx
GAS LISTING /tmp/ccAG33yV.s 			page 52


 1972 1216 4801D0   		addq	%rdx, %rax
 1973              		.loc 1 526 44
 1974 1219 488B4008 		movq	8(%rax), %rax
 525:/home/hkh/git/eapidk-code-r76-trunk/lib/linux/../EApiEmulGPIO.c ****               GPIOIDMapping[i].MapTbl[i2].Port->Value=GPIOIDMapping[i].MapTbl[i2].Port->Read(
 1975              		.loc 1 525 55
 1976 121d 8B4810   		movl	16(%rax), %ecx
 525:/home/hkh/git/eapidk-code-r76-trunk/lib/linux/../EApiEmulGPIO.c ****               GPIOIDMapping[i].MapTbl[i2].Port->Value=GPIOIDMapping[i].MapTbl[i2].Port->Read(
 1977              		.loc 1 525 31
 1978 1220 8B55E4   		movl	-28(%rbp), %edx
 1979 1223 4889D0   		movq	%rdx, %rax
 1980 1226 4801C0   		addq	%rax, %rax
 1981 1229 4801D0   		addq	%rdx, %rax
 1982 122c 48C1E003 		salq	$3, %rax
 1983 1230 4889C2   		movq	%rax, %rdx
 1984 1233 488D0500 		leaq	8+GPIOIDMapping(%rip), %rax
 1984      000000
 1985 123a 488B0402 		movq	(%rdx,%rax), %rax
 525:/home/hkh/git/eapidk-code-r76-trunk/lib/linux/../EApiEmulGPIO.c ****               GPIOIDMapping[i].MapTbl[i2].Port->Value=GPIOIDMapping[i].MapTbl[i2].Port->Read(
 1986              		.loc 1 525 38
 1987 123e 8B55E8   		movl	-24(%rbp), %edx
 1988 1241 48C1E204 		salq	$4, %rdx
 1989 1245 4801D0   		addq	%rdx, %rax
 525:/home/hkh/git/eapidk-code-r76-trunk/lib/linux/../EApiEmulGPIO.c ****               GPIOIDMapping[i].MapTbl[i2].Port->Value=GPIOIDMapping[i].MapTbl[i2].Port->Read(
 1990              		.loc 1 525 42
 1991 1248 488B5808 		movq	8(%rax), %rbx
 525:/home/hkh/git/eapidk-code-r76-trunk/lib/linux/../EApiEmulGPIO.c ****               GPIOIDMapping[i].MapTbl[i2].Port->Value=GPIOIDMapping[i].MapTbl[i2].Port->Read(
 1992              		.loc 1 525 55
 1993 124c 89CF     		movl	%ecx, %edi
 1994 124e FFD6     		call	*%rsi
 1995              	.LVL5:
 525:/home/hkh/git/eapidk-code-r76-trunk/lib/linux/../EApiEmulGPIO.c ****               GPIOIDMapping[i].MapTbl[i2].Port->Value=GPIOIDMapping[i].MapTbl[i2].Port->Read(
 1996              		.loc 1 525 54
 1997 1250 894304   		movl	%eax, 4(%rbx)
 527:/home/hkh/git/eapidk-code-r76-trunk/lib/linux/../EApiEmulGPIO.c ****                 );
 528:/home/hkh/git/eapidk-code-r76-trunk/lib/linux/../EApiEmulGPIO.c ****               GPIOIDMapping[i].MapTbl[i2].Port->Dirty=1;
 1998              		.loc 1 528 31
 1999 1253 8B55E4   		movl	-28(%rbp), %edx
 2000 1256 4889D0   		movq	%rdx, %rax
 2001 1259 4801C0   		addq	%rax, %rax
 2002 125c 4801D0   		addq	%rdx, %rax
 2003 125f 48C1E003 		salq	$3, %rax
 2004 1263 4889C2   		movq	%rax, %rdx
 2005 1266 488D0500 		leaq	8+GPIOIDMapping(%rip), %rax
 2005      000000
 2006 126d 488B0402 		movq	(%rdx,%rax), %rax
 2007              		.loc 1 528 38
 2008 1271 8B55E8   		movl	-24(%rbp), %edx
 2009 1274 48C1E204 		salq	$4, %rdx
 2010 1278 4801D0   		addq	%rdx, %rax
 2011              		.loc 1 528 42
 2012 127b 488B4008 		movq	8(%rax), %rax
 2013              		.loc 1 528 54
 2014 127f C7000100 		movl	$1, (%rax)
 2014      0000
 2015              	.L67:
 529:/home/hkh/git/eapidk-code-r76-trunk/lib/linux/../EApiEmulGPIO.c ****             }
 530:/home/hkh/git/eapidk-code-r76-trunk/lib/linux/../EApiEmulGPIO.c ****             if(Direction&APIBitMask)
GAS LISTING /tmp/ccAG33yV.s 			page 53


 2016              		.loc 1 530 25
 2017 1285 8B45D4   		movl	-44(%rbp), %eax
 2018 1288 2345EC   		andl	-20(%rbp), %eax
 2019              		.loc 1 530 15
 2020 128b 85C0     		testl	%eax, %eax
 2021 128d 0F849100 		je	.L68
 2021      0000
 531:/home/hkh/git/eapidk-code-r76-trunk/lib/linux/../EApiEmulGPIO.c ****             {
 532:/home/hkh/git/eapidk-code-r76-trunk/lib/linux/../EApiEmulGPIO.c ****               GPIOIDMapping[i].MapTbl[i2].Port->Value|=GPIOIDMapping[i].MapTbl[i2].PortMask;
 2022              		.loc 1 532 31
 2023 1293 8B55E4   		movl	-28(%rbp), %edx
 2024 1296 4889D0   		movq	%rdx, %rax
 2025 1299 4801C0   		addq	%rax, %rax
 2026 129c 4801D0   		addq	%rdx, %rax
 2027 129f 48C1E003 		salq	$3, %rax
 2028 12a3 4889C2   		movq	%rax, %rdx
 2029 12a6 488D0500 		leaq	8+GPIOIDMapping(%rip), %rax
 2029      000000
 2030 12ad 488B0402 		movq	(%rdx,%rax), %rax
 2031              		.loc 1 532 38
 2032 12b1 8B55E8   		movl	-24(%rbp), %edx
 2033 12b4 48C1E204 		salq	$4, %rdx
 2034 12b8 4801D0   		addq	%rdx, %rax
 2035              		.loc 1 532 42
 2036 12bb 488B4008 		movq	8(%rax), %rax
 2037              		.loc 1 532 54
 2038 12bf 8B7004   		movl	4(%rax), %esi
 2039              		.loc 1 532 72
 2040 12c2 8B55E4   		movl	-28(%rbp), %edx
 2041 12c5 4889D0   		movq	%rdx, %rax
 2042 12c8 4801C0   		addq	%rax, %rax
 2043 12cb 4801D0   		addq	%rdx, %rax
 2044 12ce 48C1E003 		salq	$3, %rax
 2045 12d2 4889C2   		movq	%rax, %rdx
 2046 12d5 488D0500 		leaq	8+GPIOIDMapping(%rip), %rax
 2046      000000
 2047 12dc 488B0402 		movq	(%rdx,%rax), %rax
 2048              		.loc 1 532 79
 2049 12e0 8B55E8   		movl	-24(%rbp), %edx
 2050 12e3 48C1E204 		salq	$4, %rdx
 2051 12e7 4801D0   		addq	%rdx, %rax
 2052              		.loc 1 532 83
 2053 12ea 8B08     		movl	(%rax), %ecx
 2054              		.loc 1 532 31
 2055 12ec 8B55E4   		movl	-28(%rbp), %edx
 2056 12ef 4889D0   		movq	%rdx, %rax
 2057 12f2 4801C0   		addq	%rax, %rax
 2058 12f5 4801D0   		addq	%rdx, %rax
 2059 12f8 48C1E003 		salq	$3, %rax
 2060 12fc 4889C2   		movq	%rax, %rdx
 2061 12ff 488D0500 		leaq	8+GPIOIDMapping(%rip), %rax
 2061      000000
 2062 1306 488B0402 		movq	(%rdx,%rax), %rax
 2063              		.loc 1 532 38
 2064 130a 8B55E8   		movl	-24(%rbp), %edx
 2065 130d 48C1E204 		salq	$4, %rdx
 2066 1311 4801D0   		addq	%rdx, %rax
GAS LISTING /tmp/ccAG33yV.s 			page 54


 2067              		.loc 1 532 42
 2068 1314 488B4008 		movq	8(%rax), %rax
 2069              		.loc 1 532 54
 2070 1318 09CE     		orl	%ecx, %esi
 2071 131a 89F2     		movl	%esi, %edx
 2072 131c 895004   		movl	%edx, 4(%rax)
 2073 131f E9900000 		jmp	.L66
 2073      00
 2074              	.L68:
 533:/home/hkh/git/eapidk-code-r76-trunk/lib/linux/../EApiEmulGPIO.c ****             }
 534:/home/hkh/git/eapidk-code-r76-trunk/lib/linux/../EApiEmulGPIO.c ****             else
 535:/home/hkh/git/eapidk-code-r76-trunk/lib/linux/../EApiEmulGPIO.c ****             {
 536:/home/hkh/git/eapidk-code-r76-trunk/lib/linux/../EApiEmulGPIO.c ****               GPIOIDMapping[i].MapTbl[i2].Port->Value&=~GPIOIDMapping[i].MapTbl[i2].PortMask;
 2075              		.loc 1 536 31
 2076 1324 8B55E4   		movl	-28(%rbp), %edx
 2077 1327 4889D0   		movq	%rdx, %rax
 2078 132a 4801C0   		addq	%rax, %rax
 2079 132d 4801D0   		addq	%rdx, %rax
 2080 1330 48C1E003 		salq	$3, %rax
 2081 1334 4889C2   		movq	%rax, %rdx
 2082 1337 488D0500 		leaq	8+GPIOIDMapping(%rip), %rax
 2082      000000
 2083 133e 488B0402 		movq	(%rdx,%rax), %rax
 2084              		.loc 1 536 38
 2085 1342 8B55E8   		movl	-24(%rbp), %edx
 2086 1345 48C1E204 		salq	$4, %rdx
 2087 1349 4801D0   		addq	%rdx, %rax
 2088              		.loc 1 536 42
 2089 134c 488B4008 		movq	8(%rax), %rax
 2090              		.loc 1 536 54
 2091 1350 8B4804   		movl	4(%rax), %ecx
 2092              		.loc 1 536 73
 2093 1353 8B55E4   		movl	-28(%rbp), %edx
 2094 1356 4889D0   		movq	%rdx, %rax
 2095 1359 4801C0   		addq	%rax, %rax
 2096 135c 4801D0   		addq	%rdx, %rax
 2097 135f 48C1E003 		salq	$3, %rax
 2098 1363 4889C2   		movq	%rax, %rdx
 2099 1366 488D0500 		leaq	8+GPIOIDMapping(%rip), %rax
 2099      000000
 2100 136d 488B0402 		movq	(%rdx,%rax), %rax
 2101              		.loc 1 536 80
 2102 1371 8B55E8   		movl	-24(%rbp), %edx
 2103 1374 48C1E204 		salq	$4, %rdx
 2104 1378 4801D0   		addq	%rdx, %rax
 2105              		.loc 1 536 84
 2106 137b 8B00     		movl	(%rax), %eax
 2107              		.loc 1 536 56
 2108 137d F7D0     		notl	%eax
 2109 137f 89C6     		movl	%eax, %esi
 2110              		.loc 1 536 31
 2111 1381 8B55E4   		movl	-28(%rbp), %edx
 2112 1384 4889D0   		movq	%rdx, %rax
 2113 1387 4801C0   		addq	%rax, %rax
 2114 138a 4801D0   		addq	%rdx, %rax
 2115 138d 48C1E003 		salq	$3, %rax
 2116 1391 4889C2   		movq	%rax, %rdx
GAS LISTING /tmp/ccAG33yV.s 			page 55


 2117 1394 488D0500 		leaq	8+GPIOIDMapping(%rip), %rax
 2117      000000
 2118 139b 488B0402 		movq	(%rdx,%rax), %rax
 2119              		.loc 1 536 38
 2120 139f 8B55E8   		movl	-24(%rbp), %edx
 2121 13a2 48C1E204 		salq	$4, %rdx
 2122 13a6 4801D0   		addq	%rdx, %rax
 2123              		.loc 1 536 42
 2124 13a9 488B4008 		movq	8(%rax), %rax
 2125              		.loc 1 536 54
 2126 13ad 21F1     		andl	%esi, %ecx
 2127 13af 89CA     		movl	%ecx, %edx
 2128 13b1 895004   		movl	%edx, 4(%rax)
 2129              	.L66:
 537:/home/hkh/git/eapidk-code-r76-trunk/lib/linux/../EApiEmulGPIO.c ****             }
 538:/home/hkh/git/eapidk-code-r76-trunk/lib/linux/../EApiEmulGPIO.c ****           }
 539:/home/hkh/git/eapidk-code-r76-trunk/lib/linux/../EApiEmulGPIO.c ****           APIBitMask<<=1;
 2130              		.loc 1 539 21 discriminator 2
 2131 13b4 D165EC   		sall	-20(%rbp)
 520:/home/hkh/git/eapidk-code-r76-trunk/lib/linux/../EApiEmulGPIO.c ****         {
 2132              		.loc 1 520 75 discriminator 2
 2133 13b7 8345E801 		addl	$1, -24(%rbp)
 2134              	.L65:
 520:/home/hkh/git/eapidk-code-r76-trunk/lib/linux/../EApiEmulGPIO.c ****         {
 2135              		.loc 1 520 34 discriminator 1
 2136 13bb 8B55E4   		movl	-28(%rbp), %edx
 2137 13be 4889D0   		movq	%rdx, %rax
 2138 13c1 4801C0   		addq	%rax, %rax
 2139 13c4 4801D0   		addq	%rdx, %rax
 2140 13c7 48C1E003 		salq	$3, %rax
 2141 13cb 4889C2   		movq	%rax, %rdx
 2142 13ce 488D0500 		leaq	8+GPIOIDMapping(%rip), %rax
 2142      000000
 2143 13d5 488B0402 		movq	(%rdx,%rax), %rax
 520:/home/hkh/git/eapidk-code-r76-trunk/lib/linux/../EApiEmulGPIO.c ****         {
 2144              		.loc 1 520 41 discriminator 1
 2145 13d9 8B55E8   		movl	-24(%rbp), %edx
 2146 13dc 48C1E204 		salq	$4, %rdx
 2147 13e0 4801D0   		addq	%rdx, %rax
 520:/home/hkh/git/eapidk-code-r76-trunk/lib/linux/../EApiEmulGPIO.c ****         {
 2148              		.loc 1 520 45 discriminator 1
 2149 13e3 8B00     		movl	(%rax), %eax
 520:/home/hkh/git/eapidk-code-r76-trunk/lib/linux/../EApiEmulGPIO.c ****         {
 2150              		.loc 1 520 9 discriminator 1
 2151 13e5 83F8FF   		cmpl	$-1, %eax
 2152 13e8 0F858FFD 		jne	.L69
 2152      FFFF
 540:/home/hkh/git/eapidk-code-r76-trunk/lib/linux/../EApiEmulGPIO.c ****         }
 541:/home/hkh/git/eapidk-code-r76-trunk/lib/linux/../EApiEmulGPIO.c ****         for(i2=0;GPIOIDMapping[i].MapTbl[i2].PortMask!=END_OF_LIST_MARK;i2++){
 2153              		.loc 1 541 15
 2154 13ee C745E800 		movl	$0, -24(%rbp)
 2154      000000
 2155              		.loc 1 541 9
 2156 13f5 E9020100 		jmp	.L70
 2156      00
 2157              	.L72:
 542:/home/hkh/git/eapidk-code-r76-trunk/lib/linux/../EApiEmulGPIO.c ****           if(GPIOIDMapping[i].MapTbl[i2].Port->Dirty==1){
GAS LISTING /tmp/ccAG33yV.s 			page 56


 2158              		.loc 1 542 30
 2159 13fa 8B55E4   		movl	-28(%rbp), %edx
 2160 13fd 4889D0   		movq	%rdx, %rax
 2161 1400 4801C0   		addq	%rax, %rax
 2162 1403 4801D0   		addq	%rdx, %rax
 2163 1406 48C1E003 		salq	$3, %rax
 2164 140a 4889C2   		movq	%rax, %rdx
 2165 140d 488D0500 		leaq	8+GPIOIDMapping(%rip), %rax
 2165      000000
 2166 1414 488B0402 		movq	(%rdx,%rax), %rax
 2167              		.loc 1 542 37
 2168 1418 8B55E8   		movl	-24(%rbp), %edx
 2169 141b 48C1E204 		salq	$4, %rdx
 2170 141f 4801D0   		addq	%rdx, %rax
 2171              		.loc 1 542 41
 2172 1422 488B4008 		movq	8(%rax), %rax
 2173              		.loc 1 542 46
 2174 1426 8B00     		movl	(%rax), %eax
 2175              		.loc 1 542 13
 2176 1428 83F801   		cmpl	$1, %eax
 2177 142b 0F85C700 		jne	.L71
 2177      0000
 543:/home/hkh/git/eapidk-code-r76-trunk/lib/linux/../EApiEmulGPIO.c ****             GPIOIDMapping[i].MapTbl[i2].Port->Write(
 2178              		.loc 1 543 29
 2179 1431 8B55E4   		movl	-28(%rbp), %edx
 2180 1434 4889D0   		movq	%rdx, %rax
 2181 1437 4801C0   		addq	%rax, %rax
 2182 143a 4801D0   		addq	%rdx, %rax
 2183 143d 48C1E003 		salq	$3, %rax
 2184 1441 4889C2   		movq	%rax, %rdx
 2185 1444 488D0500 		leaq	8+GPIOIDMapping(%rip), %rax
 2185      000000
 2186 144b 488B0402 		movq	(%rdx,%rax), %rax
 2187              		.loc 1 543 36
 2188 144f 8B55E8   		movl	-24(%rbp), %edx
 2189 1452 48C1E204 		salq	$4, %rdx
 2190 1456 4801D0   		addq	%rdx, %rax
 2191              		.loc 1 543 40
 2192 1459 488B4008 		movq	8(%rax), %rax
 2193              		.loc 1 543 45
 2194 145d 4C8B4018 		movq	24(%rax), %r8
 544:/home/hkh/git/eapidk-code-r76-trunk/lib/linux/../EApiEmulGPIO.c ****               GPIOIDMapping[i].MapTbl[i2].Port->DirectionArg1, 
 545:/home/hkh/git/eapidk-code-r76-trunk/lib/linux/../EApiEmulGPIO.c ****               GPIOIDMapping[i].MapTbl[i2].Port->Value
 2195              		.loc 1 545 31
 2196 1461 8B55E4   		movl	-28(%rbp), %edx
 2197 1464 4889D0   		movq	%rdx, %rax
 2198 1467 4801C0   		addq	%rax, %rax
 2199 146a 4801D0   		addq	%rdx, %rax
 2200 146d 48C1E003 		salq	$3, %rax
 2201 1471 4889C2   		movq	%rax, %rdx
 2202 1474 488D0500 		leaq	8+GPIOIDMapping(%rip), %rax
 2202      000000
 2203 147b 488B0402 		movq	(%rdx,%rax), %rax
 2204              		.loc 1 545 38
 2205 147f 8B55E8   		movl	-24(%rbp), %edx
 2206 1482 48C1E204 		salq	$4, %rdx
 2207 1486 4801D0   		addq	%rdx, %rax
GAS LISTING /tmp/ccAG33yV.s 			page 57


 2208              		.loc 1 545 42
 2209 1489 488B4008 		movq	8(%rax), %rax
 543:/home/hkh/git/eapidk-code-r76-trunk/lib/linux/../EApiEmulGPIO.c ****             GPIOIDMapping[i].MapTbl[i2].Port->Write(
 2210              		.loc 1 543 13
 2211 148d 8B4804   		movl	4(%rax), %ecx
 544:/home/hkh/git/eapidk-code-r76-trunk/lib/linux/../EApiEmulGPIO.c ****               GPIOIDMapping[i].MapTbl[i2].Port->DirectionArg1, 
 2212              		.loc 1 544 31
 2213 1490 8B55E4   		movl	-28(%rbp), %edx
 2214 1493 4889D0   		movq	%rdx, %rax
 2215 1496 4801C0   		addq	%rax, %rax
 2216 1499 4801D0   		addq	%rdx, %rax
 2217 149c 48C1E003 		salq	$3, %rax
 2218 14a0 4889C2   		movq	%rax, %rdx
 2219 14a3 488D0500 		leaq	8+GPIOIDMapping(%rip), %rax
 2219      000000
 2220 14aa 488B0402 		movq	(%rdx,%rax), %rax
 544:/home/hkh/git/eapidk-code-r76-trunk/lib/linux/../EApiEmulGPIO.c ****               GPIOIDMapping[i].MapTbl[i2].Port->DirectionArg1, 
 2221              		.loc 1 544 38
 2222 14ae 8B55E8   		movl	-24(%rbp), %edx
 2223 14b1 48C1E204 		salq	$4, %rdx
 2224 14b5 4801D0   		addq	%rdx, %rax
 544:/home/hkh/git/eapidk-code-r76-trunk/lib/linux/../EApiEmulGPIO.c ****               GPIOIDMapping[i].MapTbl[i2].Port->DirectionArg1, 
 2225              		.loc 1 544 42
 2226 14b8 488B4008 		movq	8(%rax), %rax
 543:/home/hkh/git/eapidk-code-r76-trunk/lib/linux/../EApiEmulGPIO.c ****             GPIOIDMapping[i].MapTbl[i2].Port->Write(
 2227              		.loc 1 543 13
 2228 14bc 8B4010   		movl	16(%rax), %eax
 2229 14bf 89CE     		movl	%ecx, %esi
 2230 14c1 89C7     		movl	%eax, %edi
 2231 14c3 41FFD0   		call	*%r8
 2232              	.LVL6:
 546:/home/hkh/git/eapidk-code-r76-trunk/lib/linux/../EApiEmulGPIO.c ****               );
 547:/home/hkh/git/eapidk-code-r76-trunk/lib/linux/../EApiEmulGPIO.c ****             GPIOIDMapping[i].MapTbl[i2].Port->Dirty=0;
 2233              		.loc 1 547 29
 2234 14c6 8B55E4   		movl	-28(%rbp), %edx
 2235 14c9 4889D0   		movq	%rdx, %rax
 2236 14cc 4801C0   		addq	%rax, %rax
 2237 14cf 4801D0   		addq	%rdx, %rax
 2238 14d2 48C1E003 		salq	$3, %rax
 2239 14d6 4889C2   		movq	%rax, %rdx
 2240 14d9 488D0500 		leaq	8+GPIOIDMapping(%rip), %rax
 2240      000000
 2241 14e0 488B0402 		movq	(%rdx,%rax), %rax
 2242              		.loc 1 547 36
 2243 14e4 8B55E8   		movl	-24(%rbp), %edx
 2244 14e7 48C1E204 		salq	$4, %rdx
 2245 14eb 4801D0   		addq	%rdx, %rax
 2246              		.loc 1 547 40
 2247 14ee 488B4008 		movq	8(%rax), %rax
 2248              		.loc 1 547 52
 2249 14f2 C7000000 		movl	$0, (%rax)
 2249      0000
 2250              	.L71:
 541:/home/hkh/git/eapidk-code-r76-trunk/lib/linux/../EApiEmulGPIO.c ****           if(GPIOIDMapping[i].MapTbl[i2].Port->Dirty==1){
 2251              		.loc 1 541 75 discriminator 2
 2252 14f8 8345E801 		addl	$1, -24(%rbp)
 2253              	.L70:
GAS LISTING /tmp/ccAG33yV.s 			page 58


 541:/home/hkh/git/eapidk-code-r76-trunk/lib/linux/../EApiEmulGPIO.c ****           if(GPIOIDMapping[i].MapTbl[i2].Port->Dirty==1){
 2254              		.loc 1 541 34 discriminator 1
 2255 14fc 8B55E4   		movl	-28(%rbp), %edx
 2256 14ff 4889D0   		movq	%rdx, %rax
 2257 1502 4801C0   		addq	%rax, %rax
 2258 1505 4801D0   		addq	%rdx, %rax
 2259 1508 48C1E003 		salq	$3, %rax
 2260 150c 4889C2   		movq	%rax, %rdx
 2261 150f 488D0500 		leaq	8+GPIOIDMapping(%rip), %rax
 2261      000000
 2262 1516 488B0402 		movq	(%rdx,%rax), %rax
 541:/home/hkh/git/eapidk-code-r76-trunk/lib/linux/../EApiEmulGPIO.c ****           if(GPIOIDMapping[i].MapTbl[i2].Port->Dirty==1){
 2263              		.loc 1 541 41 discriminator 1
 2264 151a 8B55E8   		movl	-24(%rbp), %edx
 2265 151d 48C1E204 		salq	$4, %rdx
 2266 1521 4801D0   		addq	%rdx, %rax
 541:/home/hkh/git/eapidk-code-r76-trunk/lib/linux/../EApiEmulGPIO.c ****           if(GPIOIDMapping[i].MapTbl[i2].Port->Dirty==1){
 2267              		.loc 1 541 45 discriminator 1
 2268 1524 8B00     		movl	(%rax), %eax
 541:/home/hkh/git/eapidk-code-r76-trunk/lib/linux/../EApiEmulGPIO.c ****           if(GPIOIDMapping[i].MapTbl[i2].Port->Dirty==1){
 2269              		.loc 1 541 9 discriminator 1
 2270 1526 83F8FF   		cmpl	$-1, %eax
 2271 1529 0F85CBFE 		jne	.L72
 2271      FFFF
 548:/home/hkh/git/eapidk-code-r76-trunk/lib/linux/../EApiEmulGPIO.c ****           }
 549:/home/hkh/git/eapidk-code-r76-trunk/lib/linux/../EApiEmulGPIO.c ****         }
 550:/home/hkh/git/eapidk-code-r76-trunk/lib/linux/../EApiEmulGPIO.c ****         EAPI_LIB_RETURN_SUCCESS(EApiGPIOSetDirection, "");
 2272              		.loc 1 550 9
 2273 152f 4883EC08 		subq	$8, %rsp
 2274 1533 488D0500 		leaq	.LC5(%rip), %rax
 2274      000000
 2275 153a 50       		pushq	%rax
 2276 153b 4C8D0D00 		leaq	.LC0(%rip), %r9
 2276      000000
 2277 1542 41B80000 		movl	$0, %r8d
 2277      0000
 2278 1548 B9260200 		movl	$550, %ecx
 2278      00
 2279 154d 488D1500 		leaq	.LC15(%rip), %rdx
 2279      000000
 2280 1554 488D3500 		leaq	.LC2(%rip), %rsi
 2280      000000
 2281 155b BF4C0000 		movl	$76, %edi
 2281      00
 2282 1560 B8000000 		movl	$0, %eax
 2282      00
 2283 1565 E8000000 		call	siFormattedMessage_SC@PLT
 2283      00
 2284 156a 4883C410 		addq	$16, %rsp
 2285 156e C745E000 		movl	$0, -32(%rbp)
 2285      000000
 2286 1575 EB55     		jmp	.L60
 2287              	.L58:
 495:/home/hkh/git/eapidk-code-r76-trunk/lib/linux/../EApiEmulGPIO.c ****   {
 2288              		.loc 1 495 40 discriminator 2
 2289 1577 8345E401 		addl	$1, -28(%rbp)
 2290              	.L57:
GAS LISTING /tmp/ccAG33yV.s 			page 59


 495:/home/hkh/git/eapidk-code-r76-trunk/lib/linux/../EApiEmulGPIO.c ****   {
 2291              		.loc 1 495 3 discriminator 1
 2292 157b 837DE408 		cmpl	$8, -28(%rbp)
 2293 157f 0F86D6F9 		jbe	.L73
 2293      FFFF
 551:/home/hkh/git/eapidk-code-r76-trunk/lib/linux/../EApiEmulGPIO.c ****       }
 552:/home/hkh/git/eapidk-code-r76-trunk/lib/linux/../EApiEmulGPIO.c ****   }
 553:/home/hkh/git/eapidk-code-r76-trunk/lib/linux/../EApiEmulGPIO.c ****   EAPI_LIB_RETURN_ERROR(
 2294              		.loc 1 553 3
 2295 1585 4883EC08 		subq	$8, %rsp
 2296 1589 488D0500 		leaq	.LC6(%rip), %rax
 2296      000000
 2297 1590 50       		pushq	%rax
 2298 1591 4C8D0D00 		leaq	.LC0(%rip), %r9
 2298      000000
 2299 1598 41B8FFFC 		movl	$-769, %r8d
 2299      FFFF
 2300 159e B9290200 		movl	$553, %ecx
 2300      00
 2301 15a3 488D1500 		leaq	.LC15(%rip), %rdx
 2301      000000
 2302 15aa 488D3500 		leaq	.LC2(%rip), %rsi
 2302      000000
 2303 15b1 BF450000 		movl	$69, %edi
 2303      00
 2304 15b6 B8000000 		movl	$0, %eax
 2304      00
 2305 15bb E8000000 		call	siFormattedMessage_SC@PLT
 2305      00
 2306 15c0 4883C410 		addq	$16, %rsp
 2307 15c4 C745E0FF 		movl	$-769, -32(%rbp)
 2307      FCFFFF
 2308 15cb 90       		nop
 2309              	.L60:
 554:/home/hkh/git/eapidk-code-r76-trunk/lib/linux/../EApiEmulGPIO.c ****     EApiGPIOSetDirection, 
 555:/home/hkh/git/eapidk-code-r76-trunk/lib/linux/../EApiEmulGPIO.c ****     EAPI_STATUS_UNSUPPORTED, 
 556:/home/hkh/git/eapidk-code-r76-trunk/lib/linux/../EApiEmulGPIO.c ****     "Unrecognised GPIO ID"
 557:/home/hkh/git/eapidk-code-r76-trunk/lib/linux/../EApiEmulGPIO.c ****     );
 558:/home/hkh/git/eapidk-code-r76-trunk/lib/linux/../EApiEmulGPIO.c **** EAPI_LIB_ASSERT_EXIT
 559:/home/hkh/git/eapidk-code-r76-trunk/lib/linux/../EApiEmulGPIO.c **** 
 560:/home/hkh/git/eapidk-code-r76-trunk/lib/linux/../EApiEmulGPIO.c ****   return StatusCode;
 2310              		.loc 1 560 10
 2311 15cc 8B45E0   		movl	-32(%rbp), %eax
 561:/home/hkh/git/eapidk-code-r76-trunk/lib/linux/../EApiEmulGPIO.c **** }
 2312              		.loc 1 561 1
 2313 15cf 488B5DF8 		movq	-8(%rbp), %rbx
 2314 15d3 C9       		leave
 2315              		.cfi_def_cfa 7, 8
 2316 15d4 C3       		ret
 2317              		.cfi_endproc
 2318              	.LFE13:
 2320              		.section	.rodata
 2321              	.LC16:
 2322 0186 45417069 		.string	"EApiGPIOGetDirectionCaps"
 2322      4750494F 
 2322      47657444 
 2322      69726563 
GAS LISTING /tmp/ccAG33yV.s 			page 60


 2322      74696F6E 
 2323              		.text
 2324              		.globl	EApiGPIOGetDirectionCapsEmul
 2325              		.hidden	EApiGPIOGetDirectionCapsEmul
 2327              	EApiGPIOGetDirectionCapsEmul:
 2328              	.LFB14:
 562:/home/hkh/git/eapidk-code-r76-trunk/lib/linux/../EApiEmulGPIO.c **** 
 563:/home/hkh/git/eapidk-code-r76-trunk/lib/linux/../EApiEmulGPIO.c **** EApiStatus_t 
 564:/home/hkh/git/eapidk-code-r76-trunk/lib/linux/../EApiEmulGPIO.c **** EApiGPIOGetDirectionCapsEmul( 
 565:/home/hkh/git/eapidk-code-r76-trunk/lib/linux/../EApiEmulGPIO.c ****   __IN      EApiId_t  Id      , 
 566:/home/hkh/git/eapidk-code-r76-trunk/lib/linux/../EApiEmulGPIO.c ****   __OUTOPT  uint32_t *pInputs , 
 567:/home/hkh/git/eapidk-code-r76-trunk/lib/linux/../EApiEmulGPIO.c ****   __OUTOPT  uint32_t *pOutputs
 568:/home/hkh/git/eapidk-code-r76-trunk/lib/linux/../EApiEmulGPIO.c ****   )
 569:/home/hkh/git/eapidk-code-r76-trunk/lib/linux/../EApiEmulGPIO.c **** {
 2329              		.loc 1 569 1
 2330              		.cfi_startproc
 2331 15d5 F30F1EFA 		endbr64
 2332 15d9 55       		pushq	%rbp
 2333              		.cfi_def_cfa_offset 16
 2334              		.cfi_offset 6, -16
 2335 15da 4889E5   		movq	%rsp, %rbp
 2336              		.cfi_def_cfa_register 6
 2337 15dd 4883EC30 		subq	$48, %rsp
 2338 15e1 897DEC   		movl	%edi, -20(%rbp)
 2339 15e4 488975E0 		movq	%rsi, -32(%rbp)
 2340 15e8 488955D8 		movq	%rdx, -40(%rbp)
 570:/home/hkh/git/eapidk-code-r76-trunk/lib/linux/../EApiEmulGPIO.c ****   EApiStatus_t StatusCode=EAPI_STATUS_SUCCESS;
 2341              		.loc 1 570 16
 2342 15ec C745F800 		movl	$0, -8(%rbp)
 2342      000000
 571:/home/hkh/git/eapidk-code-r76-trunk/lib/linux/../EApiEmulGPIO.c ****   unsigned i;
 572:/home/hkh/git/eapidk-code-r76-trunk/lib/linux/../EApiEmulGPIO.c **** 
 573:/home/hkh/git/eapidk-code-r76-trunk/lib/linux/../EApiEmulGPIO.c ****   for(i=0;i<ARRAY_SIZE(GPIOIDMapping);i++)
 2343              		.loc 1 573 8
 2344 15f3 C745FC00 		movl	$0, -4(%rbp)
 2344      000000
 2345              		.loc 1 573 3
 2346 15fa E9B80000 		jmp	.L76
 2346      00
 2347              	.L79:
 574:/home/hkh/git/eapidk-code-r76-trunk/lib/linux/../EApiEmulGPIO.c ****   {
 575:/home/hkh/git/eapidk-code-r76-trunk/lib/linux/../EApiEmulGPIO.c ****       if(GPIOIDMapping[i].Id==Id)
 2348              		.loc 1 575 26
 2349 15ff 8B55FC   		movl	-4(%rbp), %edx
 2350 1602 4889D0   		movq	%rdx, %rax
 2351 1605 4801C0   		addq	%rax, %rax
 2352 1608 4801D0   		addq	%rdx, %rax
 2353 160b 48C1E003 		salq	$3, %rax
 2354 160f 4889C2   		movq	%rax, %rdx
 2355 1612 488D0500 		leaq	GPIOIDMapping(%rip), %rax
 2355      000000
 2356 1619 8B0402   		movl	(%rdx,%rax), %eax
 2357              		.loc 1 575 9
 2358 161c 3945EC   		cmpl	%eax, -20(%rbp)
 2359 161f 0F858E00 		jne	.L77
 2359      0000
 576:/home/hkh/git/eapidk-code-r76-trunk/lib/linux/../EApiEmulGPIO.c ****       {
GAS LISTING /tmp/ccAG33yV.s 			page 61


 577:/home/hkh/git/eapidk-code-r76-trunk/lib/linux/../EApiEmulGPIO.c ****         *pInputs=GPIOIDMapping[i].InputMask; 
 2360              		.loc 1 577 34
 2361 1625 8B55FC   		movl	-4(%rbp), %edx
 2362 1628 4889D0   		movq	%rdx, %rax
 2363 162b 4801C0   		addq	%rax, %rax
 2364 162e 4801D0   		addq	%rdx, %rax
 2365 1631 48C1E003 		salq	$3, %rax
 2366 1635 4889C2   		movq	%rax, %rdx
 2367 1638 488D0500 		leaq	20+GPIOIDMapping(%rip), %rax
 2367      000000
 2368 163f 8B1402   		movl	(%rdx,%rax), %edx
 2369              		.loc 1 577 17
 2370 1642 488B45E0 		movq	-32(%rbp), %rax
 2371 1646 8910     		movl	%edx, (%rax)
 578:/home/hkh/git/eapidk-code-r76-trunk/lib/linux/../EApiEmulGPIO.c ****         *pOutputs=GPIOIDMapping[i].OutputMask; 
 2372              		.loc 1 578 35
 2373 1648 8B55FC   		movl	-4(%rbp), %edx
 2374 164b 4889D0   		movq	%rdx, %rax
 2375 164e 4801C0   		addq	%rax, %rax
 2376 1651 4801D0   		addq	%rdx, %rax
 2377 1654 48C1E003 		salq	$3, %rax
 2378 1658 4889C2   		movq	%rax, %rdx
 2379 165b 488D0500 		leaq	16+GPIOIDMapping(%rip), %rax
 2379      000000
 2380 1662 8B1402   		movl	(%rdx,%rax), %edx
 2381              		.loc 1 578 18
 2382 1665 488B45D8 		movq	-40(%rbp), %rax
 2383 1669 8910     		movl	%edx, (%rax)
 579:/home/hkh/git/eapidk-code-r76-trunk/lib/linux/../EApiEmulGPIO.c ****         EAPI_LIB_RETURN_SUCCESS(EApiGPIOGetDirectionCaps, "");
 2384              		.loc 1 579 9
 2385 166b 4883EC08 		subq	$8, %rsp
 2386 166f 488D0500 		leaq	.LC5(%rip), %rax
 2386      000000
 2387 1676 50       		pushq	%rax
 2388 1677 4C8D0D00 		leaq	.LC0(%rip), %r9
 2388      000000
 2389 167e 41B80000 		movl	$0, %r8d
 2389      0000
 2390 1684 B9430200 		movl	$579, %ecx
 2390      00
 2391 1689 488D1500 		leaq	.LC16(%rip), %rdx
 2391      000000
 2392 1690 488D3500 		leaq	.LC2(%rip), %rsi
 2392      000000
 2393 1697 BF4C0000 		movl	$76, %edi
 2393      00
 2394 169c B8000000 		movl	$0, %eax
 2394      00
 2395 16a1 E8000000 		call	siFormattedMessage_SC@PLT
 2395      00
 2396 16a6 4883C410 		addq	$16, %rsp
 2397 16aa C745F800 		movl	$0, -8(%rbp)
 2397      000000
 2398 16b1 EB55     		jmp	.L78
 2399              	.L77:
 573:/home/hkh/git/eapidk-code-r76-trunk/lib/linux/../EApiEmulGPIO.c ****   {
 2400              		.loc 1 573 40 discriminator 2
GAS LISTING /tmp/ccAG33yV.s 			page 62


 2401 16b3 8345FC01 		addl	$1, -4(%rbp)
 2402              	.L76:
 573:/home/hkh/git/eapidk-code-r76-trunk/lib/linux/../EApiEmulGPIO.c ****   {
 2403              		.loc 1 573 3 discriminator 1
 2404 16b7 837DFC08 		cmpl	$8, -4(%rbp)
 2405 16bb 0F863EFF 		jbe	.L79
 2405      FFFF
 580:/home/hkh/git/eapidk-code-r76-trunk/lib/linux/../EApiEmulGPIO.c ****       }
 581:/home/hkh/git/eapidk-code-r76-trunk/lib/linux/../EApiEmulGPIO.c ****   }
 582:/home/hkh/git/eapidk-code-r76-trunk/lib/linux/../EApiEmulGPIO.c ****   EAPI_LIB_RETURN_ERROR(
 2406              		.loc 1 582 3
 2407 16c1 4883EC08 		subq	$8, %rsp
 2408 16c5 488D0500 		leaq	.LC6(%rip), %rax
 2408      000000
 2409 16cc 50       		pushq	%rax
 2410 16cd 4C8D0D00 		leaq	.LC0(%rip), %r9
 2410      000000
 2411 16d4 41B8FFFC 		movl	$-769, %r8d
 2411      FFFF
 2412 16da B9460200 		movl	$582, %ecx
 2412      00
 2413 16df 488D1500 		leaq	.LC16(%rip), %rdx
 2413      000000
 2414 16e6 488D3500 		leaq	.LC2(%rip), %rsi
 2414      000000
 2415 16ed BF450000 		movl	$69, %edi
 2415      00
 2416 16f2 B8000000 		movl	$0, %eax
 2416      00
 2417 16f7 E8000000 		call	siFormattedMessage_SC@PLT
 2417      00
 2418 16fc 4883C410 		addq	$16, %rsp
 2419 1700 C745F8FF 		movl	$-769, -8(%rbp)
 2419      FCFFFF
 2420 1707 90       		nop
 2421              	.L78:
 583:/home/hkh/git/eapidk-code-r76-trunk/lib/linux/../EApiEmulGPIO.c ****     EApiGPIOGetDirectionCaps, 
 584:/home/hkh/git/eapidk-code-r76-trunk/lib/linux/../EApiEmulGPIO.c ****     EAPI_STATUS_UNSUPPORTED  , 
 585:/home/hkh/git/eapidk-code-r76-trunk/lib/linux/../EApiEmulGPIO.c ****     "Unrecognised GPIO ID"
 586:/home/hkh/git/eapidk-code-r76-trunk/lib/linux/../EApiEmulGPIO.c ****     );
 587:/home/hkh/git/eapidk-code-r76-trunk/lib/linux/../EApiEmulGPIO.c **** EAPI_LIB_ASSERT_EXIT
 588:/home/hkh/git/eapidk-code-r76-trunk/lib/linux/../EApiEmulGPIO.c **** 
 589:/home/hkh/git/eapidk-code-r76-trunk/lib/linux/../EApiEmulGPIO.c ****   return StatusCode;
 2422              		.loc 1 589 10
 2423 1708 8B45F8   		movl	-8(%rbp), %eax
 590:/home/hkh/git/eapidk-code-r76-trunk/lib/linux/../EApiEmulGPIO.c **** }
 2424              		.loc 1 590 1
 2425 170b C9       		leave
 2426              		.cfi_def_cfa 7, 8
 2427 170c C3       		ret
 2428              		.cfi_endproc
 2429              	.LFE14:
 2431              	.Letext0:
 2432              		.file 2 "/usr/include/x86_64-linux-gnu/bits/types.h"
 2433              		.file 3 "/usr/include/x86_64-linux-gnu/bits/stdint-uintn.h"
 2434              		.file 4 "/usr/include/stdint.h"
 2435              		.file 5 "/usr/include/unistd.h"
GAS LISTING /tmp/ccAG33yV.s 			page 63


 2436              		.file 6 "/usr/include/x86_64-linux-gnu/bits/getopt_core.h"
 2437              		.file 7 "/usr/include/time.h"
 2438              		.file 8 "../../include/EApi.h"
 4178              		.section	.note.gnu.property,"a"
 4179              		.align 8
 4180 0000 04000000 		.long	 1f - 0f
 4181 0004 10000000 		.long	 4f - 1f
 4182 0008 05000000 		.long	 5
 4183              	0:
 4184 000c 474E5500 		.string	 "GNU"
 4185              	1:
 4186              		.align 8
 4187 0010 020000C0 		.long	 0xc0000002
 4188 0014 04000000 		.long	 3f - 2f
 4189              	2:
 4190 0018 03000000 		.long	 0x3
 4191              	3:
 4192 001c 00000000 		.align 8
 4193              	4:
GAS LISTING /tmp/ccAG33yV.s 			page 64


DEFINED SYMBOLS
                            *ABS*:0000000000000000 EApiEmulGPIO.c
     /tmp/ccAG33yV.s:8      .data:0000000000000000 EmulatedIoBlock
     /tmp/ccAG33yV.s:17     .text:0000000000000000 EApiReadIO32
     /tmp/ccAG33yV.s:56     .text:000000000000002e EApiWriteIO32
     /tmp/ccAG33yV.s:97     .text:000000000000005e EApiWriteIO32Delay
     /tmp/ccAG33yV.s:131    .text:000000000000008c EApiReadIO32Delay
     /tmp/ccAG33yV.s:163    .data.rel.local:0000000000000000 Port1Desc
     /tmp/ccAG33yV.s:177    .data.rel.local:0000000000000040 Port2Desc
     /tmp/ccAG33yV.s:192    .data.rel.ro.local:0000000000000000 GpioMappingID0
     /tmp/ccAG33yV.s:225    .data.rel.ro.local:00000000000000a0 GpioMappingID1
     /tmp/ccAG33yV.s:237    .data.rel.ro.local:00000000000000c0 GpioMappingID2
     /tmp/ccAG33yV.s:249    .data.rel.ro.local:00000000000000e0 GpioMappingID3
     /tmp/ccAG33yV.s:261    .data.rel.ro.local:0000000000000100 GpioMappingID4
     /tmp/ccAG33yV.s:273    .data.rel.ro.local:0000000000000120 GpioMappingID5
     /tmp/ccAG33yV.s:285    .data.rel.ro.local:0000000000000140 GpioMappingID6
     /tmp/ccAG33yV.s:297    .data.rel.ro.local:0000000000000160 GpioMappingID7
     /tmp/ccAG33yV.s:309    .data.rel.ro.local:0000000000000180 GpioMappingID8
     /tmp/ccAG33yV.s:321    .data.rel.ro.local:00000000000001a0 GPIOIDMapping
     /tmp/ccAG33yV.s:387    .text:00000000000000b1 EApiGPIOGetLevelEmul
     /tmp/ccAG33yV.s:740    .text:0000000000000474 EApiGPIOSetLevelEmul
     /tmp/ccAG33yV.s:1375   .text:0000000000000b68 EApiGPIOGetDirectionEmul
     /tmp/ccAG33yV.s:1729   .text:0000000000000f2b EApiGPIOSetDirectionEmul
     /tmp/ccAG33yV.s:2327   .text:00000000000015d5 EApiGPIOGetDirectionCapsEmul

UNDEFINED SYMBOLS
_GLOBAL_OFFSET_TABLE_
EApiSleepns
siFormattedMessage_SC
