	.file	"EApiEmulWDT.c"
	.text
.Ltext0:
	.local	WatchdogState
	.comm	WatchdogState,4,4
	.section	.rodata
.LC0:
	.string	"%s\n"
.LC1:
	.string	"EApiWDogGetCapEmul"
	.align 8
.LC2:
	.string	"/home/hkh/git/eapidk-code-r76-trunk/lib/linux/../EApiEmulWDT.c"
.LC3:
	.string	""
	.text
	.globl	EApiWDogGetCapEmul
	.type	EApiWDogGetCapEmul, @function
EApiWDogGetCapEmul:
.LFB6:
	.file 1 "/home/hkh/git/eapidk-code-r76-trunk/lib/linux/../EApiEmulWDT.c"
	.loc 1 74 1
	.cfi_startproc
	endbr64
	pushq	%rbp
	.cfi_def_cfa_offset 16
	.cfi_offset 6, -16
	movq	%rsp, %rbp
	.cfi_def_cfa_register 6
	subq	$48, %rsp
	movq	%rdi, -24(%rbp)
	movq	%rsi, -32(%rbp)
	movq	%rdx, -40(%rbp)
	.loc 1 75 16
	movl	$0, -4(%rbp)
	.loc 1 76 21
	movq	-24(%rbp), %rax
	movl	$600000, (%rax)
	.loc 1 77 21
	movq	-32(%rbp), %rax
	movl	$600000, (%rax)
	.loc 1 78 21
	movq	-40(%rbp), %rax
	movl	$600000, (%rax)
	.loc 1 79 3
	subq	$8, %rsp
	leaq	.LC3(%rip), %rax
	pushq	%rax
	leaq	.LC0(%rip), %r9
	movl	$0, %r8d
	movl	$79, %ecx
	leaq	.LC1(%rip), %rdx
	leaq	.LC2(%rip), %rsi
	movl	$76, %edi
	movl	$0, %eax
	call	siFormattedMessage_SC@PLT
	addq	$16, %rsp
	movl	$0, -4(%rbp)
	nop
.L2:
	endbr64
	.loc 1 83 10
	movl	-4(%rbp), %eax
	.loc 1 84 1
	leave
	.cfi_def_cfa 7, 8
	ret
	.cfi_endproc
.LFE6:
	.size	EApiWDogGetCapEmul, .-EApiWDogGetCapEmul
	.section	.rodata
.LC4:
	.string	"EApiWDogStartEmul"
	.align 8
.LC5:
	.string	"Watchdog alread runing, need to stop before starting"
.LC6:
	.string	"(Delay>pMaxDelay)"
	.align 8
.LC7:
	.string	"(EventTimeout>pMaxEventTimeout)"
	.align 8
.LC8:
	.string	"(ResetTimeout>pMaxResetTimeout)"
	.text
	.globl	EApiWDogStartEmul
	.hidden	EApiWDogStartEmul
	.type	EApiWDogStartEmul, @function
EApiWDogStartEmul:
.LFB7:
	.loc 1 95 1
	.cfi_startproc
	endbr64
	pushq	%rbp
	.cfi_def_cfa_offset 16
	.cfi_offset 6, -16
	movq	%rsp, %rbp
	.cfi_def_cfa_register 6
	subq	$32, %rsp
	movl	%edi, -20(%rbp)
	movl	%esi, -24(%rbp)
	movl	%edx, -28(%rbp)
	.loc 1 96 16
	movl	$0, -4(%rbp)
	.loc 1 97 3
	movl	WatchdogState(%rip), %eax
	cmpl	$-1, %eax
	jne	.L5
	.loc 1 97 3 is_stmt 0 discriminator 1
	subq	$8, %rsp
	leaq	.LC5(%rip), %rax
	pushq	%rax
	leaq	.LC0(%rip), %r9
	movl	$-262, %r8d
	movl	$97, %ecx
	leaq	.LC4(%rip), %rdx
	leaq	.LC2(%rip), %rsi
	movl	$69, %edi
	movl	$0, %eax
	call	siFormattedMessage_SC@PLT
	addq	$16, %rsp
	movl	$-262, -4(%rbp)
	jmp	.L6
.L5:
	.loc 1 103 3 is_stmt 1
	cmpl	$600000, -20(%rbp)
	jbe	.L7
	.loc 1 103 3 is_stmt 0 discriminator 1
	subq	$8, %rsp
	leaq	.LC6(%rip), %rax
	pushq	%rax
	leaq	.LC0(%rip), %r9
	movl	$-257, %r8d
	movl	$103, %ecx
	leaq	.LC4(%rip), %rdx
	leaq	.LC2(%rip), %rsi
	movl	$69, %edi
	movl	$0, %eax
	call	siFormattedMessage_SC@PLT
	addq	$16, %rsp
	movl	$-257, -4(%rbp)
	jmp	.L6
.L7:
	.loc 1 108 3 is_stmt 1
	cmpl	$600000, -24(%rbp)
	jbe	.L8
	.loc 1 108 3 is_stmt 0 discriminator 1
	subq	$8, %rsp
	leaq	.LC7(%rip), %rax
	pushq	%rax
	leaq	.LC0(%rip), %r9
	movl	$-257, %r8d
	movl	$108, %ecx
	leaq	.LC4(%rip), %rdx
	leaq	.LC2(%rip), %rsi
	movl	$69, %edi
	movl	$0, %eax
	call	siFormattedMessage_SC@PLT
	addq	$16, %rsp
	movl	$-257, -4(%rbp)
	jmp	.L6
.L8:
	.loc 1 113 3 is_stmt 1
	cmpl	$600000, -28(%rbp)
	jbe	.L9
	.loc 1 113 3 is_stmt 0 discriminator 1
	subq	$8, %rsp
	leaq	.LC8(%rip), %rax
	pushq	%rax
	leaq	.LC0(%rip), %r9
	movl	$-257, %r8d
	movl	$113, %ecx
	leaq	.LC4(%rip), %rdx
	leaq	.LC2(%rip), %rsi
	movl	$69, %edi
	movl	$0, %eax
	call	siFormattedMessage_SC@PLT
	addq	$16, %rsp
	movl	$-257, -4(%rbp)
	jmp	.L6
.L9:
	.loc 1 118 16 is_stmt 1
	movl	$-1, WatchdogState(%rip)
	.loc 1 119 3
	subq	$8, %rsp
	leaq	.LC3(%rip), %rax
	pushq	%rax
	leaq	.LC0(%rip), %r9
	movl	$0, %r8d
	movl	$119, %ecx
	leaq	.LC4(%rip), %rdx
	leaq	.LC2(%rip), %rsi
	movl	$76, %edi
	movl	$0, %eax
	call	siFormattedMessage_SC@PLT
	addq	$16, %rsp
	movl	$0, -4(%rbp)
	nop
.L6:
	.loc 1 122 10
	movl	-4(%rbp), %eax
	.loc 1 123 1
	leave
	.cfi_def_cfa 7, 8
	ret
	.cfi_endproc
.LFE7:
	.size	EApiWDogStartEmul, .-EApiWDogStartEmul
	.section	.rodata
.LC9:
	.string	"EApiWDogTriggerEmul"
	.align 8
.LC10:
	.string	"Watchdog Disabled therefore not possible to trigger"
	.text
	.globl	EApiWDogTriggerEmul
	.hidden	EApiWDogTriggerEmul
	.type	EApiWDogTriggerEmul, @function
EApiWDogTriggerEmul:
.LFB8:
	.loc 1 126 1
	.cfi_startproc
	endbr64
	pushq	%rbp
	.cfi_def_cfa_offset 16
	.cfi_offset 6, -16
	movq	%rsp, %rbp
	.cfi_def_cfa_register 6
	subq	$16, %rsp
	.loc 1 127 16
	movl	$0, -4(%rbp)
	.loc 1 128 3
	movl	WatchdogState(%rip), %eax
	testl	%eax, %eax
	jne	.L12
	.loc 1 128 3 is_stmt 0 discriminator 1
	subq	$8, %rsp
	leaq	.LC10(%rip), %rax
	pushq	%rax
	leaq	.LC0(%rip), %r9
	movl	$-3841, %r8d
	movl	$128, %ecx
	leaq	.LC9(%rip), %rdx
	leaq	.LC2(%rip), %rsi
	movl	$69, %edi
	movl	$0, %eax
	call	siFormattedMessage_SC@PLT
	addq	$16, %rsp
	movl	$-3841, -4(%rbp)
	jmp	.L13
.L12:
	.loc 1 135 3 is_stmt 1
	subq	$8, %rsp
	leaq	.LC3(%rip), %rax
	pushq	%rax
	leaq	.LC0(%rip), %r9
	movl	$0, %r8d
	movl	$135, %ecx
	leaq	.LC9(%rip), %rdx
	leaq	.LC2(%rip), %rsi
	movl	$76, %edi
	movl	$0, %eax
	call	siFormattedMessage_SC@PLT
	addq	$16, %rsp
	movl	$0, -4(%rbp)
	nop
.L13:
	.loc 1 141 10
	movl	-4(%rbp), %eax
	.loc 1 142 1
	leave
	.cfi_def_cfa 7, 8
	ret
	.cfi_endproc
.LFE8:
	.size	EApiWDogTriggerEmul, .-EApiWDogTriggerEmul
	.section	.rodata
.LC11:
	.string	"EApiWDogStopEmul"
	.text
	.globl	EApiWDogStopEmul
	.hidden	EApiWDogStopEmul
	.type	EApiWDogStopEmul, @function
EApiWDogStopEmul:
.LFB9:
	.loc 1 145 1
	.cfi_startproc
	endbr64
	pushq	%rbp
	.cfi_def_cfa_offset 16
	.cfi_offset 6, -16
	movq	%rsp, %rbp
	.cfi_def_cfa_register 6
	subq	$16, %rsp
	.loc 1 146 16
	movl	$0, -4(%rbp)
	.loc 1 147 16
	movl	$0, WatchdogState(%rip)
	.loc 1 148 3
	subq	$8, %rsp
	leaq	.LC3(%rip), %rax
	pushq	%rax
	leaq	.LC0(%rip), %r9
	movl	$0, %r8d
	movl	$148, %ecx
	leaq	.LC11(%rip), %rdx
	leaq	.LC2(%rip), %rsi
	movl	$76, %edi
	movl	$0, %eax
	call	siFormattedMessage_SC@PLT
	addq	$16, %rsp
	movl	$0, -4(%rbp)
	nop
.L16:
	endbr64
	.loc 1 154 10
	movl	-4(%rbp), %eax
	.loc 1 155 1
	leave
	.cfi_def_cfa 7, 8
	ret
	.cfi_endproc
.LFE9:
	.size	EApiWDogStopEmul, .-EApiWDogStopEmul
.Letext0:
	.file 2 "/usr/include/x86_64-linux-gnu/bits/types.h"
	.file 3 "/usr/include/x86_64-linux-gnu/bits/stdint-uintn.h"
	.file 4 "/usr/include/stdint.h"
	.file 5 "/usr/include/unistd.h"
	.file 6 "/usr/include/x86_64-linux-gnu/bits/getopt_core.h"
	.file 7 "/usr/include/time.h"
	.file 8 "../../include/EApi.h"
	.section	.note.GNU-stack,"",@progbits
	.section	.note.gnu.property,"a"
	.align 8
	.long	 1f - 0f
	.long	 4f - 1f
	.long	 5
0:
	.string	 "GNU"
1:
	.align 8
	.long	 0xc0000002
	.long	 3f - 2f
2:
	.long	 0x3
3:
	.align 8
4:
