	.file	"EApiEmulBoardInfo.c"
	.text
.Ltext0:
	.hidden	StringLookup
	.globl	StringLookup
	.section	.rodata
.LC0:
	.string	"PICMG"
.LC1:
	.string	"SAMPLE API"
.LC2:
	.string	"Sample Serial Number"
.LC3:
	.string	"PICMGR2.0"
.LC4:
	.string	"COMExpress"
	.section	.data.rel.ro.local,"aw"
	.align 32
	.type	StringLookup, @object
	.size	StringLookup, 80
StringLookup:
	.long	0
	.zero	4
	.quad	.LC0
	.long	1
	.zero	4
	.quad	.LC1
	.long	3
	.zero	4
	.quad	.LC2
	.long	4
	.zero	4
	.quad	.LC3
	.long	6
	.zero	4
	.quad	.LC4
	.section	.rodata
.LC5:
	.string	"%s\n"
.LC6:
	.string	"EApiBoardGetStringAEmul"
	.align 8
.LC7:
	.string	"/home/hkh/git/eapidk-code-r76-trunk/lib/linux/../EApiEmulBoardInfo.c"
.LC8:
	.string	"pBuffer Overrun Prevented"
.LC9:
	.string	""
.LC10:
	.string	"Unrecognised String ID"
	.text
	.globl	EApiBoardGetStringAEmul
	.hidden	EApiBoardGetStringAEmul
	.type	EApiBoardGetStringAEmul, @function
EApiBoardGetStringAEmul:
.LFB6:
	.file 1 "/home/hkh/git/eapidk-code-r76-trunk/lib/linux/../EApiEmulBoardInfo.c"
	.loc 1 77 1
	.cfi_startproc
	endbr64
	pushq	%rbp
	.cfi_def_cfa_offset 16
	.cfi_offset 6, -16
	movq	%rsp, %rbp
	.cfi_def_cfa_register 6
	subq	$48, %rsp
	movl	%edi, -20(%rbp)
	movq	%rsi, -32(%rbp)
	movq	%rdx, -40(%rbp)
	.loc 1 78 16
	movl	$0, -12(%rbp)
	.loc 1 82 12
	movq	-40(%rbp), %rax
	movl	(%rax), %eax
	movl	%eax, -4(%rbp)
	.loc 1 84 8
	movl	$0, -8(%rbp)
	.loc 1 84 3
	jmp	.L2
.L9:
	.loc 1 86 25
	movl	-8(%rbp), %eax
	salq	$4, %rax
	movq	%rax, %rdx
	leaq	StringLookup(%rip), %rax
	movl	(%rdx,%rax), %eax
	.loc 1 86 9
	cmpl	%eax, -20(%rbp)
	jne	.L3
	.loc 1 95 50
	movl	-8(%rbp), %eax
	salq	$4, %rax
	movq	%rax, %rdx
	leaq	8+StringLookup(%rip), %rax
	movq	(%rdx,%rax), %rax
	.loc 1 95 28
	movq	%rax, %rdi
	call	strlen@PLT
	.loc 1 95 61
	leal	1(%rax), %edx
	.loc 1 95 17
	movq	-40(%rbp), %rax
	movl	%edx, (%rax)
	.loc 1 96 22
	movq	-40(%rbp), %rax
	movl	(%rax), %eax
	.loc 1 96 11
	cmpl	%eax, -4(%rbp)
	jnb	.L4
	.loc 1 98 21
	movl	$-1537, -12(%rbp)
	jmp	.L5
.L4:
	.loc 1 102 20
	movq	-40(%rbp), %rax
	movl	(%rax), %eax
	movl	%eax, -4(%rbp)
.L5:
	.loc 1 104 11
	cmpl	$0, -4(%rbp)
	je	.L6
	.loc 1 104 22 discriminator 1
	cmpq	$0, -32(%rbp)
	je	.L6
	.loc 1 106 11
	movl	-4(%rbp), %edx
	.loc 1 106 42
	movl	-8(%rbp), %eax
	salq	$4, %rax
	movq	%rax, %rcx
	leaq	8+StringLookup(%rip), %rax
	movq	(%rcx,%rax), %rcx
	.loc 1 106 11
	movq	-32(%rbp), %rax
	movq	%rcx, %rsi
	movq	%rax, %rdi
	call	memcpy@PLT
	.loc 1 107 28
	movl	-4(%rbp), %eax
	subl	$1, %eax
	movl	%eax, %edx
	.loc 1 107 18
	movq	-32(%rbp), %rax
	addq	%rdx, %rax
	.loc 1 107 31
	movb	$0, (%rax)
.L6:
	.loc 1 109 9
	cmpl	$-1537, -12(%rbp)
	jne	.L7
	.loc 1 109 9 is_stmt 0 discriminator 1
	subq	$8, %rsp
	leaq	.LC8(%rip), %rax
	pushq	%rax
	leaq	.LC5(%rip), %r9
	movl	$-1537, %r8d
	movl	$109, %ecx
	leaq	.LC6(%rip), %rdx
	leaq	.LC7(%rip), %rsi
	movl	$69, %edi
	movl	$0, %eax
	call	siFormattedMessage_SC@PLT
	addq	$16, %rsp
	movl	$-1537, -12(%rbp)
	jmp	.L8
.L7:
	.loc 1 115 9 is_stmt 1
	subq	$8, %rsp
	leaq	.LC9(%rip), %rax
	pushq	%rax
	leaq	.LC5(%rip), %r9
	movl	$0, %r8d
	movl	$115, %ecx
	leaq	.LC6(%rip), %rdx
	leaq	.LC7(%rip), %rsi
	movl	$76, %edi
	movl	$0, %eax
	call	siFormattedMessage_SC@PLT
	addq	$16, %rsp
	movl	$0, -12(%rbp)
	jmp	.L8
.L3:
	.loc 1 84 39 discriminator 2
	addl	$1, -8(%rbp)
.L2:
	.loc 1 84 3 discriminator 1
	cmpl	$4, -8(%rbp)
	jbe	.L9
	.loc 1 121 3
	subq	$8, %rsp
	leaq	.LC10(%rip), %rax
	pushq	%rax
	leaq	.LC5(%rip), %r9
	movl	$-769, %r8d
	movl	$121, %ecx
	leaq	.LC6(%rip), %rdx
	leaq	.LC7(%rip), %rsi
	movl	$69, %edi
	movl	$0, %eax
	call	siFormattedMessage_SC@PLT
	addq	$16, %rsp
	movl	$-769, -12(%rbp)
	nop
.L8:
	.loc 1 128 10
	movl	-12(%rbp), %eax
	.loc 1 129 1
	leave
	.cfi_def_cfa 7, 8
	ret
	.cfi_endproc
.LFE6:
	.size	EApiBoardGetStringAEmul, .-EApiBoardGetStringAEmul
	.hidden	ValueLookup
	.globl	ValueLookup
	.section	.rodata
	.align 32
	.type	ValueLookup, @object
	.size	ValueLookup, 144
ValueLookup:
	.long	1
	.long	16
	.long	2
	.long	65536
	.long	3
	.long	42817
	.long	4
	.long	33554432
	.long	65536
	.long	0
	.long	65537
	.long	328657
	.long	131072
	.long	3732
	.long	131073
	.long	3193
	.long	131074
	.long	2278
	.long	135172
	.long	1300
	.long	135176
	.long	2500
	.long	135180
	.long	3300
	.long	135184
	.long	3000
	.long	135188
	.long	5000
	.long	135192
	.long	5000
	.long	135196
	.long	12000
	.long	139264
	.long	5000
	.long	139265
	.long	2500
.LC11:
	.string	"EApiBoardGetValueEmul"
.LC12:
	.string	"Unrecognised Value ID"
	.text
	.globl	EApiBoardGetValueEmul
	.hidden	EApiBoardGetValueEmul
	.type	EApiBoardGetValueEmul, @function
EApiBoardGetValueEmul:
.LFB7:
	.loc 1 183 1
	.cfi_startproc
	endbr64
	pushq	%rbp
	.cfi_def_cfa_offset 16
	.cfi_offset 6, -16
	movq	%rsp, %rbp
	.cfi_def_cfa_register 6
	subq	$32, %rsp
	movl	%edi, -20(%rbp)
	movq	%rsi, -32(%rbp)
	.loc 1 184 16
	movl	$0, -8(%rbp)
	.loc 1 187 8
	movl	$0, -4(%rbp)
	.loc 1 187 3
	jmp	.L12
.L15:
	.loc 1 189 24
	movl	-4(%rbp), %eax
	leaq	0(,%rax,8), %rdx
	leaq	ValueLookup(%rip), %rax
	movl	(%rdx,%rax), %eax
	.loc 1 189 9
	cmpl	%eax, -20(%rbp)
	jne	.L13
	.loc 1 191 31
	movl	-4(%rbp), %eax
	leaq	0(,%rax,8), %rdx
	leaq	4+ValueLookup(%rip), %rax
	movl	(%rdx,%rax), %edx
	.loc 1 191 16
	movq	-32(%rbp), %rax
	movl	%edx, (%rax)
	.loc 1 192 9
	subq	$8, %rsp
	leaq	.LC9(%rip), %rax
	pushq	%rax
	leaq	.LC5(%rip), %r9
	movl	$0, %r8d
	movl	$192, %ecx
	leaq	.LC11(%rip), %rdx
	leaq	.LC7(%rip), %rsi
	movl	$76, %edi
	movl	$0, %eax
	call	siFormattedMessage_SC@PLT
	addq	$16, %rsp
	movl	$0, -8(%rbp)
	jmp	.L14
.L13:
	.loc 1 187 38 discriminator 2
	addl	$1, -4(%rbp)
.L12:
	.loc 1 187 3 discriminator 1
	cmpl	$17, -4(%rbp)
	jbe	.L15
	.loc 1 195 3
	subq	$8, %rsp
	leaq	.LC12(%rip), %rax
	pushq	%rax
	leaq	.LC5(%rip), %r9
	movl	$-769, %r8d
	movl	$195, %ecx
	leaq	.LC11(%rip), %rdx
	leaq	.LC7(%rip), %rsi
	movl	$69, %edi
	movl	$0, %eax
	call	siFormattedMessage_SC@PLT
	addq	$16, %rsp
	movl	$-769, -8(%rbp)
	nop
.L14:
	.loc 1 202 10
	movl	-8(%rbp), %eax
	.loc 1 203 1
	leave
	.cfi_def_cfa 7, 8
	ret
	.cfi_endproc
.LFE7:
	.size	EApiBoardGetValueEmul, .-EApiBoardGetValueEmul
.Letext0:
	.file 2 "/usr/include/x86_64-linux-gnu/bits/types.h"
	.file 3 "/usr/include/x86_64-linux-gnu/bits/stdint-uintn.h"
	.file 4 "/usr/include/stdint.h"
	.file 5 "/usr/include/unistd.h"
	.file 6 "/usr/include/x86_64-linux-gnu/bits/getopt_core.h"
	.file 7 "/usr/include/time.h"
	.file 8 "../../include/EApi.h"
	.section	.note.GNU-stack,"",@progbits
	.section	.note.gnu.property,"a"
	.align 8
	.long	 1f - 0f
	.long	 4f - 1f
	.long	 5
0:
	.string	 "GNU"
1:
	.align 8
	.long	 0xc0000002
	.long	 3f - 2f
2:
	.long	 0x3
3:
	.align 8
4:
