	.file	"EApiInitLib.c"
	.text
.Ltext0:
	.hidden	OutputStream
	.globl	OutputStream
	.bss
	.align 8
	.type	OutputStream, @object
	.size	OutputStream, 8
OutputStream:
	.zero	8
	.text
	.globl	DebugMsg
	.hidden	DebugMsg
	.type	DebugMsg, @function
DebugMsg:
.LFB6:
	.file 1 "/home/hkh/git/eapidk-code-r76-trunk/lib/linux/../EApiInitLib.c"
	.loc 1 41 1
	.cfi_startproc
	endbr64
	pushq	%rbp
	.cfi_def_cfa_offset 16
	.cfi_offset 6, -16
	movq	%rsp, %rbp
	.cfi_def_cfa_register 6
	subq	$224, %rsp
	movq	%rdi, -216(%rbp)
	movq	%rsi, -168(%rbp)
	movq	%rdx, -160(%rbp)
	movq	%rcx, -152(%rbp)
	movq	%r8, -144(%rbp)
	movq	%r9, -136(%rbp)
	testb	%al, %al
	je	.L2
	movaps	%xmm0, -128(%rbp)
	movaps	%xmm1, -112(%rbp)
	movaps	%xmm2, -96(%rbp)
	movaps	%xmm3, -80(%rbp)
	movaps	%xmm4, -64(%rbp)
	movaps	%xmm5, -48(%rbp)
	movaps	%xmm6, -32(%rbp)
	movaps	%xmm7, -16(%rbp)
.L2:
	.loc 1 41 1
	movq	%fs:40, %rax
	movq	%rax, -184(%rbp)
	xorl	%eax, %eax
	.loc 1 43 3
	movl	$8, -208(%rbp)
	movl	$48, -204(%rbp)
	leaq	16(%rbp), %rax
	movq	%rax, -200(%rbp)
	leaq	-176(%rbp), %rax
	movq	%rax, -192(%rbp)
	.loc 1 44 18
	movq	OutputStream(%rip), %rax
	.loc 1 44 5
	testq	%rax, %rax
	je	.L3
	.loc 1 45 5
	movq	OutputStream(%rip), %rax
	leaq	-208(%rbp), %rdx
	movq	-216(%rbp), %rcx
	movq	%rcx, %rsi
	movq	%rax, %rdi
	call	vfprintf@PLT
	jmp	.L4
.L3:
	.loc 1 47 5
	movq	stdout@GOTPCREL(%rip), %rax
	movq	(%rax), %rax
	leaq	-208(%rbp), %rdx
	movq	-216(%rbp), %rcx
	movq	%rcx, %rsi
	movq	%rax, %rdi
	call	vfprintf@PLT
.L4:
	.loc 1 49 3
	movq	OutputStream(%rip), %rax
	movq	%rax, %rdi
	call	fflush@PLT
	.loc 1 51 1
	nop
	movq	-184(%rbp), %rax
	xorq	%fs:40, %rax
	je	.L5
	call	__stack_chk_fail@PLT
.L5:
	leave
	.cfi_def_cfa 7, 8
	ret
	.cfi_endproc
.LFE6:
	.size	DebugMsg, .-DebugMsg
	.section	.rodata
.LC0:
	.string	"w"
.LC1:
	.string	"EApi.log"
	.align 8
.LC2:
	.string	"#\n# Embedded API EApi\n# Version %u.%u\n# Lib Version %u.%u.%u\n#\n"
	.text
	.globl	EApiInitLib
	.hidden	EApiInitLib
	.type	EApiInitLib, @function
EApiInitLib:
.LFB7:
	.loc 1 61 14
	.cfi_startproc
	endbr64
	pushq	%rbp
	.cfi_def_cfa_offset 16
	.cfi_offset 6, -16
	movq	%rsp, %rbp
	.cfi_def_cfa_register 6
	.loc 1 62 18
	movq	OutputStream(%rip), %rax
	.loc 1 62 5
	testq	%rax, %rax
	jne	.L7
	.loc 1 64 18
	leaq	.LC0(%rip), %rsi
	leaq	.LC1(%rip), %rdi
	call	fopen@PLT
	.loc 1 64 17
	movq	%rax, OutputStream(%rip)
.L7:
	.loc 1 69 3
	call	OpenEepromFiles@PLT
	.loc 1 70 3
	call	OpenI2CEepromFiles@PLT
	.loc 1 71 5
	movl	$977, %r9d
	movl	$5, %r8d
	movl	$0, %ecx
	movl	$0, %edx
	movl	$1, %esi
	leaq	.LC2(%rip), %rdi
	movl	$0, %eax
	call	DebugMsg
	.loc 1 79 10
	movl	$0, %eax
	.loc 1 80 1
	popq	%rbp
	.cfi_def_cfa 7, 8
	ret
	.cfi_endproc
.LFE7:
	.size	EApiInitLib, .-EApiInitLib
	.section	.rodata
	.align 8
.LC3:
	.string	"#\n# Embedded API EApi\n# Exit \n#\n"
	.text
	.globl	EApiUninitLib
	.hidden	EApiUninitLib
	.type	EApiUninitLib, @function
EApiUninitLib:
.LFB8:
	.loc 1 85 16
	.cfi_startproc
	endbr64
	pushq	%rbp
	.cfi_def_cfa_offset 16
	.cfi_offset 6, -16
	movq	%rsp, %rbp
	.cfi_def_cfa_register 6
	.loc 1 86 5
	leaq	.LC3(%rip), %rdi
	movl	$0, %eax
	call	DebugMsg
	.loc 1 91 3
	call	CloseEepromFiles@PLT
	.loc 1 92 3
	call	CloseI2CEepromFiles@PLT
	.loc 1 93 18
	movq	OutputStream(%rip), %rax
	.loc 1 93 5
	testq	%rax, %rax
	je	.L10
	.loc 1 93 38 discriminator 1
	movq	OutputStream(%rip), %rdx
	movq	stdout@GOTPCREL(%rip), %rax
	movq	(%rax), %rax
	.loc 1 93 24 discriminator 1
	cmpq	%rax, %rdx
	je	.L10
	.loc 1 93 60 discriminator 2
	movq	OutputStream(%rip), %rdx
	movq	stderr@GOTPCREL(%rip), %rax
	movq	(%rax), %rax
	.loc 1 93 46 discriminator 2
	cmpq	%rax, %rdx
	je	.L10
	.loc 1 94 5
	movq	OutputStream(%rip), %rax
	movq	%rax, %rdi
	call	fclose@PLT
.L10:
	.loc 1 96 15
	movq	stdout@GOTPCREL(%rip), %rax
	movq	(%rax), %rax
	movq	%rax, OutputStream(%rip)
	.loc 1 97 10
	movl	$0, %eax
	.loc 1 98 1
	popq	%rbp
	.cfi_def_cfa 7, 8
	ret
	.cfi_endproc
.LFE8:
	.size	EApiUninitLib, .-EApiUninitLib
.Letext0:
	.file 2 "/usr/lib/gcc/x86_64-linux-gnu/9/include/stddef.h"
	.file 3 "/usr/include/x86_64-linux-gnu/bits/types.h"
	.file 4 "/usr/include/x86_64-linux-gnu/bits/stdint-uintn.h"
	.file 5 "/usr/include/unistd.h"
	.file 6 "/usr/include/x86_64-linux-gnu/bits/getopt_core.h"
	.file 7 "/usr/include/time.h"
	.file 8 "/usr/lib/gcc/x86_64-linux-gnu/9/include/stdarg.h"
	.file 9 "<built-in>"
	.file 10 "/usr/include/x86_64-linux-gnu/bits/types/struct_FILE.h"
	.file 11 "/usr/include/x86_64-linux-gnu/bits/types/FILE.h"
	.file 12 "/usr/include/stdio.h"
	.file 13 "/usr/include/x86_64-linux-gnu/bits/sys_errlist.h"
	.section	.note.GNU-stack,"",@progbits
	.section	.note.gnu.property,"a"
	.align 8
	.long	 1f - 0f
	.long	 4f - 1f
	.long	 5
0:
	.string	 "GNU"
1:
	.align 8
	.long	 0xc0000002
	.long	 3f - 2f
2:
	.long	 0x3
3:
	.align 8
4:
