GAS LISTING /tmp/cc79wf7w.s 			page 1


   1              		.file	"EApiAPI.cpp"
   2              		.text
   3              	.Ltext0:
   4              		.hidden	Initialized
   5              		.globl	Initialized
   6              		.bss
   7              		.align 4
  10              	Initialized:
  11 0000 00000000 		.zero	4
  12              		.section	.rodata
  13              	.LC0:
  14 0000 25730A00 		.string	"%s\n"
  15              	.LC1:
  16 0004 45417069 		.string	"EApiI2CGetBusCap"
  16      49324347 
  16      65744275 
  16      73436170 
  16      00
  17 0015 000000   		.align 8
  18              	.LC2:
  19 0018 2F686F6D 		.string	"/home/hkh/git/eapidk-code-r76-trunk/lib/linux/../EApiAPI.cpp"
  19      652F686B 
  19      682F6769 
  19      742F6561 
  19      7069646B 
  20              	.LC3:
  21 0055 4C696272 		.string	"Library Uninitialized"
  21      61727920 
  21      556E696E 
  21      69746961 
  21      6C697A65 
  22              	.LC4:
  23 006b 28704D61 		.string	"(pMaxBlkLen==NULL)"
  23      78426C6B 
  23      4C656E3D 
  23      3D4E554C 
  23      4C2900
  24              		.text
  25              		.globl	EApiI2CGetBusCap
  27              	EApiI2CGetBusCap:
  28              	.LFB6:
  29              		.file 1 "/home/hkh/git/eapidk-code-r76-trunk/lib/linux/../EApiAPI.cpp"
   1:/home/hkh/git/eapidk-code-r76-trunk/lib/linux/../EApiAPI.cpp **** /*
   2:/home/hkh/git/eapidk-code-r76-trunk/lib/linux/../EApiAPI.cpp ****  *<KHeader>
   3:/home/hkh/git/eapidk-code-r76-trunk/lib/linux/../EApiAPI.cpp ****  *+=========================================================================
   4:/home/hkh/git/eapidk-code-r76-trunk/lib/linux/../EApiAPI.cpp ****  *I  Project Name: EApiDK Embedded Application Development Kit
   5:/home/hkh/git/eapidk-code-r76-trunk/lib/linux/../EApiAPI.cpp ****  *+=========================================================================
   6:/home/hkh/git/eapidk-code-r76-trunk/lib/linux/../EApiAPI.cpp ****  *I  $HeadURL: file:///svn/p/eapidk/code/trunk/lib/EApiAPI.cpp $
   7:/home/hkh/git/eapidk-code-r76-trunk/lib/linux/../EApiAPI.cpp ****  *+=========================================================================
   8:/home/hkh/git/eapidk-code-r76-trunk/lib/linux/../EApiAPI.cpp ****  *I   Copyright: Copyright (c) 2002-2009, Kontron Embedded Modules GmbH
   9:/home/hkh/git/eapidk-code-r76-trunk/lib/linux/../EApiAPI.cpp ****  *I      Author: John Kearney,                  John.Kearney@kontron.com
  10:/home/hkh/git/eapidk-code-r76-trunk/lib/linux/../EApiAPI.cpp ****  *I
  11:/home/hkh/git/eapidk-code-r76-trunk/lib/linux/../EApiAPI.cpp ****  *I     License: All rights reserved. This program and the accompanying 
  12:/home/hkh/git/eapidk-code-r76-trunk/lib/linux/../EApiAPI.cpp ****  *I              materials are licensed and made available under the 
  13:/home/hkh/git/eapidk-code-r76-trunk/lib/linux/../EApiAPI.cpp ****  *I              terms and conditions of the BSD License which 
  14:/home/hkh/git/eapidk-code-r76-trunk/lib/linux/../EApiAPI.cpp ****  *I              accompanies this distribution. The full text of the 
  15:/home/hkh/git/eapidk-code-r76-trunk/lib/linux/../EApiAPI.cpp ****  *I              license may be found at 
GAS LISTING /tmp/cc79wf7w.s 			page 2


  16:/home/hkh/git/eapidk-code-r76-trunk/lib/linux/../EApiAPI.cpp ****  *I              http://opensource.org/licenses/bsd-license.php
  17:/home/hkh/git/eapidk-code-r76-trunk/lib/linux/../EApiAPI.cpp ****  *I              
  18:/home/hkh/git/eapidk-code-r76-trunk/lib/linux/../EApiAPI.cpp ****  *I              THE PROGRAM IS DISTRIBUTED UNDER THE BSD LICENSE ON AN "
  19:/home/hkh/git/eapidk-code-r76-trunk/lib/linux/../EApiAPI.cpp ****  *I              AS IS" BASIS, WITHOUT WARRANTIES OR REPRESENTATIONS OF 
  20:/home/hkh/git/eapidk-code-r76-trunk/lib/linux/../EApiAPI.cpp ****  *I              ANY KIND, EITHER EXPRESS OR IMPLIED.
  21:/home/hkh/git/eapidk-code-r76-trunk/lib/linux/../EApiAPI.cpp ****  *I
  22:/home/hkh/git/eapidk-code-r76-trunk/lib/linux/../EApiAPI.cpp ****  *I Description: Auto Created for EApiAPI.cpp
  23:/home/hkh/git/eapidk-code-r76-trunk/lib/linux/../EApiAPI.cpp ****  *I
  24:/home/hkh/git/eapidk-code-r76-trunk/lib/linux/../EApiAPI.cpp ****  *+-------------------------------------------------------------------------
  25:/home/hkh/git/eapidk-code-r76-trunk/lib/linux/../EApiAPI.cpp ****  *I
  26:/home/hkh/git/eapidk-code-r76-trunk/lib/linux/../EApiAPI.cpp ****  *I  File Name            : EApiAPI.cpp
  27:/home/hkh/git/eapidk-code-r76-trunk/lib/linux/../EApiAPI.cpp ****  *I  File Location        : lib
  28:/home/hkh/git/eapidk-code-r76-trunk/lib/linux/../EApiAPI.cpp ****  *I  Last committed       : $Revision: 74 $
  29:/home/hkh/git/eapidk-code-r76-trunk/lib/linux/../EApiAPI.cpp ****  *I  Last changed by      : $Author: dethrophes $
  30:/home/hkh/git/eapidk-code-r76-trunk/lib/linux/../EApiAPI.cpp ****  *I  Last changed date    : $Date: 2010-06-23 19:26:50 +0000 (Wed, 23 Jun 2010) $
  31:/home/hkh/git/eapidk-code-r76-trunk/lib/linux/../EApiAPI.cpp ****  *I  ID                   : $Id: EApiAPI.cpp 74 2010-06-23 19:26:50Z dethrophes $
  32:/home/hkh/git/eapidk-code-r76-trunk/lib/linux/../EApiAPI.cpp ****  *I
  33:/home/hkh/git/eapidk-code-r76-trunk/lib/linux/../EApiAPI.cpp ****  *+=========================================================================
  34:/home/hkh/git/eapidk-code-r76-trunk/lib/linux/../EApiAPI.cpp ****  *</KHeader>
  35:/home/hkh/git/eapidk-code-r76-trunk/lib/linux/../EApiAPI.cpp ****  */
  36:/home/hkh/git/eapidk-code-r76-trunk/lib/linux/../EApiAPI.cpp **** 
  37:/home/hkh/git/eapidk-code-r76-trunk/lib/linux/../EApiAPI.cpp **** #include <EApiLib.h>
  38:/home/hkh/git/eapidk-code-r76-trunk/lib/linux/../EApiAPI.cpp **** 
  39:/home/hkh/git/eapidk-code-r76-trunk/lib/linux/../EApiAPI.cpp **** 
  40:/home/hkh/git/eapidk-code-r76-trunk/lib/linux/../EApiAPI.cpp **** int Initialized=0;
  41:/home/hkh/git/eapidk-code-r76-trunk/lib/linux/../EApiAPI.cpp **** #define EAPI_CHECK_NOT_INITIALIZED(FuncName) \
  42:/home/hkh/git/eapidk-code-r76-trunk/lib/linux/../EApiAPI.cpp ****   EAPI_LIB_RETURN_ERROR_IF(\
  43:/home/hkh/git/eapidk-code-r76-trunk/lib/linux/../EApiAPI.cpp ****       FuncName, \
  44:/home/hkh/git/eapidk-code-r76-trunk/lib/linux/../EApiAPI.cpp ****       Initialized==1, \
  45:/home/hkh/git/eapidk-code-r76-trunk/lib/linux/../EApiAPI.cpp ****       EAPI_STATUS_NOT_INITIALIZED, \
  46:/home/hkh/git/eapidk-code-r76-trunk/lib/linux/../EApiAPI.cpp ****       "Library Already Initialized" \
  47:/home/hkh/git/eapidk-code-r76-trunk/lib/linux/../EApiAPI.cpp ****       )
  48:/home/hkh/git/eapidk-code-r76-trunk/lib/linux/../EApiAPI.cpp **** 
  49:/home/hkh/git/eapidk-code-r76-trunk/lib/linux/../EApiAPI.cpp **** #define EAPI_CHECK_INITIALIZED(FuncName) \
  50:/home/hkh/git/eapidk-code-r76-trunk/lib/linux/../EApiAPI.cpp ****   EAPI_LIB_RETURN_ERROR_IF(FuncName, \
  51:/home/hkh/git/eapidk-code-r76-trunk/lib/linux/../EApiAPI.cpp ****       Initialized==0, \
  52:/home/hkh/git/eapidk-code-r76-trunk/lib/linux/../EApiAPI.cpp ****       EAPI_STATUS_NOT_INITIALIZED, \
  53:/home/hkh/git/eapidk-code-r76-trunk/lib/linux/../EApiAPI.cpp ****       "Library Uninitialized" \
  54:/home/hkh/git/eapidk-code-r76-trunk/lib/linux/../EApiAPI.cpp ****       )
  55:/home/hkh/git/eapidk-code-r76-trunk/lib/linux/../EApiAPI.cpp **** 
  56:/home/hkh/git/eapidk-code-r76-trunk/lib/linux/../EApiAPI.cpp **** /*
  57:/home/hkh/git/eapidk-code-r76-trunk/lib/linux/../EApiAPI.cpp ****  *
  58:/home/hkh/git/eapidk-code-r76-trunk/lib/linux/../EApiAPI.cpp ****  *  
  59:/home/hkh/git/eapidk-code-r76-trunk/lib/linux/../EApiAPI.cpp ****  *
  60:/home/hkh/git/eapidk-code-r76-trunk/lib/linux/../EApiAPI.cpp ****  *      I2C
  61:/home/hkh/git/eapidk-code-r76-trunk/lib/linux/../EApiAPI.cpp ****  *
  62:/home/hkh/git/eapidk-code-r76-trunk/lib/linux/../EApiAPI.cpp ****  *
  63:/home/hkh/git/eapidk-code-r76-trunk/lib/linux/../EApiAPI.cpp ****  *
  64:/home/hkh/git/eapidk-code-r76-trunk/lib/linux/../EApiAPI.cpp ****  */
  65:/home/hkh/git/eapidk-code-r76-trunk/lib/linux/../EApiAPI.cpp **** uint32_t 
  66:/home/hkh/git/eapidk-code-r76-trunk/lib/linux/../EApiAPI.cpp **** EAPI_CALLTYPE
  67:/home/hkh/git/eapidk-code-r76-trunk/lib/linux/../EApiAPI.cpp **** EApiI2CGetBusCap(
  68:/home/hkh/git/eapidk-code-r76-trunk/lib/linux/../EApiAPI.cpp ****     __IN  EApiId_t  Id         , /* I2C Bus Id */
  69:/home/hkh/git/eapidk-code-r76-trunk/lib/linux/../EApiAPI.cpp ****     __OUT uint32_t *pMaxBlkLen   /* Max Block Length 
  70:/home/hkh/git/eapidk-code-r76-trunk/lib/linux/../EApiAPI.cpp ****                                   * Supported on this
  71:/home/hkh/git/eapidk-code-r76-trunk/lib/linux/../EApiAPI.cpp ****                                   * interface 
  72:/home/hkh/git/eapidk-code-r76-trunk/lib/linux/../EApiAPI.cpp ****                                   */
GAS LISTING /tmp/cc79wf7w.s 			page 3


  73:/home/hkh/git/eapidk-code-r76-trunk/lib/linux/../EApiAPI.cpp ****     )
  74:/home/hkh/git/eapidk-code-r76-trunk/lib/linux/../EApiAPI.cpp **** {
  30              		.loc 1 74 1
  31              		.cfi_startproc
  32 0000 F30F1EFA 		endbr64
  33 0004 55       		pushq	%rbp
  34              		.cfi_def_cfa_offset 16
  35              		.cfi_offset 6, -16
  36 0005 4889E5   		movq	%rsp, %rbp
  37              		.cfi_def_cfa_register 6
  38 0008 4883EC20 		subq	$32, %rsp
  39 000c 897DEC   		movl	%edi, -20(%rbp)
  40 000f 488975E0 		movq	%rsi, -32(%rbp)
  75:/home/hkh/git/eapidk-code-r76-trunk/lib/linux/../EApiAPI.cpp ****   EApiStatus_t StatusCode;
  76:/home/hkh/git/eapidk-code-r76-trunk/lib/linux/../EApiAPI.cpp ****   EAPI_CHECK_INITIALIZED(EApiI2CGetBusCap);
  41              		.loc 1 76 3
  42 0013 8B050000 		movl	Initialized(%rip), %eax
  42      0000
  43 0019 85C0     		testl	%eax, %eax
  44 001b 7548     		jne	.L2
  45              		.loc 1 76 3 is_stmt 0 discriminator 1
  46 001d 4883EC08 		subq	$8, %rsp
  47 0021 488D0500 		leaq	.LC3(%rip), %rax
  47      000000
  48 0028 50       		pushq	%rax
  49 0029 4C8D0D00 		leaq	.LC0(%rip), %r9
  49      000000
  50 0030 41B8FFFF 		movl	$-1, %r8d
  50      FFFF
  51 0036 B94C0000 		movl	$76, %ecx
  51      00
  52 003b 488D1500 		leaq	.LC1(%rip), %rdx
  52      000000
  53 0042 488D3500 		leaq	.LC2(%rip), %rsi
  53      000000
  54 0049 BF450000 		movl	$69, %edi
  54      00
  55 004e B8000000 		movl	$0, %eax
  55      00
  56 0053 E8000000 		call	siFormattedMessage_SC@PLT
  56      00
  57 0058 4883C410 		addq	$16, %rsp
  58 005c C745FCFF 		movl	$-1, -4(%rbp)
  58      FFFFFF
  59 0063 EB63     		jmp	.L3
  60              	.L2:
  77:/home/hkh/git/eapidk-code-r76-trunk/lib/linux/../EApiAPI.cpp ****   EAPI_LIB_ASSERT_PARAMATER_NULL(EApiI2CGetBusCap, pMaxBlkLen);
  61              		.loc 1 77 3 is_stmt 1
  62 0065 48837DE0 		cmpq	$0, -32(%rbp)
  62      00
  63 006a 7548     		jne	.L4
  64              		.loc 1 77 3 is_stmt 0 discriminator 1
  65 006c 4883EC08 		subq	$8, %rsp
  66 0070 488D0500 		leaq	.LC4(%rip), %rax
  66      000000
  67 0077 50       		pushq	%rax
  68 0078 4C8D0D00 		leaq	.LC0(%rip), %r9
GAS LISTING /tmp/cc79wf7w.s 			page 4


  68      000000
  69 007f 41B8FFFE 		movl	$-257, %r8d
  69      FFFF
  70 0085 B94D0000 		movl	$77, %ecx
  70      00
  71 008a 488D1500 		leaq	.LC1(%rip), %rdx
  71      000000
  72 0091 488D3500 		leaq	.LC2(%rip), %rsi
  72      000000
  73 0098 BF450000 		movl	$69, %edi
  73      00
  74 009d B8000000 		movl	$0, %eax
  74      00
  75 00a2 E8000000 		call	siFormattedMessage_SC@PLT
  75      00
  76 00a7 4883C410 		addq	$16, %rsp
  77 00ab C745FCFF 		movl	$-257, -4(%rbp)
  77      FEFFFF
  78 00b2 EB14     		jmp	.L3
  79              	.L4:
  78:/home/hkh/git/eapidk-code-r76-trunk/lib/linux/../EApiAPI.cpp **** 
  79:/home/hkh/git/eapidk-code-r76-trunk/lib/linux/../EApiAPI.cpp ****   StatusCode=EApiI2CGetBusCapEmul(Id, pMaxBlkLen);
  80              		.loc 1 79 14 is_stmt 1
  81 00b4 488B55E0 		movq	-32(%rbp), %rdx
  82 00b8 8B45EC   		movl	-20(%rbp), %eax
  83 00bb 4889D6   		movq	%rdx, %rsi
  84 00be 89C7     		movl	%eax, %edi
  85 00c0 E8000000 		call	EApiI2CGetBusCapEmul@PLT
  85      00
  86 00c5 8945FC   		movl	%eax, -4(%rbp)
  87              	.L3:
  80:/home/hkh/git/eapidk-code-r76-trunk/lib/linux/../EApiAPI.cpp **** EAPI_LIB_ASSERT_EXIT
  81:/home/hkh/git/eapidk-code-r76-trunk/lib/linux/../EApiAPI.cpp ****   return StatusCode;
  88              		.loc 1 81 10
  89 00c8 8B45FC   		movl	-4(%rbp), %eax
  82:/home/hkh/git/eapidk-code-r76-trunk/lib/linux/../EApiAPI.cpp **** }
  90              		.loc 1 82 1
  91 00cb C9       		leave
  92              		.cfi_def_cfa 7, 8
  93 00cc C3       		ret
  94              		.cfi_endproc
  95              	.LFE6:
  97              		.section	.rodata
  98              	.LC5:
  99 007e 45417069 		.string	"EApiI2CWriteReadRaw"
  99      49324357 
  99      72697465 
  99      52656164 
  99      52617700 
 100              	.LC6:
 101 0092 70574275 		.string	"pWBuffer is NULL"
 101      66666572 
 101      20697320 
 101      4E554C4C 
 101      00
 102 00a3 00000000 		.align 8
 102      00
GAS LISTING /tmp/cc79wf7w.s 			page 5


 103              	.LC7:
 104 00a8 41444452 		.string	"ADDR=%02X WriteBCnt=%04X RBufLen=%04X WriteBCnt=%04X ReadBCnt=%04X %08X\n"
 104      3D253032 
 104      58205772 
 104      69746542 
 104      436E743D 
 105              	.LC8:
 106 00f1 496E666F 		.string	"Info"
 106      00
 107              	.LC9:
 108 00f6 45417069 		.string	"EApiI2CWriteTransfer"
 108      49324357 
 108      72697465 
 108      5472616E 
 108      73666572 
 109              	.LC10:
 110 010b 70524275 		.string	"pRBuffer is NULL"
 110      66666572 
 110      20697320 
 110      4E554C4C 
 110      00
 111              	.LC11:
 112 011c 52427566 		.string	"RBufLen is ZERO"
 112      4C656E20 
 112      6973205A 
 112      45524F00 
 113              	.LC12:
 114 012c 4E4F2052 		.string	"NO READ NO WRITE"
 114      45414420 
 114      4E4F2057 
 114      52495445 
 114      00
 115 013d 000000   		.align 8
 116              	.LC13:
 117 0140 20704275 		.string	" pBuffer Overflow PreventedReadBCnt>RBufLen+1"
 117      66666572 
 117      204F7665 
 117      72666C6F 
 117      77205072 
 118              		.text
 119              		.globl	EApiI2CWriteReadRaw
 121              	EApiI2CWriteReadRaw:
 122              	.LFB7:
  83:/home/hkh/git/eapidk-code-r76-trunk/lib/linux/../EApiAPI.cpp **** 
  84:/home/hkh/git/eapidk-code-r76-trunk/lib/linux/../EApiAPI.cpp **** EApiStatus_t 
  85:/home/hkh/git/eapidk-code-r76-trunk/lib/linux/../EApiAPI.cpp **** EAPI_CALLTYPE 
  86:/home/hkh/git/eapidk-code-r76-trunk/lib/linux/../EApiAPI.cpp **** EApiI2CWriteReadRaw(
  87:/home/hkh/git/eapidk-code-r76-trunk/lib/linux/../EApiAPI.cpp ****     __IN     EApiId_t  Id       , /* I2C Bus Id */
  88:/home/hkh/git/eapidk-code-r76-trunk/lib/linux/../EApiAPI.cpp ****     __IN     uint8_t   Addr     , /* Encoded 7Bit I2C
  89:/home/hkh/git/eapidk-code-r76-trunk/lib/linux/../EApiAPI.cpp ****                                    * Device Address 
  90:/home/hkh/git/eapidk-code-r76-trunk/lib/linux/../EApiAPI.cpp ****                                    */
  91:/home/hkh/git/eapidk-code-r76-trunk/lib/linux/../EApiAPI.cpp ****     __INOPT  void     *pWBuffer , /* Write Data pBuffer */
  92:/home/hkh/git/eapidk-code-r76-trunk/lib/linux/../EApiAPI.cpp ****     __IN     uint32_t  WriteBCnt, /* Number of Bytes to 
  93:/home/hkh/git/eapidk-code-r76-trunk/lib/linux/../EApiAPI.cpp ****                                    * write 
  94:/home/hkh/git/eapidk-code-r76-trunk/lib/linux/../EApiAPI.cpp ****                                    */
  95:/home/hkh/git/eapidk-code-r76-trunk/lib/linux/../EApiAPI.cpp ****     __OUTOPT void     *pRBuffer , /* Read Data pBuffer */
  96:/home/hkh/git/eapidk-code-r76-trunk/lib/linux/../EApiAPI.cpp ****     __IN     uint32_t  RBufLen  , /* Data pBuffer Length */
GAS LISTING /tmp/cc79wf7w.s 			page 6


  97:/home/hkh/git/eapidk-code-r76-trunk/lib/linux/../EApiAPI.cpp ****     __IN     uint32_t  ReadBCnt   /* Number of Bytes to 
  98:/home/hkh/git/eapidk-code-r76-trunk/lib/linux/../EApiAPI.cpp ****                                    * Read 
  99:/home/hkh/git/eapidk-code-r76-trunk/lib/linux/../EApiAPI.cpp ****                                    */
 100:/home/hkh/git/eapidk-code-r76-trunk/lib/linux/../EApiAPI.cpp ****     )
 101:/home/hkh/git/eapidk-code-r76-trunk/lib/linux/../EApiAPI.cpp **** {
 123              		.loc 1 101 1
 124              		.cfi_startproc
 125 00cd F30F1EFA 		endbr64
 126 00d1 55       		pushq	%rbp
 127              		.cfi_def_cfa_offset 16
 128              		.cfi_offset 6, -16
 129 00d2 4889E5   		movq	%rsp, %rbp
 130              		.cfi_def_cfa_register 6
 131 00d5 4883EC30 		subq	$48, %rsp
 132 00d9 897DEC   		movl	%edi, -20(%rbp)
 133 00dc 89F0     		movl	%esi, %eax
 134 00de 488955E0 		movq	%rdx, -32(%rbp)
 135 00e2 894DDC   		movl	%ecx, -36(%rbp)
 136 00e5 4C8945D0 		movq	%r8, -48(%rbp)
 137 00e9 44894DD8 		movl	%r9d, -40(%rbp)
 138 00ed 8845E8   		movb	%al, -24(%rbp)
 102:/home/hkh/git/eapidk-code-r76-trunk/lib/linux/../EApiAPI.cpp ****   EApiStatus_t StatusCode=EAPI_STATUS_SUCCESS;
 139              		.loc 1 102 16
 140 00f0 C745F800 		movl	$0, -8(%rbp)
 140      000000
 103:/home/hkh/git/eapidk-code-r76-trunk/lib/linux/../EApiAPI.cpp ****   EApiStatus_t ErrorCode2;
 104:/home/hkh/git/eapidk-code-r76-trunk/lib/linux/../EApiAPI.cpp ****   EAPI_CHECK_INITIALIZED(EApiI2CWriteReadRaw);
 141              		.loc 1 104 3
 142 00f7 8B050000 		movl	Initialized(%rip), %eax
 142      0000
 143 00fd 85C0     		testl	%eax, %eax
 144 00ff 754B     		jne	.L7
 145              		.loc 1 104 3 is_stmt 0 discriminator 1
 146 0101 4883EC08 		subq	$8, %rsp
 147 0105 488D0500 		leaq	.LC3(%rip), %rax
 147      000000
 148 010c 50       		pushq	%rax
 149 010d 4C8D0D00 		leaq	.LC0(%rip), %r9
 149      000000
 150 0114 41B8FFFF 		movl	$-1, %r8d
 150      FFFF
 151 011a B9680000 		movl	$104, %ecx
 151      00
 152 011f 488D1500 		leaq	.LC5(%rip), %rdx
 152      000000
 153 0126 488D3500 		leaq	.LC2(%rip), %rsi
 153      000000
 154 012d BF450000 		movl	$69, %edi
 154      00
 155 0132 B8000000 		movl	$0, %eax
 155      00
 156 0137 E8000000 		call	siFormattedMessage_SC@PLT
 156      00
 157 013c 4883C410 		addq	$16, %rsp
 158 0140 C745F8FF 		movl	$-1, -8(%rbp)
 158      FFFFFF
 159 0147 E9470200 		jmp	.L8
GAS LISTING /tmp/cc79wf7w.s 			page 7


 159      00
 160              	.L7:
 105:/home/hkh/git/eapidk-code-r76-trunk/lib/linux/../EApiAPI.cpp ****   EAPI_LIB_ASSERT_PARAMATER_CHECK(
 161              		.loc 1 105 3 is_stmt 1
 162 014c 837DDC01 		cmpl	$1, -36(%rbp)
 163 0150 7652     		jbe	.L9
 164              		.loc 1 105 3 is_stmt 0 discriminator 1
 165 0152 48837DE0 		cmpq	$0, -32(%rbp)
 165      00
 166 0157 754B     		jne	.L9
 167              		.loc 1 105 3 discriminator 2
 168 0159 4883EC08 		subq	$8, %rsp
 169 015d 488D0500 		leaq	.LC6(%rip), %rax
 169      000000
 170 0164 50       		pushq	%rax
 171 0165 4C8D0D00 		leaq	.LC0(%rip), %r9
 171      000000
 172 016c 41B8FFFE 		movl	$-257, %r8d
 172      FFFF
 173 0172 B9690000 		movl	$105, %ecx
 173      00
 174 0177 488D1500 		leaq	.LC5(%rip), %rdx
 174      000000
 175 017e 488D3500 		leaq	.LC2(%rip), %rsi
 175      000000
 176 0185 BF450000 		movl	$69, %edi
 176      00
 177 018a B8000000 		movl	$0, %eax
 177      00
 178 018f E8000000 		call	siFormattedMessage_SC@PLT
 178      00
 179 0194 4883C410 		addq	$16, %rsp
 180 0198 C745F8FF 		movl	$-257, -8(%rbp)
 180      FEFFFF
 181 019f E9EF0100 		jmp	.L8
 181      00
 182              	.L9:
 106:/home/hkh/git/eapidk-code-r76-trunk/lib/linux/../EApiAPI.cpp ****       EApiI2CWriteReadRaw, 
 107:/home/hkh/git/eapidk-code-r76-trunk/lib/linux/../EApiAPI.cpp ****       (WriteBCnt>1)&&(pWBuffer==NULL), 
 108:/home/hkh/git/eapidk-code-r76-trunk/lib/linux/../EApiAPI.cpp ****       "pWBuffer is NULL"          
 109:/home/hkh/git/eapidk-code-r76-trunk/lib/linux/../EApiAPI.cpp ****       );
 110:/home/hkh/git/eapidk-code-r76-trunk/lib/linux/../EApiAPI.cpp **** #if (STRICT_VALIDATION>1)
 111:/home/hkh/git/eapidk-code-r76-trunk/lib/linux/../EApiAPI.cpp ****   siFormattedMessage_M2(
 183              		.loc 1 111 3 is_stmt 1
 184 01a4 837DDC00 		cmpl	$0, -36(%rbp)
 185 01a8 7408     		je	.L10
 186              		.loc 1 111 3 is_stmt 0 discriminator 1
 187 01aa 488B45E0 		movq	-32(%rbp), %rax
 188 01ae 8B00     		movl	(%rax), %eax
 189 01b0 EB05     		jmp	.L11
 190              	.L10:
 191              		.loc 1 111 3 discriminator 2
 192 01b2 B8000000 		movl	$0, %eax
 192      00
 193              	.L11:
 194              		.loc 1 111 3 discriminator 4
 195 01b7 0FB655E8 		movzbl	-24(%rbp), %edx
GAS LISTING /tmp/cc79wf7w.s 			page 8


 196 01bb 50       		pushq	%rax
 197 01bc 8B4510   		movl	16(%rbp), %eax
 198 01bf 50       		pushq	%rax
 199 01c0 8B45DC   		movl	-36(%rbp), %eax
 200 01c3 50       		pushq	%rax
 201 01c4 8B45D8   		movl	-40(%rbp), %eax
 202 01c7 50       		pushq	%rax
 203 01c8 8B45DC   		movl	-36(%rbp), %eax
 204 01cb 50       		pushq	%rax
 205 01cc 52       		pushq	%rdx
 206 01cd 4C8D0D00 		leaq	.LC7(%rip), %r9
 206      000000
 207 01d4 4C8D0500 		leaq	.LC8(%rip), %r8
 207      000000
 208 01db B9730000 		movl	$115, %ecx
 208      00
 209 01e0 488D1500 		leaq	.LC9(%rip), %rdx
 209      000000
 210 01e7 488D3500 		leaq	.LC2(%rip), %rsi
 210      000000
 211 01ee BF4C0000 		movl	$76, %edi
 211      00
 212 01f3 B8000000 		movl	$0, %eax
 212      00
 213 01f8 E8000000 		call	siFormattedMessage_M2@PLT
 213      00
 214 01fd 4883C430 		addq	$48, %rsp
 112:/home/hkh/git/eapidk-code-r76-trunk/lib/linux/../EApiAPI.cpp ****           'L'                   ,
 113:/home/hkh/git/eapidk-code-r76-trunk/lib/linux/../EApiAPI.cpp ****           __FILE__              ,
 114:/home/hkh/git/eapidk-code-r76-trunk/lib/linux/../EApiAPI.cpp ****           "EApiI2CWriteTransfer",
 115:/home/hkh/git/eapidk-code-r76-trunk/lib/linux/../EApiAPI.cpp ****           __LINE__              ,
 116:/home/hkh/git/eapidk-code-r76-trunk/lib/linux/../EApiAPI.cpp ****           "Info"                ,
 117:/home/hkh/git/eapidk-code-r76-trunk/lib/linux/../EApiAPI.cpp ****           "ADDR=%02"PRIX8" WriteBCnt=%04"PRIX32
 118:/home/hkh/git/eapidk-code-r76-trunk/lib/linux/../EApiAPI.cpp ****           " RBufLen=%04"PRIX32" WriteBCnt=%04"PRIX32
 119:/home/hkh/git/eapidk-code-r76-trunk/lib/linux/../EApiAPI.cpp ****           " ReadBCnt=%04"PRIX32" %08"PRIX32"\n", 
 120:/home/hkh/git/eapidk-code-r76-trunk/lib/linux/../EApiAPI.cpp ****           Addr, WriteBCnt, RBufLen, WriteBCnt, ReadBCnt, 
 121:/home/hkh/git/eapidk-code-r76-trunk/lib/linux/../EApiAPI.cpp ****           (WriteBCnt?((uint32_t*)pWBuffer)[0]:0)
 122:/home/hkh/git/eapidk-code-r76-trunk/lib/linux/../EApiAPI.cpp ****       );
 123:/home/hkh/git/eapidk-code-r76-trunk/lib/linux/../EApiAPI.cpp **** #endif
 124:/home/hkh/git/eapidk-code-r76-trunk/lib/linux/../EApiAPI.cpp ****   EAPI_LIB_ASSERT_PARAMATER_CHECK(
 215              		.loc 1 124 3 is_stmt 1 discriminator 4
 216 0201 837D1001 		cmpl	$1, 16(%rbp)
 217 0205 7652     		jbe	.L12
 218              		.loc 1 124 3 is_stmt 0 discriminator 1
 219 0207 48837DD0 		cmpq	$0, -48(%rbp)
 219      00
 220 020c 754B     		jne	.L12
 221              		.loc 1 124 3 discriminator 2
 222 020e 4883EC08 		subq	$8, %rsp
 223 0212 488D0500 		leaq	.LC10(%rip), %rax
 223      000000
 224 0219 50       		pushq	%rax
 225 021a 4C8D0D00 		leaq	.LC0(%rip), %r9
 225      000000
 226 0221 41B8FFFE 		movl	$-257, %r8d
 226      FFFF
 227 0227 B97C0000 		movl	$124, %ecx
GAS LISTING /tmp/cc79wf7w.s 			page 9


 227      00
 228 022c 488D1500 		leaq	.LC5(%rip), %rdx
 228      000000
 229 0233 488D3500 		leaq	.LC2(%rip), %rsi
 229      000000
 230 023a BF450000 		movl	$69, %edi
 230      00
 231 023f B8000000 		movl	$0, %eax
 231      00
 232 0244 E8000000 		call	siFormattedMessage_SC@PLT
 232      00
 233 0249 4883C410 		addq	$16, %rsp
 234 024d C745F8FF 		movl	$-257, -8(%rbp)
 234      FEFFFF
 235 0254 E93A0100 		jmp	.L8
 235      00
 236              	.L12:
 125:/home/hkh/git/eapidk-code-r76-trunk/lib/linux/../EApiAPI.cpp ****       EApiI2CWriteReadRaw, 
 126:/home/hkh/git/eapidk-code-r76-trunk/lib/linux/../EApiAPI.cpp ****       (ReadBCnt>1)&&(pRBuffer==NULL) , 
 127:/home/hkh/git/eapidk-code-r76-trunk/lib/linux/../EApiAPI.cpp ****       "pRBuffer is NULL"          
 128:/home/hkh/git/eapidk-code-r76-trunk/lib/linux/../EApiAPI.cpp ****       );
 129:/home/hkh/git/eapidk-code-r76-trunk/lib/linux/../EApiAPI.cpp ****   EAPI_LIB_ASSERT_PARAMATER_CHECK(
 237              		.loc 1 129 3 is_stmt 1
 238 0259 837D1001 		cmpl	$1, 16(%rbp)
 239 025d 7651     		jbe	.L13
 240              		.loc 1 129 3 is_stmt 0 discriminator 1
 241 025f 837DD800 		cmpl	$0, -40(%rbp)
 242 0263 754B     		jne	.L13
 243              		.loc 1 129 3 discriminator 2
 244 0265 4883EC08 		subq	$8, %rsp
 245 0269 488D0500 		leaq	.LC11(%rip), %rax
 245      000000
 246 0270 50       		pushq	%rax
 247 0271 4C8D0D00 		leaq	.LC0(%rip), %r9
 247      000000
 248 0278 41B8FFFE 		movl	$-257, %r8d
 248      FFFF
 249 027e B9810000 		movl	$129, %ecx
 249      00
 250 0283 488D1500 		leaq	.LC5(%rip), %rdx
 250      000000
 251 028a 488D3500 		leaq	.LC2(%rip), %rsi
 251      000000
 252 0291 BF450000 		movl	$69, %edi
 252      00
 253 0296 B8000000 		movl	$0, %eax
 253      00
 254 029b E8000000 		call	siFormattedMessage_SC@PLT
 254      00
 255 02a0 4883C410 		addq	$16, %rsp
 256 02a4 C745F8FF 		movl	$-257, -8(%rbp)
 256      FEFFFF
 257 02ab E9E30000 		jmp	.L8
 257      00
 258              	.L13:
 130:/home/hkh/git/eapidk-code-r76-trunk/lib/linux/../EApiAPI.cpp ****       EApiI2CWriteReadRaw, 
 131:/home/hkh/git/eapidk-code-r76-trunk/lib/linux/../EApiAPI.cpp ****       (ReadBCnt>1)&&(RBufLen==0) , 
GAS LISTING /tmp/cc79wf7w.s 			page 10


 132:/home/hkh/git/eapidk-code-r76-trunk/lib/linux/../EApiAPI.cpp ****       "RBufLen is ZERO"          
 133:/home/hkh/git/eapidk-code-r76-trunk/lib/linux/../EApiAPI.cpp ****       );
 134:/home/hkh/git/eapidk-code-r76-trunk/lib/linux/../EApiAPI.cpp ****   EAPI_LIB_ASSERT_PARAMATER_CHECK(
 259              		.loc 1 134 3 is_stmt 1
 260 02b0 837DDC00 		cmpl	$0, -36(%rbp)
 261 02b4 7551     		jne	.L14
 262              		.loc 1 134 3 is_stmt 0 discriminator 1
 263 02b6 837D1000 		cmpl	$0, 16(%rbp)
 264 02ba 754B     		jne	.L14
 265              		.loc 1 134 3 discriminator 2
 266 02bc 4883EC08 		subq	$8, %rsp
 267 02c0 488D0500 		leaq	.LC12(%rip), %rax
 267      000000
 268 02c7 50       		pushq	%rax
 269 02c8 4C8D0D00 		leaq	.LC0(%rip), %r9
 269      000000
 270 02cf 41B8FFFE 		movl	$-257, %r8d
 270      FFFF
 271 02d5 B9860000 		movl	$134, %ecx
 271      00
 272 02da 488D1500 		leaq	.LC5(%rip), %rdx
 272      000000
 273 02e1 488D3500 		leaq	.LC2(%rip), %rsi
 273      000000
 274 02e8 BF450000 		movl	$69, %edi
 274      00
 275 02ed B8000000 		movl	$0, %eax
 275      00
 276 02f2 E8000000 		call	siFormattedMessage_SC@PLT
 276      00
 277 02f7 4883C410 		addq	$16, %rsp
 278 02fb C745F8FF 		movl	$-257, -8(%rbp)
 278      FEFFFF
 279 0302 E98C0000 		jmp	.L8
 279      00
 280              	.L14:
 135:/home/hkh/git/eapidk-code-r76-trunk/lib/linux/../EApiAPI.cpp ****       EApiI2CWriteReadRaw, 
 136:/home/hkh/git/eapidk-code-r76-trunk/lib/linux/../EApiAPI.cpp ****       ((WriteBCnt==0)&&(ReadBCnt==0)), 
 137:/home/hkh/git/eapidk-code-r76-trunk/lib/linux/../EApiAPI.cpp ****       "NO READ NO WRITE"
 138:/home/hkh/git/eapidk-code-r76-trunk/lib/linux/../EApiAPI.cpp ****       );
 139:/home/hkh/git/eapidk-code-r76-trunk/lib/linux/../EApiAPI.cpp **** 
 140:/home/hkh/git/eapidk-code-r76-trunk/lib/linux/../EApiAPI.cpp ****   EAPI_LIB_PREVENT_BUF_OVERFLOW(
 281              		.loc 1 140 3 is_stmt 1
 282 0307 8B45D8   		movl	-40(%rbp), %eax
 283 030a 83C001   		addl	$1, %eax
 284 030d 394510   		cmpl	%eax, 16(%rbp)
 285 0310 764F     		jbe	.L15
 286              		.loc 1 140 3 is_stmt 0 discriminator 1
 287 0312 4883EC08 		subq	$8, %rsp
 288 0316 488D0500 		leaq	.LC13(%rip), %rax
 288      000000
 289 031d 50       		pushq	%rax
 290 031e 4C8D0D00 		leaq	.LC0(%rip), %r9
 290      000000
 291 0325 41B8FFF9 		movl	$-1537, %r8d
 291      FFFF
 292 032b B98C0000 		movl	$140, %ecx
GAS LISTING /tmp/cc79wf7w.s 			page 11


 292      00
 293 0330 488D1500 		leaq	.LC5(%rip), %rdx
 293      000000
 294 0337 488D3500 		leaq	.LC2(%rip), %rsi
 294      000000
 295 033e BF450000 		movl	$69, %edi
 295      00
 296 0343 B8000000 		movl	$0, %eax
 296      00
 297 0348 E8000000 		call	siFormattedMessage_SC@PLT
 297      00
 298 034d 4883C410 		addq	$16, %rsp
 299 0351 8B45D8   		movl	-40(%rbp), %eax
 300 0354 83C001   		addl	$1, %eax
 301 0357 894510   		movl	%eax, 16(%rbp)
 302 035a C745F8FF 		movl	$-1537, -8(%rbp)
 302      F9FFFF
 303              	.L15:
 141:/home/hkh/git/eapidk-code-r76-trunk/lib/linux/../EApiAPI.cpp ****       EApiI2CWriteReadRaw, 
 142:/home/hkh/git/eapidk-code-r76-trunk/lib/linux/../EApiAPI.cpp ****       ReadBCnt, 
 143:/home/hkh/git/eapidk-code-r76-trunk/lib/linux/../EApiAPI.cpp ****       RBufLen+1
 144:/home/hkh/git/eapidk-code-r76-trunk/lib/linux/../EApiAPI.cpp ****       );
 145:/home/hkh/git/eapidk-code-r76-trunk/lib/linux/../EApiAPI.cpp **** 
 146:/home/hkh/git/eapidk-code-r76-trunk/lib/linux/../EApiAPI.cpp ****   ErrorCode2=EApiI2CWriteReadEmul(
 304              		.loc 1 146 14 is_stmt 1
 305 0361 0FB675E8 		movzbl	-24(%rbp), %esi
 306 0365 488B7DD0 		movq	-48(%rbp), %rdi
 307 0369 8B4DDC   		movl	-36(%rbp), %ecx
 308 036c 488B55E0 		movq	-32(%rbp), %rdx
 309 0370 8B45EC   		movl	-20(%rbp), %eax
 310 0373 448B4D10 		movl	16(%rbp), %r9d
 311 0377 4989F8   		movq	%rdi, %r8
 312 037a 89C7     		movl	%eax, %edi
 313 037c E8000000 		call	EApiI2CWriteReadEmul@PLT
 313      00
 314 0381 8945FC   		movl	%eax, -4(%rbp)
 147:/home/hkh/git/eapidk-code-r76-trunk/lib/linux/../EApiAPI.cpp ****       Id,  
 148:/home/hkh/git/eapidk-code-r76-trunk/lib/linux/../EApiAPI.cpp ****       Addr, 
 149:/home/hkh/git/eapidk-code-r76-trunk/lib/linux/../EApiAPI.cpp ****       pWBuffer, 
 150:/home/hkh/git/eapidk-code-r76-trunk/lib/linux/../EApiAPI.cpp ****       WriteBCnt, 
 151:/home/hkh/git/eapidk-code-r76-trunk/lib/linux/../EApiAPI.cpp ****       pRBuffer, 
 152:/home/hkh/git/eapidk-code-r76-trunk/lib/linux/../EApiAPI.cpp ****       ReadBCnt
 153:/home/hkh/git/eapidk-code-r76-trunk/lib/linux/../EApiAPI.cpp ****       );
 154:/home/hkh/git/eapidk-code-r76-trunk/lib/linux/../EApiAPI.cpp ****   if(ErrorCode2!=EAPI_STATUS_SUCCESS)
 315              		.loc 1 154 5
 316 0384 837DFC00 		cmpl	$0, -4(%rbp)
 317 0388 7408     		je	.L17
 155:/home/hkh/git/eapidk-code-r76-trunk/lib/linux/../EApiAPI.cpp ****     StatusCode=ErrorCode2;
 318              		.loc 1 155 15
 319 038a 8B45FC   		movl	-4(%rbp), %eax
 320 038d 8945F8   		movl	%eax, -8(%rbp)
 321 0390 EB01     		jmp	.L8
 322              	.L17:
 156:/home/hkh/git/eapidk-code-r76-trunk/lib/linux/../EApiAPI.cpp **** EAPI_LIB_ASSERT_EXIT
 323              		.loc 1 156 1
 324 0392 90       		nop
 325              	.L8:
GAS LISTING /tmp/cc79wf7w.s 			page 12


 157:/home/hkh/git/eapidk-code-r76-trunk/lib/linux/../EApiAPI.cpp ****   return StatusCode;
 326              		.loc 1 157 10
 327 0393 8B45F8   		movl	-8(%rbp), %eax
 158:/home/hkh/git/eapidk-code-r76-trunk/lib/linux/../EApiAPI.cpp **** 
 159:/home/hkh/git/eapidk-code-r76-trunk/lib/linux/../EApiAPI.cpp **** }
 328              		.loc 1 159 1
 329 0396 C9       		leave
 330              		.cfi_def_cfa 7, 8
 331 0397 C3       		ret
 332              		.cfi_endproc
 333              	.LFE7:
 335              		.section	.rodata
 336              	.LC14:
 337 016e 45417069 		.string	"EApiI2CReadTransfer"
 337      49324352 
 337      65616454 
 337      72616E73 
 337      66657200 
 338 0182 00000000 		.align 8
 338      0000
 339              	.LC15:
 340 0188 49643D25 		.string	"Id=%08X ADDR=%04X CMD=%04X BCNT=%04X\n"
 340      30385820 
 340      41444452 
 340      3D253034 
 340      5820434D 
 341              	.LC16:
 342 01ae 28704275 		.string	"(pBuffer==NULL)"
 342      66666572 
 342      3D3D4E55 
 342      4C4C2900 
 343              	.LC17:
 344 01be 28427566 		.string	"(BufLen==0)"
 344      4C656E3D 
 344      3D302900 
 345              	.LC18:
 346 01ca 28427974 		.string	"(ByteCnt==0)"
 346      65436E74 
 346      3D3D3029 
 346      00
 347 01d7 00       		.align 8
 348              	.LC19:
 349 01d8 20547261 		.string	" Transfer Length too long for interface"
 349      6E736665 
 349      72204C65 
 349      6E677468 
 349      20746F6F 
 350              		.text
 351              		.globl	EApiI2CReadTransfer
 353              	EApiI2CReadTransfer:
 354              	.LFB8:
 160:/home/hkh/git/eapidk-code-r76-trunk/lib/linux/../EApiAPI.cpp **** 
 161:/home/hkh/git/eapidk-code-r76-trunk/lib/linux/../EApiAPI.cpp **** 
 162:/home/hkh/git/eapidk-code-r76-trunk/lib/linux/../EApiAPI.cpp **** EApiStatus_t 
 163:/home/hkh/git/eapidk-code-r76-trunk/lib/linux/../EApiAPI.cpp **** EAPI_CALLTYPE 
 164:/home/hkh/git/eapidk-code-r76-trunk/lib/linux/../EApiAPI.cpp **** EApiI2CReadTransfer(
 165:/home/hkh/git/eapidk-code-r76-trunk/lib/linux/../EApiAPI.cpp ****     __IN  EApiId_t  Id      , /* I2C Bus Id */
GAS LISTING /tmp/cc79wf7w.s 			page 13


 166:/home/hkh/git/eapidk-code-r76-trunk/lib/linux/../EApiAPI.cpp ****     __IN  uint32_t  Addr    , /* Encoded 7/10Bit I2C
 167:/home/hkh/git/eapidk-code-r76-trunk/lib/linux/../EApiAPI.cpp ****                                * Device Address
 168:/home/hkh/git/eapidk-code-r76-trunk/lib/linux/../EApiAPI.cpp ****                                */
 169:/home/hkh/git/eapidk-code-r76-trunk/lib/linux/../EApiAPI.cpp ****     __IN  uint32_t  Cmd     , /* I2C Command/Offset */
 170:/home/hkh/git/eapidk-code-r76-trunk/lib/linux/../EApiAPI.cpp ****     __OUT     void *pBuffer , /* Transfer Data pBuffer */
 171:/home/hkh/git/eapidk-code-r76-trunk/lib/linux/../EApiAPI.cpp ****     __IN  uint32_t  BufLen  , /* Data pBuffer Length */
 172:/home/hkh/git/eapidk-code-r76-trunk/lib/linux/../EApiAPI.cpp ****     __IN  uint32_t  ByteCnt   /* Byte Count to read */
 173:/home/hkh/git/eapidk-code-r76-trunk/lib/linux/../EApiAPI.cpp ****     )
 174:/home/hkh/git/eapidk-code-r76-trunk/lib/linux/../EApiAPI.cpp **** {
 355              		.loc 1 174 1
 356              		.cfi_startproc
 357 0398 F30F1EFA 		endbr64
 358 039c 55       		pushq	%rbp
 359              		.cfi_def_cfa_offset 16
 360              		.cfi_offset 6, -16
 361 039d 4889E5   		movq	%rsp, %rbp
 362              		.cfi_def_cfa_register 6
 363 03a0 4883EC40 		subq	$64, %rsp
 364 03a4 897DDC   		movl	%edi, -36(%rbp)
 365 03a7 8975D8   		movl	%esi, -40(%rbp)
 366 03aa 8955D4   		movl	%edx, -44(%rbp)
 367 03ad 48894DC8 		movq	%rcx, -56(%rbp)
 368 03b1 448945D0 		movl	%r8d, -48(%rbp)
 369 03b5 44894DC4 		movl	%r9d, -60(%rbp)
 370              		.loc 1 174 1
 371 03b9 64488B04 		movq	%fs:40, %rax
 371      25280000 
 371      00
 372 03c2 488945F8 		movq	%rax, -8(%rbp)
 373 03c6 31C0     		xorl	%eax, %eax
 175:/home/hkh/git/eapidk-code-r76-trunk/lib/linux/../EApiAPI.cpp ****   EApiStatus_t StatusCode=EAPI_STATUS_SUCCESS;
 374              		.loc 1 175 16
 375 03c8 C745E800 		movl	$0, -24(%rbp)
 375      000000
 176:/home/hkh/git/eapidk-code-r76-trunk/lib/linux/../EApiAPI.cpp ****   uint8_t LclpBuffer[8]={0};
 376              		.loc 1 176 11
 377 03cf 48C745F0 		movq	$0, -16(%rbp)
 377      00000000 
 177:/home/hkh/git/eapidk-code-r76-trunk/lib/linux/../EApiAPI.cpp ****   int LclByteCnt=0;
 378              		.loc 1 177 7
 379 03d7 C745EC00 		movl	$0, -20(%rbp)
 379      000000
 178:/home/hkh/git/eapidk-code-r76-trunk/lib/linux/../EApiAPI.cpp **** #if (STRICT_VALIDATION>1)
 179:/home/hkh/git/eapidk-code-r76-trunk/lib/linux/../EApiAPI.cpp ****   uint32_t MaxBlkLen;
 180:/home/hkh/git/eapidk-code-r76-trunk/lib/linux/../EApiAPI.cpp **** #endif
 181:/home/hkh/git/eapidk-code-r76-trunk/lib/linux/../EApiAPI.cpp ****   EAPI_CHECK_INITIALIZED(EApiI2CReadTransfer);
 380              		.loc 1 181 3
 381 03de 8B050000 		movl	Initialized(%rip), %eax
 381      0000
 382 03e4 85C0     		testl	%eax, %eax
 383 03e6 754B     		jne	.L19
 384              		.loc 1 181 3 is_stmt 0 discriminator 1
 385 03e8 4883EC08 		subq	$8, %rsp
 386 03ec 488D0500 		leaq	.LC3(%rip), %rax
 386      000000
 387 03f3 50       		pushq	%rax
 388 03f4 4C8D0D00 		leaq	.LC0(%rip), %r9
GAS LISTING /tmp/cc79wf7w.s 			page 14


 388      000000
 389 03fb 41B8FFFF 		movl	$-1, %r8d
 389      FFFF
 390 0401 B9B50000 		movl	$181, %ecx
 390      00
 391 0406 488D1500 		leaq	.LC14(%rip), %rdx
 391      000000
 392 040d 488D3500 		leaq	.LC2(%rip), %rsi
 392      000000
 393 0414 BF450000 		movl	$69, %edi
 393      00
 394 0419 B8000000 		movl	$0, %eax
 394      00
 395 041e E8000000 		call	siFormattedMessage_SC@PLT
 395      00
 396 0423 4883C410 		addq	$16, %rsp
 397 0427 C745E8FF 		movl	$-1, -24(%rbp)
 397      FFFFFF
 398 042e E99B0200 		jmp	.L20
 398      00
 399              	.L19:
 182:/home/hkh/git/eapidk-code-r76-trunk/lib/linux/../EApiAPI.cpp **** 
 183:/home/hkh/git/eapidk-code-r76-trunk/lib/linux/../EApiAPI.cpp **** #if (STRICT_VALIDATION>1)
 184:/home/hkh/git/eapidk-code-r76-trunk/lib/linux/../EApiAPI.cpp ****   siFormattedMessage_M2(
 400              		.loc 1 184 3 is_stmt 1
 401 0433 8B45C4   		movl	-60(%rbp), %eax
 402 0436 50       		pushq	%rax
 403 0437 8B45D4   		movl	-44(%rbp), %eax
 404 043a 50       		pushq	%rax
 405 043b 8B45D8   		movl	-40(%rbp), %eax
 406 043e 50       		pushq	%rax
 407 043f 8B45DC   		movl	-36(%rbp), %eax
 408 0442 50       		pushq	%rax
 409 0443 4C8D0D00 		leaq	.LC15(%rip), %r9
 409      000000
 410 044a 4C8D0500 		leaq	.LC8(%rip), %r8
 410      000000
 411 0451 B9BC0000 		movl	$188, %ecx
 411      00
 412 0456 488D1500 		leaq	.LC9(%rip), %rdx
 412      000000
 413 045d 488D3500 		leaq	.LC2(%rip), %rsi
 413      000000
 414 0464 BF4C0000 		movl	$76, %edi
 414      00
 415 0469 B8000000 		movl	$0, %eax
 415      00
 416 046e E8000000 		call	siFormattedMessage_M2@PLT
 416      00
 417 0473 4883C420 		addq	$32, %rsp
 185:/home/hkh/git/eapidk-code-r76-trunk/lib/linux/../EApiAPI.cpp ****           'L'                   ,
 186:/home/hkh/git/eapidk-code-r76-trunk/lib/linux/../EApiAPI.cpp ****           __FILE__              ,
 187:/home/hkh/git/eapidk-code-r76-trunk/lib/linux/../EApiAPI.cpp ****           "EApiI2CWriteTransfer",
 188:/home/hkh/git/eapidk-code-r76-trunk/lib/linux/../EApiAPI.cpp ****           __LINE__              ,
 189:/home/hkh/git/eapidk-code-r76-trunk/lib/linux/../EApiAPI.cpp ****           "Info"                ,
 190:/home/hkh/git/eapidk-code-r76-trunk/lib/linux/../EApiAPI.cpp ****           "Id=%08"PRIX32" ADDR=%04"PRIX32
 191:/home/hkh/git/eapidk-code-r76-trunk/lib/linux/../EApiAPI.cpp ****           " CMD=%04"PRIX32" BCNT=%04"PRIX32"\n", 
GAS LISTING /tmp/cc79wf7w.s 			page 15


 192:/home/hkh/git/eapidk-code-r76-trunk/lib/linux/../EApiAPI.cpp ****           Id, Addr, Cmd, ByteCnt
 193:/home/hkh/git/eapidk-code-r76-trunk/lib/linux/../EApiAPI.cpp ****       );
 194:/home/hkh/git/eapidk-code-r76-trunk/lib/linux/../EApiAPI.cpp **** #endif
 195:/home/hkh/git/eapidk-code-r76-trunk/lib/linux/../EApiAPI.cpp ****   EAPI_LIB_ASSERT_PARAMATER_NULL(EApiI2CReadTransfer, pBuffer);
 418              		.loc 1 195 3
 419 0477 48837DC8 		cmpq	$0, -56(%rbp)
 419      00
 420 047c 754B     		jne	.L21
 421              		.loc 1 195 3 is_stmt 0 discriminator 1
 422 047e 4883EC08 		subq	$8, %rsp
 423 0482 488D0500 		leaq	.LC16(%rip), %rax
 423      000000
 424 0489 50       		pushq	%rax
 425 048a 4C8D0D00 		leaq	.LC0(%rip), %r9
 425      000000
 426 0491 41B8FFFE 		movl	$-257, %r8d
 426      FFFF
 427 0497 B9C30000 		movl	$195, %ecx
 427      00
 428 049c 488D1500 		leaq	.LC14(%rip), %rdx
 428      000000
 429 04a3 488D3500 		leaq	.LC2(%rip), %rsi
 429      000000
 430 04aa BF450000 		movl	$69, %edi
 430      00
 431 04af B8000000 		movl	$0, %eax
 431      00
 432 04b4 E8000000 		call	siFormattedMessage_SC@PLT
 432      00
 433 04b9 4883C410 		addq	$16, %rsp
 434 04bd C745E8FF 		movl	$-257, -24(%rbp)
 434      FEFFFF
 435 04c4 E9050200 		jmp	.L20
 435      00
 436              	.L21:
 196:/home/hkh/git/eapidk-code-r76-trunk/lib/linux/../EApiAPI.cpp ****   EAPI_LIB_ASSERT_PARAMATER_ZERO(EApiI2CReadTransfer, BufLen );
 437              		.loc 1 196 3 is_stmt 1
 438 04c9 837DD000 		cmpl	$0, -48(%rbp)
 439 04cd 754B     		jne	.L22
 440              		.loc 1 196 3 is_stmt 0 discriminator 1
 441 04cf 4883EC08 		subq	$8, %rsp
 442 04d3 488D0500 		leaq	.LC17(%rip), %rax
 442      000000
 443 04da 50       		pushq	%rax
 444 04db 4C8D0D00 		leaq	.LC0(%rip), %r9
 444      000000
 445 04e2 41B8FFFE 		movl	$-257, %r8d
 445      FFFF
 446 04e8 B9C40000 		movl	$196, %ecx
 446      00
 447 04ed 488D1500 		leaq	.LC14(%rip), %rdx
 447      000000
 448 04f4 488D3500 		leaq	.LC2(%rip), %rsi
 448      000000
 449 04fb BF450000 		movl	$69, %edi
 449      00
 450 0500 B8000000 		movl	$0, %eax
GAS LISTING /tmp/cc79wf7w.s 			page 16


 450      00
 451 0505 E8000000 		call	siFormattedMessage_SC@PLT
 451      00
 452 050a 4883C410 		addq	$16, %rsp
 453 050e C745E8FF 		movl	$-257, -24(%rbp)
 453      FEFFFF
 454 0515 E9B40100 		jmp	.L20
 454      00
 455              	.L22:
 197:/home/hkh/git/eapidk-code-r76-trunk/lib/linux/../EApiAPI.cpp ****   EAPI_LIB_ASSERT_PARAMATER_ZERO(EApiI2CReadTransfer, ByteCnt);
 456              		.loc 1 197 3 is_stmt 1
 457 051a 837DC400 		cmpl	$0, -60(%rbp)
 458 051e 754B     		jne	.L23
 459              		.loc 1 197 3 is_stmt 0 discriminator 1
 460 0520 4883EC08 		subq	$8, %rsp
 461 0524 488D0500 		leaq	.LC18(%rip), %rax
 461      000000
 462 052b 50       		pushq	%rax
 463 052c 4C8D0D00 		leaq	.LC0(%rip), %r9
 463      000000
 464 0533 41B8FFFE 		movl	$-257, %r8d
 464      FFFF
 465 0539 B9C50000 		movl	$197, %ecx
 465      00
 466 053e 488D1500 		leaq	.LC14(%rip), %rdx
 466      000000
 467 0545 488D3500 		leaq	.LC2(%rip), %rsi
 467      000000
 468 054c BF450000 		movl	$69, %edi
 468      00
 469 0551 B8000000 		movl	$0, %eax
 469      00
 470 0556 E8000000 		call	siFormattedMessage_SC@PLT
 470      00
 471 055b 4883C410 		addq	$16, %rsp
 472 055f C745E8FF 		movl	$-257, -24(%rbp)
 472      FEFFFF
 473 0566 E9630100 		jmp	.L20
 473      00
 474              	.L23:
 198:/home/hkh/git/eapidk-code-r76-trunk/lib/linux/../EApiAPI.cpp ****   EAPI_LIB_ASSERT_PARAMATER_ZERO(EApiI2CReadTransfer, BufLen );
 475              		.loc 1 198 3 is_stmt 1
 476 056b 837DD000 		cmpl	$0, -48(%rbp)
 477 056f 754B     		jne	.L24
 478              		.loc 1 198 3 is_stmt 0 discriminator 1
 479 0571 4883EC08 		subq	$8, %rsp
 480 0575 488D0500 		leaq	.LC17(%rip), %rax
 480      000000
 481 057c 50       		pushq	%rax
 482 057d 4C8D0D00 		leaq	.LC0(%rip), %r9
 482      000000
 483 0584 41B8FFFE 		movl	$-257, %r8d
 483      FFFF
 484 058a B9C60000 		movl	$198, %ecx
 484      00
 485 058f 488D1500 		leaq	.LC14(%rip), %rdx
 485      000000
GAS LISTING /tmp/cc79wf7w.s 			page 17


 486 0596 488D3500 		leaq	.LC2(%rip), %rsi
 486      000000
 487 059d BF450000 		movl	$69, %edi
 487      00
 488 05a2 B8000000 		movl	$0, %eax
 488      00
 489 05a7 E8000000 		call	siFormattedMessage_SC@PLT
 489      00
 490 05ac 4883C410 		addq	$16, %rsp
 491 05b0 C745E8FF 		movl	$-257, -24(%rbp)
 491      FEFFFF
 492 05b7 E9120100 		jmp	.L20
 492      00
 493              	.L24:
 199:/home/hkh/git/eapidk-code-r76-trunk/lib/linux/../EApiAPI.cpp **** 
 200:/home/hkh/git/eapidk-code-r76-trunk/lib/linux/../EApiAPI.cpp **** #if (STRICT_VALIDATION>1)
 201:/home/hkh/git/eapidk-code-r76-trunk/lib/linux/../EApiAPI.cpp ****     EApiI2CGetBusCap(Id, &MaxBlkLen);
 494              		.loc 1 201 5 is_stmt 1
 495 05bc 488D55E4 		leaq	-28(%rbp), %rdx
 496 05c0 8B45DC   		movl	-36(%rbp), %eax
 497 05c3 4889D6   		movq	%rdx, %rsi
 498 05c6 89C7     		movl	%eax, %edi
 499 05c8 E8000000 		call	EApiI2CGetBusCap@PLT
 499      00
 202:/home/hkh/git/eapidk-code-r76-trunk/lib/linux/../EApiAPI.cpp ****     EAPI_LIB_ASSERT_PARAMATER_CHECK(
 500              		.loc 1 202 5
 501 05cd 8B45E4   		movl	-28(%rbp), %eax
 502 05d0 3945C4   		cmpl	%eax, -60(%rbp)
 503 05d3 764B     		jbe	.L25
 504              		.loc 1 202 5 is_stmt 0 discriminator 1
 505 05d5 4883EC08 		subq	$8, %rsp
 506 05d9 488D0500 		leaq	.LC19(%rip), %rax
 506      000000
 507 05e0 50       		pushq	%rax
 508 05e1 4C8D0D00 		leaq	.LC0(%rip), %r9
 508      000000
 509 05e8 41B8FFFE 		movl	$-257, %r8d
 509      FFFF
 510 05ee B9CA0000 		movl	$202, %ecx
 510      00
 511 05f3 488D1500 		leaq	.LC14(%rip), %rdx
 511      000000
 512 05fa 488D3500 		leaq	.LC2(%rip), %rsi
 512      000000
 513 0601 BF450000 		movl	$69, %edi
 513      00
 514 0606 B8000000 		movl	$0, %eax
 514      00
 515 060b E8000000 		call	siFormattedMessage_SC@PLT
 515      00
 516 0610 4883C410 		addq	$16, %rsp
 517 0614 C745E8FF 		movl	$-257, -24(%rbp)
 517      FEFFFF
 518 061b E9AE0000 		jmp	.L20
 518      00
 519              	.L25:
 203:/home/hkh/git/eapidk-code-r76-trunk/lib/linux/../EApiAPI.cpp ****         EApiI2CReadTransfer, 
GAS LISTING /tmp/cc79wf7w.s 			page 18


 204:/home/hkh/git/eapidk-code-r76-trunk/lib/linux/../EApiAPI.cpp ****         ByteCnt>MaxBlkLen, 
 205:/home/hkh/git/eapidk-code-r76-trunk/lib/linux/../EApiAPI.cpp ****         " Transfer Length too long for interface"
 206:/home/hkh/git/eapidk-code-r76-trunk/lib/linux/../EApiAPI.cpp ****         );
 207:/home/hkh/git/eapidk-code-r76-trunk/lib/linux/../EApiAPI.cpp **** #endif
 208:/home/hkh/git/eapidk-code-r76-trunk/lib/linux/../EApiAPI.cpp **** 
 209:/home/hkh/git/eapidk-code-r76-trunk/lib/linux/../EApiAPI.cpp ****   if(EAPI_I2C_IS_10BIT_ADDR(Addr))
 520              		.loc 1 209 6 is_stmt 1
 521 0620 8B45D8   		movl	-40(%rbp), %eax
 522 0623 2500F800 		andl	$63488, %eax
 522      00
 523              		.loc 1 209 5
 524 0628 3D00F000 		cmpl	$61440, %eax
 524      00
 525 062d 7516     		jne	.L26
 210:/home/hkh/git/eapidk-code-r76-trunk/lib/linux/../EApiAPI.cpp ****   {
 211:/home/hkh/git/eapidk-code-r76-trunk/lib/linux/../EApiAPI.cpp ****     LclpBuffer[LclByteCnt++]=(uint8_t)(Addr&0xFF);
 526              		.loc 1 211 26
 527 062f 8B45EC   		movl	-20(%rbp), %eax
 528 0632 8D5001   		leal	1(%rax), %edx
 529 0635 8955EC   		movl	%edx, -20(%rbp)
 530              		.loc 1 211 30
 531 0638 8B55D8   		movl	-40(%rbp), %edx
 532              		.loc 1 211 29
 533 063b 4898     		cltq
 534 063d 885405F0 		movb	%dl, -16(%rbp,%rax)
 212:/home/hkh/git/eapidk-code-r76-trunk/lib/linux/../EApiAPI.cpp ****     Addr>>=8;
 535              		.loc 1 212 9
 536 0641 C16DD808 		shrl	$8, -40(%rbp)
 537              	.L26:
 213:/home/hkh/git/eapidk-code-r76-trunk/lib/linux/../EApiAPI.cpp ****   }
 214:/home/hkh/git/eapidk-code-r76-trunk/lib/linux/../EApiAPI.cpp **** 
 215:/home/hkh/git/eapidk-code-r76-trunk/lib/linux/../EApiAPI.cpp ****   if(!EAPI_I2C_IS_NO_CMD(Cmd)){
 538              		.loc 1 215 7
 539 0645 8B45D4   		movl	-44(%rbp), %eax
 540 0648 25000000 		andl	$-1073741824, %eax
 540      C0
 541              		.loc 1 215 5
 542 064d 3D000000 		cmpl	$1073741824, %eax
 542      40
 543 0652 743A     		je	.L27
 216:/home/hkh/git/eapidk-code-r76-trunk/lib/linux/../EApiAPI.cpp ****     if(EAPI_I2C_IS_EXT_CMD(Cmd))
 544              		.loc 1 216 8
 545 0654 8B45D4   		movl	-44(%rbp), %eax
 546 0657 25000000 		andl	$-1073741824, %eax
 546      C0
 547              		.loc 1 216 7
 548 065c 3D000000 		cmpl	$-2147483648, %eax
 548      80
 549 0661 7519     		jne	.L28
 217:/home/hkh/git/eapidk-code-r76-trunk/lib/linux/../EApiAPI.cpp ****       LclpBuffer[LclByteCnt++]=(uint8_t)((Cmd>>8)&0xFF);
 550              		.loc 1 217 46
 551 0663 8B45D4   		movl	-44(%rbp), %eax
 552 0666 C1E808   		shrl	$8, %eax
 553 0669 89C1     		movl	%eax, %ecx
 554              		.loc 1 217 28
 555 066b 8B45EC   		movl	-20(%rbp), %eax
 556 066e 8D5001   		leal	1(%rax), %edx
GAS LISTING /tmp/cc79wf7w.s 			page 19


 557 0671 8955EC   		movl	%edx, -20(%rbp)
 558              		.loc 1 217 32
 559 0674 89CA     		movl	%ecx, %edx
 560              		.loc 1 217 31
 561 0676 4898     		cltq
 562 0678 885405F0 		movb	%dl, -16(%rbp,%rax)
 563              	.L28:
 218:/home/hkh/git/eapidk-code-r76-trunk/lib/linux/../EApiAPI.cpp ****     LclpBuffer[LclByteCnt++]=(uint8_t)(Cmd&0xFF);
 564              		.loc 1 218 26
 565 067c 8B45EC   		movl	-20(%rbp), %eax
 566 067f 8D5001   		leal	1(%rax), %edx
 567 0682 8955EC   		movl	%edx, -20(%rbp)
 568              		.loc 1 218 30
 569 0685 8B55D4   		movl	-44(%rbp), %edx
 570              		.loc 1 218 29
 571 0688 4898     		cltq
 572 068a 885405F0 		movb	%dl, -16(%rbp,%rax)
 573              	.L27:
 219:/home/hkh/git/eapidk-code-r76-trunk/lib/linux/../EApiAPI.cpp ****   }
 220:/home/hkh/git/eapidk-code-r76-trunk/lib/linux/../EApiAPI.cpp **** 
 221:/home/hkh/git/eapidk-code-r76-trunk/lib/linux/../EApiAPI.cpp ****   StatusCode=EApiI2CWriteReadRaw(
 574              		.loc 1 221 14
 575 068e 8B45C4   		movl	-60(%rbp), %eax
 576 0691 8D4801   		leal	1(%rax), %ecx
 222:/home/hkh/git/eapidk-code-r76-trunk/lib/linux/../EApiAPI.cpp ****       Id, 
 223:/home/hkh/git/eapidk-code-r76-trunk/lib/linux/../EApiAPI.cpp ****       (uint8_t)Addr, 
 224:/home/hkh/git/eapidk-code-r76-trunk/lib/linux/../EApiAPI.cpp ****       &LclpBuffer, 
 225:/home/hkh/git/eapidk-code-r76-trunk/lib/linux/../EApiAPI.cpp ****       LclByteCnt+1, 
 577              		.loc 1 225 17
 578 0694 8B45EC   		movl	-20(%rbp), %eax
 579 0697 83C001   		addl	$1, %eax
 221:/home/hkh/git/eapidk-code-r76-trunk/lib/linux/../EApiAPI.cpp ****       Id, 
 580              		.loc 1 221 14
 581 069a 4189C2   		movl	%eax, %r10d
 223:/home/hkh/git/eapidk-code-r76-trunk/lib/linux/../EApiAPI.cpp ****       &LclpBuffer, 
 582              		.loc 1 223 7
 583 069d 8B45D8   		movl	-40(%rbp), %eax
 221:/home/hkh/git/eapidk-code-r76-trunk/lib/linux/../EApiAPI.cpp ****       Id, 
 584              		.loc 1 221 14
 585 06a0 0FB6F0   		movzbl	%al, %esi
 586 06a3 448B45D0 		movl	-48(%rbp), %r8d
 587 06a7 488B7DC8 		movq	-56(%rbp), %rdi
 588 06ab 488D55F0 		leaq	-16(%rbp), %rdx
 589 06af 8B45DC   		movl	-36(%rbp), %eax
 590 06b2 4883EC08 		subq	$8, %rsp
 591 06b6 51       		pushq	%rcx
 592 06b7 4589C1   		movl	%r8d, %r9d
 593 06ba 4989F8   		movq	%rdi, %r8
 594 06bd 4489D1   		movl	%r10d, %ecx
 595 06c0 89C7     		movl	%eax, %edi
 596 06c2 E8000000 		call	EApiI2CWriteReadRaw@PLT
 596      00
 597 06c7 4883C410 		addq	$16, %rsp
 598 06cb 8945E8   		movl	%eax, -24(%rbp)
 599              	.L20:
 226:/home/hkh/git/eapidk-code-r76-trunk/lib/linux/../EApiAPI.cpp ****       pBuffer, 
 227:/home/hkh/git/eapidk-code-r76-trunk/lib/linux/../EApiAPI.cpp ****       BufLen, 
GAS LISTING /tmp/cc79wf7w.s 			page 20


 228:/home/hkh/git/eapidk-code-r76-trunk/lib/linux/../EApiAPI.cpp ****       ByteCnt+1
 229:/home/hkh/git/eapidk-code-r76-trunk/lib/linux/../EApiAPI.cpp ****       );
 230:/home/hkh/git/eapidk-code-r76-trunk/lib/linux/../EApiAPI.cpp **** EAPI_LIB_ASSERT_EXIT
 231:/home/hkh/git/eapidk-code-r76-trunk/lib/linux/../EApiAPI.cpp ****   return StatusCode;
 600              		.loc 1 231 10
 601 06ce 8B45E8   		movl	-24(%rbp), %eax
 232:/home/hkh/git/eapidk-code-r76-trunk/lib/linux/../EApiAPI.cpp **** }
 602              		.loc 1 232 1
 603 06d1 488B75F8 		movq	-8(%rbp), %rsi
 604 06d5 64483334 		xorq	%fs:40, %rsi
 604      25280000 
 604      00
 605 06de 7405     		je	.L30
 606 06e0 E8000000 		call	__stack_chk_fail@PLT
 606      00
 607              	.L30:
 608 06e5 C9       		leave
 609              		.cfi_def_cfa 7, 8
 610 06e6 C3       		ret
 611              		.cfi_endproc
 612              	.LFE8:
 614              		.section	.rodata
 615              		.align 8
 616              	.LC20:
 617 0200 49643D25 		.string	"Id=%08X ADDR=%04X CMD=%04X BCNT=%04X %08X\n"
 617      30385820 
 617      41444452 
 617      3D253034 
 617      5820434D 
 618              	.LC21:
 619 022b 4572726F 		.string	"Error Allocating Memory"
 619      7220416C 
 619      6C6F6361 
 619      74696E67 
 619      204D656D 
 620 0243 00000000 		.align 8
 620      00
 621              	.LC22:
 622 0248 5472616E 		.string	"Transfer Length too long for interface"
 622      73666572 
 622      204C656E 
 622      67746820 
 622      746F6F20 
 623              		.text
 624              		.globl	EApiI2CWriteTransfer
 626              	EApiI2CWriteTransfer:
 627              	.LFB9:
 233:/home/hkh/git/eapidk-code-r76-trunk/lib/linux/../EApiAPI.cpp **** 
 234:/home/hkh/git/eapidk-code-r76-trunk/lib/linux/../EApiAPI.cpp **** 
 235:/home/hkh/git/eapidk-code-r76-trunk/lib/linux/../EApiAPI.cpp **** 
 236:/home/hkh/git/eapidk-code-r76-trunk/lib/linux/../EApiAPI.cpp **** EApiStatus_t 
 237:/home/hkh/git/eapidk-code-r76-trunk/lib/linux/../EApiAPI.cpp **** EAPI_CALLTYPE
 238:/home/hkh/git/eapidk-code-r76-trunk/lib/linux/../EApiAPI.cpp **** EApiI2CWriteTransfer(
 239:/home/hkh/git/eapidk-code-r76-trunk/lib/linux/../EApiAPI.cpp ****     __IN  EApiId_t  Id      , /* I2C Bus Id */
 240:/home/hkh/git/eapidk-code-r76-trunk/lib/linux/../EApiAPI.cpp ****     __IN  uint32_t  Addr    , /* Encoded 7/10Bit I2C 
 241:/home/hkh/git/eapidk-code-r76-trunk/lib/linux/../EApiAPI.cpp ****                                * Device Address 
 242:/home/hkh/git/eapidk-code-r76-trunk/lib/linux/../EApiAPI.cpp ****                                */
GAS LISTING /tmp/cc79wf7w.s 			page 21


 243:/home/hkh/git/eapidk-code-r76-trunk/lib/linux/../EApiAPI.cpp ****     __IN  uint32_t  Cmd     , /* I2C Command/Offset */
 244:/home/hkh/git/eapidk-code-r76-trunk/lib/linux/../EApiAPI.cpp ****     __IN      void *pBuffer , /* Transfer Data pBuffer */
 245:/home/hkh/git/eapidk-code-r76-trunk/lib/linux/../EApiAPI.cpp ****     __IN  uint32_t  ByteCnt   /* Byte Count to write */
 246:/home/hkh/git/eapidk-code-r76-trunk/lib/linux/../EApiAPI.cpp ****     )
 247:/home/hkh/git/eapidk-code-r76-trunk/lib/linux/../EApiAPI.cpp **** {
 628              		.loc 1 247 1
 629              		.cfi_startproc
 630 06e7 F30F1EFA 		endbr64
 631 06eb 55       		pushq	%rbp
 632              		.cfi_def_cfa_offset 16
 633              		.cfi_offset 6, -16
 634 06ec 4889E5   		movq	%rsp, %rbp
 635              		.cfi_def_cfa_register 6
 636 06ef 4883EC40 		subq	$64, %rsp
 637 06f3 897DDC   		movl	%edi, -36(%rbp)
 638 06f6 8975D8   		movl	%esi, -40(%rbp)
 639 06f9 8955D4   		movl	%edx, -44(%rbp)
 640 06fc 48894DC8 		movq	%rcx, -56(%rbp)
 641 0700 448945D0 		movl	%r8d, -48(%rbp)
 642              		.loc 1 247 1
 643 0704 64488B04 		movq	%fs:40, %rax
 643      25280000 
 643      00
 644 070d 488945F8 		movq	%rax, -8(%rbp)
 645 0711 31C0     		xorl	%eax, %eax
 248:/home/hkh/git/eapidk-code-r76-trunk/lib/linux/../EApiAPI.cpp ****   EApiStatus_t StatusCode=EAPI_STATUS_SUCCESS;
 646              		.loc 1 248 16
 647 0713 C745E400 		movl	$0, -28(%rbp)
 647      000000
 249:/home/hkh/git/eapidk-code-r76-trunk/lib/linux/../EApiAPI.cpp ****   uint8_t * pLclBuffer;
 250:/home/hkh/git/eapidk-code-r76-trunk/lib/linux/../EApiAPI.cpp ****   uint32_t LclByteCnt=0;
 648              		.loc 1 250 12
 649 071a C745E800 		movl	$0, -24(%rbp)
 649      000000
 251:/home/hkh/git/eapidk-code-r76-trunk/lib/linux/../EApiAPI.cpp ****   uint32_t ReturnValue;
 252:/home/hkh/git/eapidk-code-r76-trunk/lib/linux/../EApiAPI.cpp ****   uint32_t MaxBlkLen;
 253:/home/hkh/git/eapidk-code-r76-trunk/lib/linux/../EApiAPI.cpp ****   EAPI_CHECK_INITIALIZED(EApiI2CWriteTransfer);
 650              		.loc 1 253 3
 651 0721 8B050000 		movl	Initialized(%rip), %eax
 651      0000
 652 0727 85C0     		testl	%eax, %eax
 653 0729 754B     		jne	.L32
 654              		.loc 1 253 3 is_stmt 0 discriminator 1
 655 072b 4883EC08 		subq	$8, %rsp
 656 072f 488D0500 		leaq	.LC3(%rip), %rax
 656      000000
 657 0736 50       		pushq	%rax
 658 0737 4C8D0D00 		leaq	.LC0(%rip), %r9
 658      000000
 659 073e 41B8FFFF 		movl	$-1, %r8d
 659      FFFF
 660 0744 B9FD0000 		movl	$253, %ecx
 660      00
 661 0749 488D1500 		leaq	.LC9(%rip), %rdx
 661      000000
 662 0750 488D3500 		leaq	.LC2(%rip), %rsi
 662      000000
GAS LISTING /tmp/cc79wf7w.s 			page 22


 663 0757 BF450000 		movl	$69, %edi
 663      00
 664 075c B8000000 		movl	$0, %eax
 664      00
 665 0761 E8000000 		call	siFormattedMessage_SC@PLT
 665      00
 666 0766 4883C410 		addq	$16, %rsp
 667 076a C745E4FF 		movl	$-1, -28(%rbp)
 667      FFFFFF
 668 0771 E90C0300 		jmp	.L33
 668      00
 669              	.L32:
 254:/home/hkh/git/eapidk-code-r76-trunk/lib/linux/../EApiAPI.cpp **** 
 255:/home/hkh/git/eapidk-code-r76-trunk/lib/linux/../EApiAPI.cpp ****   EAPI_LIB_ASSERT_PARAMATER_NULL(EApiI2CWriteTransfer, pBuffer);
 670              		.loc 1 255 3 is_stmt 1
 671 0776 48837DC8 		cmpq	$0, -56(%rbp)
 671      00
 672 077b 754B     		jne	.L34
 673              		.loc 1 255 3 is_stmt 0 discriminator 1
 674 077d 4883EC08 		subq	$8, %rsp
 675 0781 488D0500 		leaq	.LC16(%rip), %rax
 675      000000
 676 0788 50       		pushq	%rax
 677 0789 4C8D0D00 		leaq	.LC0(%rip), %r9
 677      000000
 678 0790 41B8FFFE 		movl	$-257, %r8d
 678      FFFF
 679 0796 B9FF0000 		movl	$255, %ecx
 679      00
 680 079b 488D1500 		leaq	.LC9(%rip), %rdx
 680      000000
 681 07a2 488D3500 		leaq	.LC2(%rip), %rsi
 681      000000
 682 07a9 BF450000 		movl	$69, %edi
 682      00
 683 07ae B8000000 		movl	$0, %eax
 683      00
 684 07b3 E8000000 		call	siFormattedMessage_SC@PLT
 684      00
 685 07b8 4883C410 		addq	$16, %rsp
 686 07bc C745E4FF 		movl	$-257, -28(%rbp)
 686      FEFFFF
 687 07c3 E9BA0200 		jmp	.L33
 687      00
 688              	.L34:
 256:/home/hkh/git/eapidk-code-r76-trunk/lib/linux/../EApiAPI.cpp **** #if (STRICT_VALIDATION>1)
 257:/home/hkh/git/eapidk-code-r76-trunk/lib/linux/../EApiAPI.cpp ****   siFormattedMessage_M2(
 689              		.loc 1 257 3 is_stmt 1
 690 07c8 488B45C8 		movq	-56(%rbp), %rax
 691 07cc 8B00     		movl	(%rax), %eax
 692 07ce 4883EC08 		subq	$8, %rsp
 693 07d2 50       		pushq	%rax
 694 07d3 8B45D0   		movl	-48(%rbp), %eax
 695 07d6 50       		pushq	%rax
 696 07d7 8B45D4   		movl	-44(%rbp), %eax
 697 07da 50       		pushq	%rax
 698 07db 8B45D8   		movl	-40(%rbp), %eax
GAS LISTING /tmp/cc79wf7w.s 			page 23


 699 07de 50       		pushq	%rax
 700 07df 8B45DC   		movl	-36(%rbp), %eax
 701 07e2 50       		pushq	%rax
 702 07e3 4C8D0D00 		leaq	.LC20(%rip), %r9
 702      000000
 703 07ea 4C8D0500 		leaq	.LC8(%rip), %r8
 703      000000
 704 07f1 B9050100 		movl	$261, %ecx
 704      00
 705 07f6 488D1500 		leaq	.LC9(%rip), %rdx
 705      000000
 706 07fd 488D3500 		leaq	.LC2(%rip), %rsi
 706      000000
 707 0804 BF4C0000 		movl	$76, %edi
 707      00
 708 0809 B8000000 		movl	$0, %eax
 708      00
 709 080e E8000000 		call	siFormattedMessage_M2@PLT
 709      00
 710 0813 4883C430 		addq	$48, %rsp
 258:/home/hkh/git/eapidk-code-r76-trunk/lib/linux/../EApiAPI.cpp ****           'L'                   ,
 259:/home/hkh/git/eapidk-code-r76-trunk/lib/linux/../EApiAPI.cpp ****           __FILE__              ,
 260:/home/hkh/git/eapidk-code-r76-trunk/lib/linux/../EApiAPI.cpp ****           "EApiI2CWriteTransfer",
 261:/home/hkh/git/eapidk-code-r76-trunk/lib/linux/../EApiAPI.cpp ****           __LINE__              ,
 262:/home/hkh/git/eapidk-code-r76-trunk/lib/linux/../EApiAPI.cpp ****           "Info"                ,
 263:/home/hkh/git/eapidk-code-r76-trunk/lib/linux/../EApiAPI.cpp ****           "Id=%08"PRIX32" ADDR=%04"PRIX32
 264:/home/hkh/git/eapidk-code-r76-trunk/lib/linux/../EApiAPI.cpp ****           " CMD=%04"PRIX32" BCNT=%04"PRIX32" %08"PRIX32"\n", 
 265:/home/hkh/git/eapidk-code-r76-trunk/lib/linux/../EApiAPI.cpp ****           Id, Addr, Cmd, ByteCnt, ((uint32_t*)pBuffer)[0]
 266:/home/hkh/git/eapidk-code-r76-trunk/lib/linux/../EApiAPI.cpp ****       );
 267:/home/hkh/git/eapidk-code-r76-trunk/lib/linux/../EApiAPI.cpp **** #endif
 268:/home/hkh/git/eapidk-code-r76-trunk/lib/linux/../EApiAPI.cpp ****   EAPI_LIB_ASSERT_PARAMATER_ZERO(EApiI2CWriteTransfer, ByteCnt);
 711              		.loc 1 268 3
 712 0817 837DD000 		cmpl	$0, -48(%rbp)
 713 081b 754B     		jne	.L35
 714              		.loc 1 268 3 is_stmt 0 discriminator 1
 715 081d 4883EC08 		subq	$8, %rsp
 716 0821 488D0500 		leaq	.LC18(%rip), %rax
 716      000000
 717 0828 50       		pushq	%rax
 718 0829 4C8D0D00 		leaq	.LC0(%rip), %r9
 718      000000
 719 0830 41B8FFFE 		movl	$-257, %r8d
 719      FFFF
 720 0836 B90C0100 		movl	$268, %ecx
 720      00
 721 083b 488D1500 		leaq	.LC9(%rip), %rdx
 721      000000
 722 0842 488D3500 		leaq	.LC2(%rip), %rsi
 722      000000
 723 0849 BF450000 		movl	$69, %edi
 723      00
 724 084e B8000000 		movl	$0, %eax
 724      00
 725 0853 E8000000 		call	siFormattedMessage_SC@PLT
 725      00
 726 0858 4883C410 		addq	$16, %rsp
 727 085c C745E4FF 		movl	$-257, -28(%rbp)
GAS LISTING /tmp/cc79wf7w.s 			page 24


 727      FEFFFF
 728 0863 E91A0200 		jmp	.L33
 728      00
 729              	.L35:
 269:/home/hkh/git/eapidk-code-r76-trunk/lib/linux/../EApiAPI.cpp **** 
 270:/home/hkh/git/eapidk-code-r76-trunk/lib/linux/../EApiAPI.cpp ****   pLclBuffer=(uint8_t *)malloc(ByteCnt+3);
 730              		.loc 1 270 39 is_stmt 1
 731 0868 8B45D0   		movl	-48(%rbp), %eax
 732 086b 83C003   		addl	$3, %eax
 733              		.loc 1 270 25
 734 086e 89C0     		movl	%eax, %eax
 735 0870 4889C7   		movq	%rax, %rdi
 736 0873 E8000000 		call	malloc@PLT
 736      00
 737 0878 488945F0 		movq	%rax, -16(%rbp)
 271:/home/hkh/git/eapidk-code-r76-trunk/lib/linux/../EApiAPI.cpp ****   EAPI_LIB_RETURN_ERROR_IF(
 738              		.loc 1 271 3
 739 087c 48837DF0 		cmpq	$0, -16(%rbp)
 739      00
 740 0881 754B     		jne	.L36
 741              		.loc 1 271 3 is_stmt 0 discriminator 1
 742 0883 4883EC08 		subq	$8, %rsp
 743 0887 488D0500 		leaq	.LC21(%rip), %rax
 743      000000
 744 088e 50       		pushq	%rax
 745 088f 4C8D0D00 		leaq	.LC0(%rip), %r9
 745      000000
 746 0896 41B8FDFF 		movl	$-3, %r8d
 746      FFFF
 747 089c B90F0100 		movl	$271, %ecx
 747      00
 748 08a1 488D1500 		leaq	.LC9(%rip), %rdx
 748      000000
 749 08a8 488D3500 		leaq	.LC2(%rip), %rsi
 749      000000
 750 08af BF450000 		movl	$69, %edi
 750      00
 751 08b4 B8000000 		movl	$0, %eax
 751      00
 752 08b9 E8000000 		call	siFormattedMessage_SC@PLT
 752      00
 753 08be 4883C410 		addq	$16, %rsp
 754 08c2 C745E4FD 		movl	$-3, -28(%rbp)
 754      FFFFFF
 755 08c9 E9B40100 		jmp	.L33
 755      00
 756              	.L36:
 272:/home/hkh/git/eapidk-code-r76-trunk/lib/linux/../EApiAPI.cpp ****       EApiI2CWriteTransfer, 
 273:/home/hkh/git/eapidk-code-r76-trunk/lib/linux/../EApiAPI.cpp ****       (pLclBuffer==NULL), 
 274:/home/hkh/git/eapidk-code-r76-trunk/lib/linux/../EApiAPI.cpp ****       EAPI_STATUS_ALLOC_ERROR, 
 275:/home/hkh/git/eapidk-code-r76-trunk/lib/linux/../EApiAPI.cpp ****       "Error Allocating Memory"
 276:/home/hkh/git/eapidk-code-r76-trunk/lib/linux/../EApiAPI.cpp ****       );
 277:/home/hkh/git/eapidk-code-r76-trunk/lib/linux/../EApiAPI.cpp **** 
 278:/home/hkh/git/eapidk-code-r76-trunk/lib/linux/../EApiAPI.cpp ****   if(EAPI_I2C_IS_10BIT_ADDR(Addr))
 757              		.loc 1 278 6 is_stmt 1
 758 08ce 8B45D8   		movl	-40(%rbp), %eax
 759 08d1 2500F800 		andl	$63488, %eax
GAS LISTING /tmp/cc79wf7w.s 			page 25


 759      00
 760              		.loc 1 278 5
 761 08d6 3D00F000 		cmpl	$61440, %eax
 761      00
 762 08db 7513     		jne	.L37
 279:/home/hkh/git/eapidk-code-r76-trunk/lib/linux/../EApiAPI.cpp ****   {
 280:/home/hkh/git/eapidk-code-r76-trunk/lib/linux/../EApiAPI.cpp ****     *pLclBuffer=(uint8_t)Addr&0xFF;
 763              		.loc 1 280 17
 764 08dd 8B45D8   		movl	-40(%rbp), %eax
 765 08e0 89C2     		movl	%eax, %edx
 766              		.loc 1 280 16
 767 08e2 488B45F0 		movq	-16(%rbp), %rax
 768 08e6 8810     		movb	%dl, (%rax)
 281:/home/hkh/git/eapidk-code-r76-trunk/lib/linux/../EApiAPI.cpp ****     Addr>>=8;
 769              		.loc 1 281 9
 770 08e8 C16DD808 		shrl	$8, -40(%rbp)
 282:/home/hkh/git/eapidk-code-r76-trunk/lib/linux/../EApiAPI.cpp ****     LclByteCnt++;
 771              		.loc 1 282 15
 772 08ec 8345E801 		addl	$1, -24(%rbp)
 773              	.L37:
 283:/home/hkh/git/eapidk-code-r76-trunk/lib/linux/../EApiAPI.cpp ****   }
 284:/home/hkh/git/eapidk-code-r76-trunk/lib/linux/../EApiAPI.cpp **** 
 285:/home/hkh/git/eapidk-code-r76-trunk/lib/linux/../EApiAPI.cpp ****   if(!EAPI_I2C_IS_NO_CMD(Cmd)){
 774              		.loc 1 285 7
 775 08f0 8B45D4   		movl	-44(%rbp), %eax
 776 08f3 25000000 		andl	$-1073741824, %eax
 776      C0
 777              		.loc 1 285 5
 778 08f8 3D000000 		cmpl	$1073741824, %eax
 778      40
 779 08fd 7444     		je	.L38
 286:/home/hkh/git/eapidk-code-r76-trunk/lib/linux/../EApiAPI.cpp ****     if(EAPI_I2C_IS_EXT_CMD(Cmd)){
 780              		.loc 1 286 8
 781 08ff 8B45D4   		movl	-44(%rbp), %eax
 782 0902 25000000 		andl	$-1073741824, %eax
 782      C0
 783              		.loc 1 286 7
 784 0907 3D000000 		cmpl	$-2147483648, %eax
 784      80
 785 090c 751E     		jne	.L39
 287:/home/hkh/git/eapidk-code-r76-trunk/lib/linux/../EApiAPI.cpp ****       pLclBuffer[LclByteCnt++]=(uint8_t)((Cmd>>8)&UINT8_MAX);
 786              		.loc 1 287 46
 787 090e 8B45D4   		movl	-44(%rbp), %eax
 788 0911 C1E808   		shrl	$8, %eax
 789 0914 89C1     		movl	%eax, %ecx
 790              		.loc 1 287 28
 791 0916 8B45E8   		movl	-24(%rbp), %eax
 792 0919 8D5001   		leal	1(%rax), %edx
 793 091c 8955E8   		movl	%edx, -24(%rbp)
 794 091f 89C2     		movl	%eax, %edx
 795              		.loc 1 287 17
 796 0921 488B45F0 		movq	-16(%rbp), %rax
 797 0925 4801D0   		addq	%rdx, %rax
 798              		.loc 1 287 32
 799 0928 89CA     		movl	%ecx, %edx
 800              		.loc 1 287 31
 801 092a 8810     		movb	%dl, (%rax)
GAS LISTING /tmp/cc79wf7w.s 			page 26


 802              	.L39:
 288:/home/hkh/git/eapidk-code-r76-trunk/lib/linux/../EApiAPI.cpp ****     }
 289:/home/hkh/git/eapidk-code-r76-trunk/lib/linux/../EApiAPI.cpp ****     pLclBuffer[LclByteCnt++]=(uint8_t)((Cmd)&UINT8_MAX);
 803              		.loc 1 289 26
 804 092c 8B45E8   		movl	-24(%rbp), %eax
 805 092f 8D5001   		leal	1(%rax), %edx
 806 0932 8955E8   		movl	%edx, -24(%rbp)
 807 0935 89C2     		movl	%eax, %edx
 808              		.loc 1 289 15
 809 0937 488B45F0 		movq	-16(%rbp), %rax
 810 093b 4801D0   		addq	%rdx, %rax
 811              		.loc 1 289 30
 812 093e 8B55D4   		movl	-44(%rbp), %edx
 813              		.loc 1 289 29
 814 0941 8810     		movb	%dl, (%rax)
 815              	.L38:
 290:/home/hkh/git/eapidk-code-r76-trunk/lib/linux/../EApiAPI.cpp ****   }
 291:/home/hkh/git/eapidk-code-r76-trunk/lib/linux/../EApiAPI.cpp **** 
 292:/home/hkh/git/eapidk-code-r76-trunk/lib/linux/../EApiAPI.cpp **** #if (STRICT_VALIDATION>1)
 293:/home/hkh/git/eapidk-code-r76-trunk/lib/linux/../EApiAPI.cpp ****   EApiI2CGetBusCap(Id, &MaxBlkLen);
 816              		.loc 1 293 3
 817 0943 488D55E0 		leaq	-32(%rbp), %rdx
 818 0947 8B45DC   		movl	-36(%rbp), %eax
 819 094a 4889D6   		movq	%rdx, %rsi
 820 094d 89C7     		movl	%eax, %edi
 821 094f E8000000 		call	EApiI2CGetBusCap@PLT
 821      00
 294:/home/hkh/git/eapidk-code-r76-trunk/lib/linux/../EApiAPI.cpp ****   EAPI_LIB_ASSERT_PARAMATER_CHECK(
 822              		.loc 1 294 3
 823 0954 8B55E8   		movl	-24(%rbp), %edx
 824 0957 8B45D0   		movl	-48(%rbp), %eax
 825 095a 01C2     		addl	%eax, %edx
 826 095c 8B45E0   		movl	-32(%rbp), %eax
 827 095f 39C2     		cmpl	%eax, %edx
 828 0961 764B     		jbe	.L40
 829              		.loc 1 294 3 is_stmt 0 discriminator 1
 830 0963 4883EC08 		subq	$8, %rsp
 831 0967 488D0500 		leaq	.LC22(%rip), %rax
 831      000000
 832 096e 50       		pushq	%rax
 833 096f 4C8D0D00 		leaq	.LC0(%rip), %r9
 833      000000
 834 0976 41B8FFFE 		movl	$-257, %r8d
 834      FFFF
 835 097c B9260100 		movl	$294, %ecx
 835      00
 836 0981 488D1500 		leaq	.LC9(%rip), %rdx
 836      000000
 837 0988 488D3500 		leaq	.LC2(%rip), %rsi
 837      000000
 838 098f BF450000 		movl	$69, %edi
 838      00
 839 0994 B8000000 		movl	$0, %eax
 839      00
 840 0999 E8000000 		call	siFormattedMessage_SC@PLT
 840      00
 841 099e 4883C410 		addq	$16, %rsp
GAS LISTING /tmp/cc79wf7w.s 			page 27


 842 09a2 C745E4FF 		movl	$-257, -28(%rbp)
 842      FEFFFF
 843 09a9 E9D40000 		jmp	.L33
 843      00
 844              	.L40:
 295:/home/hkh/git/eapidk-code-r76-trunk/lib/linux/../EApiAPI.cpp ****       EApiI2CWriteTransfer, 
 296:/home/hkh/git/eapidk-code-r76-trunk/lib/linux/../EApiAPI.cpp ****       (LclByteCnt+ByteCnt>MaxBlkLen), 
 297:/home/hkh/git/eapidk-code-r76-trunk/lib/linux/../EApiAPI.cpp ****       "Transfer Length too long for interface"
 298:/home/hkh/git/eapidk-code-r76-trunk/lib/linux/../EApiAPI.cpp ****       );
 299:/home/hkh/git/eapidk-code-r76-trunk/lib/linux/../EApiAPI.cpp **** #endif
 300:/home/hkh/git/eapidk-code-r76-trunk/lib/linux/../EApiAPI.cpp **** 
 301:/home/hkh/git/eapidk-code-r76-trunk/lib/linux/../EApiAPI.cpp ****   if(LclByteCnt)
 845              		.loc 1 301 5 is_stmt 1
 846 09ae 837DE800 		cmpl	$0, -24(%rbp)
 847 09b2 741E     		je	.L41
 302:/home/hkh/git/eapidk-code-r76-trunk/lib/linux/../EApiAPI.cpp ****     memcpy(pLclBuffer+LclByteCnt, pBuffer, ByteCnt);
 848              		.loc 1 302 5
 849 09b4 8B55D0   		movl	-48(%rbp), %edx
 850 09b7 8B4DE8   		movl	-24(%rbp), %ecx
 851              		.loc 1 302 22
 852 09ba 488B45F0 		movq	-16(%rbp), %rax
 853 09be 4801C1   		addq	%rax, %rcx
 854              		.loc 1 302 5
 855 09c1 488B45C8 		movq	-56(%rbp), %rax
 856 09c5 4889C6   		movq	%rax, %rsi
 857 09c8 4889CF   		movq	%rcx, %rdi
 858 09cb E8000000 		call	memcpy@PLT
 858      00
 859 09d0 EB14     		jmp	.L42
 860              	.L41:
 303:/home/hkh/git/eapidk-code-r76-trunk/lib/linux/../EApiAPI.cpp ****   else
 304:/home/hkh/git/eapidk-code-r76-trunk/lib/linux/../EApiAPI.cpp ****   {
 305:/home/hkh/git/eapidk-code-r76-trunk/lib/linux/../EApiAPI.cpp ****     free(pLclBuffer);
 861              		.loc 1 305 5
 862 09d2 488B45F0 		movq	-16(%rbp), %rax
 863 09d6 4889C7   		movq	%rax, %rdi
 864 09d9 E8000000 		call	free@PLT
 864      00
 306:/home/hkh/git/eapidk-code-r76-trunk/lib/linux/../EApiAPI.cpp ****     pLclBuffer=(uint8_t *)pBuffer;
 865              		.loc 1 306 15
 866 09de 488B45C8 		movq	-56(%rbp), %rax
 867 09e2 488945F0 		movq	%rax, -16(%rbp)
 868              	.L42:
 307:/home/hkh/git/eapidk-code-r76-trunk/lib/linux/../EApiAPI.cpp ****   }
 308:/home/hkh/git/eapidk-code-r76-trunk/lib/linux/../EApiAPI.cpp **** #if (STRICT_VALIDATION>1)
 309:/home/hkh/git/eapidk-code-r76-trunk/lib/linux/../EApiAPI.cpp ****   siFormattedMessage_M2(
 869              		.loc 1 309 3
 870 09e6 488B45F0 		movq	-16(%rbp), %rax
 871 09ea 8B00     		movl	(%rax), %eax
 872 09ec 4883EC08 		subq	$8, %rsp
 873 09f0 50       		pushq	%rax
 874 09f1 8B45D0   		movl	-48(%rbp), %eax
 875 09f4 50       		pushq	%rax
 876 09f5 8B45D4   		movl	-44(%rbp), %eax
 877 09f8 50       		pushq	%rax
 878 09f9 8B45D8   		movl	-40(%rbp), %eax
 879 09fc 50       		pushq	%rax
GAS LISTING /tmp/cc79wf7w.s 			page 28


 880 09fd 8B45DC   		movl	-36(%rbp), %eax
 881 0a00 50       		pushq	%rax
 882 0a01 4C8D0D00 		leaq	.LC20(%rip), %r9
 882      000000
 883 0a08 4C8D0500 		leaq	.LC8(%rip), %r8
 883      000000
 884 0a0f B9390100 		movl	$313, %ecx
 884      00
 885 0a14 488D1500 		leaq	.LC9(%rip), %rdx
 885      000000
 886 0a1b 488D3500 		leaq	.LC2(%rip), %rsi
 886      000000
 887 0a22 BF4C0000 		movl	$76, %edi
 887      00
 888 0a27 B8000000 		movl	$0, %eax
 888      00
 889 0a2c E8000000 		call	siFormattedMessage_M2@PLT
 889      00
 890 0a31 4883C430 		addq	$48, %rsp
 310:/home/hkh/git/eapidk-code-r76-trunk/lib/linux/../EApiAPI.cpp ****           'L'                   ,
 311:/home/hkh/git/eapidk-code-r76-trunk/lib/linux/../EApiAPI.cpp ****           __FILE__              ,
 312:/home/hkh/git/eapidk-code-r76-trunk/lib/linux/../EApiAPI.cpp ****           "EApiI2CWriteTransfer",
 313:/home/hkh/git/eapidk-code-r76-trunk/lib/linux/../EApiAPI.cpp ****           __LINE__              ,
 314:/home/hkh/git/eapidk-code-r76-trunk/lib/linux/../EApiAPI.cpp ****           "Info"                ,
 315:/home/hkh/git/eapidk-code-r76-trunk/lib/linux/../EApiAPI.cpp ****           "Id=%08"PRIX32" ADDR=%04"PRIX32" CMD=%04"PRIX32
 316:/home/hkh/git/eapidk-code-r76-trunk/lib/linux/../EApiAPI.cpp ****           " BCNT=%04"PRIX32" %08"PRIX32"\n", 
 317:/home/hkh/git/eapidk-code-r76-trunk/lib/linux/../EApiAPI.cpp ****           Id, Addr, Cmd, ByteCnt, 
 318:/home/hkh/git/eapidk-code-r76-trunk/lib/linux/../EApiAPI.cpp ****           ((uint32_t*)pLclBuffer)[0]
 319:/home/hkh/git/eapidk-code-r76-trunk/lib/linux/../EApiAPI.cpp ****         );
 320:/home/hkh/git/eapidk-code-r76-trunk/lib/linux/../EApiAPI.cpp **** #endif
 321:/home/hkh/git/eapidk-code-r76-trunk/lib/linux/../EApiAPI.cpp ****   ReturnValue=EApiI2CWriteReadRaw(
 322:/home/hkh/git/eapidk-code-r76-trunk/lib/linux/../EApiAPI.cpp ****       Id, 
 323:/home/hkh/git/eapidk-code-r76-trunk/lib/linux/../EApiAPI.cpp ****       (uint8_t)Addr, 
 324:/home/hkh/git/eapidk-code-r76-trunk/lib/linux/../EApiAPI.cpp ****       pLclBuffer, 
 325:/home/hkh/git/eapidk-code-r76-trunk/lib/linux/../EApiAPI.cpp ****       LclByteCnt+ByteCnt+1, 
 891              		.loc 1 325 17
 892 0a35 8B55E8   		movl	-24(%rbp), %edx
 893 0a38 8B45D0   		movl	-48(%rbp), %eax
 894 0a3b 01D0     		addl	%edx, %eax
 321:/home/hkh/git/eapidk-code-r76-trunk/lib/linux/../EApiAPI.cpp ****       Id, 
 895              		.loc 1 321 15
 896 0a3d 8D4801   		leal	1(%rax), %ecx
 323:/home/hkh/git/eapidk-code-r76-trunk/lib/linux/../EApiAPI.cpp ****       pLclBuffer, 
 897              		.loc 1 323 7
 898 0a40 8B45D8   		movl	-40(%rbp), %eax
 321:/home/hkh/git/eapidk-code-r76-trunk/lib/linux/../EApiAPI.cpp ****       Id, 
 899              		.loc 1 321 15
 900 0a43 0FB6F0   		movzbl	%al, %esi
 901 0a46 488B55F0 		movq	-16(%rbp), %rdx
 902 0a4a 8B45DC   		movl	-36(%rbp), %eax
 903 0a4d 4883EC08 		subq	$8, %rsp
 904 0a51 6A00     		pushq	$0
 905 0a53 41B90000 		movl	$0, %r9d
 905      0000
 906 0a59 41B80000 		movl	$0, %r8d
 906      0000
 907 0a5f 89C7     		movl	%eax, %edi
GAS LISTING /tmp/cc79wf7w.s 			page 29


 908 0a61 E8000000 		call	EApiI2CWriteReadRaw@PLT
 908      00
 909 0a66 4883C410 		addq	$16, %rsp
 910 0a6a 8945EC   		movl	%eax, -20(%rbp)
 326:/home/hkh/git/eapidk-code-r76-trunk/lib/linux/../EApiAPI.cpp ****       NULL, 
 327:/home/hkh/git/eapidk-code-r76-trunk/lib/linux/../EApiAPI.cpp ****       0, 
 328:/home/hkh/git/eapidk-code-r76-trunk/lib/linux/../EApiAPI.cpp ****       0
 329:/home/hkh/git/eapidk-code-r76-trunk/lib/linux/../EApiAPI.cpp ****       );
 330:/home/hkh/git/eapidk-code-r76-trunk/lib/linux/../EApiAPI.cpp ****   if(LclByteCnt)
 911              		.loc 1 330 5
 912 0a6d 837DE800 		cmpl	$0, -24(%rbp)
 913 0a71 740E     		je	.L45
 331:/home/hkh/git/eapidk-code-r76-trunk/lib/linux/../EApiAPI.cpp ****     free(pLclBuffer);
 914              		.loc 1 331 5
 915 0a73 488B45F0 		movq	-16(%rbp), %rax
 916 0a77 4889C7   		movq	%rax, %rdi
 917 0a7a E8000000 		call	free@PLT
 917      00
 918 0a7f EB01     		jmp	.L33
 919              	.L45:
 332:/home/hkh/git/eapidk-code-r76-trunk/lib/linux/../EApiAPI.cpp **** EAPI_LIB_ASSERT_EXIT
 920              		.loc 1 332 1
 921 0a81 90       		nop
 922              	.L33:
 333:/home/hkh/git/eapidk-code-r76-trunk/lib/linux/../EApiAPI.cpp ****   return StatusCode;
 923              		.loc 1 333 10
 924 0a82 8B45E4   		movl	-28(%rbp), %eax
 334:/home/hkh/git/eapidk-code-r76-trunk/lib/linux/../EApiAPI.cpp **** }
 925              		.loc 1 334 1
 926 0a85 488B75F8 		movq	-8(%rbp), %rsi
 927 0a89 64483334 		xorq	%fs:40, %rsi
 927      25280000 
 927      00
 928 0a92 7405     		je	.L44
 929 0a94 E8000000 		call	__stack_chk_fail@PLT
 929      00
 930              	.L44:
 931 0a99 C9       		leave
 932              		.cfi_def_cfa 7, 8
 933 0a9a C3       		ret
 934              		.cfi_endproc
 935              	.LFE9:
 937              		.globl	EApiI2CProbeDevice
 939              	EApiI2CProbeDevice:
 940              	.LFB10:
 335:/home/hkh/git/eapidk-code-r76-trunk/lib/linux/../EApiAPI.cpp **** 
 336:/home/hkh/git/eapidk-code-r76-trunk/lib/linux/../EApiAPI.cpp **** EApiStatus_t 
 337:/home/hkh/git/eapidk-code-r76-trunk/lib/linux/../EApiAPI.cpp **** EAPI_CALLTYPE
 338:/home/hkh/git/eapidk-code-r76-trunk/lib/linux/../EApiAPI.cpp **** EApiI2CProbeDevice(
 339:/home/hkh/git/eapidk-code-r76-trunk/lib/linux/../EApiAPI.cpp ****     __IN  EApiId_t  Id   , /* I2C Bus Id */
 340:/home/hkh/git/eapidk-code-r76-trunk/lib/linux/../EApiAPI.cpp ****     __IN  uint32_t  Addr   /* Encoded 7/10Bit 
 341:/home/hkh/git/eapidk-code-r76-trunk/lib/linux/../EApiAPI.cpp ****                             * I2C Device Address 
 342:/home/hkh/git/eapidk-code-r76-trunk/lib/linux/../EApiAPI.cpp ****                             */
 343:/home/hkh/git/eapidk-code-r76-trunk/lib/linux/../EApiAPI.cpp ****     )
 344:/home/hkh/git/eapidk-code-r76-trunk/lib/linux/../EApiAPI.cpp **** {
 941              		.loc 1 344 1
 942              		.cfi_startproc
GAS LISTING /tmp/cc79wf7w.s 			page 30


 943 0a9b F30F1EFA 		endbr64
 944 0a9f 55       		pushq	%rbp
 945              		.cfi_def_cfa_offset 16
 946              		.cfi_offset 6, -16
 947 0aa0 4889E5   		movq	%rsp, %rbp
 948              		.cfi_def_cfa_register 6
 949 0aa3 4883EC30 		subq	$48, %rsp
 950 0aa7 897DDC   		movl	%edi, -36(%rbp)
 951 0aaa 8975D8   		movl	%esi, -40(%rbp)
 952              		.loc 1 344 1
 953 0aad 64488B04 		movq	%fs:40, %rax
 953      25280000 
 953      00
 954 0ab6 488945F8 		movq	%rax, -8(%rbp)
 955 0aba 31C0     		xorl	%eax, %eax
 345:/home/hkh/git/eapidk-code-r76-trunk/lib/linux/../EApiAPI.cpp ****   EApiStatus_t StatusCode=EAPI_STATUS_SUCCESS;
 956              		.loc 1 345 16
 957 0abc C745E800 		movl	$0, -24(%rbp)
 957      000000
 346:/home/hkh/git/eapidk-code-r76-trunk/lib/linux/../EApiAPI.cpp ****   uint8_t LclpBuffer[8]={0};
 958              		.loc 1 346 11
 959 0ac3 48C745F0 		movq	$0, -16(%rbp)
 959      00000000 
 347:/home/hkh/git/eapidk-code-r76-trunk/lib/linux/../EApiAPI.cpp ****   int LclByteCnt=0;
 960              		.loc 1 347 7
 961 0acb C745EC00 		movl	$0, -20(%rbp)
 961      000000
 348:/home/hkh/git/eapidk-code-r76-trunk/lib/linux/../EApiAPI.cpp ****   EAPI_CHECK_INITIALIZED(EApiI2CWriteTransfer);
 962              		.loc 1 348 3
 963 0ad2 8B050000 		movl	Initialized(%rip), %eax
 963      0000
 964 0ad8 85C0     		testl	%eax, %eax
 965 0ada 7548     		jne	.L47
 966              		.loc 1 348 3 is_stmt 0 discriminator 1
 967 0adc 4883EC08 		subq	$8, %rsp
 968 0ae0 488D0500 		leaq	.LC3(%rip), %rax
 968      000000
 969 0ae7 50       		pushq	%rax
 970 0ae8 4C8D0D00 		leaq	.LC0(%rip), %r9
 970      000000
 971 0aef 41B8FFFF 		movl	$-1, %r8d
 971      FFFF
 972 0af5 B95C0100 		movl	$348, %ecx
 972      00
 973 0afa 488D1500 		leaq	.LC9(%rip), %rdx
 973      000000
 974 0b01 488D3500 		leaq	.LC2(%rip), %rsi
 974      000000
 975 0b08 BF450000 		movl	$69, %edi
 975      00
 976 0b0d B8000000 		movl	$0, %eax
 976      00
 977 0b12 E8000000 		call	siFormattedMessage_SC@PLT
 977      00
 978 0b17 4883C410 		addq	$16, %rsp
 979 0b1b C745E8FF 		movl	$-1, -24(%rbp)
 979      FFFFFF
GAS LISTING /tmp/cc79wf7w.s 			page 31


 980 0b22 EB6D     		jmp	.L48
 981              	.L47:
 349:/home/hkh/git/eapidk-code-r76-trunk/lib/linux/../EApiAPI.cpp ****   if(EAPI_I2C_IS_10BIT_ADDR(Addr))
 982              		.loc 1 349 6 is_stmt 1
 983 0b24 8B45D8   		movl	-40(%rbp), %eax
 984 0b27 2500F800 		andl	$63488, %eax
 984      00
 985              		.loc 1 349 5
 986 0b2c 3D00F000 		cmpl	$61440, %eax
 986      00
 987 0b31 7516     		jne	.L49
 350:/home/hkh/git/eapidk-code-r76-trunk/lib/linux/../EApiAPI.cpp ****   {
 351:/home/hkh/git/eapidk-code-r76-trunk/lib/linux/../EApiAPI.cpp ****     LclpBuffer[LclByteCnt++]=(uint8_t)(Addr&0xFF);
 988              		.loc 1 351 26
 989 0b33 8B45EC   		movl	-20(%rbp), %eax
 990 0b36 8D5001   		leal	1(%rax), %edx
 991 0b39 8955EC   		movl	%edx, -20(%rbp)
 992              		.loc 1 351 30
 993 0b3c 8B55D8   		movl	-40(%rbp), %edx
 994              		.loc 1 351 29
 995 0b3f 4898     		cltq
 996 0b41 885405F0 		movb	%dl, -16(%rbp,%rax)
 352:/home/hkh/git/eapidk-code-r76-trunk/lib/linux/../EApiAPI.cpp ****     Addr>>=8;
 997              		.loc 1 352 9
 998 0b45 C16DD808 		shrl	$8, -40(%rbp)
 999              	.L49:
 353:/home/hkh/git/eapidk-code-r76-trunk/lib/linux/../EApiAPI.cpp ****   }
 354:/home/hkh/git/eapidk-code-r76-trunk/lib/linux/../EApiAPI.cpp ****   StatusCode=EApiI2CWriteReadRaw(
 355:/home/hkh/git/eapidk-code-r76-trunk/lib/linux/../EApiAPI.cpp ****       Id, 
 356:/home/hkh/git/eapidk-code-r76-trunk/lib/linux/../EApiAPI.cpp ****       (uint8_t)Addr, 
 357:/home/hkh/git/eapidk-code-r76-trunk/lib/linux/../EApiAPI.cpp ****       LclpBuffer, 
 358:/home/hkh/git/eapidk-code-r76-trunk/lib/linux/../EApiAPI.cpp ****       LclByteCnt+1, 
 1000              		.loc 1 358 17
 1001 0b49 8B45EC   		movl	-20(%rbp), %eax
 1002 0b4c 83C001   		addl	$1, %eax
 354:/home/hkh/git/eapidk-code-r76-trunk/lib/linux/../EApiAPI.cpp ****       Id, 
 1003              		.loc 1 354 14
 1004 0b4f 89C1     		movl	%eax, %ecx
 356:/home/hkh/git/eapidk-code-r76-trunk/lib/linux/../EApiAPI.cpp ****       LclpBuffer, 
 1005              		.loc 1 356 7
 1006 0b51 8B45D8   		movl	-40(%rbp), %eax
 354:/home/hkh/git/eapidk-code-r76-trunk/lib/linux/../EApiAPI.cpp ****       Id, 
 1007              		.loc 1 354 14
 1008 0b54 0FB6F0   		movzbl	%al, %esi
 1009 0b57 488D55F0 		leaq	-16(%rbp), %rdx
 1010 0b5b 8B45DC   		movl	-36(%rbp), %eax
 1011 0b5e 4883EC08 		subq	$8, %rsp
 1012 0b62 6A00     		pushq	$0
 1013 0b64 41B90000 		movl	$0, %r9d
 1013      0000
 1014 0b6a 41B80000 		movl	$0, %r8d
 1014      0000
 1015 0b70 89C7     		movl	%eax, %edi
 1016 0b72 E8000000 		call	EApiI2CWriteReadRaw@PLT
 1016      00
 1017 0b77 4883C410 		addq	$16, %rsp
 1018 0b7b 8945E8   		movl	%eax, -24(%rbp)
GAS LISTING /tmp/cc79wf7w.s 			page 32


 359:/home/hkh/git/eapidk-code-r76-trunk/lib/linux/../EApiAPI.cpp ****       NULL, 
 360:/home/hkh/git/eapidk-code-r76-trunk/lib/linux/../EApiAPI.cpp ****       0, 
 361:/home/hkh/git/eapidk-code-r76-trunk/lib/linux/../EApiAPI.cpp ****       0
 362:/home/hkh/git/eapidk-code-r76-trunk/lib/linux/../EApiAPI.cpp ****       );
 363:/home/hkh/git/eapidk-code-r76-trunk/lib/linux/../EApiAPI.cpp ****   if(StatusCode==EAPI_STATUS_WRITE_ERROR)
 1019              		.loc 1 363 5
 1020 0b7e 817DE8FE 		cmpl	$-1282, -24(%rbp)
 1020      FAFFFF
 1021 0b85 7509     		jne	.L52
 364:/home/hkh/git/eapidk-code-r76-trunk/lib/linux/../EApiAPI.cpp ****     StatusCode=EAPI_STATUS_NOT_FOUND;
 1022              		.loc 1 364 15
 1023 0b87 C745E8FF 		movl	$-1025, -24(%rbp)
 1023      FBFFFF
 1024 0b8e EB01     		jmp	.L48
 1025              	.L52:
 365:/home/hkh/git/eapidk-code-r76-trunk/lib/linux/../EApiAPI.cpp **** EAPI_LIB_ASSERT_EXIT
 1026              		.loc 1 365 1
 1027 0b90 90       		nop
 1028              	.L48:
 366:/home/hkh/git/eapidk-code-r76-trunk/lib/linux/../EApiAPI.cpp ****   return StatusCode;
 1029              		.loc 1 366 10
 1030 0b91 8B45E8   		movl	-24(%rbp), %eax
 367:/home/hkh/git/eapidk-code-r76-trunk/lib/linux/../EApiAPI.cpp **** }
 1031              		.loc 1 367 1
 1032 0b94 488B7DF8 		movq	-8(%rbp), %rdi
 1033 0b98 6448333C 		xorq	%fs:40, %rdi
 1033      25280000 
 1033      00
 1034 0ba1 7405     		je	.L51
 1035 0ba3 E8000000 		call	__stack_chk_fail@PLT
 1035      00
 1036              	.L51:
 1037 0ba8 C9       		leave
 1038              		.cfi_def_cfa 7, 8
 1039 0ba9 C3       		ret
 1040              		.cfi_endproc
 1041              	.LFE10:
 1043              		.section	.rodata
 1044              	.LC23:
 1045 026f 45417069 		.string	"EApiBoardGetStringA"
 1045      426F6172 
 1045      64476574 
 1045      53747269 
 1045      6E674100 
 1046              	.LC24:
 1047 0283 28704275 		.string	"(pBufLen==NULL)"
 1047      664C656E 
 1047      3D3D4E55 
 1047      4C4C2900 
 1048              	.LC25:
 1049 0293 70427566 		.string	"pBuffer is NULL"
 1049      66657220 
 1049      6973204E 
 1049      554C4C00 
 1050              		.text
 1051              		.globl	EApiBoardGetStringA
 1053              	EApiBoardGetStringA:
GAS LISTING /tmp/cc79wf7w.s 			page 33


 1054              	.LFB11:
 368:/home/hkh/git/eapidk-code-r76-trunk/lib/linux/../EApiAPI.cpp **** /*
 369:/home/hkh/git/eapidk-code-r76-trunk/lib/linux/../EApiAPI.cpp ****  *
 370:/home/hkh/git/eapidk-code-r76-trunk/lib/linux/../EApiAPI.cpp ****  *  
 371:/home/hkh/git/eapidk-code-r76-trunk/lib/linux/../EApiAPI.cpp ****  *
 372:/home/hkh/git/eapidk-code-r76-trunk/lib/linux/../EApiAPI.cpp ****  *  Get String
 373:/home/hkh/git/eapidk-code-r76-trunk/lib/linux/../EApiAPI.cpp ****  *
 374:/home/hkh/git/eapidk-code-r76-trunk/lib/linux/../EApiAPI.cpp ****  *
 375:/home/hkh/git/eapidk-code-r76-trunk/lib/linux/../EApiAPI.cpp ****  *
 376:/home/hkh/git/eapidk-code-r76-trunk/lib/linux/../EApiAPI.cpp ****  */
 377:/home/hkh/git/eapidk-code-r76-trunk/lib/linux/../EApiAPI.cpp **** 
 378:/home/hkh/git/eapidk-code-r76-trunk/lib/linux/../EApiAPI.cpp **** EApiStatus_t
 379:/home/hkh/git/eapidk-code-r76-trunk/lib/linux/../EApiAPI.cpp **** EAPI_CALLTYPE
 380:/home/hkh/git/eapidk-code-r76-trunk/lib/linux/../EApiAPI.cpp **** EApiBoardGetStringA(
 381:/home/hkh/git/eapidk-code-r76-trunk/lib/linux/../EApiAPI.cpp ****     __IN      EApiId_t  Id      , /* Name Id */
 382:/home/hkh/git/eapidk-code-r76-trunk/lib/linux/../EApiAPI.cpp ****     __OUT     char     *pBuffer , /* Destination pBuffer */
 383:/home/hkh/git/eapidk-code-r76-trunk/lib/linux/../EApiAPI.cpp ****     __INOUT   uint32_t *pBufLen   /* pBuffer Length */
 384:/home/hkh/git/eapidk-code-r76-trunk/lib/linux/../EApiAPI.cpp ****     )
 385:/home/hkh/git/eapidk-code-r76-trunk/lib/linux/../EApiAPI.cpp **** {
 1055              		.loc 1 385 1
 1056              		.cfi_startproc
 1057 0baa F30F1EFA 		endbr64
 1058 0bae 55       		pushq	%rbp
 1059              		.cfi_def_cfa_offset 16
 1060              		.cfi_offset 6, -16
 1061 0baf 4889E5   		movq	%rsp, %rbp
 1062              		.cfi_def_cfa_register 6
 1063 0bb2 4883EC30 		subq	$48, %rsp
 1064 0bb6 897DEC   		movl	%edi, -20(%rbp)
 1065 0bb9 488975E0 		movq	%rsi, -32(%rbp)
 1066 0bbd 488955D8 		movq	%rdx, -40(%rbp)
 386:/home/hkh/git/eapidk-code-r76-trunk/lib/linux/../EApiAPI.cpp ****   EApiStatus_t StatusCode=EAPI_STATUS_SUCCESS;
 1067              		.loc 1 386 16
 1068 0bc1 C745FC00 		movl	$0, -4(%rbp)
 1068      000000
 387:/home/hkh/git/eapidk-code-r76-trunk/lib/linux/../EApiAPI.cpp ****   EAPI_CHECK_INITIALIZED(EApiBoardGetStringA);
 1069              		.loc 1 387 3
 1070 0bc8 8B050000 		movl	Initialized(%rip), %eax
 1070      0000
 1071 0bce 85C0     		testl	%eax, %eax
 1072 0bd0 754B     		jne	.L54
 1073              		.loc 1 387 3 is_stmt 0 discriminator 1
 1074 0bd2 4883EC08 		subq	$8, %rsp
 1075 0bd6 488D0500 		leaq	.LC3(%rip), %rax
 1075      000000
 1076 0bdd 50       		pushq	%rax
 1077 0bde 4C8D0D00 		leaq	.LC0(%rip), %r9
 1077      000000
 1078 0be5 41B8FFFF 		movl	$-1, %r8d
 1078      FFFF
 1079 0beb B9830100 		movl	$387, %ecx
 1079      00
 1080 0bf0 488D1500 		leaq	.LC23(%rip), %rdx
 1080      000000
 1081 0bf7 488D3500 		leaq	.LC2(%rip), %rsi
 1081      000000
 1082 0bfe BF450000 		movl	$69, %edi
GAS LISTING /tmp/cc79wf7w.s 			page 34


 1082      00
 1083 0c03 B8000000 		movl	$0, %eax
 1083      00
 1084 0c08 E8000000 		call	siFormattedMessage_SC@PLT
 1084      00
 1085 0c0d 4883C410 		addq	$16, %rsp
 1086 0c11 C745FCFF 		movl	$-1, -4(%rbp)
 1086      FFFFFF
 1087 0c18 E9C00000 		jmp	.L55
 1087      00
 1088              	.L54:
 388:/home/hkh/git/eapidk-code-r76-trunk/lib/linux/../EApiAPI.cpp ****   EAPI_LIB_ASSERT_PARAMATER_NULL (EApiBoardGetStringA, pBufLen);
 1089              		.loc 1 388 3 is_stmt 1
 1090 0c1d 48837DD8 		cmpq	$0, -40(%rbp)
 1090      00
 1091 0c22 7548     		jne	.L56
 1092              		.loc 1 388 3 is_stmt 0 discriminator 1
 1093 0c24 4883EC08 		subq	$8, %rsp
 1094 0c28 488D0500 		leaq	.LC24(%rip), %rax
 1094      000000
 1095 0c2f 50       		pushq	%rax
 1096 0c30 4C8D0D00 		leaq	.LC0(%rip), %r9
 1096      000000
 1097 0c37 41B8FFFE 		movl	$-257, %r8d
 1097      FFFF
 1098 0c3d B9840100 		movl	$388, %ecx
 1098      00
 1099 0c42 488D1500 		leaq	.LC23(%rip), %rdx
 1099      000000
 1100 0c49 488D3500 		leaq	.LC2(%rip), %rsi
 1100      000000
 1101 0c50 BF450000 		movl	$69, %edi
 1101      00
 1102 0c55 B8000000 		movl	$0, %eax
 1102      00
 1103 0c5a E8000000 		call	siFormattedMessage_SC@PLT
 1103      00
 1104 0c5f 4883C410 		addq	$16, %rsp
 1105 0c63 C745FCFF 		movl	$-257, -4(%rbp)
 1105      FEFFFF
 1106 0c6a EB71     		jmp	.L55
 1107              	.L56:
 389:/home/hkh/git/eapidk-code-r76-trunk/lib/linux/../EApiAPI.cpp ****   EAPI_LIB_ASSERT_PARAMATER_CHECK(
 1108              		.loc 1 389 3 is_stmt 1
 1109 0c6c 488B45D8 		movq	-40(%rbp), %rax
 1110 0c70 8B00     		movl	(%rax), %eax
 1111 0c72 85C0     		testl	%eax, %eax
 1112 0c74 744F     		je	.L57
 1113              		.loc 1 389 3 is_stmt 0 discriminator 1
 1114 0c76 48837DE0 		cmpq	$0, -32(%rbp)
 1114      00
 1115 0c7b 7548     		jne	.L57
 1116              		.loc 1 389 3 discriminator 2
 1117 0c7d 4883EC08 		subq	$8, %rsp
 1118 0c81 488D0500 		leaq	.LC25(%rip), %rax
 1118      000000
 1119 0c88 50       		pushq	%rax
GAS LISTING /tmp/cc79wf7w.s 			page 35


 1120 0c89 4C8D0D00 		leaq	.LC0(%rip), %r9
 1120      000000
 1121 0c90 41B8FFFE 		movl	$-257, %r8d
 1121      FFFF
 1122 0c96 B9850100 		movl	$389, %ecx
 1122      00
 1123 0c9b 488D1500 		leaq	.LC23(%rip), %rdx
 1123      000000
 1124 0ca2 488D3500 		leaq	.LC2(%rip), %rsi
 1124      000000
 1125 0ca9 BF450000 		movl	$69, %edi
 1125      00
 1126 0cae B8000000 		movl	$0, %eax
 1126      00
 1127 0cb3 E8000000 		call	siFormattedMessage_SC@PLT
 1127      00
 1128 0cb8 4883C410 		addq	$16, %rsp
 1129 0cbc C745FCFF 		movl	$-257, -4(%rbp)
 1129      FEFFFF
 1130 0cc3 EB18     		jmp	.L55
 1131              	.L57:
 390:/home/hkh/git/eapidk-code-r76-trunk/lib/linux/../EApiAPI.cpp ****       EApiBoardGetStringA, 
 391:/home/hkh/git/eapidk-code-r76-trunk/lib/linux/../EApiAPI.cpp ****       ((*pBufLen!=0)&&(pBuffer==NULL)) , 
 392:/home/hkh/git/eapidk-code-r76-trunk/lib/linux/../EApiAPI.cpp ****       "pBuffer is NULL"          
 393:/home/hkh/git/eapidk-code-r76-trunk/lib/linux/../EApiAPI.cpp ****       );
 394:/home/hkh/git/eapidk-code-r76-trunk/lib/linux/../EApiAPI.cpp **** 
 395:/home/hkh/git/eapidk-code-r76-trunk/lib/linux/../EApiAPI.cpp ****   StatusCode=EApiBoardGetStringAEmul(Id, pBuffer, pBufLen);
 1132              		.loc 1 395 14 is_stmt 1
 1133 0cc5 488B55D8 		movq	-40(%rbp), %rdx
 1134 0cc9 488B4DE0 		movq	-32(%rbp), %rcx
 1135 0ccd 8B45EC   		movl	-20(%rbp), %eax
 1136 0cd0 4889CE   		movq	%rcx, %rsi
 1137 0cd3 89C7     		movl	%eax, %edi
 1138 0cd5 E8000000 		call	EApiBoardGetStringAEmul@PLT
 1138      00
 1139 0cda 8945FC   		movl	%eax, -4(%rbp)
 1140              	.L55:
 396:/home/hkh/git/eapidk-code-r76-trunk/lib/linux/../EApiAPI.cpp **** EAPI_LIB_ASSERT_EXIT
 397:/home/hkh/git/eapidk-code-r76-trunk/lib/linux/../EApiAPI.cpp ****   return StatusCode;
 1141              		.loc 1 397 10
 1142 0cdd 8B45FC   		movl	-4(%rbp), %eax
 398:/home/hkh/git/eapidk-code-r76-trunk/lib/linux/../EApiAPI.cpp **** }
 1143              		.loc 1 398 1
 1144 0ce0 C9       		leave
 1145              		.cfi_def_cfa 7, 8
 1146 0ce1 C3       		ret
 1147              		.cfi_endproc
 1148              	.LFE11:
 1150              		.section	.rodata
 1151              	.LC26:
 1152 02a3 45417069 		.string	"EApiBoardGetValue"
 1152      426F6172 
 1152      64476574 
 1152      56616C75 
 1152      6500
 1153              	.LC27:
 1154 02b5 28705661 		.string	"(pValue==NULL)"
GAS LISTING /tmp/cc79wf7w.s 			page 36


 1154      6C75653D 
 1154      3D4E554C 
 1154      4C2900
 1155              	.LC28:
 1156 02c4 00       		.string	""
 1157              		.text
 1158              		.globl	EApiBoardGetValue
 1160              	EApiBoardGetValue:
 1161              	.LFB12:
 399:/home/hkh/git/eapidk-code-r76-trunk/lib/linux/../EApiAPI.cpp **** 
 400:/home/hkh/git/eapidk-code-r76-trunk/lib/linux/../EApiAPI.cpp **** /*
 401:/home/hkh/git/eapidk-code-r76-trunk/lib/linux/../EApiAPI.cpp ****  *
 402:/home/hkh/git/eapidk-code-r76-trunk/lib/linux/../EApiAPI.cpp ****  *  
 403:/home/hkh/git/eapidk-code-r76-trunk/lib/linux/../EApiAPI.cpp ****  *
 404:/home/hkh/git/eapidk-code-r76-trunk/lib/linux/../EApiAPI.cpp ****  *  Get Value
 405:/home/hkh/git/eapidk-code-r76-trunk/lib/linux/../EApiAPI.cpp ****  *
 406:/home/hkh/git/eapidk-code-r76-trunk/lib/linux/../EApiAPI.cpp ****  *
 407:/home/hkh/git/eapidk-code-r76-trunk/lib/linux/../EApiAPI.cpp ****  *
 408:/home/hkh/git/eapidk-code-r76-trunk/lib/linux/../EApiAPI.cpp ****  */
 409:/home/hkh/git/eapidk-code-r76-trunk/lib/linux/../EApiAPI.cpp **** EApiStatus_t 
 410:/home/hkh/git/eapidk-code-r76-trunk/lib/linux/../EApiAPI.cpp **** EAPI_CALLTYPE 
 411:/home/hkh/git/eapidk-code-r76-trunk/lib/linux/../EApiAPI.cpp **** EApiBoardGetValue(
 412:/home/hkh/git/eapidk-code-r76-trunk/lib/linux/../EApiAPI.cpp ****     __IN  EApiId_t  Id      , /* Value Id */
 413:/home/hkh/git/eapidk-code-r76-trunk/lib/linux/../EApiAPI.cpp ****     __OUT uint32_t *pValue    /* Return Value */
 414:/home/hkh/git/eapidk-code-r76-trunk/lib/linux/../EApiAPI.cpp ****     )
 415:/home/hkh/git/eapidk-code-r76-trunk/lib/linux/../EApiAPI.cpp **** {
 1162              		.loc 1 415 1
 1163              		.cfi_startproc
 1164 0ce2 F30F1EFA 		endbr64
 1165 0ce6 55       		pushq	%rbp
 1166              		.cfi_def_cfa_offset 16
 1167              		.cfi_offset 6, -16
 1168 0ce7 4889E5   		movq	%rsp, %rbp
 1169              		.cfi_def_cfa_register 6
 1170 0cea 4883EC20 		subq	$32, %rsp
 1171 0cee 897DEC   		movl	%edi, -20(%rbp)
 1172 0cf1 488975E0 		movq	%rsi, -32(%rbp)
 416:/home/hkh/git/eapidk-code-r76-trunk/lib/linux/../EApiAPI.cpp ****   EApiStatus_t StatusCode=EAPI_STATUS_SUCCESS;
 1173              		.loc 1 416 16
 1174 0cf5 C745FC00 		movl	$0, -4(%rbp)
 1174      000000
 417:/home/hkh/git/eapidk-code-r76-trunk/lib/linux/../EApiAPI.cpp ****   EAPI_CHECK_INITIALIZED(EApiBoardGetValue);
 1175              		.loc 1 417 3
 1176 0cfc 8B050000 		movl	Initialized(%rip), %eax
 1176      0000
 1177 0d02 85C0     		testl	%eax, %eax
 1178 0d04 754B     		jne	.L60
 1179              		.loc 1 417 3 is_stmt 0 discriminator 1
 1180 0d06 4883EC08 		subq	$8, %rsp
 1181 0d0a 488D0500 		leaq	.LC3(%rip), %rax
 1181      000000
 1182 0d11 50       		pushq	%rax
 1183 0d12 4C8D0D00 		leaq	.LC0(%rip), %r9
 1183      000000
 1184 0d19 41B8FFFF 		movl	$-1, %r8d
 1184      FFFF
 1185 0d1f B9A10100 		movl	$417, %ecx
GAS LISTING /tmp/cc79wf7w.s 			page 37


 1185      00
 1186 0d24 488D1500 		leaq	.LC26(%rip), %rdx
 1186      000000
 1187 0d2b 488D3500 		leaq	.LC2(%rip), %rsi
 1187      000000
 1188 0d32 BF450000 		movl	$69, %edi
 1188      00
 1189 0d37 B8000000 		movl	$0, %eax
 1189      00
 1190 0d3c E8000000 		call	siFormattedMessage_SC@PLT
 1190      00
 1191 0d41 4883C410 		addq	$16, %rsp
 1192 0d45 C745FCFF 		movl	$-1, -4(%rbp)
 1192      FFFFFF
 1193 0d4c E9BB0000 		jmp	.L61
 1193      00
 1194              	.L60:
 418:/home/hkh/git/eapidk-code-r76-trunk/lib/linux/../EApiAPI.cpp ****   EAPI_LIB_ASSERT_PARAMATER_NULL(EApiBoardGetValue, pValue);
 1195              		.loc 1 418 3 is_stmt 1
 1196 0d51 48837DE0 		cmpq	$0, -32(%rbp)
 1196      00
 1197 0d56 7548     		jne	.L62
 1198              		.loc 1 418 3 is_stmt 0 discriminator 1
 1199 0d58 4883EC08 		subq	$8, %rsp
 1200 0d5c 488D0500 		leaq	.LC27(%rip), %rax
 1200      000000
 1201 0d63 50       		pushq	%rax
 1202 0d64 4C8D0D00 		leaq	.LC0(%rip), %r9
 1202      000000
 1203 0d6b 41B8FFFE 		movl	$-257, %r8d
 1203      FFFF
 1204 0d71 B9A20100 		movl	$418, %ecx
 1204      00
 1205 0d76 488D1500 		leaq	.LC26(%rip), %rdx
 1205      000000
 1206 0d7d 488D3500 		leaq	.LC2(%rip), %rsi
 1206      000000
 1207 0d84 BF450000 		movl	$69, %edi
 1207      00
 1208 0d89 B8000000 		movl	$0, %eax
 1208      00
 1209 0d8e E8000000 		call	siFormattedMessage_SC@PLT
 1209      00
 1210 0d93 4883C410 		addq	$16, %rsp
 1211 0d97 C745FCFF 		movl	$-257, -4(%rbp)
 1211      FEFFFF
 1212 0d9e EB6C     		jmp	.L61
 1213              	.L62:
 419:/home/hkh/git/eapidk-code-r76-trunk/lib/linux/../EApiAPI.cpp **** 
 420:/home/hkh/git/eapidk-code-r76-trunk/lib/linux/../EApiAPI.cpp ****   if(Id==EAPI_ID_GET_EAPI_SPEC_VERSION){
 1214              		.loc 1 420 5 is_stmt 1
 1215 0da0 837DEC00 		cmpl	$0, -20(%rbp)
 1216 0da4 7552     		jne	.L63
 421:/home/hkh/git/eapidk-code-r76-trunk/lib/linux/../EApiAPI.cpp ****     *pValue=EAPI_VERSION;
 1217              		.loc 1 421 12
 1218 0da6 488B45E0 		movq	-32(%rbp), %rax
 1219 0daa C7000000 		movl	$16777216, (%rax)
GAS LISTING /tmp/cc79wf7w.s 			page 38


 1219      0001
 422:/home/hkh/git/eapidk-code-r76-trunk/lib/linux/../EApiAPI.cpp ****     EAPI_LIB_RETURN_SUCCESS(EApiBoardGetValue, "");
 1220              		.loc 1 422 5
 1221 0db0 4883EC08 		subq	$8, %rsp
 1222 0db4 488D0500 		leaq	.LC28(%rip), %rax
 1222      000000
 1223 0dbb 50       		pushq	%rax
 1224 0dbc 4C8D0D00 		leaq	.LC0(%rip), %r9
 1224      000000
 1225 0dc3 41B80000 		movl	$0, %r8d
 1225      0000
 1226 0dc9 B9A60100 		movl	$422, %ecx
 1226      00
 1227 0dce 488D1500 		leaq	.LC26(%rip), %rdx
 1227      000000
 1228 0dd5 488D3500 		leaq	.LC2(%rip), %rsi
 1228      000000
 1229 0ddc BF4C0000 		movl	$76, %edi
 1229      00
 1230 0de1 B8000000 		movl	$0, %eax
 1230      00
 1231 0de6 E8000000 		call	siFormattedMessage_SC@PLT
 1231      00
 1232 0deb 4883C410 		addq	$16, %rsp
 1233 0def C745FC00 		movl	$0, -4(%rbp)
 1233      000000
 1234 0df6 EB14     		jmp	.L61
 1235              	.L63:
 423:/home/hkh/git/eapidk-code-r76-trunk/lib/linux/../EApiAPI.cpp ****   }
 424:/home/hkh/git/eapidk-code-r76-trunk/lib/linux/../EApiAPI.cpp **** 
 425:/home/hkh/git/eapidk-code-r76-trunk/lib/linux/../EApiAPI.cpp ****   StatusCode=EApiBoardGetValueEmul(Id, pValue);
 1236              		.loc 1 425 14
 1237 0df8 488B55E0 		movq	-32(%rbp), %rdx
 1238 0dfc 8B45EC   		movl	-20(%rbp), %eax
 1239 0dff 4889D6   		movq	%rdx, %rsi
 1240 0e02 89C7     		movl	%eax, %edi
 1241 0e04 E8000000 		call	EApiBoardGetValueEmul@PLT
 1241      00
 1242 0e09 8945FC   		movl	%eax, -4(%rbp)
 1243              	.L61:
 426:/home/hkh/git/eapidk-code-r76-trunk/lib/linux/../EApiAPI.cpp **** EAPI_LIB_ASSERT_EXIT
 427:/home/hkh/git/eapidk-code-r76-trunk/lib/linux/../EApiAPI.cpp **** 
 428:/home/hkh/git/eapidk-code-r76-trunk/lib/linux/../EApiAPI.cpp ****   return StatusCode;
 1244              		.loc 1 428 10
 1245 0e0c 8B45FC   		movl	-4(%rbp), %eax
 429:/home/hkh/git/eapidk-code-r76-trunk/lib/linux/../EApiAPI.cpp **** }
 1246              		.loc 1 429 1
 1247 0e0f C9       		leave
 1248              		.cfi_def_cfa 7, 8
 1249 0e10 C3       		ret
 1250              		.cfi_endproc
 1251              	.LFE12:
 1253              		.section	.rodata
 1254              	.LC29:
 1255 02c5 45417069 		.string	"EApiVgaGetBacklightEnable"
 1255      56676147 
 1255      65744261 
GAS LISTING /tmp/cc79wf7w.s 			page 39


 1255      636B6C69 
 1255      67687445 
 1256              	.LC30:
 1257 02df 2870456E 		.string	"(pEnable==NULL)"
 1257      61626C65 
 1257      3D3D4E55 
 1257      4C4C2900 
 1258              		.text
 1259              		.globl	EApiVgaGetBacklightEnable
 1261              	EApiVgaGetBacklightEnable:
 1262              	.LFB13:
 430:/home/hkh/git/eapidk-code-r76-trunk/lib/linux/../EApiAPI.cpp **** 
 431:/home/hkh/git/eapidk-code-r76-trunk/lib/linux/../EApiAPI.cpp **** /*
 432:/home/hkh/git/eapidk-code-r76-trunk/lib/linux/../EApiAPI.cpp ****  *
 433:/home/hkh/git/eapidk-code-r76-trunk/lib/linux/../EApiAPI.cpp ****  *  
 434:/home/hkh/git/eapidk-code-r76-trunk/lib/linux/../EApiAPI.cpp ****  *
 435:/home/hkh/git/eapidk-code-r76-trunk/lib/linux/../EApiAPI.cpp ****  *  B A C K L I G H T
 436:/home/hkh/git/eapidk-code-r76-trunk/lib/linux/../EApiAPI.cpp ****  *
 437:/home/hkh/git/eapidk-code-r76-trunk/lib/linux/../EApiAPI.cpp ****  *
 438:/home/hkh/git/eapidk-code-r76-trunk/lib/linux/../EApiAPI.cpp ****  *
 439:/home/hkh/git/eapidk-code-r76-trunk/lib/linux/../EApiAPI.cpp ****  */
 440:/home/hkh/git/eapidk-code-r76-trunk/lib/linux/../EApiAPI.cpp **** EApiStatus_t
 441:/home/hkh/git/eapidk-code-r76-trunk/lib/linux/../EApiAPI.cpp **** EAPI_CALLTYPE
 442:/home/hkh/git/eapidk-code-r76-trunk/lib/linux/../EApiAPI.cpp **** EApiVgaGetBacklightEnable( 
 443:/home/hkh/git/eapidk-code-r76-trunk/lib/linux/../EApiAPI.cpp ****     __IN  EApiId_t  Id      , /* Backlight Id */
 444:/home/hkh/git/eapidk-code-r76-trunk/lib/linux/../EApiAPI.cpp ****     __OUT uint32_t *pEnable   /* Backlight Enable */
 445:/home/hkh/git/eapidk-code-r76-trunk/lib/linux/../EApiAPI.cpp ****     )
 446:/home/hkh/git/eapidk-code-r76-trunk/lib/linux/../EApiAPI.cpp **** {
 1263              		.loc 1 446 1
 1264              		.cfi_startproc
 1265 0e11 F30F1EFA 		endbr64
 1266 0e15 55       		pushq	%rbp
 1267              		.cfi_def_cfa_offset 16
 1268              		.cfi_offset 6, -16
 1269 0e16 4889E5   		movq	%rsp, %rbp
 1270              		.cfi_def_cfa_register 6
 1271 0e19 4883EC20 		subq	$32, %rsp
 1272 0e1d 897DEC   		movl	%edi, -20(%rbp)
 1273 0e20 488975E0 		movq	%rsi, -32(%rbp)
 447:/home/hkh/git/eapidk-code-r76-trunk/lib/linux/../EApiAPI.cpp ****   EApiStatus_t StatusCode=EAPI_STATUS_SUCCESS;
 1274              		.loc 1 447 16
 1275 0e24 C745FC00 		movl	$0, -4(%rbp)
 1275      000000
 448:/home/hkh/git/eapidk-code-r76-trunk/lib/linux/../EApiAPI.cpp ****   EAPI_CHECK_INITIALIZED(EApiVgaGetBacklightEnable);
 1276              		.loc 1 448 3
 1277 0e2b 8B050000 		movl	Initialized(%rip), %eax
 1277      0000
 1278 0e31 85C0     		testl	%eax, %eax
 1279 0e33 7548     		jne	.L66
 1280              		.loc 1 448 3 is_stmt 0 discriminator 1
 1281 0e35 4883EC08 		subq	$8, %rsp
 1282 0e39 488D0500 		leaq	.LC3(%rip), %rax
 1282      000000
 1283 0e40 50       		pushq	%rax
 1284 0e41 4C8D0D00 		leaq	.LC0(%rip), %r9
 1284      000000
 1285 0e48 41B8FFFF 		movl	$-1, %r8d
GAS LISTING /tmp/cc79wf7w.s 			page 40


 1285      FFFF
 1286 0e4e B9C00100 		movl	$448, %ecx
 1286      00
 1287 0e53 488D1500 		leaq	.LC29(%rip), %rdx
 1287      000000
 1288 0e5a 488D3500 		leaq	.LC2(%rip), %rsi
 1288      000000
 1289 0e61 BF450000 		movl	$69, %edi
 1289      00
 1290 0e66 B8000000 		movl	$0, %eax
 1290      00
 1291 0e6b E8000000 		call	siFormattedMessage_SC@PLT
 1291      00
 1292 0e70 4883C410 		addq	$16, %rsp
 1293 0e74 C745FCFF 		movl	$-1, -4(%rbp)
 1293      FFFFFF
 1294 0e7b EB63     		jmp	.L67
 1295              	.L66:
 449:/home/hkh/git/eapidk-code-r76-trunk/lib/linux/../EApiAPI.cpp ****   EAPI_LIB_ASSERT_PARAMATER_NULL(EApiVgaGetBacklightEnable, pEnable);
 1296              		.loc 1 449 3 is_stmt 1
 1297 0e7d 48837DE0 		cmpq	$0, -32(%rbp)
 1297      00
 1298 0e82 7548     		jne	.L68
 1299              		.loc 1 449 3 is_stmt 0 discriminator 1
 1300 0e84 4883EC08 		subq	$8, %rsp
 1301 0e88 488D0500 		leaq	.LC30(%rip), %rax
 1301      000000
 1302 0e8f 50       		pushq	%rax
 1303 0e90 4C8D0D00 		leaq	.LC0(%rip), %r9
 1303      000000
 1304 0e97 41B8FFFE 		movl	$-257, %r8d
 1304      FFFF
 1305 0e9d B9C10100 		movl	$449, %ecx
 1305      00
 1306 0ea2 488D1500 		leaq	.LC29(%rip), %rdx
 1306      000000
 1307 0ea9 488D3500 		leaq	.LC2(%rip), %rsi
 1307      000000
 1308 0eb0 BF450000 		movl	$69, %edi
 1308      00
 1309 0eb5 B8000000 		movl	$0, %eax
 1309      00
 1310 0eba E8000000 		call	siFormattedMessage_SC@PLT
 1310      00
 1311 0ebf 4883C410 		addq	$16, %rsp
 1312 0ec3 C745FCFF 		movl	$-257, -4(%rbp)
 1312      FEFFFF
 1313 0eca EB14     		jmp	.L67
 1314              	.L68:
 450:/home/hkh/git/eapidk-code-r76-trunk/lib/linux/../EApiAPI.cpp **** 
 451:/home/hkh/git/eapidk-code-r76-trunk/lib/linux/../EApiAPI.cpp ****   StatusCode=EApiVgaGetBacklightEnableEmul(Id, pEnable);
 1315              		.loc 1 451 14 is_stmt 1
 1316 0ecc 488B55E0 		movq	-32(%rbp), %rdx
 1317 0ed0 8B45EC   		movl	-20(%rbp), %eax
 1318 0ed3 4889D6   		movq	%rdx, %rsi
 1319 0ed6 89C7     		movl	%eax, %edi
 1320 0ed8 E8000000 		call	EApiVgaGetBacklightEnableEmul@PLT
GAS LISTING /tmp/cc79wf7w.s 			page 41


 1320      00
 1321 0edd 8945FC   		movl	%eax, -4(%rbp)
 1322              	.L67:
 452:/home/hkh/git/eapidk-code-r76-trunk/lib/linux/../EApiAPI.cpp **** EAPI_LIB_ASSERT_EXIT
 453:/home/hkh/git/eapidk-code-r76-trunk/lib/linux/../EApiAPI.cpp ****   return StatusCode;
 1323              		.loc 1 453 10
 1324 0ee0 8B45FC   		movl	-4(%rbp), %eax
 454:/home/hkh/git/eapidk-code-r76-trunk/lib/linux/../EApiAPI.cpp **** }
 1325              		.loc 1 454 1
 1326 0ee3 C9       		leave
 1327              		.cfi_def_cfa 7, 8
 1328 0ee4 C3       		ret
 1329              		.cfi_endproc
 1330              	.LFE13:
 1332              		.section	.rodata
 1333              	.LC31:
 1334 02ef 45417069 		.string	"EApiVgaSetBacklightEnable"
 1334      56676153 
 1334      65744261 
 1334      636B6C69 
 1334      67687445 
 1335              	.LC32:
 1336 0309 456E6162 		.string	"Enable Invalid Value"
 1336      6C652049 
 1336      6E76616C 
 1336      69642056 
 1336      616C7565 
 1337              		.text
 1338              		.globl	EApiVgaSetBacklightEnable
 1340              	EApiVgaSetBacklightEnable:
 1341              	.LFB14:
 455:/home/hkh/git/eapidk-code-r76-trunk/lib/linux/../EApiAPI.cpp **** 
 456:/home/hkh/git/eapidk-code-r76-trunk/lib/linux/../EApiAPI.cpp **** EApiStatus_t
 457:/home/hkh/git/eapidk-code-r76-trunk/lib/linux/../EApiAPI.cpp **** EAPI_CALLTYPE
 458:/home/hkh/git/eapidk-code-r76-trunk/lib/linux/../EApiAPI.cpp **** EApiVgaSetBacklightEnable(
 459:/home/hkh/git/eapidk-code-r76-trunk/lib/linux/../EApiAPI.cpp ****     __IN  EApiId_t  Id      , /* Backlight Id */
 460:/home/hkh/git/eapidk-code-r76-trunk/lib/linux/../EApiAPI.cpp ****     __IN  uint32_t  Enable    /* Backlight Enable */
 461:/home/hkh/git/eapidk-code-r76-trunk/lib/linux/../EApiAPI.cpp ****     )
 462:/home/hkh/git/eapidk-code-r76-trunk/lib/linux/../EApiAPI.cpp **** {
 1342              		.loc 1 462 1
 1343              		.cfi_startproc
 1344 0ee5 F30F1EFA 		endbr64
 1345 0ee9 55       		pushq	%rbp
 1346              		.cfi_def_cfa_offset 16
 1347              		.cfi_offset 6, -16
 1348 0eea 4889E5   		movq	%rsp, %rbp
 1349              		.cfi_def_cfa_register 6
 1350 0eed 4883EC20 		subq	$32, %rsp
 1351 0ef1 897DEC   		movl	%edi, -20(%rbp)
 1352 0ef4 8975E8   		movl	%esi, -24(%rbp)
 463:/home/hkh/git/eapidk-code-r76-trunk/lib/linux/../EApiAPI.cpp ****   EApiStatus_t StatusCode=EAPI_STATUS_SUCCESS;
 1353              		.loc 1 463 16
 1354 0ef7 C745FC00 		movl	$0, -4(%rbp)
 1354      000000
 464:/home/hkh/git/eapidk-code-r76-trunk/lib/linux/../EApiAPI.cpp **** 
 465:/home/hkh/git/eapidk-code-r76-trunk/lib/linux/../EApiAPI.cpp ****   EAPI_CHECK_INITIALIZED(EApiVgaSetBacklightEnable);
 1355              		.loc 1 465 3
GAS LISTING /tmp/cc79wf7w.s 			page 42


 1356 0efe 8B050000 		movl	Initialized(%rip), %eax
 1356      0000
 1357 0f04 85C0     		testl	%eax, %eax
 1358 0f06 7548     		jne	.L71
 1359              		.loc 1 465 3 is_stmt 0 discriminator 1
 1360 0f08 4883EC08 		subq	$8, %rsp
 1361 0f0c 488D0500 		leaq	.LC3(%rip), %rax
 1361      000000
 1362 0f13 50       		pushq	%rax
 1363 0f14 4C8D0D00 		leaq	.LC0(%rip), %r9
 1363      000000
 1364 0f1b 41B8FFFF 		movl	$-1, %r8d
 1364      FFFF
 1365 0f21 B9D10100 		movl	$465, %ecx
 1365      00
 1366 0f26 488D1500 		leaq	.LC31(%rip), %rdx
 1366      000000
 1367 0f2d 488D3500 		leaq	.LC2(%rip), %rsi
 1367      000000
 1368 0f34 BF450000 		movl	$69, %edi
 1368      00
 1369 0f39 B8000000 		movl	$0, %eax
 1369      00
 1370 0f3e E8000000 		call	siFormattedMessage_SC@PLT
 1370      00
 1371 0f43 4883C410 		addq	$16, %rsp
 1372 0f47 C745FCFF 		movl	$-1, -4(%rbp)
 1372      FFFFFF
 1373 0f4e EB66     		jmp	.L72
 1374              	.L71:
 466:/home/hkh/git/eapidk-code-r76-trunk/lib/linux/../EApiAPI.cpp ****   EAPI_LIB_ASSERT_PARAMATER_CHECK(
 1375              		.loc 1 466 3 is_stmt 1
 1376 0f50 837DE800 		cmpl	$0, -24(%rbp)
 1377 0f54 7506     		jne	.L73
 1378              		.loc 1 466 3 is_stmt 0 discriminator 2
 1379 0f56 837DE8FF 		cmpl	$-1, -24(%rbp)
 1380 0f5a 7448     		je	.L74
 1381              	.L73:
 1382              		.loc 1 466 3 discriminator 3
 1383 0f5c 4883EC08 		subq	$8, %rsp
 1384 0f60 488D0500 		leaq	.LC32(%rip), %rax
 1384      000000
 1385 0f67 50       		pushq	%rax
 1386 0f68 4C8D0D00 		leaq	.LC0(%rip), %r9
 1386      000000
 1387 0f6f 41B8FFFE 		movl	$-257, %r8d
 1387      FFFF
 1388 0f75 B9D20100 		movl	$466, %ecx
 1388      00
 1389 0f7a 488D1500 		leaq	.LC31(%rip), %rdx
 1389      000000
 1390 0f81 488D3500 		leaq	.LC2(%rip), %rsi
 1390      000000
 1391 0f88 BF450000 		movl	$69, %edi
 1391      00
 1392 0f8d B8000000 		movl	$0, %eax
 1392      00
GAS LISTING /tmp/cc79wf7w.s 			page 43


 1393 0f92 E8000000 		call	siFormattedMessage_SC@PLT
 1393      00
 1394 0f97 4883C410 		addq	$16, %rsp
 1395 0f9b C745FCFF 		movl	$-257, -4(%rbp)
 1395      FEFFFF
 1396 0fa2 EB12     		jmp	.L72
 1397              	.L74:
 467:/home/hkh/git/eapidk-code-r76-trunk/lib/linux/../EApiAPI.cpp ****       EApiVgaSetBacklightEnable, 
 468:/home/hkh/git/eapidk-code-r76-trunk/lib/linux/../EApiAPI.cpp ****       ((Enable!=EAPI_BACKLIGHT_SET_ON)||(Enable!=EAPI_BACKLIGHT_SET_OFF)), 
 469:/home/hkh/git/eapidk-code-r76-trunk/lib/linux/../EApiAPI.cpp ****       "Enable Invalid Value"
 470:/home/hkh/git/eapidk-code-r76-trunk/lib/linux/../EApiAPI.cpp ****       );
 471:/home/hkh/git/eapidk-code-r76-trunk/lib/linux/../EApiAPI.cpp **** 
 472:/home/hkh/git/eapidk-code-r76-trunk/lib/linux/../EApiAPI.cpp ****   StatusCode=EApiVgaSetBacklightEnableEmul(Id, Enable);
 1398              		.loc 1 472 14 is_stmt 1
 1399 0fa4 8B55E8   		movl	-24(%rbp), %edx
 1400 0fa7 8B45EC   		movl	-20(%rbp), %eax
 1401 0faa 89D6     		movl	%edx, %esi
 1402 0fac 89C7     		movl	%eax, %edi
 1403 0fae E8000000 		call	EApiVgaSetBacklightEnableEmul@PLT
 1403      00
 1404 0fb3 8945FC   		movl	%eax, -4(%rbp)
 1405              	.L72:
 473:/home/hkh/git/eapidk-code-r76-trunk/lib/linux/../EApiAPI.cpp **** EAPI_LIB_ASSERT_EXIT
 474:/home/hkh/git/eapidk-code-r76-trunk/lib/linux/../EApiAPI.cpp ****   return StatusCode;
 1406              		.loc 1 474 10
 1407 0fb6 8B45FC   		movl	-4(%rbp), %eax
 475:/home/hkh/git/eapidk-code-r76-trunk/lib/linux/../EApiAPI.cpp **** }
 1408              		.loc 1 475 1
 1409 0fb9 C9       		leave
 1410              		.cfi_def_cfa 7, 8
 1411 0fba C3       		ret
 1412              		.cfi_endproc
 1413              	.LFE14:
 1415              		.section	.rodata
 1416              	.LC33:
 1417 031e 45417069 		.string	"EApiVgaGetBacklightBrightness"
 1417      56676147 
 1417      65744261 
 1417      636B6C69 
 1417      67687442 
 1418              	.LC34:
 1419 033c 28704272 		.string	"(pBright==NULL)"
 1419      69676874 
 1419      3D3D4E55 
 1419      4C4C2900 
 1420              		.text
 1421              		.globl	EApiVgaGetBacklightBrightness
 1423              	EApiVgaGetBacklightBrightness:
 1424              	.LFB15:
 476:/home/hkh/git/eapidk-code-r76-trunk/lib/linux/../EApiAPI.cpp **** EApiStatus_t
 477:/home/hkh/git/eapidk-code-r76-trunk/lib/linux/../EApiAPI.cpp **** EAPI_CALLTYPE
 478:/home/hkh/git/eapidk-code-r76-trunk/lib/linux/../EApiAPI.cpp **** EApiVgaGetBacklightBrightness( 
 479:/home/hkh/git/eapidk-code-r76-trunk/lib/linux/../EApiAPI.cpp ****     __IN  EApiId_t  Id      , /* Backlight Id */
 480:/home/hkh/git/eapidk-code-r76-trunk/lib/linux/../EApiAPI.cpp ****     __OUT uint32_t *pBright   /* Backlight Brightness */
 481:/home/hkh/git/eapidk-code-r76-trunk/lib/linux/../EApiAPI.cpp ****     )
 482:/home/hkh/git/eapidk-code-r76-trunk/lib/linux/../EApiAPI.cpp **** {
 1425              		.loc 1 482 1
GAS LISTING /tmp/cc79wf7w.s 			page 44


 1426              		.cfi_startproc
 1427 0fbb F30F1EFA 		endbr64
 1428 0fbf 55       		pushq	%rbp
 1429              		.cfi_def_cfa_offset 16
 1430              		.cfi_offset 6, -16
 1431 0fc0 4889E5   		movq	%rsp, %rbp
 1432              		.cfi_def_cfa_register 6
 1433 0fc3 4883EC20 		subq	$32, %rsp
 1434 0fc7 897DEC   		movl	%edi, -20(%rbp)
 1435 0fca 488975E0 		movq	%rsi, -32(%rbp)
 483:/home/hkh/git/eapidk-code-r76-trunk/lib/linux/../EApiAPI.cpp ****   EApiStatus_t StatusCode=EAPI_STATUS_SUCCESS;
 1436              		.loc 1 483 16
 1437 0fce C745FC00 		movl	$0, -4(%rbp)
 1437      000000
 484:/home/hkh/git/eapidk-code-r76-trunk/lib/linux/../EApiAPI.cpp ****   EAPI_CHECK_INITIALIZED(EApiVgaGetBacklightBrightness);
 1438              		.loc 1 484 3
 1439 0fd5 8B050000 		movl	Initialized(%rip), %eax
 1439      0000
 1440 0fdb 85C0     		testl	%eax, %eax
 1441 0fdd 7548     		jne	.L77
 1442              		.loc 1 484 3 is_stmt 0 discriminator 1
 1443 0fdf 4883EC08 		subq	$8, %rsp
 1444 0fe3 488D0500 		leaq	.LC3(%rip), %rax
 1444      000000
 1445 0fea 50       		pushq	%rax
 1446 0feb 4C8D0D00 		leaq	.LC0(%rip), %r9
 1446      000000
 1447 0ff2 41B8FFFF 		movl	$-1, %r8d
 1447      FFFF
 1448 0ff8 B9E40100 		movl	$484, %ecx
 1448      00
 1449 0ffd 488D1500 		leaq	.LC33(%rip), %rdx
 1449      000000
 1450 1004 488D3500 		leaq	.LC2(%rip), %rsi
 1450      000000
 1451 100b BF450000 		movl	$69, %edi
 1451      00
 1452 1010 B8000000 		movl	$0, %eax
 1452      00
 1453 1015 E8000000 		call	siFormattedMessage_SC@PLT
 1453      00
 1454 101a 4883C410 		addq	$16, %rsp
 1455 101e C745FCFF 		movl	$-1, -4(%rbp)
 1455      FFFFFF
 1456 1025 EB63     		jmp	.L78
 1457              	.L77:
 485:/home/hkh/git/eapidk-code-r76-trunk/lib/linux/../EApiAPI.cpp ****   EAPI_LIB_ASSERT_PARAMATER_NULL(EApiVgaGetBacklightBrightness, pBright);
 1458              		.loc 1 485 3 is_stmt 1
 1459 1027 48837DE0 		cmpq	$0, -32(%rbp)
 1459      00
 1460 102c 7548     		jne	.L79
 1461              		.loc 1 485 3 is_stmt 0 discriminator 1
 1462 102e 4883EC08 		subq	$8, %rsp
 1463 1032 488D0500 		leaq	.LC34(%rip), %rax
 1463      000000
 1464 1039 50       		pushq	%rax
 1465 103a 4C8D0D00 		leaq	.LC0(%rip), %r9
GAS LISTING /tmp/cc79wf7w.s 			page 45


 1465      000000
 1466 1041 41B8FFFE 		movl	$-257, %r8d
 1466      FFFF
 1467 1047 B9E50100 		movl	$485, %ecx
 1467      00
 1468 104c 488D1500 		leaq	.LC33(%rip), %rdx
 1468      000000
 1469 1053 488D3500 		leaq	.LC2(%rip), %rsi
 1469      000000
 1470 105a BF450000 		movl	$69, %edi
 1470      00
 1471 105f B8000000 		movl	$0, %eax
 1471      00
 1472 1064 E8000000 		call	siFormattedMessage_SC@PLT
 1472      00
 1473 1069 4883C410 		addq	$16, %rsp
 1474 106d C745FCFF 		movl	$-257, -4(%rbp)
 1474      FEFFFF
 1475 1074 EB14     		jmp	.L78
 1476              	.L79:
 486:/home/hkh/git/eapidk-code-r76-trunk/lib/linux/../EApiAPI.cpp **** 
 487:/home/hkh/git/eapidk-code-r76-trunk/lib/linux/../EApiAPI.cpp ****   StatusCode=EApiVgaGetBacklightBrightnessEmul(Id, pBright);
 1477              		.loc 1 487 14 is_stmt 1
 1478 1076 488B55E0 		movq	-32(%rbp), %rdx
 1479 107a 8B45EC   		movl	-20(%rbp), %eax
 1480 107d 4889D6   		movq	%rdx, %rsi
 1481 1080 89C7     		movl	%eax, %edi
 1482 1082 E8000000 		call	EApiVgaGetBacklightBrightnessEmul@PLT
 1482      00
 1483 1087 8945FC   		movl	%eax, -4(%rbp)
 1484              	.L78:
 488:/home/hkh/git/eapidk-code-r76-trunk/lib/linux/../EApiAPI.cpp **** EAPI_LIB_ASSERT_EXIT
 489:/home/hkh/git/eapidk-code-r76-trunk/lib/linux/../EApiAPI.cpp ****   return StatusCode;
 1485              		.loc 1 489 10
 1486 108a 8B45FC   		movl	-4(%rbp), %eax
 490:/home/hkh/git/eapidk-code-r76-trunk/lib/linux/../EApiAPI.cpp **** }
 1487              		.loc 1 490 1
 1488 108d C9       		leave
 1489              		.cfi_def_cfa 7, 8
 1490 108e C3       		ret
 1491              		.cfi_endproc
 1492              	.LFE15:
 1494              		.section	.rodata
 1495              	.LC35:
 1496 034c 45417069 		.string	"EApiVgaSetBacklightBrightness"
 1496      56676153 
 1496      65744261 
 1496      636B6C69 
 1496      67687442 
 1497              	.LC36:
 1498 036a 42726967 		.string	"Brightness Invalid Value"
 1498      68746E65 
 1498      73732049 
 1498      6E76616C 
 1498      69642056 
 1499              		.text
 1500              		.globl	EApiVgaSetBacklightBrightness
GAS LISTING /tmp/cc79wf7w.s 			page 46


 1502              	EApiVgaSetBacklightBrightness:
 1503              	.LFB16:
 491:/home/hkh/git/eapidk-code-r76-trunk/lib/linux/../EApiAPI.cpp **** 
 492:/home/hkh/git/eapidk-code-r76-trunk/lib/linux/../EApiAPI.cpp **** EApiStatus_t 
 493:/home/hkh/git/eapidk-code-r76-trunk/lib/linux/../EApiAPI.cpp **** EAPI_CALLTYPE
 494:/home/hkh/git/eapidk-code-r76-trunk/lib/linux/../EApiAPI.cpp **** EApiVgaSetBacklightBrightness(
 495:/home/hkh/git/eapidk-code-r76-trunk/lib/linux/../EApiAPI.cpp ****     __IN  EApiId_t  Id      , /* Backlight Id */
 496:/home/hkh/git/eapidk-code-r76-trunk/lib/linux/../EApiAPI.cpp ****     __IN  uint32_t  Bright    /* Backlight Brightness */
 497:/home/hkh/git/eapidk-code-r76-trunk/lib/linux/../EApiAPI.cpp ****     )
 498:/home/hkh/git/eapidk-code-r76-trunk/lib/linux/../EApiAPI.cpp **** {
 1504              		.loc 1 498 1
 1505              		.cfi_startproc
 1506 108f F30F1EFA 		endbr64
 1507 1093 55       		pushq	%rbp
 1508              		.cfi_def_cfa_offset 16
 1509              		.cfi_offset 6, -16
 1510 1094 4889E5   		movq	%rsp, %rbp
 1511              		.cfi_def_cfa_register 6
 1512 1097 4883EC20 		subq	$32, %rsp
 1513 109b 897DEC   		movl	%edi, -20(%rbp)
 1514 109e 8975E8   		movl	%esi, -24(%rbp)
 499:/home/hkh/git/eapidk-code-r76-trunk/lib/linux/../EApiAPI.cpp ****   EApiStatus_t StatusCode=EAPI_STATUS_SUCCESS;
 1515              		.loc 1 499 16
 1516 10a1 C745FC00 		movl	$0, -4(%rbp)
 1516      000000
 500:/home/hkh/git/eapidk-code-r76-trunk/lib/linux/../EApiAPI.cpp ****   EAPI_CHECK_INITIALIZED(EApiVgaSetBacklightBrightness);
 1517              		.loc 1 500 3
 1518 10a8 8B050000 		movl	Initialized(%rip), %eax
 1518      0000
 1519 10ae 85C0     		testl	%eax, %eax
 1520 10b0 7548     		jne	.L82
 1521              		.loc 1 500 3 is_stmt 0 discriminator 1
 1522 10b2 4883EC08 		subq	$8, %rsp
 1523 10b6 488D0500 		leaq	.LC3(%rip), %rax
 1523      000000
 1524 10bd 50       		pushq	%rax
 1525 10be 4C8D0D00 		leaq	.LC0(%rip), %r9
 1525      000000
 1526 10c5 41B8FFFF 		movl	$-1, %r8d
 1526      FFFF
 1527 10cb B9F40100 		movl	$500, %ecx
 1527      00
 1528 10d0 488D1500 		leaq	.LC35(%rip), %rdx
 1528      000000
 1529 10d7 488D3500 		leaq	.LC2(%rip), %rsi
 1529      000000
 1530 10de BF450000 		movl	$69, %edi
 1530      00
 1531 10e3 B8000000 		movl	$0, %eax
 1531      00
 1532 10e8 E8000000 		call	siFormattedMessage_SC@PLT
 1532      00
 1533 10ed 4883C410 		addq	$16, %rsp
 1534 10f1 C745FCFF 		movl	$-1, -4(%rbp)
 1534      FFFFFF
 1535 10f8 EB63     		jmp	.L83
 1536              	.L82:
GAS LISTING /tmp/cc79wf7w.s 			page 47


 501:/home/hkh/git/eapidk-code-r76-trunk/lib/linux/../EApiAPI.cpp ****   EAPI_LIB_ASSERT_PARAMATER_CHECK(
 1537              		.loc 1 501 3 is_stmt 1
 1538 10fa 817DE8FF 		cmpl	$255, -24(%rbp)
 1538      000000
 1539 1101 7648     		jbe	.L84
 1540              		.loc 1 501 3 is_stmt 0 discriminator 1
 1541 1103 4883EC08 		subq	$8, %rsp
 1542 1107 488D0500 		leaq	.LC36(%rip), %rax
 1542      000000
 1543 110e 50       		pushq	%rax
 1544 110f 4C8D0D00 		leaq	.LC0(%rip), %r9
 1544      000000
 1545 1116 41B8FFFE 		movl	$-257, %r8d
 1545      FFFF
 1546 111c B9F50100 		movl	$501, %ecx
 1546      00
 1547 1121 488D1500 		leaq	.LC35(%rip), %rdx
 1547      000000
 1548 1128 488D3500 		leaq	.LC2(%rip), %rsi
 1548      000000
 1549 112f BF450000 		movl	$69, %edi
 1549      00
 1550 1134 B8000000 		movl	$0, %eax
 1550      00
 1551 1139 E8000000 		call	siFormattedMessage_SC@PLT
 1551      00
 1552 113e 4883C410 		addq	$16, %rsp
 1553 1142 C745FCFF 		movl	$-257, -4(%rbp)
 1553      FEFFFF
 1554 1149 EB12     		jmp	.L83
 1555              	.L84:
 502:/home/hkh/git/eapidk-code-r76-trunk/lib/linux/../EApiAPI.cpp ****       EApiVgaSetBacklightBrightness, 
 503:/home/hkh/git/eapidk-code-r76-trunk/lib/linux/../EApiAPI.cpp ****       (Bright>EAPI_BACKLIGHT_SET_BRIGHTEST), 
 504:/home/hkh/git/eapidk-code-r76-trunk/lib/linux/../EApiAPI.cpp ****       "Brightness Invalid Value"
 505:/home/hkh/git/eapidk-code-r76-trunk/lib/linux/../EApiAPI.cpp ****       );
 506:/home/hkh/git/eapidk-code-r76-trunk/lib/linux/../EApiAPI.cpp **** 
 507:/home/hkh/git/eapidk-code-r76-trunk/lib/linux/../EApiAPI.cpp ****   StatusCode=EApiVgaSetBacklightBrightnessEmul(Id, Bright);
 1556              		.loc 1 507 14 is_stmt 1
 1557 114b 8B55E8   		movl	-24(%rbp), %edx
 1558 114e 8B45EC   		movl	-20(%rbp), %eax
 1559 1151 89D6     		movl	%edx, %esi
 1560 1153 89C7     		movl	%eax, %edi
 1561 1155 E8000000 		call	EApiVgaSetBacklightBrightnessEmul@PLT
 1561      00
 1562 115a 8945FC   		movl	%eax, -4(%rbp)
 1563              	.L83:
 508:/home/hkh/git/eapidk-code-r76-trunk/lib/linux/../EApiAPI.cpp **** EAPI_LIB_ASSERT_EXIT
 509:/home/hkh/git/eapidk-code-r76-trunk/lib/linux/../EApiAPI.cpp ****   return StatusCode;
 1564              		.loc 1 509 10
 1565 115d 8B45FC   		movl	-4(%rbp), %eax
 510:/home/hkh/git/eapidk-code-r76-trunk/lib/linux/../EApiAPI.cpp **** }
 1566              		.loc 1 510 1
 1567 1160 C9       		leave
 1568              		.cfi_def_cfa 7, 8
 1569 1161 C3       		ret
 1570              		.cfi_endproc
 1571              	.LFE16:
GAS LISTING /tmp/cc79wf7w.s 			page 48


 1573              		.section	.rodata
 1574              	.LC37:
 1575 0383 45417069 		.string	"EApiGPIOGetLevel"
 1575      4750494F 
 1575      4765744C 
 1575      6576656C 
 1575      00
 1576              	.LC38:
 1577 0394 28426974 		.string	"(Bitmask==0)"
 1577      6D61736B 
 1577      3D3D3029 
 1577      00
 1578              	.LC39:
 1579 03a1 28704C65 		.string	"(pLevel==NULL)"
 1579      76656C3D 
 1579      3D4E554C 
 1579      4C2900
 1580              		.text
 1581              		.globl	EApiGPIOGetLevel
 1583              	EApiGPIOGetLevel:
 1584              	.LFB17:
 511:/home/hkh/git/eapidk-code-r76-trunk/lib/linux/../EApiAPI.cpp **** 
 512:/home/hkh/git/eapidk-code-r76-trunk/lib/linux/../EApiAPI.cpp **** 
 513:/home/hkh/git/eapidk-code-r76-trunk/lib/linux/../EApiAPI.cpp **** 
 514:/home/hkh/git/eapidk-code-r76-trunk/lib/linux/../EApiAPI.cpp **** /*
 515:/home/hkh/git/eapidk-code-r76-trunk/lib/linux/../EApiAPI.cpp ****  *
 516:/home/hkh/git/eapidk-code-r76-trunk/lib/linux/../EApiAPI.cpp ****  *  
 517:/home/hkh/git/eapidk-code-r76-trunk/lib/linux/../EApiAPI.cpp ****  *
 518:/home/hkh/git/eapidk-code-r76-trunk/lib/linux/../EApiAPI.cpp ****  *  G P I O
 519:/home/hkh/git/eapidk-code-r76-trunk/lib/linux/../EApiAPI.cpp ****  *
 520:/home/hkh/git/eapidk-code-r76-trunk/lib/linux/../EApiAPI.cpp ****  *
 521:/home/hkh/git/eapidk-code-r76-trunk/lib/linux/../EApiAPI.cpp ****  *
 522:/home/hkh/git/eapidk-code-r76-trunk/lib/linux/../EApiAPI.cpp ****  */
 523:/home/hkh/git/eapidk-code-r76-trunk/lib/linux/../EApiAPI.cpp **** 
 524:/home/hkh/git/eapidk-code-r76-trunk/lib/linux/../EApiAPI.cpp **** EApiStatus_t 
 525:/home/hkh/git/eapidk-code-r76-trunk/lib/linux/../EApiAPI.cpp **** EAPI_CALLTYPE 
 526:/home/hkh/git/eapidk-code-r76-trunk/lib/linux/../EApiAPI.cpp **** EApiGPIOGetLevel(
 527:/home/hkh/git/eapidk-code-r76-trunk/lib/linux/../EApiAPI.cpp ****     __IN  EApiId_t Id          , /* GPIO Id */
 528:/home/hkh/git/eapidk-code-r76-trunk/lib/linux/../EApiAPI.cpp ****     __IN  uint32_t Bitmask     , /* Bit mask of Affected
 529:/home/hkh/git/eapidk-code-r76-trunk/lib/linux/../EApiAPI.cpp ****                                   * Bits 
 530:/home/hkh/git/eapidk-code-r76-trunk/lib/linux/../EApiAPI.cpp ****                                   */
 531:/home/hkh/git/eapidk-code-r76-trunk/lib/linux/../EApiAPI.cpp ****     __OUT uint32_t *pLevel       /* Current Level */
 532:/home/hkh/git/eapidk-code-r76-trunk/lib/linux/../EApiAPI.cpp ****     )
 533:/home/hkh/git/eapidk-code-r76-trunk/lib/linux/../EApiAPI.cpp **** {
 1585              		.loc 1 533 1
 1586              		.cfi_startproc
 1587 1162 F30F1EFA 		endbr64
 1588 1166 55       		pushq	%rbp
 1589              		.cfi_def_cfa_offset 16
 1590              		.cfi_offset 6, -16
 1591 1167 4889E5   		movq	%rsp, %rbp
 1592              		.cfi_def_cfa_register 6
 1593 116a 4883EC20 		subq	$32, %rsp
 1594 116e 897DEC   		movl	%edi, -20(%rbp)
 1595 1171 8975E8   		movl	%esi, -24(%rbp)
 1596 1174 488955E0 		movq	%rdx, -32(%rbp)
 534:/home/hkh/git/eapidk-code-r76-trunk/lib/linux/../EApiAPI.cpp ****   EApiStatus_t StatusCode=EAPI_STATUS_SUCCESS;
GAS LISTING /tmp/cc79wf7w.s 			page 49


 1597              		.loc 1 534 16
 1598 1178 C745FC00 		movl	$0, -4(%rbp)
 1598      000000
 535:/home/hkh/git/eapidk-code-r76-trunk/lib/linux/../EApiAPI.cpp ****   EAPI_CHECK_INITIALIZED(EApiGPIOGetLevel);
 1599              		.loc 1 535 3
 1600 117f 8B050000 		movl	Initialized(%rip), %eax
 1600      0000
 1601 1185 85C0     		testl	%eax, %eax
 1602 1187 754B     		jne	.L87
 1603              		.loc 1 535 3 is_stmt 0 discriminator 1
 1604 1189 4883EC08 		subq	$8, %rsp
 1605 118d 488D0500 		leaq	.LC3(%rip), %rax
 1605      000000
 1606 1194 50       		pushq	%rax
 1607 1195 4C8D0D00 		leaq	.LC0(%rip), %r9
 1607      000000
 1608 119c 41B8FFFF 		movl	$-1, %r8d
 1608      FFFF
 1609 11a2 B9170200 		movl	$535, %ecx
 1609      00
 1610 11a7 488D1500 		leaq	.LC37(%rip), %rdx
 1610      000000
 1611 11ae 488D3500 		leaq	.LC2(%rip), %rsi
 1611      000000
 1612 11b5 BF450000 		movl	$69, %edi
 1612      00
 1613 11ba B8000000 		movl	$0, %eax
 1613      00
 1614 11bf E8000000 		call	siFormattedMessage_SC@PLT
 1614      00
 1615 11c4 4883C410 		addq	$16, %rsp
 1616 11c8 C745FCFF 		movl	$-1, -4(%rbp)
 1616      FFFFFF
 1617 11cf E9B30000 		jmp	.L88
 1617      00
 1618              	.L87:
 536:/home/hkh/git/eapidk-code-r76-trunk/lib/linux/../EApiAPI.cpp ****   EAPI_LIB_ASSERT_PARAMATER_ZERO(EApiGPIOGetLevel, Bitmask);
 1619              		.loc 1 536 3 is_stmt 1
 1620 11d4 837DE800 		cmpl	$0, -24(%rbp)
 1621 11d8 7548     		jne	.L89
 1622              		.loc 1 536 3 is_stmt 0 discriminator 1
 1623 11da 4883EC08 		subq	$8, %rsp
 1624 11de 488D0500 		leaq	.LC38(%rip), %rax
 1624      000000
 1625 11e5 50       		pushq	%rax
 1626 11e6 4C8D0D00 		leaq	.LC0(%rip), %r9
 1626      000000
 1627 11ed 41B8FFFE 		movl	$-257, %r8d
 1627      FFFF
 1628 11f3 B9180200 		movl	$536, %ecx
 1628      00
 1629 11f8 488D1500 		leaq	.LC37(%rip), %rdx
 1629      000000
 1630 11ff 488D3500 		leaq	.LC2(%rip), %rsi
 1630      000000
 1631 1206 BF450000 		movl	$69, %edi
 1631      00
GAS LISTING /tmp/cc79wf7w.s 			page 50


 1632 120b B8000000 		movl	$0, %eax
 1632      00
 1633 1210 E8000000 		call	siFormattedMessage_SC@PLT
 1633      00
 1634 1215 4883C410 		addq	$16, %rsp
 1635 1219 C745FCFF 		movl	$-257, -4(%rbp)
 1635      FEFFFF
 1636 1220 EB65     		jmp	.L88
 1637              	.L89:
 537:/home/hkh/git/eapidk-code-r76-trunk/lib/linux/../EApiAPI.cpp ****   EAPI_LIB_ASSERT_PARAMATER_NULL(EApiGPIOGetLevel, pLevel);
 1638              		.loc 1 537 3 is_stmt 1
 1639 1222 48837DE0 		cmpq	$0, -32(%rbp)
 1639      00
 1640 1227 7548     		jne	.L90
 1641              		.loc 1 537 3 is_stmt 0 discriminator 1
 1642 1229 4883EC08 		subq	$8, %rsp
 1643 122d 488D0500 		leaq	.LC39(%rip), %rax
 1643      000000
 1644 1234 50       		pushq	%rax
 1645 1235 4C8D0D00 		leaq	.LC0(%rip), %r9
 1645      000000
 1646 123c 41B8FFFE 		movl	$-257, %r8d
 1646      FFFF
 1647 1242 B9190200 		movl	$537, %ecx
 1647      00
 1648 1247 488D1500 		leaq	.LC37(%rip), %rdx
 1648      000000
 1649 124e 488D3500 		leaq	.LC2(%rip), %rsi
 1649      000000
 1650 1255 BF450000 		movl	$69, %edi
 1650      00
 1651 125a B8000000 		movl	$0, %eax
 1651      00
 1652 125f E8000000 		call	siFormattedMessage_SC@PLT
 1652      00
 1653 1264 4883C410 		addq	$16, %rsp
 1654 1268 C745FCFF 		movl	$-257, -4(%rbp)
 1654      FEFFFF
 1655 126f EB16     		jmp	.L88
 1656              	.L90:
 538:/home/hkh/git/eapidk-code-r76-trunk/lib/linux/../EApiAPI.cpp **** 
 539:/home/hkh/git/eapidk-code-r76-trunk/lib/linux/../EApiAPI.cpp ****   StatusCode=EApiGPIOGetLevelEmul(Id, Bitmask, pLevel);
 1657              		.loc 1 539 14 is_stmt 1
 1658 1271 488B55E0 		movq	-32(%rbp), %rdx
 1659 1275 8B4DE8   		movl	-24(%rbp), %ecx
 1660 1278 8B45EC   		movl	-20(%rbp), %eax
 1661 127b 89CE     		movl	%ecx, %esi
 1662 127d 89C7     		movl	%eax, %edi
 1663 127f E8000000 		call	EApiGPIOGetLevelEmul@PLT
 1663      00
 1664 1284 8945FC   		movl	%eax, -4(%rbp)
 1665              	.L88:
 540:/home/hkh/git/eapidk-code-r76-trunk/lib/linux/../EApiAPI.cpp **** EAPI_LIB_ASSERT_EXIT
 541:/home/hkh/git/eapidk-code-r76-trunk/lib/linux/../EApiAPI.cpp ****   return StatusCode;
 1666              		.loc 1 541 10
 1667 1287 8B45FC   		movl	-4(%rbp), %eax
 542:/home/hkh/git/eapidk-code-r76-trunk/lib/linux/../EApiAPI.cpp **** }
GAS LISTING /tmp/cc79wf7w.s 			page 51


 1668              		.loc 1 542 1
 1669 128a C9       		leave
 1670              		.cfi_def_cfa 7, 8
 1671 128b C3       		ret
 1672              		.cfi_endproc
 1673              	.LFE17:
 1675              		.section	.rodata
 1676              	.LC40:
 1677 03b0 45417069 		.string	"EApiGPIOSetLevel"
 1677      4750494F 
 1677      5365744C 
 1677      6576656C 
 1677      00
 1678              		.text
 1679              		.globl	EApiGPIOSetLevel
 1681              	EApiGPIOSetLevel:
 1682              	.LFB18:
 543:/home/hkh/git/eapidk-code-r76-trunk/lib/linux/../EApiAPI.cpp **** 
 544:/home/hkh/git/eapidk-code-r76-trunk/lib/linux/../EApiAPI.cpp **** EApiStatus_t
 545:/home/hkh/git/eapidk-code-r76-trunk/lib/linux/../EApiAPI.cpp **** EAPI_CALLTYPE 
 546:/home/hkh/git/eapidk-code-r76-trunk/lib/linux/../EApiAPI.cpp **** EApiGPIOSetLevel(
 547:/home/hkh/git/eapidk-code-r76-trunk/lib/linux/../EApiAPI.cpp ****     __IN  EApiId_t Id          , /* GPIO Id */
 548:/home/hkh/git/eapidk-code-r76-trunk/lib/linux/../EApiAPI.cpp ****     __IN  uint32_t Bitmask     , /* Bit mask of Affected 
 549:/home/hkh/git/eapidk-code-r76-trunk/lib/linux/../EApiAPI.cpp ****                                   * Bits 
 550:/home/hkh/git/eapidk-code-r76-trunk/lib/linux/../EApiAPI.cpp ****                                   */
 551:/home/hkh/git/eapidk-code-r76-trunk/lib/linux/../EApiAPI.cpp ****     __IN  uint32_t Level         /* Level */  
 552:/home/hkh/git/eapidk-code-r76-trunk/lib/linux/../EApiAPI.cpp ****     )
 553:/home/hkh/git/eapidk-code-r76-trunk/lib/linux/../EApiAPI.cpp **** {
 1683              		.loc 1 553 1
 1684              		.cfi_startproc
 1685 128c F30F1EFA 		endbr64
 1686 1290 55       		pushq	%rbp
 1687              		.cfi_def_cfa_offset 16
 1688              		.cfi_offset 6, -16
 1689 1291 4889E5   		movq	%rsp, %rbp
 1690              		.cfi_def_cfa_register 6
 1691 1294 4883EC20 		subq	$32, %rsp
 1692 1298 897DEC   		movl	%edi, -20(%rbp)
 1693 129b 8975E8   		movl	%esi, -24(%rbp)
 1694 129e 8955E4   		movl	%edx, -28(%rbp)
 554:/home/hkh/git/eapidk-code-r76-trunk/lib/linux/../EApiAPI.cpp ****   EApiStatus_t StatusCode=EAPI_STATUS_SUCCESS;
 1695              		.loc 1 554 16
 1696 12a1 C745FC00 		movl	$0, -4(%rbp)
 1696      000000
 555:/home/hkh/git/eapidk-code-r76-trunk/lib/linux/../EApiAPI.cpp ****   EAPI_CHECK_INITIALIZED(EApiGPIOSetLevel);
 1697              		.loc 1 555 3
 1698 12a8 8B050000 		movl	Initialized(%rip), %eax
 1698      0000
 1699 12ae 85C0     		testl	%eax, %eax
 1700 12b0 7548     		jne	.L93
 1701              		.loc 1 555 3 is_stmt 0 discriminator 1
 1702 12b2 4883EC08 		subq	$8, %rsp
 1703 12b6 488D0500 		leaq	.LC3(%rip), %rax
 1703      000000
 1704 12bd 50       		pushq	%rax
 1705 12be 4C8D0D00 		leaq	.LC0(%rip), %r9
 1705      000000
GAS LISTING /tmp/cc79wf7w.s 			page 52


 1706 12c5 41B8FFFF 		movl	$-1, %r8d
 1706      FFFF
 1707 12cb B92B0200 		movl	$555, %ecx
 1707      00
 1708 12d0 488D1500 		leaq	.LC40(%rip), %rdx
 1708      000000
 1709 12d7 488D3500 		leaq	.LC2(%rip), %rsi
 1709      000000
 1710 12de BF450000 		movl	$69, %edi
 1710      00
 1711 12e3 B8000000 		movl	$0, %eax
 1711      00
 1712 12e8 E8000000 		call	siFormattedMessage_SC@PLT
 1712      00
 1713 12ed 4883C410 		addq	$16, %rsp
 1714 12f1 C745FCFF 		movl	$-1, -4(%rbp)
 1714      FFFFFF
 1715 12f8 EB63     		jmp	.L94
 1716              	.L93:
 556:/home/hkh/git/eapidk-code-r76-trunk/lib/linux/../EApiAPI.cpp ****   EAPI_LIB_ASSERT_PARAMATER_ZERO(EApiGPIOSetLevel, Bitmask);
 1717              		.loc 1 556 3 is_stmt 1
 1718 12fa 837DE800 		cmpl	$0, -24(%rbp)
 1719 12fe 7548     		jne	.L95
 1720              		.loc 1 556 3 is_stmt 0 discriminator 1
 1721 1300 4883EC08 		subq	$8, %rsp
 1722 1304 488D0500 		leaq	.LC38(%rip), %rax
 1722      000000
 1723 130b 50       		pushq	%rax
 1724 130c 4C8D0D00 		leaq	.LC0(%rip), %r9
 1724      000000
 1725 1313 41B8FFFE 		movl	$-257, %r8d
 1725      FFFF
 1726 1319 B92C0200 		movl	$556, %ecx
 1726      00
 1727 131e 488D1500 		leaq	.LC40(%rip), %rdx
 1727      000000
 1728 1325 488D3500 		leaq	.LC2(%rip), %rsi
 1728      000000
 1729 132c BF450000 		movl	$69, %edi
 1729      00
 1730 1331 B8000000 		movl	$0, %eax
 1730      00
 1731 1336 E8000000 		call	siFormattedMessage_SC@PLT
 1731      00
 1732 133b 4883C410 		addq	$16, %rsp
 1733 133f C745FCFF 		movl	$-257, -4(%rbp)
 1733      FEFFFF
 1734 1346 EB15     		jmp	.L94
 1735              	.L95:
 557:/home/hkh/git/eapidk-code-r76-trunk/lib/linux/../EApiAPI.cpp **** 
 558:/home/hkh/git/eapidk-code-r76-trunk/lib/linux/../EApiAPI.cpp ****   StatusCode=EApiGPIOSetLevelEmul(Id, Bitmask, Level);
 1736              		.loc 1 558 14 is_stmt 1
 1737 1348 8B55E4   		movl	-28(%rbp), %edx
 1738 134b 8B4DE8   		movl	-24(%rbp), %ecx
 1739 134e 8B45EC   		movl	-20(%rbp), %eax
 1740 1351 89CE     		movl	%ecx, %esi
 1741 1353 89C7     		movl	%eax, %edi
GAS LISTING /tmp/cc79wf7w.s 			page 53


 1742 1355 E8000000 		call	EApiGPIOSetLevelEmul@PLT
 1742      00
 1743 135a 8945FC   		movl	%eax, -4(%rbp)
 1744              	.L94:
 559:/home/hkh/git/eapidk-code-r76-trunk/lib/linux/../EApiAPI.cpp **** EAPI_LIB_ASSERT_EXIT
 560:/home/hkh/git/eapidk-code-r76-trunk/lib/linux/../EApiAPI.cpp ****   return StatusCode;
 1745              		.loc 1 560 10
 1746 135d 8B45FC   		movl	-4(%rbp), %eax
 561:/home/hkh/git/eapidk-code-r76-trunk/lib/linux/../EApiAPI.cpp **** }
 1747              		.loc 1 561 1
 1748 1360 C9       		leave
 1749              		.cfi_def_cfa 7, 8
 1750 1361 C3       		ret
 1751              		.cfi_endproc
 1752              	.LFE18:
 1754              		.section	.rodata
 1755              	.LC41:
 1756 03c1 45417069 		.string	"EApiGPIOGetDirection"
 1756      4750494F 
 1756      47657444 
 1756      69726563 
 1756      74696F6E 
 1757              	.LC42:
 1758 03d6 28704469 		.string	"(pDirection==NULL)"
 1758      72656374 
 1758      696F6E3D 
 1758      3D4E554C 
 1758      4C2900
 1759              		.text
 1760              		.globl	EApiGPIOGetDirection
 1762              	EApiGPIOGetDirection:
 1763              	.LFB19:
 562:/home/hkh/git/eapidk-code-r76-trunk/lib/linux/../EApiAPI.cpp **** 
 563:/home/hkh/git/eapidk-code-r76-trunk/lib/linux/../EApiAPI.cpp **** EApiStatus_t 
 564:/home/hkh/git/eapidk-code-r76-trunk/lib/linux/../EApiAPI.cpp **** EAPI_CALLTYPE 
 565:/home/hkh/git/eapidk-code-r76-trunk/lib/linux/../EApiAPI.cpp **** EApiGPIOGetDirection(
 566:/home/hkh/git/eapidk-code-r76-trunk/lib/linux/../EApiAPI.cpp ****     __IN  EApiId_t Id          , /* GPIO Id */
 567:/home/hkh/git/eapidk-code-r76-trunk/lib/linux/../EApiAPI.cpp ****     __IN  uint32_t Bitmask     , /* Bit mask of Affected
 568:/home/hkh/git/eapidk-code-r76-trunk/lib/linux/../EApiAPI.cpp ****                                   * Bits 
 569:/home/hkh/git/eapidk-code-r76-trunk/lib/linux/../EApiAPI.cpp ****                                   */
 570:/home/hkh/git/eapidk-code-r76-trunk/lib/linux/../EApiAPI.cpp ****     __OUT uint32_t *pDirection   /* Current Direction */
 571:/home/hkh/git/eapidk-code-r76-trunk/lib/linux/../EApiAPI.cpp ****     )
 572:/home/hkh/git/eapidk-code-r76-trunk/lib/linux/../EApiAPI.cpp **** {
 1764              		.loc 1 572 1
 1765              		.cfi_startproc
 1766 1362 F30F1EFA 		endbr64
 1767 1366 55       		pushq	%rbp
 1768              		.cfi_def_cfa_offset 16
 1769              		.cfi_offset 6, -16
 1770 1367 4889E5   		movq	%rsp, %rbp
 1771              		.cfi_def_cfa_register 6
 1772 136a 4883EC20 		subq	$32, %rsp
 1773 136e 897DEC   		movl	%edi, -20(%rbp)
 1774 1371 8975E8   		movl	%esi, -24(%rbp)
 1775 1374 488955E0 		movq	%rdx, -32(%rbp)
 573:/home/hkh/git/eapidk-code-r76-trunk/lib/linux/../EApiAPI.cpp ****   EApiStatus_t StatusCode=EAPI_STATUS_SUCCESS;
 1776              		.loc 1 573 16
GAS LISTING /tmp/cc79wf7w.s 			page 54


 1777 1378 C745FC00 		movl	$0, -4(%rbp)
 1777      000000
 574:/home/hkh/git/eapidk-code-r76-trunk/lib/linux/../EApiAPI.cpp ****   EAPI_CHECK_INITIALIZED(EApiGPIOGetDirection);
 1778              		.loc 1 574 3
 1779 137f 8B050000 		movl	Initialized(%rip), %eax
 1779      0000
 1780 1385 85C0     		testl	%eax, %eax
 1781 1387 754B     		jne	.L98
 1782              		.loc 1 574 3 is_stmt 0 discriminator 1
 1783 1389 4883EC08 		subq	$8, %rsp
 1784 138d 488D0500 		leaq	.LC3(%rip), %rax
 1784      000000
 1785 1394 50       		pushq	%rax
 1786 1395 4C8D0D00 		leaq	.LC0(%rip), %r9
 1786      000000
 1787 139c 41B8FFFF 		movl	$-1, %r8d
 1787      FFFF
 1788 13a2 B93E0200 		movl	$574, %ecx
 1788      00
 1789 13a7 488D1500 		leaq	.LC41(%rip), %rdx
 1789      000000
 1790 13ae 488D3500 		leaq	.LC2(%rip), %rsi
 1790      000000
 1791 13b5 BF450000 		movl	$69, %edi
 1791      00
 1792 13ba B8000000 		movl	$0, %eax
 1792      00
 1793 13bf E8000000 		call	siFormattedMessage_SC@PLT
 1793      00
 1794 13c4 4883C410 		addq	$16, %rsp
 1795 13c8 C745FCFF 		movl	$-1, -4(%rbp)
 1795      FFFFFF
 1796 13cf E9B30000 		jmp	.L99
 1796      00
 1797              	.L98:
 575:/home/hkh/git/eapidk-code-r76-trunk/lib/linux/../EApiAPI.cpp ****   EAPI_LIB_ASSERT_PARAMATER_ZERO(EApiGPIOGetDirection, Bitmask);
 1798              		.loc 1 575 3 is_stmt 1
 1799 13d4 837DE800 		cmpl	$0, -24(%rbp)
 1800 13d8 7548     		jne	.L100
 1801              		.loc 1 575 3 is_stmt 0 discriminator 1
 1802 13da 4883EC08 		subq	$8, %rsp
 1803 13de 488D0500 		leaq	.LC38(%rip), %rax
 1803      000000
 1804 13e5 50       		pushq	%rax
 1805 13e6 4C8D0D00 		leaq	.LC0(%rip), %r9
 1805      000000
 1806 13ed 41B8FFFE 		movl	$-257, %r8d
 1806      FFFF
 1807 13f3 B93F0200 		movl	$575, %ecx
 1807      00
 1808 13f8 488D1500 		leaq	.LC41(%rip), %rdx
 1808      000000
 1809 13ff 488D3500 		leaq	.LC2(%rip), %rsi
 1809      000000
 1810 1406 BF450000 		movl	$69, %edi
 1810      00
 1811 140b B8000000 		movl	$0, %eax
GAS LISTING /tmp/cc79wf7w.s 			page 55


 1811      00
 1812 1410 E8000000 		call	siFormattedMessage_SC@PLT
 1812      00
 1813 1415 4883C410 		addq	$16, %rsp
 1814 1419 C745FCFF 		movl	$-257, -4(%rbp)
 1814      FEFFFF
 1815 1420 EB65     		jmp	.L99
 1816              	.L100:
 576:/home/hkh/git/eapidk-code-r76-trunk/lib/linux/../EApiAPI.cpp ****   EAPI_LIB_ASSERT_PARAMATER_NULL(EApiGPIOGetDirection, pDirection);
 1817              		.loc 1 576 3 is_stmt 1
 1818 1422 48837DE0 		cmpq	$0, -32(%rbp)
 1818      00
 1819 1427 7548     		jne	.L101
 1820              		.loc 1 576 3 is_stmt 0 discriminator 1
 1821 1429 4883EC08 		subq	$8, %rsp
 1822 142d 488D0500 		leaq	.LC42(%rip), %rax
 1822      000000
 1823 1434 50       		pushq	%rax
 1824 1435 4C8D0D00 		leaq	.LC0(%rip), %r9
 1824      000000
 1825 143c 41B8FFFE 		movl	$-257, %r8d
 1825      FFFF
 1826 1442 B9400200 		movl	$576, %ecx
 1826      00
 1827 1447 488D1500 		leaq	.LC41(%rip), %rdx
 1827      000000
 1828 144e 488D3500 		leaq	.LC2(%rip), %rsi
 1828      000000
 1829 1455 BF450000 		movl	$69, %edi
 1829      00
 1830 145a B8000000 		movl	$0, %eax
 1830      00
 1831 145f E8000000 		call	siFormattedMessage_SC@PLT
 1831      00
 1832 1464 4883C410 		addq	$16, %rsp
 1833 1468 C745FCFF 		movl	$-257, -4(%rbp)
 1833      FEFFFF
 1834 146f EB16     		jmp	.L99
 1835              	.L101:
 577:/home/hkh/git/eapidk-code-r76-trunk/lib/linux/../EApiAPI.cpp **** 
 578:/home/hkh/git/eapidk-code-r76-trunk/lib/linux/../EApiAPI.cpp ****   StatusCode=EApiGPIOGetDirectionEmul(Id, Bitmask, pDirection);
 1836              		.loc 1 578 14 is_stmt 1
 1837 1471 488B55E0 		movq	-32(%rbp), %rdx
 1838 1475 8B4DE8   		movl	-24(%rbp), %ecx
 1839 1478 8B45EC   		movl	-20(%rbp), %eax
 1840 147b 89CE     		movl	%ecx, %esi
 1841 147d 89C7     		movl	%eax, %edi
 1842 147f E8000000 		call	EApiGPIOGetDirectionEmul@PLT
 1842      00
 1843 1484 8945FC   		movl	%eax, -4(%rbp)
 1844              	.L99:
 579:/home/hkh/git/eapidk-code-r76-trunk/lib/linux/../EApiAPI.cpp **** EAPI_LIB_ASSERT_EXIT
 580:/home/hkh/git/eapidk-code-r76-trunk/lib/linux/../EApiAPI.cpp ****   return StatusCode;
 1845              		.loc 1 580 10
 1846 1487 8B45FC   		movl	-4(%rbp), %eax
 581:/home/hkh/git/eapidk-code-r76-trunk/lib/linux/../EApiAPI.cpp **** }
 1847              		.loc 1 581 1
GAS LISTING /tmp/cc79wf7w.s 			page 56


 1848 148a C9       		leave
 1849              		.cfi_def_cfa 7, 8
 1850 148b C3       		ret
 1851              		.cfi_endproc
 1852              	.LFE19:
 1854              		.section	.rodata
 1855              	.LC43:
 1856 03e9 45417069 		.string	"EApiGPIOSetDirection"
 1856      4750494F 
 1856      53657444 
 1856      69726563 
 1856      74696F6E 
 1857              		.text
 1858              		.globl	EApiGPIOSetDirection
 1860              	EApiGPIOSetDirection:
 1861              	.LFB20:
 582:/home/hkh/git/eapidk-code-r76-trunk/lib/linux/../EApiAPI.cpp **** 
 583:/home/hkh/git/eapidk-code-r76-trunk/lib/linux/../EApiAPI.cpp **** EApiStatus_t 
 584:/home/hkh/git/eapidk-code-r76-trunk/lib/linux/../EApiAPI.cpp **** EAPI_CALLTYPE 
 585:/home/hkh/git/eapidk-code-r76-trunk/lib/linux/../EApiAPI.cpp **** EApiGPIOSetDirection(
 586:/home/hkh/git/eapidk-code-r76-trunk/lib/linux/../EApiAPI.cpp ****     __IN  EApiId_t Id          , /* GPIO Id */
 587:/home/hkh/git/eapidk-code-r76-trunk/lib/linux/../EApiAPI.cpp ****     __IN  uint32_t Bitmask     , /* Bit mask of Affected 
 588:/home/hkh/git/eapidk-code-r76-trunk/lib/linux/../EApiAPI.cpp ****                                   * Bits 
 589:/home/hkh/git/eapidk-code-r76-trunk/lib/linux/../EApiAPI.cpp ****                                   */
 590:/home/hkh/git/eapidk-code-r76-trunk/lib/linux/../EApiAPI.cpp ****     __IN  uint32_t Direction     /* Direction */
 591:/home/hkh/git/eapidk-code-r76-trunk/lib/linux/../EApiAPI.cpp ****     )
 592:/home/hkh/git/eapidk-code-r76-trunk/lib/linux/../EApiAPI.cpp **** {
 1862              		.loc 1 592 1
 1863              		.cfi_startproc
 1864 148c F30F1EFA 		endbr64
 1865 1490 55       		pushq	%rbp
 1866              		.cfi_def_cfa_offset 16
 1867              		.cfi_offset 6, -16
 1868 1491 4889E5   		movq	%rsp, %rbp
 1869              		.cfi_def_cfa_register 6
 1870 1494 4883EC20 		subq	$32, %rsp
 1871 1498 897DEC   		movl	%edi, -20(%rbp)
 1872 149b 8975E8   		movl	%esi, -24(%rbp)
 1873 149e 8955E4   		movl	%edx, -28(%rbp)
 593:/home/hkh/git/eapidk-code-r76-trunk/lib/linux/../EApiAPI.cpp ****   EApiStatus_t StatusCode=EAPI_STATUS_SUCCESS;
 1874              		.loc 1 593 16
 1875 14a1 C745FC00 		movl	$0, -4(%rbp)
 1875      000000
 594:/home/hkh/git/eapidk-code-r76-trunk/lib/linux/../EApiAPI.cpp ****   EAPI_CHECK_INITIALIZED(EApiGPIOSetDirection);
 1876              		.loc 1 594 3
 1877 14a8 8B050000 		movl	Initialized(%rip), %eax
 1877      0000
 1878 14ae 85C0     		testl	%eax, %eax
 1879 14b0 7548     		jne	.L104
 1880              		.loc 1 594 3 is_stmt 0 discriminator 1
 1881 14b2 4883EC08 		subq	$8, %rsp
 1882 14b6 488D0500 		leaq	.LC3(%rip), %rax
 1882      000000
 1883 14bd 50       		pushq	%rax
 1884 14be 4C8D0D00 		leaq	.LC0(%rip), %r9
 1884      000000
 1885 14c5 41B8FFFF 		movl	$-1, %r8d
GAS LISTING /tmp/cc79wf7w.s 			page 57


 1885      FFFF
 1886 14cb B9520200 		movl	$594, %ecx
 1886      00
 1887 14d0 488D1500 		leaq	.LC43(%rip), %rdx
 1887      000000
 1888 14d7 488D3500 		leaq	.LC2(%rip), %rsi
 1888      000000
 1889 14de BF450000 		movl	$69, %edi
 1889      00
 1890 14e3 B8000000 		movl	$0, %eax
 1890      00
 1891 14e8 E8000000 		call	siFormattedMessage_SC@PLT
 1891      00
 1892 14ed 4883C410 		addq	$16, %rsp
 1893 14f1 C745FCFF 		movl	$-1, -4(%rbp)
 1893      FFFFFF
 1894 14f8 EB63     		jmp	.L105
 1895              	.L104:
 595:/home/hkh/git/eapidk-code-r76-trunk/lib/linux/../EApiAPI.cpp ****   EAPI_LIB_ASSERT_PARAMATER_ZERO(EApiGPIOSetDirection, Bitmask);
 1896              		.loc 1 595 3 is_stmt 1
 1897 14fa 837DE800 		cmpl	$0, -24(%rbp)
 1898 14fe 7548     		jne	.L106
 1899              		.loc 1 595 3 is_stmt 0 discriminator 1
 1900 1500 4883EC08 		subq	$8, %rsp
 1901 1504 488D0500 		leaq	.LC38(%rip), %rax
 1901      000000
 1902 150b 50       		pushq	%rax
 1903 150c 4C8D0D00 		leaq	.LC0(%rip), %r9
 1903      000000
 1904 1513 41B8FFFE 		movl	$-257, %r8d
 1904      FFFF
 1905 1519 B9530200 		movl	$595, %ecx
 1905      00
 1906 151e 488D1500 		leaq	.LC43(%rip), %rdx
 1906      000000
 1907 1525 488D3500 		leaq	.LC2(%rip), %rsi
 1907      000000
 1908 152c BF450000 		movl	$69, %edi
 1908      00
 1909 1531 B8000000 		movl	$0, %eax
 1909      00
 1910 1536 E8000000 		call	siFormattedMessage_SC@PLT
 1910      00
 1911 153b 4883C410 		addq	$16, %rsp
 1912 153f C745FCFF 		movl	$-257, -4(%rbp)
 1912      FEFFFF
 1913 1546 EB15     		jmp	.L105
 1914              	.L106:
 596:/home/hkh/git/eapidk-code-r76-trunk/lib/linux/../EApiAPI.cpp **** 
 597:/home/hkh/git/eapidk-code-r76-trunk/lib/linux/../EApiAPI.cpp ****   StatusCode=EApiGPIOSetDirectionEmul(Id, Bitmask, Direction);
 1915              		.loc 1 597 14 is_stmt 1
 1916 1548 8B55E4   		movl	-28(%rbp), %edx
 1917 154b 8B4DE8   		movl	-24(%rbp), %ecx
 1918 154e 8B45EC   		movl	-20(%rbp), %eax
 1919 1551 89CE     		movl	%ecx, %esi
 1920 1553 89C7     		movl	%eax, %edi
 1921 1555 E8000000 		call	EApiGPIOSetDirectionEmul@PLT
GAS LISTING /tmp/cc79wf7w.s 			page 58


 1921      00
 1922 155a 8945FC   		movl	%eax, -4(%rbp)
 1923              	.L105:
 598:/home/hkh/git/eapidk-code-r76-trunk/lib/linux/../EApiAPI.cpp **** EAPI_LIB_ASSERT_EXIT
 599:/home/hkh/git/eapidk-code-r76-trunk/lib/linux/../EApiAPI.cpp ****   return StatusCode;
 1924              		.loc 1 599 10
 1925 155d 8B45FC   		movl	-4(%rbp), %eax
 600:/home/hkh/git/eapidk-code-r76-trunk/lib/linux/../EApiAPI.cpp **** }
 1926              		.loc 1 600 1
 1927 1560 C9       		leave
 1928              		.cfi_def_cfa 7, 8
 1929 1561 C3       		ret
 1930              		.cfi_endproc
 1931              	.LFE20:
 1933              		.section	.rodata
 1934              	.LC44:
 1935 03fe 45417069 		.string	"EApiGPIOGetDirectionCaps"
 1935      4750494F 
 1935      47657444 
 1935      69726563 
 1935      74696F6E 
 1936 0417 00       		.align 8
 1937              	.LC45:
 1938 0418 2828704F 		.string	"((pOutputs==NULL)&&(pInputs==NULL))"
 1938      75747075 
 1938      74733D3D 
 1938      4E554C4C 
 1938      29262628 
 1939              		.text
 1940              		.globl	EApiGPIOGetDirectionCaps
 1942              	EApiGPIOGetDirectionCaps:
 1943              	.LFB21:
 601:/home/hkh/git/eapidk-code-r76-trunk/lib/linux/../EApiAPI.cpp **** 
 602:/home/hkh/git/eapidk-code-r76-trunk/lib/linux/../EApiAPI.cpp **** EApiStatus_t
 603:/home/hkh/git/eapidk-code-r76-trunk/lib/linux/../EApiAPI.cpp **** EAPI_CALLTYPE 
 604:/home/hkh/git/eapidk-code-r76-trunk/lib/linux/../EApiAPI.cpp **** EApiGPIOGetDirectionCaps(
 605:/home/hkh/git/eapidk-code-r76-trunk/lib/linux/../EApiAPI.cpp ****     __IN     EApiId_t Id        , /* GPIO Id */
 606:/home/hkh/git/eapidk-code-r76-trunk/lib/linux/../EApiAPI.cpp ****     __OUTOPT uint32_t *pInputs  , /* Supported GPIO Input
 607:/home/hkh/git/eapidk-code-r76-trunk/lib/linux/../EApiAPI.cpp ****                                    * Bit Mask 
 608:/home/hkh/git/eapidk-code-r76-trunk/lib/linux/../EApiAPI.cpp ****                                    */
 609:/home/hkh/git/eapidk-code-r76-trunk/lib/linux/../EApiAPI.cpp ****     __OUTOPT uint32_t *pOutputs   /* Supported GPIO Output
 610:/home/hkh/git/eapidk-code-r76-trunk/lib/linux/../EApiAPI.cpp ****                                    * Bit Mask 
 611:/home/hkh/git/eapidk-code-r76-trunk/lib/linux/../EApiAPI.cpp ****                                    */
 612:/home/hkh/git/eapidk-code-r76-trunk/lib/linux/../EApiAPI.cpp ****     )
 613:/home/hkh/git/eapidk-code-r76-trunk/lib/linux/../EApiAPI.cpp **** {
 1944              		.loc 1 613 1
 1945              		.cfi_startproc
 1946 1562 F30F1EFA 		endbr64
 1947 1566 55       		pushq	%rbp
 1948              		.cfi_def_cfa_offset 16
 1949              		.cfi_offset 6, -16
 1950 1567 4889E5   		movq	%rsp, %rbp
 1951              		.cfi_def_cfa_register 6
 1952 156a 4883EC30 		subq	$48, %rsp
 1953 156e 897DEC   		movl	%edi, -20(%rbp)
 1954 1571 488975E0 		movq	%rsi, -32(%rbp)
 1955 1575 488955D8 		movq	%rdx, -40(%rbp)
GAS LISTING /tmp/cc79wf7w.s 			page 59


 1956              		.loc 1 613 1
 1957 1579 64488B04 		movq	%fs:40, %rax
 1957      25280000 
 1957      00
 1958 1582 488945F8 		movq	%rax, -8(%rbp)
 1959 1586 31C0     		xorl	%eax, %eax
 614:/home/hkh/git/eapidk-code-r76-trunk/lib/linux/../EApiAPI.cpp ****   EApiStatus_t StatusCode=EAPI_STATUS_SUCCESS;
 1960              		.loc 1 614 16
 1961 1588 C745F400 		movl	$0, -12(%rbp)
 1961      000000
 615:/home/hkh/git/eapidk-code-r76-trunk/lib/linux/../EApiAPI.cpp ****   uint32_t DpBuffer;
 616:/home/hkh/git/eapidk-code-r76-trunk/lib/linux/../EApiAPI.cpp **** 
 617:/home/hkh/git/eapidk-code-r76-trunk/lib/linux/../EApiAPI.cpp ****   EAPI_CHECK_INITIALIZED(EApiGPIOGetDirectionCaps);
 1962              		.loc 1 617 3
 1963 158f 8B050000 		movl	Initialized(%rip), %eax
 1963      0000
 1964 1595 85C0     		testl	%eax, %eax
 1965 1597 754B     		jne	.L109
 1966              		.loc 1 617 3 is_stmt 0 discriminator 1
 1967 1599 4883EC08 		subq	$8, %rsp
 1968 159d 488D0500 		leaq	.LC3(%rip), %rax
 1968      000000
 1969 15a4 50       		pushq	%rax
 1970 15a5 4C8D0D00 		leaq	.LC0(%rip), %r9
 1970      000000
 1971 15ac 41B8FFFF 		movl	$-1, %r8d
 1971      FFFF
 1972 15b2 B9690200 		movl	$617, %ecx
 1972      00
 1973 15b7 488D1500 		leaq	.LC44(%rip), %rdx
 1973      000000
 1974 15be 488D3500 		leaq	.LC2(%rip), %rsi
 1974      000000
 1975 15c5 BF450000 		movl	$69, %edi
 1975      00
 1976 15ca B8000000 		movl	$0, %eax
 1976      00
 1977 15cf E8000000 		call	siFormattedMessage_SC@PLT
 1977      00
 1978 15d4 4883C410 		addq	$16, %rsp
 1979 15d8 C745F4FF 		movl	$-1, -12(%rbp)
 1979      FFFFFF
 1980 15df E98C0000 		jmp	.L110
 1980      00
 1981              	.L109:
 618:/home/hkh/git/eapidk-code-r76-trunk/lib/linux/../EApiAPI.cpp ****   EAPI_LIB_ASSERT_PARAMATER_CHECK(
 1982              		.loc 1 618 3 is_stmt 1
 1983 15e4 48837DD8 		cmpq	$0, -40(%rbp)
 1983      00
 1984 15e9 754F     		jne	.L111
 1985              		.loc 1 618 3 is_stmt 0 discriminator 1
 1986 15eb 48837DE0 		cmpq	$0, -32(%rbp)
 1986      00
 1987 15f0 7548     		jne	.L111
 1988              		.loc 1 618 3 discriminator 2
 1989 15f2 4883EC08 		subq	$8, %rsp
 1990 15f6 488D0500 		leaq	.LC45(%rip), %rax
GAS LISTING /tmp/cc79wf7w.s 			page 60


 1990      000000
 1991 15fd 50       		pushq	%rax
 1992 15fe 4C8D0D00 		leaq	.LC0(%rip), %r9
 1992      000000
 1993 1605 41B8FFFE 		movl	$-257, %r8d
 1993      FFFF
 1994 160b B96A0200 		movl	$618, %ecx
 1994      00
 1995 1610 488D1500 		leaq	.LC44(%rip), %rdx
 1995      000000
 1996 1617 488D3500 		leaq	.LC2(%rip), %rsi
 1996      000000
 1997 161e BF450000 		movl	$69, %edi
 1997      00
 1998 1623 B8000000 		movl	$0, %eax
 1998      00
 1999 1628 E8000000 		call	siFormattedMessage_SC@PLT
 1999      00
 2000 162d 4883C410 		addq	$16, %rsp
 2001 1631 C745F4FF 		movl	$-257, -12(%rbp)
 2001      FEFFFF
 2002 1638 EB36     		jmp	.L110
 2003              	.L111:
 619:/home/hkh/git/eapidk-code-r76-trunk/lib/linux/../EApiAPI.cpp ****       EApiGPIOGetDirectionCaps, 
 620:/home/hkh/git/eapidk-code-r76-trunk/lib/linux/../EApiAPI.cpp ****       ((pOutputs==NULL)&&(pInputs==NULL)), 
 621:/home/hkh/git/eapidk-code-r76-trunk/lib/linux/../EApiAPI.cpp ****       "((pOutputs==NULL)&&(pInputs==NULL))"
 622:/home/hkh/git/eapidk-code-r76-trunk/lib/linux/../EApiAPI.cpp ****       );
 623:/home/hkh/git/eapidk-code-r76-trunk/lib/linux/../EApiAPI.cpp **** 
 624:/home/hkh/git/eapidk-code-r76-trunk/lib/linux/../EApiAPI.cpp ****   if(pInputs==NULL)
 2004              		.loc 1 624 5 is_stmt 1
 2005 163a 48837DE0 		cmpq	$0, -32(%rbp)
 2005      00
 2006 163f 7508     		jne	.L112
 625:/home/hkh/git/eapidk-code-r76-trunk/lib/linux/../EApiAPI.cpp ****     pInputs=&DpBuffer;
 2007              		.loc 1 625 12
 2008 1641 488D45F0 		leaq	-16(%rbp), %rax
 2009 1645 488945E0 		movq	%rax, -32(%rbp)
 2010              	.L112:
 626:/home/hkh/git/eapidk-code-r76-trunk/lib/linux/../EApiAPI.cpp ****   if(pOutputs==NULL)
 2011              		.loc 1 626 5
 2012 1649 48837DD8 		cmpq	$0, -40(%rbp)
 2012      00
 2013 164e 7508     		jne	.L113
 627:/home/hkh/git/eapidk-code-r76-trunk/lib/linux/../EApiAPI.cpp ****     pOutputs=&DpBuffer;
 2014              		.loc 1 627 13
 2015 1650 488D45F0 		leaq	-16(%rbp), %rax
 2016 1654 488945D8 		movq	%rax, -40(%rbp)
 2017              	.L113:
 628:/home/hkh/git/eapidk-code-r76-trunk/lib/linux/../EApiAPI.cpp **** 
 629:/home/hkh/git/eapidk-code-r76-trunk/lib/linux/../EApiAPI.cpp ****   StatusCode=EApiGPIOGetDirectionCapsEmul(Id, pInputs, pOutputs);
 2018              		.loc 1 629 14
 2019 1658 488B55D8 		movq	-40(%rbp), %rdx
 2020 165c 488B4DE0 		movq	-32(%rbp), %rcx
 2021 1660 8B45EC   		movl	-20(%rbp), %eax
 2022 1663 4889CE   		movq	%rcx, %rsi
 2023 1666 89C7     		movl	%eax, %edi
 2024 1668 E8000000 		call	EApiGPIOGetDirectionCapsEmul@PLT
GAS LISTING /tmp/cc79wf7w.s 			page 61


 2024      00
 2025 166d 8945F4   		movl	%eax, -12(%rbp)
 2026              	.L110:
 630:/home/hkh/git/eapidk-code-r76-trunk/lib/linux/../EApiAPI.cpp **** EAPI_LIB_ASSERT_EXIT
 631:/home/hkh/git/eapidk-code-r76-trunk/lib/linux/../EApiAPI.cpp ****   return StatusCode;
 2027              		.loc 1 631 10
 2028 1670 8B45F4   		movl	-12(%rbp), %eax
 632:/home/hkh/git/eapidk-code-r76-trunk/lib/linux/../EApiAPI.cpp **** }
 2029              		.loc 1 632 1
 2030 1673 488B4DF8 		movq	-8(%rbp), %rcx
 2031 1677 6448330C 		xorq	%fs:40, %rcx
 2031      25280000 
 2031      00
 2032 1680 7405     		je	.L115
 2033 1682 E8000000 		call	__stack_chk_fail@PLT
 2033      00
 2034              	.L115:
 2035 1687 C9       		leave
 2036              		.cfi_def_cfa 7, 8
 2037 1688 C3       		ret
 2038              		.cfi_endproc
 2039              	.LFE21:
 2041              		.section	.rodata
 2042              	.LC46:
 2043 043c 45417069 		.string	"EApiLibInitialize"
 2043      4C696249 
 2043      6E697469 
 2043      616C697A 
 2043      6500
 2044              	.LC47:
 2045 044e 4C696272 		.string	"Library Already Initialized"
 2045      61727920 
 2045      416C7265 
 2045      61647920 
 2045      496E6974 
 2046              		.text
 2047              		.globl	EApiLibInitialize
 2049              	EApiLibInitialize:
 2050              	.LFB22:
 633:/home/hkh/git/eapidk-code-r76-trunk/lib/linux/../EApiAPI.cpp **** 
 634:/home/hkh/git/eapidk-code-r76-trunk/lib/linux/../EApiAPI.cpp **** 
 635:/home/hkh/git/eapidk-code-r76-trunk/lib/linux/../EApiAPI.cpp **** /*
 636:/home/hkh/git/eapidk-code-r76-trunk/lib/linux/../EApiAPI.cpp ****  *
 637:/home/hkh/git/eapidk-code-r76-trunk/lib/linux/../EApiAPI.cpp ****  *  
 638:/home/hkh/git/eapidk-code-r76-trunk/lib/linux/../EApiAPI.cpp ****  *
 639:/home/hkh/git/eapidk-code-r76-trunk/lib/linux/../EApiAPI.cpp ****  *  S T D 
 640:/home/hkh/git/eapidk-code-r76-trunk/lib/linux/../EApiAPI.cpp ****  *
 641:/home/hkh/git/eapidk-code-r76-trunk/lib/linux/../EApiAPI.cpp ****  *
 642:/home/hkh/git/eapidk-code-r76-trunk/lib/linux/../EApiAPI.cpp ****  *
 643:/home/hkh/git/eapidk-code-r76-trunk/lib/linux/../EApiAPI.cpp ****  */
 644:/home/hkh/git/eapidk-code-r76-trunk/lib/linux/../EApiAPI.cpp **** EApiStatus_t 
 645:/home/hkh/git/eapidk-code-r76-trunk/lib/linux/../EApiAPI.cpp **** EAPI_CALLTYPE 
 646:/home/hkh/git/eapidk-code-r76-trunk/lib/linux/../EApiAPI.cpp **** EApiLibInitialize(void)
 647:/home/hkh/git/eapidk-code-r76-trunk/lib/linux/../EApiAPI.cpp **** {
 2051              		.loc 1 647 1
 2052              		.cfi_startproc
 2053 1689 F30F1EFA 		endbr64
GAS LISTING /tmp/cc79wf7w.s 			page 62


 2054 168d 55       		pushq	%rbp
 2055              		.cfi_def_cfa_offset 16
 2056              		.cfi_offset 6, -16
 2057 168e 4889E5   		movq	%rsp, %rbp
 2058              		.cfi_def_cfa_register 6
 2059 1691 4883EC10 		subq	$16, %rsp
 648:/home/hkh/git/eapidk-code-r76-trunk/lib/linux/../EApiAPI.cpp ****   EApiStatus_t StatusCode=EAPI_STATUS_SUCCESS;
 2060              		.loc 1 648 16
 2061 1695 C745FC00 		movl	$0, -4(%rbp)
 2061      000000
 649:/home/hkh/git/eapidk-code-r76-trunk/lib/linux/../EApiAPI.cpp ****   EAPI_CHECK_NOT_INITIALIZED(EApiLibInitialize);
 2062              		.loc 1 649 3
 2063 169c 8B050000 		movl	Initialized(%rip), %eax
 2063      0000
 2064 16a2 83F801   		cmpl	$1, %eax
 2065 16a5 7548     		jne	.L117
 2066              		.loc 1 649 3 is_stmt 0 discriminator 1
 2067 16a7 4883EC08 		subq	$8, %rsp
 2068 16ab 488D0500 		leaq	.LC47(%rip), %rax
 2068      000000
 2069 16b2 50       		pushq	%rax
 2070 16b3 4C8D0D00 		leaq	.LC0(%rip), %r9
 2070      000000
 2071 16ba 41B8FFFF 		movl	$-1, %r8d
 2071      FFFF
 2072 16c0 B9890200 		movl	$649, %ecx
 2072      00
 2073 16c5 488D1500 		leaq	.LC46(%rip), %rdx
 2073      000000
 2074 16cc 488D3500 		leaq	.LC2(%rip), %rsi
 2074      000000
 2075 16d3 BF450000 		movl	$69, %edi
 2075      00
 2076 16d8 B8000000 		movl	$0, %eax
 2076      00
 2077 16dd E8000000 		call	siFormattedMessage_SC@PLT
 2077      00
 2078 16e2 4883C410 		addq	$16, %rsp
 2079 16e6 C745FCFF 		movl	$-1, -4(%rbp)
 2079      FFFFFF
 2080 16ed EB5B     		jmp	.L118
 2081              	.L117:
 650:/home/hkh/git/eapidk-code-r76-trunk/lib/linux/../EApiAPI.cpp ****   Initialized=1;
 2082              		.loc 1 650 14 is_stmt 1
 2083 16ef C7050000 		movl	$1, Initialized(%rip)
 2083      00000100 
 2083      0000
 651:/home/hkh/git/eapidk-code-r76-trunk/lib/linux/../EApiAPI.cpp ****   EApiInitLib();
 2084              		.loc 1 651 3
 2085 16f9 B8000000 		movl	$0, %eax
 2085      00
 2086 16fe E8000000 		call	EApiInitLib@PLT
 2086      00
 652:/home/hkh/git/eapidk-code-r76-trunk/lib/linux/../EApiAPI.cpp ****   EAPI_LIB_RETURN_SUCCESS(EApiLibInitialize, "");
 2087              		.loc 1 652 3
 2088 1703 4883EC08 		subq	$8, %rsp
 2089 1707 488D0500 		leaq	.LC28(%rip), %rax
GAS LISTING /tmp/cc79wf7w.s 			page 63


 2089      000000
 2090 170e 50       		pushq	%rax
 2091 170f 4C8D0D00 		leaq	.LC0(%rip), %r9
 2091      000000
 2092 1716 41B80000 		movl	$0, %r8d
 2092      0000
 2093 171c B98C0200 		movl	$652, %ecx
 2093      00
 2094 1721 488D1500 		leaq	.LC46(%rip), %rdx
 2094      000000
 2095 1728 488D3500 		leaq	.LC2(%rip), %rsi
 2095      000000
 2096 172f BF4C0000 		movl	$76, %edi
 2096      00
 2097 1734 B8000000 		movl	$0, %eax
 2097      00
 2098 1739 E8000000 		call	siFormattedMessage_SC@PLT
 2098      00
 2099 173e 4883C410 		addq	$16, %rsp
 2100 1742 C745FC00 		movl	$0, -4(%rbp)
 2100      000000
 2101 1749 90       		nop
 2102              	.L118:
 653:/home/hkh/git/eapidk-code-r76-trunk/lib/linux/../EApiAPI.cpp **** EAPI_LIB_ASSERT_EXIT
 654:/home/hkh/git/eapidk-code-r76-trunk/lib/linux/../EApiAPI.cpp **** 
 655:/home/hkh/git/eapidk-code-r76-trunk/lib/linux/../EApiAPI.cpp ****   return StatusCode;
 2103              		.loc 1 655 10
 2104 174a 8B45FC   		movl	-4(%rbp), %eax
 656:/home/hkh/git/eapidk-code-r76-trunk/lib/linux/../EApiAPI.cpp **** }
 2105              		.loc 1 656 1
 2106 174d C9       		leave
 2107              		.cfi_def_cfa 7, 8
 2108 174e C3       		ret
 2109              		.cfi_endproc
 2110              	.LFE22:
 2112              		.section	.rodata
 2113              	.LC48:
 2114 046a 45417069 		.string	"EApiLibUnInitialize"
 2114      4C696255 
 2114      6E496E69 
 2114      7469616C 
 2114      697A6500 
 2115              		.text
 2116              		.globl	EApiLibUnInitialize
 2118              	EApiLibUnInitialize:
 2119              	.LFB23:
 657:/home/hkh/git/eapidk-code-r76-trunk/lib/linux/../EApiAPI.cpp **** EApiStatus_t 
 658:/home/hkh/git/eapidk-code-r76-trunk/lib/linux/../EApiAPI.cpp **** EAPI_CALLTYPE 
 659:/home/hkh/git/eapidk-code-r76-trunk/lib/linux/../EApiAPI.cpp **** EApiLibUnInitialize(void)
 660:/home/hkh/git/eapidk-code-r76-trunk/lib/linux/../EApiAPI.cpp **** {
 2120              		.loc 1 660 1
 2121              		.cfi_startproc
 2122 174f F30F1EFA 		endbr64
 2123 1753 55       		pushq	%rbp
 2124              		.cfi_def_cfa_offset 16
 2125              		.cfi_offset 6, -16
 2126 1754 4889E5   		movq	%rsp, %rbp
GAS LISTING /tmp/cc79wf7w.s 			page 64


 2127              		.cfi_def_cfa_register 6
 2128 1757 4883EC10 		subq	$16, %rsp
 661:/home/hkh/git/eapidk-code-r76-trunk/lib/linux/../EApiAPI.cpp ****   EApiStatus_t StatusCode=EAPI_STATUS_SUCCESS;
 2129              		.loc 1 661 16
 2130 175b C745FC00 		movl	$0, -4(%rbp)
 2130      000000
 662:/home/hkh/git/eapidk-code-r76-trunk/lib/linux/../EApiAPI.cpp ****   EAPI_CHECK_INITIALIZED(EApiLibUnInitialize);
 2131              		.loc 1 662 3
 2132 1762 8B050000 		movl	Initialized(%rip), %eax
 2132      0000
 2133 1768 85C0     		testl	%eax, %eax
 2134 176a 7548     		jne	.L121
 2135              		.loc 1 662 3 is_stmt 0 discriminator 1
 2136 176c 4883EC08 		subq	$8, %rsp
 2137 1770 488D0500 		leaq	.LC3(%rip), %rax
 2137      000000
 2138 1777 50       		pushq	%rax
 2139 1778 4C8D0D00 		leaq	.LC0(%rip), %r9
 2139      000000
 2140 177f 41B8FFFF 		movl	$-1, %r8d
 2140      FFFF
 2141 1785 B9960200 		movl	$662, %ecx
 2141      00
 2142 178a 488D1500 		leaq	.LC48(%rip), %rdx
 2142      000000
 2143 1791 488D3500 		leaq	.LC2(%rip), %rsi
 2143      000000
 2144 1798 BF450000 		movl	$69, %edi
 2144      00
 2145 179d B8000000 		movl	$0, %eax
 2145      00
 2146 17a2 E8000000 		call	siFormattedMessage_SC@PLT
 2146      00
 2147 17a7 4883C410 		addq	$16, %rsp
 2148 17ab C745FCFF 		movl	$-1, -4(%rbp)
 2148      FFFFFF
 2149 17b2 EB5B     		jmp	.L122
 2150              	.L121:
 663:/home/hkh/git/eapidk-code-r76-trunk/lib/linux/../EApiAPI.cpp ****   EApiUninitLib();
 2151              		.loc 1 663 3 is_stmt 1
 2152 17b4 B8000000 		movl	$0, %eax
 2152      00
 2153 17b9 E8000000 		call	EApiUninitLib@PLT
 2153      00
 664:/home/hkh/git/eapidk-code-r76-trunk/lib/linux/../EApiAPI.cpp ****   Initialized=0;
 2154              		.loc 1 664 14
 2155 17be C7050000 		movl	$0, Initialized(%rip)
 2155      00000000 
 2155      0000
 665:/home/hkh/git/eapidk-code-r76-trunk/lib/linux/../EApiAPI.cpp ****   EAPI_LIB_RETURN_SUCCESS(EApiLibUnInitialize, "");
 2156              		.loc 1 665 3
 2157 17c8 4883EC08 		subq	$8, %rsp
 2158 17cc 488D0500 		leaq	.LC28(%rip), %rax
 2158      000000
 2159 17d3 50       		pushq	%rax
 2160 17d4 4C8D0D00 		leaq	.LC0(%rip), %r9
 2160      000000
GAS LISTING /tmp/cc79wf7w.s 			page 65


 2161 17db 41B80000 		movl	$0, %r8d
 2161      0000
 2162 17e1 B9990200 		movl	$665, %ecx
 2162      00
 2163 17e6 488D1500 		leaq	.LC48(%rip), %rdx
 2163      000000
 2164 17ed 488D3500 		leaq	.LC2(%rip), %rsi
 2164      000000
 2165 17f4 BF4C0000 		movl	$76, %edi
 2165      00
 2166 17f9 B8000000 		movl	$0, %eax
 2166      00
 2167 17fe E8000000 		call	siFormattedMessage_SC@PLT
 2167      00
 2168 1803 4883C410 		addq	$16, %rsp
 2169 1807 C745FC00 		movl	$0, -4(%rbp)
 2169      000000
 2170 180e 90       		nop
 2171              	.L122:
 666:/home/hkh/git/eapidk-code-r76-trunk/lib/linux/../EApiAPI.cpp **** EAPI_LIB_ASSERT_EXIT
 667:/home/hkh/git/eapidk-code-r76-trunk/lib/linux/../EApiAPI.cpp **** 
 668:/home/hkh/git/eapidk-code-r76-trunk/lib/linux/../EApiAPI.cpp ****   return StatusCode;
 2172              		.loc 1 668 10
 2173 180f 8B45FC   		movl	-4(%rbp), %eax
 669:/home/hkh/git/eapidk-code-r76-trunk/lib/linux/../EApiAPI.cpp **** }
 2174              		.loc 1 669 1
 2175 1812 C9       		leave
 2176              		.cfi_def_cfa 7, 8
 2177 1813 C3       		ret
 2178              		.cfi_endproc
 2179              	.LFE23:
 2181              		.section	.rodata
 2182              	.LC49:
 2183 047e 45417069 		.string	"EApiWDogGetCap"
 2183      57446F67 
 2183      47657443 
 2183      617000
 2184 048d 000000   		.align 8
 2185              	.LC50:
 2186 0490 2828704D 		.string	"((pMaxDelay==NULL)&&(pMaxEventTimeout==NULL)&&(pMaxResetTimeout==NULL))"
 2186      61784465 
 2186      6C61793D 
 2186      3D4E554C 
 2186      4C292626 
 2187              		.text
 2188              		.globl	EApiWDogGetCap
 2190              	EApiWDogGetCap:
 2191              	.LFB24:
 670:/home/hkh/git/eapidk-code-r76-trunk/lib/linux/../EApiAPI.cpp **** 
 671:/home/hkh/git/eapidk-code-r76-trunk/lib/linux/../EApiAPI.cpp **** 
 672:/home/hkh/git/eapidk-code-r76-trunk/lib/linux/../EApiAPI.cpp **** 
 673:/home/hkh/git/eapidk-code-r76-trunk/lib/linux/../EApiAPI.cpp **** /*
 674:/home/hkh/git/eapidk-code-r76-trunk/lib/linux/../EApiAPI.cpp ****  *
 675:/home/hkh/git/eapidk-code-r76-trunk/lib/linux/../EApiAPI.cpp ****  *  
 676:/home/hkh/git/eapidk-code-r76-trunk/lib/linux/../EApiAPI.cpp ****  *
 677:/home/hkh/git/eapidk-code-r76-trunk/lib/linux/../EApiAPI.cpp ****  *  W A T C H D O G
 678:/home/hkh/git/eapidk-code-r76-trunk/lib/linux/../EApiAPI.cpp ****  *
GAS LISTING /tmp/cc79wf7w.s 			page 66


 679:/home/hkh/git/eapidk-code-r76-trunk/lib/linux/../EApiAPI.cpp ****  *
 680:/home/hkh/git/eapidk-code-r76-trunk/lib/linux/../EApiAPI.cpp ****  *
 681:/home/hkh/git/eapidk-code-r76-trunk/lib/linux/../EApiAPI.cpp ****  */
 682:/home/hkh/git/eapidk-code-r76-trunk/lib/linux/../EApiAPI.cpp **** EApiStatus_t 
 683:/home/hkh/git/eapidk-code-r76-trunk/lib/linux/../EApiAPI.cpp **** EAPI_CALLTYPE
 684:/home/hkh/git/eapidk-code-r76-trunk/lib/linux/../EApiAPI.cpp **** EApiWDogGetCap(
 685:/home/hkh/git/eapidk-code-r76-trunk/lib/linux/../EApiAPI.cpp ****     __OUTOPT uint32_t *pMaxDelay       ,/* Maximum Supported 
 686:/home/hkh/git/eapidk-code-r76-trunk/lib/linux/../EApiAPI.cpp ****                                          * Delay in milliseconds
 687:/home/hkh/git/eapidk-code-r76-trunk/lib/linux/../EApiAPI.cpp ****                                          */
 688:/home/hkh/git/eapidk-code-r76-trunk/lib/linux/../EApiAPI.cpp ****     __OUTOPT uint32_t *pMaxEventTimeout,/* Maximum Supported 
 689:/home/hkh/git/eapidk-code-r76-trunk/lib/linux/../EApiAPI.cpp ****                                          * Event Timeout in 
 690:/home/hkh/git/eapidk-code-r76-trunk/lib/linux/../EApiAPI.cpp ****                                          * milliseconds
 691:/home/hkh/git/eapidk-code-r76-trunk/lib/linux/../EApiAPI.cpp ****                                          * 0 == Unsupported
 692:/home/hkh/git/eapidk-code-r76-trunk/lib/linux/../EApiAPI.cpp ****                                          */
 693:/home/hkh/git/eapidk-code-r76-trunk/lib/linux/../EApiAPI.cpp ****     __OUTOPT uint32_t *pMaxResetTimeout /* Maximum Supported 
 694:/home/hkh/git/eapidk-code-r76-trunk/lib/linux/../EApiAPI.cpp ****                                          * Reset Timeout in 
 695:/home/hkh/git/eapidk-code-r76-trunk/lib/linux/../EApiAPI.cpp ****                                          * milliseconds
 696:/home/hkh/git/eapidk-code-r76-trunk/lib/linux/../EApiAPI.cpp ****                                          */
 697:/home/hkh/git/eapidk-code-r76-trunk/lib/linux/../EApiAPI.cpp ****     )
 698:/home/hkh/git/eapidk-code-r76-trunk/lib/linux/../EApiAPI.cpp **** {
 2192              		.loc 1 698 1
 2193              		.cfi_startproc
 2194 1814 F30F1EFA 		endbr64
 2195 1818 55       		pushq	%rbp
 2196              		.cfi_def_cfa_offset 16
 2197              		.cfi_offset 6, -16
 2198 1819 4889E5   		movq	%rsp, %rbp
 2199              		.cfi_def_cfa_register 6
 2200 181c 4883EC30 		subq	$48, %rsp
 2201 1820 48897DE8 		movq	%rdi, -24(%rbp)
 2202 1824 488975E0 		movq	%rsi, -32(%rbp)
 2203 1828 488955D8 		movq	%rdx, -40(%rbp)
 2204              		.loc 1 698 1
 2205 182c 64488B04 		movq	%fs:40, %rax
 2205      25280000 
 2205      00
 2206 1835 488945F8 		movq	%rax, -8(%rbp)
 2207 1839 31C0     		xorl	%eax, %eax
 699:/home/hkh/git/eapidk-code-r76-trunk/lib/linux/../EApiAPI.cpp ****   EApiStatus_t StatusCode=EAPI_STATUS_SUCCESS;
 2208              		.loc 1 699 16
 2209 183b C745F400 		movl	$0, -12(%rbp)
 2209      000000
 700:/home/hkh/git/eapidk-code-r76-trunk/lib/linux/../EApiAPI.cpp ****   uint32_t DummyData;
 701:/home/hkh/git/eapidk-code-r76-trunk/lib/linux/../EApiAPI.cpp ****   EAPI_CHECK_INITIALIZED(EApiWDogGetCap);
 2210              		.loc 1 701 3
 2211 1842 8B050000 		movl	Initialized(%rip), %eax
 2211      0000
 2212 1848 85C0     		testl	%eax, %eax
 2213 184a 754B     		jne	.L125
 2214              		.loc 1 701 3 is_stmt 0 discriminator 1
 2215 184c 4883EC08 		subq	$8, %rsp
 2216 1850 488D0500 		leaq	.LC3(%rip), %rax
 2216      000000
 2217 1857 50       		pushq	%rax
 2218 1858 4C8D0D00 		leaq	.LC0(%rip), %r9
 2218      000000
 2219 185f 41B8FFFF 		movl	$-1, %r8d
GAS LISTING /tmp/cc79wf7w.s 			page 67


 2219      FFFF
 2220 1865 B9BD0200 		movl	$701, %ecx
 2220      00
 2221 186a 488D1500 		leaq	.LC49(%rip), %rdx
 2221      000000
 2222 1871 488D3500 		leaq	.LC2(%rip), %rsi
 2222      000000
 2223 1878 BF450000 		movl	$69, %edi
 2223      00
 2224 187d B8000000 		movl	$0, %eax
 2224      00
 2225 1882 E8000000 		call	siFormattedMessage_SC@PLT
 2225      00
 2226 1887 4883C410 		addq	$16, %rsp
 2227 188b C745F4FF 		movl	$-1, -12(%rbp)
 2227      FFFFFF
 2228 1892 E9A40000 		jmp	.L126
 2228      00
 2229              	.L125:
 702:/home/hkh/git/eapidk-code-r76-trunk/lib/linux/../EApiAPI.cpp ****   EAPI_LIB_ASSERT_PARAMATER_CHECK(
 2230              		.loc 1 702 3 is_stmt 1
 2231 1897 48837DE8 		cmpq	$0, -24(%rbp)
 2231      00
 2232 189c 7556     		jne	.L127
 2233              		.loc 1 702 3 is_stmt 0 discriminator 1
 2234 189e 48837DE0 		cmpq	$0, -32(%rbp)
 2234      00
 2235 18a3 754F     		jne	.L127
 2236              		.loc 1 702 3 discriminator 2
 2237 18a5 48837DD8 		cmpq	$0, -40(%rbp)
 2237      00
 2238 18aa 7548     		jne	.L127
 2239              		.loc 1 702 3 discriminator 3
 2240 18ac 4883EC08 		subq	$8, %rsp
 2241 18b0 488D0500 		leaq	.LC50(%rip), %rax
 2241      000000
 2242 18b7 50       		pushq	%rax
 2243 18b8 4C8D0D00 		leaq	.LC0(%rip), %r9
 2243      000000
 2244 18bf 41B8FFFE 		movl	$-257, %r8d
 2244      FFFF
 2245 18c5 B9BE0200 		movl	$702, %ecx
 2245      00
 2246 18ca 488D1500 		leaq	.LC49(%rip), %rdx
 2246      000000
 2247 18d1 488D3500 		leaq	.LC2(%rip), %rsi
 2247      000000
 2248 18d8 BF450000 		movl	$69, %edi
 2248      00
 2249 18dd B8000000 		movl	$0, %eax
 2249      00
 2250 18e2 E8000000 		call	siFormattedMessage_SC@PLT
 2250      00
 2251 18e7 4883C410 		addq	$16, %rsp
 2252 18eb C745F4FF 		movl	$-257, -12(%rbp)
 2252      FEFFFF
 2253 18f2 EB47     		jmp	.L126
GAS LISTING /tmp/cc79wf7w.s 			page 68


 2254              	.L127:
 703:/home/hkh/git/eapidk-code-r76-trunk/lib/linux/../EApiAPI.cpp ****     EApiWDogGetCap, 
 704:/home/hkh/git/eapidk-code-r76-trunk/lib/linux/../EApiAPI.cpp ****     ((pMaxDelay==NULL)&&(pMaxEventTimeout==NULL)&&(pMaxResetTimeout==NULL)), 
 705:/home/hkh/git/eapidk-code-r76-trunk/lib/linux/../EApiAPI.cpp ****    "((pMaxDelay==NULL)&&(pMaxEventTimeout==NULL)&&(pMaxResetTimeout==NULL))"
 706:/home/hkh/git/eapidk-code-r76-trunk/lib/linux/../EApiAPI.cpp ****   );
 707:/home/hkh/git/eapidk-code-r76-trunk/lib/linux/../EApiAPI.cpp **** 
 708:/home/hkh/git/eapidk-code-r76-trunk/lib/linux/../EApiAPI.cpp ****    if(pMaxDelay       ==NULL) pMaxDelay       =&DummyData;
 2255              		.loc 1 708 6 is_stmt 1
 2256 18f4 48837DE8 		cmpq	$0, -24(%rbp)
 2256      00
 2257 18f9 7508     		jne	.L128
 2258              		.loc 1 708 47 discriminator 1
 2259 18fb 488D45F0 		leaq	-16(%rbp), %rax
 2260 18ff 488945E8 		movq	%rax, -24(%rbp)
 2261              	.L128:
 709:/home/hkh/git/eapidk-code-r76-trunk/lib/linux/../EApiAPI.cpp ****    if(pMaxEventTimeout==NULL) pMaxEventTimeout=&DummyData;
 2262              		.loc 1 709 6
 2263 1903 48837DE0 		cmpq	$0, -32(%rbp)
 2263      00
 2264 1908 7508     		jne	.L129
 2265              		.loc 1 709 47 discriminator 1
 2266 190a 488D45F0 		leaq	-16(%rbp), %rax
 2267 190e 488945E0 		movq	%rax, -32(%rbp)
 2268              	.L129:
 710:/home/hkh/git/eapidk-code-r76-trunk/lib/linux/../EApiAPI.cpp ****    if(pMaxResetTimeout==NULL) pMaxResetTimeout=&DummyData;
 2269              		.loc 1 710 6
 2270 1912 48837DD8 		cmpq	$0, -40(%rbp)
 2270      00
 2271 1917 7508     		jne	.L130
 2272              		.loc 1 710 47 discriminator 1
 2273 1919 488D45F0 		leaq	-16(%rbp), %rax
 2274 191d 488945D8 		movq	%rax, -40(%rbp)
 2275              	.L130:
 711:/home/hkh/git/eapidk-code-r76-trunk/lib/linux/../EApiAPI.cpp ****   StatusCode=EApiWDogGetCapEmul(pMaxDelay, pMaxEventTimeout, pMaxResetTimeout);
 2276              		.loc 1 711 14
 2277 1921 488B55D8 		movq	-40(%rbp), %rdx
 2278 1925 488B4DE0 		movq	-32(%rbp), %rcx
 2279 1929 488B45E8 		movq	-24(%rbp), %rax
 2280 192d 4889CE   		movq	%rcx, %rsi
 2281 1930 4889C7   		movq	%rax, %rdi
 2282 1933 E8000000 		call	EApiWDogGetCapEmul@PLT
 2282      00
 2283 1938 8945F4   		movl	%eax, -12(%rbp)
 2284              	.L126:
 712:/home/hkh/git/eapidk-code-r76-trunk/lib/linux/../EApiAPI.cpp **** EAPI_LIB_ASSERT_EXIT
 713:/home/hkh/git/eapidk-code-r76-trunk/lib/linux/../EApiAPI.cpp ****   return StatusCode;
 2285              		.loc 1 713 10
 2286 193b 8B45F4   		movl	-12(%rbp), %eax
 714:/home/hkh/git/eapidk-code-r76-trunk/lib/linux/../EApiAPI.cpp **** }
 2287              		.loc 1 714 1
 2288 193e 488B4DF8 		movq	-8(%rbp), %rcx
 2289 1942 6448330C 		xorq	%fs:40, %rcx
 2289      25280000 
 2289      00
 2290 194b 7405     		je	.L132
 2291 194d E8000000 		call	__stack_chk_fail@PLT
 2291      00
GAS LISTING /tmp/cc79wf7w.s 			page 69


 2292              	.L132:
 2293 1952 C9       		leave
 2294              		.cfi_def_cfa 7, 8
 2295 1953 C3       		ret
 2296              		.cfi_endproc
 2297              	.LFE24:
 2299              		.section	.rodata
 2300              	.LC51:
 2301 04d8 45417069 		.string	"EApiWDogStart"
 2301      57446F67 
 2301      53746172 
 2301      7400
 2302              		.text
 2303              		.globl	EApiWDogStart
 2305              	EApiWDogStart:
 2306              	.LFB25:
 715:/home/hkh/git/eapidk-code-r76-trunk/lib/linux/../EApiAPI.cpp **** 
 716:/home/hkh/git/eapidk-code-r76-trunk/lib/linux/../EApiAPI.cpp **** EApiStatus_t 
 717:/home/hkh/git/eapidk-code-r76-trunk/lib/linux/../EApiAPI.cpp **** EAPI_CALLTYPE 
 718:/home/hkh/git/eapidk-code-r76-trunk/lib/linux/../EApiAPI.cpp **** EApiWDogStart(
 719:/home/hkh/git/eapidk-code-r76-trunk/lib/linux/../EApiAPI.cpp ****     __IN  uint32_t Delay       , /* Delay in milliseconds */
 720:/home/hkh/git/eapidk-code-r76-trunk/lib/linux/../EApiAPI.cpp ****     __IN  uint32_t EventTimeout, /* Event Timeout in 
 721:/home/hkh/git/eapidk-code-r76-trunk/lib/linux/../EApiAPI.cpp ****                                   * milliseconds 
 722:/home/hkh/git/eapidk-code-r76-trunk/lib/linux/../EApiAPI.cpp ****                                   */
 723:/home/hkh/git/eapidk-code-r76-trunk/lib/linux/../EApiAPI.cpp ****     __IN  uint32_t ResetTimeout  /* Reset Timeout in 
 724:/home/hkh/git/eapidk-code-r76-trunk/lib/linux/../EApiAPI.cpp ****                                   * milliseconds 
 725:/home/hkh/git/eapidk-code-r76-trunk/lib/linux/../EApiAPI.cpp ****                                   */
 726:/home/hkh/git/eapidk-code-r76-trunk/lib/linux/../EApiAPI.cpp ****     )
 727:/home/hkh/git/eapidk-code-r76-trunk/lib/linux/../EApiAPI.cpp **** {
 2307              		.loc 1 727 1
 2308              		.cfi_startproc
 2309 1954 F30F1EFA 		endbr64
 2310 1958 55       		pushq	%rbp
 2311              		.cfi_def_cfa_offset 16
 2312              		.cfi_offset 6, -16
 2313 1959 4889E5   		movq	%rsp, %rbp
 2314              		.cfi_def_cfa_register 6
 2315 195c 4883EC20 		subq	$32, %rsp
 2316 1960 897DEC   		movl	%edi, -20(%rbp)
 2317 1963 8975E8   		movl	%esi, -24(%rbp)
 2318 1966 8955E4   		movl	%edx, -28(%rbp)
 728:/home/hkh/git/eapidk-code-r76-trunk/lib/linux/../EApiAPI.cpp ****   EApiStatus_t StatusCode=EAPI_STATUS_SUCCESS;
 2319              		.loc 1 728 16
 2320 1969 C745FC00 		movl	$0, -4(%rbp)
 2320      000000
 729:/home/hkh/git/eapidk-code-r76-trunk/lib/linux/../EApiAPI.cpp ****   EAPI_CHECK_INITIALIZED(EApiWDogStart);
 2321              		.loc 1 729 3
 2322 1970 8B050000 		movl	Initialized(%rip), %eax
 2322      0000
 2323 1976 85C0     		testl	%eax, %eax
 2324 1978 7548     		jne	.L134
 2325              		.loc 1 729 3 is_stmt 0 discriminator 1
 2326 197a 4883EC08 		subq	$8, %rsp
 2327 197e 488D0500 		leaq	.LC3(%rip), %rax
 2327      000000
 2328 1985 50       		pushq	%rax
 2329 1986 4C8D0D00 		leaq	.LC0(%rip), %r9
GAS LISTING /tmp/cc79wf7w.s 			page 70


 2329      000000
 2330 198d 41B8FFFF 		movl	$-1, %r8d
 2330      FFFF
 2331 1993 B9D90200 		movl	$729, %ecx
 2331      00
 2332 1998 488D1500 		leaq	.LC51(%rip), %rdx
 2332      000000
 2333 199f 488D3500 		leaq	.LC2(%rip), %rsi
 2333      000000
 2334 19a6 BF450000 		movl	$69, %edi
 2334      00
 2335 19ab B8000000 		movl	$0, %eax
 2335      00
 2336 19b0 E8000000 		call	siFormattedMessage_SC@PLT
 2336      00
 2337 19b5 4883C410 		addq	$16, %rsp
 2338 19b9 C745FCFF 		movl	$-1, -4(%rbp)
 2338      FFFFFF
 2339 19c0 EB15     		jmp	.L135
 2340              	.L134:
 730:/home/hkh/git/eapidk-code-r76-trunk/lib/linux/../EApiAPI.cpp ****   StatusCode=EApiWDogStartEmul(Delay, EventTimeout, ResetTimeout);
 2341              		.loc 1 730 14 is_stmt 1
 2342 19c2 8B55E4   		movl	-28(%rbp), %edx
 2343 19c5 8B4DE8   		movl	-24(%rbp), %ecx
 2344 19c8 8B45EC   		movl	-20(%rbp), %eax
 2345 19cb 89CE     		movl	%ecx, %esi
 2346 19cd 89C7     		movl	%eax, %edi
 2347 19cf E8000000 		call	EApiWDogStartEmul@PLT
 2347      00
 2348 19d4 8945FC   		movl	%eax, -4(%rbp)
 2349              	.L135:
 731:/home/hkh/git/eapidk-code-r76-trunk/lib/linux/../EApiAPI.cpp **** EAPI_LIB_ASSERT_EXIT
 732:/home/hkh/git/eapidk-code-r76-trunk/lib/linux/../EApiAPI.cpp ****   return StatusCode;
 2350              		.loc 1 732 10
 2351 19d7 8B45FC   		movl	-4(%rbp), %eax
 733:/home/hkh/git/eapidk-code-r76-trunk/lib/linux/../EApiAPI.cpp **** }
 2352              		.loc 1 733 1
 2353 19da C9       		leave
 2354              		.cfi_def_cfa 7, 8
 2355 19db C3       		ret
 2356              		.cfi_endproc
 2357              	.LFE25:
 2359              		.section	.rodata
 2360              	.LC52:
 2361 04e6 45417069 		.string	"EApiWDogTrigger"
 2361      57446F67 
 2361      54726967 
 2361      67657200 
 2362              		.text
 2363              		.globl	EApiWDogTrigger
 2365              	EApiWDogTrigger:
 2366              	.LFB26:
 734:/home/hkh/git/eapidk-code-r76-trunk/lib/linux/../EApiAPI.cpp **** EApiStatus_t
 735:/home/hkh/git/eapidk-code-r76-trunk/lib/linux/../EApiAPI.cpp **** EAPI_CALLTYPE 
 736:/home/hkh/git/eapidk-code-r76-trunk/lib/linux/../EApiAPI.cpp **** EApiWDogTrigger(void)
 737:/home/hkh/git/eapidk-code-r76-trunk/lib/linux/../EApiAPI.cpp **** {
 2367              		.loc 1 737 1
GAS LISTING /tmp/cc79wf7w.s 			page 71


 2368              		.cfi_startproc
 2369 19dc F30F1EFA 		endbr64
 2370 19e0 55       		pushq	%rbp
 2371              		.cfi_def_cfa_offset 16
 2372              		.cfi_offset 6, -16
 2373 19e1 4889E5   		movq	%rsp, %rbp
 2374              		.cfi_def_cfa_register 6
 2375 19e4 4883EC10 		subq	$16, %rsp
 738:/home/hkh/git/eapidk-code-r76-trunk/lib/linux/../EApiAPI.cpp ****   EApiStatus_t StatusCode=EAPI_STATUS_SUCCESS;
 2376              		.loc 1 738 16
 2377 19e8 C745FC00 		movl	$0, -4(%rbp)
 2377      000000
 739:/home/hkh/git/eapidk-code-r76-trunk/lib/linux/../EApiAPI.cpp ****   EAPI_CHECK_INITIALIZED(EApiWDogTrigger);
 2378              		.loc 1 739 3
 2379 19ef 8B050000 		movl	Initialized(%rip), %eax
 2379      0000
 2380 19f5 85C0     		testl	%eax, %eax
 2381 19f7 7548     		jne	.L138
 2382              		.loc 1 739 3 is_stmt 0 discriminator 1
 2383 19f9 4883EC08 		subq	$8, %rsp
 2384 19fd 488D0500 		leaq	.LC3(%rip), %rax
 2384      000000
 2385 1a04 50       		pushq	%rax
 2386 1a05 4C8D0D00 		leaq	.LC0(%rip), %r9
 2386      000000
 2387 1a0c 41B8FFFF 		movl	$-1, %r8d
 2387      FFFF
 2388 1a12 B9E30200 		movl	$739, %ecx
 2388      00
 2389 1a17 488D1500 		leaq	.LC52(%rip), %rdx
 2389      000000
 2390 1a1e 488D3500 		leaq	.LC2(%rip), %rsi
 2390      000000
 2391 1a25 BF450000 		movl	$69, %edi
 2391      00
 2392 1a2a B8000000 		movl	$0, %eax
 2392      00
 2393 1a2f E8000000 		call	siFormattedMessage_SC@PLT
 2393      00
 2394 1a34 4883C410 		addq	$16, %rsp
 2395 1a38 C745FCFF 		movl	$-1, -4(%rbp)
 2395      FFFFFF
 2396 1a3f EB08     		jmp	.L139
 2397              	.L138:
 740:/home/hkh/git/eapidk-code-r76-trunk/lib/linux/../EApiAPI.cpp ****   StatusCode=EApiWDogTriggerEmul();
 2398              		.loc 1 740 14 is_stmt 1
 2399 1a41 E8000000 		call	EApiWDogTriggerEmul@PLT
 2399      00
 2400 1a46 8945FC   		movl	%eax, -4(%rbp)
 2401              	.L139:
 741:/home/hkh/git/eapidk-code-r76-trunk/lib/linux/../EApiAPI.cpp **** EAPI_LIB_ASSERT_EXIT
 742:/home/hkh/git/eapidk-code-r76-trunk/lib/linux/../EApiAPI.cpp ****   return StatusCode;
 2402              		.loc 1 742 10
 2403 1a49 8B45FC   		movl	-4(%rbp), %eax
 743:/home/hkh/git/eapidk-code-r76-trunk/lib/linux/../EApiAPI.cpp **** }
 2404              		.loc 1 743 1
 2405 1a4c C9       		leave
GAS LISTING /tmp/cc79wf7w.s 			page 72


 2406              		.cfi_def_cfa 7, 8
 2407 1a4d C3       		ret
 2408              		.cfi_endproc
 2409              	.LFE26:
 2411              		.section	.rodata
 2412              	.LC53:
 2413 04f6 45417069 		.string	"EApiWDogStop"
 2413      57446F67 
 2413      53746F70 
 2413      00
 2414              		.text
 2415              		.globl	EApiWDogStop
 2417              	EApiWDogStop:
 2418              	.LFB27:
 744:/home/hkh/git/eapidk-code-r76-trunk/lib/linux/../EApiAPI.cpp **** EApiStatus_t 
 745:/home/hkh/git/eapidk-code-r76-trunk/lib/linux/../EApiAPI.cpp **** EAPI_CALLTYPE 
 746:/home/hkh/git/eapidk-code-r76-trunk/lib/linux/../EApiAPI.cpp **** EApiWDogStop(void)
 747:/home/hkh/git/eapidk-code-r76-trunk/lib/linux/../EApiAPI.cpp **** {
 2419              		.loc 1 747 1
 2420              		.cfi_startproc
 2421 1a4e F30F1EFA 		endbr64
 2422 1a52 55       		pushq	%rbp
 2423              		.cfi_def_cfa_offset 16
 2424              		.cfi_offset 6, -16
 2425 1a53 4889E5   		movq	%rsp, %rbp
 2426              		.cfi_def_cfa_register 6
 2427 1a56 4883EC10 		subq	$16, %rsp
 748:/home/hkh/git/eapidk-code-r76-trunk/lib/linux/../EApiAPI.cpp ****   EApiStatus_t StatusCode=EAPI_STATUS_SUCCESS;
 2428              		.loc 1 748 16
 2429 1a5a C745FC00 		movl	$0, -4(%rbp)
 2429      000000
 749:/home/hkh/git/eapidk-code-r76-trunk/lib/linux/../EApiAPI.cpp ****   EAPI_CHECK_INITIALIZED(EApiWDogStop);
 2430              		.loc 1 749 3
 2431 1a61 8B050000 		movl	Initialized(%rip), %eax
 2431      0000
 2432 1a67 85C0     		testl	%eax, %eax
 2433 1a69 7548     		jne	.L142
 2434              		.loc 1 749 3 is_stmt 0 discriminator 1
 2435 1a6b 4883EC08 		subq	$8, %rsp
 2436 1a6f 488D0500 		leaq	.LC3(%rip), %rax
 2436      000000
 2437 1a76 50       		pushq	%rax
 2438 1a77 4C8D0D00 		leaq	.LC0(%rip), %r9
 2438      000000
 2439 1a7e 41B8FFFF 		movl	$-1, %r8d
 2439      FFFF
 2440 1a84 B9ED0200 		movl	$749, %ecx
 2440      00
 2441 1a89 488D1500 		leaq	.LC53(%rip), %rdx
 2441      000000
 2442 1a90 488D3500 		leaq	.LC2(%rip), %rsi
 2442      000000
 2443 1a97 BF450000 		movl	$69, %edi
 2443      00
 2444 1a9c B8000000 		movl	$0, %eax
 2444      00
 2445 1aa1 E8000000 		call	siFormattedMessage_SC@PLT
GAS LISTING /tmp/cc79wf7w.s 			page 73


 2445      00
 2446 1aa6 4883C410 		addq	$16, %rsp
 2447 1aaa C745FCFF 		movl	$-1, -4(%rbp)
 2447      FFFFFF
 2448 1ab1 EB08     		jmp	.L143
 2449              	.L142:
 750:/home/hkh/git/eapidk-code-r76-trunk/lib/linux/../EApiAPI.cpp ****   StatusCode=EApiWDogStopEmul();
 2450              		.loc 1 750 14 is_stmt 1
 2451 1ab3 E8000000 		call	EApiWDogStopEmul@PLT
 2451      00
 2452 1ab8 8945FC   		movl	%eax, -4(%rbp)
 2453              	.L143:
 751:/home/hkh/git/eapidk-code-r76-trunk/lib/linux/../EApiAPI.cpp **** EAPI_LIB_ASSERT_EXIT
 752:/home/hkh/git/eapidk-code-r76-trunk/lib/linux/../EApiAPI.cpp ****   return StatusCode;
 2454              		.loc 1 752 10
 2455 1abb 8B45FC   		movl	-4(%rbp), %eax
 753:/home/hkh/git/eapidk-code-r76-trunk/lib/linux/../EApiAPI.cpp **** }
 2456              		.loc 1 753 1
 2457 1abe C9       		leave
 2458              		.cfi_def_cfa 7, 8
 2459 1abf C3       		ret
 2460              		.cfi_endproc
 2461              	.LFE27:
 2463              		.section	.rodata
 2464              	.LC54:
 2465 0503 45417069 		.string	"EApiStorageCap"
 2465      53746F72 
 2465      61676543 
 2465      617000
 2466 0512 00000000 		.align 8
 2466      0000
 2467              	.LC55:
 2468 0518 28287042 		.string	"((pBlockLength==NULL)&&(pStorageSize==NULL))"
 2468      6C6F636B 
 2468      4C656E67 
 2468      74683D3D 
 2468      4E554C4C 
 2469              		.text
 2470              		.globl	EApiStorageCap
 2472              	EApiStorageCap:
 2473              	.LFB28:
 754:/home/hkh/git/eapidk-code-r76-trunk/lib/linux/../EApiAPI.cpp **** 
 755:/home/hkh/git/eapidk-code-r76-trunk/lib/linux/../EApiAPI.cpp **** /*
 756:/home/hkh/git/eapidk-code-r76-trunk/lib/linux/../EApiAPI.cpp ****  *
 757:/home/hkh/git/eapidk-code-r76-trunk/lib/linux/../EApiAPI.cpp ****  *  
 758:/home/hkh/git/eapidk-code-r76-trunk/lib/linux/../EApiAPI.cpp ****  *
 759:/home/hkh/git/eapidk-code-r76-trunk/lib/linux/../EApiAPI.cpp ****  *  S T O R A G E 
 760:/home/hkh/git/eapidk-code-r76-trunk/lib/linux/../EApiAPI.cpp ****  *
 761:/home/hkh/git/eapidk-code-r76-trunk/lib/linux/../EApiAPI.cpp ****  *
 762:/home/hkh/git/eapidk-code-r76-trunk/lib/linux/../EApiAPI.cpp ****  *
 763:/home/hkh/git/eapidk-code-r76-trunk/lib/linux/../EApiAPI.cpp ****  */
 764:/home/hkh/git/eapidk-code-r76-trunk/lib/linux/../EApiAPI.cpp **** EApiStatus_t 
 765:/home/hkh/git/eapidk-code-r76-trunk/lib/linux/../EApiAPI.cpp **** EAPI_CALLTYPE 
 766:/home/hkh/git/eapidk-code-r76-trunk/lib/linux/../EApiAPI.cpp **** EApiStorageCap(
 767:/home/hkh/git/eapidk-code-r76-trunk/lib/linux/../EApiAPI.cpp ****     __IN  EApiId_t  Id            , /* Storage Area Id */
 768:/home/hkh/git/eapidk-code-r76-trunk/lib/linux/../EApiAPI.cpp ****     __OUT uint32_t  *pStorageSize , /* Total */
 769:/home/hkh/git/eapidk-code-r76-trunk/lib/linux/../EApiAPI.cpp ****     __OUT uint32_t  *pBlockLength   /* Write Block Length & Alignment */
GAS LISTING /tmp/cc79wf7w.s 			page 74


 770:/home/hkh/git/eapidk-code-r76-trunk/lib/linux/../EApiAPI.cpp ****     )
 771:/home/hkh/git/eapidk-code-r76-trunk/lib/linux/../EApiAPI.cpp **** {
 2474              		.loc 1 771 1
 2475              		.cfi_startproc
 2476 1ac0 F30F1EFA 		endbr64
 2477 1ac4 55       		pushq	%rbp
 2478              		.cfi_def_cfa_offset 16
 2479              		.cfi_offset 6, -16
 2480 1ac5 4889E5   		movq	%rsp, %rbp
 2481              		.cfi_def_cfa_register 6
 2482 1ac8 4883EC30 		subq	$48, %rsp
 2483 1acc 897DEC   		movl	%edi, -20(%rbp)
 2484 1acf 488975E0 		movq	%rsi, -32(%rbp)
 2485 1ad3 488955D8 		movq	%rdx, -40(%rbp)
 2486              		.loc 1 771 1
 2487 1ad7 64488B04 		movq	%fs:40, %rax
 2487      25280000 
 2487      00
 2488 1ae0 488945F8 		movq	%rax, -8(%rbp)
 2489 1ae4 31C0     		xorl	%eax, %eax
 772:/home/hkh/git/eapidk-code-r76-trunk/lib/linux/../EApiAPI.cpp ****   EApiStatus_t StatusCode=EAPI_STATUS_SUCCESS;
 2490              		.loc 1 772 16
 2491 1ae6 C745F400 		movl	$0, -12(%rbp)
 2491      000000
 773:/home/hkh/git/eapidk-code-r76-trunk/lib/linux/../EApiAPI.cpp ****   uint32_t DummyValue;
 774:/home/hkh/git/eapidk-code-r76-trunk/lib/linux/../EApiAPI.cpp **** 
 775:/home/hkh/git/eapidk-code-r76-trunk/lib/linux/../EApiAPI.cpp ****   EAPI_CHECK_INITIALIZED(EApiStorageCap);
 2492              		.loc 1 775 3
 2493 1aed 8B050000 		movl	Initialized(%rip), %eax
 2493      0000
 2494 1af3 85C0     		testl	%eax, %eax
 2495 1af5 754B     		jne	.L146
 2496              		.loc 1 775 3 is_stmt 0 discriminator 1
 2497 1af7 4883EC08 		subq	$8, %rsp
 2498 1afb 488D0500 		leaq	.LC3(%rip), %rax
 2498      000000
 2499 1b02 50       		pushq	%rax
 2500 1b03 4C8D0D00 		leaq	.LC0(%rip), %r9
 2500      000000
 2501 1b0a 41B8FFFF 		movl	$-1, %r8d
 2501      FFFF
 2502 1b10 B9070300 		movl	$775, %ecx
 2502      00
 2503 1b15 488D1500 		leaq	.LC54(%rip), %rdx
 2503      000000
 2504 1b1c 488D3500 		leaq	.LC2(%rip), %rsi
 2504      000000
 2505 1b23 BF450000 		movl	$69, %edi
 2505      00
 2506 1b28 B8000000 		movl	$0, %eax
 2506      00
 2507 1b2d E8000000 		call	siFormattedMessage_SC@PLT
 2507      00
 2508 1b32 4883C410 		addq	$16, %rsp
 2509 1b36 C745F4FF 		movl	$-1, -12(%rbp)
 2509      FFFFFF
 2510 1b3d E98C0000 		jmp	.L147
GAS LISTING /tmp/cc79wf7w.s 			page 75


 2510      00
 2511              	.L146:
 776:/home/hkh/git/eapidk-code-r76-trunk/lib/linux/../EApiAPI.cpp ****   EAPI_LIB_ASSERT_PARAMATER_CHECK(
 2512              		.loc 1 776 3 is_stmt 1
 2513 1b42 48837DD8 		cmpq	$0, -40(%rbp)
 2513      00
 2514 1b47 754F     		jne	.L148
 2515              		.loc 1 776 3 is_stmt 0 discriminator 1
 2516 1b49 48837DE0 		cmpq	$0, -32(%rbp)
 2516      00
 2517 1b4e 7548     		jne	.L148
 2518              		.loc 1 776 3 discriminator 2
 2519 1b50 4883EC08 		subq	$8, %rsp
 2520 1b54 488D0500 		leaq	.LC55(%rip), %rax
 2520      000000
 2521 1b5b 50       		pushq	%rax
 2522 1b5c 4C8D0D00 		leaq	.LC0(%rip), %r9
 2522      000000
 2523 1b63 41B8FFFE 		movl	$-257, %r8d
 2523      FFFF
 2524 1b69 B9080300 		movl	$776, %ecx
 2524      00
 2525 1b6e 488D1500 		leaq	.LC54(%rip), %rdx
 2525      000000
 2526 1b75 488D3500 		leaq	.LC2(%rip), %rsi
 2526      000000
 2527 1b7c BF450000 		movl	$69, %edi
 2527      00
 2528 1b81 B8000000 		movl	$0, %eax
 2528      00
 2529 1b86 E8000000 		call	siFormattedMessage_SC@PLT
 2529      00
 2530 1b8b 4883C410 		addq	$16, %rsp
 2531 1b8f C745F4FF 		movl	$-257, -12(%rbp)
 2531      FEFFFF
 2532 1b96 EB36     		jmp	.L147
 2533              	.L148:
 777:/home/hkh/git/eapidk-code-r76-trunk/lib/linux/../EApiAPI.cpp ****       EApiStorageCap, 
 778:/home/hkh/git/eapidk-code-r76-trunk/lib/linux/../EApiAPI.cpp ****       ((pBlockLength==NULL)&&(pStorageSize==NULL)), 
 779:/home/hkh/git/eapidk-code-r76-trunk/lib/linux/../EApiAPI.cpp ****       "((pBlockLength==NULL)&&(pStorageSize==NULL))"
 780:/home/hkh/git/eapidk-code-r76-trunk/lib/linux/../EApiAPI.cpp ****       );
 781:/home/hkh/git/eapidk-code-r76-trunk/lib/linux/../EApiAPI.cpp ****   if(pStorageSize==NULL)
 2534              		.loc 1 781 5 is_stmt 1
 2535 1b98 48837DE0 		cmpq	$0, -32(%rbp)
 2535      00
 2536 1b9d 7508     		jne	.L149
 782:/home/hkh/git/eapidk-code-r76-trunk/lib/linux/../EApiAPI.cpp ****     pStorageSize=&DummyValue;         /* Better Example for a wrapper */
 2537              		.loc 1 782 17
 2538 1b9f 488D45F0 		leaq	-16(%rbp), %rax
 2539 1ba3 488945E0 		movq	%rax, -32(%rbp)
 2540              	.L149:
 783:/home/hkh/git/eapidk-code-r76-trunk/lib/linux/../EApiAPI.cpp ****   if(pBlockLength==NULL)
 2541              		.loc 1 783 5
 2542 1ba7 48837DD8 		cmpq	$0, -40(%rbp)
 2542      00
 2543 1bac 7508     		jne	.L150
 784:/home/hkh/git/eapidk-code-r76-trunk/lib/linux/../EApiAPI.cpp ****     pBlockLength=&DummyValue;
GAS LISTING /tmp/cc79wf7w.s 			page 76


 2544              		.loc 1 784 17
 2545 1bae 488D45F0 		leaq	-16(%rbp), %rax
 2546 1bb2 488945D8 		movq	%rax, -40(%rbp)
 2547              	.L150:
 785:/home/hkh/git/eapidk-code-r76-trunk/lib/linux/../EApiAPI.cpp **** 
 786:/home/hkh/git/eapidk-code-r76-trunk/lib/linux/../EApiAPI.cpp ****   StatusCode=EApiStorageCapEmul(Id, pStorageSize, pBlockLength);
 2548              		.loc 1 786 14
 2549 1bb6 488B55D8 		movq	-40(%rbp), %rdx
 2550 1bba 488B4DE0 		movq	-32(%rbp), %rcx
 2551 1bbe 8B45EC   		movl	-20(%rbp), %eax
 2552 1bc1 4889CE   		movq	%rcx, %rsi
 2553 1bc4 89C7     		movl	%eax, %edi
 2554 1bc6 E8000000 		call	EApiStorageCapEmul@PLT
 2554      00
 2555 1bcb 8945F4   		movl	%eax, -12(%rbp)
 2556              	.L147:
 787:/home/hkh/git/eapidk-code-r76-trunk/lib/linux/../EApiAPI.cpp **** EAPI_LIB_ASSERT_EXIT
 788:/home/hkh/git/eapidk-code-r76-trunk/lib/linux/../EApiAPI.cpp ****   return StatusCode;
 2557              		.loc 1 788 10
 2558 1bce 8B45F4   		movl	-12(%rbp), %eax
 789:/home/hkh/git/eapidk-code-r76-trunk/lib/linux/../EApiAPI.cpp **** }
 2559              		.loc 1 789 1
 2560 1bd1 488B4DF8 		movq	-8(%rbp), %rcx
 2561 1bd5 6448330C 		xorq	%fs:40, %rcx
 2561      25280000 
 2561      00
 2562 1bde 7405     		je	.L152
 2563 1be0 E8000000 		call	__stack_chk_fail@PLT
 2563      00
 2564              	.L152:
 2565 1be5 C9       		leave
 2566              		.cfi_def_cfa 7, 8
 2567 1be6 C3       		ret
 2568              		.cfi_endproc
 2569              	.LFE28:
 2571              		.section	.rodata
 2572              	.LC56:
 2573 0545 45417069 		.string	"EApiStorageAreaRead"
 2573      53746F72 
 2573      61676541 
 2573      72656152 
 2573      65616400 
 2574 0559 00000000 		.align 8
 2574      000000
 2575              	.LC57:
 2576 0560 49643D25 		.string	"Id=%08X Offset=%04X BufLen=%04X ByteCnt=%04X\n"
 2576      30385820 
 2576      4F666673 
 2576      65743D25 
 2576      30345820 
 2577 058e 0000     		.align 8
 2578              	.LC58:
 2579 0590 20704275 		.string	" pBuffer Overflow PreventedByteCnt>BufLen"
 2579      66666572 
 2579      204F7665 
 2579      72666C6F 
 2579      77205072 
GAS LISTING /tmp/cc79wf7w.s 			page 77


 2580              		.text
 2581              		.globl	EApiStorageAreaRead
 2583              	EApiStorageAreaRead:
 2584              	.LFB29:
 790:/home/hkh/git/eapidk-code-r76-trunk/lib/linux/../EApiAPI.cpp **** EApiStatus_t 
 791:/home/hkh/git/eapidk-code-r76-trunk/lib/linux/../EApiAPI.cpp **** EAPI_CALLTYPE 
 792:/home/hkh/git/eapidk-code-r76-trunk/lib/linux/../EApiAPI.cpp **** EApiStorageAreaRead(
 793:/home/hkh/git/eapidk-code-r76-trunk/lib/linux/../EApiAPI.cpp ****     __IN  EApiId_t  Id      , /* Storage Area Id */
 794:/home/hkh/git/eapidk-code-r76-trunk/lib/linux/../EApiAPI.cpp ****     __IN  uint32_t  Offset  , /* Byte Offset */
 795:/home/hkh/git/eapidk-code-r76-trunk/lib/linux/../EApiAPI.cpp ****     __OUT     void *pBuffer , /* Pointer to Date pBuffer */
 796:/home/hkh/git/eapidk-code-r76-trunk/lib/linux/../EApiAPI.cpp ****     __IN  uint32_t  BufLen  , /* Data pBuffer Size in bytes */
 797:/home/hkh/git/eapidk-code-r76-trunk/lib/linux/../EApiAPI.cpp ****     __IN  uint32_t  ByteCnt   /* Number of bytes to read */
 798:/home/hkh/git/eapidk-code-r76-trunk/lib/linux/../EApiAPI.cpp ****     )
 799:/home/hkh/git/eapidk-code-r76-trunk/lib/linux/../EApiAPI.cpp **** {
 2585              		.loc 1 799 1
 2586              		.cfi_startproc
 2587 1be7 F30F1EFA 		endbr64
 2588 1beb 55       		pushq	%rbp
 2589              		.cfi_def_cfa_offset 16
 2590              		.cfi_offset 6, -16
 2591 1bec 4889E5   		movq	%rsp, %rbp
 2592              		.cfi_def_cfa_register 6
 2593 1bef 4883EC30 		subq	$48, %rsp
 2594 1bf3 897DEC   		movl	%edi, -20(%rbp)
 2595 1bf6 8975E8   		movl	%esi, -24(%rbp)
 2596 1bf9 488955E0 		movq	%rdx, -32(%rbp)
 2597 1bfd 894DDC   		movl	%ecx, -36(%rbp)
 2598 1c00 448945D8 		movl	%r8d, -40(%rbp)
 800:/home/hkh/git/eapidk-code-r76-trunk/lib/linux/../EApiAPI.cpp ****   EApiStatus_t StatusCode=EAPI_STATUS_SUCCESS;
 2599              		.loc 1 800 16
 2600 1c04 C745F800 		movl	$0, -8(%rbp)
 2600      000000
 801:/home/hkh/git/eapidk-code-r76-trunk/lib/linux/../EApiAPI.cpp ****   EApiStatus_t ErrorCode2;
 802:/home/hkh/git/eapidk-code-r76-trunk/lib/linux/../EApiAPI.cpp ****   EAPI_CHECK_INITIALIZED(EApiStorageAreaRead);
 2601              		.loc 1 802 3
 2602 1c0b 8B050000 		movl	Initialized(%rip), %eax
 2602      0000
 2603 1c11 85C0     		testl	%eax, %eax
 2604 1c13 754B     		jne	.L154
 2605              		.loc 1 802 3 is_stmt 0 discriminator 1
 2606 1c15 4883EC08 		subq	$8, %rsp
 2607 1c19 488D0500 		leaq	.LC3(%rip), %rax
 2607      000000
 2608 1c20 50       		pushq	%rax
 2609 1c21 4C8D0D00 		leaq	.LC0(%rip), %r9
 2609      000000
 2610 1c28 41B8FFFF 		movl	$-1, %r8d
 2610      FFFF
 2611 1c2e B9220300 		movl	$802, %ecx
 2611      00
 2612 1c33 488D1500 		leaq	.LC56(%rip), %rdx
 2612      000000
 2613 1c3a 488D3500 		leaq	.LC2(%rip), %rsi
 2613      000000
 2614 1c41 BF450000 		movl	$69, %edi
 2614      00
 2615 1c46 B8000000 		movl	$0, %eax
GAS LISTING /tmp/cc79wf7w.s 			page 78


 2615      00
 2616 1c4b E8000000 		call	siFormattedMessage_SC@PLT
 2616      00
 2617 1c50 4883C410 		addq	$16, %rsp
 2618 1c54 C745F8FF 		movl	$-1, -8(%rbp)
 2618      FFFFFF
 2619 1c5b E9AF0100 		jmp	.L155
 2619      00
 2620              	.L154:
 803:/home/hkh/git/eapidk-code-r76-trunk/lib/linux/../EApiAPI.cpp **** #if (STRICT_VALIDATION>1)
 804:/home/hkh/git/eapidk-code-r76-trunk/lib/linux/../EApiAPI.cpp ****   siFormattedMessage_M2(
 2621              		.loc 1 804 3 is_stmt 1
 2622 1c60 8B45D8   		movl	-40(%rbp), %eax
 2623 1c63 50       		pushq	%rax
 2624 1c64 8B45DC   		movl	-36(%rbp), %eax
 2625 1c67 50       		pushq	%rax
 2626 1c68 8B45E8   		movl	-24(%rbp), %eax
 2627 1c6b 50       		pushq	%rax
 2628 1c6c 8B45EC   		movl	-20(%rbp), %eax
 2629 1c6f 50       		pushq	%rax
 2630 1c70 4C8D0D00 		leaq	.LC57(%rip), %r9
 2630      000000
 2631 1c77 4C8D0500 		leaq	.LC8(%rip), %r8
 2631      000000
 2632 1c7e B9280300 		movl	$808, %ecx
 2632      00
 2633 1c83 488D1500 		leaq	.LC9(%rip), %rdx
 2633      000000
 2634 1c8a 488D3500 		leaq	.LC2(%rip), %rsi
 2634      000000
 2635 1c91 BF4C0000 		movl	$76, %edi
 2635      00
 2636 1c96 B8000000 		movl	$0, %eax
 2636      00
 2637 1c9b E8000000 		call	siFormattedMessage_M2@PLT
 2637      00
 2638 1ca0 4883C420 		addq	$32, %rsp
 805:/home/hkh/git/eapidk-code-r76-trunk/lib/linux/../EApiAPI.cpp ****           'L'                   ,
 806:/home/hkh/git/eapidk-code-r76-trunk/lib/linux/../EApiAPI.cpp ****           __FILE__              ,
 807:/home/hkh/git/eapidk-code-r76-trunk/lib/linux/../EApiAPI.cpp ****           "EApiI2CWriteTransfer",
 808:/home/hkh/git/eapidk-code-r76-trunk/lib/linux/../EApiAPI.cpp ****           __LINE__              ,
 809:/home/hkh/git/eapidk-code-r76-trunk/lib/linux/../EApiAPI.cpp ****           "Info"                ,
 810:/home/hkh/git/eapidk-code-r76-trunk/lib/linux/../EApiAPI.cpp ****           "Id=%08"PRIX32" Offset=%04"PRIX32
 811:/home/hkh/git/eapidk-code-r76-trunk/lib/linux/../EApiAPI.cpp ****           " BufLen=%04"PRIX32" ByteCnt=%04"PRIX32"\n", 
 812:/home/hkh/git/eapidk-code-r76-trunk/lib/linux/../EApiAPI.cpp ****           Id, Offset, BufLen, ByteCnt
 813:/home/hkh/git/eapidk-code-r76-trunk/lib/linux/../EApiAPI.cpp ****         );
 814:/home/hkh/git/eapidk-code-r76-trunk/lib/linux/../EApiAPI.cpp **** #endif
 815:/home/hkh/git/eapidk-code-r76-trunk/lib/linux/../EApiAPI.cpp ****   EAPI_LIB_ASSERT_PARAMATER_NULL(EApiStorageAreaRead, pBuffer);
 2639              		.loc 1 815 3
 2640 1ca4 48837DE0 		cmpq	$0, -32(%rbp)
 2640      00
 2641 1ca9 754B     		jne	.L156
 2642              		.loc 1 815 3 is_stmt 0 discriminator 1
 2643 1cab 4883EC08 		subq	$8, %rsp
 2644 1caf 488D0500 		leaq	.LC16(%rip), %rax
 2644      000000
 2645 1cb6 50       		pushq	%rax
GAS LISTING /tmp/cc79wf7w.s 			page 79


 2646 1cb7 4C8D0D00 		leaq	.LC0(%rip), %r9
 2646      000000
 2647 1cbe 41B8FFFE 		movl	$-257, %r8d
 2647      FFFF
 2648 1cc4 B92F0300 		movl	$815, %ecx
 2648      00
 2649 1cc9 488D1500 		leaq	.LC56(%rip), %rdx
 2649      000000
 2650 1cd0 488D3500 		leaq	.LC2(%rip), %rsi
 2650      000000
 2651 1cd7 BF450000 		movl	$69, %edi
 2651      00
 2652 1cdc B8000000 		movl	$0, %eax
 2652      00
 2653 1ce1 E8000000 		call	siFormattedMessage_SC@PLT
 2653      00
 2654 1ce6 4883C410 		addq	$16, %rsp
 2655 1cea C745F8FF 		movl	$-257, -8(%rbp)
 2655      FEFFFF
 2656 1cf1 E9190100 		jmp	.L155
 2656      00
 2657              	.L156:
 816:/home/hkh/git/eapidk-code-r76-trunk/lib/linux/../EApiAPI.cpp ****   EAPI_LIB_ASSERT_PARAMATER_ZERO(EApiStorageAreaRead, ByteCnt);
 2658              		.loc 1 816 3 is_stmt 1
 2659 1cf6 837DD800 		cmpl	$0, -40(%rbp)
 2660 1cfa 754B     		jne	.L157
 2661              		.loc 1 816 3 is_stmt 0 discriminator 1
 2662 1cfc 4883EC08 		subq	$8, %rsp
 2663 1d00 488D0500 		leaq	.LC18(%rip), %rax
 2663      000000
 2664 1d07 50       		pushq	%rax
 2665 1d08 4C8D0D00 		leaq	.LC0(%rip), %r9
 2665      000000
 2666 1d0f 41B8FFFE 		movl	$-257, %r8d
 2666      FFFF
 2667 1d15 B9300300 		movl	$816, %ecx
 2667      00
 2668 1d1a 488D1500 		leaq	.LC56(%rip), %rdx
 2668      000000
 2669 1d21 488D3500 		leaq	.LC2(%rip), %rsi
 2669      000000
 2670 1d28 BF450000 		movl	$69, %edi
 2670      00
 2671 1d2d B8000000 		movl	$0, %eax
 2671      00
 2672 1d32 E8000000 		call	siFormattedMessage_SC@PLT
 2672      00
 2673 1d37 4883C410 		addq	$16, %rsp
 2674 1d3b C745F8FF 		movl	$-257, -8(%rbp)
 2674      FEFFFF
 2675 1d42 E9C80000 		jmp	.L155
 2675      00
 2676              	.L157:
 817:/home/hkh/git/eapidk-code-r76-trunk/lib/linux/../EApiAPI.cpp ****   EAPI_LIB_ASSERT_PARAMATER_ZERO(EApiStorageAreaRead, BufLen);
 2677              		.loc 1 817 3 is_stmt 1
 2678 1d47 837DDC00 		cmpl	$0, -36(%rbp)
 2679 1d4b 7548     		jne	.L158
GAS LISTING /tmp/cc79wf7w.s 			page 80


 2680              		.loc 1 817 3 is_stmt 0 discriminator 1
 2681 1d4d 4883EC08 		subq	$8, %rsp
 2682 1d51 488D0500 		leaq	.LC17(%rip), %rax
 2682      000000
 2683 1d58 50       		pushq	%rax
 2684 1d59 4C8D0D00 		leaq	.LC0(%rip), %r9
 2684      000000
 2685 1d60 41B8FFFE 		movl	$-257, %r8d
 2685      FFFF
 2686 1d66 B9310300 		movl	$817, %ecx
 2686      00
 2687 1d6b 488D1500 		leaq	.LC56(%rip), %rdx
 2687      000000
 2688 1d72 488D3500 		leaq	.LC2(%rip), %rsi
 2688      000000
 2689 1d79 BF450000 		movl	$69, %edi
 2689      00
 2690 1d7e B8000000 		movl	$0, %eax
 2690      00
 2691 1d83 E8000000 		call	siFormattedMessage_SC@PLT
 2691      00
 2692 1d88 4883C410 		addq	$16, %rsp
 2693 1d8c C745F8FF 		movl	$-257, -8(%rbp)
 2693      FEFFFF
 2694 1d93 EB7A     		jmp	.L155
 2695              	.L158:
 818:/home/hkh/git/eapidk-code-r76-trunk/lib/linux/../EApiAPI.cpp **** 
 819:/home/hkh/git/eapidk-code-r76-trunk/lib/linux/../EApiAPI.cpp ****   EAPI_LIB_PREVENT_BUF_OVERFLOW(EApiStorageAreaRead, ByteCnt, BufLen);
 2696              		.loc 1 819 3 is_stmt 1
 2697 1d95 8B45D8   		movl	-40(%rbp), %eax
 2698 1d98 3B45DC   		cmpl	-36(%rbp), %eax
 2699 1d9b 764C     		jbe	.L159
 2700              		.loc 1 819 3 is_stmt 0 discriminator 1
 2701 1d9d 4883EC08 		subq	$8, %rsp
 2702 1da1 488D0500 		leaq	.LC58(%rip), %rax
 2702      000000
 2703 1da8 50       		pushq	%rax
 2704 1da9 4C8D0D00 		leaq	.LC0(%rip), %r9
 2704      000000
 2705 1db0 41B8FFF9 		movl	$-1537, %r8d
 2705      FFFF
 2706 1db6 B9330300 		movl	$819, %ecx
 2706      00
 2707 1dbb 488D1500 		leaq	.LC56(%rip), %rdx
 2707      000000
 2708 1dc2 488D3500 		leaq	.LC2(%rip), %rsi
 2708      000000
 2709 1dc9 BF450000 		movl	$69, %edi
 2709      00
 2710 1dce B8000000 		movl	$0, %eax
 2710      00
 2711 1dd3 E8000000 		call	siFormattedMessage_SC@PLT
 2711      00
 2712 1dd8 4883C410 		addq	$16, %rsp
 2713 1ddc 8B45DC   		movl	-36(%rbp), %eax
 2714 1ddf 8945D8   		movl	%eax, -40(%rbp)
 2715 1de2 C745F8FF 		movl	$-1537, -8(%rbp)
GAS LISTING /tmp/cc79wf7w.s 			page 81


 2715      F9FFFF
 2716              	.L159:
 820:/home/hkh/git/eapidk-code-r76-trunk/lib/linux/../EApiAPI.cpp **** 
 821:/home/hkh/git/eapidk-code-r76-trunk/lib/linux/../EApiAPI.cpp ****   ErrorCode2=EApiStorageAreaReadEmul(Id, Offset, pBuffer, ByteCnt);
 2717              		.loc 1 821 14 is_stmt 1
 2718 1de9 8B4DD8   		movl	-40(%rbp), %ecx
 2719 1dec 488B55E0 		movq	-32(%rbp), %rdx
 2720 1df0 8B75E8   		movl	-24(%rbp), %esi
 2721 1df3 8B45EC   		movl	-20(%rbp), %eax
 2722 1df6 89C7     		movl	%eax, %edi
 2723 1df8 E8000000 		call	EApiStorageAreaReadEmul@PLT
 2723      00
 2724 1dfd 8945FC   		movl	%eax, -4(%rbp)
 822:/home/hkh/git/eapidk-code-r76-trunk/lib/linux/../EApiAPI.cpp ****   if(ErrorCode2!=EAPI_STATUS_SUCCESS)
 2725              		.loc 1 822 5
 2726 1e00 837DFC00 		cmpl	$0, -4(%rbp)
 2727 1e04 7408     		je	.L161
 823:/home/hkh/git/eapidk-code-r76-trunk/lib/linux/../EApiAPI.cpp ****     StatusCode=ErrorCode2;
 2728              		.loc 1 823 15
 2729 1e06 8B45FC   		movl	-4(%rbp), %eax
 2730 1e09 8945F8   		movl	%eax, -8(%rbp)
 2731 1e0c EB01     		jmp	.L155
 2732              	.L161:
 824:/home/hkh/git/eapidk-code-r76-trunk/lib/linux/../EApiAPI.cpp **** EAPI_LIB_ASSERT_EXIT
 2733              		.loc 1 824 1
 2734 1e0e 90       		nop
 2735              	.L155:
 825:/home/hkh/git/eapidk-code-r76-trunk/lib/linux/../EApiAPI.cpp ****   return StatusCode;
 2736              		.loc 1 825 10
 2737 1e0f 8B45F8   		movl	-8(%rbp), %eax
 826:/home/hkh/git/eapidk-code-r76-trunk/lib/linux/../EApiAPI.cpp **** }
 2738              		.loc 1 826 1
 2739 1e12 C9       		leave
 2740              		.cfi_def_cfa 7, 8
 2741 1e13 C3       		ret
 2742              		.cfi_endproc
 2743              	.LFE29:
 2745              		.section	.rodata
 2746              	.LC59:
 2747 05ba 45417069 		.string	"EApiStorageAreaWrite"
 2747      53746F72 
 2747      61676541 
 2747      72656157 
 2747      72697465 
 2748 05cf 00       		.align 8
 2749              	.LC60:
 2750 05d0 49643D25 		.string	"Id=%08X Offset=%04X ByteCnt=%04X\n"
 2750      30385820 
 2750      4F666673 
 2750      65743D25 
 2750      30345820 
 2751              		.text
 2752              		.globl	EApiStorageAreaWrite
 2754              	EApiStorageAreaWrite:
 2755              	.LFB30:
 827:/home/hkh/git/eapidk-code-r76-trunk/lib/linux/../EApiAPI.cpp **** 
 828:/home/hkh/git/eapidk-code-r76-trunk/lib/linux/../EApiAPI.cpp **** EApiStatus_t 
GAS LISTING /tmp/cc79wf7w.s 			page 82


 829:/home/hkh/git/eapidk-code-r76-trunk/lib/linux/../EApiAPI.cpp **** EAPI_CALLTYPE 
 830:/home/hkh/git/eapidk-code-r76-trunk/lib/linux/../EApiAPI.cpp **** EApiStorageAreaWrite(
 831:/home/hkh/git/eapidk-code-r76-trunk/lib/linux/../EApiAPI.cpp ****     __IN  EApiId_t  Id      , /* Storage Area Id */
 832:/home/hkh/git/eapidk-code-r76-trunk/lib/linux/../EApiAPI.cpp ****     __IN  uint32_t  Offset  , /* Byte Offset */
 833:/home/hkh/git/eapidk-code-r76-trunk/lib/linux/../EApiAPI.cpp ****     __IN      void *pBuffer , /* Pointer to Date pBuffer */
 834:/home/hkh/git/eapidk-code-r76-trunk/lib/linux/../EApiAPI.cpp ****     __IN  uint32_t  ByteCnt   /* Number of bytes to write */
 835:/home/hkh/git/eapidk-code-r76-trunk/lib/linux/../EApiAPI.cpp ****     )
 836:/home/hkh/git/eapidk-code-r76-trunk/lib/linux/../EApiAPI.cpp **** {
 2756              		.loc 1 836 1
 2757              		.cfi_startproc
 2758 1e14 F30F1EFA 		endbr64
 2759 1e18 55       		pushq	%rbp
 2760              		.cfi_def_cfa_offset 16
 2761              		.cfi_offset 6, -16
 2762 1e19 4889E5   		movq	%rsp, %rbp
 2763              		.cfi_def_cfa_register 6
 2764 1e1c 4883EC30 		subq	$48, %rsp
 2765 1e20 897DEC   		movl	%edi, -20(%rbp)
 2766 1e23 8975E8   		movl	%esi, -24(%rbp)
 2767 1e26 488955E0 		movq	%rdx, -32(%rbp)
 2768 1e2a 894DDC   		movl	%ecx, -36(%rbp)
 837:/home/hkh/git/eapidk-code-r76-trunk/lib/linux/../EApiAPI.cpp ****   EApiStatus_t StatusCode=EAPI_STATUS_SUCCESS;
 2769              		.loc 1 837 16
 2770 1e2d C745FC00 		movl	$0, -4(%rbp)
 2770      000000
 838:/home/hkh/git/eapidk-code-r76-trunk/lib/linux/../EApiAPI.cpp **** 
 839:/home/hkh/git/eapidk-code-r76-trunk/lib/linux/../EApiAPI.cpp ****   EAPI_CHECK_INITIALIZED(EApiStorageAreaWrite);
 2771              		.loc 1 839 3
 2772 1e34 8B050000 		movl	Initialized(%rip), %eax
 2772      0000
 2773 1e3a 85C0     		testl	%eax, %eax
 2774 1e3c 754B     		jne	.L163
 2775              		.loc 1 839 3 is_stmt 0 discriminator 1
 2776 1e3e 4883EC08 		subq	$8, %rsp
 2777 1e42 488D0500 		leaq	.LC3(%rip), %rax
 2777      000000
 2778 1e49 50       		pushq	%rax
 2779 1e4a 4C8D0D00 		leaq	.LC0(%rip), %r9
 2779      000000
 2780 1e51 41B8FFFF 		movl	$-1, %r8d
 2780      FFFF
 2781 1e57 B9470300 		movl	$839, %ecx
 2781      00
 2782 1e5c 488D1500 		leaq	.LC59(%rip), %rdx
 2782      000000
 2783 1e63 488D3500 		leaq	.LC2(%rip), %rsi
 2783      000000
 2784 1e6a BF450000 		movl	$69, %edi
 2784      00
 2785 1e6f B8000000 		movl	$0, %eax
 2785      00
 2786 1e74 E8000000 		call	siFormattedMessage_SC@PLT
 2786      00
 2787 1e79 4883C410 		addq	$16, %rsp
 2788 1e7d C745FCFF 		movl	$-1, -4(%rbp)
 2788      FFFFFF
 2789 1e84 E9F80000 		jmp	.L164
GAS LISTING /tmp/cc79wf7w.s 			page 83


 2789      00
 2790              	.L163:
 840:/home/hkh/git/eapidk-code-r76-trunk/lib/linux/../EApiAPI.cpp **** #if (STRICT_VALIDATION>1)
 841:/home/hkh/git/eapidk-code-r76-trunk/lib/linux/../EApiAPI.cpp ****   siFormattedMessage_M2(
 2791              		.loc 1 841 3 is_stmt 1
 2792 1e89 4883EC08 		subq	$8, %rsp
 2793 1e8d 8B45DC   		movl	-36(%rbp), %eax
 2794 1e90 50       		pushq	%rax
 2795 1e91 8B45E8   		movl	-24(%rbp), %eax
 2796 1e94 50       		pushq	%rax
 2797 1e95 8B45EC   		movl	-20(%rbp), %eax
 2798 1e98 50       		pushq	%rax
 2799 1e99 4C8D0D00 		leaq	.LC60(%rip), %r9
 2799      000000
 2800 1ea0 4C8D0500 		leaq	.LC8(%rip), %r8
 2800      000000
 2801 1ea7 B94D0300 		movl	$845, %ecx
 2801      00
 2802 1eac 488D1500 		leaq	.LC9(%rip), %rdx
 2802      000000
 2803 1eb3 488D3500 		leaq	.LC2(%rip), %rsi
 2803      000000
 2804 1eba BF4C0000 		movl	$76, %edi
 2804      00
 2805 1ebf B8000000 		movl	$0, %eax
 2805      00
 2806 1ec4 E8000000 		call	siFormattedMessage_M2@PLT
 2806      00
 2807 1ec9 4883C420 		addq	$32, %rsp
 842:/home/hkh/git/eapidk-code-r76-trunk/lib/linux/../EApiAPI.cpp ****           'L'                   ,
 843:/home/hkh/git/eapidk-code-r76-trunk/lib/linux/../EApiAPI.cpp ****           __FILE__              ,
 844:/home/hkh/git/eapidk-code-r76-trunk/lib/linux/../EApiAPI.cpp ****           "EApiI2CWriteTransfer",
 845:/home/hkh/git/eapidk-code-r76-trunk/lib/linux/../EApiAPI.cpp ****           __LINE__              ,
 846:/home/hkh/git/eapidk-code-r76-trunk/lib/linux/../EApiAPI.cpp ****           "Info"                ,
 847:/home/hkh/git/eapidk-code-r76-trunk/lib/linux/../EApiAPI.cpp ****           "Id=%08"PRIX32" Offset=%04"PRIX32
 848:/home/hkh/git/eapidk-code-r76-trunk/lib/linux/../EApiAPI.cpp ****           " ByteCnt=%04"PRIX32"\n",
 849:/home/hkh/git/eapidk-code-r76-trunk/lib/linux/../EApiAPI.cpp ****           Id, Offset, ByteCnt
 850:/home/hkh/git/eapidk-code-r76-trunk/lib/linux/../EApiAPI.cpp ****         );
 851:/home/hkh/git/eapidk-code-r76-trunk/lib/linux/../EApiAPI.cpp **** #endif
 852:/home/hkh/git/eapidk-code-r76-trunk/lib/linux/../EApiAPI.cpp ****   EAPI_LIB_ASSERT_PARAMATER_NULL(EApiStorageAreaWrite, pBuffer);
 2808              		.loc 1 852 3
 2809 1ecd 48837DE0 		cmpq	$0, -32(%rbp)
 2809      00
 2810 1ed2 7548     		jne	.L165
 2811              		.loc 1 852 3 is_stmt 0 discriminator 1
 2812 1ed4 4883EC08 		subq	$8, %rsp
 2813 1ed8 488D0500 		leaq	.LC16(%rip), %rax
 2813      000000
 2814 1edf 50       		pushq	%rax
 2815 1ee0 4C8D0D00 		leaq	.LC0(%rip), %r9
 2815      000000
 2816 1ee7 41B8FFFE 		movl	$-257, %r8d
 2816      FFFF
 2817 1eed B9540300 		movl	$852, %ecx
 2817      00
 2818 1ef2 488D1500 		leaq	.LC59(%rip), %rdx
 2818      000000
GAS LISTING /tmp/cc79wf7w.s 			page 84


 2819 1ef9 488D3500 		leaq	.LC2(%rip), %rsi
 2819      000000
 2820 1f00 BF450000 		movl	$69, %edi
 2820      00
 2821 1f05 B8000000 		movl	$0, %eax
 2821      00
 2822 1f0a E8000000 		call	siFormattedMessage_SC@PLT
 2822      00
 2823 1f0f 4883C410 		addq	$16, %rsp
 2824 1f13 C745FCFF 		movl	$-257, -4(%rbp)
 2824      FEFFFF
 2825 1f1a EB65     		jmp	.L164
 2826              	.L165:
 853:/home/hkh/git/eapidk-code-r76-trunk/lib/linux/../EApiAPI.cpp ****   EAPI_LIB_ASSERT_PARAMATER_ZERO(EApiStorageAreaWrite, ByteCnt);
 2827              		.loc 1 853 3 is_stmt 1
 2828 1f1c 837DDC00 		cmpl	$0, -36(%rbp)
 2829 1f20 7548     		jne	.L166
 2830              		.loc 1 853 3 is_stmt 0 discriminator 1
 2831 1f22 4883EC08 		subq	$8, %rsp
 2832 1f26 488D0500 		leaq	.LC18(%rip), %rax
 2832      000000
 2833 1f2d 50       		pushq	%rax
 2834 1f2e 4C8D0D00 		leaq	.LC0(%rip), %r9
 2834      000000
 2835 1f35 41B8FFFE 		movl	$-257, %r8d
 2835      FFFF
 2836 1f3b B9550300 		movl	$853, %ecx
 2836      00
 2837 1f40 488D1500 		leaq	.LC59(%rip), %rdx
 2837      000000
 2838 1f47 488D3500 		leaq	.LC2(%rip), %rsi
 2838      000000
 2839 1f4e BF450000 		movl	$69, %edi
 2839      00
 2840 1f53 B8000000 		movl	$0, %eax
 2840      00
 2841 1f58 E8000000 		call	siFormattedMessage_SC@PLT
 2841      00
 2842 1f5d 4883C410 		addq	$16, %rsp
 2843 1f61 C745FCFF 		movl	$-257, -4(%rbp)
 2843      FEFFFF
 2844 1f68 EB17     		jmp	.L164
 2845              	.L166:
 854:/home/hkh/git/eapidk-code-r76-trunk/lib/linux/../EApiAPI.cpp **** 
 855:/home/hkh/git/eapidk-code-r76-trunk/lib/linux/../EApiAPI.cpp ****   StatusCode=EApiStorageAreaWriteEmul(Id, Offset, pBuffer, ByteCnt);
 2846              		.loc 1 855 14 is_stmt 1
 2847 1f6a 8B4DDC   		movl	-36(%rbp), %ecx
 2848 1f6d 488B55E0 		movq	-32(%rbp), %rdx
 2849 1f71 8B75E8   		movl	-24(%rbp), %esi
 2850 1f74 8B45EC   		movl	-20(%rbp), %eax
 2851 1f77 89C7     		movl	%eax, %edi
 2852 1f79 E8000000 		call	EApiStorageAreaWriteEmul@PLT
 2852      00
 2853 1f7e 8945FC   		movl	%eax, -4(%rbp)
 2854              	.L164:
 856:/home/hkh/git/eapidk-code-r76-trunk/lib/linux/../EApiAPI.cpp **** EAPI_LIB_ASSERT_EXIT
 857:/home/hkh/git/eapidk-code-r76-trunk/lib/linux/../EApiAPI.cpp ****   return StatusCode;
GAS LISTING /tmp/cc79wf7w.s 			page 85


 2855              		.loc 1 857 10
 2856 1f81 8B45FC   		movl	-4(%rbp), %eax
 858:/home/hkh/git/eapidk-code-r76-trunk/lib/linux/../EApiAPI.cpp **** }
 2857              		.loc 1 858 1
 2858 1f84 C9       		leave
 2859              		.cfi_def_cfa 7, 8
 2860 1f85 C3       		ret
 2861              		.cfi_endproc
 2862              	.LFE30:
 2864              	.Letext0:
 2865              		.file 2 "/usr/include/x86_64-linux-gnu/bits/types.h"
 2866              		.file 3 "/usr/include/x86_64-linux-gnu/bits/stdint-uintn.h"
 2867              		.file 4 "/usr/include/stdint.h"
 2868              		.file 5 "/usr/include/unistd.h"
 2869              		.file 6 "/usr/include/x86_64-linux-gnu/bits/getopt_core.h"
 2870              		.file 7 "/usr/include/time.h"
 2871              		.file 8 "../../include/EApi.h"
 5072              		.section	.note.gnu.property,"a"
 5073              		.align 8
 5074 0000 04000000 		.long	 1f - 0f
 5075 0004 10000000 		.long	 4f - 1f
 5076 0008 05000000 		.long	 5
 5077              	0:
 5078 000c 474E5500 		.string	 "GNU"
 5079              	1:
 5080              		.align 8
 5081 0010 020000C0 		.long	 0xc0000002
 5082 0014 04000000 		.long	 3f - 2f
 5083              	2:
 5084 0018 03000000 		.long	 0x3
 5085              	3:
 5086 001c 00000000 		.align 8
 5087              	4:
GAS LISTING /tmp/cc79wf7w.s 			page 86

