GAS LISTING /tmp/ccHlBYPn.s 			page 1


   1              		.file	"EApiEmulI2C.c"
   2              		.text
   3              	.Ltext0:
   4              		.hidden	StdExt
   5              		.globl	StdExt
   6              		.section	.rodata
   7              	.LC0:
   8 0000 20202000 		.string	"   "
   9              	.LC1:
  10 0004 53746400 		.string	"Std"
  11              	.LC2:
  12 0008 45787400 		.string	"Ext"
  13              		.section	.data.rel.local,"aw"
  14              		.align 16
  17              	StdExt:
  18 0000 00000000 		.quad	.LC0
  18      00000000 
  19 0008 00000000 		.quad	.LC1
  19      00000000 
  20 0010 00000000 		.quad	.LC2
  20      00000000 
  21              		.section	.rodata
  22 000c 00000000 		.align 8
  23              	.LC3:
  24 0010 25337320 		.string	"%3s CIDX=%04lX Arg1=%1lX DLEN=%04lX PLEN=%04lX WLEN=%04lX RLEN=%04lX %02X,%02X,%02X,%02X\
  24      43494458 
  24      3D253034 
  24      6C582041 
  24      7267313D 
  25              	.LC4:
  26 006a 456D756C 		.string	"EmulateEepromFS"
  26      61746545 
  26      6570726F 
  26      6D465300 
  27 007a 00000000 		.align 8
  27      0000
  28              	.LC5:
  29 0080 2F686F6D 		.string	"/home/hkh/git/eapidk-code-r76-trunk/lib/linux/../EApiEmulI2C.c"
  29      652F686B 
  29      682F6769 
  29      742F6561 
  29      7069646B 
  30              	.LC6:
  31 00bf 25730A00 		.string	"%s\n"
  32 00c3 00000000 		.align 8
  32      00
  33              	.LC7:
  34 00c8 53544420 		.string	"STD INDEX Sent to EXT INDEX EEPROM"
  34      494E4445 
  34      58205365 
  34      6E742074 
  34      6F204558 
  35 00eb 00000000 		.align 8
  35      00
  36              	.LC8:
  37 00f0 43494E44 		.string	"CINDX=%04lX PLEN=%04lX EPLEN=%04lX\n"
  37      583D2530 
GAS LISTING /tmp/ccHlBYPn.s 			page 2


  37      346C5820 
  37      504C454E 
  37      3D253034 
  38              	.LC9:
  39 0114 44657669 		.string	"Device Page Wrap around"
  39      63652050 
  39      61676520 
  39      57726170 
  39      2061726F 
  40              	.LC10:
  41 012c 44657669 		.string	"Device Write Wrap around"
  41      63652057 
  41      72697465 
  41      20577261 
  41      70206172 
  42              	.LC11:
  43 0145 44657669 		.string	"Device Write Error"
  43      63652057 
  43      72697465 
  43      20457272 
  43      6F7200
  44              	.LC12:
  45 0158 44657669 		.string	"Device Read Wrap around"
  45      63652052 
  45      65616420 
  45      57726170 
  45      2061726F 
  46              	.LC13:
  47 0170 44657669 		.string	"Device Read Error"
  47      63652052 
  47      65616420 
  47      4572726F 
  47      7200
  48              	.LC14:
  49 0182 00       		.string	""
  50              		.text
  51              		.globl	EmulateEepromFS
  52              		.hidden	EmulateEepromFS
  54              	EmulateEepromFS:
  55              	.LFB6:
  56              		.file 1 "/home/hkh/git/eapidk-code-r76-trunk/lib/linux/../EApiEmulI2C.c"
   1:/home/hkh/git/eapidk-code-r76-trunk/lib/linux/../EApiEmulI2C.c **** /*
   2:/home/hkh/git/eapidk-code-r76-trunk/lib/linux/../EApiEmulI2C.c ****  *<KHeader>
   3:/home/hkh/git/eapidk-code-r76-trunk/lib/linux/../EApiEmulI2C.c ****  *+=========================================================================
   4:/home/hkh/git/eapidk-code-r76-trunk/lib/linux/../EApiEmulI2C.c ****  *I  Project Name: EApiDK Embedded Application Development Kit
   5:/home/hkh/git/eapidk-code-r76-trunk/lib/linux/../EApiEmulI2C.c ****  *+=========================================================================
   6:/home/hkh/git/eapidk-code-r76-trunk/lib/linux/../EApiEmulI2C.c ****  *I  $HeadURL: file:///svn/p/eapidk/code/trunk/lib/EApiEmulI2C.c $
   7:/home/hkh/git/eapidk-code-r76-trunk/lib/linux/../EApiEmulI2C.c ****  *+=========================================================================
   8:/home/hkh/git/eapidk-code-r76-trunk/lib/linux/../EApiEmulI2C.c ****  *I   Copyright: Copyright (c) 2002-2009, Kontron Embedded Modules GmbH
   9:/home/hkh/git/eapidk-code-r76-trunk/lib/linux/../EApiEmulI2C.c ****  *I      Author: John Kearney,                  John.Kearney@kontron.com
  10:/home/hkh/git/eapidk-code-r76-trunk/lib/linux/../EApiEmulI2C.c ****  *I
  11:/home/hkh/git/eapidk-code-r76-trunk/lib/linux/../EApiEmulI2C.c ****  *I     License: All rights reserved. This program and the accompanying 
  12:/home/hkh/git/eapidk-code-r76-trunk/lib/linux/../EApiEmulI2C.c ****  *I              materials are licensed and made available under the 
  13:/home/hkh/git/eapidk-code-r76-trunk/lib/linux/../EApiEmulI2C.c ****  *I              terms and conditions of the BSD License which 
  14:/home/hkh/git/eapidk-code-r76-trunk/lib/linux/../EApiEmulI2C.c ****  *I              accompanies this distribution. The full text of the 
  15:/home/hkh/git/eapidk-code-r76-trunk/lib/linux/../EApiEmulI2C.c ****  *I              license may be found at 
  16:/home/hkh/git/eapidk-code-r76-trunk/lib/linux/../EApiEmulI2C.c ****  *I              http://opensource.org/licenses/bsd-license.php
GAS LISTING /tmp/ccHlBYPn.s 			page 3


  17:/home/hkh/git/eapidk-code-r76-trunk/lib/linux/../EApiEmulI2C.c ****  *I              
  18:/home/hkh/git/eapidk-code-r76-trunk/lib/linux/../EApiEmulI2C.c ****  *I              THE PROGRAM IS DISTRIBUTED UNDER THE BSD LICENSE ON AN "
  19:/home/hkh/git/eapidk-code-r76-trunk/lib/linux/../EApiEmulI2C.c ****  *I              AS IS" BASIS, WITHOUT WARRANTIES OR REPRESENTATIONS OF 
  20:/home/hkh/git/eapidk-code-r76-trunk/lib/linux/../EApiEmulI2C.c ****  *I              ANY KIND, EITHER EXPRESS OR IMPLIED.
  21:/home/hkh/git/eapidk-code-r76-trunk/lib/linux/../EApiEmulI2C.c ****  *I
  22:/home/hkh/git/eapidk-code-r76-trunk/lib/linux/../EApiEmulI2C.c ****  *I Description: Auto Created for EApiEmulI2C.c
  23:/home/hkh/git/eapidk-code-r76-trunk/lib/linux/../EApiEmulI2C.c ****  *I
  24:/home/hkh/git/eapidk-code-r76-trunk/lib/linux/../EApiEmulI2C.c ****  *+-------------------------------------------------------------------------
  25:/home/hkh/git/eapidk-code-r76-trunk/lib/linux/../EApiEmulI2C.c ****  *I
  26:/home/hkh/git/eapidk-code-r76-trunk/lib/linux/../EApiEmulI2C.c ****  *I  File Name            : EApiEmulI2C.c
  27:/home/hkh/git/eapidk-code-r76-trunk/lib/linux/../EApiEmulI2C.c ****  *I  File Location        : lib
  28:/home/hkh/git/eapidk-code-r76-trunk/lib/linux/../EApiEmulI2C.c ****  *I  Last committed       : $Revision: 74 $
  29:/home/hkh/git/eapidk-code-r76-trunk/lib/linux/../EApiEmulI2C.c ****  *I  Last changed by      : $Author: dethrophes $
  30:/home/hkh/git/eapidk-code-r76-trunk/lib/linux/../EApiEmulI2C.c ****  *I  Last changed date    : $Date: 2010-06-23 19:26:50 +0000 (Wed, 23 Jun 2010) $
  31:/home/hkh/git/eapidk-code-r76-trunk/lib/linux/../EApiEmulI2C.c ****  *I  ID                   : $Id: EApiEmulI2C.c 74 2010-06-23 19:26:50Z dethrophes $
  32:/home/hkh/git/eapidk-code-r76-trunk/lib/linux/../EApiEmulI2C.c ****  *I
  33:/home/hkh/git/eapidk-code-r76-trunk/lib/linux/../EApiEmulI2C.c ****  *+=========================================================================
  34:/home/hkh/git/eapidk-code-r76-trunk/lib/linux/../EApiEmulI2C.c ****  *</KHeader>
  35:/home/hkh/git/eapidk-code-r76-trunk/lib/linux/../EApiEmulI2C.c ****  */
  36:/home/hkh/git/eapidk-code-r76-trunk/lib/linux/../EApiEmulI2C.c **** 
  37:/home/hkh/git/eapidk-code-r76-trunk/lib/linux/../EApiEmulI2C.c **** #include <EApiLib.h>
  38:/home/hkh/git/eapidk-code-r76-trunk/lib/linux/../EApiEmulI2C.c **** #include <stdio.h>
  39:/home/hkh/git/eapidk-code-r76-trunk/lib/linux/../EApiEmulI2C.c **** 
  40:/home/hkh/git/eapidk-code-r76-trunk/lib/linux/../EApiEmulI2C.c **** #define END_OF_LIST_MARK ((uint32_t)-1)
  41:/home/hkh/git/eapidk-code-r76-trunk/lib/linux/../EApiEmulI2C.c **** 
  42:/home/hkh/git/eapidk-code-r76-trunk/lib/linux/../EApiEmulI2C.c **** 
  43:/home/hkh/git/eapidk-code-r76-trunk/lib/linux/../EApiEmulI2C.c **** /*
  44:/home/hkh/git/eapidk-code-r76-trunk/lib/linux/../EApiEmulI2C.c ****  *
  45:/home/hkh/git/eapidk-code-r76-trunk/lib/linux/../EApiEmulI2C.c ****  *  
  46:/home/hkh/git/eapidk-code-r76-trunk/lib/linux/../EApiEmulI2C.c ****  *
  47:/home/hkh/git/eapidk-code-r76-trunk/lib/linux/../EApiEmulI2C.c ****  *      I2C  Emulation
  48:/home/hkh/git/eapidk-code-r76-trunk/lib/linux/../EApiEmulI2C.c ****  *
  49:/home/hkh/git/eapidk-code-r76-trunk/lib/linux/../EApiEmulI2C.c ****  *
  50:/home/hkh/git/eapidk-code-r76-trunk/lib/linux/../EApiEmulI2C.c ****  *
  51:/home/hkh/git/eapidk-code-r76-trunk/lib/linux/../EApiEmulI2C.c ****  */
  52:/home/hkh/git/eapidk-code-r76-trunk/lib/linux/../EApiEmulI2C.c **** #define I2C_EMUL_FREQ  100000
  53:/home/hkh/git/eapidk-code-r76-trunk/lib/linux/../EApiEmulI2C.c **** #define I2C_EMUL_BYTE_DELAY_NS (1000000000/I2C_EMUL_FREQ*(8+1))
  54:/home/hkh/git/eapidk-code-r76-trunk/lib/linux/../EApiEmulI2C.c **** typedef 
  55:/home/hkh/git/eapidk-code-r76-trunk/lib/linux/../EApiEmulI2C.c **** EApiStatus_t 
  56:/home/hkh/git/eapidk-code-r76-trunk/lib/linux/../EApiEmulI2C.c **** I2CDevEmulator_t(
  57:/home/hkh/git/eapidk-code-r76-trunk/lib/linux/../EApiEmulI2C.c ****     __IN uint32_t Arg1      , 
  58:/home/hkh/git/eapidk-code-r76-trunk/lib/linux/../EApiEmulI2C.c ****     __IN void    *pWBuffer  , 
  59:/home/hkh/git/eapidk-code-r76-trunk/lib/linux/../EApiEmulI2C.c ****     __IN uint32_t WriteBCnt , 
  60:/home/hkh/git/eapidk-code-r76-trunk/lib/linux/../EApiEmulI2C.c ****     __OUT void   *pRBuffer  , 
  61:/home/hkh/git/eapidk-code-r76-trunk/lib/linux/../EApiEmulI2C.c ****     __IN uint32_t ReadBCnt
  62:/home/hkh/git/eapidk-code-r76-trunk/lib/linux/../EApiEmulI2C.c ****     );
  63:/home/hkh/git/eapidk-code-r76-trunk/lib/linux/../EApiEmulI2C.c **** 
  64:/home/hkh/git/eapidk-code-r76-trunk/lib/linux/../EApiEmulI2C.c **** I2CDevEmulator_t EmulateDIDEeprom     ;
  65:/home/hkh/git/eapidk-code-r76-trunk/lib/linux/../EApiEmulI2C.c **** I2CDevEmulator_t EmulateUDSEeprom     ;
  66:/home/hkh/git/eapidk-code-r76-trunk/lib/linux/../EApiEmulI2C.c **** I2CDevEmulator_t EmulateEPIEeprom     ;
  67:/home/hkh/git/eapidk-code-r76-trunk/lib/linux/../EApiEmulI2C.c **** I2CDevEmulator_t EmulateEeePExpEeprom ;
  68:/home/hkh/git/eapidk-code-r76-trunk/lib/linux/../EApiEmulI2C.c **** I2CDevEmulator_t EmulateCOM0MEeprom   ;
  69:/home/hkh/git/eapidk-code-r76-trunk/lib/linux/../EApiEmulI2C.c **** I2CDevEmulator_t EmulateCOM0CBEeprom  ;
  70:/home/hkh/git/eapidk-code-r76-trunk/lib/linux/../EApiEmulI2C.c **** 
  71:/home/hkh/git/eapidk-code-r76-trunk/lib/linux/../EApiEmulI2C.c **** typedef struct CmdDesc_s{
  72:/home/hkh/git/eapidk-code-r76-trunk/lib/linux/../EApiEmulI2C.c ****   const unsigned long Cmd           ; /* Cmd */
  73:/home/hkh/git/eapidk-code-r76-trunk/lib/linux/../EApiEmulI2C.c ****   const unsigned long CmdBlockLen   ; /* Cmd Buffer Length */
GAS LISTING /tmp/ccHlBYPn.s 			page 4


  74:/home/hkh/git/eapidk-code-r76-trunk/lib/linux/../EApiEmulI2C.c ****   void     *const     pBuffer       ; /* Cmd Content */ 
  75:/home/hkh/git/eapidk-code-r76-trunk/lib/linux/../EApiEmulI2C.c **** }CmdDesc_t;
  76:/home/hkh/git/eapidk-code-r76-trunk/lib/linux/../EApiEmulI2C.c **** typedef struct CmdDeviceCfgData_s{
  77:/home/hkh/git/eapidk-code-r76-trunk/lib/linux/../EApiEmulI2C.c ****   const unsigned long ExtendedCmd   ; /* Ext/Std Index */
  78:/home/hkh/git/eapidk-code-r76-trunk/lib/linux/../EApiEmulI2C.c ****   unsigned long       CurrentCmd    ; /* Ext/Std Index */
  79:/home/hkh/git/eapidk-code-r76-trunk/lib/linux/../EApiEmulI2C.c ****   unsigned long       CurrentOffset ; /* Ext/Std Index */
  80:/home/hkh/git/eapidk-code-r76-trunk/lib/linux/../EApiEmulI2C.c ****   const char *const   cszDeviceName ;
  81:/home/hkh/git/eapidk-code-r76-trunk/lib/linux/../EApiEmulI2C.c ****   CmdDesc_t *const    Cmds          ; /* Commands Buffer pointer */ 
  82:/home/hkh/git/eapidk-code-r76-trunk/lib/linux/../EApiEmulI2C.c **** }CmdDeviceCfgData_t;
  83:/home/hkh/git/eapidk-code-r76-trunk/lib/linux/../EApiEmulI2C.c **** 
  84:/home/hkh/git/eapidk-code-r76-trunk/lib/linux/../EApiEmulI2C.c **** typedef struct EepromCfgData_s{
  85:/home/hkh/git/eapidk-code-r76-trunk/lib/linux/../EApiEmulI2C.c ****   const unsigned long ByteLen       ; /* EEPROM Length */
  86:/home/hkh/git/eapidk-code-r76-trunk/lib/linux/../EApiEmulI2C.c ****   const unsigned long ExtendedCmd   ; /* Ext/Std Index */
  87:/home/hkh/git/eapidk-code-r76-trunk/lib/linux/../EApiEmulI2C.c ****   const unsigned long PageLength    ; /* Write Page Alignment size */
  88:/home/hkh/git/eapidk-code-r76-trunk/lib/linux/../EApiEmulI2C.c **** #define STD_INDEX 1                  
  89:/home/hkh/git/eapidk-code-r76-trunk/lib/linux/../EApiEmulI2C.c **** #define EXT_INDEX 2                  
  90:/home/hkh/git/eapidk-code-r76-trunk/lib/linux/../EApiEmulI2C.c ****   unsigned long       CurIndx       ; /* Current Index Value */
  91:/home/hkh/git/eapidk-code-r76-trunk/lib/linux/../EApiEmulI2C.c ****   uint8_t  *const     pu8DBuffer    ; /* Eeprom pBuffer Pointer */ 
  92:/home/hkh/git/eapidk-code-r76-trunk/lib/linux/../EApiEmulI2C.c ****   const char *const   cszFilename   ;
  93:/home/hkh/git/eapidk-code-r76-trunk/lib/linux/../EApiEmulI2C.c ****   FILE     *FStream;
  94:/home/hkh/git/eapidk-code-r76-trunk/lib/linux/../EApiEmulI2C.c **** }EepromCfgData_t;
  95:/home/hkh/git/eapidk-code-r76-trunk/lib/linux/../EApiEmulI2C.c **** 
  96:/home/hkh/git/eapidk-code-r76-trunk/lib/linux/../EApiEmulI2C.c **** typedef struct BusDevicesTbl_s{
  97:/home/hkh/git/eapidk-code-r76-trunk/lib/linux/../EApiEmulI2C.c ****   const unsigned long     EncAddr   ; /* Device Address */
  98:/home/hkh/git/eapidk-code-r76-trunk/lib/linux/../EApiEmulI2C.c ****   I2CDevEmulator_t *const Emulator  ; /* Emulator */
  99:/home/hkh/git/eapidk-code-r76-trunk/lib/linux/../EApiEmulI2C.c ****   const unsigned long     Arg1      ; /* Argument to pass to Emulator */
 100:/home/hkh/git/eapidk-code-r76-trunk/lib/linux/../EApiEmulI2C.c **** }BusDevicesTbl_t;
 101:/home/hkh/git/eapidk-code-r76-trunk/lib/linux/../EApiEmulI2C.c **** #if (STRICT_VALIDATION>1)
 102:/home/hkh/git/eapidk-code-r76-trunk/lib/linux/../EApiEmulI2C.c **** char * StdExt[]={
 103:/home/hkh/git/eapidk-code-r76-trunk/lib/linux/../EApiEmulI2C.c ****   "   ",
 104:/home/hkh/git/eapidk-code-r76-trunk/lib/linux/../EApiEmulI2C.c ****   "Std",
 105:/home/hkh/git/eapidk-code-r76-trunk/lib/linux/../EApiEmulI2C.c ****   "Ext"
 106:/home/hkh/git/eapidk-code-r76-trunk/lib/linux/../EApiEmulI2C.c **** };
 107:/home/hkh/git/eapidk-code-r76-trunk/lib/linux/../EApiEmulI2C.c **** #endif
 108:/home/hkh/git/eapidk-code-r76-trunk/lib/linux/../EApiEmulI2C.c **** 
 109:/home/hkh/git/eapidk-code-r76-trunk/lib/linux/../EApiEmulI2C.c **** EApiStatus_t 
 110:/home/hkh/git/eapidk-code-r76-trunk/lib/linux/../EApiEmulI2C.c **** EmulateEepromFS(
 111:/home/hkh/git/eapidk-code-r76-trunk/lib/linux/../EApiEmulI2C.c ****     __IN unsigned long    Arg1      , 
 112:/home/hkh/git/eapidk-code-r76-trunk/lib/linux/../EApiEmulI2C.c ****     __IN EepromCfgData_t *CfgData   , 
 113:/home/hkh/git/eapidk-code-r76-trunk/lib/linux/../EApiEmulI2C.c ****     __IN uint8_t         *pWBuffer  , 
 114:/home/hkh/git/eapidk-code-r76-trunk/lib/linux/../EApiEmulI2C.c ****     __IN unsigned long    WriteBCnt , 
 115:/home/hkh/git/eapidk-code-r76-trunk/lib/linux/../EApiEmulI2C.c ****     __OUT uint8_t        *pRBuffer  , 
 116:/home/hkh/git/eapidk-code-r76-trunk/lib/linux/../EApiEmulI2C.c ****     __IN unsigned long    ReadBCnt
 117:/home/hkh/git/eapidk-code-r76-trunk/lib/linux/../EApiEmulI2C.c ****     )
 118:/home/hkh/git/eapidk-code-r76-trunk/lib/linux/../EApiEmulI2C.c **** {
  57              		.loc 1 118 1
  58              		.cfi_startproc
  59 0000 F30F1EFA 		endbr64
  60 0004 55       		pushq	%rbp
  61              		.cfi_def_cfa_offset 16
  62              		.cfi_offset 6, -16
  63 0005 4889E5   		movq	%rsp, %rbp
  64              		.cfi_def_cfa_register 6
  65 0008 4883EC40 		subq	$64, %rsp
  66 000c 48897DE8 		movq	%rdi, -24(%rbp)
  67 0010 488975E0 		movq	%rsi, -32(%rbp)
  68 0014 488955D8 		movq	%rdx, -40(%rbp)
GAS LISTING /tmp/ccHlBYPn.s 			page 5


  69 0018 48894DD0 		movq	%rcx, -48(%rbp)
  70 001c 4C8945C8 		movq	%r8, -56(%rbp)
  71 0020 4C894DC0 		movq	%r9, -64(%rbp)
 119:/home/hkh/git/eapidk-code-r76-trunk/lib/linux/../EApiEmulI2C.c ****   EApiStatus_t StatusCode=EAPI_STATUS_SUCCESS;
  72              		.loc 1 119 16
  73 0024 C745FC00 		movl	$0, -4(%rbp)
  73      000000
 120:/home/hkh/git/eapidk-code-r76-trunk/lib/linux/../EApiEmulI2C.c ****   
 121:/home/hkh/git/eapidk-code-r76-trunk/lib/linux/../EApiEmulI2C.c **** #if (STRICT_VALIDATION>1)
 122:/home/hkh/git/eapidk-code-r76-trunk/lib/linux/../EApiEmulI2C.c ****         siFormattedMessage_M2(
 123:/home/hkh/git/eapidk-code-r76-trunk/lib/linux/../EApiEmulI2C.c ****               'L'                   ,
 124:/home/hkh/git/eapidk-code-r76-trunk/lib/linux/../EApiEmulI2C.c ****               __FILE__              ,
 125:/home/hkh/git/eapidk-code-r76-trunk/lib/linux/../EApiEmulI2C.c ****               "EmulateEepromFS"     ,
 126:/home/hkh/git/eapidk-code-r76-trunk/lib/linux/../EApiEmulI2C.c ****               __LINE__              ,
 127:/home/hkh/git/eapidk-code-r76-trunk/lib/linux/../EApiEmulI2C.c ****               CfgData->cszFilename,
 128:/home/hkh/git/eapidk-code-r76-trunk/lib/linux/../EApiEmulI2C.c ****               "%3s CIDX=%04lX Arg1=%1lX DLEN=%04lX PLEN=%04lX"
 129:/home/hkh/git/eapidk-code-r76-trunk/lib/linux/../EApiEmulI2C.c ****               " WLEN=%04lX RLEN=%04lX %02"PRIX8",%02"PRIX8",%02"PRIX8",%02"PRIX8"\n", 
 130:/home/hkh/git/eapidk-code-r76-trunk/lib/linux/../EApiEmulI2C.c ****               StdExt[CfgData->ExtendedCmd], 
 131:/home/hkh/git/eapidk-code-r76-trunk/lib/linux/../EApiEmulI2C.c ****               CfgData->CurIndx, 
 132:/home/hkh/git/eapidk-code-r76-trunk/lib/linux/../EApiEmulI2C.c ****               Arg1, 
 133:/home/hkh/git/eapidk-code-r76-trunk/lib/linux/../EApiEmulI2C.c ****               CfgData->ByteLen, 
 134:/home/hkh/git/eapidk-code-r76-trunk/lib/linux/../EApiEmulI2C.c ****               CfgData->PageLength, 
 135:/home/hkh/git/eapidk-code-r76-trunk/lib/linux/../EApiEmulI2C.c ****               WriteBCnt, 
 136:/home/hkh/git/eapidk-code-r76-trunk/lib/linux/../EApiEmulI2C.c ****               ReadBCnt, 
 137:/home/hkh/git/eapidk-code-r76-trunk/lib/linux/../EApiEmulI2C.c ****               pWBuffer[0],
 138:/home/hkh/git/eapidk-code-r76-trunk/lib/linux/../EApiEmulI2C.c ****               pWBuffer[1],
 139:/home/hkh/git/eapidk-code-r76-trunk/lib/linux/../EApiEmulI2C.c ****               pWBuffer[2],
 140:/home/hkh/git/eapidk-code-r76-trunk/lib/linux/../EApiEmulI2C.c ****               pWBuffer[3]
  74              		.loc 1 140 23
  75 002b 488B45D8 		movq	-40(%rbp), %rax
  76 002f 4883C003 		addq	$3, %rax
  77 0033 0FB600   		movzbl	(%rax), %eax
 122:/home/hkh/git/eapidk-code-r76-trunk/lib/linux/../EApiEmulI2C.c ****               'L'                   ,
  78              		.loc 1 122 9
  79 0036 440FB6D0 		movzbl	%al, %r10d
 139:/home/hkh/git/eapidk-code-r76-trunk/lib/linux/../EApiEmulI2C.c ****               pWBuffer[3]
  80              		.loc 1 139 23
  81 003a 488B45D8 		movq	-40(%rbp), %rax
  82 003e 4883C002 		addq	$2, %rax
  83 0042 0FB600   		movzbl	(%rax), %eax
 122:/home/hkh/git/eapidk-code-r76-trunk/lib/linux/../EApiEmulI2C.c ****               'L'                   ,
  84              		.loc 1 122 9
  85 0045 440FB6C8 		movzbl	%al, %r9d
 138:/home/hkh/git/eapidk-code-r76-trunk/lib/linux/../EApiEmulI2C.c ****               pWBuffer[2],
  86              		.loc 1 138 23
  87 0049 488B45D8 		movq	-40(%rbp), %rax
  88 004d 4883C001 		addq	$1, %rax
  89 0051 0FB600   		movzbl	(%rax), %eax
 122:/home/hkh/git/eapidk-code-r76-trunk/lib/linux/../EApiEmulI2C.c ****               'L'                   ,
  90              		.loc 1 122 9
  91 0054 440FB6C0 		movzbl	%al, %r8d
 137:/home/hkh/git/eapidk-code-r76-trunk/lib/linux/../EApiEmulI2C.c ****               pWBuffer[1],
  92              		.loc 1 137 23
  93 0058 488B45D8 		movq	-40(%rbp), %rax
  94 005c 0FB600   		movzbl	(%rax), %eax
 122:/home/hkh/git/eapidk-code-r76-trunk/lib/linux/../EApiEmulI2C.c ****               'L'                   ,
  95              		.loc 1 122 9
GAS LISTING /tmp/ccHlBYPn.s 			page 6


  96 005f 0FB6F8   		movzbl	%al, %edi
  97 0062 488B45E0 		movq	-32(%rbp), %rax
  98 0066 488B7010 		movq	16(%rax), %rsi
  99 006a 488B45E0 		movq	-32(%rbp), %rax
 100 006e 488B08   		movq	(%rax), %rcx
 101 0071 488B45E0 		movq	-32(%rbp), %rax
 102 0075 488B5018 		movq	24(%rax), %rdx
 130:/home/hkh/git/eapidk-code-r76-trunk/lib/linux/../EApiEmulI2C.c ****               CfgData->CurIndx, 
 103              		.loc 1 130 29
 104 0079 488B45E0 		movq	-32(%rbp), %rax
 105 007d 488B4008 		movq	8(%rax), %rax
 122:/home/hkh/git/eapidk-code-r76-trunk/lib/linux/../EApiEmulI2C.c ****               'L'                   ,
 106              		.loc 1 122 9
 107 0081 4C8D1CC5 		leaq	0(,%rax,8), %r11
 107      00000000 
 108 0089 488D0500 		leaq	StdExt(%rip), %rax
 108      000000
 109 0090 498B0403 		movq	(%r11,%rax), %rax
 110 0094 4C8B5DE0 		movq	-32(%rbp), %r11
 111 0098 4D8B5B28 		movq	40(%r11), %r11
 112 009c 4883EC08 		subq	$8, %rsp
 113 00a0 4152     		pushq	%r10
 114 00a2 4151     		pushq	%r9
 115 00a4 4150     		pushq	%r8
 116 00a6 57       		pushq	%rdi
 117 00a7 FF75C0   		pushq	-64(%rbp)
 118 00aa FF75D0   		pushq	-48(%rbp)
 119 00ad 56       		pushq	%rsi
 120 00ae 51       		pushq	%rcx
 121 00af FF75E8   		pushq	-24(%rbp)
 122 00b2 52       		pushq	%rdx
 123 00b3 50       		pushq	%rax
 124 00b4 4C8D0D00 		leaq	.LC3(%rip), %r9
 124      000000
 125 00bb 4D89D8   		movq	%r11, %r8
 126 00be B97E0000 		movl	$126, %ecx
 126      00
 127 00c3 488D1500 		leaq	.LC4(%rip), %rdx
 127      000000
 128 00ca 488D3500 		leaq	.LC5(%rip), %rsi
 128      000000
 129 00d1 BF4C0000 		movl	$76, %edi
 129      00
 130 00d6 B8000000 		movl	$0, %eax
 130      00
 131 00db E8000000 		call	siFormattedMessage_M2@PLT
 131      00
 132 00e0 4883C460 		addq	$96, %rsp
 141:/home/hkh/git/eapidk-code-r76-trunk/lib/linux/../EApiEmulI2C.c ****             );
 142:/home/hkh/git/eapidk-code-r76-trunk/lib/linux/../EApiEmulI2C.c **** #endif
 143:/home/hkh/git/eapidk-code-r76-trunk/lib/linux/../EApiEmulI2C.c ****   if(WriteBCnt)
 133              		.loc 1 143 5
 134 00e4 48837DD0 		cmpq	$0, -48(%rbp)
 134      00
 135 00e9 0F844203 		je	.L2
 135      0000
 144:/home/hkh/git/eapidk-code-r76-trunk/lib/linux/../EApiEmulI2C.c ****   {
GAS LISTING /tmp/ccHlBYPn.s 			page 7


 145:/home/hkh/git/eapidk-code-r76-trunk/lib/linux/../EApiEmulI2C.c ****     switch((CfgData->ExtendedCmd))  {      /* Emulate Standard IDX/CMD 
 136              		.loc 1 145 20
 137 00ef 488B45E0 		movq	-32(%rbp), %rax
 138 00f3 488B4008 		movq	8(%rax), %rax
 139              		.loc 1 145 5
 140 00f7 4883F801 		cmpq	$1, %rax
 141 00fb 740B     		je	.L3
 142 00fd 4883F802 		cmpq	$2, %rax
 143 0101 744E     		je	.L4
 146:/home/hkh/git/eapidk-code-r76-trunk/lib/linux/../EApiEmulI2C.c ****                                                     Device */
 147:/home/hkh/git/eapidk-code-r76-trunk/lib/linux/../EApiEmulI2C.c ****       case STD_INDEX:
 148:/home/hkh/git/eapidk-code-r76-trunk/lib/linux/../EApiEmulI2C.c ****         CfgData->CurIndx=*pWBuffer++;
 149:/home/hkh/git/eapidk-code-r76-trunk/lib/linux/../EApiEmulI2C.c ****         WriteBCnt--;
 150:/home/hkh/git/eapidk-code-r76-trunk/lib/linux/../EApiEmulI2C.c ****         CfgData->CurIndx|=Arg1<<8;                 /* Add the Device Address 
 151:/home/hkh/git/eapidk-code-r76-trunk/lib/linux/../EApiEmulI2C.c ****                                                       Index */
 152:/home/hkh/git/eapidk-code-r76-trunk/lib/linux/../EApiEmulI2C.c ****         EAPI_EMUL_DELAY_NS(I2C_EMUL_BYTE_DELAY_NS);
 153:/home/hkh/git/eapidk-code-r76-trunk/lib/linux/../EApiEmulI2C.c ****         break;
 154:/home/hkh/git/eapidk-code-r76-trunk/lib/linux/../EApiEmulI2C.c ****       case EXT_INDEX:                             /* Emulate Extended IDX/CMD
 155:/home/hkh/git/eapidk-code-r76-trunk/lib/linux/../EApiEmulI2C.c ****                                                     Device */
 156:/home/hkh/git/eapidk-code-r76-trunk/lib/linux/../EApiEmulI2C.c ****         EAPI_LIB_RETURN_ERROR_IF(
 157:/home/hkh/git/eapidk-code-r76-trunk/lib/linux/../EApiEmulI2C.c ****             EmulateEepromFS, 
 158:/home/hkh/git/eapidk-code-r76-trunk/lib/linux/../EApiEmulI2C.c ****             WriteBCnt<2, 
 159:/home/hkh/git/eapidk-code-r76-trunk/lib/linux/../EApiEmulI2C.c ****             EAPI_STATUS_READ_ERROR, 
 160:/home/hkh/git/eapidk-code-r76-trunk/lib/linux/../EApiEmulI2C.c ****             "STD INDEX Sent to EXT INDEX EEPROM"
 161:/home/hkh/git/eapidk-code-r76-trunk/lib/linux/../EApiEmulI2C.c ****             );
 162:/home/hkh/git/eapidk-code-r76-trunk/lib/linux/../EApiEmulI2C.c **** 
 163:/home/hkh/git/eapidk-code-r76-trunk/lib/linux/../EApiEmulI2C.c ****         CfgData->CurIndx =pWBuffer[0]<<8;
 164:/home/hkh/git/eapidk-code-r76-trunk/lib/linux/../EApiEmulI2C.c ****         CfgData->CurIndx|=pWBuffer[1];
 165:/home/hkh/git/eapidk-code-r76-trunk/lib/linux/../EApiEmulI2C.c ****         pWBuffer+=2;
 166:/home/hkh/git/eapidk-code-r76-trunk/lib/linux/../EApiEmulI2C.c ****         WriteBCnt-=2;
 167:/home/hkh/git/eapidk-code-r76-trunk/lib/linux/../EApiEmulI2C.c ****         CfgData->CurIndx|=Arg1<<16;                /* Add the Device Address Index */
 168:/home/hkh/git/eapidk-code-r76-trunk/lib/linux/../EApiEmulI2C.c ****         EAPI_EMUL_DELAY_NS(I2C_EMUL_BYTE_DELAY_NS*2);
 169:/home/hkh/git/eapidk-code-r76-trunk/lib/linux/../EApiEmulI2C.c ****         break;
 170:/home/hkh/git/eapidk-code-r76-trunk/lib/linux/../EApiEmulI2C.c ****       default:
 171:/home/hkh/git/eapidk-code-r76-trunk/lib/linux/../EApiEmulI2C.c ****         break;
 144              		.loc 1 171 9
 145 0103 E9040100 		jmp	.L6
 145      00
 146              	.L3:
 148:/home/hkh/git/eapidk-code-r76-trunk/lib/linux/../EApiEmulI2C.c ****         WriteBCnt--;
 147              		.loc 1 148 35
 148 0108 488B45D8 		movq	-40(%rbp), %rax
 149 010c 488D5001 		leaq	1(%rax), %rdx
 150 0110 488955D8 		movq	%rdx, -40(%rbp)
 148:/home/hkh/git/eapidk-code-r76-trunk/lib/linux/../EApiEmulI2C.c ****         WriteBCnt--;
 151              		.loc 1 148 26
 152 0114 0FB600   		movzbl	(%rax), %eax
 153 0117 0FB6D0   		movzbl	%al, %edx
 148:/home/hkh/git/eapidk-code-r76-trunk/lib/linux/../EApiEmulI2C.c ****         WriteBCnt--;
 154              		.loc 1 148 25
 155 011a 488B45E0 		movq	-32(%rbp), %rax
 156 011e 48895018 		movq	%rdx, 24(%rax)
 149:/home/hkh/git/eapidk-code-r76-trunk/lib/linux/../EApiEmulI2C.c ****         CfgData->CurIndx|=Arg1<<8;                 /* Add the Device Address 
 157              		.loc 1 149 18
 158 0122 48836DD0 		subq	$1, -48(%rbp)
 158      01
 150:/home/hkh/git/eapidk-code-r76-trunk/lib/linux/../EApiEmulI2C.c ****                                                       Index */
GAS LISTING /tmp/ccHlBYPn.s 			page 8


 159              		.loc 1 150 25
 160 0127 488B45E0 		movq	-32(%rbp), %rax
 161 012b 488B4018 		movq	24(%rax), %rax
 150:/home/hkh/git/eapidk-code-r76-trunk/lib/linux/../EApiEmulI2C.c ****                                                       Index */
 162              		.loc 1 150 31
 163 012f 488B55E8 		movq	-24(%rbp), %rdx
 164 0133 48C1E208 		salq	$8, %rdx
 150:/home/hkh/git/eapidk-code-r76-trunk/lib/linux/../EApiEmulI2C.c ****                                                       Index */
 165              		.loc 1 150 25
 166 0137 4809C2   		orq	%rax, %rdx
 167 013a 488B45E0 		movq	-32(%rbp), %rax
 168 013e 48895018 		movq	%rdx, 24(%rax)
 152:/home/hkh/git/eapidk-code-r76-trunk/lib/linux/../EApiEmulI2C.c ****         break;
 169              		.loc 1 152 9
 170 0142 BF905F01 		movl	$90000, %edi
 170      00
 171 0147 E8000000 		call	EApiSleepns@PLT
 171      00
 153:/home/hkh/git/eapidk-code-r76-trunk/lib/linux/../EApiEmulI2C.c ****       case EXT_INDEX:                             /* Emulate Extended IDX/CMD
 172              		.loc 1 153 9
 173 014c E9BB0000 		jmp	.L6
 173      00
 174              	.L4:
 156:/home/hkh/git/eapidk-code-r76-trunk/lib/linux/../EApiEmulI2C.c ****             EmulateEepromFS, 
 175              		.loc 1 156 9
 176 0151 48837DD0 		cmpq	$1, -48(%rbp)
 176      01
 177 0156 774B     		ja	.L7
 156:/home/hkh/git/eapidk-code-r76-trunk/lib/linux/../EApiEmulI2C.c ****             EmulateEepromFS, 
 178              		.loc 1 156 9 is_stmt 0 discriminator 1
 179 0158 4883EC08 		subq	$8, %rsp
 180 015c 488D0500 		leaq	.LC7(%rip), %rax
 180      000000
 181 0163 50       		pushq	%rax
 182 0164 4C8D0D00 		leaq	.LC6(%rip), %r9
 182      000000
 183 016b 41B8FFFA 		movl	$-1281, %r8d
 183      FFFF
 184 0171 B99C0000 		movl	$156, %ecx
 184      00
 185 0176 488D1500 		leaq	.LC4(%rip), %rdx
 185      000000
 186 017d 488D3500 		leaq	.LC5(%rip), %rsi
 186      000000
 187 0184 BF450000 		movl	$69, %edi
 187      00
 188 0189 B8000000 		movl	$0, %eax
 188      00
 189 018e E8000000 		call	siFormattedMessage_SC@PLT
 189      00
 190 0193 4883C410 		addq	$16, %rsp
 191 0197 C745FCFF 		movl	$-1281, -4(%rbp)
 191      FAFFFF
 192 019e E9FE0300 		jmp	.L8
 192      00
 193              	.L7:
 163:/home/hkh/git/eapidk-code-r76-trunk/lib/linux/../EApiEmulI2C.c ****         CfgData->CurIndx|=pWBuffer[1];
GAS LISTING /tmp/ccHlBYPn.s 			page 9


 194              		.loc 1 163 35 is_stmt 1
 195 01a3 488B45D8 		movq	-40(%rbp), %rax
 196 01a7 0FB600   		movzbl	(%rax), %eax
 197 01aa 0FB6C0   		movzbl	%al, %eax
 163:/home/hkh/git/eapidk-code-r76-trunk/lib/linux/../EApiEmulI2C.c ****         CfgData->CurIndx|=pWBuffer[1];
 198              		.loc 1 163 38
 199 01ad C1E008   		sall	$8, %eax
 200 01b0 4863D0   		movslq	%eax, %rdx
 163:/home/hkh/git/eapidk-code-r76-trunk/lib/linux/../EApiEmulI2C.c ****         CfgData->CurIndx|=pWBuffer[1];
 201              		.loc 1 163 26
 202 01b3 488B45E0 		movq	-32(%rbp), %rax
 203 01b7 48895018 		movq	%rdx, 24(%rax)
 164:/home/hkh/git/eapidk-code-r76-trunk/lib/linux/../EApiEmulI2C.c ****         pWBuffer+=2;
 204              		.loc 1 164 25
 205 01bb 488B45E0 		movq	-32(%rbp), %rax
 206 01bf 488B5018 		movq	24(%rax), %rdx
 164:/home/hkh/git/eapidk-code-r76-trunk/lib/linux/../EApiEmulI2C.c ****         pWBuffer+=2;
 207              		.loc 1 164 35
 208 01c3 488B45D8 		movq	-40(%rbp), %rax
 209 01c7 4883C001 		addq	$1, %rax
 210 01cb 0FB600   		movzbl	(%rax), %eax
 211 01ce 0FB6C0   		movzbl	%al, %eax
 164:/home/hkh/git/eapidk-code-r76-trunk/lib/linux/../EApiEmulI2C.c ****         pWBuffer+=2;
 212              		.loc 1 164 25
 213 01d1 4809C2   		orq	%rax, %rdx
 214 01d4 488B45E0 		movq	-32(%rbp), %rax
 215 01d8 48895018 		movq	%rdx, 24(%rax)
 165:/home/hkh/git/eapidk-code-r76-trunk/lib/linux/../EApiEmulI2C.c ****         WriteBCnt-=2;
 216              		.loc 1 165 17
 217 01dc 488345D8 		addq	$2, -40(%rbp)
 217      02
 166:/home/hkh/git/eapidk-code-r76-trunk/lib/linux/../EApiEmulI2C.c ****         CfgData->CurIndx|=Arg1<<16;                /* Add the Device Address Index */
 218              		.loc 1 166 18
 219 01e1 48836DD0 		subq	$2, -48(%rbp)
 219      02
 167:/home/hkh/git/eapidk-code-r76-trunk/lib/linux/../EApiEmulI2C.c ****         EAPI_EMUL_DELAY_NS(I2C_EMUL_BYTE_DELAY_NS*2);
 220              		.loc 1 167 25
 221 01e6 488B45E0 		movq	-32(%rbp), %rax
 222 01ea 488B4018 		movq	24(%rax), %rax
 167:/home/hkh/git/eapidk-code-r76-trunk/lib/linux/../EApiEmulI2C.c ****         EAPI_EMUL_DELAY_NS(I2C_EMUL_BYTE_DELAY_NS*2);
 223              		.loc 1 167 31
 224 01ee 488B55E8 		movq	-24(%rbp), %rdx
 225 01f2 48C1E210 		salq	$16, %rdx
 167:/home/hkh/git/eapidk-code-r76-trunk/lib/linux/../EApiEmulI2C.c ****         EAPI_EMUL_DELAY_NS(I2C_EMUL_BYTE_DELAY_NS*2);
 226              		.loc 1 167 25
 227 01f6 4809C2   		orq	%rax, %rdx
 228 01f9 488B45E0 		movq	-32(%rbp), %rax
 229 01fd 48895018 		movq	%rdx, 24(%rax)
 168:/home/hkh/git/eapidk-code-r76-trunk/lib/linux/../EApiEmulI2C.c ****         break;
 230              		.loc 1 168 9
 231 0201 BF20BF02 		movl	$180000, %edi
 231      00
 232 0206 E8000000 		call	EApiSleepns@PLT
 232      00
 169:/home/hkh/git/eapidk-code-r76-trunk/lib/linux/../EApiEmulI2C.c ****       default:
 233              		.loc 1 169 9
 234 020b 90       		nop
GAS LISTING /tmp/ccHlBYPn.s 			page 10


 235              	.L6:
 172:/home/hkh/git/eapidk-code-r76-trunk/lib/linux/../EApiEmulI2C.c ****     }
 173:/home/hkh/git/eapidk-code-r76-trunk/lib/linux/../EApiEmulI2C.c **** #if (STRICT_VALIDATION>1)
 174:/home/hkh/git/eapidk-code-r76-trunk/lib/linux/../EApiEmulI2C.c ****         siFormattedMessage_M2(
 175:/home/hkh/git/eapidk-code-r76-trunk/lib/linux/../EApiEmulI2C.c ****               'L'                   ,
 176:/home/hkh/git/eapidk-code-r76-trunk/lib/linux/../EApiEmulI2C.c ****               __FILE__                              ,
 177:/home/hkh/git/eapidk-code-r76-trunk/lib/linux/../EApiEmulI2C.c ****               "EmulateEepromFS"                     ,
 178:/home/hkh/git/eapidk-code-r76-trunk/lib/linux/../EApiEmulI2C.c ****               __LINE__                              ,
 179:/home/hkh/git/eapidk-code-r76-trunk/lib/linux/../EApiEmulI2C.c ****               CfgData->cszFilename                  ,
 180:/home/hkh/git/eapidk-code-r76-trunk/lib/linux/../EApiEmulI2C.c ****               "CINDX=%04lX PLEN=%04lX EPLEN=%04lX\n",
 181:/home/hkh/git/eapidk-code-r76-trunk/lib/linux/../EApiEmulI2C.c ****               CfgData->CurIndx                      , 
 182:/home/hkh/git/eapidk-code-r76-trunk/lib/linux/../EApiEmulI2C.c ****               CfgData->CurIndx%CfgData->PageLength  ,
 183:/home/hkh/git/eapidk-code-r76-trunk/lib/linux/../EApiEmulI2C.c ****               (CfgData->CurIndx%CfgData->PageLength)+WriteBCnt
 236              		.loc 1 183 23
 237 020c 488B45E0 		movq	-32(%rbp), %rax
 238 0210 488B4018 		movq	24(%rax), %rax
 239              		.loc 1 183 40
 240 0214 488B55E0 		movq	-32(%rbp), %rdx
 241 0218 488B4A10 		movq	16(%rdx), %rcx
 242              		.loc 1 183 32
 243 021c BA000000 		movl	$0, %edx
 243      00
 244 0221 48F7F1   		divq	%rcx
 174:/home/hkh/git/eapidk-code-r76-trunk/lib/linux/../EApiEmulI2C.c ****               'L'                   ,
 245              		.loc 1 174 9
 246 0224 488B45D0 		movq	-48(%rbp), %rax
 247 0228 488D0C02 		leaq	(%rdx,%rax), %rcx
 182:/home/hkh/git/eapidk-code-r76-trunk/lib/linux/../EApiEmulI2C.c ****               (CfgData->CurIndx%CfgData->PageLength)+WriteBCnt
 248              		.loc 1 182 22
 249 022c 488B45E0 		movq	-32(%rbp), %rax
 250 0230 488B4018 		movq	24(%rax), %rax
 182:/home/hkh/git/eapidk-code-r76-trunk/lib/linux/../EApiEmulI2C.c ****               (CfgData->CurIndx%CfgData->PageLength)+WriteBCnt
 251              		.loc 1 182 39
 252 0234 488B55E0 		movq	-32(%rbp), %rdx
 253 0238 488B7210 		movq	16(%rdx), %rsi
 174:/home/hkh/git/eapidk-code-r76-trunk/lib/linux/../EApiEmulI2C.c ****               'L'                   ,
 254              		.loc 1 174 9
 255 023c BA000000 		movl	$0, %edx
 255      00
 256 0241 48F7F6   		divq	%rsi
 257 0244 4889D6   		movq	%rdx, %rsi
 258 0247 488B45E0 		movq	-32(%rbp), %rax
 259 024b 488B4018 		movq	24(%rax), %rax
 260 024f 488B55E0 		movq	-32(%rbp), %rdx
 261 0253 488B5228 		movq	40(%rdx), %rdx
 262 0257 4883EC08 		subq	$8, %rsp
 263 025b 51       		pushq	%rcx
 264 025c 56       		pushq	%rsi
 265 025d 50       		pushq	%rax
 266 025e 4C8D0D00 		leaq	.LC8(%rip), %r9
 266      000000
 267 0265 4989D0   		movq	%rdx, %r8
 268 0268 B9B20000 		movl	$178, %ecx
 268      00
 269 026d 488D1500 		leaq	.LC4(%rip), %rdx
 269      000000
 270 0274 488D3500 		leaq	.LC5(%rip), %rsi
GAS LISTING /tmp/ccHlBYPn.s 			page 11


 270      000000
 271 027b BF4C0000 		movl	$76, %edi
 271      00
 272 0280 B8000000 		movl	$0, %eax
 272      00
 273 0285 E8000000 		call	siFormattedMessage_M2@PLT
 273      00
 274 028a 4883C420 		addq	$32, %rsp
 184:/home/hkh/git/eapidk-code-r76-trunk/lib/linux/../EApiEmulI2C.c ****             );
 185:/home/hkh/git/eapidk-code-r76-trunk/lib/linux/../EApiEmulI2C.c **** #endif
 186:/home/hkh/git/eapidk-code-r76-trunk/lib/linux/../EApiEmulI2C.c ****     if(WriteBCnt)
 275              		.loc 1 186 7
 276 028e 48837DD0 		cmpq	$0, -48(%rbp)
 276      00
 277 0293 0F849801 		je	.L2
 277      0000
 187:/home/hkh/git/eapidk-code-r76-trunk/lib/linux/../EApiEmulI2C.c ****     {
 188:/home/hkh/git/eapidk-code-r76-trunk/lib/linux/../EApiEmulI2C.c ****       EAPI_LIB_RETURN_ERROR_IF(
 278              		.loc 1 188 7
 279 0299 488B45E0 		movq	-32(%rbp), %rax
 280 029d 488B4018 		movq	24(%rax), %rax
 281 02a1 488B55E0 		movq	-32(%rbp), %rdx
 282 02a5 488B4A10 		movq	16(%rdx), %rcx
 283 02a9 BA000000 		movl	$0, %edx
 283      00
 284 02ae 48F7F1   		divq	%rcx
 285 02b1 488B45D0 		movq	-48(%rbp), %rax
 286 02b5 4801C2   		addq	%rax, %rdx
 287 02b8 488B45E0 		movq	-32(%rbp), %rax
 288 02bc 488B4010 		movq	16(%rax), %rax
 289 02c0 4839C2   		cmpq	%rax, %rdx
 290 02c3 764B     		jbe	.L9
 291              		.loc 1 188 7 is_stmt 0 discriminator 1
 292 02c5 4883EC08 		subq	$8, %rsp
 293 02c9 488D0500 		leaq	.LC9(%rip), %rax
 293      000000
 294 02d0 50       		pushq	%rax
 295 02d1 4C8D0D00 		leaq	.LC6(%rip), %r9
 295      000000
 296 02d8 41B8FEFA 		movl	$-1282, %r8d
 296      FFFF
 297 02de B9BC0000 		movl	$188, %ecx
 297      00
 298 02e3 488D1500 		leaq	.LC4(%rip), %rdx
 298      000000
 299 02ea 488D3500 		leaq	.LC5(%rip), %rsi
 299      000000
 300 02f1 BF450000 		movl	$69, %edi
 300      00
 301 02f6 B8000000 		movl	$0, %eax
 301      00
 302 02fb E8000000 		call	siFormattedMessage_SC@PLT
 302      00
 303 0300 4883C410 		addq	$16, %rsp
 304 0304 C745FCFE 		movl	$-1282, -4(%rbp)
 304      FAFFFF
 305 030b E9910200 		jmp	.L8
GAS LISTING /tmp/ccHlBYPn.s 			page 12


 305      00
 306              	.L9:
 189:/home/hkh/git/eapidk-code-r76-trunk/lib/linux/../EApiEmulI2C.c ****           EmulateEepromFS,
 190:/home/hkh/git/eapidk-code-r76-trunk/lib/linux/../EApiEmulI2C.c ****           ((CfgData->CurIndx%CfgData->PageLength)+WriteBCnt)>CfgData->PageLength,
 191:/home/hkh/git/eapidk-code-r76-trunk/lib/linux/../EApiEmulI2C.c ****           EAPI_STATUS_WRITE_ERROR, 
 192:/home/hkh/git/eapidk-code-r76-trunk/lib/linux/../EApiEmulI2C.c ****           "Device Page Wrap around"
 193:/home/hkh/git/eapidk-code-r76-trunk/lib/linux/../EApiEmulI2C.c ****           );
 194:/home/hkh/git/eapidk-code-r76-trunk/lib/linux/../EApiEmulI2C.c ****       EAPI_LIB_RETURN_ERROR_IF(
 307              		.loc 1 194 7 is_stmt 1
 308 0310 488B45E0 		movq	-32(%rbp), %rax
 309 0314 488B5018 		movq	24(%rax), %rdx
 310 0318 488B45D0 		movq	-48(%rbp), %rax
 311 031c 4801C2   		addq	%rax, %rdx
 312 031f 488B45E0 		movq	-32(%rbp), %rax
 313 0323 488B00   		movq	(%rax), %rax
 314 0326 4839C2   		cmpq	%rax, %rdx
 315 0329 764B     		jbe	.L10
 316              		.loc 1 194 7 is_stmt 0 discriminator 1
 317 032b 4883EC08 		subq	$8, %rsp
 318 032f 488D0500 		leaq	.LC10(%rip), %rax
 318      000000
 319 0336 50       		pushq	%rax
 320 0337 4C8D0D00 		leaq	.LC6(%rip), %r9
 320      000000
 321 033e 41B8FEFA 		movl	$-1282, %r8d
 321      FFFF
 322 0344 B9C20000 		movl	$194, %ecx
 322      00
 323 0349 488D1500 		leaq	.LC4(%rip), %rdx
 323      000000
 324 0350 488D3500 		leaq	.LC5(%rip), %rsi
 324      000000
 325 0357 BF450000 		movl	$69, %edi
 325      00
 326 035c B8000000 		movl	$0, %eax
 326      00
 327 0361 E8000000 		call	siFormattedMessage_SC@PLT
 327      00
 328 0366 4883C410 		addq	$16, %rsp
 329 036a C745FCFE 		movl	$-1282, -4(%rbp)
 329      FAFFFF
 330 0371 E92B0200 		jmp	.L8
 330      00
 331              	.L10:
 195:/home/hkh/git/eapidk-code-r76-trunk/lib/linux/../EApiEmulI2C.c ****           EmulateEepromFS,
 196:/home/hkh/git/eapidk-code-r76-trunk/lib/linux/../EApiEmulI2C.c ****           (CfgData->CurIndx+WriteBCnt)>CfgData->ByteLen   , 
 197:/home/hkh/git/eapidk-code-r76-trunk/lib/linux/../EApiEmulI2C.c ****           EAPI_STATUS_WRITE_ERROR, 
 198:/home/hkh/git/eapidk-code-r76-trunk/lib/linux/../EApiEmulI2C.c ****           "Device Write Wrap around"
 199:/home/hkh/git/eapidk-code-r76-trunk/lib/linux/../EApiEmulI2C.c ****           );
 200:/home/hkh/git/eapidk-code-r76-trunk/lib/linux/../EApiEmulI2C.c **** 
 201:/home/hkh/git/eapidk-code-r76-trunk/lib/linux/../EApiEmulI2C.c ****       EAPI_EMUL_DELAY_NS(I2C_EMUL_BYTE_DELAY_NS*WriteBCnt);
 332              		.loc 1 201 7 is_stmt 1
 333 0376 488B45D0 		movq	-48(%rbp), %rax
 334 037a 4869C090 		imulq	$90000, %rax, %rax
 334      5F0100
 335 0381 4889C7   		movq	%rax, %rdi
 336 0384 E8000000 		call	EApiSleepns@PLT
GAS LISTING /tmp/ccHlBYPn.s 			page 13


 336      00
 202:/home/hkh/git/eapidk-code-r76-trunk/lib/linux/../EApiEmulI2C.c ****       fseek(CfgData->FStream, CfgData->CurIndx, SEEK_SET);
 337              		.loc 1 202 38
 338 0389 488B45E0 		movq	-32(%rbp), %rax
 339 038d 488B4018 		movq	24(%rax), %rax
 340              		.loc 1 202 7
 341 0391 4889C1   		movq	%rax, %rcx
 342 0394 488B45E0 		movq	-32(%rbp), %rax
 343 0398 488B4030 		movq	48(%rax), %rax
 344 039c BA000000 		movl	$0, %edx
 344      00
 345 03a1 4889CE   		movq	%rcx, %rsi
 346 03a4 4889C7   		movq	%rax, %rdi
 347 03a7 E8000000 		call	fseek@PLT
 347      00
 203:/home/hkh/git/eapidk-code-r76-trunk/lib/linux/../EApiEmulI2C.c ****       EAPI_LIB_RETURN_ERROR_IF(
 348              		.loc 1 203 7
 349 03ac 488B45E0 		movq	-32(%rbp), %rax
 350 03b0 488B4830 		movq	48(%rax), %rcx
 351 03b4 488B55D0 		movq	-48(%rbp), %rdx
 352 03b8 488B45D8 		movq	-40(%rbp), %rax
 353 03bc BE010000 		movl	$1, %esi
 353      00
 354 03c1 4889C7   		movq	%rax, %rdi
 355 03c4 E8000000 		call	fwrite@PLT
 355      00
 356 03c9 483945D0 		cmpq	%rax, -48(%rbp)
 357 03cd 744B     		je	.L11
 358              		.loc 1 203 7 is_stmt 0 discriminator 1
 359 03cf 4883EC08 		subq	$8, %rsp
 360 03d3 488D0500 		leaq	.LC11(%rip), %rax
 360      000000
 361 03da 50       		pushq	%rax
 362 03db 4C8D0D00 		leaq	.LC6(%rip), %r9
 362      000000
 363 03e2 41B8FEFA 		movl	$-1282, %r8d
 363      FFFF
 364 03e8 B9CB0000 		movl	$203, %ecx
 364      00
 365 03ed 488D1500 		leaq	.LC4(%rip), %rdx
 365      000000
 366 03f4 488D3500 		leaq	.LC5(%rip), %rsi
 366      000000
 367 03fb BF450000 		movl	$69, %edi
 367      00
 368 0400 B8000000 		movl	$0, %eax
 368      00
 369 0405 E8000000 		call	siFormattedMessage_SC@PLT
 369      00
 370 040a 4883C410 		addq	$16, %rsp
 371 040e C745FCFE 		movl	$-1282, -4(%rbp)
 371      FAFFFF
 372 0415 E9870100 		jmp	.L8
 372      00
 373              	.L11:
 204:/home/hkh/git/eapidk-code-r76-trunk/lib/linux/../EApiEmulI2C.c ****           EmulateEepromFS,
 205:/home/hkh/git/eapidk-code-r76-trunk/lib/linux/../EApiEmulI2C.c ****           WriteBCnt!=fwrite(pWBuffer, sizeof(uint8_t), WriteBCnt, CfgData->FStream), 
GAS LISTING /tmp/ccHlBYPn.s 			page 14


 206:/home/hkh/git/eapidk-code-r76-trunk/lib/linux/../EApiEmulI2C.c ****           EAPI_STATUS_WRITE_ERROR, 
 207:/home/hkh/git/eapidk-code-r76-trunk/lib/linux/../EApiEmulI2C.c ****           "Device Write Error"
 208:/home/hkh/git/eapidk-code-r76-trunk/lib/linux/../EApiEmulI2C.c ****           );
 209:/home/hkh/git/eapidk-code-r76-trunk/lib/linux/../EApiEmulI2C.c ****       CfgData->CurIndx+=WriteBCnt;
 374              		.loc 1 209 23 is_stmt 1
 375 041a 488B45E0 		movq	-32(%rbp), %rax
 376 041e 488B5018 		movq	24(%rax), %rdx
 377 0422 488B45D0 		movq	-48(%rbp), %rax
 378 0426 4801C2   		addq	%rax, %rdx
 379 0429 488B45E0 		movq	-32(%rbp), %rax
 380 042d 48895018 		movq	%rdx, 24(%rax)
 381              	.L2:
 210:/home/hkh/git/eapidk-code-r76-trunk/lib/linux/../EApiEmulI2C.c ****     }
 211:/home/hkh/git/eapidk-code-r76-trunk/lib/linux/../EApiEmulI2C.c ****   }
 212:/home/hkh/git/eapidk-code-r76-trunk/lib/linux/../EApiEmulI2C.c **** 
 213:/home/hkh/git/eapidk-code-r76-trunk/lib/linux/../EApiEmulI2C.c ****   if(ReadBCnt)
 382              		.loc 1 213 5
 383 0431 48837DC0 		cmpq	$0, -64(%rbp)
 383      00
 384 0436 0F841E01 		je	.L12
 384      0000
 214:/home/hkh/git/eapidk-code-r76-trunk/lib/linux/../EApiEmulI2C.c ****   {
 215:/home/hkh/git/eapidk-code-r76-trunk/lib/linux/../EApiEmulI2C.c ****     EAPI_LIB_RETURN_ERROR_IF(
 385              		.loc 1 215 5
 386 043c 488B45E0 		movq	-32(%rbp), %rax
 387 0440 488B5018 		movq	24(%rax), %rdx
 388 0444 488B45C0 		movq	-64(%rbp), %rax
 389 0448 4801C2   		addq	%rax, %rdx
 390 044b 488B45E0 		movq	-32(%rbp), %rax
 391 044f 488B00   		movq	(%rax), %rax
 392 0452 4839C2   		cmpq	%rax, %rdx
 393 0455 764B     		jbe	.L13
 394              		.loc 1 215 5 is_stmt 0 discriminator 1
 395 0457 4883EC08 		subq	$8, %rsp
 396 045b 488D0500 		leaq	.LC12(%rip), %rax
 396      000000
 397 0462 50       		pushq	%rax
 398 0463 4C8D0D00 		leaq	.LC6(%rip), %r9
 398      000000
 399 046a 41B8FFFA 		movl	$-1281, %r8d
 399      FFFF
 400 0470 B9D70000 		movl	$215, %ecx
 400      00
 401 0475 488D1500 		leaq	.LC4(%rip), %rdx
 401      000000
 402 047c 488D3500 		leaq	.LC5(%rip), %rsi
 402      000000
 403 0483 BF450000 		movl	$69, %edi
 403      00
 404 0488 B8000000 		movl	$0, %eax
 404      00
 405 048d E8000000 		call	siFormattedMessage_SC@PLT
 405      00
 406 0492 4883C410 		addq	$16, %rsp
 407 0496 C745FCFF 		movl	$-1281, -4(%rbp)
 407      FAFFFF
 408 049d E9FF0000 		jmp	.L8
GAS LISTING /tmp/ccHlBYPn.s 			page 15


 408      00
 409              	.L13:
 216:/home/hkh/git/eapidk-code-r76-trunk/lib/linux/../EApiEmulI2C.c ****         EmulateEepromFS,
 217:/home/hkh/git/eapidk-code-r76-trunk/lib/linux/../EApiEmulI2C.c ****         (CfgData->CurIndx+ReadBCnt)>CfgData->ByteLen      , 
 218:/home/hkh/git/eapidk-code-r76-trunk/lib/linux/../EApiEmulI2C.c ****         EAPI_STATUS_READ_ERROR, 
 219:/home/hkh/git/eapidk-code-r76-trunk/lib/linux/../EApiEmulI2C.c ****         "Device Read Wrap around"
 220:/home/hkh/git/eapidk-code-r76-trunk/lib/linux/../EApiEmulI2C.c ****         );
 221:/home/hkh/git/eapidk-code-r76-trunk/lib/linux/../EApiEmulI2C.c **** 
 222:/home/hkh/git/eapidk-code-r76-trunk/lib/linux/../EApiEmulI2C.c ****     EAPI_EMUL_DELAY_NS(I2C_EMUL_BYTE_DELAY_NS*ReadBCnt);
 410              		.loc 1 222 5 is_stmt 1
 411 04a2 488B45C0 		movq	-64(%rbp), %rax
 412 04a6 4869C090 		imulq	$90000, %rax, %rax
 412      5F0100
 413 04ad 4889C7   		movq	%rax, %rdi
 414 04b0 E8000000 		call	EApiSleepns@PLT
 414      00
 223:/home/hkh/git/eapidk-code-r76-trunk/lib/linux/../EApiEmulI2C.c ****     fseek(CfgData->FStream, CfgData->CurIndx, SEEK_SET);
 415              		.loc 1 223 36
 416 04b5 488B45E0 		movq	-32(%rbp), %rax
 417 04b9 488B4018 		movq	24(%rax), %rax
 418              		.loc 1 223 5
 419 04bd 4889C1   		movq	%rax, %rcx
 420 04c0 488B45E0 		movq	-32(%rbp), %rax
 421 04c4 488B4030 		movq	48(%rax), %rax
 422 04c8 BA000000 		movl	$0, %edx
 422      00
 423 04cd 4889CE   		movq	%rcx, %rsi
 424 04d0 4889C7   		movq	%rax, %rdi
 425 04d3 E8000000 		call	fseek@PLT
 425      00
 224:/home/hkh/git/eapidk-code-r76-trunk/lib/linux/../EApiEmulI2C.c ****     EAPI_LIB_RETURN_ERROR_IF(
 426              		.loc 1 224 5
 427 04d8 488B45E0 		movq	-32(%rbp), %rax
 428 04dc 488B4830 		movq	48(%rax), %rcx
 429 04e0 488B55C0 		movq	-64(%rbp), %rdx
 430 04e4 488B45C8 		movq	-56(%rbp), %rax
 431 04e8 BE010000 		movl	$1, %esi
 431      00
 432 04ed 4889C7   		movq	%rax, %rdi
 433 04f0 E8000000 		call	fread@PLT
 433      00
 434 04f5 483945C0 		cmpq	%rax, -64(%rbp)
 435 04f9 7448     		je	.L14
 436              		.loc 1 224 5 is_stmt 0 discriminator 1
 437 04fb 4883EC08 		subq	$8, %rsp
 438 04ff 488D0500 		leaq	.LC13(%rip), %rax
 438      000000
 439 0506 50       		pushq	%rax
 440 0507 4C8D0D00 		leaq	.LC6(%rip), %r9
 440      000000
 441 050e 41B8FFFA 		movl	$-1281, %r8d
 441      FFFF
 442 0514 B9E00000 		movl	$224, %ecx
 442      00
 443 0519 488D1500 		leaq	.LC4(%rip), %rdx
 443      000000
 444 0520 488D3500 		leaq	.LC5(%rip), %rsi
GAS LISTING /tmp/ccHlBYPn.s 			page 16


 444      000000
 445 0527 BF450000 		movl	$69, %edi
 445      00
 446 052c B8000000 		movl	$0, %eax
 446      00
 447 0531 E8000000 		call	siFormattedMessage_SC@PLT
 447      00
 448 0536 4883C410 		addq	$16, %rsp
 449 053a C745FCFF 		movl	$-1281, -4(%rbp)
 449      FAFFFF
 450 0541 EB5E     		jmp	.L8
 451              	.L14:
 225:/home/hkh/git/eapidk-code-r76-trunk/lib/linux/../EApiEmulI2C.c ****         EmulateEepromFS,
 226:/home/hkh/git/eapidk-code-r76-trunk/lib/linux/../EApiEmulI2C.c ****         ReadBCnt!=fread(pRBuffer, sizeof(uint8_t), ReadBCnt, CfgData->FStream), 
 227:/home/hkh/git/eapidk-code-r76-trunk/lib/linux/../EApiEmulI2C.c ****         EAPI_STATUS_READ_ERROR, 
 228:/home/hkh/git/eapidk-code-r76-trunk/lib/linux/../EApiEmulI2C.c ****         "Device Read Error"
 229:/home/hkh/git/eapidk-code-r76-trunk/lib/linux/../EApiEmulI2C.c ****         );
 230:/home/hkh/git/eapidk-code-r76-trunk/lib/linux/../EApiEmulI2C.c ****     CfgData->CurIndx+=ReadBCnt;
 452              		.loc 1 230 21 is_stmt 1
 453 0543 488B45E0 		movq	-32(%rbp), %rax
 454 0547 488B5018 		movq	24(%rax), %rdx
 455 054b 488B45C0 		movq	-64(%rbp), %rax
 456 054f 4801C2   		addq	%rax, %rdx
 457 0552 488B45E0 		movq	-32(%rbp), %rax
 458 0556 48895018 		movq	%rdx, 24(%rax)
 459              	.L12:
 231:/home/hkh/git/eapidk-code-r76-trunk/lib/linux/../EApiEmulI2C.c ****   }
 232:/home/hkh/git/eapidk-code-r76-trunk/lib/linux/../EApiEmulI2C.c ****   EAPI_LIB_RETURN_SUCCESS(EmulateEepromFS, "");
 460              		.loc 1 232 3
 461 055a 4883EC08 		subq	$8, %rsp
 462 055e 488D0500 		leaq	.LC14(%rip), %rax
 462      000000
 463 0565 50       		pushq	%rax
 464 0566 4C8D0D00 		leaq	.LC6(%rip), %r9
 464      000000
 465 056d 41B80000 		movl	$0, %r8d
 465      0000
 466 0573 B9E80000 		movl	$232, %ecx
 466      00
 467 0578 488D1500 		leaq	.LC4(%rip), %rdx
 467      000000
 468 057f 488D3500 		leaq	.LC5(%rip), %rsi
 468      000000
 469 0586 BF4C0000 		movl	$76, %edi
 469      00
 470 058b B8000000 		movl	$0, %eax
 470      00
 471 0590 E8000000 		call	siFormattedMessage_SC@PLT
 471      00
 472 0595 4883C410 		addq	$16, %rsp
 473 0599 C745FC00 		movl	$0, -4(%rbp)
 473      000000
 474 05a0 90       		nop
 475              	.L8:
 233:/home/hkh/git/eapidk-code-r76-trunk/lib/linux/../EApiEmulI2C.c **** EAPI_LIB_ASSERT_EXIT
 234:/home/hkh/git/eapidk-code-r76-trunk/lib/linux/../EApiEmulI2C.c **** 
 235:/home/hkh/git/eapidk-code-r76-trunk/lib/linux/../EApiEmulI2C.c ****   return StatusCode;
GAS LISTING /tmp/ccHlBYPn.s 			page 17


 476              		.loc 1 235 10
 477 05a1 8B45FC   		movl	-4(%rbp), %eax
 236:/home/hkh/git/eapidk-code-r76-trunk/lib/linux/../EApiEmulI2C.c **** }
 478              		.loc 1 236 1
 479 05a4 C9       		leave
 480              		.cfi_def_cfa 7, 8
 481 05a5 C3       		ret
 482              		.cfi_endproc
 483              	.LFE6:
 485              		.section	.rodata
 486 0183 00000000 		.align 8
 486      00
 487              	.LC15:
 488 0188 25337320 		.string	"%3s CCMD=%04lX Arg1=%1lX WLEN=%04lX RLEN=%04lX %02X,%02X,%02X,%02X\n"
 488      43434D44 
 488      3D253034 
 488      6C582041 
 488      7267313D 
 489              	.LC16:
 490 01cc 456D756C 		.string	"EmulateCmdDevice"
 490      61746543 
 490      6D644465 
 490      76696365 
 490      00
 491              		.text
 492              		.globl	EmulateCmdDevice
 493              		.hidden	EmulateCmdDevice
 495              	EmulateCmdDevice:
 496              	.LFB7:
 237:/home/hkh/git/eapidk-code-r76-trunk/lib/linux/../EApiEmulI2C.c **** 
 238:/home/hkh/git/eapidk-code-r76-trunk/lib/linux/../EApiEmulI2C.c **** 
 239:/home/hkh/git/eapidk-code-r76-trunk/lib/linux/../EApiEmulI2C.c **** EApiStatus_t 
 240:/home/hkh/git/eapidk-code-r76-trunk/lib/linux/../EApiEmulI2C.c **** EmulateCmdDevice(
 241:/home/hkh/git/eapidk-code-r76-trunk/lib/linux/../EApiEmulI2C.c ****     __IN unsigned long        Arg1      , 
 242:/home/hkh/git/eapidk-code-r76-trunk/lib/linux/../EApiEmulI2C.c ****     __IN CmdDeviceCfgData_t  *CfgData   , 
 243:/home/hkh/git/eapidk-code-r76-trunk/lib/linux/../EApiEmulI2C.c ****     __IN uint8_t             *pWBuffer  , 
 244:/home/hkh/git/eapidk-code-r76-trunk/lib/linux/../EApiEmulI2C.c ****     __IN unsigned long        WriteBCnt , 
 245:/home/hkh/git/eapidk-code-r76-trunk/lib/linux/../EApiEmulI2C.c ****     __OUT uint8_t            *pRBuffer  , 
 246:/home/hkh/git/eapidk-code-r76-trunk/lib/linux/../EApiEmulI2C.c ****     __IN unsigned long        ReadBCnt
 247:/home/hkh/git/eapidk-code-r76-trunk/lib/linux/../EApiEmulI2C.c ****     )
 248:/home/hkh/git/eapidk-code-r76-trunk/lib/linux/../EApiEmulI2C.c **** {
 497              		.loc 1 248 1
 498              		.cfi_startproc
 499 05a6 F30F1EFA 		endbr64
 500 05aa 55       		pushq	%rbp
 501              		.cfi_def_cfa_offset 16
 502              		.cfi_offset 6, -16
 503 05ab 4889E5   		movq	%rsp, %rbp
 504              		.cfi_def_cfa_register 6
 505 05ae 4883EC50 		subq	$80, %rsp
 506 05b2 48897DD8 		movq	%rdi, -40(%rbp)
 507 05b6 488975D0 		movq	%rsi, -48(%rbp)
 508 05ba 488955C8 		movq	%rdx, -56(%rbp)
 509 05be 48894DC0 		movq	%rcx, -64(%rbp)
 510 05c2 4C8945B8 		movq	%r8, -72(%rbp)
 511 05c6 4C894DB0 		movq	%r9, -80(%rbp)
 249:/home/hkh/git/eapidk-code-r76-trunk/lib/linux/../EApiEmulI2C.c ****   EApiStatus_t StatusCode=EAPI_STATUS_SUCCESS;
GAS LISTING /tmp/ccHlBYPn.s 			page 18


 512              		.loc 1 249 16
 513 05ca C745EC00 		movl	$0, -20(%rbp)
 513      000000
 250:/home/hkh/git/eapidk-code-r76-trunk/lib/linux/../EApiEmulI2C.c ****     unsigned long ReadBCnt2;
 251:/home/hkh/git/eapidk-code-r76-trunk/lib/linux/../EApiEmulI2C.c ****     CmdDesc_t *pCurCmd;
 252:/home/hkh/git/eapidk-code-r76-trunk/lib/linux/../EApiEmulI2C.c ****   
 253:/home/hkh/git/eapidk-code-r76-trunk/lib/linux/../EApiEmulI2C.c **** #if (STRICT_VALIDATION>1)
 254:/home/hkh/git/eapidk-code-r76-trunk/lib/linux/../EApiEmulI2C.c ****         siFormattedMessage_M2(
 255:/home/hkh/git/eapidk-code-r76-trunk/lib/linux/../EApiEmulI2C.c ****               'L'                   ,
 256:/home/hkh/git/eapidk-code-r76-trunk/lib/linux/../EApiEmulI2C.c ****               __FILE__              ,
 257:/home/hkh/git/eapidk-code-r76-trunk/lib/linux/../EApiEmulI2C.c ****               "EmulateCmdDevice"    ,
 258:/home/hkh/git/eapidk-code-r76-trunk/lib/linux/../EApiEmulI2C.c ****               __LINE__              ,
 259:/home/hkh/git/eapidk-code-r76-trunk/lib/linux/../EApiEmulI2C.c ****               CfgData->cszDeviceName,
 260:/home/hkh/git/eapidk-code-r76-trunk/lib/linux/../EApiEmulI2C.c ****               "%3s CCMD=%04lX Arg1=%1lX WLEN=%04lX RLEN=%04lX %02"PRIX8
 261:/home/hkh/git/eapidk-code-r76-trunk/lib/linux/../EApiEmulI2C.c ****               ",%02"PRIX8",%02"PRIX8",%02"PRIX8"\n", 
 262:/home/hkh/git/eapidk-code-r76-trunk/lib/linux/../EApiEmulI2C.c ****               StdExt[CfgData->ExtendedCmd], 
 263:/home/hkh/git/eapidk-code-r76-trunk/lib/linux/../EApiEmulI2C.c ****               CfgData->CurrentCmd, 
 264:/home/hkh/git/eapidk-code-r76-trunk/lib/linux/../EApiEmulI2C.c ****               Arg1, 
 265:/home/hkh/git/eapidk-code-r76-trunk/lib/linux/../EApiEmulI2C.c ****               WriteBCnt, 
 266:/home/hkh/git/eapidk-code-r76-trunk/lib/linux/../EApiEmulI2C.c ****               ReadBCnt, 
 267:/home/hkh/git/eapidk-code-r76-trunk/lib/linux/../EApiEmulI2C.c ****               pWBuffer[0],
 268:/home/hkh/git/eapidk-code-r76-trunk/lib/linux/../EApiEmulI2C.c ****               pWBuffer[1],
 269:/home/hkh/git/eapidk-code-r76-trunk/lib/linux/../EApiEmulI2C.c ****               pWBuffer[2],
 270:/home/hkh/git/eapidk-code-r76-trunk/lib/linux/../EApiEmulI2C.c ****               pWBuffer[3]
 514              		.loc 1 270 23
 515 05d1 488B45C8 		movq	-56(%rbp), %rax
 516 05d5 4883C003 		addq	$3, %rax
 517 05d9 0FB600   		movzbl	(%rax), %eax
 254:/home/hkh/git/eapidk-code-r76-trunk/lib/linux/../EApiEmulI2C.c ****               'L'                   ,
 518              		.loc 1 254 9
 519 05dc 440FB6C0 		movzbl	%al, %r8d
 269:/home/hkh/git/eapidk-code-r76-trunk/lib/linux/../EApiEmulI2C.c ****               pWBuffer[3]
 520              		.loc 1 269 23
 521 05e0 488B45C8 		movq	-56(%rbp), %rax
 522 05e4 4883C002 		addq	$2, %rax
 523 05e8 0FB600   		movzbl	(%rax), %eax
 254:/home/hkh/git/eapidk-code-r76-trunk/lib/linux/../EApiEmulI2C.c ****               'L'                   ,
 524              		.loc 1 254 9
 525 05eb 0FB6F8   		movzbl	%al, %edi
 268:/home/hkh/git/eapidk-code-r76-trunk/lib/linux/../EApiEmulI2C.c ****               pWBuffer[2],
 526              		.loc 1 268 23
 527 05ee 488B45C8 		movq	-56(%rbp), %rax
 528 05f2 4883C001 		addq	$1, %rax
 529 05f6 0FB600   		movzbl	(%rax), %eax
 254:/home/hkh/git/eapidk-code-r76-trunk/lib/linux/../EApiEmulI2C.c ****               'L'                   ,
 530              		.loc 1 254 9
 531 05f9 0FB6F0   		movzbl	%al, %esi
 267:/home/hkh/git/eapidk-code-r76-trunk/lib/linux/../EApiEmulI2C.c ****               pWBuffer[1],
 532              		.loc 1 267 23
 533 05fc 488B45C8 		movq	-56(%rbp), %rax
 534 0600 0FB600   		movzbl	(%rax), %eax
 254:/home/hkh/git/eapidk-code-r76-trunk/lib/linux/../EApiEmulI2C.c ****               'L'                   ,
 535              		.loc 1 254 9
 536 0603 0FB6C8   		movzbl	%al, %ecx
 537 0606 488B45D0 		movq	-48(%rbp), %rax
 538 060a 488B5008 		movq	8(%rax), %rdx
 262:/home/hkh/git/eapidk-code-r76-trunk/lib/linux/../EApiEmulI2C.c ****               CfgData->CurrentCmd, 
GAS LISTING /tmp/ccHlBYPn.s 			page 19


 539              		.loc 1 262 29
 540 060e 488B45D0 		movq	-48(%rbp), %rax
 541 0612 488B00   		movq	(%rax), %rax
 254:/home/hkh/git/eapidk-code-r76-trunk/lib/linux/../EApiEmulI2C.c ****               'L'                   ,
 542              		.loc 1 254 9
 543 0615 4C8D0CC5 		leaq	0(,%rax,8), %r9
 543      00000000 
 544 061d 488D0500 		leaq	StdExt(%rip), %rax
 544      000000
 545 0624 498B0401 		movq	(%r9,%rax), %rax
 546 0628 4C8B4DD0 		movq	-48(%rbp), %r9
 547 062c 4D8B5118 		movq	24(%r9), %r10
 548 0630 4883EC08 		subq	$8, %rsp
 549 0634 4150     		pushq	%r8
 550 0636 57       		pushq	%rdi
 551 0637 56       		pushq	%rsi
 552 0638 51       		pushq	%rcx
 553 0639 FF75B0   		pushq	-80(%rbp)
 554 063c FF75C0   		pushq	-64(%rbp)
 555 063f FF75D8   		pushq	-40(%rbp)
 556 0642 52       		pushq	%rdx
 557 0643 50       		pushq	%rax
 558 0644 4C8D0D00 		leaq	.LC15(%rip), %r9
 558      000000
 559 064b 4D89D0   		movq	%r10, %r8
 560 064e B9020100 		movl	$258, %ecx
 560      00
 561 0653 488D1500 		leaq	.LC16(%rip), %rdx
 561      000000
 562 065a 488D3500 		leaq	.LC5(%rip), %rsi
 562      000000
 563 0661 BF4C0000 		movl	$76, %edi
 563      00
 564 0666 B8000000 		movl	$0, %eax
 564      00
 565 066b E8000000 		call	siFormattedMessage_M2@PLT
 565      00
 566 0670 4883C450 		addq	$80, %rsp
 271:/home/hkh/git/eapidk-code-r76-trunk/lib/linux/../EApiEmulI2C.c ****             );
 272:/home/hkh/git/eapidk-code-r76-trunk/lib/linux/../EApiEmulI2C.c **** #endif
 273:/home/hkh/git/eapidk-code-r76-trunk/lib/linux/../EApiEmulI2C.c ****   if(WriteBCnt)
 567              		.loc 1 273 5
 568 0674 48837DC0 		cmpq	$0, -64(%rbp)
 568      00
 569 0679 0F846B01 		je	.L17
 569      0000
 274:/home/hkh/git/eapidk-code-r76-trunk/lib/linux/../EApiEmulI2C.c ****   {
 275:/home/hkh/git/eapidk-code-r76-trunk/lib/linux/../EApiEmulI2C.c ****     switch((CfgData->ExtendedCmd))  {      /* Emulate Standard IDX/CMD 
 570              		.loc 1 275 20
 571 067f 488B45D0 		movq	-48(%rbp), %rax
 572 0683 488B00   		movq	(%rax), %rax
 573              		.loc 1 275 5
 574 0686 4883F801 		cmpq	$1, %rax
 575 068a 740B     		je	.L18
 576 068c 4883F802 		cmpq	$2, %rax
 577 0690 7433     		je	.L19
 276:/home/hkh/git/eapidk-code-r76-trunk/lib/linux/../EApiEmulI2C.c ****                                                     Device */
GAS LISTING /tmp/ccHlBYPn.s 			page 20


 277:/home/hkh/git/eapidk-code-r76-trunk/lib/linux/../EApiEmulI2C.c ****       case STD_INDEX:
 278:/home/hkh/git/eapidk-code-r76-trunk/lib/linux/../EApiEmulI2C.c ****         CfgData->CurrentCmd=*pWBuffer++;
 279:/home/hkh/git/eapidk-code-r76-trunk/lib/linux/../EApiEmulI2C.c ****         WriteBCnt--;
 280:/home/hkh/git/eapidk-code-r76-trunk/lib/linux/../EApiEmulI2C.c ****         EAPI_EMUL_DELAY_NS(I2C_EMUL_BYTE_DELAY_NS);
 281:/home/hkh/git/eapidk-code-r76-trunk/lib/linux/../EApiEmulI2C.c ****         break;
 282:/home/hkh/git/eapidk-code-r76-trunk/lib/linux/../EApiEmulI2C.c ****       case EXT_INDEX:                             /* Emulate Extended IDX/CMD
 283:/home/hkh/git/eapidk-code-r76-trunk/lib/linux/../EApiEmulI2C.c ****                                                     Device */
 284:/home/hkh/git/eapidk-code-r76-trunk/lib/linux/../EApiEmulI2C.c ****         EAPI_LIB_RETURN_ERROR_IF(
 285:/home/hkh/git/eapidk-code-r76-trunk/lib/linux/../EApiEmulI2C.c ****             EmulateEepromFS, 
 286:/home/hkh/git/eapidk-code-r76-trunk/lib/linux/../EApiEmulI2C.c ****             WriteBCnt<2, 
 287:/home/hkh/git/eapidk-code-r76-trunk/lib/linux/../EApiEmulI2C.c ****             EAPI_STATUS_READ_ERROR, 
 288:/home/hkh/git/eapidk-code-r76-trunk/lib/linux/../EApiEmulI2C.c ****             "STD INDEX Sent to EXT INDEX EEPROM"
 289:/home/hkh/git/eapidk-code-r76-trunk/lib/linux/../EApiEmulI2C.c ****             );
 290:/home/hkh/git/eapidk-code-r76-trunk/lib/linux/../EApiEmulI2C.c **** 
 291:/home/hkh/git/eapidk-code-r76-trunk/lib/linux/../EApiEmulI2C.c ****         CfgData->CurrentCmd =pWBuffer[0]<<8;
 292:/home/hkh/git/eapidk-code-r76-trunk/lib/linux/../EApiEmulI2C.c ****         CfgData->CurrentCmd|=pWBuffer[1];
 293:/home/hkh/git/eapidk-code-r76-trunk/lib/linux/../EApiEmulI2C.c ****         pWBuffer+=2;
 294:/home/hkh/git/eapidk-code-r76-trunk/lib/linux/../EApiEmulI2C.c ****         WriteBCnt-=2;
 295:/home/hkh/git/eapidk-code-r76-trunk/lib/linux/../EApiEmulI2C.c ****         EAPI_EMUL_DELAY_NS(I2C_EMUL_BYTE_DELAY_NS*2);
 296:/home/hkh/git/eapidk-code-r76-trunk/lib/linux/../EApiEmulI2C.c ****         break;
 297:/home/hkh/git/eapidk-code-r76-trunk/lib/linux/../EApiEmulI2C.c ****       default:
 298:/home/hkh/git/eapidk-code-r76-trunk/lib/linux/../EApiEmulI2C.c ****         break;
 578              		.loc 1 298 9
 579 0692 E9CE0000 		jmp	.L21
 579      00
 580              	.L18:
 278:/home/hkh/git/eapidk-code-r76-trunk/lib/linux/../EApiEmulI2C.c ****         WriteBCnt--;
 581              		.loc 1 278 38
 582 0697 488B45C8 		movq	-56(%rbp), %rax
 583 069b 488D5001 		leaq	1(%rax), %rdx
 584 069f 488955C8 		movq	%rdx, -56(%rbp)
 278:/home/hkh/git/eapidk-code-r76-trunk/lib/linux/../EApiEmulI2C.c ****         WriteBCnt--;
 585              		.loc 1 278 29
 586 06a3 0FB600   		movzbl	(%rax), %eax
 587 06a6 0FB6D0   		movzbl	%al, %edx
 278:/home/hkh/git/eapidk-code-r76-trunk/lib/linux/../EApiEmulI2C.c ****         WriteBCnt--;
 588              		.loc 1 278 28
 589 06a9 488B45D0 		movq	-48(%rbp), %rax
 590 06ad 48895008 		movq	%rdx, 8(%rax)
 279:/home/hkh/git/eapidk-code-r76-trunk/lib/linux/../EApiEmulI2C.c ****         EAPI_EMUL_DELAY_NS(I2C_EMUL_BYTE_DELAY_NS);
 591              		.loc 1 279 18
 592 06b1 48836DC0 		subq	$1, -64(%rbp)
 592      01
 280:/home/hkh/git/eapidk-code-r76-trunk/lib/linux/../EApiEmulI2C.c ****         break;
 593              		.loc 1 280 9
 594 06b6 BF905F01 		movl	$90000, %edi
 594      00
 595 06bb E8000000 		call	EApiSleepns@PLT
 595      00
 281:/home/hkh/git/eapidk-code-r76-trunk/lib/linux/../EApiEmulI2C.c ****       case EXT_INDEX:                             /* Emulate Extended IDX/CMD
 596              		.loc 1 281 9
 597 06c0 E9A00000 		jmp	.L21
 597      00
 598              	.L19:
 284:/home/hkh/git/eapidk-code-r76-trunk/lib/linux/../EApiEmulI2C.c ****             EmulateEepromFS, 
 599              		.loc 1 284 9
 600 06c5 48837DC0 		cmpq	$1, -64(%rbp)
GAS LISTING /tmp/ccHlBYPn.s 			page 21


 600      01
 601 06ca 774B     		ja	.L22
 284:/home/hkh/git/eapidk-code-r76-trunk/lib/linux/../EApiEmulI2C.c ****             EmulateEepromFS, 
 602              		.loc 1 284 9 is_stmt 0 discriminator 1
 603 06cc 4883EC08 		subq	$8, %rsp
 604 06d0 488D0500 		leaq	.LC7(%rip), %rax
 604      000000
 605 06d7 50       		pushq	%rax
 606 06d8 4C8D0D00 		leaq	.LC6(%rip), %r9
 606      000000
 607 06df 41B8FFFA 		movl	$-1281, %r8d
 607      FFFF
 608 06e5 B91C0100 		movl	$284, %ecx
 608      00
 609 06ea 488D1500 		leaq	.LC4(%rip), %rdx
 609      000000
 610 06f1 488D3500 		leaq	.LC5(%rip), %rsi
 610      000000
 611 06f8 BF450000 		movl	$69, %edi
 611      00
 612 06fd B8000000 		movl	$0, %eax
 612      00
 613 0702 E8000000 		call	siFormattedMessage_SC@PLT
 613      00
 614 0707 4883C410 		addq	$16, %rsp
 615 070b C745ECFF 		movl	$-1281, -20(%rbp)
 615      FAFFFF
 616 0712 E9EF0100 		jmp	.L23
 616      00
 617              	.L22:
 291:/home/hkh/git/eapidk-code-r76-trunk/lib/linux/../EApiEmulI2C.c ****         CfgData->CurrentCmd|=pWBuffer[1];
 618              		.loc 1 291 38 is_stmt 1
 619 0717 488B45C8 		movq	-56(%rbp), %rax
 620 071b 0FB600   		movzbl	(%rax), %eax
 621 071e 0FB6C0   		movzbl	%al, %eax
 291:/home/hkh/git/eapidk-code-r76-trunk/lib/linux/../EApiEmulI2C.c ****         CfgData->CurrentCmd|=pWBuffer[1];
 622              		.loc 1 291 41
 623 0721 C1E008   		sall	$8, %eax
 624 0724 4863D0   		movslq	%eax, %rdx
 291:/home/hkh/git/eapidk-code-r76-trunk/lib/linux/../EApiEmulI2C.c ****         CfgData->CurrentCmd|=pWBuffer[1];
 625              		.loc 1 291 29
 626 0727 488B45D0 		movq	-48(%rbp), %rax
 627 072b 48895008 		movq	%rdx, 8(%rax)
 292:/home/hkh/git/eapidk-code-r76-trunk/lib/linux/../EApiEmulI2C.c ****         pWBuffer+=2;
 628              		.loc 1 292 28
 629 072f 488B45D0 		movq	-48(%rbp), %rax
 630 0733 488B5008 		movq	8(%rax), %rdx
 292:/home/hkh/git/eapidk-code-r76-trunk/lib/linux/../EApiEmulI2C.c ****         pWBuffer+=2;
 631              		.loc 1 292 38
 632 0737 488B45C8 		movq	-56(%rbp), %rax
 633 073b 4883C001 		addq	$1, %rax
 634 073f 0FB600   		movzbl	(%rax), %eax
 635 0742 0FB6C0   		movzbl	%al, %eax
 292:/home/hkh/git/eapidk-code-r76-trunk/lib/linux/../EApiEmulI2C.c ****         pWBuffer+=2;
 636              		.loc 1 292 28
 637 0745 4809C2   		orq	%rax, %rdx
 638 0748 488B45D0 		movq	-48(%rbp), %rax
GAS LISTING /tmp/ccHlBYPn.s 			page 22


 639 074c 48895008 		movq	%rdx, 8(%rax)
 293:/home/hkh/git/eapidk-code-r76-trunk/lib/linux/../EApiEmulI2C.c ****         WriteBCnt-=2;
 640              		.loc 1 293 17
 641 0750 488345C8 		addq	$2, -56(%rbp)
 641      02
 294:/home/hkh/git/eapidk-code-r76-trunk/lib/linux/../EApiEmulI2C.c ****         EAPI_EMUL_DELAY_NS(I2C_EMUL_BYTE_DELAY_NS*2);
 642              		.loc 1 294 18
 643 0755 48836DC0 		subq	$2, -64(%rbp)
 643      02
 295:/home/hkh/git/eapidk-code-r76-trunk/lib/linux/../EApiEmulI2C.c ****         break;
 644              		.loc 1 295 9
 645 075a BF20BF02 		movl	$180000, %edi
 645      00
 646 075f E8000000 		call	EApiSleepns@PLT
 646      00
 296:/home/hkh/git/eapidk-code-r76-trunk/lib/linux/../EApiEmulI2C.c ****       default:
 647              		.loc 1 296 9
 648 0764 90       		nop
 649              	.L21:
 299:/home/hkh/git/eapidk-code-r76-trunk/lib/linux/../EApiEmulI2C.c ****     }
 300:/home/hkh/git/eapidk-code-r76-trunk/lib/linux/../EApiEmulI2C.c ****     if(WriteBCnt)
 650              		.loc 1 300 7
 651 0765 48837DC0 		cmpq	$0, -64(%rbp)
 651      00
 652 076a 747E     		je	.L17
 301:/home/hkh/git/eapidk-code-r76-trunk/lib/linux/../EApiEmulI2C.c ****     {
 302:/home/hkh/git/eapidk-code-r76-trunk/lib/linux/../EApiEmulI2C.c ****       EAPI_EMUL_DELAY_NS(I2C_EMUL_BYTE_DELAY_NS*WriteBCnt);
 653              		.loc 1 302 7
 654 076c 488B45C0 		movq	-64(%rbp), %rax
 655 0770 4869C090 		imulq	$90000, %rax, %rax
 655      5F0100
 656 0777 4889C7   		movq	%rax, %rdi
 657 077a E8000000 		call	EApiSleepns@PLT
 657      00
 303:/home/hkh/git/eapidk-code-r76-trunk/lib/linux/../EApiEmulI2C.c ****       for(pCurCmd=CfgData->Cmds;pCurCmd->Cmd!=END_OF_LIST_MARK;pCurCmd++){
 658              		.loc 1 303 18
 659 077f 488B45D0 		movq	-48(%rbp), %rax
 660 0783 488B4020 		movq	32(%rax), %rax
 661 0787 488945F0 		movq	%rax, -16(%rbp)
 662              		.loc 1 303 7
 663 078b EB4C     		jmp	.L24
 664              	.L26:
 304:/home/hkh/git/eapidk-code-r76-trunk/lib/linux/../EApiEmulI2C.c ****         if(pCurCmd->Cmd==CfgData->CurrentCmd){
 665              		.loc 1 304 19
 666 078d 488B45F0 		movq	-16(%rbp), %rax
 667 0791 488B10   		movq	(%rax), %rdx
 668              		.loc 1 304 33
 669 0794 488B45D0 		movq	-48(%rbp), %rax
 670 0798 488B4008 		movq	8(%rax), %rax
 671              		.loc 1 304 11
 672 079c 4839C2   		cmpq	%rax, %rdx
 673 079f 7533     		jne	.L25
 305:/home/hkh/git/eapidk-code-r76-trunk/lib/linux/../EApiEmulI2C.c ****           ReadBCnt2=pCurCmd->CmdBlockLen;
 674              		.loc 1 305 20
 675 07a1 488B45F0 		movq	-16(%rbp), %rax
 676 07a5 488B4008 		movq	8(%rax), %rax
 677 07a9 488945F8 		movq	%rax, -8(%rbp)
GAS LISTING /tmp/ccHlBYPn.s 			page 23


 306:/home/hkh/git/eapidk-code-r76-trunk/lib/linux/../EApiEmulI2C.c ****           memcpy(
 678              		.loc 1 306 11
 679 07ad 488B45F8 		movq	-8(%rbp), %rax
 680 07b1 483945B0 		cmpq	%rax, -80(%rbp)
 681 07b5 480F4645 		cmovbe	-80(%rbp), %rax
 681      B0
 682 07ba 4889C2   		movq	%rax, %rdx
 683 07bd 488B45F0 		movq	-16(%rbp), %rax
 684 07c1 488B4010 		movq	16(%rax), %rax
 685 07c5 488B4DB8 		movq	-72(%rbp), %rcx
 686 07c9 4889CE   		movq	%rcx, %rsi
 687 07cc 4889C7   		movq	%rax, %rdi
 688 07cf E8000000 		call	memcpy@PLT
 688      00
 689              	.L25:
 303:/home/hkh/git/eapidk-code-r76-trunk/lib/linux/../EApiEmulI2C.c ****         if(pCurCmd->Cmd==CfgData->CurrentCmd){
 690              		.loc 1 303 71 discriminator 2
 691 07d4 488345F0 		addq	$24, -16(%rbp)
 691      18
 692              	.L24:
 303:/home/hkh/git/eapidk-code-r76-trunk/lib/linux/../EApiEmulI2C.c ****         if(pCurCmd->Cmd==CfgData->CurrentCmd){
 693              		.loc 1 303 40 discriminator 1
 694 07d9 488B45F0 		movq	-16(%rbp), %rax
 695 07dd 488B00   		movq	(%rax), %rax
 303:/home/hkh/git/eapidk-code-r76-trunk/lib/linux/../EApiEmulI2C.c ****         if(pCurCmd->Cmd==CfgData->CurrentCmd){
 696              		.loc 1 303 7 discriminator 1
 697 07e0 BAFFFFFF 		movl	$4294967295, %edx
 697      FF
 698 07e5 4839D0   		cmpq	%rdx, %rax
 699 07e8 75A3     		jne	.L26
 700              	.L17:
 307:/home/hkh/git/eapidk-code-r76-trunk/lib/linux/../EApiEmulI2C.c ****             pCurCmd->pBuffer, 
 308:/home/hkh/git/eapidk-code-r76-trunk/lib/linux/../EApiEmulI2C.c ****             pRBuffer, 
 309:/home/hkh/git/eapidk-code-r76-trunk/lib/linux/../EApiEmulI2C.c ****             (ReadBCnt>ReadBCnt2?ReadBCnt2:ReadBCnt)
 310:/home/hkh/git/eapidk-code-r76-trunk/lib/linux/../EApiEmulI2C.c ****             );
 311:/home/hkh/git/eapidk-code-r76-trunk/lib/linux/../EApiEmulI2C.c ****         }
 312:/home/hkh/git/eapidk-code-r76-trunk/lib/linux/../EApiEmulI2C.c ****       }
 313:/home/hkh/git/eapidk-code-r76-trunk/lib/linux/../EApiEmulI2C.c ****     }
 314:/home/hkh/git/eapidk-code-r76-trunk/lib/linux/../EApiEmulI2C.c ****   }
 315:/home/hkh/git/eapidk-code-r76-trunk/lib/linux/../EApiEmulI2C.c ****   if(ReadBCnt)
 701              		.loc 1 315 5
 702 07ea 48837DB0 		cmpq	$0, -80(%rbp)
 702      00
 703 07ef 0F84CA00 		je	.L27
 703      0000
 316:/home/hkh/git/eapidk-code-r76-trunk/lib/linux/../EApiEmulI2C.c ****   {
 317:/home/hkh/git/eapidk-code-r76-trunk/lib/linux/../EApiEmulI2C.c ****     EAPI_EMUL_DELAY_NS(I2C_EMUL_BYTE_DELAY_NS*ReadBCnt);
 704              		.loc 1 317 5
 705 07f5 488B45B0 		movq	-80(%rbp), %rax
 706 07f9 4869C090 		imulq	$90000, %rax, %rax
 706      5F0100
 707 0800 4889C7   		movq	%rax, %rdi
 708 0803 E8000000 		call	EApiSleepns@PLT
 708      00
 318:/home/hkh/git/eapidk-code-r76-trunk/lib/linux/../EApiEmulI2C.c ****     for(pCurCmd=CfgData->Cmds;pCurCmd->Cmd!=END_OF_LIST_MARK;pCurCmd++){
 709              		.loc 1 318 16
 710 0808 488B45D0 		movq	-48(%rbp), %rax
GAS LISTING /tmp/ccHlBYPn.s 			page 24


 711 080c 488B4020 		movq	32(%rax), %rax
 712 0810 488945F0 		movq	%rax, -16(%rbp)
 713              		.loc 1 318 5
 714 0814 E9910000 		jmp	.L28
 714      00
 715              	.L31:
 319:/home/hkh/git/eapidk-code-r76-trunk/lib/linux/../EApiEmulI2C.c ****       if(pCurCmd->Cmd==CfgData->CurrentCmd){
 716              		.loc 1 319 17
 717 0819 488B45F0 		movq	-16(%rbp), %rax
 718 081d 488B10   		movq	(%rax), %rdx
 719              		.loc 1 319 31
 720 0820 488B45D0 		movq	-48(%rbp), %rax
 721 0824 488B4008 		movq	8(%rax), %rax
 722              		.loc 1 319 9
 723 0828 4839C2   		cmpq	%rax, %rdx
 724 082b 7578     		jne	.L29
 320:/home/hkh/git/eapidk-code-r76-trunk/lib/linux/../EApiEmulI2C.c ****         ReadBCnt2=pCurCmd->CmdBlockLen;
 725              		.loc 1 320 18
 726 082d 488B45F0 		movq	-16(%rbp), %rax
 727 0831 488B4008 		movq	8(%rax), %rax
 728 0835 488945F8 		movq	%rax, -8(%rbp)
 321:/home/hkh/git/eapidk-code-r76-trunk/lib/linux/../EApiEmulI2C.c ****         if(ReadBCnt2<ReadBCnt){
 729              		.loc 1 321 11
 730 0839 488B45F8 		movq	-8(%rbp), %rax
 731 083d 483B45B0 		cmpq	-80(%rbp), %rax
 732 0841 7347     		jnb	.L30
 322:/home/hkh/git/eapidk-code-r76-trunk/lib/linux/../EApiEmulI2C.c ****           memcpy(pRBuffer, pCurCmd->pBuffer, ReadBCnt2);
 733              		.loc 1 322 35
 734 0843 488B45F0 		movq	-16(%rbp), %rax
 735 0847 488B4810 		movq	16(%rax), %rcx
 736              		.loc 1 322 11
 737 084b 488B55F8 		movq	-8(%rbp), %rdx
 738 084f 488B45B8 		movq	-72(%rbp), %rax
 739 0853 4889CE   		movq	%rcx, %rsi
 740 0856 4889C7   		movq	%rax, %rdi
 741 0859 E8000000 		call	memcpy@PLT
 741      00
 323:/home/hkh/git/eapidk-code-r76-trunk/lib/linux/../EApiEmulI2C.c ****           memset(pRBuffer+ReadBCnt2, ReadBCnt-ReadBCnt2, 0xFF);
 742              		.loc 1 323 46
 743 085e 488B45B0 		movq	-80(%rbp), %rax
 744 0862 89C2     		movl	%eax, %edx
 745 0864 488B45F8 		movq	-8(%rbp), %rax
 746 0868 29C2     		subl	%eax, %edx
 747 086a 89D0     		movl	%edx, %eax
 748              		.loc 1 323 11
 749 086c 89C1     		movl	%eax, %ecx
 750              		.loc 1 323 26
 751 086e 488B55B8 		movq	-72(%rbp), %rdx
 752 0872 488B45F8 		movq	-8(%rbp), %rax
 753 0876 4801D0   		addq	%rdx, %rax
 754              		.loc 1 323 11
 755 0879 BAFF0000 		movl	$255, %edx
 755      00
 756 087e 89CE     		movl	%ecx, %esi
 757 0880 4889C7   		movq	%rax, %rdi
 758 0883 E8000000 		call	memset@PLT
 758      00
GAS LISTING /tmp/ccHlBYPn.s 			page 25


 759 0888 EB1B     		jmp	.L29
 760              	.L30:
 324:/home/hkh/git/eapidk-code-r76-trunk/lib/linux/../EApiEmulI2C.c ****         }else{
 325:/home/hkh/git/eapidk-code-r76-trunk/lib/linux/../EApiEmulI2C.c ****           memcpy(pRBuffer, pCurCmd->pBuffer, ReadBCnt);
 761              		.loc 1 325 35
 762 088a 488B45F0 		movq	-16(%rbp), %rax
 763 088e 488B4810 		movq	16(%rax), %rcx
 764              		.loc 1 325 11
 765 0892 488B55B0 		movq	-80(%rbp), %rdx
 766 0896 488B45B8 		movq	-72(%rbp), %rax
 767 089a 4889CE   		movq	%rcx, %rsi
 768 089d 4889C7   		movq	%rax, %rdi
 769 08a0 E8000000 		call	memcpy@PLT
 769      00
 770              	.L29:
 318:/home/hkh/git/eapidk-code-r76-trunk/lib/linux/../EApiEmulI2C.c ****       if(pCurCmd->Cmd==CfgData->CurrentCmd){
 771              		.loc 1 318 69 discriminator 2
 772 08a5 488345F0 		addq	$24, -16(%rbp)
 772      18
 773              	.L28:
 318:/home/hkh/git/eapidk-code-r76-trunk/lib/linux/../EApiEmulI2C.c ****       if(pCurCmd->Cmd==CfgData->CurrentCmd){
 774              		.loc 1 318 38 discriminator 1
 775 08aa 488B45F0 		movq	-16(%rbp), %rax
 776 08ae 488B00   		movq	(%rax), %rax
 318:/home/hkh/git/eapidk-code-r76-trunk/lib/linux/../EApiEmulI2C.c ****       if(pCurCmd->Cmd==CfgData->CurrentCmd){
 777              		.loc 1 318 5 discriminator 1
 778 08b1 BAFFFFFF 		movl	$4294967295, %edx
 778      FF
 779 08b6 4839D0   		cmpq	%rdx, %rax
 780 08b9 0F855AFF 		jne	.L31
 780      FFFF
 781              	.L27:
 326:/home/hkh/git/eapidk-code-r76-trunk/lib/linux/../EApiEmulI2C.c ****         }
 327:/home/hkh/git/eapidk-code-r76-trunk/lib/linux/../EApiEmulI2C.c ****       }
 328:/home/hkh/git/eapidk-code-r76-trunk/lib/linux/../EApiEmulI2C.c ****     }
 329:/home/hkh/git/eapidk-code-r76-trunk/lib/linux/../EApiEmulI2C.c ****   }
 330:/home/hkh/git/eapidk-code-r76-trunk/lib/linux/../EApiEmulI2C.c ****   EAPI_LIB_RETURN_SUCCESS(EmulateEepromFS, "");
 782              		.loc 1 330 3
 783 08bf 4883EC08 		subq	$8, %rsp
 784 08c3 488D0500 		leaq	.LC14(%rip), %rax
 784      000000
 785 08ca 50       		pushq	%rax
 786 08cb 4C8D0D00 		leaq	.LC6(%rip), %r9
 786      000000
 787 08d2 41B80000 		movl	$0, %r8d
 787      0000
 788 08d8 B94A0100 		movl	$330, %ecx
 788      00
 789 08dd 488D1500 		leaq	.LC4(%rip), %rdx
 789      000000
 790 08e4 488D3500 		leaq	.LC5(%rip), %rsi
 790      000000
 791 08eb BF4C0000 		movl	$76, %edi
 791      00
 792 08f0 B8000000 		movl	$0, %eax
 792      00
 793 08f5 E8000000 		call	siFormattedMessage_SC@PLT
GAS LISTING /tmp/ccHlBYPn.s 			page 26


 793      00
 794 08fa 4883C410 		addq	$16, %rsp
 795 08fe C745EC00 		movl	$0, -20(%rbp)
 795      000000
 796 0905 90       		nop
 797              	.L23:
 331:/home/hkh/git/eapidk-code-r76-trunk/lib/linux/../EApiEmulI2C.c **** EAPI_LIB_ASSERT_EXIT
 332:/home/hkh/git/eapidk-code-r76-trunk/lib/linux/../EApiEmulI2C.c **** 
 333:/home/hkh/git/eapidk-code-r76-trunk/lib/linux/../EApiEmulI2C.c ****   return StatusCode;
 798              		.loc 1 333 10
 799 0906 8B45EC   		movl	-20(%rbp), %eax
 334:/home/hkh/git/eapidk-code-r76-trunk/lib/linux/../EApiEmulI2C.c **** }
 800              		.loc 1 334 1
 801 0909 C9       		leave
 802              		.cfi_def_cfa 7, 8
 803 090a C3       		ret
 804              		.cfi_endproc
 805              	.LFE7:
 807              		.hidden	DIDEEPROM
 808              		.globl	DIDEEPROM
 809              		.data
 810              		.align 32
 813              	DIDEEPROM:
 814 0000 10       		.byte	16
 815 0001 4C       		.byte	76
 816 0002 02       		.byte	2
 817 0003 00       		.byte	0
 818 0004 00       		.byte	0
 819 0005 00       		.byte	0
 820 0006 0C       		.byte	12
 821 0007 44       		.byte	68
 822 0008 45       		.byte	69
 823 0009 4D       		.byte	77
 824 000a 56       		.byte	86
 825 000b 00       		.byte	0
 826 000c 16       		.byte	22
 827 000d 00       		.byte	0
 828 000e 00       		.byte	0
 829 000f 00       		.byte	0
 830 0010 1C       		.byte	28
 831 0011 08       		.byte	8
 832 0012 00       		.byte	0
 833 0013 03       		.byte	3
 834 0014 00       		.byte	0
 835 0015 14       		.byte	20
 836 0016 2F       		.byte	47
 837 0017 2A       		.byte	42
 838 0018 00       		.byte	0
 839 0019 80       		.byte	-128
 840 001a FF       		.byte	-1
 841 001b 04       		.byte	4
 842 001c 97       		.byte	-105
 843 001d 01       		.byte	1
 844 001e 2F       		.byte	47
 845 001f 80       		.byte	-128
 846 0020 6F       		.byte	111
 847 0021 00       		.byte	0
GAS LISTING /tmp/ccHlBYPn.s 			page 27


 848 0022 FF       		.byte	-1
 849 0023 03       		.byte	3
 850 0024 29       		.byte	41
 851 0025 00       		.byte	0
 852 0026 00       		.byte	0
 853 0027 80       		.byte	-128
 854 0028 02       		.byte	2
 855 0029 00       		.byte	0
 856 002a 0C       		.byte	12
 857 002b 00       		.byte	0
 858 002c 0D       		.byte	13
 859 002d 14       		.byte	20
 860 002e 50       		.byte	80
 861 002f FF       		.byte	-1
 862 0030 04       		.byte	4
 863 0031 FF       		.byte	-1
 864 0032 03       		.byte	3
 865 0033 19       		.byte	25
 866 0034 03       		.byte	3
 867 0035 00       		.byte	0
 868 0036 1E       		.byte	30
 869 0037 1E       		.byte	30
 870 0038 07       		.byte	7
 871 0039 14       		.byte	20
 872 003a 0D       		.byte	13
 873 003b 00       		.byte	0
 874 003c 06       		.byte	6
 875 003d 0F       		.byte	15
 876 003e 0F       		.byte	15
 877 003f 0F       		.byte	15
 878 0040 64       		.byte	100
 879 0041 23       		.byte	35
 880 0042 23       		.byte	35
 881 0043 0F       		.byte	15
 882 0044 00       		.byte	0
 883 0045 0A       		.byte	10
 884 0046 12       		.byte	18
 885 0047 00       		.byte	0
 886 0048 03       		.byte	3
 887 0049 00       		.byte	0
 888 004a 00       		.byte	0
 889 004b 00       		.byte	0
 890 004c 00       		.byte	0
 891 004d 00       		.byte	0
 892 004e 11       		.byte	17
 893 004f 00       		.byte	0
 894 0050 BC       		.byte	-68
 895 0051 00       		.byte	0
 896 0052 00       		.byte	0
 897 0053 00       		.byte	0
 898 0054 00       		.byte	0
 899 0055 00       		.byte	0
 900 0056 00       		.byte	0
 901 0057 00       		.byte	0
 902 0058 00       		.byte	0
 903 0059 00       		.byte	0
 904 005a 00       		.byte	0
GAS LISTING /tmp/ccHlBYPn.s 			page 28


 905 005b 00       		.byte	0
 906 005c 00       		.byte	0
 907 005d 00       		.byte	0
 908 005e 00       		.byte	0
 909 005f 00       		.byte	0
 910 0060 00       		.byte	0
 911 0061 00       		.byte	0
 912 0062 00       		.byte	0
 913 0063 00       		.byte	0
 914 0064 00       		.byte	0
 915 0065 00       		.byte	0
 916 0066 00       		.byte	0
 917 0067 00       		.byte	0
 918 0068 00       		.byte	0
 919 0069 00       		.byte	0
 920 006a 00       		.byte	0
 921 006b 00       		.byte	0
 922 006c 00       		.byte	0
 923 006d 00       		.byte	0
 924 006e 00       		.byte	0
 925 006f 00       		.byte	0
 926 0070 00       		.byte	0
 927 0071 00       		.byte	0
 928 0072 00       		.byte	0
 929 0073 00       		.byte	0
 930 0074 00       		.byte	0
 931 0075 00       		.byte	0
 932 0076 00       		.byte	0
 933 0077 00       		.byte	0
 934 0078 00       		.byte	0
 935 0079 00       		.byte	0
 936 007a 00       		.byte	0
 937 007b 00       		.byte	0
 938 007c 00       		.byte	0
 939 007d 00       		.byte	0
 940 007e 00       		.byte	0
 941 007f 00       		.byte	0
 942 0080 00       		.byte	0
 943 0081 00       		.byte	0
 944 0082 00       		.byte	0
 945 0083 00       		.byte	0
 946 0084 00       		.byte	0
 947 0085 00       		.byte	0
 948 0086 00       		.byte	0
 949 0087 00       		.byte	0
 950 0088 00       		.byte	0
 951 0089 00       		.byte	0
 952 008a 00       		.byte	0
 953 008b 00       		.byte	0
 954 008c 00       		.byte	0
 955 008d 00       		.byte	0
 956 008e 00       		.byte	0
 957 008f 00       		.byte	0
 958 0090 00       		.byte	0
 959 0091 00       		.byte	0
 960 0092 00       		.byte	0
 961 0093 00       		.byte	0
GAS LISTING /tmp/ccHlBYPn.s 			page 29


 962 0094 00       		.byte	0
 963 0095 00       		.byte	0
 964 0096 00       		.byte	0
 965 0097 00       		.byte	0
 966 0098 00       		.byte	0
 967 0099 00       		.byte	0
 968 009a 00       		.byte	0
 969 009b 00       		.byte	0
 970 009c 00       		.byte	0
 971 009d 00       		.byte	0
 972 009e 00       		.byte	0
 973 009f 00       		.byte	0
 974 00a0 00       		.byte	0
 975 00a1 00       		.byte	0
 976 00a2 00       		.byte	0
 977 00a3 00       		.byte	0
 978 00a4 00       		.byte	0
 979 00a5 00       		.byte	0
 980 00a6 00       		.byte	0
 981 00a7 00       		.byte	0
 982 00a8 00       		.byte	0
 983 00a9 00       		.byte	0
 984 00aa 00       		.byte	0
 985 00ab 00       		.byte	0
 986 00ac 00       		.byte	0
 987 00ad 00       		.byte	0
 988 00ae 00       		.byte	0
 989 00af 00       		.byte	0
 990 00b0 00       		.byte	0
 991 00b1 00       		.byte	0
 992 00b2 00       		.byte	0
 993 00b3 00       		.byte	0
 994 00b4 00       		.byte	0
 995 00b5 00       		.byte	0
 996 00b6 00       		.byte	0
 997 00b7 00       		.byte	0
 998 00b8 00       		.byte	0
 999 00b9 00       		.byte	0
 1000 00ba 00       		.byte	0
 1001 00bb 00       		.byte	0
 1002 00bc 00       		.byte	0
 1003 00bd 00       		.byte	0
 1004 00be 00       		.byte	0
 1005 00bf 00       		.byte	0
 1006 00c0 00       		.byte	0
 1007 00c1 00       		.byte	0
 1008 00c2 00       		.byte	0
 1009 00c3 00       		.byte	0
 1010 00c4 00       		.byte	0
 1011 00c5 00       		.byte	0
 1012 00c6 00       		.byte	0
 1013 00c7 00       		.byte	0
 1014 00c8 00       		.byte	0
 1015 00c9 00       		.byte	0
 1016 00ca 00       		.byte	0
 1017 00cb 00       		.byte	0
 1018 00cc 00       		.byte	0
GAS LISTING /tmp/ccHlBYPn.s 			page 30


 1019 00cd 00       		.byte	0
 1020 00ce 00       		.byte	0
 1021 00cf 00       		.byte	0
 1022 00d0 00       		.byte	0
 1023 00d1 00       		.byte	0
 1024 00d2 00       		.byte	0
 1025 00d3 00       		.byte	0
 1026 00d4 00       		.byte	0
 1027 00d5 00       		.byte	0
 1028 00d6 00       		.byte	0
 1029 00d7 00       		.byte	0
 1030 00d8 00       		.byte	0
 1031 00d9 00       		.byte	0
 1032 00da 00       		.byte	0
 1033 00db 00       		.byte	0
 1034 00dc 00       		.byte	0
 1035 00dd 00       		.byte	0
 1036 00de 00       		.byte	0
 1037 00df 00       		.byte	0
 1038 00e0 00       		.byte	0
 1039 00e1 00       		.byte	0
 1040 00e2 00       		.byte	0
 1041 00e3 00       		.byte	0
 1042 00e4 00       		.byte	0
 1043 00e5 00       		.byte	0
 1044 00e6 00       		.byte	0
 1045 00e7 00       		.byte	0
 1046 00e8 00       		.byte	0
 1047 00e9 00       		.byte	0
 1048 00ea 00       		.byte	0
 1049 00eb 00       		.byte	0
 1050 00ec 00       		.byte	0
 1051 00ed 00       		.byte	0
 1052 00ee 00       		.byte	0
 1053 00ef 00       		.byte	0
 1054 00f0 00       		.byte	0
 1055 00f1 00       		.byte	0
 1056 00f2 00       		.byte	0
 1057 00f3 00       		.byte	0
 1058 00f4 00       		.byte	0
 1059 00f5 00       		.byte	0
 1060 00f6 00       		.byte	0
 1061 00f7 00       		.byte	0
 1062 00f8 00       		.byte	0
 1063 00f9 00       		.byte	0
 1064 00fa 00       		.byte	0
 1065 00fb 00       		.byte	0
 1066 00fc 00       		.byte	0
 1067 00fd 00       		.byte	0
 1068 00fe 00       		.byte	0
 1069 00ff 00       		.byte	0
 1070 0100 00       		.byte	0
 1071 0101 00       		.byte	0
 1072 0102 00       		.byte	0
 1073 0103 00       		.byte	0
 1074 0104 00       		.byte	0
 1075 0105 00       		.byte	0
GAS LISTING /tmp/ccHlBYPn.s 			page 31


 1076 0106 00       		.byte	0
 1077 0107 00       		.byte	0
 1078 0108 00       		.byte	0
 1079 0109 00       		.byte	0
 1080 010a 00       		.byte	0
 1081 010b 00       		.byte	0
 1082 010c 00       		.byte	0
 1083 010d 00       		.byte	0
 1084 010e 00       		.byte	0
 1085 010f 00       		.byte	0
 1086 0110 00       		.byte	0
 1087 0111 00       		.byte	0
 1088 0112 00       		.byte	0
 1089 0113 00       		.byte	0
 1090 0114 00       		.byte	0
 1091 0115 00       		.byte	0
 1092 0116 00       		.byte	0
 1093 0117 00       		.byte	0
 1094 0118 00       		.byte	0
 1095 0119 00       		.byte	0
 1096 011a 00       		.byte	0
 1097 011b 00       		.byte	0
 1098 011c 00       		.byte	0
 1099 011d 00       		.byte	0
 1100 011e 00       		.byte	0
 1101 011f 00       		.byte	0
 1102 0120 00       		.byte	0
 1103 0121 00       		.byte	0
 1104 0122 00       		.byte	0
 1105 0123 00       		.byte	0
 1106 0124 00       		.byte	0
 1107 0125 00       		.byte	0
 1108 0126 00       		.byte	0
 1109 0127 00       		.byte	0
 1110 0128 00       		.byte	0
 1111 0129 00       		.byte	0
 1112 012a 00       		.byte	0
 1113 012b 00       		.byte	0
 1114 012c 00       		.byte	0
 1115 012d 00       		.byte	0
 1116 012e 00       		.byte	0
 1117 012f 00       		.byte	0
 1118 0130 00       		.byte	0
 1119 0131 00       		.byte	0
 1120 0132 00       		.byte	0
 1121 0133 00       		.byte	0
 1122 0134 00       		.byte	0
 1123 0135 00       		.byte	0
 1124 0136 00       		.byte	0
 1125 0137 00       		.byte	0
 1126 0138 00       		.byte	0
 1127 0139 00       		.byte	0
 1128 013a 00       		.byte	0
 1129 013b 00       		.byte	0
 1130 013c 00       		.byte	0
 1131 013d 00       		.byte	0
 1132 013e 00       		.byte	0
GAS LISTING /tmp/ccHlBYPn.s 			page 32


 1133 013f 00       		.byte	0
 1134 0140 00       		.byte	0
 1135 0141 00       		.byte	0
 1136 0142 00       		.byte	0
 1137 0143 00       		.byte	0
 1138 0144 00       		.byte	0
 1139 0145 00       		.byte	0
 1140 0146 00       		.byte	0
 1141 0147 00       		.byte	0
 1142 0148 00       		.byte	0
 1143 0149 00       		.byte	0
 1144 014a 00       		.byte	0
 1145 014b 00       		.byte	0
 1146 014c 00       		.byte	0
 1147 014d 00       		.byte	0
 1148 014e 00       		.byte	0
 1149 014f 00       		.byte	0
 1150 0150 00       		.byte	0
 1151 0151 00       		.byte	0
 1152 0152 00       		.byte	0
 1153 0153 00       		.byte	0
 1154 0154 00       		.byte	0
 1155 0155 00       		.byte	0
 1156 0156 00       		.byte	0
 1157 0157 00       		.byte	0
 1158 0158 00       		.byte	0
 1159 0159 00       		.byte	0
 1160 015a 00       		.byte	0
 1161 015b 00       		.byte	0
 1162 015c 00       		.byte	0
 1163 015d 00       		.byte	0
 1164 015e 00       		.byte	0
 1165 015f 00       		.byte	0
 1166 0160 00       		.byte	0
 1167 0161 00       		.byte	0
 1168 0162 00       		.byte	0
 1169 0163 00       		.byte	0
 1170 0164 00       		.byte	0
 1171 0165 00       		.byte	0
 1172 0166 00       		.byte	0
 1173 0167 00       		.byte	0
 1174 0168 00       		.byte	0
 1175 0169 00       		.byte	0
 1176 016a 00       		.byte	0
 1177 016b 00       		.byte	0
 1178 016c 00       		.byte	0
 1179 016d 00       		.byte	0
 1180 016e 00       		.byte	0
 1181 016f 00       		.byte	0
 1182 0170 00       		.byte	0
 1183 0171 00       		.byte	0
 1184 0172 00       		.byte	0
 1185 0173 00       		.byte	0
 1186 0174 00       		.byte	0
 1187 0175 00       		.byte	0
 1188 0176 00       		.byte	0
 1189 0177 00       		.byte	0
GAS LISTING /tmp/ccHlBYPn.s 			page 33


 1190 0178 00       		.byte	0
 1191 0179 00       		.byte	0
 1192 017a 00       		.byte	0
 1193 017b 00       		.byte	0
 1194 017c 00       		.byte	0
 1195 017d 00       		.byte	0
 1196 017e 00       		.byte	0
 1197 017f 00       		.byte	0
 1198 0180 00       		.byte	0
 1199 0181 00       		.byte	0
 1200 0182 00       		.byte	0
 1201 0183 00       		.byte	0
 1202 0184 00       		.byte	0
 1203 0185 00       		.byte	0
 1204 0186 00       		.byte	0
 1205 0187 00       		.byte	0
 1206 0188 00       		.byte	0
 1207 0189 00       		.byte	0
 1208 018a 00       		.byte	0
 1209 018b 00       		.byte	0
 1210 018c 00       		.byte	0
 1211 018d 00       		.byte	0
 1212 018e 00       		.byte	0
 1213 018f 00       		.byte	0
 1214 0190 00       		.byte	0
 1215 0191 00       		.byte	0
 1216 0192 00       		.byte	0
 1217 0193 00       		.byte	0
 1218 0194 00       		.byte	0
 1219 0195 00       		.byte	0
 1220 0196 00       		.byte	0
 1221 0197 00       		.byte	0
 1222 0198 00       		.byte	0
 1223 0199 00       		.byte	0
 1224 019a 00       		.byte	0
 1225 019b 00       		.byte	0
 1226 019c 00       		.byte	0
 1227 019d 00       		.byte	0
 1228 019e 00       		.byte	0
 1229 019f 00       		.byte	0
 1230 01a0 00       		.byte	0
 1231 01a1 00       		.byte	0
 1232 01a2 00       		.byte	0
 1233 01a3 00       		.byte	0
 1234 01a4 00       		.byte	0
 1235 01a5 00       		.byte	0
 1236 01a6 00       		.byte	0
 1237 01a7 00       		.byte	0
 1238 01a8 00       		.byte	0
 1239 01a9 00       		.byte	0
 1240 01aa 00       		.byte	0
 1241 01ab 00       		.byte	0
 1242 01ac 00       		.byte	0
 1243 01ad 00       		.byte	0
 1244 01ae 00       		.byte	0
 1245 01af 00       		.byte	0
 1246 01b0 00       		.byte	0
GAS LISTING /tmp/ccHlBYPn.s 			page 34


 1247 01b1 00       		.byte	0
 1248 01b2 00       		.byte	0
 1249 01b3 00       		.byte	0
 1250 01b4 00       		.byte	0
 1251 01b5 00       		.byte	0
 1252 01b6 00       		.byte	0
 1253 01b7 00       		.byte	0
 1254 01b8 00       		.byte	0
 1255 01b9 00       		.byte	0
 1256 01ba 00       		.byte	0
 1257 01bb 00       		.byte	0
 1258 01bc 00       		.byte	0
 1259 01bd 00       		.byte	0
 1260 01be 00       		.byte	0
 1261 01bf 00       		.byte	0
 1262 01c0 00       		.byte	0
 1263 01c1 00       		.byte	0
 1264 01c2 00       		.byte	0
 1265 01c3 00       		.byte	0
 1266 01c4 00       		.byte	0
 1267 01c5 00       		.byte	0
 1268 01c6 00       		.byte	0
 1269 01c7 00       		.byte	0
 1270 01c8 00       		.byte	0
 1271 01c9 00       		.byte	0
 1272 01ca 00       		.byte	0
 1273 01cb 00       		.byte	0
 1274 01cc 00       		.byte	0
 1275 01cd 00       		.byte	0
 1276 01ce 00       		.byte	0
 1277 01cf 00       		.byte	0
 1278 01d0 00       		.byte	0
 1279 01d1 00       		.byte	0
 1280 01d2 00       		.byte	0
 1281 01d3 00       		.byte	0
 1282 01d4 00       		.byte	0
 1283 01d5 00       		.byte	0
 1284 01d6 00       		.byte	0
 1285 01d7 00       		.byte	0
 1286 01d8 00       		.byte	0
 1287 01d9 00       		.byte	0
 1288 01da 00       		.byte	0
 1289 01db 00       		.byte	0
 1290 01dc 00       		.byte	0
 1291 01dd 00       		.byte	0
 1292 01de 00       		.byte	0
 1293 01df 00       		.byte	0
 1294 01e0 00       		.byte	0
 1295 01e1 00       		.byte	0
 1296 01e2 00       		.byte	0
 1297 01e3 00       		.byte	0
 1298 01e4 00       		.byte	0
 1299 01e5 00       		.byte	0
 1300 01e6 00       		.byte	0
 1301 01e7 00       		.byte	0
 1302 01e8 00       		.byte	0
 1303 01e9 00       		.byte	0
GAS LISTING /tmp/ccHlBYPn.s 			page 35


 1304 01ea 00       		.byte	0
 1305 01eb 00       		.byte	0
 1306 01ec 00       		.byte	0
 1307 01ed 00       		.byte	0
 1308 01ee 00       		.byte	0
 1309 01ef 00       		.byte	0
 1310 01f0 00       		.byte	0
 1311 01f1 00       		.byte	0
 1312 01f2 00       		.byte	0
 1313 01f3 00       		.byte	0
 1314 01f4 00       		.byte	0
 1315 01f5 00       		.byte	0
 1316 01f6 00       		.byte	0
 1317 01f7 00       		.byte	0
 1318 01f8 00       		.byte	0
 1319 01f9 00       		.byte	0
 1320 01fa 00       		.byte	0
 1321 01fb 00       		.byte	0
 1322 01fc 00       		.byte	0
 1323 01fd 00       		.byte	0
 1324 01fe 00       		.byte	0
 1325 01ff 00       		.byte	0
 1326              		.section	.rodata
 1327              	.LC17:
 1328 01dd 4449442E 		.string	"DID.EEPROM.EMUL"
 1328      45455052 
 1328      4F4D2E45 
 1328      4D554C00 
 1329              		.section	.data.rel.local
 1330 0018 00000000 		.align 32
 1330      00000000 
 1333              	DIDEEPromData:
 1334 0020 00020000 		.quad	512
 1334      00000000 
 1335 0028 02000000 		.quad	2
 1335      00000000 
 1336 0030 00010000 		.quad	256
 1336      00000000 
 1337 0038 00000000 		.quad	0
 1337      00000000 
 1338 0040 00000000 		.quad	DIDEEPROM
 1338      00000000 
 1339 0048 00000000 		.quad	.LC17
 1339      00000000 
 1340 0050 00000000 		.quad	0
 1340      00000000 
 1341              		.text
 1342              		.globl	EmulateDIDEeprom
 1343              		.hidden	EmulateDIDEeprom
 1345              	EmulateDIDEeprom:
 1346              	.LFB8:
 335:/home/hkh/git/eapidk-code-r76-trunk/lib/linux/../EApiEmulI2C.c **** #define bin_data DIDEEPROM
 336:/home/hkh/git/eapidk-code-r76-trunk/lib/linux/../EApiEmulI2C.c **** #include "DIDData.h"
 337:/home/hkh/git/eapidk-code-r76-trunk/lib/linux/../EApiEmulI2C.c **** #undef bin_data
 338:/home/hkh/git/eapidk-code-r76-trunk/lib/linux/../EApiEmulI2C.c **** static EepromCfgData_t DIDEEPromData={
 339:/home/hkh/git/eapidk-code-r76-trunk/lib/linux/../EApiEmulI2C.c ****   sizeof(DIDEEPROM),  /* EEPROM Length */
 340:/home/hkh/git/eapidk-code-r76-trunk/lib/linux/../EApiEmulI2C.c ****   EXT_INDEX        ,  /* Ext/Std Index */
GAS LISTING /tmp/ccHlBYPn.s 			page 36


 341:/home/hkh/git/eapidk-code-r76-trunk/lib/linux/../EApiEmulI2C.c ****   256              ,  /* Device Page Length */
 342:/home/hkh/git/eapidk-code-r76-trunk/lib/linux/../EApiEmulI2C.c ****   0                ,  /* Current Index Value */
 343:/home/hkh/git/eapidk-code-r76-trunk/lib/linux/../EApiEmulI2C.c ****   DIDEEPROM        ,  /* EEPROM pBuffer Pointer */
 344:/home/hkh/git/eapidk-code-r76-trunk/lib/linux/../EApiEmulI2C.c ****   "DID.EEPROM.EMUL",
 345:/home/hkh/git/eapidk-code-r76-trunk/lib/linux/../EApiEmulI2C.c ****   NULL
 346:/home/hkh/git/eapidk-code-r76-trunk/lib/linux/../EApiEmulI2C.c **** };
 347:/home/hkh/git/eapidk-code-r76-trunk/lib/linux/../EApiEmulI2C.c **** EApiStatus_t 
 348:/home/hkh/git/eapidk-code-r76-trunk/lib/linux/../EApiEmulI2C.c **** EmulateDIDEeprom(
 349:/home/hkh/git/eapidk-code-r76-trunk/lib/linux/../EApiEmulI2C.c ****     __IN uint32_t Arg1      , 
 350:/home/hkh/git/eapidk-code-r76-trunk/lib/linux/../EApiEmulI2C.c ****     __IN void    *pWBuffer  , 
 351:/home/hkh/git/eapidk-code-r76-trunk/lib/linux/../EApiEmulI2C.c ****     __IN uint32_t WriteBCnt , 
 352:/home/hkh/git/eapidk-code-r76-trunk/lib/linux/../EApiEmulI2C.c ****     __OUT void   *pRBuffer  , 
 353:/home/hkh/git/eapidk-code-r76-trunk/lib/linux/../EApiEmulI2C.c ****     __IN uint32_t ReadBCnt
 354:/home/hkh/git/eapidk-code-r76-trunk/lib/linux/../EApiEmulI2C.c ****     )
 355:/home/hkh/git/eapidk-code-r76-trunk/lib/linux/../EApiEmulI2C.c **** {
 1347              		.loc 1 355 1
 1348              		.cfi_startproc
 1349 090b F30F1EFA 		endbr64
 1350 090f 55       		pushq	%rbp
 1351              		.cfi_def_cfa_offset 16
 1352              		.cfi_offset 6, -16
 1353 0910 4889E5   		movq	%rsp, %rbp
 1354              		.cfi_def_cfa_register 6
 1355 0913 4883EC20 		subq	$32, %rsp
 1356 0917 897DFC   		movl	%edi, -4(%rbp)
 1357 091a 488975F0 		movq	%rsi, -16(%rbp)
 1358 091e 8955F8   		movl	%edx, -8(%rbp)
 1359 0921 48894DE8 		movq	%rcx, -24(%rbp)
 1360 0925 448945E4 		movl	%r8d, -28(%rbp)
 356:/home/hkh/git/eapidk-code-r76-trunk/lib/linux/../EApiEmulI2C.c ****   return EmulateEepromFS(
 1361              		.loc 1 356 10
 1362 0929 8B7DE4   		movl	-28(%rbp), %edi
 1363 092c 8B4DF8   		movl	-8(%rbp), %ecx
 1364 092f 8B45FC   		movl	-4(%rbp), %eax
 1365 0932 488B75E8 		movq	-24(%rbp), %rsi
 1366 0936 488B55F0 		movq	-16(%rbp), %rdx
 1367 093a 4989F9   		movq	%rdi, %r9
 1368 093d 4989F0   		movq	%rsi, %r8
 1369 0940 488D3500 		leaq	DIDEEPromData(%rip), %rsi
 1369      000000
 1370 0947 4889C7   		movq	%rax, %rdi
 1371 094a E8000000 		call	EmulateEepromFS
 1371      00
 357:/home/hkh/git/eapidk-code-r76-trunk/lib/linux/../EApiEmulI2C.c ****       Arg1, 
 358:/home/hkh/git/eapidk-code-r76-trunk/lib/linux/../EApiEmulI2C.c ****       &DIDEEPromData, 
 359:/home/hkh/git/eapidk-code-r76-trunk/lib/linux/../EApiEmulI2C.c ****       pWBuffer, 
 360:/home/hkh/git/eapidk-code-r76-trunk/lib/linux/../EApiEmulI2C.c ****       WriteBCnt, 
 361:/home/hkh/git/eapidk-code-r76-trunk/lib/linux/../EApiEmulI2C.c ****       pRBuffer, 
 362:/home/hkh/git/eapidk-code-r76-trunk/lib/linux/../EApiEmulI2C.c ****       ReadBCnt
 363:/home/hkh/git/eapidk-code-r76-trunk/lib/linux/../EApiEmulI2C.c ****       );
 364:/home/hkh/git/eapidk-code-r76-trunk/lib/linux/../EApiEmulI2C.c **** }
 1372              		.loc 1 364 1
 1373 094f C9       		leave
 1374              		.cfi_def_cfa 7, 8
 1375 0950 C3       		ret
 1376              		.cfi_endproc
 1377              	.LFE8:
GAS LISTING /tmp/ccHlBYPn.s 			page 37


 1379              		.hidden	UDSEEPROM
 1380              		.globl	UDSEEPROM
 1381              		.data
 1382              		.align 32
 1385              	UDSEEPROM:
 1386 0200 00       		.byte	0
 1387 0201 FF       		.byte	-1
 1388 0202 FF       		.byte	-1
 1389 0203 FF       		.byte	-1
 1390 0204 FF       		.byte	-1
 1391 0205 FF       		.byte	-1
 1392 0206 FF       		.byte	-1
 1393 0207 00       		.byte	0
 1394 0208 04       		.byte	4
 1395 0209 21       		.byte	33
 1396 020a 58       		.byte	88
 1397 020b 59       		.byte	89
 1398 020c 71       		.byte	113
 1399 020d CB       		.byte	-53
 1400 020e A2       		.byte	-94
 1401 020f 04       		.byte	4
 1402 0210 1E       		.byte	30
 1403 0211 11       		.byte	17
 1404 0212 01       		.byte	1
 1405 0213 03       		.byte	3
 1406 0214 80       		.byte	-128
 1407 0215 00       		.byte	0
 1408 0216 00       		.byte	0
 1409 0217 00       		.byte	0
 1410 0218 F6       		.byte	-10
 1411 0219 00       		.byte	0
 1412 021a 00       		.byte	0
 1413 021b 00       		.byte	0
 1414 021c 00       		.byte	0
 1415 021d 00       		.byte	0
 1416 021e 00       		.byte	0
 1417 021f 00       		.byte	0
 1418 0220 00       		.byte	0
 1419 0221 00       		.byte	0
 1420 0222 00       		.byte	0
 1421 0223 AC       		.byte	-84
 1422 0224 00       		.byte	0
 1423 0225 00       		.byte	0
 1424 0226 01       		.byte	1
 1425 0227 01       		.byte	1
 1426 0228 01       		.byte	1
 1427 0229 01       		.byte	1
 1428 022a 01       		.byte	1
 1429 022b 01       		.byte	1
 1430 022c 01       		.byte	1
 1431 022d 01       		.byte	1
 1432 022e 01       		.byte	1
 1433 022f 01       		.byte	1
 1434 0230 01       		.byte	1
 1435 0231 01       		.byte	1
 1436 0232 01       		.byte	1
 1437 0233 01       		.byte	1
GAS LISTING /tmp/ccHlBYPn.s 			page 38


 1438 0234 01       		.byte	1
 1439 0235 01       		.byte	1
 1440 0236 80       		.byte	-128
 1441 0237 0C       		.byte	12
 1442 0238 20       		.byte	32
 1443 0239 00       		.byte	0
 1444 023a 31       		.byte	49
 1445 023b E0       		.byte	-32
 1446 023c 2D       		.byte	45
 1447 023d 10       		.byte	16
 1448 023e 2A       		.byte	42
 1449 023f 80       		.byte	-128
 1450 0240 A2       		.byte	-94
 1451 0241 00       		.byte	0
 1452 0242 00       		.byte	0
 1453 0243 00       		.byte	0
 1454 0244 00       		.byte	0
 1455 0245 00       		.byte	0
 1456 0246 00       		.byte	0
 1457 0247 18       		.byte	24
 1458 0248 00       		.byte	0
 1459 0249 00       		.byte	0
 1460 024a 00       		.byte	0
 1461 024b 00       		.byte	0
 1462 024c 00       		.byte	0
 1463 024d 00       		.byte	0
 1464 024e 00       		.byte	0
 1465 024f 00       		.byte	0
 1466 0250 00       		.byte	0
 1467 0251 00       		.byte	0
 1468 0252 00       		.byte	0
 1469 0253 00       		.byte	0
 1470 0254 00       		.byte	0
 1471 0255 00       		.byte	0
 1472 0256 00       		.byte	0
 1473 0257 00       		.byte	0
 1474 0258 00       		.byte	0
 1475 0259 00       		.byte	0
 1476 025a 00       		.byte	0
 1477 025b 00       		.byte	0
 1478 025c 00       		.byte	0
 1479 025d FE       		.byte	-2
 1480 025e 00       		.byte	0
 1481 025f 4B       		.byte	75
 1482 0260 6F       		.byte	111
 1483 0261 6E       		.byte	110
 1484 0262 74       		.byte	116
 1485 0263 72       		.byte	114
 1486 0264 6F       		.byte	111
 1487 0265 6E       		.byte	110
 1488 0266 5F       		.byte	95
 1489 0267 44       		.byte	68
 1490 0268 45       		.byte	69
 1491 0269 47       		.byte	71
 1492 026a 0A       		.byte	10
 1493 026b 20       		.byte	32
 1494 026c 00       		.byte	0
GAS LISTING /tmp/ccHlBYPn.s 			page 39


 1495 026d 00       		.byte	0
 1496 026e 00       		.byte	0
 1497 026f 0F       		.byte	15
 1498 0270 00       		.byte	0
 1499 0271 00       		.byte	0
 1500 0272 0C       		.byte	12
 1501 0273 00       		.byte	0
 1502 0274 DC       		.byte	-36
 1503 0275 FE       		.byte	-2
 1504 0276 00       		.byte	0
 1505 0277 EC       		.byte	-20
 1506 0278 00       		.byte	0
 1507 0279 00       		.byte	0
 1508 027a 00       		.byte	0
 1509 027b 00       		.byte	0
 1510 027c 00       		.byte	0
 1511 027d 11       		.byte	17
 1512 027e 00       		.byte	0
 1513 027f 57       		.byte	87
 1514 0280 00       		.byte	0
 1515 0281 00       		.byte	0
 1516 0282 00       		.byte	0
 1517 0283 00       		.byte	0
 1518 0284 00       		.byte	0
 1519 0285 00       		.byte	0
 1520 0286 00       		.byte	0
 1521 0287 00       		.byte	0
 1522 0288 00       		.byte	0
 1523 0289 00       		.byte	0
 1524 028a 00       		.byte	0
 1525 028b 00       		.byte	0
 1526 028c 00       		.byte	0
 1527 028d 00       		.byte	0
 1528 028e 00       		.byte	0
 1529 028f 00       		.byte	0
 1530 0290 00       		.byte	0
 1531 0291 00       		.byte	0
 1532 0292 00       		.byte	0
 1533 0293 00       		.byte	0
 1534 0294 00       		.byte	0
 1535 0295 00       		.byte	0
 1536 0296 00       		.byte	0
 1537 0297 00       		.byte	0
 1538 0298 00       		.byte	0
 1539 0299 00       		.byte	0
 1540 029a 00       		.byte	0
 1541 029b 00       		.byte	0
 1542 029c 00       		.byte	0
 1543 029d 00       		.byte	0
 1544 029e 00       		.byte	0
 1545 029f 00       		.byte	0
 1546 02a0 00       		.byte	0
 1547 02a1 00       		.byte	0
 1548 02a2 00       		.byte	0
 1549 02a3 00       		.byte	0
 1550 02a4 00       		.byte	0
 1551 02a5 00       		.byte	0
GAS LISTING /tmp/ccHlBYPn.s 			page 40


 1552 02a6 00       		.byte	0
 1553 02a7 00       		.byte	0
 1554 02a8 00       		.byte	0
 1555 02a9 00       		.byte	0
 1556 02aa 00       		.byte	0
 1557 02ab 00       		.byte	0
 1558 02ac 00       		.byte	0
 1559 02ad 00       		.byte	0
 1560 02ae 00       		.byte	0
 1561 02af 00       		.byte	0
 1562 02b0 00       		.byte	0
 1563 02b1 00       		.byte	0
 1564 02b2 00       		.byte	0
 1565 02b3 00       		.byte	0
 1566 02b4 00       		.byte	0
 1567 02b5 00       		.byte	0
 1568 02b6 00       		.byte	0
 1569 02b7 00       		.byte	0
 1570 02b8 00       		.byte	0
 1571 02b9 00       		.byte	0
 1572 02ba 00       		.byte	0
 1573 02bb 00       		.byte	0
 1574 02bc 00       		.byte	0
 1575 02bd 00       		.byte	0
 1576 02be 00       		.byte	0
 1577 02bf 00       		.byte	0
 1578 02c0 00       		.byte	0
 1579 02c1 00       		.byte	0
 1580 02c2 00       		.byte	0
 1581 02c3 00       		.byte	0
 1582 02c4 00       		.byte	0
 1583 02c5 00       		.byte	0
 1584 02c6 00       		.byte	0
 1585 02c7 00       		.byte	0
 1586 02c8 00       		.byte	0
 1587 02c9 00       		.byte	0
 1588 02ca 00       		.byte	0
 1589 02cb 00       		.byte	0
 1590 02cc 00       		.byte	0
 1591 02cd 00       		.byte	0
 1592 02ce 00       		.byte	0
 1593 02cf 00       		.byte	0
 1594 02d0 00       		.byte	0
 1595 02d1 00       		.byte	0
 1596 02d2 00       		.byte	0
 1597 02d3 00       		.byte	0
 1598 02d4 00       		.byte	0
 1599 02d5 00       		.byte	0
 1600 02d6 00       		.byte	0
 1601 02d7 00       		.byte	0
 1602 02d8 00       		.byte	0
 1603 02d9 00       		.byte	0
 1604 02da 00       		.byte	0
 1605 02db 00       		.byte	0
 1606 02dc 00       		.byte	0
 1607 02dd 00       		.byte	0
 1608 02de 00       		.byte	0
GAS LISTING /tmp/ccHlBYPn.s 			page 41


 1609 02df 00       		.byte	0
 1610 02e0 00       		.byte	0
 1611 02e1 00       		.byte	0
 1612 02e2 00       		.byte	0
 1613 02e3 00       		.byte	0
 1614 02e4 00       		.byte	0
 1615 02e5 00       		.byte	0
 1616 02e6 00       		.byte	0
 1617 02e7 00       		.byte	0
 1618 02e8 00       		.byte	0
 1619 02e9 00       		.byte	0
 1620 02ea 00       		.byte	0
 1621 02eb 00       		.byte	0
 1622 02ec 00       		.byte	0
 1623 02ed 00       		.byte	0
 1624 02ee 00       		.byte	0
 1625 02ef 00       		.byte	0
 1626 02f0 00       		.byte	0
 1627 02f1 00       		.byte	0
 1628 02f2 00       		.byte	0
 1629 02f3 00       		.byte	0
 1630 02f4 00       		.byte	0
 1631 02f5 00       		.byte	0
 1632 02f6 00       		.byte	0
 1633 02f7 00       		.byte	0
 1634 02f8 00       		.byte	0
 1635 02f9 00       		.byte	0
 1636 02fa 00       		.byte	0
 1637 02fb 00       		.byte	0
 1638 02fc 00       		.byte	0
 1639 02fd 00       		.byte	0
 1640 02fe 00       		.byte	0
 1641 02ff 00       		.byte	0
 1642 0300 00       		.byte	0
 1643 0301 00       		.byte	0
 1644 0302 00       		.byte	0
 1645 0303 00       		.byte	0
 1646 0304 00       		.byte	0
 1647 0305 00       		.byte	0
 1648 0306 00       		.byte	0
 1649 0307 00       		.byte	0
 1650 0308 00       		.byte	0
 1651 0309 00       		.byte	0
 1652 030a 00       		.byte	0
 1653 030b 00       		.byte	0
 1654 030c 00       		.byte	0
 1655 030d 00       		.byte	0
 1656 030e 00       		.byte	0
 1657 030f 00       		.byte	0
 1658 0310 00       		.byte	0
 1659 0311 00       		.byte	0
 1660 0312 00       		.byte	0
 1661 0313 00       		.byte	0
 1662 0314 00       		.byte	0
 1663 0315 00       		.byte	0
 1664 0316 00       		.byte	0
 1665 0317 00       		.byte	0
GAS LISTING /tmp/ccHlBYPn.s 			page 42


 1666 0318 00       		.byte	0
 1667 0319 00       		.byte	0
 1668 031a 00       		.byte	0
 1669 031b 00       		.byte	0
 1670 031c 00       		.byte	0
 1671 031d 00       		.byte	0
 1672 031e 00       		.byte	0
 1673 031f 00       		.byte	0
 1674 0320 00       		.byte	0
 1675 0321 00       		.byte	0
 1676 0322 00       		.byte	0
 1677 0323 00       		.byte	0
 1678 0324 00       		.byte	0
 1679 0325 00       		.byte	0
 1680 0326 00       		.byte	0
 1681 0327 00       		.byte	0
 1682 0328 00       		.byte	0
 1683 0329 00       		.byte	0
 1684 032a 00       		.byte	0
 1685 032b 00       		.byte	0
 1686 032c 00       		.byte	0
 1687 032d 00       		.byte	0
 1688 032e 00       		.byte	0
 1689 032f 00       		.byte	0
 1690 0330 00       		.byte	0
 1691 0331 00       		.byte	0
 1692 0332 00       		.byte	0
 1693 0333 00       		.byte	0
 1694 0334 00       		.byte	0
 1695 0335 00       		.byte	0
 1696 0336 00       		.byte	0
 1697 0337 00       		.byte	0
 1698 0338 00       		.byte	0
 1699 0339 00       		.byte	0
 1700 033a 00       		.byte	0
 1701 033b 00       		.byte	0
 1702 033c 00       		.byte	0
 1703 033d 00       		.byte	0
 1704 033e 00       		.byte	0
 1705 033f 00       		.byte	0
 1706 0340 00       		.byte	0
 1707 0341 00       		.byte	0
 1708 0342 00       		.byte	0
 1709 0343 00       		.byte	0
 1710 0344 00       		.byte	0
 1711 0345 00       		.byte	0
 1712 0346 00       		.byte	0
 1713 0347 00       		.byte	0
 1714 0348 00       		.byte	0
 1715 0349 00       		.byte	0
 1716 034a 00       		.byte	0
 1717 034b 00       		.byte	0
 1718 034c 00       		.byte	0
 1719 034d 00       		.byte	0
 1720 034e 00       		.byte	0
 1721 034f 00       		.byte	0
 1722 0350 00       		.byte	0
GAS LISTING /tmp/ccHlBYPn.s 			page 43


 1723 0351 00       		.byte	0
 1724 0352 00       		.byte	0
 1725 0353 00       		.byte	0
 1726 0354 00       		.byte	0
 1727 0355 00       		.byte	0
 1728 0356 00       		.byte	0
 1729 0357 00       		.byte	0
 1730 0358 00       		.byte	0
 1731 0359 00       		.byte	0
 1732 035a 00       		.byte	0
 1733 035b 00       		.byte	0
 1734 035c 00       		.byte	0
 1735 035d 00       		.byte	0
 1736 035e 00       		.byte	0
 1737 035f 00       		.byte	0
 1738 0360 00       		.byte	0
 1739 0361 00       		.byte	0
 1740 0362 00       		.byte	0
 1741 0363 00       		.byte	0
 1742 0364 00       		.byte	0
 1743 0365 00       		.byte	0
 1744 0366 00       		.byte	0
 1745 0367 00       		.byte	0
 1746 0368 00       		.byte	0
 1747 0369 00       		.byte	0
 1748 036a 00       		.byte	0
 1749 036b 00       		.byte	0
 1750 036c 00       		.byte	0
 1751 036d 00       		.byte	0
 1752 036e 00       		.byte	0
 1753 036f 00       		.byte	0
 1754 0370 00       		.byte	0
 1755 0371 00       		.byte	0
 1756 0372 00       		.byte	0
 1757 0373 00       		.byte	0
 1758 0374 00       		.byte	0
 1759 0375 00       		.byte	0
 1760 0376 00       		.byte	0
 1761 0377 00       		.byte	0
 1762 0378 00       		.byte	0
 1763 0379 00       		.byte	0
 1764 037a 00       		.byte	0
 1765 037b 00       		.byte	0
 1766 037c 00       		.byte	0
 1767 037d 00       		.byte	0
 1768 037e 00       		.byte	0
 1769 037f 00       		.byte	0
 1770 0380 00       		.byte	0
 1771 0381 00       		.byte	0
 1772 0382 00       		.byte	0
 1773 0383 00       		.byte	0
 1774 0384 00       		.byte	0
 1775 0385 00       		.byte	0
 1776 0386 00       		.byte	0
 1777 0387 00       		.byte	0
 1778 0388 00       		.byte	0
 1779 0389 00       		.byte	0
GAS LISTING /tmp/ccHlBYPn.s 			page 44


 1780 038a 00       		.byte	0
 1781 038b 00       		.byte	0
 1782 038c 00       		.byte	0
 1783 038d 00       		.byte	0
 1784 038e 00       		.byte	0
 1785 038f 00       		.byte	0
 1786 0390 00       		.byte	0
 1787 0391 00       		.byte	0
 1788 0392 00       		.byte	0
 1789 0393 00       		.byte	0
 1790 0394 00       		.byte	0
 1791 0395 00       		.byte	0
 1792 0396 00       		.byte	0
 1793 0397 00       		.byte	0
 1794 0398 00       		.byte	0
 1795 0399 00       		.byte	0
 1796 039a 00       		.byte	0
 1797 039b 00       		.byte	0
 1798 039c 00       		.byte	0
 1799 039d 00       		.byte	0
 1800 039e 00       		.byte	0
 1801 039f 00       		.byte	0
 1802 03a0 00       		.byte	0
 1803 03a1 00       		.byte	0
 1804 03a2 00       		.byte	0
 1805 03a3 00       		.byte	0
 1806 03a4 00       		.byte	0
 1807 03a5 00       		.byte	0
 1808 03a6 00       		.byte	0
 1809 03a7 00       		.byte	0
 1810 03a8 00       		.byte	0
 1811 03a9 00       		.byte	0
 1812 03aa 00       		.byte	0
 1813 03ab 00       		.byte	0
 1814 03ac 00       		.byte	0
 1815 03ad 00       		.byte	0
 1816 03ae 00       		.byte	0
 1817 03af 00       		.byte	0
 1818 03b0 00       		.byte	0
 1819 03b1 00       		.byte	0
 1820 03b2 00       		.byte	0
 1821 03b3 00       		.byte	0
 1822 03b4 00       		.byte	0
 1823 03b5 00       		.byte	0
 1824 03b6 00       		.byte	0
 1825 03b7 00       		.byte	0
 1826 03b8 00       		.byte	0
 1827 03b9 00       		.byte	0
 1828 03ba 00       		.byte	0
 1829 03bb 00       		.byte	0
 1830 03bc 00       		.byte	0
 1831 03bd 00       		.byte	0
 1832 03be 00       		.byte	0
 1833 03bf 00       		.byte	0
 1834 03c0 00       		.byte	0
 1835 03c1 00       		.byte	0
 1836 03c2 00       		.byte	0
GAS LISTING /tmp/ccHlBYPn.s 			page 45


 1837 03c3 00       		.byte	0
 1838 03c4 00       		.byte	0
 1839 03c5 00       		.byte	0
 1840 03c6 00       		.byte	0
 1841 03c7 00       		.byte	0
 1842 03c8 00       		.byte	0
 1843 03c9 00       		.byte	0
 1844 03ca 00       		.byte	0
 1845 03cb 00       		.byte	0
 1846 03cc 00       		.byte	0
 1847 03cd 00       		.byte	0
 1848 03ce 00       		.byte	0
 1849 03cf 00       		.byte	0
 1850 03d0 00       		.byte	0
 1851 03d1 00       		.byte	0
 1852 03d2 00       		.byte	0
 1853 03d3 00       		.byte	0
 1854 03d4 00       		.byte	0
 1855 03d5 00       		.byte	0
 1856 03d6 00       		.byte	0
 1857 03d7 00       		.byte	0
 1858 03d8 00       		.byte	0
 1859 03d9 00       		.byte	0
 1860 03da 00       		.byte	0
 1861 03db 00       		.byte	0
 1862 03dc 00       		.byte	0
 1863 03dd 00       		.byte	0
 1864 03de 00       		.byte	0
 1865 03df 00       		.byte	0
 1866 03e0 00       		.byte	0
 1867 03e1 00       		.byte	0
 1868 03e2 00       		.byte	0
 1869 03e3 00       		.byte	0
 1870 03e4 00       		.byte	0
 1871 03e5 00       		.byte	0
 1872 03e6 00       		.byte	0
 1873 03e7 00       		.byte	0
 1874 03e8 00       		.byte	0
 1875 03e9 00       		.byte	0
 1876 03ea 00       		.byte	0
 1877 03eb 00       		.byte	0
 1878 03ec 00       		.byte	0
 1879 03ed 00       		.byte	0
 1880 03ee 00       		.byte	0
 1881 03ef 00       		.byte	0
 1882 03f0 00       		.byte	0
 1883 03f1 00       		.byte	0
 1884 03f2 00       		.byte	0
 1885 03f3 00       		.byte	0
 1886 03f4 00       		.byte	0
 1887 03f5 00       		.byte	0
 1888 03f6 00       		.byte	0
 1889 03f7 00       		.byte	0
 1890 03f8 00       		.byte	0
 1891 03f9 00       		.byte	0
 1892 03fa 00       		.byte	0
 1893 03fb 00       		.byte	0
GAS LISTING /tmp/ccHlBYPn.s 			page 46


 1894 03fc 00       		.byte	0
 1895 03fd 00       		.byte	0
 1896 03fe 00       		.byte	0
 1897 03ff 00       		.byte	0
 1898              		.section	.rodata
 1899              	.LC18:
 1900 01ed 5544532E 		.string	"UDS.EEPROM.EMUL"
 1900      45455052 
 1900      4F4D2E45 
 1900      4D554C00 
 1901              		.section	.data.rel.local
 1902 0058 00000000 		.align 32
 1902      00000000 
 1905              	UDSEEPromData:
 1906 0060 00020000 		.quad	512
 1906      00000000 
 1907 0068 02000000 		.quad	2
 1907      00000000 
 1908 0070 10000000 		.quad	16
 1908      00000000 
 1909 0078 00000000 		.quad	0
 1909      00000000 
 1910 0080 00000000 		.quad	UDSEEPROM
 1910      00000000 
 1911 0088 00000000 		.quad	.LC18
 1911      00000000 
 1912 0090 00000000 		.quad	0
 1912      00000000 
 1913              		.text
 1914              		.globl	EmulateUDSEeprom
 1915              		.hidden	EmulateUDSEeprom
 1917              	EmulateUDSEeprom:
 1918              	.LFB9:
 365:/home/hkh/git/eapidk-code-r76-trunk/lib/linux/../EApiEmulI2C.c **** #define bin_data UDSEEPROM
 366:/home/hkh/git/eapidk-code-r76-trunk/lib/linux/../EApiEmulI2C.c **** #include "UDSData.h"
 367:/home/hkh/git/eapidk-code-r76-trunk/lib/linux/../EApiEmulI2C.c **** #undef bin_data
 368:/home/hkh/git/eapidk-code-r76-trunk/lib/linux/../EApiEmulI2C.c **** static EepromCfgData_t UDSEEPromData={
 369:/home/hkh/git/eapidk-code-r76-trunk/lib/linux/../EApiEmulI2C.c ****   sizeof(UDSEEPROM),  /* EEPROM Length */
 370:/home/hkh/git/eapidk-code-r76-trunk/lib/linux/../EApiEmulI2C.c ****   EXT_INDEX        ,  /* Ext/Std Index */
 371:/home/hkh/git/eapidk-code-r76-trunk/lib/linux/../EApiEmulI2C.c ****   16               ,  /* Device Page Length */
 372:/home/hkh/git/eapidk-code-r76-trunk/lib/linux/../EApiEmulI2C.c ****   0                ,  /* Current Index Value */
 373:/home/hkh/git/eapidk-code-r76-trunk/lib/linux/../EApiEmulI2C.c ****   UDSEEPROM        ,  /* EEPROM pBuffer Pointer */
 374:/home/hkh/git/eapidk-code-r76-trunk/lib/linux/../EApiEmulI2C.c ****   "UDS.EEPROM.EMUL",
 375:/home/hkh/git/eapidk-code-r76-trunk/lib/linux/../EApiEmulI2C.c ****   NULL
 376:/home/hkh/git/eapidk-code-r76-trunk/lib/linux/../EApiEmulI2C.c **** };
 377:/home/hkh/git/eapidk-code-r76-trunk/lib/linux/../EApiEmulI2C.c **** EApiStatus_t 
 378:/home/hkh/git/eapidk-code-r76-trunk/lib/linux/../EApiEmulI2C.c **** EmulateUDSEeprom(
 379:/home/hkh/git/eapidk-code-r76-trunk/lib/linux/../EApiEmulI2C.c ****     __IN uint32_t Arg1      , 
 380:/home/hkh/git/eapidk-code-r76-trunk/lib/linux/../EApiEmulI2C.c ****     __IN void    *pWBuffer  , 
 381:/home/hkh/git/eapidk-code-r76-trunk/lib/linux/../EApiEmulI2C.c ****     __IN uint32_t WriteBCnt , 
 382:/home/hkh/git/eapidk-code-r76-trunk/lib/linux/../EApiEmulI2C.c ****     __OUT void   *pRBuffer  , 
 383:/home/hkh/git/eapidk-code-r76-trunk/lib/linux/../EApiEmulI2C.c ****     __IN uint32_t ReadBCnt
 384:/home/hkh/git/eapidk-code-r76-trunk/lib/linux/../EApiEmulI2C.c ****     )
 385:/home/hkh/git/eapidk-code-r76-trunk/lib/linux/../EApiEmulI2C.c **** {
 1919              		.loc 1 385 1
 1920              		.cfi_startproc
 1921 0951 F30F1EFA 		endbr64
GAS LISTING /tmp/ccHlBYPn.s 			page 47


 1922 0955 55       		pushq	%rbp
 1923              		.cfi_def_cfa_offset 16
 1924              		.cfi_offset 6, -16
 1925 0956 4889E5   		movq	%rsp, %rbp
 1926              		.cfi_def_cfa_register 6
 1927 0959 4883EC20 		subq	$32, %rsp
 1928 095d 897DFC   		movl	%edi, -4(%rbp)
 1929 0960 488975F0 		movq	%rsi, -16(%rbp)
 1930 0964 8955F8   		movl	%edx, -8(%rbp)
 1931 0967 48894DE8 		movq	%rcx, -24(%rbp)
 1932 096b 448945E4 		movl	%r8d, -28(%rbp)
 386:/home/hkh/git/eapidk-code-r76-trunk/lib/linux/../EApiEmulI2C.c ****   return EmulateEepromFS(
 1933              		.loc 1 386 10
 1934 096f 8B7DE4   		movl	-28(%rbp), %edi
 1935 0972 8B4DF8   		movl	-8(%rbp), %ecx
 1936 0975 8B45FC   		movl	-4(%rbp), %eax
 1937 0978 488B75E8 		movq	-24(%rbp), %rsi
 1938 097c 488B55F0 		movq	-16(%rbp), %rdx
 1939 0980 4989F9   		movq	%rdi, %r9
 1940 0983 4989F0   		movq	%rsi, %r8
 1941 0986 488D3500 		leaq	UDSEEPromData(%rip), %rsi
 1941      000000
 1942 098d 4889C7   		movq	%rax, %rdi
 1943 0990 E8000000 		call	EmulateEepromFS
 1943      00
 387:/home/hkh/git/eapidk-code-r76-trunk/lib/linux/../EApiEmulI2C.c ****       Arg1, 
 388:/home/hkh/git/eapidk-code-r76-trunk/lib/linux/../EApiEmulI2C.c ****       &UDSEEPromData, 
 389:/home/hkh/git/eapidk-code-r76-trunk/lib/linux/../EApiEmulI2C.c ****       pWBuffer, 
 390:/home/hkh/git/eapidk-code-r76-trunk/lib/linux/../EApiEmulI2C.c ****       WriteBCnt, 
 391:/home/hkh/git/eapidk-code-r76-trunk/lib/linux/../EApiEmulI2C.c ****       pRBuffer, 
 392:/home/hkh/git/eapidk-code-r76-trunk/lib/linux/../EApiEmulI2C.c ****       ReadBCnt
 393:/home/hkh/git/eapidk-code-r76-trunk/lib/linux/../EApiEmulI2C.c ****       );
 394:/home/hkh/git/eapidk-code-r76-trunk/lib/linux/../EApiEmulI2C.c **** }
 1944              		.loc 1 394 1
 1945 0995 C9       		leave
 1946              		.cfi_def_cfa 7, 8
 1947 0996 C3       		ret
 1948              		.cfi_endproc
 1949              	.LFE9:
 1951              		.hidden	EPIEEPROM
 1952              		.globl	EPIEEPROM
 1953              		.data
 1954              		.align 32
 1957              	EPIEEPROM:
 1958 0400 00       		.byte	0
 1959 0401 FF       		.byte	-1
 1960 0402 FF       		.byte	-1
 1961 0403 FF       		.byte	-1
 1962 0404 FF       		.byte	-1
 1963 0405 FF       		.byte	-1
 1964 0406 FF       		.byte	-1
 1965 0407 00       		.byte	0
 1966 0408 0C       		.byte	12
 1967 0409 F4       		.byte	-12
 1968 040a 04       		.byte	4
 1969 040b 00       		.byte	0
 1970 040c 01       		.byte	1
GAS LISTING /tmp/ccHlBYPn.s 			page 48


 1971 040d 00       		.byte	0
 1972 040e 00       		.byte	0
 1973 040f 00       		.byte	0
 1974 0410 01       		.byte	1
 1975 0411 0F       		.byte	15
 1976 0412 01       		.byte	1
 1977 0413 03       		.byte	3
 1978 0414 80       		.byte	-128
 1979 0415 00       		.byte	0
 1980 0416 00       		.byte	0
 1981 0417 00       		.byte	0
 1982 0418 EE       		.byte	-18
 1983 0419 00       		.byte	0
 1984 041a 00       		.byte	0
 1985 041b 00       		.byte	0
 1986 041c 00       		.byte	0
 1987 041d 00       		.byte	0
 1988 041e 00       		.byte	0
 1989 041f 00       		.byte	0
 1990 0420 00       		.byte	0
 1991 0421 00       		.byte	0
 1992 0422 00       		.byte	0
 1993 0423 AF       		.byte	-81
 1994 0424 C0       		.byte	-64
 1995 0425 00       		.byte	0
 1996 0426 45       		.byte	69
 1997 0427 40       		.byte	64
 1998 0428 01       		.byte	1
 1999 0429 01       		.byte	1
 2000 042a 01       		.byte	1
 2001 042b 01       		.byte	1
 2002 042c 01       		.byte	1
 2003 042d 01       		.byte	1
 2004 042e 01       		.byte	1
 2005 042f 01       		.byte	1
 2006 0430 01       		.byte	1
 2007 0431 01       		.byte	1
 2008 0432 01       		.byte	1
 2009 0433 01       		.byte	1
 2010 0434 01       		.byte	1
 2011 0435 01       		.byte	1
 2012 0436 A0       		.byte	-96
 2013 0437 0F       		.byte	15
 2014 0438 20       		.byte	32
 2015 0439 E0       		.byte	-32
 2016 043a 30       		.byte	48
 2017 043b 58       		.byte	88
 2018 043c 19       		.byte	25
 2019 043d 20       		.byte	32
 2020 043e 18       		.byte	24
 2021 043f 48       		.byte	72
 2022 0440 12       		.byte	18
 2023 0441 00       		.byte	0
 2024 0442 00       		.byte	0
 2025 0443 00       		.byte	0
 2026 0444 00       		.byte	0
 2027 0445 00       		.byte	0
GAS LISTING /tmp/ccHlBYPn.s 			page 49


 2028 0446 00       		.byte	0
 2029 0447 18       		.byte	24
 2030 0448 00       		.byte	0
 2031 0449 00       		.byte	0
 2032 044a 00       		.byte	0
 2033 044b FD       		.byte	-3
 2034 044c 00       		.byte	0
 2035 044d 32       		.byte	50
 2036 044e 78       		.byte	120
 2037 044f 1E       		.byte	30
 2038 0450 32       		.byte	50
 2039 0451 05       		.byte	5
 2040 0452 00       		.byte	0
 2041 0453 0A       		.byte	10
 2042 0454 20       		.byte	32
 2043 0455 20       		.byte	32
 2044 0456 20       		.byte	32
 2045 0457 20       		.byte	32
 2046 0458 20       		.byte	32
 2047 0459 20       		.byte	32
 2048 045a 00       		.byte	0
 2049 045b 00       		.byte	0
 2050 045c 00       		.byte	0
 2051 045d FE       		.byte	-2
 2052 045e 00       		.byte	0
 2053 045f 63       		.byte	99
 2054 0460 6F       		.byte	111
 2055 0461 6E       		.byte	110
 2056 0462 67       		.byte	103
 2057 0463 61       		.byte	97
 2058 0464 74       		.byte	116
 2059 0465 65       		.byte	101
 2060 0466 63       		.byte	99
 2061 0467 20       		.byte	32
 2062 0468 41       		.byte	65
 2063 0469 47       		.byte	71
 2064 046a 0A       		.byte	10
 2065 046b 0A       		.byte	10
 2066 046c 00       		.byte	0
 2067 046d 00       		.byte	0
 2068 046e 00       		.byte	0
 2069 046f 0E       		.byte	14
 2070 0470 00       		.byte	0
 2071 0471 00       		.byte	0
 2072 0472 00       		.byte	0
 2073 0473 00       		.byte	0
 2074 0474 00       		.byte	0
 2075 0475 00       		.byte	0
 2076 0476 00       		.byte	0
 2077 0477 00       		.byte	0
 2078 0478 00       		.byte	0
 2079 0479 00       		.byte	0
 2080 047a 00       		.byte	0
 2081 047b 00       		.byte	0
 2082 047c 00       		.byte	0
 2083 047d 00       		.byte	0
 2084 047e 00       		.byte	0
GAS LISTING /tmp/ccHlBYPn.s 			page 50


 2085 047f B1       		.byte	-79
 2086 0480 00       		.byte	0
 2087 0481 00       		.byte	0
 2088 0482 00       		.byte	0
 2089 0483 00       		.byte	0
 2090 0484 00       		.byte	0
 2091 0485 00       		.byte	0
 2092 0486 00       		.byte	0
 2093 0487 00       		.byte	0
 2094 0488 00       		.byte	0
 2095 0489 00       		.byte	0
 2096 048a 00       		.byte	0
 2097 048b 00       		.byte	0
 2098 048c 00       		.byte	0
 2099 048d 00       		.byte	0
 2100 048e 00       		.byte	0
 2101 048f 00       		.byte	0
 2102 0490 00       		.byte	0
 2103 0491 00       		.byte	0
 2104 0492 00       		.byte	0
 2105 0493 00       		.byte	0
 2106 0494 00       		.byte	0
 2107 0495 00       		.byte	0
 2108 0496 00       		.byte	0
 2109 0497 00       		.byte	0
 2110 0498 00       		.byte	0
 2111 0499 00       		.byte	0
 2112 049a 00       		.byte	0
 2113 049b 00       		.byte	0
 2114 049c 00       		.byte	0
 2115 049d 00       		.byte	0
 2116 049e 00       		.byte	0
 2117 049f 00       		.byte	0
 2118 04a0 00       		.byte	0
 2119 04a1 00       		.byte	0
 2120 04a2 00       		.byte	0
 2121 04a3 00       		.byte	0
 2122 04a4 00       		.byte	0
 2123 04a5 00       		.byte	0
 2124 04a6 00       		.byte	0
 2125 04a7 00       		.byte	0
 2126 04a8 00       		.byte	0
 2127 04a9 00       		.byte	0
 2128 04aa 00       		.byte	0
 2129 04ab 00       		.byte	0
 2130 04ac 00       		.byte	0
 2131 04ad 00       		.byte	0
 2132 04ae 00       		.byte	0
 2133 04af 00       		.byte	0
 2134 04b0 00       		.byte	0
 2135 04b1 00       		.byte	0
 2136 04b2 00       		.byte	0
 2137 04b3 00       		.byte	0
 2138 04b4 00       		.byte	0
 2139 04b5 00       		.byte	0
 2140 04b6 00       		.byte	0
 2141 04b7 00       		.byte	0
GAS LISTING /tmp/ccHlBYPn.s 			page 51


 2142 04b8 00       		.byte	0
 2143 04b9 00       		.byte	0
 2144 04ba 00       		.byte	0
 2145 04bb 00       		.byte	0
 2146 04bc 00       		.byte	0
 2147 04bd 00       		.byte	0
 2148 04be 00       		.byte	0
 2149 04bf 00       		.byte	0
 2150 04c0 00       		.byte	0
 2151 04c1 00       		.byte	0
 2152 04c2 00       		.byte	0
 2153 04c3 00       		.byte	0
 2154 04c4 00       		.byte	0
 2155 04c5 00       		.byte	0
 2156 04c6 00       		.byte	0
 2157 04c7 00       		.byte	0
 2158 04c8 00       		.byte	0
 2159 04c9 00       		.byte	0
 2160 04ca 00       		.byte	0
 2161 04cb 00       		.byte	0
 2162 04cc 00       		.byte	0
 2163 04cd 00       		.byte	0
 2164 04ce 00       		.byte	0
 2165 04cf 00       		.byte	0
 2166 04d0 00       		.byte	0
 2167 04d1 00       		.byte	0
 2168 04d2 00       		.byte	0
 2169 04d3 00       		.byte	0
 2170 04d4 00       		.byte	0
 2171 04d5 00       		.byte	0
 2172 04d6 00       		.byte	0
 2173 04d7 00       		.byte	0
 2174 04d8 00       		.byte	0
 2175 04d9 00       		.byte	0
 2176 04da 00       		.byte	0
 2177 04db 00       		.byte	0
 2178 04dc 00       		.byte	0
 2179 04dd 00       		.byte	0
 2180 04de 00       		.byte	0
 2181 04df 00       		.byte	0
 2182 04e0 00       		.byte	0
 2183 04e1 00       		.byte	0
 2184 04e2 00       		.byte	0
 2185 04e3 00       		.byte	0
 2186 04e4 00       		.byte	0
 2187 04e5 00       		.byte	0
 2188 04e6 00       		.byte	0
 2189 04e7 00       		.byte	0
 2190 04e8 00       		.byte	0
 2191 04e9 00       		.byte	0
 2192 04ea 00       		.byte	0
 2193 04eb 00       		.byte	0
 2194 04ec 00       		.byte	0
 2195 04ed 00       		.byte	0
 2196 04ee 00       		.byte	0
 2197 04ef 00       		.byte	0
 2198 04f0 00       		.byte	0
GAS LISTING /tmp/ccHlBYPn.s 			page 52


 2199 04f1 00       		.byte	0
 2200 04f2 00       		.byte	0
 2201 04f3 00       		.byte	0
 2202 04f4 00       		.byte	0
 2203 04f5 00       		.byte	0
 2204 04f6 00       		.byte	0
 2205 04f7 00       		.byte	0
 2206 04f8 00       		.byte	0
 2207 04f9 00       		.byte	0
 2208 04fa 00       		.byte	0
 2209 04fb 00       		.byte	0
 2210 04fc 00       		.byte	0
 2211 04fd 00       		.byte	0
 2212 04fe 00       		.byte	0
 2213 04ff 00       		.byte	0
 2214 0500 00       		.byte	0
 2215 0501 00       		.byte	0
 2216 0502 00       		.byte	0
 2217 0503 00       		.byte	0
 2218 0504 00       		.byte	0
 2219 0505 00       		.byte	0
 2220 0506 00       		.byte	0
 2221 0507 00       		.byte	0
 2222 0508 00       		.byte	0
 2223 0509 00       		.byte	0
 2224 050a 00       		.byte	0
 2225 050b 00       		.byte	0
 2226 050c 00       		.byte	0
 2227 050d 00       		.byte	0
 2228 050e 00       		.byte	0
 2229 050f 00       		.byte	0
 2230 0510 00       		.byte	0
 2231 0511 00       		.byte	0
 2232 0512 00       		.byte	0
 2233 0513 00       		.byte	0
 2234 0514 00       		.byte	0
 2235 0515 00       		.byte	0
 2236 0516 00       		.byte	0
 2237 0517 00       		.byte	0
 2238 0518 00       		.byte	0
 2239 0519 00       		.byte	0
 2240 051a 00       		.byte	0
 2241 051b 00       		.byte	0
 2242 051c 00       		.byte	0
 2243 051d 00       		.byte	0
 2244 051e 00       		.byte	0
 2245 051f 00       		.byte	0
 2246 0520 00       		.byte	0
 2247 0521 00       		.byte	0
 2248 0522 00       		.byte	0
 2249 0523 00       		.byte	0
 2250 0524 00       		.byte	0
 2251 0525 00       		.byte	0
 2252 0526 00       		.byte	0
 2253 0527 00       		.byte	0
 2254 0528 00       		.byte	0
 2255 0529 00       		.byte	0
GAS LISTING /tmp/ccHlBYPn.s 			page 53


 2256 052a 00       		.byte	0
 2257 052b 00       		.byte	0
 2258 052c 00       		.byte	0
 2259 052d 00       		.byte	0
 2260 052e 00       		.byte	0
 2261 052f 00       		.byte	0
 2262 0530 00       		.byte	0
 2263 0531 00       		.byte	0
 2264 0532 00       		.byte	0
 2265 0533 00       		.byte	0
 2266 0534 00       		.byte	0
 2267 0535 00       		.byte	0
 2268 0536 00       		.byte	0
 2269 0537 00       		.byte	0
 2270 0538 00       		.byte	0
 2271 0539 00       		.byte	0
 2272 053a 00       		.byte	0
 2273 053b 00       		.byte	0
 2274 053c 00       		.byte	0
 2275 053d 00       		.byte	0
 2276 053e 00       		.byte	0
 2277 053f 00       		.byte	0
 2278 0540 00       		.byte	0
 2279 0541 00       		.byte	0
 2280 0542 00       		.byte	0
 2281 0543 00       		.byte	0
 2282 0544 00       		.byte	0
 2283 0545 00       		.byte	0
 2284 0546 00       		.byte	0
 2285 0547 00       		.byte	0
 2286 0548 00       		.byte	0
 2287 0549 00       		.byte	0
 2288 054a 00       		.byte	0
 2289 054b 00       		.byte	0
 2290 054c 00       		.byte	0
 2291 054d 00       		.byte	0
 2292 054e 00       		.byte	0
 2293 054f 00       		.byte	0
 2294 0550 00       		.byte	0
 2295 0551 00       		.byte	0
 2296 0552 00       		.byte	0
 2297 0553 00       		.byte	0
 2298 0554 00       		.byte	0
 2299 0555 00       		.byte	0
 2300 0556 00       		.byte	0
 2301 0557 00       		.byte	0
 2302 0558 00       		.byte	0
 2303 0559 00       		.byte	0
 2304 055a 00       		.byte	0
 2305 055b 00       		.byte	0
 2306 055c 00       		.byte	0
 2307 055d 00       		.byte	0
 2308 055e 00       		.byte	0
 2309 055f 00       		.byte	0
 2310 0560 00       		.byte	0
 2311 0561 00       		.byte	0
 2312 0562 00       		.byte	0
GAS LISTING /tmp/ccHlBYPn.s 			page 54


 2313 0563 00       		.byte	0
 2314 0564 00       		.byte	0
 2315 0565 00       		.byte	0
 2316 0566 00       		.byte	0
 2317 0567 00       		.byte	0
 2318 0568 00       		.byte	0
 2319 0569 00       		.byte	0
 2320 056a 00       		.byte	0
 2321 056b 00       		.byte	0
 2322 056c 00       		.byte	0
 2323 056d 00       		.byte	0
 2324 056e 00       		.byte	0
 2325 056f 00       		.byte	0
 2326 0570 00       		.byte	0
 2327 0571 00       		.byte	0
 2328 0572 00       		.byte	0
 2329 0573 00       		.byte	0
 2330 0574 00       		.byte	0
 2331 0575 00       		.byte	0
 2332 0576 00       		.byte	0
 2333 0577 00       		.byte	0
 2334 0578 00       		.byte	0
 2335 0579 00       		.byte	0
 2336 057a 00       		.byte	0
 2337 057b 00       		.byte	0
 2338 057c 00       		.byte	0
 2339 057d 00       		.byte	0
 2340 057e 00       		.byte	0
 2341 057f 00       		.byte	0
 2342 0580 00       		.byte	0
 2343 0581 00       		.byte	0
 2344 0582 00       		.byte	0
 2345 0583 00       		.byte	0
 2346 0584 00       		.byte	0
 2347 0585 00       		.byte	0
 2348 0586 00       		.byte	0
 2349 0587 00       		.byte	0
 2350 0588 00       		.byte	0
 2351 0589 00       		.byte	0
 2352 058a 00       		.byte	0
 2353 058b 00       		.byte	0
 2354 058c 00       		.byte	0
 2355 058d 00       		.byte	0
 2356 058e 00       		.byte	0
 2357 058f 00       		.byte	0
 2358 0590 00       		.byte	0
 2359 0591 00       		.byte	0
 2360 0592 00       		.byte	0
 2361 0593 00       		.byte	0
 2362 0594 00       		.byte	0
 2363 0595 00       		.byte	0
 2364 0596 00       		.byte	0
 2365 0597 00       		.byte	0
 2366 0598 00       		.byte	0
 2367 0599 00       		.byte	0
 2368 059a 00       		.byte	0
 2369 059b 00       		.byte	0
GAS LISTING /tmp/ccHlBYPn.s 			page 55


 2370 059c 00       		.byte	0
 2371 059d 00       		.byte	0
 2372 059e 00       		.byte	0
 2373 059f 00       		.byte	0
 2374 05a0 00       		.byte	0
 2375 05a1 00       		.byte	0
 2376 05a2 00       		.byte	0
 2377 05a3 00       		.byte	0
 2378 05a4 00       		.byte	0
 2379 05a5 00       		.byte	0
 2380 05a6 00       		.byte	0
 2381 05a7 00       		.byte	0
 2382 05a8 00       		.byte	0
 2383 05a9 00       		.byte	0
 2384 05aa 00       		.byte	0
 2385 05ab 00       		.byte	0
 2386 05ac 00       		.byte	0
 2387 05ad 00       		.byte	0
 2388 05ae 00       		.byte	0
 2389 05af 00       		.byte	0
 2390 05b0 00       		.byte	0
 2391 05b1 00       		.byte	0
 2392 05b2 00       		.byte	0
 2393 05b3 00       		.byte	0
 2394 05b4 00       		.byte	0
 2395 05b5 00       		.byte	0
 2396 05b6 00       		.byte	0
 2397 05b7 00       		.byte	0
 2398 05b8 00       		.byte	0
 2399 05b9 00       		.byte	0
 2400 05ba 00       		.byte	0
 2401 05bb 00       		.byte	0
 2402 05bc 00       		.byte	0
 2403 05bd 00       		.byte	0
 2404 05be 00       		.byte	0
 2405 05bf 00       		.byte	0
 2406 05c0 00       		.byte	0
 2407 05c1 00       		.byte	0
 2408 05c2 00       		.byte	0
 2409 05c3 00       		.byte	0
 2410 05c4 00       		.byte	0
 2411 05c5 00       		.byte	0
 2412 05c6 00       		.byte	0
 2413 05c7 00       		.byte	0
 2414 05c8 00       		.byte	0
 2415 05c9 00       		.byte	0
 2416 05ca 00       		.byte	0
 2417 05cb 00       		.byte	0
 2418 05cc 00       		.byte	0
 2419 05cd 00       		.byte	0
 2420 05ce 00       		.byte	0
 2421 05cf 00       		.byte	0
 2422 05d0 00       		.byte	0
 2423 05d1 00       		.byte	0
 2424 05d2 00       		.byte	0
 2425 05d3 00       		.byte	0
 2426 05d4 00       		.byte	0
GAS LISTING /tmp/ccHlBYPn.s 			page 56


 2427 05d5 00       		.byte	0
 2428 05d6 00       		.byte	0
 2429 05d7 00       		.byte	0
 2430 05d8 00       		.byte	0
 2431 05d9 00       		.byte	0
 2432 05da 00       		.byte	0
 2433 05db 00       		.byte	0
 2434 05dc 00       		.byte	0
 2435 05dd 00       		.byte	0
 2436 05de 00       		.byte	0
 2437 05df 00       		.byte	0
 2438 05e0 00       		.byte	0
 2439 05e1 00       		.byte	0
 2440 05e2 00       		.byte	0
 2441 05e3 00       		.byte	0
 2442 05e4 00       		.byte	0
 2443 05e5 00       		.byte	0
 2444 05e6 00       		.byte	0
 2445 05e7 00       		.byte	0
 2446 05e8 00       		.byte	0
 2447 05e9 00       		.byte	0
 2448 05ea 00       		.byte	0
 2449 05eb 00       		.byte	0
 2450 05ec 00       		.byte	0
 2451 05ed 00       		.byte	0
 2452 05ee 00       		.byte	0
 2453 05ef 00       		.byte	0
 2454 05f0 00       		.byte	0
 2455 05f1 00       		.byte	0
 2456 05f2 00       		.byte	0
 2457 05f3 00       		.byte	0
 2458 05f4 00       		.byte	0
 2459 05f5 00       		.byte	0
 2460 05f6 00       		.byte	0
 2461 05f7 00       		.byte	0
 2462 05f8 00       		.byte	0
 2463 05f9 00       		.byte	0
 2464 05fa 00       		.byte	0
 2465 05fb 00       		.byte	0
 2466 05fc 00       		.byte	0
 2467 05fd 00       		.byte	0
 2468 05fe 00       		.byte	0
 2469 05ff 00       		.byte	0
 2470              		.section	.rodata
 2471              	.LC19:
 2472 01fd 4550492E 		.string	"EPI.EEPROM.EMUL"
 2472      45455052 
 2472      4F4D2E45 
 2472      4D554C00 
 2473              		.section	.data.rel.local
 2474 0098 00000000 		.align 32
 2474      00000000 
 2477              	EPIEEPromData:
 2478 00a0 00020000 		.quad	512
 2478      00000000 
 2479 00a8 02000000 		.quad	2
 2479      00000000 
GAS LISTING /tmp/ccHlBYPn.s 			page 57


 2480 00b0 10000000 		.quad	16
 2480      00000000 
 2481 00b8 00000000 		.quad	0
 2481      00000000 
 2482 00c0 00000000 		.quad	EPIEEPROM
 2482      00000000 
 2483 00c8 00000000 		.quad	.LC19
 2483      00000000 
 2484 00d0 00000000 		.quad	0
 2484      00000000 
 2485              		.text
 2486              		.globl	EmulateEPIEeprom
 2487              		.hidden	EmulateEPIEeprom
 2489              	EmulateEPIEeprom:
 2490              	.LFB10:
 395:/home/hkh/git/eapidk-code-r76-trunk/lib/linux/../EApiEmulI2C.c **** #define bin_data EPIEEPROM
 396:/home/hkh/git/eapidk-code-r76-trunk/lib/linux/../EApiEmulI2C.c **** #include "EPIData.h"
 397:/home/hkh/git/eapidk-code-r76-trunk/lib/linux/../EApiEmulI2C.c **** #undef bin_data
 398:/home/hkh/git/eapidk-code-r76-trunk/lib/linux/../EApiEmulI2C.c **** static EepromCfgData_t EPIEEPromData={
 399:/home/hkh/git/eapidk-code-r76-trunk/lib/linux/../EApiEmulI2C.c ****   sizeof(EPIEEPROM),  /* EEPROM Length */
 400:/home/hkh/git/eapidk-code-r76-trunk/lib/linux/../EApiEmulI2C.c ****   EXT_INDEX        ,  /* Ext/Std Index */
 401:/home/hkh/git/eapidk-code-r76-trunk/lib/linux/../EApiEmulI2C.c ****   16               ,  /* Device Page Length */
 402:/home/hkh/git/eapidk-code-r76-trunk/lib/linux/../EApiEmulI2C.c ****   0                ,  /* Current Index Value */
 403:/home/hkh/git/eapidk-code-r76-trunk/lib/linux/../EApiEmulI2C.c ****   EPIEEPROM        ,  /* EEPROM pBuffer Pointer */ 
 404:/home/hkh/git/eapidk-code-r76-trunk/lib/linux/../EApiEmulI2C.c ****   "EPI.EEPROM.EMUL",
 405:/home/hkh/git/eapidk-code-r76-trunk/lib/linux/../EApiEmulI2C.c ****   NULL
 406:/home/hkh/git/eapidk-code-r76-trunk/lib/linux/../EApiEmulI2C.c **** };
 407:/home/hkh/git/eapidk-code-r76-trunk/lib/linux/../EApiEmulI2C.c **** 
 408:/home/hkh/git/eapidk-code-r76-trunk/lib/linux/../EApiEmulI2C.c **** EApiStatus_t 
 409:/home/hkh/git/eapidk-code-r76-trunk/lib/linux/../EApiEmulI2C.c **** EmulateEPIEeprom(
 410:/home/hkh/git/eapidk-code-r76-trunk/lib/linux/../EApiEmulI2C.c ****     __IN uint32_t Arg1      , 
 411:/home/hkh/git/eapidk-code-r76-trunk/lib/linux/../EApiEmulI2C.c ****     __IN void    *pWBuffer  , 
 412:/home/hkh/git/eapidk-code-r76-trunk/lib/linux/../EApiEmulI2C.c ****     __IN uint32_t WriteBCnt , 
 413:/home/hkh/git/eapidk-code-r76-trunk/lib/linux/../EApiEmulI2C.c ****     __OUT void   *pRBuffer  , 
 414:/home/hkh/git/eapidk-code-r76-trunk/lib/linux/../EApiEmulI2C.c ****     __IN uint32_t ReadBCnt
 415:/home/hkh/git/eapidk-code-r76-trunk/lib/linux/../EApiEmulI2C.c ****     )
 416:/home/hkh/git/eapidk-code-r76-trunk/lib/linux/../EApiEmulI2C.c **** {
 2491              		.loc 1 416 1
 2492              		.cfi_startproc
 2493 0997 F30F1EFA 		endbr64
 2494 099b 55       		pushq	%rbp
 2495              		.cfi_def_cfa_offset 16
 2496              		.cfi_offset 6, -16
 2497 099c 4889E5   		movq	%rsp, %rbp
 2498              		.cfi_def_cfa_register 6
 2499 099f 4883EC20 		subq	$32, %rsp
 2500 09a3 897DFC   		movl	%edi, -4(%rbp)
 2501 09a6 488975F0 		movq	%rsi, -16(%rbp)
 2502 09aa 8955F8   		movl	%edx, -8(%rbp)
 2503 09ad 48894DE8 		movq	%rcx, -24(%rbp)
 2504 09b1 448945E4 		movl	%r8d, -28(%rbp)
 417:/home/hkh/git/eapidk-code-r76-trunk/lib/linux/../EApiEmulI2C.c ****   return EmulateEepromFS(
 2505              		.loc 1 417 10
 2506 09b5 8B7DE4   		movl	-28(%rbp), %edi
 2507 09b8 8B4DF8   		movl	-8(%rbp), %ecx
 2508 09bb 8B45FC   		movl	-4(%rbp), %eax
 2509 09be 488B75E8 		movq	-24(%rbp), %rsi
GAS LISTING /tmp/ccHlBYPn.s 			page 58


 2510 09c2 488B55F0 		movq	-16(%rbp), %rdx
 2511 09c6 4989F9   		movq	%rdi, %r9
 2512 09c9 4989F0   		movq	%rsi, %r8
 2513 09cc 488D3500 		leaq	EPIEEPromData(%rip), %rsi
 2513      000000
 2514 09d3 4889C7   		movq	%rax, %rdi
 2515 09d6 E8000000 		call	EmulateEepromFS
 2515      00
 418:/home/hkh/git/eapidk-code-r76-trunk/lib/linux/../EApiEmulI2C.c ****       Arg1, 
 419:/home/hkh/git/eapidk-code-r76-trunk/lib/linux/../EApiEmulI2C.c ****       &EPIEEPromData, 
 420:/home/hkh/git/eapidk-code-r76-trunk/lib/linux/../EApiEmulI2C.c ****       pWBuffer, 
 421:/home/hkh/git/eapidk-code-r76-trunk/lib/linux/../EApiEmulI2C.c ****       WriteBCnt, 
 422:/home/hkh/git/eapidk-code-r76-trunk/lib/linux/../EApiEmulI2C.c ****       pRBuffer, 
 423:/home/hkh/git/eapidk-code-r76-trunk/lib/linux/../EApiEmulI2C.c ****       ReadBCnt
 424:/home/hkh/git/eapidk-code-r76-trunk/lib/linux/../EApiEmulI2C.c ****       );
 425:/home/hkh/git/eapidk-code-r76-trunk/lib/linux/../EApiEmulI2C.c **** }
 2516              		.loc 1 425 1
 2517 09db C9       		leave
 2518              		.cfi_def_cfa 7, 8
 2519 09dc C3       		ret
 2520              		.cfi_endproc
 2521              	.LFE10:
 2523              		.hidden	COM0MEEPROM
 2524              		.globl	COM0MEEPROM
 2525              		.bss
 2526              		.align 32
 2529              	COM0MEEPROM:
 2530 0000 00000000 		.zero	2048
 2530      00000000 
 2530      00000000 
 2530      00000000 
 2530      00000000 
 2531              		.section	.rodata
 2532              	.LC20:
 2533 020d 434F4D30 		.string	"COM0R20-M.EEPROM.EMUL"
 2533      5232302D 
 2533      4D2E4545 
 2533      50524F4D 
 2533      2E454D55 
 2534              		.section	.data.rel.local
 2535 00d8 00000000 		.align 32
 2535      00000000 
 2538              	COM0MEEPromData:
 2539 00e0 00080000 		.quad	2048
 2539      00000000 
 2540 00e8 02000000 		.quad	2
 2540      00000000 
 2541 00f0 10000000 		.quad	16
 2541      00000000 
 2542 00f8 00000000 		.quad	0
 2542      00000000 
 2543 0100 00000000 		.quad	COM0MEEPROM
 2543      00000000 
 2544 0108 00000000 		.quad	.LC20
 2544      00000000 
 2545 0110 00000000 		.quad	0
 2545      00000000 
GAS LISTING /tmp/ccHlBYPn.s 			page 59


 2546              		.hidden	COM0CBEEPROM
 2547              		.globl	COM0CBEEPROM
 2548              		.bss
 2549              		.align 32
 2552              	COM0CBEEPROM:
 2553 0800 00000000 		.zero	4096
 2553      00000000 
 2553      00000000 
 2553      00000000 
 2553      00000000 
 2554              		.section	.rodata
 2555              	.LC21:
 2556 0223 434F4D30 		.string	"COM0R20-CB.EEPROM.EMUL"
 2556      5232302D 
 2556      43422E45 
 2556      4550524F 
 2556      4D2E454D 
 2557              		.section	.data.rel.local
 2558 0118 00000000 		.align 32
 2558      00000000 
 2561              	COM0CBEEPromData:
 2562 0120 00100000 		.quad	4096
 2562      00000000 
 2563 0128 02000000 		.quad	2
 2563      00000000 
 2564 0130 40000000 		.quad	64
 2564      00000000 
 2565 0138 00000000 		.quad	0
 2565      00000000 
 2566 0140 00000000 		.quad	COM0CBEEPROM
 2566      00000000 
 2567 0148 00000000 		.quad	.LC21
 2567      00000000 
 2568 0150 00000000 		.quad	0
 2568      00000000 
 2569              		.hidden	EeePExpEEPROM
 2570              		.globl	EeePExpEEPROM
 2571              		.bss
 2572              		.align 32
 2575              	EeePExpEEPROM:
 2576 1800 00000000 		.zero	1024
 2576      00000000 
 2576      00000000 
 2576      00000000 
 2576      00000000 
 2577              		.section	.rodata
 2578              	.LC22:
 2579 023a 45656550 		.string	"EeePExp.EEPROM.EMUL"
 2579      4578702E 
 2579      45455052 
 2579      4F4D2E45 
 2579      4D554C00 
 2580              		.section	.data.rel.local
 2581 0158 00000000 		.align 32
 2581      00000000 
 2584              	EeePExpEEPromData:
 2585 0160 00040000 		.quad	1024
GAS LISTING /tmp/ccHlBYPn.s 			page 60


 2585      00000000 
 2586 0168 01000000 		.quad	1
 2586      00000000 
 2587 0170 08000000 		.quad	8
 2587      00000000 
 2588 0178 00000000 		.quad	0
 2588      00000000 
 2589 0180 00000000 		.quad	EeePExpEEPROM
 2589      00000000 
 2590 0188 00000000 		.quad	.LC22
 2590      00000000 
 2591 0190 00000000 		.quad	0
 2591      00000000 
 2592              		.hidden	OpenFiles
 2593              		.globl	OpenFiles
 2594 0198 00000000 		.align 32
 2594      00000000 
 2597              	OpenFiles:
 2598 01a0 00000000 		.quad	EeePExpEEPromData
 2598      00000000 
 2599 01a8 00000000 		.quad	COM0CBEEPromData
 2599      00000000 
 2600 01b0 00000000 		.quad	COM0MEEPromData
 2600      00000000 
 2601 01b8 00000000 		.quad	EPIEEPromData
 2601      00000000 
 2602 01c0 00000000 		.quad	UDSEEPromData
 2602      00000000 
 2603 01c8 00000000 		.quad	DIDEEPromData
 2603      00000000 
 2604              		.section	.rodata
 2605              	.LC23:
 2606 024e 72622B00 		.string	"rb+"
 2607              	.LC24:
 2608 0252 77622B00 		.string	"wb+"
 2609              		.text
 2610              		.globl	OpenI2CEepromFiles
 2611              		.hidden	OpenI2CEepromFiles
 2613              	OpenI2CEepromFiles:
 2614              	.LFB11:
 426:/home/hkh/git/eapidk-code-r76-trunk/lib/linux/../EApiEmulI2C.c **** /* #define bin_data PICMGEEPROM
 427:/home/hkh/git/eapidk-code-r76-trunk/lib/linux/../EApiEmulI2C.c ****  * #include "EPIData.h"
 428:/home/hkh/git/eapidk-code-r76-trunk/lib/linux/../EApiEmulI2C.c ****  * #undef bin_data
 429:/home/hkh/git/eapidk-code-r76-trunk/lib/linux/../EApiEmulI2C.c ****  */
 430:/home/hkh/git/eapidk-code-r76-trunk/lib/linux/../EApiEmulI2C.c **** uint8_t COM0MEEPROM[2048]={0};
 431:/home/hkh/git/eapidk-code-r76-trunk/lib/linux/../EApiEmulI2C.c **** static EepromCfgData_t COM0MEEPromData={
 432:/home/hkh/git/eapidk-code-r76-trunk/lib/linux/../EApiEmulI2C.c ****   sizeof(COM0MEEPROM),  /* EEPROM Length */
 433:/home/hkh/git/eapidk-code-r76-trunk/lib/linux/../EApiEmulI2C.c ****   EXT_INDEX          ,  /* Ext/Std Index */
 434:/home/hkh/git/eapidk-code-r76-trunk/lib/linux/../EApiEmulI2C.c ****   16                 ,  /* Max Block Write Length */
 435:/home/hkh/git/eapidk-code-r76-trunk/lib/linux/../EApiEmulI2C.c ****   0                  ,  /* Current Index Value */
 436:/home/hkh/git/eapidk-code-r76-trunk/lib/linux/../EApiEmulI2C.c ****   COM0MEEPROM        ,  /* EEPROM pBuffer Pointer */ 
 437:/home/hkh/git/eapidk-code-r76-trunk/lib/linux/../EApiEmulI2C.c ****   "COM0R20-M.EEPROM.EMUL" ,
 438:/home/hkh/git/eapidk-code-r76-trunk/lib/linux/../EApiEmulI2C.c ****   NULL
 439:/home/hkh/git/eapidk-code-r76-trunk/lib/linux/../EApiEmulI2C.c **** };
 440:/home/hkh/git/eapidk-code-r76-trunk/lib/linux/../EApiEmulI2C.c **** uint8_t COM0CBEEPROM[4096]={0};
 441:/home/hkh/git/eapidk-code-r76-trunk/lib/linux/../EApiEmulI2C.c **** static EepromCfgData_t COM0CBEEPromData={
 442:/home/hkh/git/eapidk-code-r76-trunk/lib/linux/../EApiEmulI2C.c ****   sizeof(COM0CBEEPROM), /* EEPROM Length */
GAS LISTING /tmp/ccHlBYPn.s 			page 61


 443:/home/hkh/git/eapidk-code-r76-trunk/lib/linux/../EApiEmulI2C.c ****   EXT_INDEX          ,  /* Ext/Std Index */
 444:/home/hkh/git/eapidk-code-r76-trunk/lib/linux/../EApiEmulI2C.c ****   64                 ,  /* Max Block Write Length */
 445:/home/hkh/git/eapidk-code-r76-trunk/lib/linux/../EApiEmulI2C.c ****   0                  ,  /* Current Index Value */
 446:/home/hkh/git/eapidk-code-r76-trunk/lib/linux/../EApiEmulI2C.c ****   COM0CBEEPROM       ,  /* EEPROM pBuffer Pointer */ 
 447:/home/hkh/git/eapidk-code-r76-trunk/lib/linux/../EApiEmulI2C.c ****   "COM0R20-CB.EEPROM.EMUL",
 448:/home/hkh/git/eapidk-code-r76-trunk/lib/linux/../EApiEmulI2C.c ****   NULL
 449:/home/hkh/git/eapidk-code-r76-trunk/lib/linux/../EApiEmulI2C.c **** };
 450:/home/hkh/git/eapidk-code-r76-trunk/lib/linux/../EApiEmulI2C.c **** uint8_t EeePExpEEPROM[1024]={0};
 451:/home/hkh/git/eapidk-code-r76-trunk/lib/linux/../EApiEmulI2C.c **** static EepromCfgData_t EeePExpEEPromData={
 452:/home/hkh/git/eapidk-code-r76-trunk/lib/linux/../EApiEmulI2C.c ****   sizeof(EeePExpEEPROM), /* EEPROM Length */
 453:/home/hkh/git/eapidk-code-r76-trunk/lib/linux/../EApiEmulI2C.c ****   STD_INDEX          ,  /* Ext/Std Index */
 454:/home/hkh/git/eapidk-code-r76-trunk/lib/linux/../EApiEmulI2C.c ****   8                  ,  /* Max Block Write Length */
 455:/home/hkh/git/eapidk-code-r76-trunk/lib/linux/../EApiEmulI2C.c ****   0                  ,  /* Current Index Value */
 456:/home/hkh/git/eapidk-code-r76-trunk/lib/linux/../EApiEmulI2C.c ****   EeePExpEEPROM      ,  /* EEPROM pBuffer Pointer */ 
 457:/home/hkh/git/eapidk-code-r76-trunk/lib/linux/../EApiEmulI2C.c ****   "EeePExp.EEPROM.EMUL",
 458:/home/hkh/git/eapidk-code-r76-trunk/lib/linux/../EApiEmulI2C.c ****   NULL
 459:/home/hkh/git/eapidk-code-r76-trunk/lib/linux/../EApiEmulI2C.c **** };
 460:/home/hkh/git/eapidk-code-r76-trunk/lib/linux/../EApiEmulI2C.c **** EepromCfgData_t *OpenFiles[]={
 461:/home/hkh/git/eapidk-code-r76-trunk/lib/linux/../EApiEmulI2C.c ****   &EeePExpEEPromData,
 462:/home/hkh/git/eapidk-code-r76-trunk/lib/linux/../EApiEmulI2C.c ****   &COM0CBEEPromData,
 463:/home/hkh/git/eapidk-code-r76-trunk/lib/linux/../EApiEmulI2C.c ****   &COM0MEEPromData,
 464:/home/hkh/git/eapidk-code-r76-trunk/lib/linux/../EApiEmulI2C.c ****   &EPIEEPromData,
 465:/home/hkh/git/eapidk-code-r76-trunk/lib/linux/../EApiEmulI2C.c ****   &UDSEEPromData,
 466:/home/hkh/git/eapidk-code-r76-trunk/lib/linux/../EApiEmulI2C.c ****   &DIDEEPromData,
 467:/home/hkh/git/eapidk-code-r76-trunk/lib/linux/../EApiEmulI2C.c **** };
 468:/home/hkh/git/eapidk-code-r76-trunk/lib/linux/../EApiEmulI2C.c **** 
 469:/home/hkh/git/eapidk-code-r76-trunk/lib/linux/../EApiEmulI2C.c **** 
 470:/home/hkh/git/eapidk-code-r76-trunk/lib/linux/../EApiEmulI2C.c **** EApiStatus_t 
 471:/home/hkh/git/eapidk-code-r76-trunk/lib/linux/../EApiEmulI2C.c **** OpenI2CEepromFiles(void)
 472:/home/hkh/git/eapidk-code-r76-trunk/lib/linux/../EApiEmulI2C.c **** {
 2615              		.loc 1 472 1
 2616              		.cfi_startproc
 2617 09dd F30F1EFA 		endbr64
 2618 09e1 55       		pushq	%rbp
 2619              		.cfi_def_cfa_offset 16
 2620              		.cfi_offset 6, -16
 2621 09e2 4889E5   		movq	%rsp, %rbp
 2622              		.cfi_def_cfa_register 6
 2623 09e5 53       		pushq	%rbx
 2624 09e6 4883EC18 		subq	$24, %rsp
 2625              		.cfi_offset 3, -24
 473:/home/hkh/git/eapidk-code-r76-trunk/lib/linux/../EApiEmulI2C.c ****   int i;
 474:/home/hkh/git/eapidk-code-r76-trunk/lib/linux/../EApiEmulI2C.c ****   EepromCfgData_t **pOpenFiles=OpenFiles;
 2626              		.loc 1 474 21
 2627 09ea 488D0500 		leaq	OpenFiles(%rip), %rax
 2627      000000
 2628 09f1 488945E8 		movq	%rax, -24(%rbp)
 475:/home/hkh/git/eapidk-code-r76-trunk/lib/linux/../EApiEmulI2C.c ****   for(i=ARRAY_SIZE(OpenFiles); i; i--, pOpenFiles++){
 2629              		.loc 1 475 8
 2630 09f5 C745E406 		movl	$6, -28(%rbp)
 2630      000000
 2631              		.loc 1 475 3
 2632 09fc E9F90000 		jmp	.L40
 2632      00
 2633              	.L43:
 476:/home/hkh/git/eapidk-code-r76-trunk/lib/linux/../EApiEmulI2C.c ****     (*pOpenFiles)->FStream=fopen((*pOpenFiles)->cszFilename, "rb+");
 2634              		.loc 1 476 35
GAS LISTING /tmp/ccHlBYPn.s 			page 62


 2635 0a01 488B45E8 		movq	-24(%rbp), %rax
 2636 0a05 488B00   		movq	(%rax), %rax
 2637              		.loc 1 476 28
 2638 0a08 488B4028 		movq	40(%rax), %rax
 2639              		.loc 1 476 6
 2640 0a0c 488B55E8 		movq	-24(%rbp), %rdx
 2641 0a10 488B1A   		movq	(%rdx), %rbx
 2642              		.loc 1 476 28
 2643 0a13 488D3500 		leaq	.LC23(%rip), %rsi
 2643      000000
 2644 0a1a 4889C7   		movq	%rax, %rdi
 2645 0a1d E8000000 		call	fopen@PLT
 2645      00
 2646              		.loc 1 476 27
 2647 0a22 48894330 		movq	%rax, 48(%rbx)
 477:/home/hkh/git/eapidk-code-r76-trunk/lib/linux/../EApiEmulI2C.c ****     if((*pOpenFiles)->FStream==NULL){
 2648              		.loc 1 477 9
 2649 0a26 488B45E8 		movq	-24(%rbp), %rax
 2650 0a2a 488B00   		movq	(%rax), %rax
 2651              		.loc 1 477 21
 2652 0a2d 488B4030 		movq	48(%rax), %rax
 2653              		.loc 1 477 7
 2654 0a31 4885C0   		testq	%rax, %rax
 2655 0a34 7525     		jne	.L41
 478:/home/hkh/git/eapidk-code-r76-trunk/lib/linux/../EApiEmulI2C.c ****       (*pOpenFiles)->FStream=fopen((*pOpenFiles)->cszFilename, "wb+");
 2656              		.loc 1 478 37
 2657 0a36 488B45E8 		movq	-24(%rbp), %rax
 2658 0a3a 488B00   		movq	(%rax), %rax
 2659              		.loc 1 478 30
 2660 0a3d 488B4028 		movq	40(%rax), %rax
 2661              		.loc 1 478 8
 2662 0a41 488B55E8 		movq	-24(%rbp), %rdx
 2663 0a45 488B1A   		movq	(%rdx), %rbx
 2664              		.loc 1 478 30
 2665 0a48 488D3500 		leaq	.LC24(%rip), %rsi
 2665      000000
 2666 0a4f 4889C7   		movq	%rax, %rdi
 2667 0a52 E8000000 		call	fopen@PLT
 2667      00
 2668              		.loc 1 478 29
 2669 0a57 48894330 		movq	%rax, 48(%rbx)
 2670              	.L41:
 479:/home/hkh/git/eapidk-code-r76-trunk/lib/linux/../EApiEmulI2C.c ****     }
 480:/home/hkh/git/eapidk-code-r76-trunk/lib/linux/../EApiEmulI2C.c ****     if((*pOpenFiles)->FStream!=NULL){
 2671              		.loc 1 480 9
 2672 0a5b 488B45E8 		movq	-24(%rbp), %rax
 2673 0a5f 488B00   		movq	(%rax), %rax
 2674              		.loc 1 480 21
 2675 0a62 488B4030 		movq	48(%rax), %rax
 2676              		.loc 1 480 7
 2677 0a66 4885C0   		testq	%rax, %rax
 2678 0a69 0F848200 		je	.L42
 2678      0000
 481:/home/hkh/git/eapidk-code-r76-trunk/lib/linux/../EApiEmulI2C.c ****         fseek((*pOpenFiles)->FStream, 0, SEEK_END);
 2679              		.loc 1 481 16
 2680 0a6f 488B45E8 		movq	-24(%rbp), %rax
 2681 0a73 488B00   		movq	(%rax), %rax
GAS LISTING /tmp/ccHlBYPn.s 			page 63


 2682              		.loc 1 481 9
 2683 0a76 488B4030 		movq	48(%rax), %rax
 2684 0a7a BA020000 		movl	$2, %edx
 2684      00
 2685 0a7f BE000000 		movl	$0, %esi
 2685      00
 2686 0a84 4889C7   		movq	%rax, %rdi
 2687 0a87 E8000000 		call	fseek@PLT
 2687      00
 482:/home/hkh/git/eapidk-code-r76-trunk/lib/linux/../EApiEmulI2C.c ****         if(ftell((*pOpenFiles)->FStream)<(signed)(*pOpenFiles)->ByteLen){
 2688              		.loc 1 482 19
 2689 0a8c 488B45E8 		movq	-24(%rbp), %rax
 2690 0a90 488B00   		movq	(%rax), %rax
 2691              		.loc 1 482 12
 2692 0a93 488B4030 		movq	48(%rax), %rax
 2693 0a97 4889C7   		movq	%rax, %rdi
 2694 0a9a E8000000 		call	ftell@PLT
 2694      00
 2695              		.loc 1 482 51
 2696 0a9f 488B55E8 		movq	-24(%rbp), %rdx
 2697 0aa3 488B12   		movq	(%rdx), %rdx
 2698              		.loc 1 482 63
 2699 0aa6 488B12   		movq	(%rdx), %rdx
 2700              		.loc 1 482 42
 2701 0aa9 4863D2   		movslq	%edx, %rdx
 2702              		.loc 1 482 11
 2703 0aac 4839D0   		cmpq	%rdx, %rax
 2704 0aaf 7D40     		jge	.L42
 483:/home/hkh/git/eapidk-code-r76-trunk/lib/linux/../EApiEmulI2C.c ****           rewind((*pOpenFiles)->FStream);
 2705              		.loc 1 483 19
 2706 0ab1 488B45E8 		movq	-24(%rbp), %rax
 2707 0ab5 488B00   		movq	(%rax), %rax
 2708              		.loc 1 483 11
 2709 0ab8 488B4030 		movq	48(%rax), %rax
 2710 0abc 4889C7   		movq	%rax, %rdi
 2711 0abf E8000000 		call	rewind@PLT
 2711      00
 484:/home/hkh/git/eapidk-code-r76-trunk/lib/linux/../EApiEmulI2C.c ****           fwrite((*pOpenFiles)->pu8DBuffer, sizeof(uint8_t), (*pOpenFiles)->ByteLen, (*pOpenFiles)-
 2712              		.loc 1 484 87
 2713 0ac4 488B45E8 		movq	-24(%rbp), %rax
 2714 0ac8 488B00   		movq	(%rax), %rax
 2715              		.loc 1 484 11
 2716 0acb 488B4830 		movq	48(%rax), %rcx
 2717              		.loc 1 484 63
 2718 0acf 488B45E8 		movq	-24(%rbp), %rax
 2719 0ad3 488B00   		movq	(%rax), %rax
 2720              		.loc 1 484 11
 2721 0ad6 488B10   		movq	(%rax), %rdx
 2722              		.loc 1 484 19
 2723 0ad9 488B45E8 		movq	-24(%rbp), %rax
 2724 0add 488B00   		movq	(%rax), %rax
 2725              		.loc 1 484 31
 2726 0ae0 488B4020 		movq	32(%rax), %rax
 2727              		.loc 1 484 11
 2728 0ae4 BE010000 		movl	$1, %esi
 2728      00
 2729 0ae9 4889C7   		movq	%rax, %rdi
GAS LISTING /tmp/ccHlBYPn.s 			page 64


 2730 0aec E8000000 		call	fwrite@PLT
 2730      00
 2731              	.L42:
 475:/home/hkh/git/eapidk-code-r76-trunk/lib/linux/../EApiEmulI2C.c ****     (*pOpenFiles)->FStream=fopen((*pOpenFiles)->cszFilename, "rb+");
 2732              		.loc 1 475 36 discriminator 2
 2733 0af1 836DE401 		subl	$1, -28(%rbp)
 475:/home/hkh/git/eapidk-code-r76-trunk/lib/linux/../EApiEmulI2C.c ****     (*pOpenFiles)->FStream=fopen((*pOpenFiles)->cszFilename, "rb+");
 2734              		.loc 1 475 50 discriminator 2
 2735 0af5 488345E8 		addq	$8, -24(%rbp)
 2735      08
 2736              	.L40:
 475:/home/hkh/git/eapidk-code-r76-trunk/lib/linux/../EApiEmulI2C.c ****     (*pOpenFiles)->FStream=fopen((*pOpenFiles)->cszFilename, "rb+");
 2737              		.loc 1 475 3 discriminator 1
 2738 0afa 837DE400 		cmpl	$0, -28(%rbp)
 2739 0afe 0F85FDFE 		jne	.L43
 2739      FFFF
 485:/home/hkh/git/eapidk-code-r76-trunk/lib/linux/../EApiEmulI2C.c ****       }
 486:/home/hkh/git/eapidk-code-r76-trunk/lib/linux/../EApiEmulI2C.c ****     }
 487:/home/hkh/git/eapidk-code-r76-trunk/lib/linux/../EApiEmulI2C.c ****   }
 488:/home/hkh/git/eapidk-code-r76-trunk/lib/linux/../EApiEmulI2C.c ****   return EAPI_STATUS_SUCCESS;
 2740              		.loc 1 488 10
 2741 0b04 B8000000 		movl	$0, %eax
 2741      00
 489:/home/hkh/git/eapidk-code-r76-trunk/lib/linux/../EApiEmulI2C.c **** }
 2742              		.loc 1 489 1
 2743 0b09 4883C418 		addq	$24, %rsp
 2744 0b0d 5B       		popq	%rbx
 2745 0b0e 5D       		popq	%rbp
 2746              		.cfi_def_cfa 7, 8
 2747 0b0f C3       		ret
 2748              		.cfi_endproc
 2749              	.LFE11:
 2751              		.globl	CloseI2CEepromFiles
 2752              		.hidden	CloseI2CEepromFiles
 2754              	CloseI2CEepromFiles:
 2755              	.LFB12:
 490:/home/hkh/git/eapidk-code-r76-trunk/lib/linux/../EApiEmulI2C.c **** EApiStatus_t 
 491:/home/hkh/git/eapidk-code-r76-trunk/lib/linux/../EApiEmulI2C.c **** CloseI2CEepromFiles(void)
 492:/home/hkh/git/eapidk-code-r76-trunk/lib/linux/../EApiEmulI2C.c **** {
 2756              		.loc 1 492 1
 2757              		.cfi_startproc
 2758 0b10 F30F1EFA 		endbr64
 2759 0b14 55       		pushq	%rbp
 2760              		.cfi_def_cfa_offset 16
 2761              		.cfi_offset 6, -16
 2762 0b15 4889E5   		movq	%rsp, %rbp
 2763              		.cfi_def_cfa_register 6
 2764 0b18 4883EC10 		subq	$16, %rsp
 493:/home/hkh/git/eapidk-code-r76-trunk/lib/linux/../EApiEmulI2C.c ****   int i;
 494:/home/hkh/git/eapidk-code-r76-trunk/lib/linux/../EApiEmulI2C.c ****   EepromCfgData_t **pOpenFiles=OpenFiles;
 2765              		.loc 1 494 21
 2766 0b1c 488D0500 		leaq	OpenFiles(%rip), %rax
 2766      000000
 2767 0b23 488945F8 		movq	%rax, -8(%rbp)
 495:/home/hkh/git/eapidk-code-r76-trunk/lib/linux/../EApiEmulI2C.c ****   for(i=ARRAY_SIZE(OpenFiles); i; i--, pOpenFiles++){
 2768              		.loc 1 495 8
 2769 0b27 C745F406 		movl	$6, -12(%rbp)
GAS LISTING /tmp/ccHlBYPn.s 			page 65


 2769      000000
 2770              		.loc 1 495 3
 2771 0b2e EB3B     		jmp	.L46
 2772              	.L48:
 496:/home/hkh/git/eapidk-code-r76-trunk/lib/linux/../EApiEmulI2C.c ****     if((*pOpenFiles)->FStream!=NULL){
 2773              		.loc 1 496 9
 2774 0b30 488B45F8 		movq	-8(%rbp), %rax
 2775 0b34 488B00   		movq	(%rax), %rax
 2776              		.loc 1 496 21
 2777 0b37 488B4030 		movq	48(%rax), %rax
 2778              		.loc 1 496 7
 2779 0b3b 4885C0   		testq	%rax, %rax
 2780 0b3e 7422     		je	.L47
 497:/home/hkh/git/eapidk-code-r76-trunk/lib/linux/../EApiEmulI2C.c ****       fclose((*pOpenFiles)->FStream);
 2781              		.loc 1 497 15
 2782 0b40 488B45F8 		movq	-8(%rbp), %rax
 2783 0b44 488B00   		movq	(%rax), %rax
 2784              		.loc 1 497 7
 2785 0b47 488B4030 		movq	48(%rax), %rax
 2786 0b4b 4889C7   		movq	%rax, %rdi
 2787 0b4e E8000000 		call	fclose@PLT
 2787      00
 498:/home/hkh/git/eapidk-code-r76-trunk/lib/linux/../EApiEmulI2C.c ****       (*pOpenFiles)->FStream=NULL;
 2788              		.loc 1 498 8
 2789 0b53 488B45F8 		movq	-8(%rbp), %rax
 2790 0b57 488B00   		movq	(%rax), %rax
 2791              		.loc 1 498 29
 2792 0b5a 48C74030 		movq	$0, 48(%rax)
 2792      00000000 
 2793              	.L47:
 495:/home/hkh/git/eapidk-code-r76-trunk/lib/linux/../EApiEmulI2C.c ****     if((*pOpenFiles)->FStream!=NULL){
 2794              		.loc 1 495 36 discriminator 2
 2795 0b62 836DF401 		subl	$1, -12(%rbp)
 495:/home/hkh/git/eapidk-code-r76-trunk/lib/linux/../EApiEmulI2C.c ****     if((*pOpenFiles)->FStream!=NULL){
 2796              		.loc 1 495 50 discriminator 2
 2797 0b66 488345F8 		addq	$8, -8(%rbp)
 2797      08
 2798              	.L46:
 495:/home/hkh/git/eapidk-code-r76-trunk/lib/linux/../EApiEmulI2C.c ****     if((*pOpenFiles)->FStream!=NULL){
 2799              		.loc 1 495 3 discriminator 1
 2800 0b6b 837DF400 		cmpl	$0, -12(%rbp)
 2801 0b6f 75BF     		jne	.L48
 499:/home/hkh/git/eapidk-code-r76-trunk/lib/linux/../EApiEmulI2C.c ****     }
 500:/home/hkh/git/eapidk-code-r76-trunk/lib/linux/../EApiEmulI2C.c ****   }
 501:/home/hkh/git/eapidk-code-r76-trunk/lib/linux/../EApiEmulI2C.c ****   return EAPI_STATUS_SUCCESS;
 2802              		.loc 1 501 10
 2803 0b71 B8000000 		movl	$0, %eax
 2803      00
 502:/home/hkh/git/eapidk-code-r76-trunk/lib/linux/../EApiEmulI2C.c **** }
 2804              		.loc 1 502 1
 2805 0b76 C9       		leave
 2806              		.cfi_def_cfa 7, 8
 2807 0b77 C3       		ret
 2808              		.cfi_endproc
 2809              	.LFE12:
 2811              		.globl	EmulateEeePExpEeprom
 2812              		.hidden	EmulateEeePExpEeprom
GAS LISTING /tmp/ccHlBYPn.s 			page 66


 2814              	EmulateEeePExpEeprom:
 2815              	.LFB13:
 503:/home/hkh/git/eapidk-code-r76-trunk/lib/linux/../EApiEmulI2C.c **** 
 504:/home/hkh/git/eapidk-code-r76-trunk/lib/linux/../EApiEmulI2C.c **** EApiStatus_t 
 505:/home/hkh/git/eapidk-code-r76-trunk/lib/linux/../EApiEmulI2C.c **** EmulateEeePExpEeprom(
 506:/home/hkh/git/eapidk-code-r76-trunk/lib/linux/../EApiEmulI2C.c ****     __IN uint32_t Arg1      , 
 507:/home/hkh/git/eapidk-code-r76-trunk/lib/linux/../EApiEmulI2C.c ****     __IN void    *pWBuffer  , 
 508:/home/hkh/git/eapidk-code-r76-trunk/lib/linux/../EApiEmulI2C.c ****     __IN uint32_t WriteBCnt , 
 509:/home/hkh/git/eapidk-code-r76-trunk/lib/linux/../EApiEmulI2C.c ****     __OUT void   *pRBuffer  , 
 510:/home/hkh/git/eapidk-code-r76-trunk/lib/linux/../EApiEmulI2C.c ****     __IN uint32_t ReadBCnt
 511:/home/hkh/git/eapidk-code-r76-trunk/lib/linux/../EApiEmulI2C.c ****     )
 512:/home/hkh/git/eapidk-code-r76-trunk/lib/linux/../EApiEmulI2C.c **** {
 2816              		.loc 1 512 1
 2817              		.cfi_startproc
 2818 0b78 F30F1EFA 		endbr64
 2819 0b7c 55       		pushq	%rbp
 2820              		.cfi_def_cfa_offset 16
 2821              		.cfi_offset 6, -16
 2822 0b7d 4889E5   		movq	%rsp, %rbp
 2823              		.cfi_def_cfa_register 6
 2824 0b80 4883EC20 		subq	$32, %rsp
 2825 0b84 897DFC   		movl	%edi, -4(%rbp)
 2826 0b87 488975F0 		movq	%rsi, -16(%rbp)
 2827 0b8b 8955F8   		movl	%edx, -8(%rbp)
 2828 0b8e 48894DE8 		movq	%rcx, -24(%rbp)
 2829 0b92 448945E4 		movl	%r8d, -28(%rbp)
 513:/home/hkh/git/eapidk-code-r76-trunk/lib/linux/../EApiEmulI2C.c ****   return EmulateEepromFS(
 2830              		.loc 1 513 10
 2831 0b96 8B7DE4   		movl	-28(%rbp), %edi
 2832 0b99 8B4DF8   		movl	-8(%rbp), %ecx
 2833 0b9c 8B45FC   		movl	-4(%rbp), %eax
 2834 0b9f 488B75E8 		movq	-24(%rbp), %rsi
 2835 0ba3 488B55F0 		movq	-16(%rbp), %rdx
 2836 0ba7 4989F9   		movq	%rdi, %r9
 2837 0baa 4989F0   		movq	%rsi, %r8
 2838 0bad 488D3500 		leaq	EeePExpEEPromData(%rip), %rsi
 2838      000000
 2839 0bb4 4889C7   		movq	%rax, %rdi
 2840 0bb7 E8000000 		call	EmulateEepromFS
 2840      00
 514:/home/hkh/git/eapidk-code-r76-trunk/lib/linux/../EApiEmulI2C.c ****       Arg1, 
 515:/home/hkh/git/eapidk-code-r76-trunk/lib/linux/../EApiEmulI2C.c ****       &EeePExpEEPromData, 
 516:/home/hkh/git/eapidk-code-r76-trunk/lib/linux/../EApiEmulI2C.c ****       pWBuffer, 
 517:/home/hkh/git/eapidk-code-r76-trunk/lib/linux/../EApiEmulI2C.c ****       WriteBCnt, 
 518:/home/hkh/git/eapidk-code-r76-trunk/lib/linux/../EApiEmulI2C.c ****       pRBuffer, 
 519:/home/hkh/git/eapidk-code-r76-trunk/lib/linux/../EApiEmulI2C.c ****       ReadBCnt
 520:/home/hkh/git/eapidk-code-r76-trunk/lib/linux/../EApiEmulI2C.c ****       );
 521:/home/hkh/git/eapidk-code-r76-trunk/lib/linux/../EApiEmulI2C.c **** }
 2841              		.loc 1 521 1
 2842 0bbc C9       		leave
 2843              		.cfi_def_cfa 7, 8
 2844 0bbd C3       		ret
 2845              		.cfi_endproc
 2846              	.LFE13:
 2848              		.globl	EmulateCOM0CBEeprom
 2849              		.hidden	EmulateCOM0CBEeprom
 2851              	EmulateCOM0CBEeprom:
GAS LISTING /tmp/ccHlBYPn.s 			page 67


 2852              	.LFB14:
 522:/home/hkh/git/eapidk-code-r76-trunk/lib/linux/../EApiEmulI2C.c **** 
 523:/home/hkh/git/eapidk-code-r76-trunk/lib/linux/../EApiEmulI2C.c **** 
 524:/home/hkh/git/eapidk-code-r76-trunk/lib/linux/../EApiEmulI2C.c **** EApiStatus_t 
 525:/home/hkh/git/eapidk-code-r76-trunk/lib/linux/../EApiEmulI2C.c **** EmulateCOM0CBEeprom(
 526:/home/hkh/git/eapidk-code-r76-trunk/lib/linux/../EApiEmulI2C.c ****     __IN uint32_t Arg1      , 
 527:/home/hkh/git/eapidk-code-r76-trunk/lib/linux/../EApiEmulI2C.c ****     __IN void    *pWBuffer  , 
 528:/home/hkh/git/eapidk-code-r76-trunk/lib/linux/../EApiEmulI2C.c ****     __IN uint32_t WriteBCnt , 
 529:/home/hkh/git/eapidk-code-r76-trunk/lib/linux/../EApiEmulI2C.c ****     __OUT void   *pRBuffer  , 
 530:/home/hkh/git/eapidk-code-r76-trunk/lib/linux/../EApiEmulI2C.c ****     __IN uint32_t ReadBCnt
 531:/home/hkh/git/eapidk-code-r76-trunk/lib/linux/../EApiEmulI2C.c ****     )
 532:/home/hkh/git/eapidk-code-r76-trunk/lib/linux/../EApiEmulI2C.c **** {
 2853              		.loc 1 532 1
 2854              		.cfi_startproc
 2855 0bbe F30F1EFA 		endbr64
 2856 0bc2 55       		pushq	%rbp
 2857              		.cfi_def_cfa_offset 16
 2858              		.cfi_offset 6, -16
 2859 0bc3 4889E5   		movq	%rsp, %rbp
 2860              		.cfi_def_cfa_register 6
 2861 0bc6 4883EC20 		subq	$32, %rsp
 2862 0bca 897DFC   		movl	%edi, -4(%rbp)
 2863 0bcd 488975F0 		movq	%rsi, -16(%rbp)
 2864 0bd1 8955F8   		movl	%edx, -8(%rbp)
 2865 0bd4 48894DE8 		movq	%rcx, -24(%rbp)
 2866 0bd8 448945E4 		movl	%r8d, -28(%rbp)
 533:/home/hkh/git/eapidk-code-r76-trunk/lib/linux/../EApiEmulI2C.c ****   return EmulateEepromFS(
 2867              		.loc 1 533 10
 2868 0bdc 8B7DE4   		movl	-28(%rbp), %edi
 2869 0bdf 8B4DF8   		movl	-8(%rbp), %ecx
 2870 0be2 8B45FC   		movl	-4(%rbp), %eax
 2871 0be5 488B75E8 		movq	-24(%rbp), %rsi
 2872 0be9 488B55F0 		movq	-16(%rbp), %rdx
 2873 0bed 4989F9   		movq	%rdi, %r9
 2874 0bf0 4989F0   		movq	%rsi, %r8
 2875 0bf3 488D3500 		leaq	COM0CBEEPromData(%rip), %rsi
 2875      000000
 2876 0bfa 4889C7   		movq	%rax, %rdi
 2877 0bfd E8000000 		call	EmulateEepromFS
 2877      00
 534:/home/hkh/git/eapidk-code-r76-trunk/lib/linux/../EApiEmulI2C.c ****       Arg1, 
 535:/home/hkh/git/eapidk-code-r76-trunk/lib/linux/../EApiEmulI2C.c ****       &COM0CBEEPromData, 
 536:/home/hkh/git/eapidk-code-r76-trunk/lib/linux/../EApiEmulI2C.c ****       pWBuffer, 
 537:/home/hkh/git/eapidk-code-r76-trunk/lib/linux/../EApiEmulI2C.c ****       WriteBCnt, 
 538:/home/hkh/git/eapidk-code-r76-trunk/lib/linux/../EApiEmulI2C.c ****       pRBuffer, 
 539:/home/hkh/git/eapidk-code-r76-trunk/lib/linux/../EApiEmulI2C.c ****       ReadBCnt
 540:/home/hkh/git/eapidk-code-r76-trunk/lib/linux/../EApiEmulI2C.c ****       );
 541:/home/hkh/git/eapidk-code-r76-trunk/lib/linux/../EApiEmulI2C.c **** }
 2878              		.loc 1 541 1
 2879 0c02 C9       		leave
 2880              		.cfi_def_cfa 7, 8
 2881 0c03 C3       		ret
 2882              		.cfi_endproc
 2883              	.LFE14:
 2885              		.globl	EmulateCOM0MEeprom
 2886              		.hidden	EmulateCOM0MEeprom
 2888              	EmulateCOM0MEeprom:
GAS LISTING /tmp/ccHlBYPn.s 			page 68


 2889              	.LFB15:
 542:/home/hkh/git/eapidk-code-r76-trunk/lib/linux/../EApiEmulI2C.c **** 
 543:/home/hkh/git/eapidk-code-r76-trunk/lib/linux/../EApiEmulI2C.c **** EApiStatus_t 
 544:/home/hkh/git/eapidk-code-r76-trunk/lib/linux/../EApiEmulI2C.c **** EmulateCOM0MEeprom(
 545:/home/hkh/git/eapidk-code-r76-trunk/lib/linux/../EApiEmulI2C.c ****     __IN uint32_t Arg1      , 
 546:/home/hkh/git/eapidk-code-r76-trunk/lib/linux/../EApiEmulI2C.c ****     __IN void    *pWBuffer  , 
 547:/home/hkh/git/eapidk-code-r76-trunk/lib/linux/../EApiEmulI2C.c ****     __IN uint32_t WriteBCnt , 
 548:/home/hkh/git/eapidk-code-r76-trunk/lib/linux/../EApiEmulI2C.c ****     __OUT void   *pRBuffer  , 
 549:/home/hkh/git/eapidk-code-r76-trunk/lib/linux/../EApiEmulI2C.c ****     __IN uint32_t ReadBCnt
 550:/home/hkh/git/eapidk-code-r76-trunk/lib/linux/../EApiEmulI2C.c ****     )
 551:/home/hkh/git/eapidk-code-r76-trunk/lib/linux/../EApiEmulI2C.c **** {
 2890              		.loc 1 551 1
 2891              		.cfi_startproc
 2892 0c04 F30F1EFA 		endbr64
 2893 0c08 55       		pushq	%rbp
 2894              		.cfi_def_cfa_offset 16
 2895              		.cfi_offset 6, -16
 2896 0c09 4889E5   		movq	%rsp, %rbp
 2897              		.cfi_def_cfa_register 6
 2898 0c0c 4883EC20 		subq	$32, %rsp
 2899 0c10 897DFC   		movl	%edi, -4(%rbp)
 2900 0c13 488975F0 		movq	%rsi, -16(%rbp)
 2901 0c17 8955F8   		movl	%edx, -8(%rbp)
 2902 0c1a 48894DE8 		movq	%rcx, -24(%rbp)
 2903 0c1e 448945E4 		movl	%r8d, -28(%rbp)
 552:/home/hkh/git/eapidk-code-r76-trunk/lib/linux/../EApiEmulI2C.c ****   return EmulateEepromFS(
 2904              		.loc 1 552 10
 2905 0c22 8B7DE4   		movl	-28(%rbp), %edi
 2906 0c25 8B4DF8   		movl	-8(%rbp), %ecx
 2907 0c28 8B45FC   		movl	-4(%rbp), %eax
 2908 0c2b 488B75E8 		movq	-24(%rbp), %rsi
 2909 0c2f 488B55F0 		movq	-16(%rbp), %rdx
 2910 0c33 4989F9   		movq	%rdi, %r9
 2911 0c36 4989F0   		movq	%rsi, %r8
 2912 0c39 488D3500 		leaq	COM0MEEPromData(%rip), %rsi
 2912      000000
 2913 0c40 4889C7   		movq	%rax, %rdi
 2914 0c43 E8000000 		call	EmulateEepromFS
 2914      00
 553:/home/hkh/git/eapidk-code-r76-trunk/lib/linux/../EApiEmulI2C.c ****       Arg1, 
 554:/home/hkh/git/eapidk-code-r76-trunk/lib/linux/../EApiEmulI2C.c ****       &COM0MEEPromData, 
 555:/home/hkh/git/eapidk-code-r76-trunk/lib/linux/../EApiEmulI2C.c ****       pWBuffer, 
 556:/home/hkh/git/eapidk-code-r76-trunk/lib/linux/../EApiEmulI2C.c ****       WriteBCnt, 
 557:/home/hkh/git/eapidk-code-r76-trunk/lib/linux/../EApiEmulI2C.c ****       pRBuffer, 
 558:/home/hkh/git/eapidk-code-r76-trunk/lib/linux/../EApiEmulI2C.c ****       ReadBCnt
 559:/home/hkh/git/eapidk-code-r76-trunk/lib/linux/../EApiEmulI2C.c ****       );
 560:/home/hkh/git/eapidk-code-r76-trunk/lib/linux/../EApiEmulI2C.c **** }
 2915              		.loc 1 560 1
 2916 0c48 C9       		leave
 2917              		.cfi_def_cfa 7, 8
 2918 0c49 C3       		ret
 2919              		.cfi_endproc
 2920              	.LFE15:
 2922              		.hidden	CpuTemp
 2923              		.globl	CpuTemp
 2924              		.data
 2927              	CpuTemp:
GAS LISTING /tmp/ccHlBYPn.s 			page 69


 2928 0600 38       		.ascii	"8"
 2929              		.hidden	ChipsetTemp
 2930              		.globl	ChipsetTemp
 2933              	ChipsetTemp:
 2934 0601 2E       		.ascii	"."
 2935              		.hidden	SystemTemp
 2936              		.globl	SystemTemp
 2939              	SystemTemp:
 2940 0602 D2       		.ascii	"\322"
 2941              		.hidden	HwmonCmdIndx
 2942              		.globl	HwmonCmdIndx
 2943              		.section	.data.rel.local
 2944 01d0 00000000 		.align 32
 2944      00000000 
 2944      00000000 
 2944      00000000 
 2947              	HwmonCmdIndx:
 2948 01e0 10000000 		.quad	16
 2948      00000000 
 2949 01e8 01000000 		.quad	1
 2949      00000000 
 2950 01f0 00000000 		.quad	CpuTemp
 2950      00000000 
 2951 01f8 11000000 		.quad	17
 2951      00000000 
 2952 0200 01000000 		.quad	1
 2952      00000000 
 2953 0208 00000000 		.quad	ChipsetTemp
 2953      00000000 
 2954 0210 12000000 		.quad	18
 2954      00000000 
 2955 0218 01000000 		.quad	1
 2955      00000000 
 2956 0220 00000000 		.quad	SystemTemp
 2956      00000000 
 2957 0228 FFFFFFFF 		.quad	4294967295
 2957      00000000 
 2958 0230 00000000 		.quad	0
 2958      00000000 
 2959 0238 00000000 		.quad	0
 2959      00000000 
 2960              		.hidden	HWMon
 2961              		.globl	HWMon
 2962              		.section	.rodata
 2963              	.LC25:
 2964 0256 41445437 		.string	"ADT7447"
 2964      34343700 
 2965              		.section	.data.rel.local
 2966              		.align 32
 2969              	HWMon:
 2970 0240 01000000 		.quad	1
 2970      00000000 
 2971 0248 00000000 		.quad	0
 2971      00000000 
 2972 0250 00000000 		.quad	0
 2972      00000000 
 2973 0258 00000000 		.quad	.LC25
GAS LISTING /tmp/ccHlBYPn.s 			page 70


 2973      00000000 
 2974 0260 00000000 		.quad	HwmonCmdIndx
 2974      00000000 
 2975              		.text
 2976              		.globl	EmulateHWMonDevice
 2977              		.hidden	EmulateHWMonDevice
 2979              	EmulateHWMonDevice:
 2980              	.LFB16:
 561:/home/hkh/git/eapidk-code-r76-trunk/lib/linux/../EApiEmulI2C.c **** 
 562:/home/hkh/git/eapidk-code-r76-trunk/lib/linux/../EApiEmulI2C.c **** int8_t CpuTemp[1]={56};
 563:/home/hkh/git/eapidk-code-r76-trunk/lib/linux/../EApiEmulI2C.c **** int8_t ChipsetTemp[1]={46};
 564:/home/hkh/git/eapidk-code-r76-trunk/lib/linux/../EApiEmulI2C.c **** int8_t SystemTemp[1]={- 46};
 565:/home/hkh/git/eapidk-code-r76-trunk/lib/linux/../EApiEmulI2C.c **** CmdDesc_t HwmonCmdIndx[]={
 566:/home/hkh/git/eapidk-code-r76-trunk/lib/linux/../EApiEmulI2C.c ****   {0x0010, ARRAY_SIZE(CpuTemp)    , CpuTemp    },
 567:/home/hkh/git/eapidk-code-r76-trunk/lib/linux/../EApiEmulI2C.c ****   {0x0011, ARRAY_SIZE(ChipsetTemp), ChipsetTemp},
 568:/home/hkh/git/eapidk-code-r76-trunk/lib/linux/../EApiEmulI2C.c ****   {0x0012, ARRAY_SIZE(SystemTemp) , SystemTemp },
 569:/home/hkh/git/eapidk-code-r76-trunk/lib/linux/../EApiEmulI2C.c ****   {END_OF_LIST_MARK, 0 , NULL },
 570:/home/hkh/git/eapidk-code-r76-trunk/lib/linux/../EApiEmulI2C.c **** };
 571:/home/hkh/git/eapidk-code-r76-trunk/lib/linux/../EApiEmulI2C.c **** CmdDeviceCfgData_t HWMon={
 572:/home/hkh/git/eapidk-code-r76-trunk/lib/linux/../EApiEmulI2C.c ****   STD_INDEX,
 573:/home/hkh/git/eapidk-code-r76-trunk/lib/linux/../EApiEmulI2C.c ****   0,
 574:/home/hkh/git/eapidk-code-r76-trunk/lib/linux/../EApiEmulI2C.c ****   0,
 575:/home/hkh/git/eapidk-code-r76-trunk/lib/linux/../EApiEmulI2C.c ****   "ADT7447",
 576:/home/hkh/git/eapidk-code-r76-trunk/lib/linux/../EApiEmulI2C.c ****   HwmonCmdIndx
 577:/home/hkh/git/eapidk-code-r76-trunk/lib/linux/../EApiEmulI2C.c **** };
 578:/home/hkh/git/eapidk-code-r76-trunk/lib/linux/../EApiEmulI2C.c **** EApiStatus_t 
 579:/home/hkh/git/eapidk-code-r76-trunk/lib/linux/../EApiEmulI2C.c **** EmulateHWMonDevice(
 580:/home/hkh/git/eapidk-code-r76-trunk/lib/linux/../EApiEmulI2C.c ****     __IN  uint32_t Arg1, 
 581:/home/hkh/git/eapidk-code-r76-trunk/lib/linux/../EApiEmulI2C.c ****     __IN  void    *pWBuffer, 
 582:/home/hkh/git/eapidk-code-r76-trunk/lib/linux/../EApiEmulI2C.c ****     __IN  uint32_t WriteBCnt, 
 583:/home/hkh/git/eapidk-code-r76-trunk/lib/linux/../EApiEmulI2C.c ****     __OUT void    *pRBuffer, 
 584:/home/hkh/git/eapidk-code-r76-trunk/lib/linux/../EApiEmulI2C.c ****     __IN  uint32_t ReadBCnt
 585:/home/hkh/git/eapidk-code-r76-trunk/lib/linux/../EApiEmulI2C.c ****     )
 586:/home/hkh/git/eapidk-code-r76-trunk/lib/linux/../EApiEmulI2C.c **** {
 2981              		.loc 1 586 1
 2982              		.cfi_startproc
 2983 0c4a F30F1EFA 		endbr64
 2984 0c4e 55       		pushq	%rbp
 2985              		.cfi_def_cfa_offset 16
 2986              		.cfi_offset 6, -16
 2987 0c4f 4889E5   		movq	%rsp, %rbp
 2988              		.cfi_def_cfa_register 6
 2989 0c52 4883EC20 		subq	$32, %rsp
 2990 0c56 897DFC   		movl	%edi, -4(%rbp)
 2991 0c59 488975F0 		movq	%rsi, -16(%rbp)
 2992 0c5d 8955F8   		movl	%edx, -8(%rbp)
 2993 0c60 48894DE8 		movq	%rcx, -24(%rbp)
 2994 0c64 448945E4 		movl	%r8d, -28(%rbp)
 587:/home/hkh/git/eapidk-code-r76-trunk/lib/linux/../EApiEmulI2C.c ****   return EmulateCmdDevice(
 2995              		.loc 1 587 10
 2996 0c68 8B7DE4   		movl	-28(%rbp), %edi
 2997 0c6b 8B4DF8   		movl	-8(%rbp), %ecx
 2998 0c6e 8B45FC   		movl	-4(%rbp), %eax
 2999 0c71 488B75E8 		movq	-24(%rbp), %rsi
 3000 0c75 488B55F0 		movq	-16(%rbp), %rdx
 3001 0c79 4989F9   		movq	%rdi, %r9
 3002 0c7c 4989F0   		movq	%rsi, %r8
GAS LISTING /tmp/ccHlBYPn.s 			page 71


 3003 0c7f 488D3500 		leaq	HWMon(%rip), %rsi
 3003      000000
 3004 0c86 4889C7   		movq	%rax, %rdi
 3005 0c89 E8000000 		call	EmulateCmdDevice
 3005      00
 588:/home/hkh/git/eapidk-code-r76-trunk/lib/linux/../EApiEmulI2C.c ****       Arg1, 
 589:/home/hkh/git/eapidk-code-r76-trunk/lib/linux/../EApiEmulI2C.c ****       &HWMon, 
 590:/home/hkh/git/eapidk-code-r76-trunk/lib/linux/../EApiEmulI2C.c ****       pWBuffer, 
 591:/home/hkh/git/eapidk-code-r76-trunk/lib/linux/../EApiEmulI2C.c ****       WriteBCnt, 
 592:/home/hkh/git/eapidk-code-r76-trunk/lib/linux/../EApiEmulI2C.c ****       pRBuffer, 
 593:/home/hkh/git/eapidk-code-r76-trunk/lib/linux/../EApiEmulI2C.c ****       ReadBCnt
 594:/home/hkh/git/eapidk-code-r76-trunk/lib/linux/../EApiEmulI2C.c ****       );
 595:/home/hkh/git/eapidk-code-r76-trunk/lib/linux/../EApiEmulI2C.c **** }
 3006              		.loc 1 595 1
 3007 0c8e C9       		leave
 3008              		.cfi_def_cfa 7, 8
 3009 0c8f C3       		ret
 3010              		.cfi_endproc
 3011              	.LFE16:
 3013              		.hidden	ExternalI2CDevices
 3014              		.globl	ExternalI2CDevices
 3015              		.section	.data.rel.ro.local,"aw"
 3016              		.align 32
 3019              	ExternalI2CDevices:
 3020 0000 52000000 		.quad	82
 3020      00000000 
 3021 0008 00000000 		.quad	EmulateHWMonDevice
 3021      00000000 
 3022 0010 00000000 		.quad	0
 3022      00000000 
 3023 0018 A0000000 		.quad	160
 3023      00000000 
 3024 0020 00000000 		.quad	EmulateCOM0MEeprom
 3024      00000000 
 3025 0028 00000000 		.quad	0
 3025      00000000 
 3026 0030 A2000000 		.quad	162
 3026      00000000 
 3027 0038 00000000 		.quad	EmulateEeePExpEeprom
 3027      00000000 
 3028 0040 00000000 		.quad	0
 3028      00000000 
 3029 0048 A4000000 		.quad	164
 3029      00000000 
 3030 0050 00000000 		.quad	EmulateEeePExpEeprom
 3030      00000000 
 3031 0058 01000000 		.quad	1
 3031      00000000 
 3032 0060 A6000000 		.quad	166
 3032      00000000 
 3033 0068 00000000 		.quad	EmulateEeePExpEeprom
 3033      00000000 
 3034 0070 02000000 		.quad	2
 3034      00000000 
 3035 0078 A8000000 		.quad	168
 3035      00000000 
 3036 0080 00000000 		.quad	EmulateEeePExpEeprom
GAS LISTING /tmp/ccHlBYPn.s 			page 72


 3036      00000000 
 3037 0088 03000000 		.quad	3
 3037      00000000 
 3038 0090 AE000000 		.quad	174
 3038      00000000 
 3039 0098 00000000 		.quad	EmulateCOM0CBEeprom
 3039      00000000 
 3040 00a0 00000000 		.quad	0
 3040      00000000 
 3041 00a8 FFFFFFFF 		.quad	4294967295
 3041      00000000 
 3042 00b0 00000000 		.quad	0
 3042      00000000 
 3043 00b8 00000000 		.quad	0
 3043      00000000 
 3044              		.hidden	LVDS_1I2CDevices
 3045              		.globl	LVDS_1I2CDevices
 3046              		.align 32
 3049              	LVDS_1I2CDevices:
 3050 00c0 A0000000 		.quad	160
 3050      00000000 
 3051 00c8 00000000 		.quad	EmulateUDSEeprom
 3051      00000000 
 3052 00d0 00000000 		.quad	0
 3052      00000000 
 3053 00d8 A4000000 		.quad	164
 3053      00000000 
 3054 00e0 00000000 		.quad	EmulateDIDEeprom
 3054      00000000 
 3055 00e8 00000000 		.quad	0
 3055      00000000 
 3056 00f0 55F20000 		.quad	62037
 3056      00000000 
 3057 00f8 00000000 		.quad	EmulateDIDEeprom
 3057      00000000 
 3058 0100 00000000 		.quad	0
 3058      00000000 
 3059 0108 FFFFFFFF 		.quad	4294967295
 3059      00000000 
 3060 0110 00000000 		.quad	0
 3060      00000000 
 3061 0118 00000000 		.quad	0
 3061      00000000 
 3062              		.hidden	LVDS_2I2CDevices
 3063              		.globl	LVDS_2I2CDevices
 3064              		.align 32
 3067              	LVDS_2I2CDevices:
 3068 0120 A0000000 		.quad	160
 3068      00000000 
 3069 0128 00000000 		.quad	EmulateEPIEeprom
 3069      00000000 
 3070 0130 00000000 		.quad	0
 3070      00000000 
 3071 0138 A4000000 		.quad	164
 3071      00000000 
 3072 0140 00000000 		.quad	EmulateDIDEeprom
 3072      00000000 
GAS LISTING /tmp/ccHlBYPn.s 			page 73


 3073 0148 00000000 		.quad	0
 3073      00000000 
 3074 0150 FFFFFFFF 		.quad	4294967295
 3074      00000000 
 3075 0158 00000000 		.quad	0
 3075      00000000 
 3076 0160 00000000 		.quad	0
 3076      00000000 
 3077              		.hidden	EmulatedInterfaces
 3078              		.globl	EmulatedInterfaces
 3079 0168 00000000 		.align 32
 3079      00000000 
 3079      00000000 
 3079      00000000 
 3079      00000000 
 3082              	EmulatedInterfaces:
 3083 0180 00000000 		.long	0
 3084 0184 00000000 		.zero	4
 3085 0188 00000000 		.quad	ExternalI2CDevices
 3085      00000000 
 3086 0190 00000100 		.long	65536
 3087 0194 00000000 		.zero	4
 3088 0198 01000000 		.long	1
 3089 019c 00000000 		.zero	4
 3090 01a0 00000000 		.quad	LVDS_1I2CDevices
 3090      00000000 
 3091 01a8 00010000 		.long	256
 3092 01ac 00000000 		.zero	4
 3093 01b0 02000000 		.long	2
 3094 01b4 00000000 		.zero	4
 3095 01b8 00000000 		.quad	LVDS_2I2CDevices
 3095      00000000 
 3096 01c0 20000000 		.long	32
 3097 01c4 00000000 		.zero	4
 3098              		.section	.rodata
 3099              	.LC26:
 3100 025e 45417069 		.string	"EApiI2CGetBusCapEmul"
 3100      49324347 
 3100      65744275 
 3100      73436170 
 3100      456D756C 
 3101              	.LC27:
 3102 0273 556E7265 		.string	"Unrecognised I2C ID"
 3102      636F676E 
 3102      69736564 
 3102      20493243 
 3102      20494400 
 3103              		.text
 3104              		.globl	EApiI2CGetBusCapEmul
 3106              	EApiI2CGetBusCapEmul:
 3107              	.LFB17:
 596:/home/hkh/git/eapidk-code-r76-trunk/lib/linux/../EApiEmulI2C.c **** 
 597:/home/hkh/git/eapidk-code-r76-trunk/lib/linux/../EApiEmulI2C.c **** const BusDevicesTbl_t ExternalI2CDevices[]={
 598:/home/hkh/git/eapidk-code-r76-trunk/lib/linux/../EApiEmulI2C.c **** /* Device      Device         BLCK*/
 599:/home/hkh/git/eapidk-code-r76-trunk/lib/linux/../EApiEmulI2C.c **** /* Address    Emulator        CNT */
 600:/home/hkh/git/eapidk-code-r76-trunk/lib/linux/../EApiEmulI2C.c ****   {0x0052, EmulateHWMonDevice  , 0},
 601:/home/hkh/git/eapidk-code-r76-trunk/lib/linux/../EApiEmulI2C.c ****   {0x00A0, EmulateCOM0MEeprom  , 0},
GAS LISTING /tmp/ccHlBYPn.s 			page 74


 602:/home/hkh/git/eapidk-code-r76-trunk/lib/linux/../EApiEmulI2C.c ****   {0x00A2, EmulateEeePExpEeprom, 0},
 603:/home/hkh/git/eapidk-code-r76-trunk/lib/linux/../EApiEmulI2C.c ****   {0x00A4, EmulateEeePExpEeprom, 1},
 604:/home/hkh/git/eapidk-code-r76-trunk/lib/linux/../EApiEmulI2C.c ****   {0x00A6, EmulateEeePExpEeprom, 2},
 605:/home/hkh/git/eapidk-code-r76-trunk/lib/linux/../EApiEmulI2C.c ****   {0x00A8, EmulateEeePExpEeprom, 3},
 606:/home/hkh/git/eapidk-code-r76-trunk/lib/linux/../EApiEmulI2C.c ****   {0x00AE, EmulateCOM0CBEeprom , 0},
 607:/home/hkh/git/eapidk-code-r76-trunk/lib/linux/../EApiEmulI2C.c ****   {END_OF_LIST_MARK, NULL, 0}
 608:/home/hkh/git/eapidk-code-r76-trunk/lib/linux/../EApiEmulI2C.c **** };
 609:/home/hkh/git/eapidk-code-r76-trunk/lib/linux/../EApiEmulI2C.c **** const BusDevicesTbl_t LVDS_1I2CDevices[]={
 610:/home/hkh/git/eapidk-code-r76-trunk/lib/linux/../EApiEmulI2C.c **** /* Device      Device         BLCK*/
 611:/home/hkh/git/eapidk-code-r76-trunk/lib/linux/../EApiEmulI2C.c **** /* Address    Emulator        CNT */
 612:/home/hkh/git/eapidk-code-r76-trunk/lib/linux/../EApiEmulI2C.c ****   {0x00A0, EmulateUDSEeprom, 0},
 613:/home/hkh/git/eapidk-code-r76-trunk/lib/linux/../EApiEmulI2C.c ****   {0x00A4, EmulateDIDEeprom, 0},
 614:/home/hkh/git/eapidk-code-r76-trunk/lib/linux/../EApiEmulI2C.c ****   {0xF255, EmulateDIDEeprom, 0},
 615:/home/hkh/git/eapidk-code-r76-trunk/lib/linux/../EApiEmulI2C.c ****   {END_OF_LIST_MARK, NULL, 0}
 616:/home/hkh/git/eapidk-code-r76-trunk/lib/linux/../EApiEmulI2C.c **** };
 617:/home/hkh/git/eapidk-code-r76-trunk/lib/linux/../EApiEmulI2C.c **** const BusDevicesTbl_t LVDS_2I2CDevices[]={
 618:/home/hkh/git/eapidk-code-r76-trunk/lib/linux/../EApiEmulI2C.c **** /* Device      Device         BLCK*/
 619:/home/hkh/git/eapidk-code-r76-trunk/lib/linux/../EApiEmulI2C.c **** /* Address    Emulator        CNT */
 620:/home/hkh/git/eapidk-code-r76-trunk/lib/linux/../EApiEmulI2C.c ****   {0x00A0, EmulateEPIEeprom, 0},
 621:/home/hkh/git/eapidk-code-r76-trunk/lib/linux/../EApiEmulI2C.c ****   {0x00A4, EmulateDIDEeprom, 0},
 622:/home/hkh/git/eapidk-code-r76-trunk/lib/linux/../EApiEmulI2C.c ****   {END_OF_LIST_MARK, NULL, 0}
 623:/home/hkh/git/eapidk-code-r76-trunk/lib/linux/../EApiEmulI2C.c **** };
 624:/home/hkh/git/eapidk-code-r76-trunk/lib/linux/../EApiEmulI2C.c **** 
 625:/home/hkh/git/eapidk-code-r76-trunk/lib/linux/../EApiEmulI2C.c **** typedef struct InterfaceIdsTbl_s{
 626:/home/hkh/git/eapidk-code-r76-trunk/lib/linux/../EApiEmulI2C.c ****   const EApiId_t         Id         ; /* I2C EAPI Bus Id */
 627:/home/hkh/git/eapidk-code-r76-trunk/lib/linux/../EApiEmulI2C.c ****   const BusDevicesTbl_t *DevicesList; /* Pointer to Device List for 
 628:/home/hkh/git/eapidk-code-r76-trunk/lib/linux/../EApiEmulI2C.c ****                                        * Emulated I2C Bus */
 629:/home/hkh/git/eapidk-code-r76-trunk/lib/linux/../EApiEmulI2C.c ****   uint32_t               MaxBlockLen; /* Max Block Length Supported 
 630:/home/hkh/git/eapidk-code-r76-trunk/lib/linux/../EApiEmulI2C.c ****                                        * by Interface */
 631:/home/hkh/git/eapidk-code-r76-trunk/lib/linux/../EApiEmulI2C.c **** }InterfaceIdsTbl_t;
 632:/home/hkh/git/eapidk-code-r76-trunk/lib/linux/../EApiEmulI2C.c **** 
 633:/home/hkh/git/eapidk-code-r76-trunk/lib/linux/../EApiEmulI2C.c **** const InterfaceIdsTbl_t EmulatedInterfaces[]={
 634:/home/hkh/git/eapidk-code-r76-trunk/lib/linux/../EApiEmulI2C.c **** /*                                           Interface */
 635:/home/hkh/git/eapidk-code-r76-trunk/lib/linux/../EApiEmulI2C.c **** /*                                           Max Block */
 636:/home/hkh/git/eapidk-code-r76-trunk/lib/linux/../EApiEmulI2C.c **** /* BUS EApi ID           Bus Device List     Length    */
 637:/home/hkh/git/eapidk-code-r76-trunk/lib/linux/../EApiEmulI2C.c ****   {EAPI_ID_I2C_EXTERNAL, ExternalI2CDevices, 0x10000},
 638:/home/hkh/git/eapidk-code-r76-trunk/lib/linux/../EApiEmulI2C.c ****   {EAPI_ID_I2C_LVDS_1,   LVDS_1I2CDevices  , 0x00100},
 639:/home/hkh/git/eapidk-code-r76-trunk/lib/linux/../EApiEmulI2C.c ****   {EAPI_ID_I2C_LVDS_2,   LVDS_2I2CDevices  , 0x00020}
 640:/home/hkh/git/eapidk-code-r76-trunk/lib/linux/../EApiEmulI2C.c **** };
 641:/home/hkh/git/eapidk-code-r76-trunk/lib/linux/../EApiEmulI2C.c **** EApiStatus_t 
 642:/home/hkh/git/eapidk-code-r76-trunk/lib/linux/../EApiEmulI2C.c **** EAPI_CALLTYPE 
 643:/home/hkh/git/eapidk-code-r76-trunk/lib/linux/../EApiEmulI2C.c **** EApiI2CGetBusCapEmul(
 644:/home/hkh/git/eapidk-code-r76-trunk/lib/linux/../EApiEmulI2C.c ****     __IN  EApiId_t  Id, 
 645:/home/hkh/git/eapidk-code-r76-trunk/lib/linux/../EApiEmulI2C.c ****     __OUT uint32_t *pMaxBlkLen
 646:/home/hkh/git/eapidk-code-r76-trunk/lib/linux/../EApiEmulI2C.c ****     )
 647:/home/hkh/git/eapidk-code-r76-trunk/lib/linux/../EApiEmulI2C.c **** {
 3108              		.loc 1 647 1
 3109              		.cfi_startproc
 3110 0c90 F30F1EFA 		endbr64
 3111 0c94 55       		pushq	%rbp
 3112              		.cfi_def_cfa_offset 16
 3113              		.cfi_offset 6, -16
 3114 0c95 4889E5   		movq	%rsp, %rbp
 3115              		.cfi_def_cfa_register 6
 3116 0c98 4883EC20 		subq	$32, %rsp
 3117 0c9c 897DEC   		movl	%edi, -20(%rbp)
 3118 0c9f 488975E0 		movq	%rsi, -32(%rbp)
GAS LISTING /tmp/ccHlBYPn.s 			page 75


 648:/home/hkh/git/eapidk-code-r76-trunk/lib/linux/../EApiEmulI2C.c ****   EApiStatus_t StatusCode=EAPI_STATUS_SUCCESS;
 3119              		.loc 1 648 16
 3120 0ca3 C745F800 		movl	$0, -8(%rbp)
 3120      000000
 649:/home/hkh/git/eapidk-code-r76-trunk/lib/linux/../EApiEmulI2C.c ****   unsigned i;
 650:/home/hkh/git/eapidk-code-r76-trunk/lib/linux/../EApiEmulI2C.c **** 
 651:/home/hkh/git/eapidk-code-r76-trunk/lib/linux/../EApiEmulI2C.c ****   for(i=0;i<ARRAY_SIZE(EmulatedInterfaces);i++)
 3121              		.loc 1 651 8
 3122 0caa C745FC00 		movl	$0, -4(%rbp)
 3122      000000
 3123              		.loc 1 651 3
 3124 0cb1 E9910000 		jmp	.L59
 3124      00
 3125              	.L62:
 652:/home/hkh/git/eapidk-code-r76-trunk/lib/linux/../EApiEmulI2C.c ****   {
 653:/home/hkh/git/eapidk-code-r76-trunk/lib/linux/../EApiEmulI2C.c ****       if(EmulatedInterfaces[i].Id==Id)
 3126              		.loc 1 653 31
 3127 0cb6 8B55FC   		movl	-4(%rbp), %edx
 3128 0cb9 4889D0   		movq	%rdx, %rax
 3129 0cbc 4801C0   		addq	%rax, %rax
 3130 0cbf 4801D0   		addq	%rdx, %rax
 3131 0cc2 48C1E003 		salq	$3, %rax
 3132 0cc6 4889C2   		movq	%rax, %rdx
 3133 0cc9 488D0500 		leaq	EmulatedInterfaces(%rip), %rax
 3133      000000
 3134 0cd0 8B0402   		movl	(%rdx,%rax), %eax
 3135              		.loc 1 653 9
 3136 0cd3 3945EC   		cmpl	%eax, -20(%rbp)
 3137 0cd6 756B     		jne	.L60
 654:/home/hkh/git/eapidk-code-r76-trunk/lib/linux/../EApiEmulI2C.c ****       {
 655:/home/hkh/git/eapidk-code-r76-trunk/lib/linux/../EApiEmulI2C.c ****           *pMaxBlkLen=EmulatedInterfaces[i].MaxBlockLen;
 3138              		.loc 1 655 44
 3139 0cd8 8B55FC   		movl	-4(%rbp), %edx
 3140 0cdb 4889D0   		movq	%rdx, %rax
 3141 0cde 4801C0   		addq	%rax, %rax
 3142 0ce1 4801D0   		addq	%rdx, %rax
 3143 0ce4 48C1E003 		salq	$3, %rax
 3144 0ce8 4889C2   		movq	%rax, %rdx
 3145 0ceb 488D0500 		leaq	16+EmulatedInterfaces(%rip), %rax
 3145      000000
 3146 0cf2 8B1402   		movl	(%rdx,%rax), %edx
 3147              		.loc 1 655 22
 3148 0cf5 488B45E0 		movq	-32(%rbp), %rax
 3149 0cf9 8910     		movl	%edx, (%rax)
 656:/home/hkh/git/eapidk-code-r76-trunk/lib/linux/../EApiEmulI2C.c ****           EAPI_LIB_RETURN_SUCCESS(
 3150              		.loc 1 656 11
 3151 0cfb 4883EC08 		subq	$8, %rsp
 3152 0cff 488D0500 		leaq	.LC14(%rip), %rax
 3152      000000
 3153 0d06 50       		pushq	%rax
 3154 0d07 4C8D0D00 		leaq	.LC6(%rip), %r9
 3154      000000
 3155 0d0e 41B80000 		movl	$0, %r8d
 3155      0000
 3156 0d14 B9900200 		movl	$656, %ecx
 3156      00
 3157 0d19 488D1500 		leaq	.LC26(%rip), %rdx
GAS LISTING /tmp/ccHlBYPn.s 			page 76


 3157      000000
 3158 0d20 488D3500 		leaq	.LC5(%rip), %rsi
 3158      000000
 3159 0d27 BF4C0000 		movl	$76, %edi
 3159      00
 3160 0d2c B8000000 		movl	$0, %eax
 3160      00
 3161 0d31 E8000000 		call	siFormattedMessage_SC@PLT
 3161      00
 3162 0d36 4883C410 		addq	$16, %rsp
 3163 0d3a C745F800 		movl	$0, -8(%rbp)
 3163      000000
 3164 0d41 EB55     		jmp	.L61
 3165              	.L60:
 651:/home/hkh/git/eapidk-code-r76-trunk/lib/linux/../EApiEmulI2C.c ****   {
 3166              		.loc 1 651 45 discriminator 2
 3167 0d43 8345FC01 		addl	$1, -4(%rbp)
 3168              	.L59:
 651:/home/hkh/git/eapidk-code-r76-trunk/lib/linux/../EApiEmulI2C.c ****   {
 3169              		.loc 1 651 3 discriminator 1
 3170 0d47 837DFC02 		cmpl	$2, -4(%rbp)
 3171 0d4b 0F8665FF 		jbe	.L62
 3171      FFFF
 657:/home/hkh/git/eapidk-code-r76-trunk/lib/linux/../EApiEmulI2C.c ****             EApiI2CGetBusCapEmul, 
 658:/home/hkh/git/eapidk-code-r76-trunk/lib/linux/../EApiEmulI2C.c ****             ""
 659:/home/hkh/git/eapidk-code-r76-trunk/lib/linux/../EApiEmulI2C.c ****             );
 660:/home/hkh/git/eapidk-code-r76-trunk/lib/linux/../EApiEmulI2C.c ****       }
 661:/home/hkh/git/eapidk-code-r76-trunk/lib/linux/../EApiEmulI2C.c ****   }
 662:/home/hkh/git/eapidk-code-r76-trunk/lib/linux/../EApiEmulI2C.c **** 
 663:/home/hkh/git/eapidk-code-r76-trunk/lib/linux/../EApiEmulI2C.c ****   EAPI_LIB_RETURN_ERROR(
 3172              		.loc 1 663 3
 3173 0d51 4883EC08 		subq	$8, %rsp
 3174 0d55 488D0500 		leaq	.LC27(%rip), %rax
 3174      000000
 3175 0d5c 50       		pushq	%rax
 3176 0d5d 4C8D0D00 		leaq	.LC6(%rip), %r9
 3176      000000
 3177 0d64 41B8FFFC 		movl	$-769, %r8d
 3177      FFFF
 3178 0d6a B9970200 		movl	$663, %ecx
 3178      00
 3179 0d6f 488D1500 		leaq	.LC26(%rip), %rdx
 3179      000000
 3180 0d76 488D3500 		leaq	.LC5(%rip), %rsi
 3180      000000
 3181 0d7d BF450000 		movl	$69, %edi
 3181      00
 3182 0d82 B8000000 		movl	$0, %eax
 3182      00
 3183 0d87 E8000000 		call	siFormattedMessage_SC@PLT
 3183      00
 3184 0d8c 4883C410 		addq	$16, %rsp
 3185 0d90 C745F8FF 		movl	$-769, -8(%rbp)
 3185      FCFFFF
 3186 0d97 90       		nop
 3187              	.L61:
 664:/home/hkh/git/eapidk-code-r76-trunk/lib/linux/../EApiEmulI2C.c ****     EApiI2CGetBusCapEmul, 
GAS LISTING /tmp/ccHlBYPn.s 			page 77


 665:/home/hkh/git/eapidk-code-r76-trunk/lib/linux/../EApiEmulI2C.c ****     EAPI_STATUS_UNSUPPORTED  , 
 666:/home/hkh/git/eapidk-code-r76-trunk/lib/linux/../EApiEmulI2C.c ****     "Unrecognised I2C ID"
 667:/home/hkh/git/eapidk-code-r76-trunk/lib/linux/../EApiEmulI2C.c ****     );
 668:/home/hkh/git/eapidk-code-r76-trunk/lib/linux/../EApiEmulI2C.c **** EAPI_LIB_ASSERT_EXIT
 669:/home/hkh/git/eapidk-code-r76-trunk/lib/linux/../EApiEmulI2C.c **** 
 670:/home/hkh/git/eapidk-code-r76-trunk/lib/linux/../EApiEmulI2C.c ****   return StatusCode;
 3188              		.loc 1 670 10
 3189 0d98 8B45F8   		movl	-8(%rbp), %eax
 671:/home/hkh/git/eapidk-code-r76-trunk/lib/linux/../EApiEmulI2C.c **** }
 3190              		.loc 1 671 1
 3191 0d9b C9       		leave
 3192              		.cfi_def_cfa 7, 8
 3193 0d9c C3       		ret
 3194              		.cfi_endproc
 3195              	.LFE17:
 3197              		.section	.rodata
 3198              	.LC28:
 3199 0287 45417069 		.string	"EApiI2CWriteReadEmul"
 3199      49324357 
 3199      72697465 
 3199      52656164 
 3199      456D756C 
 3200              	.LC29:
 3201 029c 57726974 		.string	"WriteBCnt>(pMaxBlkLen+1)"
 3201      6542436E 
 3201      743E2870 
 3201      4D617842 
 3201      6C6B4C65 
 3202              	.LC30:
 3203 02b5 52656164 		.string	"ReadBCnt>(pMaxBlkLen+1)"
 3203      42436E74 
 3203      3E28704D 
 3203      6178426C 
 3203      6B4C656E 
 3204              	.LC31:
 3205 02cd 41444452 		.string	"ADDR=%02X\n"
 3205      3D253032 
 3205      580A00
 3206              	.LC32:
 3207 02d8 496E666F 		.string	"Info"
 3207      00
 3208              	.LC33:
 3209 02dd 44657669 		.string	"Device Not Present"
 3209      6365204E 
 3209      6F742050 
 3209      72657365 
 3209      6E7400
 3210              		.text
 3211              		.globl	EApiI2CWriteReadEmul
 3213              	EApiI2CWriteReadEmul:
 3214              	.LFB18:
 672:/home/hkh/git/eapidk-code-r76-trunk/lib/linux/../EApiEmulI2C.c **** 
 673:/home/hkh/git/eapidk-code-r76-trunk/lib/linux/../EApiEmulI2C.c **** /*
 674:/home/hkh/git/eapidk-code-r76-trunk/lib/linux/../EApiEmulI2C.c ****  *
 675:/home/hkh/git/eapidk-code-r76-trunk/lib/linux/../EApiEmulI2C.c ****  *  
 676:/home/hkh/git/eapidk-code-r76-trunk/lib/linux/../EApiEmulI2C.c ****  *
 677:/home/hkh/git/eapidk-code-r76-trunk/lib/linux/../EApiEmulI2C.c ****  *      I2C
GAS LISTING /tmp/ccHlBYPn.s 			page 78


 678:/home/hkh/git/eapidk-code-r76-trunk/lib/linux/../EApiEmulI2C.c ****  *
 679:/home/hkh/git/eapidk-code-r76-trunk/lib/linux/../EApiEmulI2C.c ****  *
 680:/home/hkh/git/eapidk-code-r76-trunk/lib/linux/../EApiEmulI2C.c ****  *
 681:/home/hkh/git/eapidk-code-r76-trunk/lib/linux/../EApiEmulI2C.c ****  */
 682:/home/hkh/git/eapidk-code-r76-trunk/lib/linux/../EApiEmulI2C.c **** EApiStatus_t 
 683:/home/hkh/git/eapidk-code-r76-trunk/lib/linux/../EApiEmulI2C.c **** EAPI_CALLTYPE 
 684:/home/hkh/git/eapidk-code-r76-trunk/lib/linux/../EApiEmulI2C.c **** EApiI2CWriteReadEmul(
 685:/home/hkh/git/eapidk-code-r76-trunk/lib/linux/../EApiEmulI2C.c ****     __IN      EApiId_t Id         , 
 686:/home/hkh/git/eapidk-code-r76-trunk/lib/linux/../EApiEmulI2C.c ****     __IN      uint8_t  Addr       , 
 687:/home/hkh/git/eapidk-code-r76-trunk/lib/linux/../EApiEmulI2C.c ****     __INOPT   void    *pWBuffer  , 
 688:/home/hkh/git/eapidk-code-r76-trunk/lib/linux/../EApiEmulI2C.c ****     __IN      uint32_t WriteBCnt  , 
 689:/home/hkh/git/eapidk-code-r76-trunk/lib/linux/../EApiEmulI2C.c ****     __OUTOPT  void    *pRBuffer  , 
 690:/home/hkh/git/eapidk-code-r76-trunk/lib/linux/../EApiEmulI2C.c ****     __IN      uint32_t ReadBCnt
 691:/home/hkh/git/eapidk-code-r76-trunk/lib/linux/../EApiEmulI2C.c ****     )
 692:/home/hkh/git/eapidk-code-r76-trunk/lib/linux/../EApiEmulI2C.c **** {
 3215              		.loc 1 692 1
 3216              		.cfi_startproc
 3217 0d9d F30F1EFA 		endbr64
 3218 0da1 55       		pushq	%rbp
 3219              		.cfi_def_cfa_offset 16
 3220              		.cfi_offset 6, -16
 3221 0da2 4889E5   		movq	%rsp, %rbp
 3222              		.cfi_def_cfa_register 6
 3223 0da5 4883EC30 		subq	$48, %rsp
 3224 0da9 897DEC   		movl	%edi, -20(%rbp)
 3225 0dac 89F0     		movl	%esi, %eax
 3226 0dae 488955E0 		movq	%rdx, -32(%rbp)
 3227 0db2 894DDC   		movl	%ecx, -36(%rbp)
 3228 0db5 4C8945D0 		movq	%r8, -48(%rbp)
 3229 0db9 44894DD8 		movl	%r9d, -40(%rbp)
 3230 0dbd 8845E8   		movb	%al, -24(%rbp)
 693:/home/hkh/git/eapidk-code-r76-trunk/lib/linux/../EApiEmulI2C.c ****   EApiStatus_t StatusCode=EAPI_STATUS_SUCCESS;
 3231              		.loc 1 693 16
 3232 0dc0 C745F000 		movl	$0, -16(%rbp)
 3232      000000
 694:/home/hkh/git/eapidk-code-r76-trunk/lib/linux/../EApiEmulI2C.c ****   unsigned i,i2;
 695:/home/hkh/git/eapidk-code-r76-trunk/lib/linux/../EApiEmulI2C.c ****   uint32_t LclAddr;
 696:/home/hkh/git/eapidk-code-r76-trunk/lib/linux/../EApiEmulI2C.c **** 
 697:/home/hkh/git/eapidk-code-r76-trunk/lib/linux/../EApiEmulI2C.c ****   for(i=0;i<ARRAY_SIZE(EmulatedInterfaces);i++)
 3233              		.loc 1 697 8
 3234 0dc7 C745F400 		movl	$0, -12(%rbp)
 3234      000000
 3235              		.loc 1 697 3
 3236 0dce E90D0300 		jmp	.L65
 3236      00
 3237              	.L80:
 698:/home/hkh/git/eapidk-code-r76-trunk/lib/linux/../EApiEmulI2C.c ****   {
 699:/home/hkh/git/eapidk-code-r76-trunk/lib/linux/../EApiEmulI2C.c ****       if(EmulatedInterfaces[i].Id==Id)
 3238              		.loc 1 699 31
 3239 0dd3 8B55F4   		movl	-12(%rbp), %edx
 3240 0dd6 4889D0   		movq	%rdx, %rax
 3241 0dd9 4801C0   		addq	%rax, %rax
 3242 0ddc 4801D0   		addq	%rdx, %rax
 3243 0ddf 48C1E003 		salq	$3, %rax
 3244 0de3 4889C2   		movq	%rax, %rdx
 3245 0de6 488D0500 		leaq	EmulatedInterfaces(%rip), %rax
 3245      000000
GAS LISTING /tmp/ccHlBYPn.s 			page 79


 3246 0ded 8B0402   		movl	(%rdx,%rax), %eax
 3247              		.loc 1 699 9
 3248 0df0 3945EC   		cmpl	%eax, -20(%rbp)
 3249 0df3 0F85E302 		jne	.L66
 3249      0000
 700:/home/hkh/git/eapidk-code-r76-trunk/lib/linux/../EApiEmulI2C.c ****       {
 701:/home/hkh/git/eapidk-code-r76-trunk/lib/linux/../EApiEmulI2C.c **** 	EAPI_LIB_RETURN_ERROR_IF(
 3250              		.loc 1 701 2
 3251 0df9 8B55F4   		movl	-12(%rbp), %edx
 3252 0dfc 4889D0   		movq	%rdx, %rax
 3253 0dff 4801C0   		addq	%rax, %rax
 3254 0e02 4801D0   		addq	%rdx, %rax
 3255 0e05 48C1E003 		salq	$3, %rax
 3256 0e09 4889C2   		movq	%rax, %rdx
 3257 0e0c 488D0500 		leaq	16+EmulatedInterfaces(%rip), %rax
 3257      000000
 3258 0e13 8B0402   		movl	(%rdx,%rax), %eax
 3259 0e16 83C001   		addl	$1, %eax
 3260 0e19 3945DC   		cmpl	%eax, -36(%rbp)
 3261 0e1c 764B     		jbe	.L67
 3262              		.loc 1 701 2 is_stmt 0 discriminator 1
 3263 0e1e 4883EC08 		subq	$8, %rsp
 3264 0e22 488D0500 		leaq	.LC29(%rip), %rax
 3264      000000
 3265 0e29 50       		pushq	%rax
 3266 0e2a 4C8D0D00 		leaq	.LC6(%rip), %r9
 3266      000000
 3267 0e31 41B8FDFE 		movl	$-259, %r8d
 3267      FFFF
 3268 0e37 B9BD0200 		movl	$701, %ecx
 3268      00
 3269 0e3c 488D1500 		leaq	.LC28(%rip), %rdx
 3269      000000
 3270 0e43 488D3500 		leaq	.LC5(%rip), %rsi
 3270      000000
 3271 0e4a BF450000 		movl	$69, %edi
 3271      00
 3272 0e4f B8000000 		movl	$0, %eax
 3272      00
 3273 0e54 E8000000 		call	siFormattedMessage_SC@PLT
 3273      00
 3274 0e59 4883C410 		addq	$16, %rsp
 3275 0e5d C745F0FD 		movl	$-259, -16(%rbp)
 3275      FEFFFF
 3276 0e64 E9C80200 		jmp	.L68
 3276      00
 3277              	.L67:
 702:/home/hkh/git/eapidk-code-r76-trunk/lib/linux/../EApiEmulI2C.c **** 	    EApiI2CWriteReadEmul, 
 703:/home/hkh/git/eapidk-code-r76-trunk/lib/linux/../EApiEmulI2C.c **** 	    (WriteBCnt>EmulatedInterfaces[i].MaxBlockLen+1), 
 704:/home/hkh/git/eapidk-code-r76-trunk/lib/linux/../EApiEmulI2C.c **** 	    EAPI_STATUS_INVALID_BLOCK_LENGTH,
 705:/home/hkh/git/eapidk-code-r76-trunk/lib/linux/../EApiEmulI2C.c **** 	    "WriteBCnt>(pMaxBlkLen+1)"
 706:/home/hkh/git/eapidk-code-r76-trunk/lib/linux/../EApiEmulI2C.c **** 	    );
 707:/home/hkh/git/eapidk-code-r76-trunk/lib/linux/../EApiEmulI2C.c **** 	EAPI_LIB_RETURN_ERROR_IF(
 3278              		.loc 1 707 2 is_stmt 1
 3279 0e69 8B55F4   		movl	-12(%rbp), %edx
 3280 0e6c 4889D0   		movq	%rdx, %rax
 3281 0e6f 4801C0   		addq	%rax, %rax
GAS LISTING /tmp/ccHlBYPn.s 			page 80


 3282 0e72 4801D0   		addq	%rdx, %rax
 3283 0e75 48C1E003 		salq	$3, %rax
 3284 0e79 4889C2   		movq	%rax, %rdx
 3285 0e7c 488D0500 		leaq	16+EmulatedInterfaces(%rip), %rax
 3285      000000
 3286 0e83 8B0402   		movl	(%rdx,%rax), %eax
 3287 0e86 83C001   		addl	$1, %eax
 3288 0e89 3945D8   		cmpl	%eax, -40(%rbp)
 3289 0e8c 764B     		jbe	.L69
 3290              		.loc 1 707 2 is_stmt 0 discriminator 1
 3291 0e8e 4883EC08 		subq	$8, %rsp
 3292 0e92 488D0500 		leaq	.LC30(%rip), %rax
 3292      000000
 3293 0e99 50       		pushq	%rax
 3294 0e9a 4C8D0D00 		leaq	.LC6(%rip), %r9
 3294      000000
 3295 0ea1 41B8FDFE 		movl	$-259, %r8d
 3295      FFFF
 3296 0ea7 B9C30200 		movl	$707, %ecx
 3296      00
 3297 0eac 488D1500 		leaq	.LC28(%rip), %rdx
 3297      000000
 3298 0eb3 488D3500 		leaq	.LC5(%rip), %rsi
 3298      000000
 3299 0eba BF450000 		movl	$69, %edi
 3299      00
 3300 0ebf B8000000 		movl	$0, %eax
 3300      00
 3301 0ec4 E8000000 		call	siFormattedMessage_SC@PLT
 3301      00
 3302 0ec9 4883C410 		addq	$16, %rsp
 3303 0ecd C745F0FD 		movl	$-259, -16(%rbp)
 3303      FEFFFF
 3304 0ed4 E9580200 		jmp	.L68
 3304      00
 3305              	.L69:
 708:/home/hkh/git/eapidk-code-r76-trunk/lib/linux/../EApiEmulI2C.c **** 	    EApiI2CWriteReadEmul, 
 709:/home/hkh/git/eapidk-code-r76-trunk/lib/linux/../EApiEmulI2C.c **** 	    (ReadBCnt>(EmulatedInterfaces[i].MaxBlockLen+1)), 
 710:/home/hkh/git/eapidk-code-r76-trunk/lib/linux/../EApiEmulI2C.c **** 	    EAPI_STATUS_INVALID_BLOCK_LENGTH,
 711:/home/hkh/git/eapidk-code-r76-trunk/lib/linux/../EApiEmulI2C.c **** 	    "ReadBCnt>(pMaxBlkLen+1)"
 712:/home/hkh/git/eapidk-code-r76-trunk/lib/linux/../EApiEmulI2C.c **** 	    );
 713:/home/hkh/git/eapidk-code-r76-trunk/lib/linux/../EApiEmulI2C.c ****         if(EAPI_I2C_IS_10BIT_ADDR(Addr<<8)){
 3306              		.loc 1 713 12 is_stmt 1
 3307 0ed9 0FB645E8 		movzbl	-24(%rbp), %eax
 3308 0edd C1E008   		sall	$8, %eax
 3309 0ee0 2500F800 		andl	$63488, %eax
 3309      00
 3310              		.loc 1 713 11
 3311 0ee5 3D00F000 		cmpl	$61440, %eax
 3311      00
 3312 0eea 7522     		jne	.L70
 714:/home/hkh/git/eapidk-code-r76-trunk/lib/linux/../EApiEmulI2C.c ****           LclAddr=Addr<<8;
 3313              		.loc 1 714 23
 3314 0eec 0FB645E8 		movzbl	-24(%rbp), %eax
 3315 0ef0 C1E008   		sall	$8, %eax
 3316              		.loc 1 714 18
 3317 0ef3 8945FC   		movl	%eax, -4(%rbp)
GAS LISTING /tmp/ccHlBYPn.s 			page 81


 715:/home/hkh/git/eapidk-code-r76-trunk/lib/linux/../EApiEmulI2C.c ****           LclAddr|=*((uint8_t *)pWBuffer);
 3318              		.loc 1 715 20
 3319 0ef6 488B45E0 		movq	-32(%rbp), %rax
 3320 0efa 0FB600   		movzbl	(%rax), %eax
 3321 0efd 0FB6C0   		movzbl	%al, %eax
 3322              		.loc 1 715 18
 3323 0f00 0945FC   		orl	%eax, -4(%rbp)
 716:/home/hkh/git/eapidk-code-r76-trunk/lib/linux/../EApiEmulI2C.c ****           pWBuffer=((uint8_t *)pWBuffer)+1;
 3324              		.loc 1 716 19
 3325 0f03 488345E0 		addq	$1, -32(%rbp)
 3325      01
 717:/home/hkh/git/eapidk-code-r76-trunk/lib/linux/../EApiEmulI2C.c ****           WriteBCnt--;
 3326              		.loc 1 717 20
 3327 0f08 836DDC01 		subl	$1, -36(%rbp)
 3328 0f0c EB07     		jmp	.L71
 3329              	.L70:
 718:/home/hkh/git/eapidk-code-r76-trunk/lib/linux/../EApiEmulI2C.c ****         }
 719:/home/hkh/git/eapidk-code-r76-trunk/lib/linux/../EApiEmulI2C.c ****         else
 720:/home/hkh/git/eapidk-code-r76-trunk/lib/linux/../EApiEmulI2C.c ****           LclAddr=Addr;
 3330              		.loc 1 720 18
 3331 0f0e 0FB645E8 		movzbl	-24(%rbp), %eax
 3332 0f12 8945FC   		movl	%eax, -4(%rbp)
 3333              	.L71:
 721:/home/hkh/git/eapidk-code-r76-trunk/lib/linux/../EApiEmulI2C.c **** 
 722:/home/hkh/git/eapidk-code-r76-trunk/lib/linux/../EApiEmulI2C.c **** #if (STRICT_VALIDATION>1)
 723:/home/hkh/git/eapidk-code-r76-trunk/lib/linux/../EApiEmulI2C.c ****         siFormattedMessage_M2(
 3334              		.loc 1 723 9
 3335 0f15 4883EC08 		subq	$8, %rsp
 3336 0f19 8B45FC   		movl	-4(%rbp), %eax
 3337 0f1c 50       		pushq	%rax
 3338 0f1d 4C8D0D00 		leaq	.LC31(%rip), %r9
 3338      000000
 3339 0f24 4C8D0500 		leaq	.LC32(%rip), %r8
 3339      000000
 3340 0f2b B9D70200 		movl	$727, %ecx
 3340      00
 3341 0f30 488D1500 		leaq	.LC28(%rip), %rdx
 3341      000000
 3342 0f37 488D3500 		leaq	.LC5(%rip), %rsi
 3342      000000
 3343 0f3e BF4C0000 		movl	$76, %edi
 3343      00
 3344 0f43 B8000000 		movl	$0, %eax
 3344      00
 3345 0f48 E8000000 		call	siFormattedMessage_M2@PLT
 3345      00
 3346 0f4d 4883C410 		addq	$16, %rsp
 724:/home/hkh/git/eapidk-code-r76-trunk/lib/linux/../EApiEmulI2C.c ****               'L'                   ,
 725:/home/hkh/git/eapidk-code-r76-trunk/lib/linux/../EApiEmulI2C.c ****               __FILE__              ,
 726:/home/hkh/git/eapidk-code-r76-trunk/lib/linux/../EApiEmulI2C.c ****               "EApiI2CWriteReadEmul",
 727:/home/hkh/git/eapidk-code-r76-trunk/lib/linux/../EApiEmulI2C.c ****               __LINE__              ,
 728:/home/hkh/git/eapidk-code-r76-trunk/lib/linux/../EApiEmulI2C.c ****               "Info"                ,
 729:/home/hkh/git/eapidk-code-r76-trunk/lib/linux/../EApiEmulI2C.c ****               "ADDR=%02"PRIX16"\n"  ,
 730:/home/hkh/git/eapidk-code-r76-trunk/lib/linux/../EApiEmulI2C.c ****               LclAddr
 731:/home/hkh/git/eapidk-code-r76-trunk/lib/linux/../EApiEmulI2C.c ****             );
 732:/home/hkh/git/eapidk-code-r76-trunk/lib/linux/../EApiEmulI2C.c **** #endif
 733:/home/hkh/git/eapidk-code-r76-trunk/lib/linux/../EApiEmulI2C.c ****         for(i2=0;
GAS LISTING /tmp/ccHlBYPn.s 			page 82


 3347              		.loc 1 733 15
 3348 0f51 C745F800 		movl	$0, -8(%rbp)
 3348      000000
 3349              		.loc 1 733 9
 3350 0f58 E9F50000 		jmp	.L72
 3350      00
 3351              	.L79:
 734:/home/hkh/git/eapidk-code-r76-trunk/lib/linux/../EApiEmulI2C.c ****             EmulatedInterfaces[i].DevicesList[i2].EncAddr!=END_OF_LIST_MARK;
 735:/home/hkh/git/eapidk-code-r76-trunk/lib/linux/../EApiEmulI2C.c ****             i2++
 736:/home/hkh/git/eapidk-code-r76-trunk/lib/linux/../EApiEmulI2C.c ****             )
 737:/home/hkh/git/eapidk-code-r76-trunk/lib/linux/../EApiEmulI2C.c ****         {
 738:/home/hkh/git/eapidk-code-r76-trunk/lib/linux/../EApiEmulI2C.c ****           if(EmulatedInterfaces[i].DevicesList[i2].EncAddr==LclAddr){
 3352              		.loc 1 738 35
 3353 0f5d 8B55F4   		movl	-12(%rbp), %edx
 3354 0f60 4889D0   		movq	%rdx, %rax
 3355 0f63 4801C0   		addq	%rax, %rax
 3356 0f66 4801D0   		addq	%rdx, %rax
 3357 0f69 48C1E003 		salq	$3, %rax
 3358 0f6d 4889C2   		movq	%rax, %rdx
 3359 0f70 488D0500 		leaq	8+EmulatedInterfaces(%rip), %rax
 3359      000000
 3360 0f77 488B0C02 		movq	(%rdx,%rax), %rcx
 3361              		.loc 1 738 47
 3362 0f7b 8B55F8   		movl	-8(%rbp), %edx
 3363 0f7e 4889D0   		movq	%rdx, %rax
 3364 0f81 4801C0   		addq	%rax, %rax
 3365 0f84 4801D0   		addq	%rdx, %rax
 3366 0f87 48C1E003 		salq	$3, %rax
 3367 0f8b 4801C8   		addq	%rcx, %rax
 3368              		.loc 1 738 51
 3369 0f8e 488B10   		movq	(%rax), %rdx
 3370              		.loc 1 738 59
 3371 0f91 8B45FC   		movl	-4(%rbp), %eax
 3372              		.loc 1 738 13
 3373 0f94 4839C2   		cmpq	%rax, %rdx
 3374 0f97 0F85B100 		jne	.L73
 3374      0000
 739:/home/hkh/git/eapidk-code-r76-trunk/lib/linux/../EApiEmulI2C.c ****             return EmulatedInterfaces[i].DevicesList[i2].Emulator(
 3375              		.loc 1 739 41
 3376 0f9d 8B55F4   		movl	-12(%rbp), %edx
 3377 0fa0 4889D0   		movq	%rdx, %rax
 3378 0fa3 4801C0   		addq	%rax, %rax
 3379 0fa6 4801D0   		addq	%rdx, %rax
 3380 0fa9 48C1E003 		salq	$3, %rax
 3381 0fad 4889C2   		movq	%rax, %rdx
 3382 0fb0 488D0500 		leaq	8+EmulatedInterfaces(%rip), %rax
 3382      000000
 3383 0fb7 488B0C02 		movq	(%rdx,%rax), %rcx
 3384              		.loc 1 739 53
 3385 0fbb 8B55F8   		movl	-8(%rbp), %edx
 3386 0fbe 4889D0   		movq	%rdx, %rax
 3387 0fc1 4801C0   		addq	%rax, %rax
 3388 0fc4 4801D0   		addq	%rdx, %rax
 3389 0fc7 48C1E003 		salq	$3, %rax
 3390 0fcb 4801C8   		addq	%rcx, %rax
 3391              		.loc 1 739 57
 3392 0fce 4C8B4808 		movq	8(%rax), %r9
GAS LISTING /tmp/ccHlBYPn.s 			page 83


 3393              		.loc 1 739 20
 3394 0fd2 837DD800 		cmpl	$0, -40(%rbp)
 3395 0fd6 7408     		je	.L74
 3396              		.loc 1 739 20 is_stmt 0 discriminator 1
 3397 0fd8 8B45D8   		movl	-40(%rbp), %eax
 3398 0fdb 8D78FF   		leal	-1(%rax), %edi
 3399 0fde EB05     		jmp	.L75
 3400              	.L74:
 3401              		.loc 1 739 20 discriminator 2
 3402 0fe0 BF000000 		movl	$0, %edi
 3402      00
 3403              	.L75:
 3404              		.loc 1 739 20 discriminator 4
 3405 0fe5 837DDC00 		cmpl	$0, -36(%rbp)
 3406 0fe9 7408     		je	.L76
 3407              		.loc 1 739 20 discriminator 5
 3408 0feb 8B45DC   		movl	-36(%rbp), %eax
 3409 0fee 8D70FF   		leal	-1(%rax), %esi
 3410 0ff1 EB05     		jmp	.L77
 3411              	.L76:
 3412              		.loc 1 739 20 discriminator 6
 3413 0ff3 BE000000 		movl	$0, %esi
 3413      00
 3414              	.L77:
 740:/home/hkh/git/eapidk-code-r76-trunk/lib/linux/../EApiEmulI2C.c ****                 EmulatedInterfaces[i].DevicesList[i2].Arg1, 
 3415              		.loc 1 740 38 is_stmt 1 discriminator 8
 3416 0ff8 8B55F4   		movl	-12(%rbp), %edx
 3417 0ffb 4889D0   		movq	%rdx, %rax
 3418 0ffe 4801C0   		addq	%rax, %rax
 3419 1001 4801D0   		addq	%rdx, %rax
 3420 1004 48C1E003 		salq	$3, %rax
 3421 1008 4889C2   		movq	%rax, %rdx
 3422 100b 488D0500 		leaq	8+EmulatedInterfaces(%rip), %rax
 3422      000000
 3423 1012 488B0C02 		movq	(%rdx,%rax), %rcx
 3424              		.loc 1 740 50 discriminator 8
 3425 1016 8B55F8   		movl	-8(%rbp), %edx
 3426 1019 4889D0   		movq	%rdx, %rax
 3427 101c 4801C0   		addq	%rax, %rax
 3428 101f 4801D0   		addq	%rdx, %rax
 3429 1022 48C1E003 		salq	$3, %rax
 3430 1026 4801C8   		addq	%rcx, %rax
 3431              		.loc 1 740 54 discriminator 8
 3432 1029 488B4010 		movq	16(%rax), %rax
 739:/home/hkh/git/eapidk-code-r76-trunk/lib/linux/../EApiEmulI2C.c ****             return EmulatedInterfaces[i].DevicesList[i2].Emulator(
 3433              		.loc 1 739 20 discriminator 8
 3434 102d 4189C2   		movl	%eax, %r10d
 3435 1030 488B55D0 		movq	-48(%rbp), %rdx
 3436 1034 488B45E0 		movq	-32(%rbp), %rax
 3437 1038 4189F8   		movl	%edi, %r8d
 3438 103b 4889D1   		movq	%rdx, %rcx
 3439 103e 89F2     		movl	%esi, %edx
 3440 1040 4889C6   		movq	%rax, %rsi
 3441 1043 4489D7   		movl	%r10d, %edi
 3442 1046 41FFD1   		call	*%r9
 3443              	.LVL0:
 3444 1049 E9E60000 		jmp	.L78
GAS LISTING /tmp/ccHlBYPn.s 			page 84


 3444      00
 3445              	.L73:
 735:/home/hkh/git/eapidk-code-r76-trunk/lib/linux/../EApiEmulI2C.c ****             )
 3446              		.loc 1 735 15
 3447 104e 8345F801 		addl	$1, -8(%rbp)
 3448              	.L72:
 734:/home/hkh/git/eapidk-code-r76-trunk/lib/linux/../EApiEmulI2C.c ****             i2++
 3449              		.loc 1 734 34 discriminator 1
 3450 1052 8B55F4   		movl	-12(%rbp), %edx
 3451 1055 4889D0   		movq	%rdx, %rax
 3452 1058 4801C0   		addq	%rax, %rax
 3453 105b 4801D0   		addq	%rdx, %rax
 3454 105e 48C1E003 		salq	$3, %rax
 3455 1062 4889C2   		movq	%rax, %rdx
 3456 1065 488D0500 		leaq	8+EmulatedInterfaces(%rip), %rax
 3456      000000
 3457 106c 488B0C02 		movq	(%rdx,%rax), %rcx
 734:/home/hkh/git/eapidk-code-r76-trunk/lib/linux/../EApiEmulI2C.c ****             i2++
 3458              		.loc 1 734 46 discriminator 1
 3459 1070 8B55F8   		movl	-8(%rbp), %edx
 3460 1073 4889D0   		movq	%rdx, %rax
 3461 1076 4801C0   		addq	%rax, %rax
 3462 1079 4801D0   		addq	%rdx, %rax
 3463 107c 48C1E003 		salq	$3, %rax
 3464 1080 4801C8   		addq	%rcx, %rax
 734:/home/hkh/git/eapidk-code-r76-trunk/lib/linux/../EApiEmulI2C.c ****             i2++
 3465              		.loc 1 734 50 discriminator 1
 3466 1083 488B00   		movq	(%rax), %rax
 733:/home/hkh/git/eapidk-code-r76-trunk/lib/linux/../EApiEmulI2C.c ****             EmulatedInterfaces[i].DevicesList[i2].EncAddr!=END_OF_LIST_MARK;
 3467              		.loc 1 733 9 discriminator 1
 3468 1086 BAFFFFFF 		movl	$4294967295, %edx
 3468      FF
 3469 108b 4839D0   		cmpq	%rdx, %rax
 3470 108e 0F85C9FE 		jne	.L79
 3470      FFFF
 741:/home/hkh/git/eapidk-code-r76-trunk/lib/linux/../EApiEmulI2C.c ****                 pWBuffer, 
 742:/home/hkh/git/eapidk-code-r76-trunk/lib/linux/../EApiEmulI2C.c ****                 (WriteBCnt?WriteBCnt-1:0), 
 743:/home/hkh/git/eapidk-code-r76-trunk/lib/linux/../EApiEmulI2C.c ****                 pRBuffer, 
 744:/home/hkh/git/eapidk-code-r76-trunk/lib/linux/../EApiEmulI2C.c ****                 (ReadBCnt?ReadBCnt-1:0)
 745:/home/hkh/git/eapidk-code-r76-trunk/lib/linux/../EApiEmulI2C.c ****                 );
 746:/home/hkh/git/eapidk-code-r76-trunk/lib/linux/../EApiEmulI2C.c ****           }
 747:/home/hkh/git/eapidk-code-r76-trunk/lib/linux/../EApiEmulI2C.c ****         }
 748:/home/hkh/git/eapidk-code-r76-trunk/lib/linux/../EApiEmulI2C.c ****         
 749:/home/hkh/git/eapidk-code-r76-trunk/lib/linux/../EApiEmulI2C.c ****         EAPI_LIB_RETURN_ERROR(
 3471              		.loc 1 749 9
 3472 1094 4883EC08 		subq	$8, %rsp
 3473 1098 488D0500 		leaq	.LC33(%rip), %rax
 3473      000000
 3474 109f 50       		pushq	%rax
 3475 10a0 4C8D0D00 		leaq	.LC6(%rip), %r9
 3475      000000
 3476 10a7 41B8FFFB 		movl	$-1025, %r8d
 3476      FFFF
 3477 10ad B9ED0200 		movl	$749, %ecx
 3477      00
 3478 10b2 488D1500 		leaq	.LC28(%rip), %rdx
 3478      000000
GAS LISTING /tmp/ccHlBYPn.s 			page 85


 3479 10b9 488D3500 		leaq	.LC5(%rip), %rsi
 3479      000000
 3480 10c0 BF450000 		movl	$69, %edi
 3480      00
 3481 10c5 B8000000 		movl	$0, %eax
 3481      00
 3482 10ca E8000000 		call	siFormattedMessage_SC@PLT
 3482      00
 3483 10cf 4883C410 		addq	$16, %rsp
 3484 10d3 C745F0FF 		movl	$-1025, -16(%rbp)
 3484      FBFFFF
 3485 10da EB55     		jmp	.L68
 3486              	.L66:
 697:/home/hkh/git/eapidk-code-r76-trunk/lib/linux/../EApiEmulI2C.c ****   {
 3487              		.loc 1 697 45 discriminator 2
 3488 10dc 8345F401 		addl	$1, -12(%rbp)
 3489              	.L65:
 697:/home/hkh/git/eapidk-code-r76-trunk/lib/linux/../EApiEmulI2C.c ****   {
 3490              		.loc 1 697 3 discriminator 1
 3491 10e0 837DF402 		cmpl	$2, -12(%rbp)
 3492 10e4 0F86E9FC 		jbe	.L80
 3492      FFFF
 750:/home/hkh/git/eapidk-code-r76-trunk/lib/linux/../EApiEmulI2C.c ****             EApiI2CWriteReadEmul, 
 751:/home/hkh/git/eapidk-code-r76-trunk/lib/linux/../EApiEmulI2C.c ****             EAPI_STATUS_NOT_FOUND  , 
 752:/home/hkh/git/eapidk-code-r76-trunk/lib/linux/../EApiEmulI2C.c ****             "Device Not Present"
 753:/home/hkh/git/eapidk-code-r76-trunk/lib/linux/../EApiEmulI2C.c ****             );
 754:/home/hkh/git/eapidk-code-r76-trunk/lib/linux/../EApiEmulI2C.c ****       }
 755:/home/hkh/git/eapidk-code-r76-trunk/lib/linux/../EApiEmulI2C.c ****   }
 756:/home/hkh/git/eapidk-code-r76-trunk/lib/linux/../EApiEmulI2C.c **** 
 757:/home/hkh/git/eapidk-code-r76-trunk/lib/linux/../EApiEmulI2C.c ****   EAPI_LIB_RETURN_ERROR(
 3493              		.loc 1 757 3
 3494 10ea 4883EC08 		subq	$8, %rsp
 3495 10ee 488D0500 		leaq	.LC27(%rip), %rax
 3495      000000
 3496 10f5 50       		pushq	%rax
 3497 10f6 4C8D0D00 		leaq	.LC6(%rip), %r9
 3497      000000
 3498 10fd 41B8FFFC 		movl	$-769, %r8d
 3498      FFFF
 3499 1103 B9F50200 		movl	$757, %ecx
 3499      00
 3500 1108 488D1500 		leaq	.LC28(%rip), %rdx
 3500      000000
 3501 110f 488D3500 		leaq	.LC5(%rip), %rsi
 3501      000000
 3502 1116 BF450000 		movl	$69, %edi
 3502      00
 3503 111b B8000000 		movl	$0, %eax
 3503      00
 3504 1120 E8000000 		call	siFormattedMessage_SC@PLT
 3504      00
 3505 1125 4883C410 		addq	$16, %rsp
 3506 1129 C745F0FF 		movl	$-769, -16(%rbp)
 3506      FCFFFF
 3507 1130 90       		nop
 3508              	.L68:
 758:/home/hkh/git/eapidk-code-r76-trunk/lib/linux/../EApiEmulI2C.c ****       EApiI2CWriteReadEmul, 
GAS LISTING /tmp/ccHlBYPn.s 			page 86


 759:/home/hkh/git/eapidk-code-r76-trunk/lib/linux/../EApiEmulI2C.c ****       EAPI_STATUS_UNSUPPORTED  , 
 760:/home/hkh/git/eapidk-code-r76-trunk/lib/linux/../EApiEmulI2C.c ****       "Unrecognised I2C ID"
 761:/home/hkh/git/eapidk-code-r76-trunk/lib/linux/../EApiEmulI2C.c ****       );
 762:/home/hkh/git/eapidk-code-r76-trunk/lib/linux/../EApiEmulI2C.c **** EAPI_LIB_ASSERT_EXIT
 763:/home/hkh/git/eapidk-code-r76-trunk/lib/linux/../EApiEmulI2C.c **** /*  */
 764:/home/hkh/git/eapidk-code-r76-trunk/lib/linux/../EApiEmulI2C.c ****   return StatusCode;
 3509              		.loc 1 764 10
 3510 1131 8B45F0   		movl	-16(%rbp), %eax
 3511              	.L78:
 765:/home/hkh/git/eapidk-code-r76-trunk/lib/linux/../EApiEmulI2C.c **** }
 3512              		.loc 1 765 1
 3513 1134 C9       		leave
 3514              		.cfi_def_cfa 7, 8
 3515 1135 C3       		ret
 3516              		.cfi_endproc
 3517              	.LFE18:
 3519              	.Letext0:
 3520              		.file 2 "/usr/lib/gcc/x86_64-linux-gnu/9/include/stddef.h"
 3521              		.file 3 "/usr/include/x86_64-linux-gnu/bits/types.h"
 3522              		.file 4 "/usr/include/x86_64-linux-gnu/bits/stdint-intn.h"
 3523              		.file 5 "/usr/include/x86_64-linux-gnu/bits/stdint-uintn.h"
 3524              		.file 6 "/usr/include/stdint.h"
 3525              		.file 7 "/usr/include/unistd.h"
 3526              		.file 8 "/usr/include/x86_64-linux-gnu/bits/getopt_core.h"
 3527              		.file 9 "/usr/include/time.h"
 3528              		.file 10 "/usr/include/x86_64-linux-gnu/bits/types/struct_FILE.h"
 3529              		.file 11 "/usr/include/x86_64-linux-gnu/bits/types/FILE.h"
 3530              		.file 12 "../../include/EApi.h"
 3531              		.file 13 "/usr/include/stdio.h"
 3532              		.file 14 "/usr/include/x86_64-linux-gnu/bits/sys_errlist.h"
 3533              		.file 15 "/home/hkh/git/eapidk-code-r76-trunk/lib/linux/../DIDData.h"
 3534              		.file 16 "/home/hkh/git/eapidk-code-r76-trunk/lib/linux/../UDSData.h"
 3535              		.file 17 "/home/hkh/git/eapidk-code-r76-trunk/lib/linux/../EPIData.h"
 6317              		.section	.note.gnu.property,"a"
 6318              		.align 8
 6319 0000 04000000 		.long	 1f - 0f
 6320 0004 10000000 		.long	 4f - 1f
 6321 0008 05000000 		.long	 5
 6322              	0:
 6323 000c 474E5500 		.string	 "GNU"
 6324              	1:
 6325              		.align 8
 6326 0010 020000C0 		.long	 0xc0000002
 6327 0014 04000000 		.long	 3f - 2f
 6328              	2:
 6329 0018 03000000 		.long	 0x3
 6330              	3:
 6331 001c 00000000 		.align 8
 6332              	4:
GAS LISTING /tmp/ccHlBYPn.s 			page 87


DEFINED SYMBOLS
                            *ABS*:0000000000000000 EApiEmulI2C.c
     /tmp/ccHlBYPn.s:17     .data.rel.local:0000000000000000 StdExt
     /tmp/ccHlBYPn.s:54     .text:0000000000000000 EmulateEepromFS
     /tmp/ccHlBYPn.s:495    .text:00000000000005a6 EmulateCmdDevice
     /tmp/ccHlBYPn.s:813    .data:0000000000000000 DIDEEPROM
     /tmp/ccHlBYPn.s:1333   .data.rel.local:0000000000000020 DIDEEPromData
     /tmp/ccHlBYPn.s:1345   .text:000000000000090b EmulateDIDEeprom
     /tmp/ccHlBYPn.s:1385   .data:0000000000000200 UDSEEPROM
     /tmp/ccHlBYPn.s:1905   .data.rel.local:0000000000000060 UDSEEPromData
     /tmp/ccHlBYPn.s:1917   .text:0000000000000951 EmulateUDSEeprom
     /tmp/ccHlBYPn.s:1957   .data:0000000000000400 EPIEEPROM
     /tmp/ccHlBYPn.s:2477   .data.rel.local:00000000000000a0 EPIEEPromData
     /tmp/ccHlBYPn.s:2489   .text:0000000000000997 EmulateEPIEeprom
     /tmp/ccHlBYPn.s:2529   .bss:0000000000000000 COM0MEEPROM
     /tmp/ccHlBYPn.s:2538   .data.rel.local:00000000000000e0 COM0MEEPromData
     /tmp/ccHlBYPn.s:2552   .bss:0000000000000800 COM0CBEEPROM
     /tmp/ccHlBYPn.s:2561   .data.rel.local:0000000000000120 COM0CBEEPromData
     /tmp/ccHlBYPn.s:2575   .bss:0000000000001800 EeePExpEEPROM
     /tmp/ccHlBYPn.s:2584   .data.rel.local:0000000000000160 EeePExpEEPromData
     /tmp/ccHlBYPn.s:2597   .data.rel.local:00000000000001a0 OpenFiles
     /tmp/ccHlBYPn.s:2613   .text:00000000000009dd OpenI2CEepromFiles
     /tmp/ccHlBYPn.s:2754   .text:0000000000000b10 CloseI2CEepromFiles
     /tmp/ccHlBYPn.s:2814   .text:0000000000000b78 EmulateEeePExpEeprom
     /tmp/ccHlBYPn.s:2851   .text:0000000000000bbe EmulateCOM0CBEeprom
     /tmp/ccHlBYPn.s:2888   .text:0000000000000c04 EmulateCOM0MEeprom
     /tmp/ccHlBYPn.s:2927   .data:0000000000000600 CpuTemp
     /tmp/ccHlBYPn.s:2933   .data:0000000000000601 ChipsetTemp
     /tmp/ccHlBYPn.s:2939   .data:0000000000000602 SystemTemp
     /tmp/ccHlBYPn.s:2947   .data.rel.local:00000000000001e0 HwmonCmdIndx
     /tmp/ccHlBYPn.s:2969   .data.rel.local:0000000000000240 HWMon
     /tmp/ccHlBYPn.s:2979   .text:0000000000000c4a EmulateHWMonDevice
     /tmp/ccHlBYPn.s:3019   .data.rel.ro.local:0000000000000000 ExternalI2CDevices
     /tmp/ccHlBYPn.s:3049   .data.rel.ro.local:00000000000000c0 LVDS_1I2CDevices
     /tmp/ccHlBYPn.s:3067   .data.rel.ro.local:0000000000000120 LVDS_2I2CDevices
     /tmp/ccHlBYPn.s:3082   .data.rel.ro.local:0000000000000180 EmulatedInterfaces
     /tmp/ccHlBYPn.s:3106   .text:0000000000000c90 EApiI2CGetBusCapEmul
     /tmp/ccHlBYPn.s:3213   .text:0000000000000d9d EApiI2CWriteReadEmul

UNDEFINED SYMBOLS
_GLOBAL_OFFSET_TABLE_
siFormattedMessage_M2
EApiSleepns
siFormattedMessage_SC
fseek
fwrite
fread
memcpy
memset
fopen
ftell
rewind
fclose
